; Listing generated by Microsoft (R) Optimizing Compiler Version 19.27.29112.0 

	TITLE	D:\stm_gfx_hacktues_project\smart_home_v2\smart_home\TouchGFX\generated\images\src\BitmapDatabase.cpp
	.686P
	.XMM
	include listing.inc
	.model	flat

INCLUDELIB MSVCRTD
INCLUDELIB OLDNAMES

EXTRN	?image_air_select@@3QBEB:BYTE			; image_air_select
EXTRN	?image_aircontrol_bg@@3QBEB:BYTE		; image_aircontrol_bg
EXTRN	?image_bathroom_normal@@3QBEB:BYTE		; image_bathroom_normal
EXTRN	?image_bathroom_pressed@@3QBEB:BYTE		; image_bathroom_pressed
EXTRN	?image_blak_screen@@3QBEB:BYTE			; image_blak_screen
EXTRN	?image_blue_slider_horizontal_large_indicators_slider_round_nob@@3QBEB:BYTE ; image_blue_slider_horizontal_large_indicators_slider_round_nob
EXTRN	?image_dark_slider_horizontal_medium_slider_round_edge_back@@3QBEB:BYTE ; image_dark_slider_horizontal_medium_slider_round_edge_back
EXTRN	?image_dark_slider_horizontal_medium_slider_round_edge_fill@@3QBEB:BYTE ; image_dark_slider_horizontal_medium_slider_round_edge_fill
EXTRN	?image_dark_togglebars_toggle_large_button_on@@3QBEB:BYTE ; image_dark_togglebars_toggle_large_button_on
EXTRN	?image_dark_togglebars_toggle_re_large_button_off@@3QBEB:BYTE ; image_dark_togglebars_toggle_re_large_button_off
EXTRN	?image_frames_00000@@3QBEB:BYTE			; image_frames_00000
EXTRN	?image_frames_00001@@3QBEB:BYTE			; image_frames_00001
EXTRN	?image_frames_00002@@3QBEB:BYTE			; image_frames_00002
EXTRN	?image_frames_00003@@3QBEB:BYTE			; image_frames_00003
EXTRN	?image_frames_00004@@3QBEB:BYTE			; image_frames_00004
EXTRN	?image_frames_00005@@3QBEB:BYTE			; image_frames_00005
EXTRN	?image_frames_00006@@3QBEB:BYTE			; image_frames_00006
EXTRN	?image_frames_00007@@3QBEB:BYTE			; image_frames_00007
EXTRN	?image_frames_00008@@3QBEB:BYTE			; image_frames_00008
EXTRN	?image_frames_00009@@3QBEB:BYTE			; image_frames_00009
EXTRN	?image_go_back_button@@3QBEB:BYTE		; image_go_back_button
EXTRN	?image_kitchen_normal@@3QBEB:BYTE		; image_kitchen_normal
EXTRN	?image_kitchen_pressed@@3QBEB:BYTE		; image_kitchen_pressed
EXTRN	?image_kitchen_ui_bg@@3QBEB:BYTE		; image_kitchen_ui_bg
EXTRN	?image_oven@@3QBEB:BYTE				; image_oven
EXTRN	?image_propeller@@3QBEB:BYTE			; image_propeller
EXTRN	?image_st_housedemo_ui_bg@@3QBEB:BYTE		; image_st_housedemo_ui_bg
EXTRN	?image_thermometer_512@@3QBEB:BYTE		; image_thermometer_512
EXTRN	?image_wash_frame_01@@3QBEB:BYTE		; image_wash_frame_01
EXTRN	?image_wash_frame_11@@3QBEB:BYTE		; image_wash_frame_11
EXTRN	?image_white@@3QBEB:BYTE			; image_white
EXTRN	?image_window_bg@@3QBEB:BYTE			; image_window_bg
msvcjmc	SEGMENT
__A2AE09F2_Types@hpp DB 01H
__29775C8A_vcruntime_new@h DB 01H
__8EB91C0F_Bitmap@hpp DB 01H
__CC2C1C72_BitmapDatabase@cpp DB 01H
msvcjmc	ENDS
CONST	SEGMENT
?bitmap_database@@3QBUBitmapData@Bitmap@touchgfx@@B DD FLAT:?image_air_select@@3QBEB ; bitmap_database
	DD	00H
	DW	0f0H
	DW	03cH
	DW	00H
	DW	00H
	DW	0f0H
	DW	03cH
	DD	FLAT:?image_aircontrol_bg@@3QBEB
	DD	00H
	DW	01e0H
	DW	0110H
	DW	00H
	DW	00H
	DW	01e0H
	DW	0110H
	DD	FLAT:?image_bathroom_normal@@3QBEB
	DD	00H
	DW	0aaH
	DW	046H
	DW	08aH
	DW	026H
	DW	04H
	DW	04004H
	DD	FLAT:?image_bathroom_pressed@@3QBEB
	DD	00H
	DW	0aaH
	DW	046H
	DW	023H
	DW	0eH
	DW	074H
	DW	0402cH
	DD	FLAT:?image_blak_screen@@3QBEB
	DD	00H
	DW	05d4H
	DW	0343H
	DW	00H
	DW	00H
	DW	05d4H
	DW	0343H
	DD	FLAT:?image_blue_slider_horizontal_large_indicators_slider_round_nob@@3QBEB
	DD	00H
	DW	03aH
	DW	03aH
	DW	0aH
	DW	09H
	DW	026H
	DW	04026H
	DD	FLAT:?image_dark_slider_horizontal_medium_slider_round_edge_back@@3QBEB
	DD	00H
	DW	0160H
	DW	0fH
	DW	03H
	DW	00H
	DW	015aH
	DW	0400eH
	DD	FLAT:?image_dark_slider_horizontal_medium_slider_round_edge_fill@@3QBEB
	DD	00H
	DW	0160H
	DW	0fH
	DW	03H
	DW	01H
	DW	015aH
	DW	0400cH
	DD	FLAT:?image_dark_togglebars_toggle_large_button_on@@3QBEB
	DD	00H
	DW	080H
	DW	026H
	DW	00H
	DW	00H
	DW	080H
	DW	026H
	DD	FLAT:?image_dark_togglebars_toggle_re_large_button_off@@3QBEB
	DD	00H
	DW	080H
	DW	026H
	DW	08H
	DW	00H
	DW	070H
	DW	04026H
	DD	FLAT:?image_frames_00000@@3QBEB
	DD	00H
	DW	0eeH
	DW	0eeH
	DW	00H
	DW	00H
	DW	0eeH
	DW	0eeH
	DD	FLAT:?image_frames_00001@@3QBEB
	DD	00H
	DW	0eeH
	DW	0eeH
	DW	00H
	DW	00H
	DW	0eeH
	DW	0eeH
	DD	FLAT:?image_frames_00002@@3QBEB
	DD	00H
	DW	0eeH
	DW	0eeH
	DW	00H
	DW	00H
	DW	0eeH
	DW	0eeH
	DD	FLAT:?image_frames_00003@@3QBEB
	DD	00H
	DW	0eeH
	DW	0eeH
	DW	00H
	DW	00H
	DW	0eeH
	DW	0eeH
	DD	FLAT:?image_frames_00004@@3QBEB
	DD	00H
	DW	0eeH
	DW	0eeH
	DW	00H
	DW	00H
	DW	0eeH
	DW	0eeH
	DD	FLAT:?image_frames_00005@@3QBEB
	DD	00H
	DW	0eeH
	DW	0eeH
	DW	00H
	DW	00H
	DW	0eeH
	DW	0eeH
	DD	FLAT:?image_frames_00006@@3QBEB
	DD	00H
	DW	0eeH
	DW	0eeH
	DW	00H
	DW	00H
	DW	0eeH
	DW	0eeH
	DD	FLAT:?image_frames_00007@@3QBEB
	DD	00H
	DW	0eeH
	DW	0eeH
	DW	00H
	DW	00H
	DW	0eeH
	DW	0eeH
	DD	FLAT:?image_frames_00008@@3QBEB
	DD	00H
	DW	0eeH
	DW	0eeH
	DW	00H
	DW	00H
	DW	0eeH
	DW	0eeH
	DD	FLAT:?image_frames_00009@@3QBEB
	DD	00H
	DW	0eeH
	DW	0eeH
	DW	00H
	DW	00H
	DW	0eeH
	DW	0eeH
	DD	FLAT:?image_go_back_button@@3QBEB
	DD	00H
	DW	03cH
	DW	03cH
	DW	013H
	DW	013H
	DW	01cH
	DW	0401cH
	DD	FLAT:?image_kitchen_normal@@3QBEB
	DD	00H
	DW	0aaH
	DW	046H
	DW	054H
	DW	01dH
	DW	01H
	DW	0400dH
	DD	FLAT:?image_kitchen_pressed@@3QBEB
	DD	00H
	DW	0aaH
	DW	046H
	DW	015H
	DW	0eH
	DW	074H
	DW	0402cH
	DD	FLAT:?image_kitchen_ui_bg@@3QBEB
	DD	00H
	DW	01e0H
	DW	0110H
	DW	00H
	DW	00H
	DW	01e0H
	DW	0110H
	DD	FLAT:?image_oven@@3QBEB
	DD	00H
	DW	0200H
	DW	0200H
	DW	010H
	DW	070H
	DW	01e0H
	DW	04010H
	DD	FLAT:?image_propeller@@3QBEB
	DD	00H
	DW	0e1H
	DW	0e1H
	DW	00H
	DW	00H
	DW	0e1H
	DW	0e1H
	DD	FLAT:?image_st_housedemo_ui_bg@@3QBEB
	DD	00H
	DW	01e0H
	DW	0110H
	DW	00H
	DW	09cH
	DW	01e0H
	DW	04074H
	DD	FLAT:?image_thermometer_512@@3QBEB
	DD	00H
	DW	0200H
	DW	0200H
	DW	0f4H
	DW	0e2H
	DW	018H
	DW	040fcH
	DD	FLAT:?image_wash_frame_01@@3QBEB
	DD	00H
	DW	084H
	DW	084H
	DW	013H
	DW	013H
	DW	05eH
	DW	0405eH
	DD	FLAT:?image_wash_frame_11@@3QBEB
	DD	00H
	DW	084H
	DW	084H
	DW	013H
	DW	013H
	DW	05eH
	DW	0405eH
	DD	FLAT:?image_white@@3QBEB
	DD	00H
	DW	04ffH
	DW	02baH
	DW	00H
	DW	00H
	DW	04ffH
	DW	02baH
	DD	FLAT:?image_window_bg@@3QBEB
	DD	00H
	DW	0104H
	DW	08cH
	DW	00H
	DW	00H
	DW	0104H
	DW	08cH
CONST	ENDS
PUBLIC	?getInstance@BitmapDatabase@@YAPBUBitmapData@Bitmap@touchgfx@@XZ ; BitmapDatabase::getInstance
PUBLIC	?getInstanceSize@BitmapDatabase@@YAGXZ		; BitmapDatabase::getInstanceSize
PUBLIC	__JustMyCode_Default
EXTRN	@__CheckForDebuggerJustMyCode@4:PROC
EXTRN	__RTC_CheckEsp:PROC
EXTRN	__RTC_InitBase:PROC
EXTRN	__RTC_Shutdown:PROC
;	COMDAT rtc$TMZ
rtc$TMZ	SEGMENT
__RTC_Shutdown.rtc$TMZ DD FLAT:__RTC_Shutdown
rtc$TMZ	ENDS
;	COMDAT rtc$IMZ
rtc$IMZ	SEGMENT
__RTC_InitBase.rtc$IMZ DD FLAT:__RTC_InitBase
rtc$IMZ	ENDS
; Function compile flags: /Odt
;	COMDAT __JustMyCode_Default
_TEXT	SEGMENT
__JustMyCode_Default PROC				; COMDAT
	push	ebp
	mov	ebp, esp
	pop	ebp
	ret	0
__JustMyCode_Default ENDP
_TEXT	ENDS
; Function compile flags: /Odtp /RTCsu /ZI
;	COMDAT ?getInstanceSize@BitmapDatabase@@YAGXZ
_TEXT	SEGMENT
?getInstanceSize@BitmapDatabase@@YAGXZ PROC		; BitmapDatabase::getInstanceSize, COMDAT
; File D:\stm_gfx_hacktues_project\smart_home_v2\smart_home\TouchGFX\generated\images\src\BitmapDatabase.cpp
; Line 84
	push	ebp
	mov	ebp, esp
	sub	esp, 192				; 000000c0H
	push	ebx
	push	esi
	push	edi
	lea	edi, DWORD PTR [ebp-192]
	mov	ecx, 48					; 00000030H
	mov	eax, -858993460				; ccccccccH
	rep stosd
	mov	ecx, OFFSET __CC2C1C72_BitmapDatabase@cpp
	call	@__CheckForDebuggerJustMyCode@4
; Line 85
	mov	eax, 32					; 00000020H
; Line 86
	pop	edi
	pop	esi
	pop	ebx
	add	esp, 192				; 000000c0H
	cmp	ebp, esp
	call	__RTC_CheckEsp
	mov	esp, ebp
	pop	ebp
	ret	0
?getInstanceSize@BitmapDatabase@@YAGXZ ENDP		; BitmapDatabase::getInstanceSize
_TEXT	ENDS
; Function compile flags: /Odtp /RTCsu /ZI
;	COMDAT ?getInstance@BitmapDatabase@@YAPBUBitmapData@Bitmap@touchgfx@@XZ
_TEXT	SEGMENT
?getInstance@BitmapDatabase@@YAPBUBitmapData@Bitmap@touchgfx@@XZ PROC ; BitmapDatabase::getInstance, COMDAT
; File D:\stm_gfx_hacktues_project\smart_home_v2\smart_home\TouchGFX\generated\images\src\BitmapDatabase.cpp
; Line 79
	push	ebp
	mov	ebp, esp
	sub	esp, 192				; 000000c0H
	push	ebx
	push	esi
	push	edi
	lea	edi, DWORD PTR [ebp-192]
	mov	ecx, 48					; 00000030H
	mov	eax, -858993460				; ccccccccH
	rep stosd
	mov	ecx, OFFSET __CC2C1C72_BitmapDatabase@cpp
	call	@__CheckForDebuggerJustMyCode@4
; Line 80
	mov	eax, OFFSET ?bitmap_database@@3QBUBitmapData@Bitmap@touchgfx@@B
; Line 81
	pop	edi
	pop	esi
	pop	ebx
	add	esp, 192				; 000000c0H
	cmp	ebp, esp
	call	__RTC_CheckEsp
	mov	esp, ebp
	pop	ebp
	ret	0
?getInstance@BitmapDatabase@@YAPBUBitmapData@Bitmap@touchgfx@@XZ ENDP ; BitmapDatabase::getInstance
_TEXT	ENDS
END
