; Listing generated by Microsoft (R) Optimizing Compiler Version 19.27.29112.0 

	TITLE	D:\stm_gfx_hacktues_project\smart_home_v2\smart_home\TouchGFX\generated\fonts\src\Font_verdana_40_4bpp_0.cpp
	.686P
	.XMM
	include listing.inc
	.model	flat

INCLUDELIB MSVCRTD
INCLUDELIB OLDNAMES

PUBLIC	?unicodes_verdana_40_4bpp_0@@3QBEB		; unicodes_verdana_40_4bpp_0
msvcjmc	SEGMENT
__A2AE09F2_Types@hpp DB 01H
msvcjmc	ENDS
CONST	SEGMENT
?unicodes_verdana_40_4bpp_0@@3QBEB DB 00H		; unicodes_verdana_40_4bpp_0
	DB	010H
	DB	053H
	DB	077H
	DB	057H
	DB	02H
	DB	00H
	DB	00H
	DB	00H
	DB	083H
	DB	0fcH
	DB	0ffH
	DB	0ffH
	DB	0ffH
	DB	0dfH
	DB	017H
	DB	00H
	DB	00H
	DB	0fdH
	DB	0ffH
	DB	0ffH
	DB	0ffH
	DB	0ffH
	DB	0ffH
	DB	0dfH
	DB	02H
	DB	00H
	DB	0fdH
	DB	0ffH
	DB	0ffH
	DB	0efH
	DB	0ffH
	DB	0ffH
	DB	0ffH
	DB	02eH
	DB	00H
	DB	0fdH
	DB	09eH
	DB	015H
	DB	00H
	DB	041H
	DB	0faH
	DB	0ffH
	DB	0bfH
	DB	00H
	DB	06bH
	DB	00H
	DB	00H
	DB	00H
	DB	00H
	DB	060H
	DB	0ffH
	DB	0ffH
	DB	02H
	DB	00H
	DB	00H
	DB	00H
	DB	00H
	DB	00H
	DB	00H
	DB	0fbH
	DB	0ffH
	DB	07H
	DB	00H
	DB	00H
	DB	00H
	DB	00H
	DB	00H
	DB	00H
	DB	0f7H
	DB	0ffH
	DB	08H
	DB	00H
	DB	00H
	DB	00H
	DB	00H
	DB	00H
	DB	00H
	DB	0f6H
	DB	0ffH
	DB	09H
	DB	00H
	DB	00H
	DB	00H
	DB	00H
	DB	00H
	DB	00H
	DB	0f7H
	DB	0ffH
	DB	07H
	DB	00H
	DB	00H
	DB	00H
	DB	00H
	DB	00H
	DB	00H
	DB	0fbH
	DB	0ffH
	DB	04H
	DB	00H
	DB	00H
	DB	00H
	DB	00H
	DB	00H
	DB	030H
	DB	0ffH
	DB	0efH
	DB	00H
	DB	00H
	DB	00H
	DB	00H
	DB	00H
	DB	00H
	DB	0c1H
	DB	0ffH
	DB	07fH
	DB	00H
	DB	00H
	DB	00H
	DB	00H
	DB	00H
	DB	010H
	DB	0fcH
	DB	0ffH
	DB	0cH
	DB	00H
	DB	00H
	DB	00H
	DB	00H
	DB	00H
	DB	0d3H
	DB	0ffH
	DB	0dfH
	DB	02H
	DB	00H
	DB	00H
	DB	00H
	DB	00H
	DB	081H
	DB	0ffH
	DB	0ffH
	DB	02cH
	DB	00H
	DB	00H
	DB	00H
	DB	00H
	DB	060H
	DB	0feH
	DB	0ffH
	DB	09fH
	DB	00H
	DB	00H
	DB	00H
	DB	00H
	DB	00H
	DB	0d0H
	DB	0ffH
	DB	0dfH
	DB	04H
	DB	00H
	DB	00H
	DB	00H
	DB	00H
	DB	00H
	DB	0d0H
	DB	0ffH
	DB	0bH
	DB	00H
	DB	00H
	DB	00H
	DB	00H
	DB	00H
	DB	00H
	DB	0d0H
	DB	0ffH
	DB	09H
	DB	00H
	DB	00H
	DB	00H
	DB	00H
	DB	00H
	DB	00H
	DB	0d0H
	DB	0ffH
	DB	09H
	DB	00H
	DB	00H
	DB	00H
	DB	00H
	DB	00H
	DB	00H
	DB	0d0H
	DB	0ffH
	DB	09H
	DB	00H
	DB	00H
	DB	00H
	DB	00H
	DB	00H
	DB	00H
	DB	0d0H
	DB	0ffH
	DB	09H
	DB	00H
	DB	00H
	DB	00H
	DB	00H
	DB	00H
	DB	00H
	DB	00H
	DB	00H
	DB	00H
	DB	00H
	DB	00H
	DB	00H
	DB	00H
	DB	00H
	DB	00H
	DB	00H
	DB	00H
	DB	00H
	DB	00H
	DB	00H
	DB	00H
	DB	00H
	DB	00H
	DB	00H
	DB	00H
	DB	00H
	DB	00H
	DB	00H
	DB	00H
	DB	00H
	DB	00H
	DB	00H
	DB	00H
	DB	040H
	DB	044H
	DB	03H
	DB	00H
	DB	00H
	DB	00H
	DB	00H
	DB	00H
	DB	00H
	DB	0f1H
	DB	0ffH
	DB	0eH
	DB	00H
	DB	00H
	DB	00H
	DB	00H
	DB	00H
	DB	00H
	DB	0f1H
	DB	0ffH
	DB	0eH
	DB	00H
	DB	00H
	DB	00H
	DB	00H
	DB	00H
	DB	00H
	DB	0f1H
	DB	0ffH
	DB	0eH
	DB	00H
	DB	00H
	DB	00H
	DB	00H
	DB	00H
	DB	00H
	DB	0f1H
	DB	0ffH
	DB	0eH
	DB	00H
	DB	00H
	DB	00H
	DB	00H
	DB	00H
	DB	00H
	DB	00H
	DB	00H
	DB	00H
	DB	041H
	DB	076H
	DB	077H
	DB	036H
	DB	01H
	DB	00H
	DB	00H
	DB	00H
	DB	00H
	DB	00H
	DB	00H
	DB	00H
	DB	0b6H
	DB	0ffH
	DB	0ffH
	DB	0ffH
	DB	0ffH
	DB	0cfH
	DB	027H
	DB	00H
	DB	00H
	DB	00H
	DB	00H
	DB	00H
	DB	0d5H
	DB	0ffH
	DB	0ffH
	DB	0ffH
	DB	0ffH
	DB	0ffH
	DB	0ffH
	DB	0ffH
	DB	04bH
	DB	00H
	DB	00H
	DB	00H
	DB	090H
	DB	0ffH
	DB	0ffH
	DB	0ffH
	DB	0efH
	DB	0feH
	DB	0ffH
	DB	0ffH
	DB	0ffH
	DB	0ffH
	DB	05H
	DB	00H
	DB	00H
	DB	0fbH
	DB	0ffH
	DB	0efH
	DB	049H
	DB	01H
	DB	00H
	DB	051H
	DB	0e9H
	DB	0ffH
	DB	0ffH
	DB	06H
	DB	00H
	DB	090H
	DB	0ffH
	DB	0ffH
	DB	02aH
	DB	00H
	DB	00H
	DB	00H
	DB	00H
	DB	00H
	DB	0e6H
	DB	0ffH
	DB	06H
	DB	00H
	DB	0f5H
	DB	0ffH
	DB	08fH
	DB	00H
	DB	00H
	DB	00H
	DB	00H
	DB	00H
	DB	00H
	DB	010H
	DB	0f9H
	DB	06H
	DB	00H
	DB	0fdH
	DB	0ffH
	DB	0bH
	DB	00H
	DB	00H
	DB	00H
	DB	00H
	DB	00H
	DB	00H
	DB	00H
	DB	060H
	DB	05H
	DB	050H
	DB	0ffH
	DB	0efH
	DB	01H
	DB	00H
	DB	00H
	DB	00H
	DB	00H
	DB	00H
	DB	00H
	DB	00H
	DB	00H
	DB	00H
	DB	0b0H
	DB	0ffH
	DB	08fH
	DB	00H
	DB	00H
	DB	00H
	DB	00H
	DB	00H
	DB	00H
	DB	00H
	DB	00H
	DB	00H
	DB	00H
	DB	0f1H
	DB	0ffH
	DB	02fH
	DB	00H
	DB	00H
	DB	00H
	DB	00H
	DB	00H
	DB	00H
	DB	00H
	DB	00H
	DB	00H
	DB	00H
	DB	0f4H
	DB	0ffH
	DB	0dH
	DB	00H
	DB	00H
	DB	00H
	DB	00H
	DB	00H
	DB	00H
	DB	00H
	DB	00H
	DB	00H
	DB	00H
	DB	0f7H
	DB	0ffH
	DB	09H
	DB	00H
	DB	00H
	DB	00H
	DB	00H
	DB	00H
	DB	00H
	DB	00H
	DB	00H
	DB	00H
	DB	00H
	DB	0f9H
	DB	0ffH
	DB	07H
	DB	00H
	DB	00H
	DB	00H
	DB	00H
	DB	00H
	DB	00H
	DB	00H
	DB	00H
	DB	00H
	DB	00H
	DB	0faH
	DB	0ffH
	DB	05H
	DB	00H
	DB	00H
	DB	00H
	DB	00H
	DB	00H
	DB	00H
	DB	00H
	DB	00H
	DB	00H
	DB	00H
	DB	0fbH
	DB	0ffH
	DB	04H
	DB	00H
	DB	00H
	DB	00H
	DB	00H
	DB	00H
	DB	00H
	DB	00H
	DB	00H
	DB	00H
	DB	00H
	DB	0fbH
	DB	0ffH
	DB	04H
	DB	00H
	DB	00H
	DB	00H
	DB	00H
	DB	00H
	DB	00H
	DB	00H
	DB	00H
	DB	00H
	DB	00H
	DB	0fbH
	DB	0ffH
	DB	06H
	DB	00H
	DB	00H
	DB	00H
	DB	00H
	DB	00H
	DB	00H
	DB	00H
	DB	00H
	DB	00H
	DB	00H
	DB	0f9H
	DB	0ffH
	DB	07H
	DB	00H
	DB	00H
	DB	00H
	DB	00H
	DB	00H
	DB	00H
	DB	00H
	DB	00H
	DB	00H
	DB	00H
	DB	0f8H
	DB	0ffH
	DB	09H
	DB	00H
	DB	00H
	DB	00H
	DB	00H
	DB	00H
	DB	00H
	DB	00H
	DB	00H
	DB	00H
	DB	00H
	DB	0f5H
	DB	0ffH
	DB	0dH
	DB	00H
	DB	00H
	DB	00H
	DB	00H
	DB	00H
	DB	00H
	DB	00H
	DB	00H
	DB	00H
	DB	00H
	DB	0f2H
	DB	0ffH
	DB	02fH
	DB	00H
	DB	00H
	DB	00H
	DB	00H
	DB	00H
	DB	00H
	DB	00H
	DB	00H
	DB	00H
	DB	00H
	DB	0c0H
	DB	0ffH
	DB	09fH
	DB	00H
	DB	00H
	DB	00H
	DB	00H
	DB	00H
	DB	00H
	DB	00H
	DB	00H
	DB	00H
	DB	00H
	DB	070H
	DB	0ffH
	DB	0efH
	DB	02H
	DB	00H
	DB	00H
	DB	00H
	DB	00H
	DB	00H
	DB	00H
	DB	00H
	DB	00H
	DB	00H
	DB	010H
	DB	0feH
	DB	0ffH
	DB	0bH
	DB	00H
	DB	00H
	DB	00H
	DB	00H
	DB	00H
	DB	00H
	DB	00H
	DB	060H
	DB	05H
	DB	00H
	DB	0f7H
	DB	0ffH
	DB	09fH
	DB	00H
	DB	00H
	DB	00H
	DB	00H
	DB	00H
	DB	00H
	DB	010H
	DB	0f9H
	DB	06H
	DB	00H
	DB	0c0H
	DB	0ffH
	DB	0ffH
	DB	02bH
	DB	00H
	DB	00H
	DB	00H
	DB	00H
	DB	00H
	DB	0e6H
	DB	0ffH
	DB	06H
	DB	00H
	DB	010H
	DB	0fdH
	DB	0ffH
	DB	0ffH
	DB	05aH
	DB	02H
	DB	010H
	DB	052H
	DB	0e9H
	DB	0ffH
	DB	0ffH
	DB	06H
	DB	00H
	DB	00H
	DB	0c1H
	DB	0ffH
	DB	0ffH
	DB	0ffH
	DB	0ffH
	DB	0feH
	DB	0ffH
	DB	0ffH
	DB	0ffH
	DB	0ffH
	DB	05H
	DB	00H
	DB	00H
	DB	00H
	DB	0f8H
	DB	0ffH
	DB	0ffH
	DB	0ffH
	DB	0ffH
	DB	0ffH
	DB	0ffH
	DB	0ffH
	DB	03aH
	DB	00H
	DB	00H
	DB	00H
	DB	00H
	DB	010H
	DB	0c7H
	DB	0ffH
	DB	0ffH
	DB	0ffH
	DB	0ffH
	DB	0bfH
	DB	017H
	DB	00H
	DB	00H
	DB	00H
	DB	00H
	DB	00H
	DB	00H
	DB	00H
	DB	041H
	DB	065H
	DB	077H
	DB	036H
	DB	00H
	DB	00H
	DB	00H
	DB	00H
	DB	0f1H
	DB	0ffH
	DB	0ffH
	DB	0ffH
	DB	0ffH
	DB	0ffH
	DB	0ffH
	DB	0ffH
	DB	0ffH
	DB	0ffH
	DB	01H
	DB	0f1H
	DB	0ffH
	DB	0ffH
	DB	0ffH
	DB	0ffH
	DB	0ffH
	DB	0ffH
	DB	0ffH
	DB	0ffH
	DB	0ffH
	DB	01H
	DB	0f1H
	DB	0ffH
	DB	0ffH
	DB	0ffH
	DB	0ffH
	DB	0ffH
	DB	0ffH
	DB	0ffH
	DB	0ffH
	DB	0ffH
	DB	01H
	DB	0f1H
	DB	0ffH
	DB	08dH
	DB	088H
	DB	088H
	DB	088H
	DB	088H
	DB	088H
	DB	088H
	DB	088H
	DB	00H
	DB	0f1H
	DB	0ffH
	DB	0cH
	DB	00H
	DB	00H
	DB	00H
	DB	00H
	DB	00H
	DB	00H
	DB	00H
	DB	00H
	DB	0f1H
	DB	0ffH
	DB	0cH
	DB	00H
	DB	00H
	DB	00H
	DB	00H
	DB	00H
	DB	00H
	DB	00H
	DB	00H
	DB	0f1H
	DB	0ffH
	DB	0cH
	DB	00H
	DB	00H
	DB	00H
	DB	00H
	DB	00H
	DB	00H
	DB	00H
	DB	00H
	DB	0f1H
	DB	0ffH
	DB	0cH
	DB	00H
	DB	00H
	DB	00H
	DB	00H
	DB	00H
	DB	00H
	DB	00H
	DB	00H
	DB	0f1H
	DB	0ffH
	DB	0cH
	DB	00H
	DB	00H
	DB	00H
	DB	00H
	DB	00H
	DB	00H
	DB	00H
	DB	00H
	DB	0f1H
	DB	0ffH
	DB	0cH
	DB	00H
	DB	00H
	DB	00H
	DB	00H
	DB	00H
	DB	00H
	DB	00H
	DB	00H
	DB	0f1H
	DB	0ffH
	DB	0cH
	DB	00H
	DB	00H
	DB	00H
	DB	00H
	DB	00H
	DB	00H
	DB	00H
	DB	00H
	DB	0f1H
	DB	0ffH
	DB	0cH
	DB	00H
	DB	00H
	DB	00H
	DB	00H
	DB	00H
	DB	00H
	DB	00H
	DB	00H
	DB	0f1H
	DB	0ffH
	DB	0ffH
	DB	0ffH
	DB	0ffH
	DB	0ffH
	DB	0ffH
	DB	0ffH
	DB	0ffH
	DB	0ffH
	DB	01H
	DB	0f1H
	DB	0ffH
	DB	0ffH
	DB	0ffH
	DB	0ffH
	DB	0ffH
	DB	0ffH
	DB	0ffH
	DB	0ffH
	DB	0ffH
	DB	01H
	DB	0f1H
	DB	0ffH
	DB	0ffH
	DB	0ffH
	DB	0ffH
	DB	0ffH
	DB	0ffH
	DB	0ffH
	DB	0ffH
	DB	0ffH
	DB	01H
	DB	0f1H
	DB	0ffH
	DB	08dH
	DB	088H
	DB	088H
	DB	088H
	DB	088H
	DB	088H
	DB	088H
	DB	088H
	DB	00H
	DB	0f1H
	DB	0ffH
	DB	0cH
	DB	00H
	DB	00H
	DB	00H
	DB	00H
	DB	00H
	DB	00H
	DB	00H
	DB	00H
	DB	0f1H
	DB	0ffH
	DB	0cH
	DB	00H
	DB	00H
	DB	00H
	DB	00H
	DB	00H
	DB	00H
	DB	00H
	DB	00H
	DB	0f1H
	DB	0ffH
	DB	0cH
	DB	00H
	DB	00H
	DB	00H
	DB	00H
	DB	00H
	DB	00H
	DB	00H
	DB	00H
	DB	0f1H
	DB	0ffH
	DB	0cH
	DB	00H
	DB	00H
	DB	00H
	DB	00H
	DB	00H
	DB	00H
	DB	00H
	DB	00H
	DB	0f1H
	DB	0ffH
	DB	0cH
	DB	00H
	DB	00H
	DB	00H
	DB	00H
	DB	00H
	DB	00H
	DB	00H
	DB	00H
	DB	0f1H
	DB	0ffH
	DB	0cH
	DB	00H
	DB	00H
	DB	00H
	DB	00H
	DB	00H
	DB	00H
	DB	00H
	DB	00H
	DB	0f1H
	DB	0ffH
	DB	0cH
	DB	00H
	DB	00H
	DB	00H
	DB	00H
	DB	00H
	DB	00H
	DB	00H
	DB	00H
	DB	0f1H
	DB	0ffH
	DB	0cH
	DB	00H
	DB	00H
	DB	00H
	DB	00H
	DB	00H
	DB	00H
	DB	00H
	DB	00H
	DB	0f1H
	DB	0ffH
	DB	0cH
	DB	00H
	DB	00H
	DB	00H
	DB	00H
	DB	00H
	DB	00H
	DB	00H
	DB	00H
	DB	0f1H
	DB	0ffH
	DB	0cH
	DB	00H
	DB	00H
	DB	00H
	DB	00H
	DB	00H
	DB	00H
	DB	00H
	DB	00H
	DB	0f1H
	DB	0ffH
	DB	08dH
	DB	088H
	DB	088H
	DB	088H
	DB	088H
	DB	088H
	DB	088H
	DB	088H
	DB	00H
	DB	0f1H
	DB	0ffH
	DB	0ffH
	DB	0ffH
	DB	0ffH
	DB	0ffH
	DB	0ffH
	DB	0ffH
	DB	0ffH
	DB	0ffH
	DB	01H
	DB	0f1H
	DB	0ffH
	DB	0ffH
	DB	0ffH
	DB	0ffH
	DB	0ffH
	DB	0ffH
	DB	0ffH
	DB	0ffH
	DB	0ffH
	DB	01H
	DB	0f1H
	DB	0ffH
	DB	0ffH
	DB	0ffH
	DB	0ffH
	DB	0ffH
	DB	0ffH
	DB	0ffH
	DB	0ffH
	DB	0ffH
	DB	01H
	DB	0ffH
	DB	0dfH
	DB	00H
	DB	00H
	DB	00H
	DB	00H
	DB	00H
	DB	00H
	DB	070H
	DB	0ffH
	DB	0ffH
	DB	04H
	DB	0ffH
	DB	0dfH
	DB	00H
	DB	00H
	DB	00H
	DB	00H
	DB	00H
	DB	00H
	DB	0f5H
	DB	0ffH
	DB	05fH
	DB	00H
	DB	0ffH
	DB	0dfH
	DB	00H
	DB	00H
	DB	00H
	DB	00H
	DB	00H
	DB	040H
	DB	0ffH
	DB	0ffH
	DB	06H
	DB	00H
	DB	0ffH
	DB	0dfH
	DB	00H
	DB	00H
	DB	00H
	DB	00H
	DB	00H
	DB	0e3H
	DB	0ffH
	DB	07fH
	DB	00H
	DB	00H
	DB	0ffH
	DB	0dfH
	DB	00H
	DB	00H
	DB	00H
	DB	00H
	DB	020H
	DB	0feH
	DB	0ffH
	DB	08H
	DB	00H
	DB	00H
	DB	0ffH
	DB	0dfH
	DB	00H
	DB	00H
	DB	00H
	DB	00H
	DB	0d1H
	DB	0ffH
	DB	09fH
	DB	00H
	DB	00H
	DB	00H
	DB	0ffH
	DB	0dfH
	DB	00H
	DB	00H
	DB	00H
	DB	010H
	DB	0fcH
	DB	0ffH
	DB	0aH
	DB	00H
	DB	00H
	DB	00H
	DB	0ffH
	DB	0dfH
	DB	00H
	DB	00H
	DB	00H
	DB	0b0H
	DB	0ffH
	DB	0bfH
	DB	00H
	DB	00H
	DB	00H
	DB	00H
	DB	0ffH
	DB	0dfH
	DB	00H
	DB	00H
	DB	00H
	DB	0faH
	DB	0ffH
	DB	01cH
	DB	00H
	DB	00H
	DB	00H
	DB	00H
	DB	0ffH
	DB	0dfH
	DB	00H
	DB	00H
	DB	090H
	DB	0ffH
	DB	0dfH
	DB	01H
	DB	00H
	DB	00H
	DB	00H
	DB	00H
	DB	0ffH
	DB	0dfH
	DB	00H
	DB	00H
	DB	0f7H
	DB	0ffH
	DB	02dH
	DB	00H
	DB	00H
	DB	00H
	DB	00H
	DB	00H
	DB	0ffH
	DB	0dfH
	DB	00H
	DB	060H
	DB	0ffH
	DB	0efH
	DB	02H
	DB	00H
	DB	00H
	DB	00H
	DB	00H
	DB	00H
	DB	0ffH
	DB	0dfH
	DB	00H
	DB	0f4H
	DB	0ffH
	DB	03eH
	DB	00H
	DB	00H
	DB	00H
	DB	00H
	DB	00H
	DB	00H
	DB	0ffH
	DB	0dfH
	DB	030H
	DB	0feH
	DB	0ffH
	DB	04H
	DB	00H
	DB	00H
	DB	00H
	DB	00H
	DB	00H
	DB	00H
	DB	0ffH
	DB	0dfH
	DB	0e2H
	DB	0ffH
	DB	0efH
	DB	02H
	DB	00H
	DB	00H
	DB	00H
	DB	00H
	DB	00H
	DB	00H
	DB	0ffH
	DB	0efH
	DB	0fdH
	DB	0ffH
	DB	0ffH
	DB	01cH
	DB	00H
	DB	00H
	DB	00H
	DB	00H
	DB	00H
	DB	00H
	DB	0ffH
	DB	0ffH
	DB	0ffH
	DB	0fdH
	DB	0ffH
	DB	0bfH
	DB	00H
	DB	00H
	DB	00H
	DB	00H
	DB	00H
	DB	00H
	DB	0ffH
	DB	0ffH
	DB	0dfH
	DB	072H
	DB	0ffH
	DB	0ffH
	DB	09H
	DB	00H
	DB	00H
	DB	00H
	DB	00H
	DB	00H
	DB	0ffH
	DB	0ffH
	DB	02eH
	DB	00H
	DB	0faH
	DB	0ffH
	DB	07fH
	DB	00H
	DB	00H
	DB	00H
	DB	00H
	DB	00H
	DB	0ffH
	DB	0ffH
	DB	03H
	DB	00H
	DB	0b0H
	DB	0ffH
	DB	0ffH
	DB	05H
	DB	00H
	DB	00H
	DB	00H
	DB	00H
	DB	0ffH
	DB	0dfH
	DB	00H
	DB	00H
	DB	010H
	DB	0fdH
	DB	0ffH
	DB	03eH
	DB	00H
	DB	00H
	DB	00H
	DB	00H
	DB	0ffH
	DB	0dfH
	DB	00H
	DB	00H
	DB	00H
	DB	0e2H
	DB	0ffH
	DB	0dfH
	DB	02H
	DB	00H
	DB	00H
	DB	00H
	DB	0ffH
	DB	0dfH
	DB	00H
	DB	00H
	DB	00H
	DB	030H
	DB	0ffH
	DB	0ffH
	DB	01cH
	DB	00H
	DB	00H
	DB	00H
	DB	0ffH
	DB	0dfH
	DB	00H
	DB	00H
	DB	00H
	DB	00H
	DB	0f5H
	DB	0ffH
	DB	0bfH
	DB	00H
	DB	00H
	DB	00H
	DB	0ffH
	DB	0dfH
	DB	00H
	DB	00H
	DB	00H
	DB	00H
	DB	070H
	DB	0ffH
	DB	0ffH
	DB	09H
	DB	00H
	DB	00H
	DB	0ffH
	DB	0dfH
	DB	00H
	DB	00H
	DB	00H
	DB	00H
	DB	00H
	DB	0f9H
	DB	0ffH
	DB	06fH
	DB	00H
	DB	00H
	DB	0ffH
	DB	0dfH
	DB	00H
	DB	00H
	DB	00H
	DB	00H
	DB	00H
	DB	0b0H
	DB	0ffH
	DB	0ffH
	DB	04H
	DB	00H
	DB	0ffH
	DB	0dfH
	DB	00H
	DB	00H
	DB	00H
	DB	00H
	DB	00H
	DB	010H
	DB	0fcH
	DB	0ffH
	DB	03eH
	DB	00H
	DB	0ffH
	DB	0dfH
	DB	00H
	DB	00H
	DB	00H
	DB	00H
	DB	00H
	DB	00H
	DB	0e2H
	DB	0ffH
	DB	0dfH
	DB	02H
	DB	0ffH
	DB	0dfH
	DB	00H
	DB	00H
	DB	00H
	DB	00H
	DB	00H
	DB	00H
	DB	030H
	DB	0feH
	DB	0ffH
	DB	01cH
	DB	00H
	DB	00H
	DB	00H
	DB	00H
	DB	00H
	DB	052H
	DB	077H
	DB	067H
	DB	014H
	DB	00H
	DB	00H
	DB	00H
	DB	00H
	DB	00H
	DB	00H
	DB	00H
	DB	00H
	DB	020H
	DB	0d8H
	DB	0ffH
	DB	0ffH
	DB	0ffH
	DB	0ffH
	DB	05bH
	DB	00H
	DB	00H
	DB	00H
	DB	00H
	DB	00H
	DB	00H
	DB	010H
	DB	0f8H
	DB	0ffH
	DB	0ffH
	DB	0ffH
	DB	0ffH
	DB	0ffH
	DB	0ffH
	DB	04cH
	DB	00H
	DB	00H
	DB	00H
	DB	00H
	DB	00H
	DB	0c2H
	DB	0ffH
	DB	0ffH
	DB	0ffH
	DB	0efH
	DB	0ffH
	DB	0ffH
	DB	0ffH
	DB	0ffH
	DB	06H
	DB	00H
	DB	00H
	DB	00H
	DB	020H
	DB	0fdH
	DB	0ffH
	DB	0dfH
	DB	037H
	DB	01H
	DB	010H
	DB	0a5H
	DB	0ffH
	DB	0ffH
	DB	08fH
	DB	00H
	DB	00H
	DB	00H
	DB	0b0H
	DB	0ffH
	DB	0ffH
	DB	08H
	DB	00H
	DB	00H
	DB	00H
	DB	00H
	DB	0d3H
	DB	0ffH
	DB	0ffH
	DB	04H
	DB	00H
	DB	00H
	DB	0f7H
	DB	0ffH
	DB	06fH
	DB	00H
	DB	00H
	DB	00H
	DB	00H
	DB	00H
	DB	010H
	DB	0fcH
	DB	0ffH
	DB	01dH
	DB	00H
	DB	010H
	DB	0feH
	DB	0ffH
	DB	08H
	DB	00H
	DB	00H
	DB	00H
	DB	00H
	DB	00H
	DB	00H
	DB	0e2H
	DB	0ffH
	DB	07fH
	DB	00H
	DB	060H
	DB	0ffH
	DB	0dfH
	DB	00H
	DB	00H
	DB	00H
	DB	00H
	DB	00H
	DB	00H
	DB	00H
	DB	060H
	DB	0ffH
	DB	0dfH
	DB	00H
	DB	0c0H
	DB	0ffH
	DB	06fH
	DB	00H
	DB	00H
	DB	00H
	DB	00H
	DB	00H
	DB	00H
	DB	00H
	DB	00H
	DB	0feH
	DB	0ffH
	DB	05H
	DB	0f1H
	DB	0ffH
	DB	01fH
	DB	00H
	DB	00H
	DB	00H
	DB	00H
	DB	00H
	DB	00H
	DB	00H
	DB	00H
	DB	0f8H
	DB	0ffH
	DB	08H
	DB	0f4H
	DB	0ffH
	DB	0cH
	DB	00H
	DB	00H
	DB	00H
	DB	00H
	DB	00H
	DB	00H
	DB	00H
	DB	00H
	DB	0f4H
	DB	0ffH
	DB	0cH
	DB	0f7H
	DB	0ffH
	DB	09H
	DB	00H
	DB	00H
	DB	00H
	DB	00H
	DB	00H
	DB	00H
	DB	00H
	DB	00H
	DB	0f1H
	DB	0ffH
	DB	0fH
	DB	0f9H
	DB	0ffH
	DB	06H
	DB	00H
	DB	00H
	DB	00H
	DB	00H
	DB	00H
	DB	00H
	DB	00H
	DB	00H
	DB	0e0H
	DB	0ffH
	DB	01fH
	DB	0faH
	DB	0ffH
	DB	05H
	DB	00H
	DB	00H
	DB	00H
	DB	00H
	DB	00H
	DB	00H
	DB	00H
	DB	00H
	DB	0d0H
	DB	0ffH
	DB	02fH
	DB	0fbH
	DB	0ffH
	DB	04H
	DB	00H
	DB	00H
	DB	00H
	DB	00H
	DB	00H
	DB	00H
	DB	00H
	DB	00H
	DB	0c0H
	DB	0ffH
	DB	03fH
	DB	0fbH
	DB	0ffH
	DB	04H
	DB	00H
	DB	00H
	DB	00H
	DB	00H
	DB	00H
	DB	00H
	DB	00H
	DB	00H
	DB	0c0H
	DB	0ffH
	DB	03fH
	DB	0faH
	DB	0ffH
	DB	05H
	DB	00H
	DB	00H
	DB	00H
	DB	00H
	DB	00H
	DB	00H
	DB	00H
	DB	00H
	DB	0d0H
	DB	0ffH
	DB	02fH
	DB	0f9H
	DB	0ffH
	DB	06H
	DB	00H
	DB	00H
	DB	00H
	DB	00H
	DB	00H
	DB	00H
	DB	00H
	DB	00H
	DB	0e0H
	DB	0ffH
	DB	01fH
	DB	0f7H
	DB	0ffH
	DB	09H
	DB	00H
	DB	00H
	DB	00H
	DB	00H
	DB	00H
	DB	00H
	DB	00H
	DB	00H
	DB	0f1H
	DB	0ffH
	DB	0fH
	DB	0f4H
	DB	0ffH
	DB	0cH
	DB	00H
	DB	00H
	DB	00H
	DB	00H
	DB	00H
	DB	00H
	DB	00H
	DB	00H
	DB	0f4H
	DB	0ffH
	DB	0cH
	DB	0f1H
	DB	0ffH
	DB	01fH
	DB	00H
	DB	00H
	DB	00H
	DB	00H
	DB	00H
	DB	00H
	DB	00H
	DB	00H
	DB	0f8H
	DB	0ffH
	DB	08H
	DB	0c0H
	DB	0ffH
	DB	06fH
	DB	00H
	DB	00H
	DB	00H
	DB	00H
	DB	00H
	DB	00H
	DB	00H
	DB	00H
	DB	0feH
	DB	0ffH
	DB	05H
	DB	060H
	DB	0ffH
	DB	0dfH
	DB	00H
	DB	00H
	DB	00H
	DB	00H
	DB	00H
	DB	00H
	DB	00H
	DB	060H
	DB	0ffH
	DB	0dfH
	DB	00H
	DB	010H
	DB	0feH
	DB	0ffH
	DB	08H
	DB	00H
	DB	00H
	DB	00H
	DB	00H
	DB	00H
	DB	00H
	DB	0e2H
	DB	0ffH
	DB	07fH
	DB	00H
	DB	00H
	DB	0f7H
	DB	0ffH
	DB	06fH
	DB	00H
	DB	00H
	DB	00H
	DB	00H
	DB	00H
	DB	010H
	DB	0fcH
	DB	0ffH
	DB	01dH
	DB	00H
	DB	00H
	DB	0b0H
	DB	0ffH
	DB	0ffH
	DB	018H
	DB	00H
	DB	00H
	DB	00H
	DB	00H
	DB	0d3H
	DB	0ffH
	DB	0ffH
	DB	04H
	DB	00H
	DB	00H
	DB	020H
	DB	0fdH
	DB	0ffH
	DB	0dfH
	DB	038H
	DB	01H
	DB	020H
	DB	0a5H
	DB	0ffH
	DB	0ffH
	DB	07fH
	DB	00H
	DB	00H
	DB	00H
	DB	00H
	DB	0c1H
	DB	0ffH
	DB	0ffH
	DB	0ffH
	DB	0ffH
	DB	0ffH
	DB	0ffH
	DB	0ffH
	DB	0ffH
	DB	06H
	DB	00H
	DB	00H
	DB	00H
	DB	00H
	DB	010H
	DB	0f8H
	DB	0ffH
	DB	0ffH
	DB	0ffH
	DB	0ffH
	DB	0ffH
	DB	0ffH
	DB	04cH
	DB	00H
	DB	00H
	DB	00H
	DB	00H
	DB	00H
	DB	00H
	DB	020H
	DB	0e9H
	DB	0ffH
	DB	0ffH
	DB	0ffH
	DB	0ffH
	DB	06cH
	DB	00H
	DB	00H
	DB	00H
	DB	00H
	DB	00H
	DB	00H
	DB	00H
	DB	00H
	DB	00H
	DB	052H
	DB	077H
	DB	067H
	DB	014H
	DB	00H
	DB	00H
	DB	00H
	DB	00H
	DB	00H
	DB	00H
	DB	00H
	DB	031H
	DB	065H
	DB	077H
	DB	057H
	DB	03H
	DB	00H
	DB	00H
	DB	00H
	DB	00H
	DB	0d9H
	DB	0ffH
	DB	0ffH
	DB	0ffH
	DB	0ffH
	DB	0efH
	DB	02aH
	DB	00H
	DB	00H
	DB	00H
	DB	0ffH
	DB	0ffH
	DB	0ffH
	DB	0ffH
	DB	0ffH
	DB	0ffH
	DB	0ffH
	DB	06H
	DB	00H
	DB	00H
	DB	0ffH
	DB	0ffH
	DB	0efH
	DB	0ddH
	DB	0feH
	DB	0ffH
	DB	0ffH
	DB	04fH
	DB	00H
	DB	00H
	DB	0bfH
	DB	047H
	DB	01H
	DB	00H
	DB	00H
	DB	0b3H
	DB	0ffH
	DB	0dfH
	DB	00H
	DB	00H
	DB	01H
	DB	00H
	DB	00H
	DB	00H
	DB	00H
	DB	00H
	DB	0faH
	DB	0ffH
	DB	03H
	DB	00H
	DB	00H
	DB	00H
	DB	00H
	DB	00H
	DB	00H
	DB	00H
	DB	0f3H
	DB	0ffH
	DB	06H
	DB	00H
	DB	00H
	DB	00H
	DB	00H
	DB	00H
	DB	00H
	DB	00H
	DB	0f1H
	DB	0ffH
	DB	08H
	DB	00H
	DB	00H
	DB	00H
	DB	063H
	DB	0b9H
	DB	0dcH
	DB	0eeH
	DB	0ffH
	DB	0ffH
	DB	08H
	DB	00H
	DB	010H
	DB	0d8H
	DB	0ffH
	DB	0ffH
	DB	0ffH
	DB	0ffH
	DB	0ffH
	DB	0ffH
	DB	08H
	DB	00H
	DB	0e6H
	DB	0ffH
	DB	0ffH
	DB	0ffH
	DB	0ffH
	DB	0ffH
	DB	0ffH
	DB	0ffH
	DB	08H
	DB	060H
	DB	0ffH
	DB	0ffH
	DB	0cfH
	DB	069H
	DB	034H
	DB	012H
	DB	0f2H
	DB	0ffH
	DB	08H
	DB	0f2H
	DB	0ffH
	DB	0bfH
	DB	03H
	DB	00H
	DB	00H
	DB	00H
	DB	0f1H
	DB	0ffH
	DB	08H
	DB	0f8H
	DB	0ffH
	DB	0aH
	DB	00H
	DB	00H
	DB	00H
	DB	00H
	DB	0f1H
	DB	0ffH
	DB	08H
	DB	0fcH
	DB	0ffH
	DB	02H
	DB	00H
	DB	00H
	DB	00H
	DB	00H
	DB	0f1H
	DB	0ffH
	DB	08H
	DB	0feH
	DB	0efH
	DB	00H
	DB	00H
	DB	00H
	DB	00H
	DB	00H
	DB	0f1H
	DB	0ffH
	DB	08H
	DB	0feH
	DB	0dfH
	DB	00H
	DB	00H
	DB	00H
	DB	00H
	DB	00H
	DB	0f1H
	DB	0ffH
	DB	08H
	DB	0fdH
	DB	0ffH
	DB	01H
	DB	00H
	DB	00H
	DB	00H
	DB	00H
	DB	0f6H
	DB	0ffH
	DB	08H
	DB	0faH
	DB	0ffH
	DB	08H
	DB	00H
	DB	00H
	DB	00H
	DB	0a2H
	DB	0ffH
	DB	0ffH
	DB	08H
	DB	0f4H
	DB	0ffH
	DB	0afH
	DB	014H
	DB	021H
	DB	0a5H
	DB	0ffH
	DB	0ffH
	DB	0ffH
	DB	08H
	DB	0a0H
	DB	0ffH
	DB	0ffH
	DB	0ffH
	DB	0ffH
	DB	0ffH
	DB	0ffH
	DB	0fdH
	DB	0ffH
	DB	08H
	DB	010H
	DB	0fcH
	DB	0ffH
	DB	0ffH
	DB	0ffH
	DB	0ffH
	DB	08fH
	DB	0f1H
	DB	0ffH
	DB	08H
	DB	00H
	DB	080H
	DB	0feH
	DB	0ffH
	DB	0ffH
	DB	0aeH
	DB	02H
	DB	0f1H
	DB	0ffH
	DB	08H
	DB	00H
	DB	00H
	DB	051H
	DB	077H
	DB	046H
	DB	01H
	DB	00H
	DB	00H
	DB	00H
	DB	00H
	DB	00H
	DB	00H
	DB	00H
	DB	010H
	DB	064H
	DB	077H
	DB	025H
	DB	00H
	DB	00H
	DB	00H
	DB	00H
	DB	040H
	DB	0fbH
	DB	0ffH
	DB	0ffH
	DB	0ffH
	DB	09eH
	DB	03H
	DB	00H
	DB	010H
	DB	0faH
	DB	0ffH
	DB	0ffH
	DB	0ffH
	DB	0ffH
	DB	0ffH
	DB	09fH
	DB	00H
	DB	0c1H
	DB	0ffH
	DB	0ffH
	DB	0dfH
	DB	0dcH
	DB	0ffH
	DB	0ffH
	DB	0bfH
	DB	00H
	DB	0fbH
	DB	0ffH
	DB	07eH
	DB	01H
	DB	00H
	DB	041H
	DB	0faH
	DB	0bfH
	DB	060H
	DB	0ffH
	DB	0dfH
	DB	02H
	DB	00H
	DB	00H
	DB	00H
	DB	030H
	DB	0bbH
	DB	0d0H
	DB	0ffH
	DB	04fH
	DB	00H
	DB	00H
	DB	00H
	DB	00H
	DB	00H
	DB	040H
	DB	0f4H
	DB	0ffH
	DB	0aH
	DB	00H
	DB	00H
	DB	00H
	DB	00H
	DB	00H
	DB	00H
	DB	0f8H
	DB	0ffH
	DB	05H
	DB	00H
	DB	00H
	DB	00H
	DB	00H
	DB	00H
	DB	00H
	DB	0fbH
	DB	0ffH
	DB	01H
	DB	00H
	DB	00H
	DB	00H
	DB	00H
	DB	00H
	DB	00H
	DB	0fdH
	DB	0efH
	DB	00H
	DB	00H
	DB	00H
	DB	00H
	DB	00H
	DB	00H
	DB	00H
	DB	0feH
	DB	0dfH
	DB	00H
	DB	00H
	DB	00H
	DB	00H
	DB	00H
	DB	00H
	DB	00H
	DB	0feH
	DB	0dfH
	DB	00H
	DB	00H
	DB	00H
	DB	00H
	DB	00H
	DB	00H
	DB	00H
	DB	0fdH
	DB	0efH
	DB	00H
	DB	00H
	DB	00H
	DB	00H
	DB	00H
	DB	00H
	DB	00H
	DB	0fcH
	DB	0ffH
	DB	01H
	DB	00H
	DB	00H
	DB	00H
	DB	00H
	DB	00H
	DB	00H
	DB	0f9H
	DB	0ffH
	DB	05H
	DB	00H
	DB	00H
	DB	00H
	DB	00H
	DB	00H
	DB	00H
	DB	0f5H
	DB	0ffH
	DB	0aH
	DB	00H
	DB	00H
	DB	00H
	DB	00H
	DB	00H
	DB	00H
	DB	0e1H
	DB	0ffH
	DB	03fH
	DB	00H
	DB	00H
	DB	00H
	DB	00H
	DB	00H
	DB	040H
	DB	080H
	DB	0ffH
	DB	0dfH
	DB	02H
	DB	00H
	DB	00H
	DB	00H
	DB	020H
	DB	0bbH
	DB	010H
	DB	0fdH
	DB	0ffH
	DB	07eH
	DB	01H
	DB	00H
	DB	040H
	DB	0faH
	DB	0bfH
	DB	00H
	DB	0e2H
	DB	0ffH
	DB	0ffH
	DB	0dfH
	DB	0ccH
	DB	0ffH
	DB	0ffH
	DB	0bfH
	DB	00H
	DB	020H
	DB	0fcH
	DB	0ffH
	DB	0ffH
	DB	0ffH
	DB	0ffH
	DB	0ffH
	DB	09fH
	DB	00H
	DB	00H
	DB	060H
	DB	0fcH
	DB	0ffH
	DB	0ffH
	DB	0ffH
	DB	08eH
	DB	02H
	DB	00H
	DB	00H
	DB	00H
	DB	010H
	DB	065H
	DB	077H
	DB	035H
	DB	00H
	DB	00H
	DB	00H
	DB	00H
	DB	00H
	DB	010H
	DB	064H
	DB	077H
	DB	025H
	DB	00H
	DB	00H
	DB	00H
	DB	00H
	DB	00H
	DB	040H
	DB	0fbH
	DB	0ffH
	DB	0ffH
	DB	0ffH
	DB	06dH
	DB	00H
	DB	00H
	DB	00H
	DB	00H
	DB	0faH
	DB	0ffH
	DB	0ffH
	DB	0ffH
	DB	0ffH
	DB	0ffH
	DB	01cH
	DB	00H
	DB	00H
	DB	0b1H
	DB	0ffH
	DB	0ffH
	DB	0adH
	DB	0a9H
	DB	0fdH
	DB	0ffH
	DB	0cfH
	DB	01H
	DB	00H
	DB	0faH
	DB	0ffH
	DB	02aH
	DB	00H
	DB	00H
	DB	030H
	DB	0fbH
	DB	0ffH
	DB	08H
	DB	050H
	DB	0ffH
	DB	07fH
	DB	00H
	DB	00H
	DB	00H
	DB	00H
	DB	0c0H
	DB	0ffH
	DB	01eH
	DB	0c0H
	DB	0ffH
	DB	0bH
	DB	00H
	DB	00H
	DB	00H
	DB	00H
	DB	030H
	DB	0ffH
	DB	06fH
	DB	0f3H
	DB	0ffH
	DB	03H
	DB	00H
	DB	00H
	DB	00H
	DB	00H
	DB	00H
	DB	0fdH
	DB	09fH
	DB	0f7H
	DB	0efH
	DB	00H
	DB	00H
	DB	00H
	DB	00H
	DB	00H
	DB	00H
	DB	0fbH
	DB	0bfH
	DB	0faH
	DB	0ffH
	DB	0ddH
	DB	0ddH
	DB	0ddH
	DB	0ddH
	DB	0ddH
	DB	0ddH
	DB	0ffH
	DB	0dfH
	DB	0fcH
	DB	0ffH
	DB	0ffH
	DB	0ffH
	DB	0ffH
	DB	0ffH
	DB	0ffH
	DB	0ffH
	DB	0ffH
	DB	0dfH
	DB	0fdH
	DB	0ffH
	DB	0ffH
	DB	0ffH
	DB	0ffH
	DB	0ffH
	DB	0ffH
	DB	0ffH
	DB	0ffH
	DB	0dfH
	DB	0fdH
	DB	0dfH
	DB	00H
	DB	00H
	DB	00H
	DB	00H
	DB	00H
	DB	00H
	DB	00H
	DB	00H
	DB	0fcH
	DB	0efH
	DB	00H
	DB	00H
	DB	00H
	DB	00H
	DB	00H
	DB	00H
	DB	00H
	DB	00H
	DB	0fbH
	DB	0ffH
	DB	01H
	DB	00H
	DB	00H
	DB	00H
	DB	00H
	DB	00H
	DB	00H
	DB	00H
	DB	0f8H
	DB	0ffH
	DB	05H
	DB	00H
	DB	00H
	DB	00H
	DB	00H
	DB	00H
	DB	00H
	DB	00H
	DB	0f4H
	DB	0ffH
	DB	0cH
	DB	00H
	DB	00H
	DB	00H
	DB	00H
	DB	00H
	DB	00H
	DB	00H
	DB	0d0H
	DB	0ffH
	DB	07fH
	DB	00H
	DB	00H
	DB	00H
	DB	00H
	DB	00H
	DB	00H
	DB	031H
	DB	060H
	DB	0ffH
	DB	0ffH
	DB	06H
	DB	00H
	DB	00H
	DB	00H
	DB	00H
	DB	060H
	DB	07eH
	DB	00H
	DB	0fbH
	DB	0ffH
	DB	0bfH
	DB	014H
	DB	00H
	DB	00H
	DB	084H
	DB	0feH
	DB	07fH
	DB	00H
	DB	0c1H
	DB	0ffH
	DB	0ffH
	DB	0ffH
	DB	0cdH
	DB	0fdH
	DB	0ffH
	DB	0ffH
	DB	07fH
	DB	00H
	DB	00H
	DB	0f9H
	DB	0ffH
	DB	0ffH
	DB	0ffH
	DB	0ffH
	DB	0ffH
	DB	0ffH
	DB	05eH
	DB	00H
	DB	00H
	DB	030H
	DB	0e9H
	DB	0ffH
	DB	0ffH
	DB	0ffH
	DB	0ffH
	DB	05aH
	DB	00H
	DB	00H
	DB	00H
	DB	00H
	DB	00H
	DB	053H
	DB	076H
	DB	067H
	DB	03H
	DB	00H
	DB	00H
	DB	0f6H
	DB	0ffH
	DB	04H
	DB	00H
	DB	00H
	DB	00H
	DB	00H
	DB	00H
	DB	00H
	DB	00H
	DB	0f6H
	DB	0ffH
	DB	04H
	DB	00H
	DB	00H
	DB	00H
	DB	00H
	DB	00H
	DB	00H
	DB	00H
	DB	0f6H
	DB	0ffH
	DB	04H
	DB	00H
	DB	00H
	DB	00H
	DB	00H
	DB	00H
	DB	00H
	DB	00H
	DB	0f6H
	DB	0ffH
	DB	04H
	DB	00H
	DB	00H
	DB	00H
	DB	00H
	DB	00H
	DB	00H
	DB	00H
	DB	0f6H
	DB	0ffH
	DB	04H
	DB	00H
	DB	00H
	DB	00H
	DB	00H
	DB	00H
	DB	00H
	DB	00H
	DB	0f6H
	DB	0ffH
	DB	04H
	DB	00H
	DB	00H
	DB	00H
	DB	00H
	DB	00H
	DB	00H
	DB	00H
	DB	0f6H
	DB	0ffH
	DB	04H
	DB	00H
	DB	00H
	DB	00H
	DB	00H
	DB	00H
	DB	00H
	DB	00H
	DB	0f6H
	DB	0ffH
	DB	04H
	DB	00H
	DB	00H
	DB	00H
	DB	00H
	DB	00H
	DB	00H
	DB	00H
	DB	0f6H
	DB	0ffH
	DB	04H
	DB	00H
	DB	030H
	DB	076H
	DB	046H
	DB	01H
	DB	00H
	DB	00H
	DB	0f6H
	DB	0ffH
	DB	04H
	DB	071H
	DB	0fdH
	DB	0ffH
	DB	0ffH
	DB	08fH
	DB	01H
	DB	00H
	DB	0f6H
	DB	0ffH
	DB	054H
	DB	0feH
	DB	0ffH
	DB	0ffH
	DB	0ffH
	DB	0ffH
	DB	01cH
	DB	00H
	DB	0f6H
	DB	0ffH
	DB	0fbH
	DB	0ffH
	DB	0ffH
	DB	0ffH
	DB	0ffH
	DB	0ffH
	DB	09fH
	DB	00H
	DB	0f6H
	DB	0ffH
	DB	0ffH
	DB	0dfH
	DB	037H
	DB	022H
	DB	0c6H
	DB	0ffH
	DB	0ffH
	DB	02H
	DB	0f6H
	DB	0ffH
	DB	0dfH
	DB	05H
	DB	00H
	DB	00H
	DB	00H
	DB	0fcH
	DB	0ffH
	DB	07H
	DB	0f6H
	DB	0ffH
	DB	01aH
	DB	00H
	DB	00H
	DB	00H
	DB	00H
	DB	0f5H
	DB	0ffH
	DB	0aH
	DB	0f6H
	DB	0ffH
	DB	04H
	DB	00H
	DB	00H
	DB	00H
	DB	00H
	DB	0f1H
	DB	0ffH
	DB	0cH
	DB	0f6H
	DB	0ffH
	DB	04H
	DB	00H
	DB	00H
	DB	00H
	DB	00H
	DB	0e0H
	DB	0ffH
	DB	0dH
	DB	0f6H
	DB	0ffH
	DB	04H
	DB	00H
	DB	00H
	DB	00H
	DB	00H
	DB	0d0H
	DB	0ffH
	DB	0dH
	DB	0f6H
	DB	0ffH
	DB	04H
	DB	00H
	DB	00H
	DB	00H
	DB	00H
	DB	0c0H
	DB	0ffH
	DB	0dH
	DB	0f6H
	DB	0ffH
	DB	04H
	DB	00H
	DB	00H
	DB	00H
	DB	00H
	DB	0c0H
	DB	0ffH
	DB	0dH
	DB	0f6H
	DB	0ffH
	DB	04H
	DB	00H
	DB	00H
	DB	00H
	DB	00H
	DB	0c0H
	DB	0ffH
	DB	0dH
	DB	0f6H
	DB	0ffH
	DB	04H
	DB	00H
	DB	00H
	DB	00H
	DB	00H
	DB	0c0H
	DB	0ffH
	DB	0dH
	DB	0f6H
	DB	0ffH
	DB	04H
	DB	00H
	DB	00H
	DB	00H
	DB	00H
	DB	0c0H
	DB	0ffH
	DB	0dH
	DB	0f6H
	DB	0ffH
	DB	04H
	DB	00H
	DB	00H
	DB	00H
	DB	00H
	DB	0c0H
	DB	0ffH
	DB	0dH
	DB	0f6H
	DB	0ffH
	DB	04H
	DB	00H
	DB	00H
	DB	00H
	DB	00H
	DB	0c0H
	DB	0ffH
	DB	0dH
	DB	0f6H
	DB	0ffH
	DB	04H
	DB	00H
	DB	00H
	DB	00H
	DB	00H
	DB	0c0H
	DB	0ffH
	DB	0dH
	DB	0f6H
	DB	0ffH
	DB	04H
	DB	00H
	DB	00H
	DB	00H
	DB	00H
	DB	0c0H
	DB	0ffH
	DB	0dH
	DB	0f6H
	DB	0ffH
	DB	04H
	DB	00H
	DB	00H
	DB	00H
	DB	00H
	DB	0c0H
	DB	0ffH
	DB	0dH
	DB	0f6H
	DB	0ffH
	DB	04H
	DB	00H
	DB	00H
	DB	00H
	DB	00H
	DB	0c0H
	DB	0ffH
	DB	0dH
	DB	0f6H
	DB	0ffH
	DB	04H
	DB	00H
	DB	00H
	DB	00H
	DB	00H
	DB	0c0H
	DB	0ffH
	DB	0dH
	DB	0f6H
	DB	0ffH
	DB	04H
	DB	00H
	DB	00H
	DB	00H
	DB	00H
	DB	0c0H
	DB	0ffH
	DB	0dH
	DB	0f9H
	DB	0ffH
	DB	08H
	DB	0f9H
	DB	0ffH
	DB	08H
	DB	0f9H
	DB	0ffH
	DB	08H
	DB	0e8H
	DB	0eeH
	DB	08H
	DB	00H
	DB	00H
	DB	00H
	DB	00H
	DB	00H
	DB	00H
	DB	00H
	DB	00H
	DB	00H
	DB	00H
	DB	00H
	DB	00H
	DB	0f5H
	DB	0ffH
	DB	05H
	DB	0f5H
	DB	0ffH
	DB	05H
	DB	0f5H
	DB	0ffH
	DB	05H
	DB	0f5H
	DB	0ffH
	DB	05H
	DB	0f5H
	DB	0ffH
	DB	05H
	DB	0f5H
	DB	0ffH
	DB	05H
	DB	0f5H
	DB	0ffH
	DB	05H
	DB	0f5H
	DB	0ffH
	DB	05H
	DB	0f5H
	DB	0ffH
	DB	05H
	DB	0f5H
	DB	0ffH
	DB	05H
	DB	0f5H
	DB	0ffH
	DB	05H
	DB	0f5H
	DB	0ffH
	DB	05H
	DB	0f5H
	DB	0ffH
	DB	05H
	DB	0f5H
	DB	0ffH
	DB	05H
	DB	0f5H
	DB	0ffH
	DB	05H
	DB	0f5H
	DB	0ffH
	DB	05H
	DB	0f5H
	DB	0ffH
	DB	05H
	DB	0f5H
	DB	0ffH
	DB	05H
	DB	0f5H
	DB	0ffH
	DB	05H
	DB	0f5H
	DB	0ffH
	DB	05H
	DB	0f5H
	DB	0ffH
	DB	05H
	DB	0f5H
	DB	0ffH
	DB	05H
	DB	0f5H
	DB	0ffH
	DB	05H
	DB	0f5H
	DB	0ffH
	DB	05H
	DB	0f5H
	DB	0ffH
	DB	05H
	DB	0f5H
	DB	0ffH
	DB	05H
	DB	0f5H
	DB	0ffH
	DB	05H
	DB	0f5H
	DB	0ffH
	DB	05H
	DB	0f5H
	DB	0ffH
	DB	05H
	DB	0f5H
	DB	0ffH
	DB	05H
	DB	0f5H
	DB	0ffH
	DB	05H
	DB	0f5H
	DB	0ffH
	DB	05H
	DB	0f5H
	DB	0ffH
	DB	05H
	DB	0f5H
	DB	0ffH
	DB	05H
	DB	0f5H
	DB	0ffH
	DB	05H
	DB	0f5H
	DB	0ffH
	DB	05H
	DB	0f5H
	DB	0ffH
	DB	05H
	DB	0f5H
	DB	0ffH
	DB	05H
	DB	0f5H
	DB	0ffH
	DB	05H
	DB	0f5H
	DB	0ffH
	DB	05H
	DB	0f5H
	DB	0ffH
	DB	05H
	DB	0f5H
	DB	0ffH
	DB	05H
	DB	0f5H
	DB	0ffH
	DB	05H
	DB	0f5H
	DB	0ffH
	DB	05H
	DB	0f5H
	DB	0ffH
	DB	05H
	DB	0f5H
	DB	0ffH
	DB	05H
	DB	0f5H
	DB	0ffH
	DB	05H
	DB	0f5H
	DB	0ffH
	DB	05H
	DB	0f5H
	DB	0ffH
	DB	05H
	DB	0f5H
	DB	0ffH
	DB	05H
	DB	0f5H
	DB	0ffH
	DB	05H
	DB	0f5H
	DB	0ffH
	DB	05H
	DB	0f5H
	DB	0ffH
	DB	05H
	DB	00H
	DB	00H
	DB	00H
	DB	00H
	DB	040H
	DB	076H
	DB	035H
	DB	00H
	DB	00H
	DB	00H
	DB	00H
	DB	040H
	DB	076H
	DB	046H
	DB	00H
	DB	00H
	DB	00H
	DB	0f6H
	DB	0ffH
	DB	04H
	DB	081H
	DB	0feH
	DB	0ffH
	DB	0ffH
	DB	04cH
	DB	00H
	DB	00H
	DB	092H
	DB	0feH
	DB	0ffH
	DB	0ffH
	DB	06eH
	DB	00H
	DB	00H
	DB	0f6H
	DB	0ffH
	DB	054H
	DB	0feH
	DB	0ffH
	DB	0ffH
	DB	0ffH
	DB	0ffH
	DB	05H
	DB	070H
	DB	0ffH
	DB	0ffH
	DB	0ffH
	DB	0ffH
	DB	0ffH
	DB	08H
	DB	00H
	DB	0f6H
	DB	0ffH
	DB	0fcH
	DB	0ffH
	DB	0ffH
	DB	0ffH
	DB	0ffH
	DB	0ffH
	DB	02eH
	DB	0fbH
	DB	0ffH
	DB	0ffH
	DB	0ffH
	DB	0ffH
	DB	0ffH
	DB	04fH
	DB	00H
	DB	0f6H
	DB	0ffH
	DB	0ffH
	DB	0cfH
	DB	036H
	DB	032H
	DB	0e7H
	DB	0ffH
	DB	0ffH
	DB	0ffH
	DB	0cfH
	DB	036H
	DB	032H
	DB	0e7H
	DB	0ffH
	DB	0bfH
	DB	00H
	DB	0f6H
	DB	0ffH
	DB	0dfH
	DB	04H
	DB	00H
	DB	00H
	DB	030H
	DB	0ffH
	DB	0ffH
	DB	0dfH
	DB	05H
	DB	00H
	DB	00H
	DB	020H
	DB	0feH
	DB	0ffH
	DB	01H
	DB	0f6H
	DB	0ffH
	DB	019H
	DB	00H
	DB	00H
	DB	00H
	DB	00H
	DB	0fbH
	DB	0ffH
	DB	01aH
	DB	00H
	DB	00H
	DB	00H
	DB	00H
	DB	0f9H
	DB	0ffH
	DB	04H
	DB	0f6H
	DB	0ffH
	DB	04H
	DB	00H
	DB	00H
	DB	00H
	DB	00H
	DB	0f7H
	DB	0ffH
	DB	04H
	DB	00H
	DB	00H
	DB	00H
	DB	00H
	DB	0f6H
	DB	0ffH
	DB	06H
	DB	0f6H
	DB	0ffH
	DB	04H
	DB	00H
	DB	00H
	DB	00H
	DB	00H
	DB	0f6H
	DB	0ffH
	DB	05H
	DB	00H
	DB	00H
	DB	00H
	DB	00H
	DB	0f5H
	DB	0ffH
	DB	07H
	DB	0f6H
	DB	0ffH
	DB	04H
	DB	00H
	DB	00H
	DB	00H
	DB	00H
	DB	0f5H
	DB	0ffH
	DB	06H
	DB	00H
	DB	00H
	DB	00H
	DB	00H
	DB	0f4H
	DB	0ffH
	DB	07H
	DB	0f6H
	DB	0ffH
	DB	04H
	DB	00H
	DB	00H
	DB	00H
	DB	00H
	DB	0f5H
	DB	0ffH
	DB	06H
	DB	00H
	DB	00H
	DB	00H
	DB	00H
	DB	0f3H
	DB	0ffH
	DB	07H
	DB	0f6H
	DB	0ffH
	DB	04H
	DB	00H
	DB	00H
	DB	00H
	DB	00H
	DB	0f4H
	DB	0ffH
	DB	06H
	DB	00H
	DB	00H
	DB	00H
	DB	00H
	DB	0f3H
	DB	0ffH
	DB	07H
	DB	0f6H
	DB	0ffH
	DB	04H
	DB	00H
	DB	00H
	DB	00H
	DB	00H
	DB	0f4H
	DB	0ffH
	DB	06H
	DB	00H
	DB	00H
	DB	00H
	DB	00H
	DB	0f3H
	DB	0ffH
	DB	07H
	DB	0f6H
	DB	0ffH
	DB	04H
	DB	00H
	DB	00H
	DB	00H
	DB	00H
	DB	0f4H
	DB	0ffH
	DB	06H
	DB	00H
	DB	00H
	DB	00H
	DB	00H
	DB	0f3H
	DB	0ffH
	DB	07H
	DB	0f6H
	DB	0ffH
	DB	04H
	DB	00H
	DB	00H
	DB	00H
	DB	00H
	DB	0f4H
	DB	0ffH
	DB	06H
	DB	00H
	DB	00H
	DB	00H
	DB	00H
	DB	0f3H
	DB	0ffH
	DB	07H
	DB	0f6H
	DB	0ffH
	DB	04H
	DB	00H
	DB	00H
	DB	00H
	DB	00H
	DB	0f4H
	DB	0ffH
	DB	06H
	DB	00H
	DB	00H
	DB	00H
	DB	00H
	DB	0f3H
	DB	0ffH
	DB	07H
	DB	0f6H
	DB	0ffH
	DB	04H
	DB	00H
	DB	00H
	DB	00H
	DB	00H
	DB	0f4H
	DB	0ffH
	DB	06H
	DB	00H
	DB	00H
	DB	00H
	DB	00H
	DB	0f3H
	DB	0ffH
	DB	07H
	DB	0f6H
	DB	0ffH
	DB	04H
	DB	00H
	DB	00H
	DB	00H
	DB	00H
	DB	0f4H
	DB	0ffH
	DB	06H
	DB	00H
	DB	00H
	DB	00H
	DB	00H
	DB	0f3H
	DB	0ffH
	DB	07H
	DB	0f6H
	DB	0ffH
	DB	04H
	DB	00H
	DB	00H
	DB	00H
	DB	00H
	DB	0f4H
	DB	0ffH
	DB	06H
	DB	00H
	DB	00H
	DB	00H
	DB	00H
	DB	0f3H
	DB	0ffH
	DB	07H
	DB	0f6H
	DB	0ffH
	DB	04H
	DB	00H
	DB	00H
	DB	00H
	DB	00H
	DB	0f4H
	DB	0ffH
	DB	06H
	DB	00H
	DB	00H
	DB	00H
	DB	00H
	DB	0f3H
	DB	0ffH
	DB	07H
	DB	0f6H
	DB	0ffH
	DB	04H
	DB	00H
	DB	00H
	DB	00H
	DB	00H
	DB	0f4H
	DB	0ffH
	DB	06H
	DB	00H
	DB	00H
	DB	00H
	DB	00H
	DB	0f3H
	DB	0ffH
	DB	07H
	DB	0f6H
	DB	0ffH
	DB	04H
	DB	00H
	DB	00H
	DB	00H
	DB	00H
	DB	0f4H
	DB	0ffH
	DB	06H
	DB	00H
	DB	00H
	DB	00H
	DB	00H
	DB	0f3H
	DB	0ffH
	DB	07H
	DB	0f6H
	DB	0ffH
	DB	04H
	DB	00H
	DB	00H
	DB	00H
	DB	00H
	DB	0f4H
	DB	0ffH
	DB	06H
	DB	00H
	DB	00H
	DB	00H
	DB	00H
	DB	0f3H
	DB	0ffH
	DB	07H
	DB	00H
	DB	00H
	DB	00H
	DB	00H
	DB	030H
	DB	076H
	DB	046H
	DB	01H
	DB	00H
	DB	00H
	DB	0f6H
	DB	0ffH
	DB	04H
	DB	081H
	DB	0feH
	DB	0ffH
	DB	0ffH
	DB	08fH
	DB	01H
	DB	00H
	DB	0f6H
	DB	0ffH
	DB	054H
	DB	0feH
	DB	0ffH
	DB	0ffH
	DB	0ffH
	DB	0ffH
	DB	01cH
	DB	00H
	DB	0f6H
	DB	0ffH
	DB	0fbH
	DB	0ffH
	DB	0ffH
	DB	0ffH
	DB	0ffH
	DB	0ffH
	DB	09fH
	DB	00H
	DB	0f6H
	DB	0ffH
	DB	0ffH
	DB	0dfH
	DB	037H
	DB	022H
	DB	0c6H
	DB	0ffH
	DB	0ffH
	DB	02H
	DB	0f6H
	DB	0ffH
	DB	0dfH
	DB	05H
	DB	00H
	DB	00H
	DB	00H
	DB	0fcH
	DB	0ffH
	DB	07H
	DB	0f6H
	DB	0ffH
	DB	01aH
	DB	00H
	DB	00H
	DB	00H
	DB	00H
	DB	0f5H
	DB	0ffH
	DB	0aH
	DB	0f6H
	DB	0ffH
	DB	04H
	DB	00H
	DB	00H
	DB	00H
	DB	00H
	DB	0f1H
	DB	0ffH
	DB	0cH
	DB	0f6H
	DB	0ffH
	DB	04H
	DB	00H
	DB	00H
	DB	00H
	DB	00H
	DB	0e0H
	DB	0ffH
	DB	0dH
	DB	0f6H
	DB	0ffH
	DB	04H
	DB	00H
	DB	00H
	DB	00H
	DB	00H
	DB	0d0H
	DB	0ffH
	DB	0dH
	DB	0f6H
	DB	0ffH
	DB	04H
	DB	00H
	DB	00H
	DB	00H
	DB	00H
	DB	0c0H
	DB	0ffH
	DB	0dH
	DB	0f6H
	DB	0ffH
	DB	04H
	DB	00H
	DB	00H
	DB	00H
	DB	00H
	DB	0c0H
	DB	0ffH
	DB	0dH
	DB	0f6H
	DB	0ffH
	DB	04H
	DB	00H
	DB	00H
	DB	00H
	DB	00H
	DB	0c0H
	DB	0ffH
	DB	0dH
	DB	0f6H
	DB	0ffH
	DB	04H
	DB	00H
	DB	00H
	DB	00H
	DB	00H
	DB	0c0H
	DB	0ffH
	DB	0dH
	DB	0f6H
	DB	0ffH
	DB	04H
	DB	00H
	DB	00H
	DB	00H
	DB	00H
	DB	0c0H
	DB	0ffH
	DB	0dH
	DB	0f6H
	DB	0ffH
	DB	04H
	DB	00H
	DB	00H
	DB	00H
	DB	00H
	DB	0c0H
	DB	0ffH
	DB	0dH
	DB	0f6H
	DB	0ffH
	DB	04H
	DB	00H
	DB	00H
	DB	00H
	DB	00H
	DB	0c0H
	DB	0ffH
	DB	0dH
	DB	0f6H
	DB	0ffH
	DB	04H
	DB	00H
	DB	00H
	DB	00H
	DB	00H
	DB	0c0H
	DB	0ffH
	DB	0dH
	DB	0f6H
	DB	0ffH
	DB	04H
	DB	00H
	DB	00H
	DB	00H
	DB	00H
	DB	0c0H
	DB	0ffH
	DB	0dH
	DB	0f6H
	DB	0ffH
	DB	04H
	DB	00H
	DB	00H
	DB	00H
	DB	00H
	DB	0c0H
	DB	0ffH
	DB	0dH
	DB	0f6H
	DB	0ffH
	DB	04H
	DB	00H
	DB	00H
	DB	00H
	DB	00H
	DB	0c0H
	DB	0ffH
	DB	0dH
	DB	0f6H
	DB	0ffH
	DB	04H
	DB	00H
	DB	00H
	DB	00H
	DB	00H
	DB	0c0H
	DB	0ffH
	DB	0dH
	DB	0f6H
	DB	0ffH
	DB	04H
	DB	00H
	DB	00H
	DB	00H
	DB	00H
	DB	0c0H
	DB	0ffH
	DB	0dH
	DB	00H
	DB	00H
	DB	00H
	DB	030H
	DB	075H
	DB	067H
	DB	04H
	DB	00H
	DB	00H
	DB	00H
	DB	00H
	DB	00H
	DB	00H
	DB	070H
	DB	0fdH
	DB	0ffH
	DB	0ffH
	DB	0efH
	DB	019H
	DB	00H
	DB	00H
	DB	00H
	DB	00H
	DB	020H
	DB	0fdH
	DB	0ffH
	DB	0ffH
	DB	0ffH
	DB	0ffH
	DB	0efH
	DB	05H
	DB	00H
	DB	00H
	DB	00H
	DB	0e2H
	DB	0ffH
	DB	0ffH
	DB	0ceH
	DB	0dcH
	DB	0ffH
	DB	0ffH
	DB	05fH
	DB	00H
	DB	00H
	DB	00H
	DB	0fcH
	DB	0ffH
	DB	04cH
	DB	00H
	DB	00H
	DB	0a3H
	DB	0ffH
	DB	0efH
	DB	02H
	DB	00H
	DB	070H
	DB	0ffH
	DB	0bfH
	DB	01H
	DB	00H
	DB	00H
	DB	00H
	DB	0f8H
	DB	0ffH
	DB	0bH
	DB	00H
	DB	0e0H
	DB	0ffH
	DB	02eH
	DB	00H
	DB	00H
	DB	00H
	DB	00H
	DB	0c0H
	DB	0ffH
	DB	03fH
	DB	00H
	DB	0f4H
	DB	0ffH
	DB	09H
	DB	00H
	DB	00H
	DB	00H
	DB	00H
	DB	050H
	DB	0ffH
	DB	09fH
	DB	00H
	DB	0f8H
	DB	0ffH
	DB	04H
	DB	00H
	DB	00H
	DB	00H
	DB	00H
	DB	00H
	DB	0feH
	DB	0cfH
	DB	00H
	DB	0fbH
	DB	0ffH
	DB	01H
	DB	00H
	DB	00H
	DB	00H
	DB	00H
	DB	00H
	DB	0fcH
	DB	0ffH
	DB	00H
	DB	0fcH
	DB	0efH
	DB	00H
	DB	00H
	DB	00H
	DB	00H
	DB	00H
	DB	00H
	DB	0faH
	DB	0ffH
	DB	01H
	DB	0fdH
	DB	0dfH
	DB	00H
	DB	00H
	DB	00H
	DB	00H
	DB	00H
	DB	00H
	DB	0f9H
	DB	0ffH
	DB	02H
	DB	0fdH
	DB	0dfH
	DB	00H
	DB	00H
	DB	00H
	DB	00H
	DB	00H
	DB	00H
	DB	0f9H
	DB	0ffH
	DB	03H
	DB	0fcH
	DB	0efH
	DB	00H
	DB	00H
	DB	00H
	DB	00H
	DB	00H
	DB	00H
	DB	0faH
	DB	0ffH
	DB	01H
	DB	0fbH
	DB	0ffH
	DB	01H
	DB	00H
	DB	00H
	DB	00H
	DB	00H
	DB	00H
	DB	0fcH
	DB	0ffH
	DB	00H
	DB	0f8H
	DB	0ffH
	DB	04H
	DB	00H
	DB	00H
	DB	00H
	DB	00H
	DB	00H
	DB	0ffH
	DB	0cfH
	DB	00H
	DB	0f5H
	DB	0ffH
	DB	09H
	DB	00H
	DB	00H
	DB	00H
	DB	00H
	DB	050H
	DB	0ffH
	DB	09fH
	DB	00H
	DB	0e0H
	DB	0ffH
	DB	02fH
	DB	00H
	DB	00H
	DB	00H
	DB	00H
	DB	0c0H
	DB	0ffH
	DB	03fH
	DB	00H
	DB	070H
	DB	0ffH
	DB	0cfH
	DB	01H
	DB	00H
	DB	00H
	DB	00H
	DB	0f9H
	DB	0ffH
	DB	0bH
	DB	00H
	DB	00H
	DB	0fcH
	DB	0ffH
	DB	05dH
	DB	00H
	DB	00H
	DB	0b3H
	DB	0ffH
	DB	0efH
	DB	02H
	DB	00H
	DB	00H
	DB	0e3H
	DB	0ffH
	DB	0ffH
	DB	0ceH
	DB	0dcH
	DB	0ffH
	DB	0ffH
	DB	05fH
	DB	00H
	DB	00H
	DB	00H
	DB	020H
	DB	0fdH
	DB	0ffH
	DB	0ffH
	DB	0ffH
	DB	0ffH
	DB	0efH
	DB	05H
	DB	00H
	DB	00H
	DB	00H
	DB	00H
	DB	070H
	DB	0fdH
	DB	0ffH
	DB	0ffH
	DB	0efH
	DB	019H
	DB	00H
	DB	00H
	DB	00H
	DB	00H
	DB	00H
	DB	00H
	DB	030H
	DB	075H
	DB	067H
	DB	04H
	DB	00H
	DB	00H
	DB	00H
	DB	00H
	DB	0f6H
	DB	0ffH
	DB	04H
	DB	00H
	DB	0a6H
	DB	0fdH
	DB	0dfH
	DB	03H
	DB	0f6H
	DB	0ffH
	DB	04H
	DB	0d5H
	DB	0ffH
	DB	0ffH
	DB	0ffH
	DB	04H
	DB	0f6H
	DB	0ffH
	DB	0a5H
	DB	0ffH
	DB	0ffH
	DB	0ffH
	DB	0ffH
	DB	04H
	DB	0f6H
	DB	0ffH
	DB	0feH
	DB	0ffH
	DB	0dfH
	DB	0bbH
	DB	0fdH
	DB	04H
	DB	0f6H
	DB	0ffH
	DB	0ffH
	DB	07eH
	DB	01H
	DB	00H
	DB	00H
	DB	00H
	DB	0f6H
	DB	0ffH
	DB	08fH
	DB	01H
	DB	00H
	DB	00H
	DB	00H
	DB	00H
	DB	0f6H
	DB	0ffH
	DB	06H
	DB	00H
	DB	00H
	DB	00H
	DB	00H
	DB	00H
	DB	0f6H
	DB	0ffH
	DB	04H
	DB	00H
	DB	00H
	DB	00H
	DB	00H
	DB	00H
	DB	0f6H
	DB	0ffH
	DB	04H
	DB	00H
	DB	00H
	DB	00H
	DB	00H
	DB	00H
	DB	0f6H
	DB	0ffH
	DB	04H
	DB	00H
	DB	00H
	DB	00H
	DB	00H
	DB	00H
	DB	0f6H
	DB	0ffH
	DB	04H
	DB	00H
	DB	00H
	DB	00H
	DB	00H
	DB	00H
	DB	0f6H
	DB	0ffH
	DB	04H
	DB	00H
	DB	00H
	DB	00H
	DB	00H
	DB	00H
	DB	0f6H
	DB	0ffH
	DB	04H
	DB	00H
	DB	00H
	DB	00H
	DB	00H
	DB	00H
	DB	0f6H
	DB	0ffH
	DB	04H
	DB	00H
	DB	00H
	DB	00H
	DB	00H
	DB	00H
	DB	0f6H
	DB	0ffH
	DB	04H
	DB	00H
	DB	00H
	DB	00H
	DB	00H
	DB	00H
	DB	0f6H
	DB	0ffH
	DB	04H
	DB	00H
	DB	00H
	DB	00H
	DB	00H
	DB	00H
	DB	0f6H
	DB	0ffH
	DB	04H
	DB	00H
	DB	00H
	DB	00H
	DB	00H
	DB	00H
	DB	0f6H
	DB	0ffH
	DB	04H
	DB	00H
	DB	00H
	DB	00H
	DB	00H
	DB	00H
	DB	0f6H
	DB	0ffH
	DB	04H
	DB	00H
	DB	00H
	DB	00H
	DB	00H
	DB	00H
	DB	0f6H
	DB	0ffH
	DB	04H
	DB	00H
	DB	00H
	DB	00H
	DB	00H
	DB	00H
	DB	0f6H
	DB	0ffH
	DB	04H
	DB	00H
	DB	00H
	DB	00H
	DB	00H
	DB	00H
	DB	0f6H
	DB	0ffH
	DB	04H
	DB	00H
	DB	00H
	DB	00H
	DB	00H
	DB	00H
	DB	00H
	DB	0f5H
	DB	0ffH
	DB	05H
	DB	00H
	DB	00H
	DB	00H
	DB	00H
	DB	0f5H
	DB	0ffH
	DB	05H
	DB	00H
	DB	00H
	DB	00H
	DB	00H
	DB	0f5H
	DB	0ffH
	DB	05H
	DB	00H
	DB	00H
	DB	00H
	DB	00H
	DB	0f5H
	DB	0ffH
	DB	05H
	DB	00H
	DB	00H
	DB	00H
	DB	00H
	DB	0f5H
	DB	0ffH
	DB	05H
	DB	00H
	DB	00H
	DB	00H
	DB	00H
	DB	0f5H
	DB	0ffH
	DB	05H
	DB	00H
	DB	00H
	DB	00H
	DB	00H
	DB	0f5H
	DB	0ffH
	DB	05H
	DB	00H
	DB	00H
	DB	00H
	DB	0fcH
	DB	0ffH
	DB	0ffH
	DB	0ffH
	DB	0ffH
	DB	0ffH
	DB	0efH
	DB	0fcH
	DB	0ffH
	DB	0ffH
	DB	0ffH
	DB	0ffH
	DB	0ffH
	DB	0efH
	DB	0fcH
	DB	0ffH
	DB	0ffH
	DB	0ffH
	DB	0ffH
	DB	0ffH
	DB	0efH
	DB	022H
	DB	0f6H
	DB	0ffH
	DB	027H
	DB	022H
	DB	022H
	DB	022H
	DB	00H
	DB	0f5H
	DB	0ffH
	DB	05H
	DB	00H
	DB	00H
	DB	00H
	DB	00H
	DB	0f5H
	DB	0ffH
	DB	05H
	DB	00H
	DB	00H
	DB	00H
	DB	00H
	DB	0f5H
	DB	0ffH
	DB	05H
	DB	00H
	DB	00H
	DB	00H
	DB	00H
	DB	0f5H
	DB	0ffH
	DB	05H
	DB	00H
	DB	00H
	DB	00H
	DB	00H
	DB	0f5H
	DB	0ffH
	DB	05H
	DB	00H
	DB	00H
	DB	00H
	DB	00H
	DB	0f5H
	DB	0ffH
	DB	05H
	DB	00H
	DB	00H
	DB	00H
	DB	00H
	DB	0f5H
	DB	0ffH
	DB	05H
	DB	00H
	DB	00H
	DB	00H
	DB	00H
	DB	0f5H
	DB	0ffH
	DB	05H
	DB	00H
	DB	00H
	DB	00H
	DB	00H
	DB	0f5H
	DB	0ffH
	DB	05H
	DB	00H
	DB	00H
	DB	00H
	DB	00H
	DB	0f5H
	DB	0ffH
	DB	05H
	DB	00H
	DB	00H
	DB	00H
	DB	00H
	DB	0f5H
	DB	0ffH
	DB	06H
	DB	00H
	DB	00H
	DB	00H
	DB	00H
	DB	0f4H
	DB	0ffH
	DB	06H
	DB	00H
	DB	00H
	DB	00H
	DB	00H
	DB	0f3H
	DB	0ffH
	DB	08H
	DB	00H
	DB	00H
	DB	00H
	DB	00H
	DB	0f1H
	DB	0ffH
	DB	0dH
	DB	00H
	DB	00H
	DB	00H
	DB	00H
	DB	0c0H
	DB	0ffH
	DB	0afH
	DB	01H
	DB	00H
	DB	062H
	DB	00H
	DB	060H
	DB	0ffH
	DB	0ffH
	DB	0dfH
	DB	0dcH
	DB	0efH
	DB	00H
	DB	00H
	DB	0faH
	DB	0ffH
	DB	0ffH
	DB	0ffH
	DB	0efH
	DB	00H
	DB	00H
	DB	080H
	DB	0feH
	DB	0ffH
	DB	0ffH
	DB	0dfH
	DB	00H
	DB	00H
	DB	00H
	DB	041H
	DB	076H
	DB	057H
	DB	02H
	DB	0f8H
	DB	0ffH
	DB	02H
	DB	00H
	DB	00H
	DB	00H
	DB	00H
	DB	0f0H
	DB	0ffH
	DB	0bH
	DB	0f8H
	DB	0ffH
	DB	02H
	DB	00H
	DB	00H
	DB	00H
	DB	00H
	DB	0f0H
	DB	0ffH
	DB	0bH
	DB	0f8H
	DB	0ffH
	DB	02H
	DB	00H
	DB	00H
	DB	00H
	DB	00H
	DB	0f0H
	DB	0ffH
	DB	0bH
	DB	0f8H
	DB	0ffH
	DB	02H
	DB	00H
	DB	00H
	DB	00H
	DB	00H
	DB	0f0H
	DB	0ffH
	DB	0bH
	DB	0f8H
	DB	0ffH
	DB	02H
	DB	00H
	DB	00H
	DB	00H
	DB	00H
	DB	0f0H
	DB	0ffH
	DB	0bH
	DB	0f8H
	DB	0ffH
	DB	02H
	DB	00H
	DB	00H
	DB	00H
	DB	00H
	DB	0f0H
	DB	0ffH
	DB	0bH
	DB	0f8H
	DB	0ffH
	DB	02H
	DB	00H
	DB	00H
	DB	00H
	DB	00H
	DB	0f0H
	DB	0ffH
	DB	0bH
	DB	0f8H
	DB	0ffH
	DB	02H
	DB	00H
	DB	00H
	DB	00H
	DB	00H
	DB	0f0H
	DB	0ffH
	DB	0bH
	DB	0f8H
	DB	0ffH
	DB	02H
	DB	00H
	DB	00H
	DB	00H
	DB	00H
	DB	0f0H
	DB	0ffH
	DB	0bH
	DB	0f8H
	DB	0ffH
	DB	02H
	DB	00H
	DB	00H
	DB	00H
	DB	00H
	DB	0f0H
	DB	0ffH
	DB	0bH
	DB	0f8H
	DB	0ffH
	DB	02H
	DB	00H
	DB	00H
	DB	00H
	DB	00H
	DB	0f0H
	DB	0ffH
	DB	0bH
	DB	0f8H
	DB	0ffH
	DB	02H
	DB	00H
	DB	00H
	DB	00H
	DB	00H
	DB	0f0H
	DB	0ffH
	DB	0bH
	DB	0f8H
	DB	0ffH
	DB	02H
	DB	00H
	DB	00H
	DB	00H
	DB	00H
	DB	0f0H
	DB	0ffH
	DB	0bH
	DB	0f8H
	DB	0ffH
	DB	02H
	DB	00H
	DB	00H
	DB	00H
	DB	00H
	DB	0f0H
	DB	0ffH
	DB	0bH
	DB	0f8H
	DB	0ffH
	DB	03H
	DB	00H
	DB	00H
	DB	00H
	DB	00H
	DB	0f0H
	DB	0ffH
	DB	0bH
	DB	0f7H
	DB	0ffH
	DB	05H
	DB	00H
	DB	00H
	DB	00H
	DB	00H
	DB	0f0H
	DB	0ffH
	DB	0bH
	DB	0f5H
	DB	0ffH
	DB	09H
	DB	00H
	DB	00H
	DB	00H
	DB	00H
	DB	0f5H
	DB	0ffH
	DB	0bH
	DB	0f2H
	DB	0ffH
	DB	03fH
	DB	00H
	DB	00H
	DB	00H
	DB	0a2H
	DB	0ffH
	DB	0ffH
	DB	0bH
	DB	0c0H
	DB	0ffH
	DB	0efH
	DB	037H
	DB	032H
	DB	0b5H
	DB	0ffH
	DB	0ffH
	DB	0ffH
	DB	0bH
	DB	040H
	DB	0ffH
	DB	0ffH
	DB	0ffH
	DB	0ffH
	DB	0ffH
	DB	0ffH
	DB	0fcH
	DB	0ffH
	DB	0bH
	DB	00H
	DB	0f7H
	DB	0ffH
	DB	0ffH
	DB	0ffH
	DB	0ffH
	DB	08fH
	DB	0f0H
	DB	0ffH
	DB	0bH
	DB	00H
	DB	050H
	DB	0fdH
	DB	0ffH
	DB	0ffH
	DB	0afH
	DB	02H
	DB	0f0H
	DB	0ffH
	DB	0bH
	DB	00H
	DB	00H
	DB	030H
	DB	076H
	DB	056H
	DB	01H
	DB	00H
	DB	00H
	DB	00H
	DB	00H
	DB	0f9H
	DB	0ffH
	DB	05H
	DB	00H
	DB	00H
	DB	00H
	DB	00H
	DB	00H
	DB	080H
	DB	0ffH
	DB	04fH
	DB	0f3H
	DB	0ffH
	DB	0bH
	DB	00H
	DB	00H
	DB	00H
	DB	00H
	DB	00H
	DB	0e0H
	DB	0ffH
	DB	0dH
	DB	0c0H
	DB	0ffH
	DB	02fH
	DB	00H
	DB	00H
	DB	00H
	DB	00H
	DB	00H
	DB	0f5H
	DB	0ffH
	DB	07H
	DB	060H
	DB	0ffH
	DB	08fH
	DB	00H
	DB	00H
	DB	00H
	DB	00H
	DB	00H
	DB	0fbH
	DB	0ffH
	DB	01H
	DB	010H
	DB	0feH
	DB	0dfH
	DB	00H
	DB	00H
	DB	00H
	DB	00H
	DB	010H
	DB	0ffH
	DB	0afH
	DB	00H
	DB	00H
	DB	0f9H
	DB	0ffH
	DB	04H
	DB	00H
	DB	00H
	DB	00H
	DB	070H
	DB	0ffH
	DB	04fH
	DB	00H
	DB	00H
	DB	0f3H
	DB	0ffH
	DB	0aH
	DB	00H
	DB	00H
	DB	00H
	DB	0d0H
	DB	0ffH
	DB	0dH
	DB	00H
	DB	00H
	DB	0c0H
	DB	0ffH
	DB	01fH
	DB	00H
	DB	00H
	DB	00H
	DB	0f3H
	DB	0ffH
	DB	07H
	DB	00H
	DB	00H
	DB	060H
	DB	0ffH
	DB	07fH
	DB	00H
	DB	00H
	DB	00H
	DB	0f9H
	DB	0ffH
	DB	01H
	DB	00H
	DB	00H
	DB	010H
	DB	0feH
	DB	0dfH
	DB	00H
	DB	00H
	DB	010H
	DB	0feH
	DB	0afH
	DB	00H
	DB	00H
	DB	00H
	DB	00H
	DB	0f9H
	DB	0ffH
	DB	03H
	DB	00H
	DB	060H
	DB	0ffH
	DB	04fH
	DB	00H
	DB	00H
	DB	00H
	DB	00H
	DB	0f3H
	DB	0ffH
	DB	09H
	DB	00H
	DB	0b0H
	DB	0ffH
	DB	0dH
	DB	00H
	DB	00H
	DB	00H
	DB	00H
	DB	0c0H
	DB	0ffH
	DB	01eH
	DB	00H
	DB	0f2H
	DB	0ffH
	DB	07H
	DB	00H
	DB	00H
	DB	00H
	DB	00H
	DB	060H
	DB	0ffH
	DB	06fH
	DB	00H
	DB	0f8H
	DB	0ffH
	DB	01H
	DB	00H
	DB	00H
	DB	00H
	DB	00H
	DB	010H
	DB	0feH
	DB	0cfH
	DB	00H
	DB	0fdH
	DB	0afH
	DB	00H
	DB	00H
	DB	00H
	DB	00H
	DB	00H
	DB	00H
	DB	0f9H
	DB	0ffH
	DB	042H
	DB	0ffH
	DB	04fH
	DB	00H
	DB	00H
	DB	00H
	DB	00H
	DB	00H
	DB	00H
	DB	0f3H
	DB	0ffH
	DB	0a8H
	DB	0ffH
	DB	0dH
	DB	00H
	DB	00H
	DB	00H
	DB	00H
	DB	00H
	DB	00H
	DB	0c0H
	DB	0ffH
	DB	0feH
	DB	0ffH
	DB	07H
	DB	00H
	DB	00H
	DB	00H
	DB	00H
	DB	00H
	DB	00H
	DB	060H
	DB	0ffH
	DB	0ffH
	DB	0ffH
	DB	01H
	DB	00H
	DB	00H
	DB	00H
	DB	00H
	DB	00H
	DB	00H
	DB	010H
	DB	0ffH
	DB	0ffH
	DB	0afH
	DB	00H
	DB	00H
	DB	00H
	DB	00H
	DB	00H
	DB	00H
	DB	00H
	DB	00H
	DB	0faH
	DB	0ffH
	DB	04fH
	DB	00H
	DB	00H
	DB	00H
	DB	00H
	DB	00H
	DB	00H
	DB	00H
	DB	00H
	DB	0f3H
	DB	0ffH
	DB	0dH
	DB	00H
	DB	00H
	DB	00H
	DB	00H
	DB	0f6H
	DB	0ffH
	DB	04fH
	DB	00H
	DB	00H
	DB	00H
	DB	00H
	DB	00H
	DB	0f3H
	DB	0ffH
	DB	02eH
	DB	090H
	DB	0ffH
	DB	0efH
	DB	01H
	DB	00H
	DB	00H
	DB	00H
	DB	010H
	DB	0fdH
	DB	0ffH
	DB	05H
	DB	00H
	DB	0fcH
	DB	0ffH
	DB	0bH
	DB	00H
	DB	00H
	DB	00H
	DB	0a0H
	DB	0ffH
	DB	08fH
	DB	00H
	DB	00H
	DB	0e2H
	DB	0ffH
	DB	07fH
	DB	00H
	DB	00H
	DB	00H
	DB	0f6H
	DB	0ffH
	DB	0bH
	DB	00H
	DB	00H
	DB	050H
	DB	0ffH
	DB	0ffH
	DB	03H
	DB	00H
	DB	030H
	DB	0feH
	DB	0dfH
	DB	01H
	DB	00H
	DB	00H
	DB	00H
	DB	0f8H
	DB	0ffH
	DB	01dH
	DB	00H
	DB	0d1H
	DB	0ffH
	DB	03eH
	DB	00H
	DB	00H
	DB	00H
	DB	00H
	DB	0b0H
	DB	0ffH
	DB	0afH
	DB	00H
	DB	0f9H
	DB	0ffH
	DB	05H
	DB	00H
	DB	00H
	DB	00H
	DB	00H
	DB	020H
	DB	0feH
	DB	0ffH
	DB	056H
	DB	0ffH
	DB	08fH
	DB	00H
	DB	00H
	DB	00H
	DB	00H
	DB	00H
	DB	00H
	DB	0f4H
	DB	0ffH
	DB	0efH
	DB	0ffH
	DB	0bH
	DB	00H
	DB	00H
	DB	00H
	DB	00H
	DB	00H
	DB	00H
	DB	070H
	DB	0ffH
	DB	0ffH
	DB	0dfH
	DB	01H
	DB	00H
	DB	00H
	DB	00H
	DB	00H
	DB	00H
	DB	00H
	DB	00H
	DB	0fbH
	DB	0ffH
	DB	03fH
	DB	00H
	DB	00H
	DB	00H
	DB	00H
	DB	00H
	DB	00H
	DB	00H
	DB	00H
	DB	0faH
	DB	0ffH
	DB	07fH
	DB	00H
	DB	00H
	DB	00H
	DB	00H
	DB	00H
	DB	00H
	DB	00H
	DB	070H
	DB	0ffH
	DB	0ffH
	DB	0ffH
	DB	03H
	DB	00H
	DB	00H
	DB	00H
	DB	00H
	DB	00H
	DB	00H
	DB	0f4H
	DB	0ffH
	DB	0fdH
	DB	0ffH
	DB	01dH
	DB	00H
	DB	00H
	DB	00H
	DB	00H
	DB	00H
	DB	010H
	DB	0feH
	DB	0efH
	DB	091H
	DB	0ffH
	DB	0bfH
	DB	00H
	DB	00H
	DB	00H
	DB	00H
	DB	00H
	DB	0b0H
	DB	0ffH
	DB	04fH
	DB	010H
	DB	0fdH
	DB	0ffH
	DB	08H
	DB	00H
	DB	00H
	DB	00H
	DB	00H
	DB	0f8H
	DB	0ffH
	DB	08H
	DB	00H
	DB	0f3H
	DB	0ffH
	DB	04fH
	DB	00H
	DB	00H
	DB	00H
	DB	050H
	DB	0ffH
	DB	0bfH
	DB	00H
	DB	00H
	DB	060H
	DB	0ffH
	DB	0efH
	DB	02H
	DB	00H
	DB	00H
	DB	0e2H
	DB	0ffH
	DB	02eH
	DB	00H
	DB	00H
	DB	00H
	DB	0faH
	DB	0ffH
	DB	0cH
	DB	00H
	DB	010H
	DB	0fdH
	DB	0ffH
	DB	04H
	DB	00H
	DB	00H
	DB	00H
	DB	0d1H
	DB	0ffH
	DB	09fH
	DB	00H
	DB	0a0H
	DB	0ffH
	DB	08fH
	DB	00H
	DB	00H
	DB	00H
	DB	00H
	DB	040H
	DB	0ffH
	DB	0ffH
	DB	05H
	DB	0f7H
	DB	0ffH
	DB	0cH
	DB	00H
	DB	00H
	DB	00H
	DB	00H
	DB	00H
	DB	0f7H
	DB	0ffH
	DB	02eH
CONST	ENDS
PUBLIC	__JustMyCode_Default
; Function compile flags: /Odt
;	COMDAT __JustMyCode_Default
_TEXT	SEGMENT
__JustMyCode_Default PROC				; COMDAT
	push	ebp
	mov	ebp, esp
	pop	ebp
	ret	0
__JustMyCode_Default ENDP
_TEXT	ENDS
END
