; Listing generated by Microsoft (R) Optimizing Compiler Version 19.24.28314.0 

	TITLE	D:\stm_gfx_hacktues_project\smart_home_v2\smart_home\TouchGFX\generated\images\src\__designer\image_Dark_Slider_Vertical_Small_Indicators_Slider3_Vertical_Round_Edge_nob.cpp
	.686P
	.XMM
	include listing.inc
	.model	flat

INCLUDELIB MSVCRTD
INCLUDELIB OLDNAMES

PUBLIC	?image_dark_slider_vertical_small_indicators_slider3_vertical_round_edge_nob@@3QBEB ; image_dark_slider_vertical_small_indicators_slider3_vertical_round_edge_nob
CONST	SEGMENT
?image_dark_slider_vertical_small_indicators_slider3_vertical_round_edge_nob@@3QBEB DB 00H ; image_dark_slider_vertical_small_indicators_slider3_vertical_round_edge_nob
	DB	00H
	DB	00H
	DB	00H
	DB	00H
	DB	00H
	DB	00H
	DB	00H
	DB	00H
	DB	00H
	DB	00H
	DB	00H
	DB	00H
	DB	00H
	DB	00H
	DB	04H
	DB	00H
	DB	00H
	DB	00H
	DB	08H
	DB	00H
	DB	00H
	DB	00H
	DB	08H
	DB	00H
	DB	00H
	DB	00H
	DB	0cH
	DB	00H
	DB	00H
	DB	00H
	DB	0cH
	DB	00H
	DB	00H
	DB	00H
	DB	0cH
	DB	00H
	DB	00H
	DB	00H
	DB	0cH
	DB	00H
	DB	00H
	DB	00H
	DB	0cH
	DB	00H
	DB	00H
	DB	00H
	DB	0cH
	DB	00H
	DB	00H
	DB	00H
	DB	0cH
	DB	00H
	DB	00H
	DB	00H
	DB	0cH
	DB	00H
	DB	00H
	DB	00H
	DB	0cH
	DB	00H
	DB	00H
	DB	00H
	DB	0cH
	DB	00H
	DB	00H
	DB	00H
	DB	0cH
	DB	00H
	DB	00H
	DB	00H
	DB	0cH
	DB	00H
	DB	00H
	DB	00H
	DB	0cH
	DB	00H
	DB	00H
	DB	00H
	DB	0cH
	DB	00H
	DB	00H
	DB	00H
	DB	0cH
	DB	00H
	DB	00H
	DB	00H
	DB	0cH
	DB	00H
	DB	00H
	DB	00H
	DB	0cH
	DB	00H
	DB	00H
	DB	00H
	DB	0cH
	DB	00H
	DB	00H
	DB	00H
	DB	0cH
	DB	00H
	DB	00H
	DB	00H
	DB	0cH
	DB	00H
	DB	00H
	DB	00H
	DB	0cH
	DB	00H
	DB	00H
	DB	00H
	DB	0cH
	DB	00H
	DB	00H
	DB	00H
	DB	08H
	DB	00H
	DB	00H
	DB	00H
	DB	08H
	DB	00H
	DB	00H
	DB	00H
	DB	04H
	DB	00H
	DB	00H
	DB	00H
	DB	00H
	DB	00H
	DB	00H
	DB	00H
	DB	00H
	DB	00H
	DB	00H
	DB	00H
	DB	00H
	DB	00H
	DB	00H
	DB	00H
	DB	00H
	DB	00H
	DB	00H
	DB	00H
	DB	00H
	DB	00H
	DB	00H
	DB	00H
	DB	08H
	DB	070H
	DB	070H
	DB	070H
	DB	030H
	DB	090H
	DB	090H
	DB	090H
	DB	0b6H
	DB	090H
	DB	094H
	DB	090H
	DB	0f3H
	DB	090H
	DB	094H
	DB	090H
	DB	0ffH
	DB	090H
	DB	090H
	DB	090H
	DB	0ffH
	DB	090H
	DB	094H
	DB	090H
	DB	0ffH
	DB	098H
	DB	094H
	DB	098H
	DB	0ffH
	DB	090H
	DB	094H
	DB	090H
	DB	0ffH
	DB	098H
	DB	094H
	DB	098H
	DB	0ffH
	DB	098H
	DB	098H
	DB	098H
	DB	0ffH
	DB	098H
	DB	098H
	DB	098H
	DB	0ffH
	DB	098H
	DB	098H
	DB	098H
	DB	0ffH
	DB	098H
	DB	098H
	DB	098H
	DB	0ffH
	DB	0a0H
	DB	09cH
	DB	0a0H
	DB	0ffH
	DB	0a0H
	DB	09cH
	DB	0a0H
	DB	0ffH
	DB	0a0H
	DB	0a0H
	DB	0a0H
	DB	0ffH
	DB	0a0H
	DB	0a0H
	DB	0a0H
	DB	0ffH
	DB	0a0H
	DB	0a4H
	DB	0a0H
	DB	0ffH
	DB	0a0H
	DB	0a4H
	DB	0a0H
	DB	0ffH
	DB	0a8H
	DB	0a4H
	DB	0a8H
	DB	0ffH
	DB	0a8H
	DB	0a4H
	DB	0a8H
	DB	0ffH
	DB	0a8H
	DB	0a8H
	DB	0a8H
	DB	0ffH
	DB	0a8H
	DB	0a8H
	DB	0a8H
	DB	0ffH
	DB	0a8H
	DB	0acH
	DB	0a8H
	DB	0ffH
	DB	0b0H
	DB	0acH
	DB	0b0H
	DB	0ffH
	DB	0b0H
	DB	0acH
	DB	0b0H
	DB	0f3H
	DB	0a8H
	DB	0a8H
	DB	0a8H
	DB	0b6H
	DB	088H
	DB	084H
	DB	088H
	DB	030H
	DB	00H
	DB	00H
	DB	00H
	DB	08H
	DB	00H
	DB	00H
	DB	00H
	DB	00H
	DB	00H
	DB	00H
	DB	00H
	DB	00H
	DB	00H
	DB	00H
	DB	00H
	DB	00H
	DB	00H
	DB	00H
	DB	00H
	DB	08H
	DB	070H
	DB	070H
	DB	070H
	DB	038H
	DB	090H
	DB	094H
	DB	090H
	DB	0efH
	DB	080H
	DB	080H
	DB	080H
	DB	0ffH
	DB	078H
	DB	074H
	DB	078H
	DB	0ffH
	DB	070H
	DB	070H
	DB	070H
	DB	0ffH
	DB	070H
	DB	070H
	DB	070H
	DB	0ffH
	DB	070H
	DB	070H
	DB	070H
	DB	0ffH
	DB	070H
	DB	070H
	DB	070H
	DB	0ffH
	DB	070H
	DB	070H
	DB	070H
	DB	0ffH
	DB	070H
	DB	074H
	DB	070H
	DB	0ffH
	DB	078H
	DB	074H
	DB	078H
	DB	0ffH
	DB	078H
	DB	078H
	DB	078H
	DB	0ffH
	DB	078H
	DB	078H
	DB	078H
	DB	0ffH
	DB	078H
	DB	07cH
	DB	078H
	DB	0ffH
	DB	078H
	DB	07cH
	DB	078H
	DB	0ffH
	DB	080H
	DB	07cH
	DB	080H
	DB	0ffH
	DB	080H
	DB	080H
	DB	080H
	DB	0ffH
	DB	080H
	DB	080H
	DB	080H
	DB	0ffH
	DB	088H
	DB	084H
	DB	088H
	DB	0ffH
	DB	088H
	DB	088H
	DB	088H
	DB	0ffH
	DB	088H
	DB	088H
	DB	088H
	DB	0ffH
	DB	088H
	DB	088H
	DB	088H
	DB	0ffH
	DB	088H
	DB	08cH
	DB	088H
	DB	0ffH
	DB	090H
	DB	090H
	DB	090H
	DB	0ffH
	DB	090H
	DB	090H
	DB	090H
	DB	0ffH
	DB	090H
	DB	090H
	DB	090H
	DB	0ffH
	DB	098H
	DB	098H
	DB	098H
	DB	0ffH
	DB	0a0H
	DB	0a4H
	DB	0a0H
	DB	0ffH
	DB	0b0H
	DB	0b0H
	DB	0b0H
	DB	0efH
	DB	080H
	DB	080H
	DB	080H
	DB	038H
	DB	00H
	DB	00H
	DB	00H
	DB	08H
	DB	00H
	DB	00H
	DB	00H
	DB	00H
	DB	00H
	DB	00H
	DB	00H
	DB	04H
	DB	00H
	DB	00H
	DB	00H
	DB	010H
	DB	090H
	DB	08cH
	DB	090H
	DB	0baH
	DB	078H
	DB	078H
	DB	078H
	DB	0ffH
	DB	068H
	DB	068H
	DB	068H
	DB	0ffH
	DB	068H
	DB	064H
	DB	068H
	DB	0ffH
	DB	068H
	DB	064H
	DB	068H
	DB	0ffH
	DB	068H
	DB	064H
	DB	068H
	DB	0ffH
	DB	068H
	DB	068H
	DB	068H
	DB	0ffH
	DB	068H
	DB	068H
	DB	068H
	DB	0ffH
	DB	068H
	DB	068H
	DB	068H
	DB	0ffH
	DB	068H
	DB	06cH
	DB	068H
	DB	0ffH
	DB	070H
	DB	06cH
	DB	070H
	DB	0ffH
	DB	070H
	DB	06cH
	DB	070H
	DB	0ffH
	DB	070H
	DB	070H
	DB	070H
	DB	0ffH
	DB	070H
	DB	074H
	DB	070H
	DB	0ffH
	DB	070H
	DB	074H
	DB	070H
	DB	0ffH
	DB	078H
	DB	078H
	DB	078H
	DB	0ffH
	DB	078H
	DB	078H
	DB	078H
	DB	0ffH
	DB	078H
	DB	078H
	DB	078H
	DB	0ffH
	DB	080H
	DB	07cH
	DB	080H
	DB	0ffH
	DB	080H
	DB	080H
	DB	080H
	DB	0ffH
	DB	080H
	DB	080H
	DB	080H
	DB	0ffH
	DB	080H
	DB	084H
	DB	080H
	DB	0ffH
	DB	088H
	DB	084H
	DB	088H
	DB	0ffH
	DB	088H
	DB	084H
	DB	088H
	DB	0ffH
	DB	088H
	DB	088H
	DB	088H
	DB	0ffH
	DB	088H
	DB	08cH
	DB	088H
	DB	0ffH
	DB	090H
	DB	08cH
	DB	090H
	DB	0ffH
	DB	090H
	DB	090H
	DB	090H
	DB	0ffH
	DB	098H
	DB	09cH
	DB	098H
	DB	0ffH
	DB	0a8H
	DB	0a4H
	DB	0a8H
	DB	0baH
	DB	00H
	DB	00H
	DB	00H
	DB	010H
	DB	00H
	DB	00H
	DB	00H
	DB	04H
	DB	00H
	DB	00H
	DB	00H
	DB	08H
	DB	00H
	DB	00H
	DB	00H
	DB	018H
	DB	088H
	DB	088H
	DB	088H
	DB	0f3H
	DB	070H
	DB	06cH
	DB	070H
	DB	0ffH
	DB	068H
	DB	064H
	DB	068H
	DB	0ffH
	DB	060H
	DB	064H
	DB	060H
	DB	0ffH
	DB	060H
	DB	064H
	DB	060H
	DB	0ffH
	DB	060H
	DB	064H
	DB	060H
	DB	0ffH
	DB	068H
	DB	064H
	DB	068H
	DB	0ffH
	DB	068H
	DB	064H
	DB	068H
	DB	0ffH
	DB	068H
	DB	068H
	DB	068H
	DB	0ffH
	DB	068H
	DB	068H
	DB	068H
	DB	0ffH
	DB	068H
	DB	06cH
	DB	068H
	DB	0ffH
	DB	068H
	DB	06cH
	DB	068H
	DB	0ffH
	DB	070H
	DB	06cH
	DB	070H
	DB	0ffH
	DB	070H
	DB	070H
	DB	070H
	DB	0ffH
	DB	070H
	DB	070H
	DB	070H
	DB	0ffH
	DB	078H
	DB	074H
	DB	078H
	DB	0ffH
	DB	078H
	DB	078H
	DB	078H
	DB	0ffH
	DB	078H
	DB	078H
	DB	078H
	DB	0ffH
	DB	078H
	DB	07cH
	DB	078H
	DB	0ffH
	DB	080H
	DB	07cH
	DB	080H
	DB	0ffH
	DB	080H
	DB	080H
	DB	080H
	DB	0ffH
	DB	080H
	DB	080H
	DB	080H
	DB	0ffH
	DB	080H
	DB	084H
	DB	080H
	DB	0ffH
	DB	088H
	DB	084H
	DB	088H
	DB	0ffH
	DB	088H
	DB	088H
	DB	088H
	DB	0ffH
	DB	088H
	DB	088H
	DB	088H
	DB	0ffH
	DB	088H
	DB	08cH
	DB	088H
	DB	0ffH
	DB	090H
	DB	08cH
	DB	090H
	DB	0ffH
	DB	090H
	DB	094H
	DB	090H
	DB	0ffH
	DB	0a8H
	DB	0a8H
	DB	0a8H
	DB	0f3H
	DB	00H
	DB	00H
	DB	00H
	DB	018H
	DB	00H
	DB	00H
	DB	00H
	DB	08H
	DB	00H
	DB	00H
	DB	00H
	DB	08H
	DB	00H
	DB	00H
	DB	00H
	DB	020H
	DB	078H
	DB	07cH
	DB	078H
	DB	0ffH
	DB	068H
	DB	06cH
	DB	068H
	DB	0ffH
	DB	068H
	DB	064H
	DB	068H
	DB	0ffH
	DB	060H
	DB	064H
	DB	060H
	DB	0ffH
	DB	060H
	DB	064H
	DB	060H
	DB	0ffH
	DB	068H
	DB	064H
	DB	068H
	DB	0ffH
	DB	068H
	DB	064H
	DB	068H
	DB	0ffH
	DB	068H
	DB	068H
	DB	068H
	DB	0ffH
	DB	068H
	DB	068H
	DB	068H
	DB	0ffH
	DB	068H
	DB	068H
	DB	068H
	DB	0ffH
	DB	068H
	DB	06cH
	DB	068H
	DB	0ffH
	DB	070H
	DB	06cH
	DB	070H
	DB	0ffH
	DB	070H
	DB	070H
	DB	070H
	DB	0ffH
	DB	070H
	DB	070H
	DB	070H
	DB	0ffH
	DB	070H
	DB	070H
	DB	070H
	DB	0ffH
	DB	070H
	DB	074H
	DB	070H
	DB	0ffH
	DB	078H
	DB	078H
	DB	078H
	DB	0ffH
	DB	078H
	DB	078H
	DB	078H
	DB	0ffH
	DB	078H
	DB	07cH
	DB	078H
	DB	0ffH
	DB	080H
	DB	07cH
	DB	080H
	DB	0ffH
	DB	080H
	DB	080H
	DB	080H
	DB	0ffH
	DB	080H
	DB	080H
	DB	080H
	DB	0ffH
	DB	080H
	DB	084H
	DB	080H
	DB	0ffH
	DB	088H
	DB	084H
	DB	088H
	DB	0ffH
	DB	088H
	DB	088H
	DB	088H
	DB	0ffH
	DB	088H
	DB	088H
	DB	088H
	DB	0ffH
	DB	088H
	DB	08cH
	DB	088H
	DB	0ffH
	DB	090H
	DB	08cH
	DB	090H
	DB	0ffH
	DB	090H
	DB	090H
	DB	090H
	DB	0ffH
	DB	0a0H
	DB	09cH
	DB	0a0H
	DB	0ffH
	DB	00H
	DB	00H
	DB	00H
	DB	020H
	DB	00H
	DB	00H
	DB	00H
	DB	08H
	DB	00H
	DB	00H
	DB	00H
	DB	0cH
	DB	00H
	DB	00H
	DB	00H
	DB	020H
	DB	078H
	DB	078H
	DB	078H
	DB	0ffH
	DB	068H
	DB	06cH
	DB	068H
	DB	0ffH
	DB	068H
	DB	064H
	DB	068H
	DB	0ffH
	DB	060H
	DB	064H
	DB	060H
	DB	0ffH
	DB	060H
	DB	064H
	DB	060H
	DB	0ffH
	DB	068H
	DB	064H
	DB	068H
	DB	0ffH
	DB	060H
	DB	064H
	DB	060H
	DB	0ffH
	DB	068H
	DB	068H
	DB	068H
	DB	0ffH
	DB	068H
	DB	068H
	DB	068H
	DB	0ffH
	DB	068H
	DB	068H
	DB	068H
	DB	0ffH
	DB	068H
	DB	06cH
	DB	068H
	DB	0ffH
	DB	070H
	DB	06cH
	DB	070H
	DB	0ffH
	DB	070H
	DB	06cH
	DB	070H
	DB	0ffH
	DB	070H
	DB	070H
	DB	070H
	DB	0ffH
	DB	070H
	DB	074H
	DB	070H
	DB	0ffH
	DB	078H
	DB	074H
	DB	078H
	DB	0ffH
	DB	078H
	DB	074H
	DB	078H
	DB	0ffH
	DB	078H
	DB	078H
	DB	078H
	DB	0ffH
	DB	078H
	DB	07cH
	DB	078H
	DB	0ffH
	DB	080H
	DB	07cH
	DB	080H
	DB	0ffH
	DB	080H
	DB	080H
	DB	080H
	DB	0ffH
	DB	080H
	DB	080H
	DB	080H
	DB	0ffH
	DB	080H
	DB	084H
	DB	080H
	DB	0ffH
	DB	088H
	DB	084H
	DB	088H
	DB	0ffH
	DB	088H
	DB	088H
	DB	088H
	DB	0ffH
	DB	088H
	DB	088H
	DB	088H
	DB	0ffH
	DB	088H
	DB	08cH
	DB	088H
	DB	0ffH
	DB	090H
	DB	08cH
	DB	090H
	DB	0ffH
	DB	090H
	DB	094H
	DB	090H
	DB	0ffH
	DB	098H
	DB	09cH
	DB	098H
	DB	0ffH
	DB	00H
	DB	00H
	DB	00H
	DB	024H
	DB	00H
	DB	00H
	DB	00H
	DB	0cH
	DB	00H
	DB	00H
	DB	00H
	DB	0cH
	DB	00H
	DB	00H
	DB	00H
	DB	024H
	DB	078H
	DB	078H
	DB	078H
	DB	0ffH
	DB	070H
	DB	06cH
	DB	070H
	DB	0ffH
	DB	068H
	DB	064H
	DB	068H
	DB	0ffH
	DB	060H
	DB	064H
	DB	060H
	DB	0ffH
	DB	060H
	DB	064H
	DB	060H
	DB	0ffH
	DB	068H
	DB	064H
	DB	068H
	DB	0ffH
	DB	060H
	DB	064H
	DB	060H
	DB	0ffH
	DB	068H
	DB	064H
	DB	068H
	DB	0ffH
	DB	068H
	DB	068H
	DB	068H
	DB	0ffH
	DB	068H
	DB	068H
	DB	068H
	DB	0ffH
	DB	068H
	DB	06cH
	DB	068H
	DB	0ffH
	DB	068H
	DB	06cH
	DB	068H
	DB	0ffH
	DB	070H
	DB	06cH
	DB	070H
	DB	0ffH
	DB	070H
	DB	070H
	DB	070H
	DB	0ffH
	DB	070H
	DB	074H
	DB	070H
	DB	0ffH
	DB	070H
	DB	074H
	DB	070H
	DB	0ffH
	DB	078H
	DB	074H
	DB	078H
	DB	0ffH
	DB	078H
	DB	078H
	DB	078H
	DB	0ffH
	DB	078H
	DB	07cH
	DB	078H
	DB	0ffH
	DB	080H
	DB	07cH
	DB	080H
	DB	0ffH
	DB	080H
	DB	080H
	DB	080H
	DB	0ffH
	DB	080H
	DB	080H
	DB	080H
	DB	0ffH
	DB	080H
	DB	084H
	DB	080H
	DB	0ffH
	DB	088H
	DB	084H
	DB	088H
	DB	0ffH
	DB	088H
	DB	088H
	DB	088H
	DB	0ffH
	DB	088H
	DB	088H
	DB	088H
	DB	0ffH
	DB	088H
	DB	08cH
	DB	088H
	DB	0ffH
	DB	090H
	DB	08cH
	DB	090H
	DB	0ffH
	DB	090H
	DB	094H
	DB	090H
	DB	0ffH
	DB	098H
	DB	09cH
	DB	098H
	DB	0ffH
	DB	00H
	DB	00H
	DB	00H
	DB	024H
	DB	00H
	DB	00H
	DB	00H
	DB	0cH
	DB	00H
	DB	00H
	DB	00H
	DB	0cH
	DB	00H
	DB	00H
	DB	00H
	DB	024H
	DB	078H
	DB	078H
	DB	078H
	DB	0ffH
	DB	068H
	DB	06cH
	DB	068H
	DB	0ffH
	DB	068H
	DB	064H
	DB	068H
	DB	0ffH
	DB	060H
	DB	064H
	DB	060H
	DB	0ffH
	DB	068H
	DB	064H
	DB	068H
	DB	0ffH
	DB	068H
	DB	064H
	DB	068H
	DB	0ffH
	DB	068H
	DB	064H
	DB	068H
	DB	0ffH
	DB	068H
	DB	064H
	DB	068H
	DB	0ffH
	DB	068H
	DB	068H
	DB	068H
	DB	0ffH
	DB	068H
	DB	068H
	DB	068H
	DB	0ffH
	DB	068H
	DB	06cH
	DB	068H
	DB	0ffH
	DB	070H
	DB	06cH
	DB	070H
	DB	0ffH
	DB	070H
	DB	070H
	DB	070H
	DB	0ffH
	DB	070H
	DB	070H
	DB	070H
	DB	0ffH
	DB	070H
	DB	070H
	DB	070H
	DB	0ffH
	DB	078H
	DB	074H
	DB	078H
	DB	0ffH
	DB	078H
	DB	078H
	DB	078H
	DB	0ffH
	DB	078H
	DB	078H
	DB	078H
	DB	0ffH
	DB	078H
	DB	07cH
	DB	078H
	DB	0ffH
	DB	078H
	DB	07cH
	DB	078H
	DB	0ffH
	DB	080H
	DB	080H
	DB	080H
	DB	0ffH
	DB	080H
	DB	080H
	DB	080H
	DB	0ffH
	DB	080H
	DB	084H
	DB	080H
	DB	0ffH
	DB	088H
	DB	084H
	DB	088H
	DB	0ffH
	DB	088H
	DB	088H
	DB	088H
	DB	0ffH
	DB	088H
	DB	088H
	DB	088H
	DB	0ffH
	DB	088H
	DB	08cH
	DB	088H
	DB	0ffH
	DB	090H
	DB	08cH
	DB	090H
	DB	0ffH
	DB	090H
	DB	090H
	DB	090H
	DB	0ffH
	DB	098H
	DB	09cH
	DB	098H
	DB	0ffH
	DB	00H
	DB	00H
	DB	00H
	DB	024H
	DB	00H
	DB	00H
	DB	00H
	DB	0cH
	DB	00H
	DB	00H
	DB	00H
	DB	0cH
	DB	00H
	DB	00H
	DB	00H
	DB	024H
	DB	078H
	DB	078H
	DB	078H
	DB	0ffH
	DB	068H
	DB	068H
	DB	068H
	DB	0ffH
	DB	068H
	DB	064H
	DB	068H
	DB	0ffH
	DB	060H
	DB	064H
	DB	060H
	DB	0ffH
	DB	060H
	DB	064H
	DB	060H
	DB	0ffH
	DB	060H
	DB	064H
	DB	060H
	DB	0ffH
	DB	068H
	DB	064H
	DB	068H
	DB	0ffH
	DB	068H
	DB	068H
	DB	068H
	DB	0ffH
	DB	068H
	DB	068H
	DB	068H
	DB	0ffH
	DB	068H
	DB	068H
	DB	068H
	DB	0ffH
	DB	068H
	DB	06cH
	DB	068H
	DB	0ffH
	DB	070H
	DB	06cH
	DB	070H
	DB	0ffH
	DB	070H
	DB	06cH
	DB	070H
	DB	0ffH
	DB	070H
	DB	070H
	DB	070H
	DB	0ffH
	DB	070H
	DB	074H
	DB	070H
	DB	0ffH
	DB	070H
	DB	074H
	DB	070H
	DB	0ffH
	DB	078H
	DB	074H
	DB	078H
	DB	0ffH
	DB	078H
	DB	078H
	DB	078H
	DB	0ffH
	DB	078H
	DB	07cH
	DB	078H
	DB	0ffH
	DB	080H
	DB	07cH
	DB	080H
	DB	0ffH
	DB	080H
	DB	080H
	DB	080H
	DB	0ffH
	DB	080H
	DB	080H
	DB	080H
	DB	0ffH
	DB	080H
	DB	084H
	DB	080H
	DB	0ffH
	DB	088H
	DB	084H
	DB	088H
	DB	0ffH
	DB	088H
	DB	088H
	DB	088H
	DB	0ffH
	DB	088H
	DB	088H
	DB	088H
	DB	0ffH
	DB	088H
	DB	08cH
	DB	088H
	DB	0ffH
	DB	090H
	DB	08cH
	DB	090H
	DB	0ffH
	DB	090H
	DB	090H
	DB	090H
	DB	0ffH
	DB	0a0H
	DB	09cH
	DB	0a0H
	DB	0ffH
	DB	00H
	DB	00H
	DB	00H
	DB	024H
	DB	00H
	DB	00H
	DB	00H
	DB	0cH
	DB	00H
	DB	00H
	DB	00H
	DB	0cH
	DB	00H
	DB	00H
	DB	00H
	DB	024H
	DB	078H
	DB	078H
	DB	078H
	DB	0ffH
	DB	068H
	DB	06cH
	DB	068H
	DB	0ffH
	DB	068H
	DB	064H
	DB	068H
	DB	0ffH
	DB	060H
	DB	064H
	DB	060H
	DB	0ffH
	DB	060H
	DB	064H
	DB	060H
	DB	0ffH
	DB	068H
	DB	064H
	DB	068H
	DB	0ffH
	DB	060H
	DB	064H
	DB	060H
	DB	0ffH
	DB	068H
	DB	064H
	DB	068H
	DB	0ffH
	DB	068H
	DB	068H
	DB	068H
	DB	0ffH
	DB	068H
	DB	068H
	DB	068H
	DB	0ffH
	DB	068H
	DB	06cH
	DB	068H
	DB	0ffH
	DB	068H
	DB	06cH
	DB	068H
	DB	0ffH
	DB	070H
	DB	06cH
	DB	070H
	DB	0ffH
	DB	070H
	DB	070H
	DB	070H
	DB	0ffH
	DB	070H
	DB	074H
	DB	070H
	DB	0ffH
	DB	078H
	DB	074H
	DB	078H
	DB	0ffH
	DB	078H
	DB	074H
	DB	078H
	DB	0ffH
	DB	078H
	DB	078H
	DB	078H
	DB	0ffH
	DB	078H
	DB	07cH
	DB	078H
	DB	0ffH
	DB	080H
	DB	07cH
	DB	080H
	DB	0ffH
	DB	080H
	DB	080H
	DB	080H
	DB	0ffH
	DB	080H
	DB	080H
	DB	080H
	DB	0ffH
	DB	080H
	DB	084H
	DB	080H
	DB	0ffH
	DB	088H
	DB	084H
	DB	088H
	DB	0ffH
	DB	088H
	DB	088H
	DB	088H
	DB	0ffH
	DB	088H
	DB	088H
	DB	088H
	DB	0ffH
	DB	088H
	DB	08cH
	DB	088H
	DB	0ffH
	DB	090H
	DB	08cH
	DB	090H
	DB	0ffH
	DB	090H
	DB	090H
	DB	090H
	DB	0ffH
	DB	098H
	DB	09cH
	DB	098H
	DB	0ffH
	DB	00H
	DB	00H
	DB	00H
	DB	024H
	DB	00H
	DB	00H
	DB	00H
	DB	0cH
	DB	00H
	DB	00H
	DB	00H
	DB	0cH
	DB	00H
	DB	00H
	DB	00H
	DB	024H
	DB	078H
	DB	078H
	DB	078H
	DB	0ffH
	DB	068H
	DB	06cH
	DB	068H
	DB	0ffH
	DB	068H
	DB	064H
	DB	068H
	DB	0ffH
	DB	068H
	DB	064H
	DB	068H
	DB	0ffH
	DB	060H
	DB	064H
	DB	060H
	DB	0ffH
	DB	068H
	DB	064H
	DB	068H
	DB	0ffH
	DB	068H
	DB	064H
	DB	068H
	DB	0ffH
	DB	060H
	DB	068H
	DB	060H
	DB	0ffH
	DB	068H
	DB	068H
	DB	068H
	DB	0ffH
	DB	068H
	DB	068H
	DB	068H
	DB	0ffH
	DB	068H
	DB	06cH
	DB	068H
	DB	0ffH
	DB	070H
	DB	06cH
	DB	070H
	DB	0ffH
	DB	070H
	DB	06cH
	DB	070H
	DB	0ffH
	DB	070H
	DB	070H
	DB	070H
	DB	0ffH
	DB	070H
	DB	074H
	DB	070H
	DB	0ffH
	DB	070H
	DB	074H
	DB	070H
	DB	0ffH
	DB	078H
	DB	074H
	DB	078H
	DB	0ffH
	DB	078H
	DB	078H
	DB	078H
	DB	0ffH
	DB	078H
	DB	07cH
	DB	078H
	DB	0ffH
	DB	080H
	DB	07cH
	DB	080H
	DB	0ffH
	DB	080H
	DB	080H
	DB	080H
	DB	0ffH
	DB	080H
	DB	080H
	DB	080H
	DB	0ffH
	DB	080H
	DB	084H
	DB	080H
	DB	0ffH
	DB	088H
	DB	084H
	DB	088H
	DB	0ffH
	DB	088H
	DB	088H
	DB	088H
	DB	0ffH
	DB	088H
	DB	088H
	DB	088H
	DB	0ffH
	DB	088H
	DB	08cH
	DB	088H
	DB	0ffH
	DB	090H
	DB	08cH
	DB	090H
	DB	0ffH
	DB	090H
	DB	090H
	DB	090H
	DB	0ffH
	DB	098H
	DB	09cH
	DB	098H
	DB	0ffH
	DB	00H
	DB	00H
	DB	00H
	DB	024H
	DB	00H
	DB	00H
	DB	00H
	DB	0cH
	DB	00H
	DB	00H
	DB	00H
	DB	0cH
	DB	00H
	DB	00H
	DB	00H
	DB	024H
	DB	078H
	DB	078H
	DB	078H
	DB	0ffH
	DB	068H
	DB	068H
	DB	068H
	DB	0ffH
	DB	068H
	DB	064H
	DB	068H
	DB	0ffH
	DB	060H
	DB	064H
	DB	060H
	DB	0ffH
	DB	060H
	DB	064H
	DB	060H
	DB	0ffH
	DB	068H
	DB	064H
	DB	068H
	DB	0ffH
	DB	068H
	DB	064H
	DB	068H
	DB	0ffH
	DB	068H
	DB	064H
	DB	068H
	DB	0ffH
	DB	068H
	DB	068H
	DB	068H
	DB	0ffH
	DB	068H
	DB	068H
	DB	068H
	DB	0ffH
	DB	068H
	DB	06cH
	DB	068H
	DB	0ffH
	DB	070H
	DB	06cH
	DB	070H
	DB	0ffH
	DB	070H
	DB	070H
	DB	070H
	DB	0ffH
	DB	070H
	DB	070H
	DB	070H
	DB	0ffH
	DB	070H
	DB	070H
	DB	070H
	DB	0ffH
	DB	078H
	DB	074H
	DB	078H
	DB	0ffH
	DB	078H
	DB	078H
	DB	078H
	DB	0ffH
	DB	078H
	DB	078H
	DB	078H
	DB	0ffH
	DB	078H
	DB	07cH
	DB	078H
	DB	0ffH
	DB	080H
	DB	07cH
	DB	080H
	DB	0ffH
	DB	080H
	DB	080H
	DB	080H
	DB	0ffH
	DB	080H
	DB	080H
	DB	080H
	DB	0ffH
	DB	080H
	DB	084H
	DB	080H
	DB	0ffH
	DB	088H
	DB	084H
	DB	088H
	DB	0ffH
	DB	088H
	DB	088H
	DB	088H
	DB	0ffH
	DB	088H
	DB	088H
	DB	088H
	DB	0ffH
	DB	088H
	DB	08cH
	DB	088H
	DB	0ffH
	DB	090H
	DB	08cH
	DB	090H
	DB	0ffH
	DB	090H
	DB	090H
	DB	090H
	DB	0ffH
	DB	0a0H
	DB	09cH
	DB	0a0H
	DB	0ffH
	DB	00H
	DB	00H
	DB	00H
	DB	024H
	DB	00H
	DB	00H
	DB	00H
	DB	0cH
	DB	00H
	DB	00H
	DB	00H
	DB	0cH
	DB	00H
	DB	00H
	DB	00H
	DB	024H
	DB	078H
	DB	078H
	DB	078H
	DB	0ffH
	DB	068H
	DB	06cH
	DB	068H
	DB	0ffH
	DB	068H
	DB	064H
	DB	068H
	DB	0ffH
	DB	060H
	DB	064H
	DB	060H
	DB	0ffH
	DB	060H
	DB	064H
	DB	060H
	DB	0ffH
	DB	060H
	DB	064H
	DB	060H
	DB	0ffH
	DB	068H
	DB	064H
	DB	068H
	DB	0ffH
	DB	068H
	DB	064H
	DB	068H
	DB	0ffH
	DB	068H
	DB	068H
	DB	068H
	DB	0ffH
	DB	068H
	DB	068H
	DB	068H
	DB	0ffH
	DB	068H
	DB	06cH
	DB	068H
	DB	0ffH
	DB	068H
	DB	06cH
	DB	068H
	DB	0ffH
	DB	070H
	DB	06cH
	DB	070H
	DB	0ffH
	DB	070H
	DB	070H
	DB	070H
	DB	0ffH
	DB	070H
	DB	074H
	DB	070H
	DB	0ffH
	DB	070H
	DB	074H
	DB	070H
	DB	0ffH
	DB	078H
	DB	074H
	DB	078H
	DB	0ffH
	DB	078H
	DB	078H
	DB	078H
	DB	0ffH
	DB	078H
	DB	07cH
	DB	078H
	DB	0ffH
	DB	080H
	DB	07cH
	DB	080H
	DB	0ffH
	DB	080H
	DB	080H
	DB	080H
	DB	0ffH
	DB	080H
	DB	080H
	DB	080H
	DB	0ffH
	DB	080H
	DB	084H
	DB	080H
	DB	0ffH
	DB	088H
	DB	084H
	DB	088H
	DB	0ffH
	DB	088H
	DB	088H
	DB	088H
	DB	0ffH
	DB	088H
	DB	088H
	DB	088H
	DB	0ffH
	DB	088H
	DB	08cH
	DB	088H
	DB	0ffH
	DB	090H
	DB	08cH
	DB	090H
	DB	0ffH
	DB	090H
	DB	090H
	DB	090H
	DB	0ffH
	DB	098H
	DB	09cH
	DB	098H
	DB	0ffH
	DB	00H
	DB	00H
	DB	00H
	DB	024H
	DB	00H
	DB	00H
	DB	00H
	DB	0cH
	DB	00H
	DB	00H
	DB	00H
	DB	0cH
	DB	00H
	DB	00H
	DB	00H
	DB	024H
	DB	078H
	DB	078H
	DB	078H
	DB	0ffH
	DB	068H
	DB	06cH
	DB	068H
	DB	0ffH
	DB	068H
	DB	064H
	DB	068H
	DB	0ffH
	DB	068H
	DB	064H
	DB	068H
	DB	0ffH
	DB	060H
	DB	064H
	DB	060H
	DB	0ffH
	DB	068H
	DB	064H
	DB	068H
	DB	0ffH
	DB	060H
	DB	064H
	DB	060H
	DB	0ffH
	DB	068H
	DB	068H
	DB	068H
	DB	0ffH
	DB	068H
	DB	068H
	DB	068H
	DB	0ffH
	DB	068H
	DB	068H
	DB	068H
	DB	0ffH
	DB	068H
	DB	06cH
	DB	068H
	DB	0ffH
	DB	070H
	DB	06cH
	DB	070H
	DB	0ffH
	DB	070H
	DB	06cH
	DB	070H
	DB	0ffH
	DB	070H
	DB	070H
	DB	070H
	DB	0ffH
	DB	070H
	DB	074H
	DB	070H
	DB	0ffH
	DB	078H
	DB	074H
	DB	078H
	DB	0ffH
	DB	078H
	DB	074H
	DB	078H
	DB	0ffH
	DB	078H
	DB	078H
	DB	078H
	DB	0ffH
	DB	078H
	DB	07cH
	DB	078H
	DB	0ffH
	DB	080H
	DB	07cH
	DB	080H
	DB	0ffH
	DB	080H
	DB	080H
	DB	080H
	DB	0ffH
	DB	080H
	DB	080H
	DB	080H
	DB	0ffH
	DB	080H
	DB	084H
	DB	080H
	DB	0ffH
	DB	088H
	DB	084H
	DB	088H
	DB	0ffH
	DB	088H
	DB	088H
	DB	088H
	DB	0ffH
	DB	088H
	DB	088H
	DB	088H
	DB	0ffH
	DB	088H
	DB	08cH
	DB	088H
	DB	0ffH
	DB	090H
	DB	08cH
	DB	090H
	DB	0ffH
	DB	090H
	DB	090H
	DB	090H
	DB	0ffH
	DB	098H
	DB	09cH
	DB	098H
	DB	0ffH
	DB	00H
	DB	00H
	DB	00H
	DB	024H
	DB	00H
	DB	00H
	DB	00H
	DB	0cH
	DB	00H
	DB	00H
	DB	00H
	DB	0cH
	DB	00H
	DB	00H
	DB	00H
	DB	024H
	DB	078H
	DB	078H
	DB	078H
	DB	0ffH
	DB	068H
	DB	06cH
	DB	068H
	DB	0ffH
	DB	068H
	DB	064H
	DB	068H
	DB	0ffH
	DB	060H
	DB	064H
	DB	060H
	DB	0ffH
	DB	060H
	DB	064H
	DB	060H
	DB	0ffH
	DB	068H
	DB	064H
	DB	068H
	DB	0ffH
	DB	068H
	DB	064H
	DB	068H
	DB	0ffH
	DB	060H
	DB	064H
	DB	060H
	DB	0ffH
	DB	068H
	DB	068H
	DB	068H
	DB	0ffH
	DB	068H
	DB	068H
	DB	068H
	DB	0ffH
	DB	068H
	DB	06cH
	DB	068H
	DB	0ffH
	DB	070H
	DB	06cH
	DB	070H
	DB	0ffH
	DB	070H
	DB	06cH
	DB	070H
	DB	0ffH
	DB	070H
	DB	070H
	DB	070H
	DB	0ffH
	DB	070H
	DB	074H
	DB	070H
	DB	0ffH
	DB	070H
	DB	074H
	DB	070H
	DB	0ffH
	DB	078H
	DB	074H
	DB	078H
	DB	0ffH
	DB	078H
	DB	078H
	DB	078H
	DB	0ffH
	DB	078H
	DB	07cH
	DB	078H
	DB	0ffH
	DB	080H
	DB	07cH
	DB	080H
	DB	0ffH
	DB	080H
	DB	080H
	DB	080H
	DB	0ffH
	DB	080H
	DB	080H
	DB	080H
	DB	0ffH
	DB	080H
	DB	084H
	DB	080H
	DB	0ffH
	DB	088H
	DB	084H
	DB	088H
	DB	0ffH
	DB	088H
	DB	088H
	DB	088H
	DB	0ffH
	DB	088H
	DB	088H
	DB	088H
	DB	0ffH
	DB	088H
	DB	08cH
	DB	088H
	DB	0ffH
	DB	090H
	DB	08cH
	DB	090H
	DB	0ffH
	DB	090H
	DB	090H
	DB	090H
	DB	0ffH
	DB	0a0H
	DB	09cH
	DB	0a0H
	DB	0ffH
	DB	00H
	DB	00H
	DB	00H
	DB	024H
	DB	00H
	DB	00H
	DB	00H
	DB	0cH
	DB	00H
	DB	00H
	DB	00H
	DB	0cH
	DB	00H
	DB	00H
	DB	00H
	DB	024H
	DB	078H
	DB	078H
	DB	078H
	DB	0ffH
	DB	068H
	DB	068H
	DB	068H
	DB	0ffH
	DB	068H
	DB	064H
	DB	068H
	DB	0ffH
	DB	060H
	DB	064H
	DB	060H
	DB	0ffH
	DB	060H
	DB	060H
	DB	060H
	DB	0ffH
	DB	068H
	DB	064H
	DB	068H
	DB	0ffH
	DB	068H
	DB	064H
	DB	068H
	DB	0ffH
	DB	068H
	DB	068H
	DB	068H
	DB	0ffH
	DB	068H
	DB	068H
	DB	068H
	DB	0ffH
	DB	068H
	DB	068H
	DB	068H
	DB	0ffH
	DB	068H
	DB	06cH
	DB	068H
	DB	0ffH
	DB	068H
	DB	06cH
	DB	068H
	DB	0ffH
	DB	070H
	DB	070H
	DB	070H
	DB	0ffH
	DB	070H
	DB	070H
	DB	070H
	DB	0ffH
	DB	070H
	DB	070H
	DB	070H
	DB	0ffH
	DB	078H
	DB	074H
	DB	078H
	DB	0ffH
	DB	078H
	DB	078H
	DB	078H
	DB	0ffH
	DB	078H
	DB	078H
	DB	078H
	DB	0ffH
	DB	078H
	DB	07cH
	DB	078H
	DB	0ffH
	DB	080H
	DB	07cH
	DB	080H
	DB	0ffH
	DB	080H
	DB	080H
	DB	080H
	DB	0ffH
	DB	080H
	DB	080H
	DB	080H
	DB	0ffH
	DB	080H
	DB	084H
	DB	080H
	DB	0ffH
	DB	088H
	DB	084H
	DB	088H
	DB	0ffH
	DB	088H
	DB	088H
	DB	088H
	DB	0ffH
	DB	088H
	DB	088H
	DB	088H
	DB	0ffH
	DB	088H
	DB	08cH
	DB	088H
	DB	0ffH
	DB	090H
	DB	08cH
	DB	090H
	DB	0ffH
	DB	090H
	DB	090H
	DB	090H
	DB	0ffH
	DB	098H
	DB	09cH
	DB	098H
	DB	0ffH
	DB	00H
	DB	00H
	DB	00H
	DB	024H
	DB	00H
	DB	00H
	DB	00H
	DB	0cH
	DB	00H
	DB	00H
	DB	00H
	DB	0cH
	DB	00H
	DB	00H
	DB	00H
	DB	024H
	DB	078H
	DB	078H
	DB	078H
	DB	0ffH
	DB	068H
	DB	06cH
	DB	068H
	DB	0ffH
	DB	068H
	DB	064H
	DB	068H
	DB	0ffH
	DB	068H
	DB	064H
	DB	068H
	DB	0ffH
	DB	060H
	DB	064H
	DB	060H
	DB	0ffH
	DB	060H
	DB	064H
	DB	060H
	DB	0ffH
	DB	068H
	DB	064H
	DB	068H
	DB	0ffH
	DB	068H
	DB	064H
	DB	068H
	DB	0ffH
	DB	068H
	DB	068H
	DB	068H
	DB	0ffH
	DB	068H
	DB	068H
	DB	068H
	DB	0ffH
	DB	068H
	DB	06cH
	DB	068H
	DB	0ffH
	DB	070H
	DB	06cH
	DB	070H
	DB	0ffH
	DB	070H
	DB	06cH
	DB	070H
	DB	0ffH
	DB	070H
	DB	070H
	DB	070H
	DB	0ffH
	DB	070H
	DB	074H
	DB	070H
	DB	0ffH
	DB	070H
	DB	074H
	DB	070H
	DB	0ffH
	DB	078H
	DB	074H
	DB	078H
	DB	0ffH
	DB	078H
	DB	078H
	DB	078H
	DB	0ffH
	DB	078H
	DB	07cH
	DB	078H
	DB	0ffH
	DB	080H
	DB	07cH
	DB	080H
	DB	0ffH
	DB	080H
	DB	080H
	DB	080H
	DB	0ffH
	DB	080H
	DB	080H
	DB	080H
	DB	0ffH
	DB	080H
	DB	084H
	DB	080H
	DB	0ffH
	DB	088H
	DB	084H
	DB	088H
	DB	0ffH
	DB	088H
	DB	088H
	DB	088H
	DB	0ffH
	DB	088H
	DB	088H
	DB	088H
	DB	0ffH
	DB	088H
	DB	08cH
	DB	088H
	DB	0ffH
	DB	090H
	DB	08cH
	DB	090H
	DB	0ffH
	DB	090H
	DB	090H
	DB	090H
	DB	0ffH
	DB	098H
	DB	09cH
	DB	098H
	DB	0ffH
	DB	00H
	DB	00H
	DB	00H
	DB	024H
	DB	00H
	DB	00H
	DB	00H
	DB	0cH
	DB	00H
	DB	00H
	DB	00H
	DB	0cH
	DB	00H
	DB	00H
	DB	00H
	DB	024H
	DB	078H
	DB	078H
	DB	078H
	DB	0ffH
	DB	068H
	DB	06cH
	DB	068H
	DB	0ffH
	DB	068H
	DB	064H
	DB	068H
	DB	0ffH
	DB	060H
	DB	064H
	DB	060H
	DB	0ffH
	DB	060H
	DB	064H
	DB	060H
	DB	0ffH
	DB	068H
	DB	064H
	DB	068H
	DB	0ffH
	DB	060H
	DB	064H
	DB	060H
	DB	0ffH
	DB	068H
	DB	068H
	DB	068H
	DB	0ffH
	DB	068H
	DB	068H
	DB	068H
	DB	0ffH
	DB	068H
	DB	068H
	DB	068H
	DB	0ffH
	DB	068H
	DB	06cH
	DB	068H
	DB	0ffH
	DB	070H
	DB	06cH
	DB	070H
	DB	0ffH
	DB	070H
	DB	06cH
	DB	070H
	DB	0ffH
	DB	070H
	DB	070H
	DB	070H
	DB	0ffH
	DB	070H
	DB	074H
	DB	070H
	DB	0ffH
	DB	078H
	DB	074H
	DB	078H
	DB	0ffH
	DB	078H
	DB	074H
	DB	078H
	DB	0ffH
	DB	078H
	DB	078H
	DB	078H
	DB	0ffH
	DB	078H
	DB	07cH
	DB	078H
	DB	0ffH
	DB	080H
	DB	07cH
	DB	080H
	DB	0ffH
	DB	080H
	DB	080H
	DB	080H
	DB	0ffH
	DB	080H
	DB	080H
	DB	080H
	DB	0ffH
	DB	080H
	DB	084H
	DB	080H
	DB	0ffH
	DB	088H
	DB	084H
	DB	088H
	DB	0ffH
	DB	088H
	DB	088H
	DB	088H
	DB	0ffH
	DB	088H
	DB	088H
	DB	088H
	DB	0ffH
	DB	088H
	DB	08cH
	DB	088H
	DB	0ffH
	DB	090H
	DB	08cH
	DB	090H
	DB	0ffH
	DB	090H
	DB	090H
	DB	090H
	DB	0ffH
	DB	0a0H
	DB	09cH
	DB	0a0H
	DB	0ffH
	DB	00H
	DB	00H
	DB	00H
	DB	024H
	DB	00H
	DB	00H
	DB	00H
	DB	0cH
	DB	00H
	DB	00H
	DB	00H
	DB	0cH
	DB	00H
	DB	00H
	DB	00H
	DB	024H
	DB	078H
	DB	078H
	DB	078H
	DB	0ffH
	DB	068H
	DB	06cH
	DB	068H
	DB	0ffH
	DB	068H
	DB	064H
	DB	068H
	DB	0ffH
	DB	060H
	DB	064H
	DB	060H
	DB	0ffH
	DB	068H
	DB	064H
	DB	068H
	DB	0ffH
	DB	068H
	DB	064H
	DB	068H
	DB	0ffH
	DB	060H
	DB	064H
	DB	060H
	DB	0ffH
	DB	068H
	DB	064H
	DB	068H
	DB	0ffH
	DB	068H
	DB	068H
	DB	068H
	DB	0ffH
	DB	068H
	DB	068H
	DB	068H
	DB	0ffH
	DB	068H
	DB	06cH
	DB	068H
	DB	0ffH
	DB	068H
	DB	06cH
	DB	068H
	DB	0ffH
	DB	070H
	DB	06cH
	DB	070H
	DB	0ffH
	DB	070H
	DB	070H
	DB	070H
	DB	0ffH
	DB	070H
	DB	074H
	DB	070H
	DB	0ffH
	DB	070H
	DB	074H
	DB	070H
	DB	0ffH
	DB	078H
	DB	074H
	DB	078H
	DB	0ffH
	DB	078H
	DB	078H
	DB	078H
	DB	0ffH
	DB	078H
	DB	07cH
	DB	078H
	DB	0ffH
	DB	080H
	DB	07cH
	DB	080H
	DB	0ffH
	DB	080H
	DB	080H
	DB	080H
	DB	0ffH
	DB	080H
	DB	080H
	DB	080H
	DB	0ffH
	DB	080H
	DB	084H
	DB	080H
	DB	0ffH
	DB	088H
	DB	084H
	DB	088H
	DB	0ffH
	DB	088H
	DB	088H
	DB	088H
	DB	0ffH
	DB	088H
	DB	088H
	DB	088H
	DB	0ffH
	DB	088H
	DB	08cH
	DB	088H
	DB	0ffH
	DB	090H
	DB	08cH
	DB	090H
	DB	0ffH
	DB	090H
	DB	090H
	DB	090H
	DB	0ffH
	DB	098H
	DB	09cH
	DB	098H
	DB	0ffH
	DB	00H
	DB	00H
	DB	00H
	DB	024H
	DB	00H
	DB	00H
	DB	00H
	DB	0cH
	DB	00H
	DB	00H
	DB	00H
	DB	0cH
	DB	00H
	DB	00H
	DB	00H
	DB	024H
	DB	078H
	DB	078H
	DB	078H
	DB	0ffH
	DB	068H
	DB	068H
	DB	068H
	DB	0ffH
	DB	068H
	DB	064H
	DB	068H
	DB	0ffH
	DB	060H
	DB	064H
	DB	060H
	DB	0ffH
	DB	060H
	DB	064H
	DB	060H
	DB	0ffH
	DB	068H
	DB	064H
	DB	068H
	DB	0ffH
	DB	068H
	DB	064H
	DB	068H
	DB	0ffH
	DB	068H
	DB	068H
	DB	068H
	DB	0ffH
	DB	068H
	DB	068H
	DB	068H
	DB	0ffH
	DB	068H
	DB	068H
	DB	068H
	DB	0ffH
	DB	068H
	DB	06cH
	DB	068H
	DB	0ffH
	DB	070H
	DB	06cH
	DB	070H
	DB	0ffH
	DB	070H
	DB	070H
	DB	070H
	DB	0ffH
	DB	070H
	DB	070H
	DB	070H
	DB	0ffH
	DB	070H
	DB	070H
	DB	070H
	DB	0ffH
	DB	078H
	DB	074H
	DB	078H
	DB	0ffH
	DB	078H
	DB	078H
	DB	078H
	DB	0ffH
	DB	078H
	DB	078H
	DB	078H
	DB	0ffH
	DB	078H
	DB	07cH
	DB	078H
	DB	0ffH
	DB	080H
	DB	07cH
	DB	080H
	DB	0ffH
	DB	080H
	DB	080H
	DB	080H
	DB	0ffH
	DB	080H
	DB	080H
	DB	080H
	DB	0ffH
	DB	080H
	DB	084H
	DB	080H
	DB	0ffH
	DB	088H
	DB	084H
	DB	088H
	DB	0ffH
	DB	088H
	DB	088H
	DB	088H
	DB	0ffH
	DB	088H
	DB	088H
	DB	088H
	DB	0ffH
	DB	088H
	DB	08cH
	DB	088H
	DB	0ffH
	DB	090H
	DB	08cH
	DB	090H
	DB	0ffH
	DB	090H
	DB	090H
	DB	090H
	DB	0ffH
	DB	098H
	DB	09cH
	DB	098H
	DB	0ffH
	DB	00H
	DB	00H
	DB	00H
	DB	024H
	DB	00H
	DB	00H
	DB	00H
	DB	0cH
	DB	00H
	DB	00H
	DB	00H
	DB	0cH
	DB	00H
	DB	00H
	DB	00H
	DB	024H
	DB	078H
	DB	078H
	DB	078H
	DB	0ffH
	DB	068H
	DB	06cH
	DB	068H
	DB	0ffH
	DB	068H
	DB	064H
	DB	068H
	DB	0ffH
	DB	068H
	DB	064H
	DB	068H
	DB	0ffH
	DB	060H
	DB	064H
	DB	060H
	DB	0ffH
	DB	060H
	DB	064H
	DB	060H
	DB	0ffH
	DB	068H
	DB	064H
	DB	068H
	DB	0ffH
	DB	068H
	DB	064H
	DB	068H
	DB	0ffH
	DB	068H
	DB	068H
	DB	068H
	DB	0ffH
	DB	068H
	DB	068H
	DB	068H
	DB	0ffH
	DB	068H
	DB	06cH
	DB	068H
	DB	0ffH
	DB	070H
	DB	06cH
	DB	070H
	DB	0ffH
	DB	070H
	DB	06cH
	DB	070H
	DB	0ffH
	DB	070H
	DB	070H
	DB	070H
	DB	0ffH
	DB	070H
	DB	074H
	DB	070H
	DB	0ffH
	DB	070H
	DB	074H
	DB	070H
	DB	0ffH
	DB	078H
	DB	074H
	DB	078H
	DB	0ffH
	DB	078H
	DB	078H
	DB	078H
	DB	0ffH
	DB	078H
	DB	07cH
	DB	078H
	DB	0ffH
	DB	080H
	DB	07cH
	DB	080H
	DB	0ffH
	DB	080H
	DB	080H
	DB	080H
	DB	0ffH
	DB	080H
	DB	080H
	DB	080H
	DB	0ffH
	DB	080H
	DB	084H
	DB	080H
	DB	0ffH
	DB	088H
	DB	084H
	DB	088H
	DB	0ffH
	DB	088H
	DB	088H
	DB	088H
	DB	0ffH
	DB	088H
	DB	088H
	DB	088H
	DB	0ffH
	DB	088H
	DB	08cH
	DB	088H
	DB	0ffH
	DB	090H
	DB	08cH
	DB	090H
	DB	0ffH
	DB	090H
	DB	090H
	DB	090H
	DB	0ffH
	DB	0a0H
	DB	09cH
	DB	0a0H
	DB	0ffH
	DB	00H
	DB	00H
	DB	00H
	DB	024H
	DB	00H
	DB	00H
	DB	00H
	DB	0cH
	DB	00H
	DB	00H
	DB	00H
	DB	0cH
	DB	00H
	DB	00H
	DB	00H
	DB	024H
	DB	078H
	DB	078H
	DB	078H
	DB	0ffH
	DB	068H
	DB	06cH
	DB	068H
	DB	0ffH
	DB	068H
	DB	064H
	DB	068H
	DB	0ffH
	DB	060H
	DB	064H
	DB	060H
	DB	0ffH
	DB	060H
	DB	064H
	DB	060H
	DB	0ffH
	DB	068H
	DB	064H
	DB	068H
	DB	0ffH
	DB	060H
	DB	064H
	DB	060H
	DB	0ffH
	DB	068H
	DB	064H
	DB	068H
	DB	0ffH
	DB	068H
	DB	068H
	DB	068H
	DB	0ffH
	DB	068H
	DB	068H
	DB	068H
	DB	0ffH
	DB	068H
	DB	06cH
	DB	068H
	DB	0ffH
	DB	068H
	DB	06cH
	DB	068H
	DB	0ffH
	DB	070H
	DB	06cH
	DB	070H
	DB	0ffH
	DB	070H
	DB	070H
	DB	070H
	DB	0ffH
	DB	070H
	DB	074H
	DB	070H
	DB	0ffH
	DB	070H
	DB	074H
	DB	070H
	DB	0ffH
	DB	078H
	DB	074H
	DB	078H
	DB	0ffH
	DB	078H
	DB	078H
	DB	078H
	DB	0ffH
	DB	078H
	DB	07cH
	DB	078H
	DB	0ffH
	DB	080H
	DB	07cH
	DB	080H
	DB	0ffH
	DB	080H
	DB	080H
	DB	080H
	DB	0ffH
	DB	080H
	DB	080H
	DB	080H
	DB	0ffH
	DB	080H
	DB	084H
	DB	080H
	DB	0ffH
	DB	088H
	DB	084H
	DB	088H
	DB	0ffH
	DB	088H
	DB	088H
	DB	088H
	DB	0ffH
	DB	088H
	DB	088H
	DB	088H
	DB	0ffH
	DB	088H
	DB	08cH
	DB	088H
	DB	0ffH
	DB	090H
	DB	08cH
	DB	090H
	DB	0ffH
	DB	090H
	DB	090H
	DB	090H
	DB	0ffH
	DB	098H
	DB	09cH
	DB	098H
	DB	0ffH
	DB	00H
	DB	00H
	DB	00H
	DB	024H
	DB	00H
	DB	00H
	DB	00H
	DB	0cH
	DB	00H
	DB	00H
	DB	00H
	DB	0cH
	DB	00H
	DB	00H
	DB	00H
	DB	024H
	DB	078H
	DB	078H
	DB	078H
	DB	0ffH
	DB	068H
	DB	068H
	DB	068H
	DB	0ffH
	DB	068H
	DB	064H
	DB	068H
	DB	0ffH
	DB	060H
	DB	064H
	DB	060H
	DB	0ffH
	DB	068H
	DB	064H
	DB	068H
	DB	0ffH
	DB	068H
	DB	064H
	DB	068H
	DB	0ffH
	DB	060H
	DB	064H
	DB	060H
	DB	0ffH
	DB	068H
	DB	068H
	DB	068H
	DB	0ffH
	DB	068H
	DB	068H
	DB	068H
	DB	0ffH
	DB	068H
	DB	068H
	DB	068H
	DB	0ffH
	DB	068H
	DB	06cH
	DB	068H
	DB	0ffH
	DB	070H
	DB	06cH
	DB	070H
	DB	0ffH
	DB	070H
	DB	06cH
	DB	070H
	DB	0ffH
	DB	070H
	DB	070H
	DB	070H
	DB	0ffH
	DB	070H
	DB	070H
	DB	070H
	DB	0ffH
	DB	078H
	DB	074H
	DB	078H
	DB	0ffH
	DB	078H
	DB	078H
	DB	078H
	DB	0ffH
	DB	078H
	DB	078H
	DB	078H
	DB	0ffH
	DB	078H
	DB	07cH
	DB	078H
	DB	0ffH
	DB	080H
	DB	07cH
	DB	080H
	DB	0ffH
	DB	080H
	DB	080H
	DB	080H
	DB	0ffH
	DB	080H
	DB	080H
	DB	080H
	DB	0ffH
	DB	080H
	DB	084H
	DB	080H
	DB	0ffH
	DB	088H
	DB	084H
	DB	088H
	DB	0ffH
	DB	088H
	DB	088H
	DB	088H
	DB	0ffH
	DB	088H
	DB	088H
	DB	088H
	DB	0ffH
	DB	088H
	DB	08cH
	DB	088H
	DB	0ffH
	DB	090H
	DB	08cH
	DB	090H
	DB	0ffH
	DB	090H
	DB	090H
	DB	090H
	DB	0ffH
	DB	098H
	DB	09cH
	DB	098H
	DB	0ffH
	DB	00H
	DB	00H
	DB	00H
	DB	024H
	DB	00H
	DB	00H
	DB	00H
	DB	0cH
	DB	00H
	DB	00H
	DB	00H
	DB	0cH
	DB	00H
	DB	00H
	DB	00H
	DB	024H
	DB	078H
	DB	078H
	DB	078H
	DB	0ffH
	DB	068H
	DB	06cH
	DB	068H
	DB	0ffH
	DB	068H
	DB	064H
	DB	068H
	DB	0ffH
	DB	060H
	DB	064H
	DB	060H
	DB	0ffH
	DB	060H
	DB	064H
	DB	060H
	DB	0ffH
	DB	068H
	DB	064H
	DB	068H
	DB	0ffH
	DB	068H
	DB	064H
	DB	068H
	DB	0ffH
	DB	068H
	DB	064H
	DB	068H
	DB	0ffH
	DB	068H
	DB	068H
	DB	068H
	DB	0ffH
	DB	068H
	DB	068H
	DB	068H
	DB	0ffH
	DB	068H
	DB	06cH
	DB	068H
	DB	0ffH
	DB	070H
	DB	06cH
	DB	070H
	DB	0ffH
	DB	070H
	DB	070H
	DB	070H
	DB	0ffH
	DB	070H
	DB	070H
	DB	070H
	DB	0ffH
	DB	070H
	DB	074H
	DB	070H
	DB	0ffH
	DB	078H
	DB	074H
	DB	078H
	DB	0ffH
	DB	078H
	DB	074H
	DB	078H
	DB	0ffH
	DB	078H
	DB	078H
	DB	078H
	DB	0ffH
	DB	078H
	DB	07cH
	DB	078H
	DB	0ffH
	DB	080H
	DB	07cH
	DB	080H
	DB	0ffH
	DB	080H
	DB	080H
	DB	080H
	DB	0ffH
	DB	080H
	DB	080H
	DB	080H
	DB	0ffH
	DB	080H
	DB	084H
	DB	080H
	DB	0ffH
	DB	088H
	DB	084H
	DB	088H
	DB	0ffH
	DB	088H
	DB	088H
	DB	088H
	DB	0ffH
	DB	088H
	DB	088H
	DB	088H
	DB	0ffH
	DB	088H
	DB	08cH
	DB	088H
	DB	0ffH
	DB	090H
	DB	08cH
	DB	090H
	DB	0ffH
	DB	090H
	DB	090H
	DB	090H
	DB	0ffH
	DB	0a0H
	DB	09cH
	DB	0a0H
	DB	0ffH
	DB	00H
	DB	00H
	DB	00H
	DB	024H
	DB	00H
	DB	00H
	DB	00H
	DB	0cH
	DB	00H
	DB	00H
	DB	00H
	DB	0cH
	DB	00H
	DB	00H
	DB	00H
	DB	024H
	DB	078H
	DB	078H
	DB	078H
	DB	0ffH
	DB	068H
	DB	06cH
	DB	068H
	DB	0ffH
	DB	068H
	DB	064H
	DB	068H
	DB	0ffH
	DB	068H
	DB	064H
	DB	068H
	DB	0ffH
	DB	060H
	DB	064H
	DB	060H
	DB	0ffH
	DB	060H
	DB	064H
	DB	060H
	DB	0ffH
	DB	068H
	DB	064H
	DB	068H
	DB	0ffH
	DB	060H
	DB	064H
	DB	060H
	DB	0ffH
	DB	068H
	DB	068H
	DB	068H
	DB	0ffH
	DB	068H
	DB	068H
	DB	068H
	DB	0ffH
	DB	068H
	DB	06cH
	DB	068H
	DB	0ffH
	DB	068H
	DB	06cH
	DB	068H
	DB	0ffH
	DB	070H
	DB	06cH
	DB	070H
	DB	0ffH
	DB	070H
	DB	070H
	DB	070H
	DB	0ffH
	DB	070H
	DB	074H
	DB	070H
	DB	0ffH
	DB	070H
	DB	074H
	DB	070H
	DB	0ffH
	DB	078H
	DB	074H
	DB	078H
	DB	0ffH
	DB	078H
	DB	078H
	DB	078H
	DB	0ffH
	DB	078H
	DB	07cH
	DB	078H
	DB	0ffH
	DB	080H
	DB	07cH
	DB	080H
	DB	0ffH
	DB	080H
	DB	080H
	DB	080H
	DB	0ffH
	DB	080H
	DB	080H
	DB	080H
	DB	0ffH
	DB	080H
	DB	084H
	DB	080H
	DB	0ffH
	DB	088H
	DB	084H
	DB	088H
	DB	0ffH
	DB	088H
	DB	088H
	DB	088H
	DB	0ffH
	DB	088H
	DB	088H
	DB	088H
	DB	0ffH
	DB	088H
	DB	08cH
	DB	088H
	DB	0ffH
	DB	090H
	DB	08cH
	DB	090H
	DB	0ffH
	DB	090H
	DB	090H
	DB	090H
	DB	0ffH
	DB	098H
	DB	09cH
	DB	098H
	DB	0ffH
	DB	00H
	DB	00H
	DB	00H
	DB	024H
	DB	00H
	DB	00H
	DB	00H
	DB	0cH
	DB	00H
	DB	00H
	DB	00H
	DB	0cH
	DB	00H
	DB	00H
	DB	00H
	DB	024H
	DB	078H
	DB	078H
	DB	078H
	DB	0ffH
	DB	068H
	DB	06cH
	DB	068H
	DB	0ffH
	DB	068H
	DB	064H
	DB	068H
	DB	0ffH
	DB	060H
	DB	064H
	DB	060H
	DB	0ffH
	DB	060H
	DB	060H
	DB	060H
	DB	0ffH
	DB	068H
	DB	064H
	DB	068H
	DB	0ffH
	DB	068H
	DB	064H
	DB	068H
	DB	0ffH
	DB	068H
	DB	068H
	DB	068H
	DB	0ffH
	DB	068H
	DB	068H
	DB	068H
	DB	0ffH
	DB	068H
	DB	068H
	DB	068H
	DB	0ffH
	DB	068H
	DB	06cH
	DB	068H
	DB	0ffH
	DB	070H
	DB	06cH
	DB	070H
	DB	0ffH
	DB	070H
	DB	06cH
	DB	070H
	DB	0ffH
	DB	070H
	DB	070H
	DB	070H
	DB	0ffH
	DB	070H
	DB	070H
	DB	070H
	DB	0ffH
	DB	070H
	DB	074H
	DB	070H
	DB	0ffH
	DB	078H
	DB	078H
	DB	078H
	DB	0ffH
	DB	078H
	DB	078H
	DB	078H
	DB	0ffH
	DB	078H
	DB	07cH
	DB	078H
	DB	0ffH
	DB	080H
	DB	07cH
	DB	080H
	DB	0ffH
	DB	080H
	DB	080H
	DB	080H
	DB	0ffH
	DB	080H
	DB	080H
	DB	080H
	DB	0ffH
	DB	080H
	DB	084H
	DB	080H
	DB	0ffH
	DB	088H
	DB	084H
	DB	088H
	DB	0ffH
	DB	088H
	DB	088H
	DB	088H
	DB	0ffH
	DB	088H
	DB	088H
	DB	088H
	DB	0ffH
	DB	088H
	DB	08cH
	DB	088H
	DB	0ffH
	DB	090H
	DB	08cH
	DB	090H
	DB	0ffH
	DB	090H
	DB	094H
	DB	090H
	DB	0ffH
	DB	098H
	DB	09cH
	DB	098H
	DB	0ffH
	DB	00H
	DB	00H
	DB	00H
	DB	024H
	DB	00H
	DB	00H
	DB	00H
	DB	0cH
	DB	00H
	DB	00H
	DB	00H
	DB	0cH
	DB	00H
	DB	00H
	DB	00H
	DB	024H
	DB	078H
	DB	078H
	DB	078H
	DB	0ffH
	DB	068H
	DB	068H
	DB	068H
	DB	0ffH
	DB	068H
	DB	064H
	DB	068H
	DB	0ffH
	DB	060H
	DB	064H
	DB	060H
	DB	0ffH
	DB	060H
	DB	064H
	DB	060H
	DB	0ffH
	DB	068H
	DB	064H
	DB	068H
	DB	0ffH
	DB	060H
	DB	064H
	DB	060H
	DB	0ffH
	DB	068H
	DB	068H
	DB	068H
	DB	0ffH
	DB	068H
	DB	068H
	DB	068H
	DB	0ffH
	DB	068H
	DB	068H
	DB	068H
	DB	0ffH
	DB	068H
	DB	06cH
	DB	068H
	DB	0ffH
	DB	070H
	DB	06cH
	DB	070H
	DB	0ffH
	DB	070H
	DB	070H
	DB	070H
	DB	0ffH
	DB	070H
	DB	070H
	DB	070H
	DB	0ffH
	DB	070H
	DB	070H
	DB	070H
	DB	0ffH
	DB	078H
	DB	074H
	DB	078H
	DB	0ffH
	DB	078H
	DB	078H
	DB	078H
	DB	0ffH
	DB	078H
	DB	078H
	DB	078H
	DB	0ffH
	DB	078H
	DB	07cH
	DB	078H
	DB	0ffH
	DB	080H
	DB	07cH
	DB	080H
	DB	0ffH
	DB	080H
	DB	080H
	DB	080H
	DB	0ffH
	DB	080H
	DB	080H
	DB	080H
	DB	0ffH
	DB	080H
	DB	084H
	DB	080H
	DB	0ffH
	DB	088H
	DB	084H
	DB	088H
	DB	0ffH
	DB	088H
	DB	088H
	DB	088H
	DB	0ffH
	DB	088H
	DB	088H
	DB	088H
	DB	0ffH
	DB	088H
	DB	08cH
	DB	088H
	DB	0ffH
	DB	090H
	DB	08cH
	DB	090H
	DB	0ffH
	DB	090H
	DB	090H
	DB	090H
	DB	0ffH
	DB	0a0H
	DB	09cH
	DB	0a0H
	DB	0ffH
	DB	00H
	DB	00H
	DB	00H
	DB	024H
	DB	00H
	DB	00H
	DB	00H
	DB	0cH
	DB	00H
	DB	00H
	DB	00H
	DB	0cH
	DB	00H
	DB	00H
	DB	00H
	DB	024H
	DB	078H
	DB	078H
	DB	078H
	DB	0ffH
	DB	068H
	DB	06cH
	DB	068H
	DB	0ffH
	DB	068H
	DB	064H
	DB	068H
	DB	0ffH
	DB	068H
	DB	064H
	DB	068H
	DB	0ffH
	DB	060H
	DB	064H
	DB	060H
	DB	0ffH
	DB	068H
	DB	064H
	DB	068H
	DB	0ffH
	DB	060H
	DB	064H
	DB	060H
	DB	0ffH
	DB	068H
	DB	064H
	DB	068H
	DB	0ffH
	DB	068H
	DB	068H
	DB	068H
	DB	0ffH
	DB	068H
	DB	068H
	DB	068H
	DB	0ffH
	DB	068H
	DB	06cH
	DB	068H
	DB	0ffH
	DB	068H
	DB	06cH
	DB	068H
	DB	0ffH
	DB	070H
	DB	06cH
	DB	070H
	DB	0ffH
	DB	070H
	DB	070H
	DB	070H
	DB	0ffH
	DB	070H
	DB	074H
	DB	070H
	DB	0ffH
	DB	070H
	DB	074H
	DB	070H
	DB	0ffH
	DB	078H
	DB	074H
	DB	078H
	DB	0ffH
	DB	078H
	DB	078H
	DB	078H
	DB	0ffH
	DB	078H
	DB	07cH
	DB	078H
	DB	0ffH
	DB	080H
	DB	07cH
	DB	080H
	DB	0ffH
	DB	080H
	DB	080H
	DB	080H
	DB	0ffH
	DB	080H
	DB	080H
	DB	080H
	DB	0ffH
	DB	080H
	DB	084H
	DB	080H
	DB	0ffH
	DB	088H
	DB	084H
	DB	088H
	DB	0ffH
	DB	088H
	DB	088H
	DB	088H
	DB	0ffH
	DB	088H
	DB	088H
	DB	088H
	DB	0ffH
	DB	088H
	DB	08cH
	DB	088H
	DB	0ffH
	DB	090H
	DB	08cH
	DB	090H
	DB	0ffH
	DB	090H
	DB	090H
	DB	090H
	DB	0ffH
	DB	098H
	DB	09cH
	DB	098H
	DB	0ffH
	DB	00H
	DB	00H
	DB	00H
	DB	024H
	DB	00H
	DB	00H
	DB	00H
	DB	0cH
	DB	00H
	DB	00H
	DB	00H
	DB	0cH
	DB	00H
	DB	00H
	DB	00H
	DB	024H
	DB	078H
	DB	078H
	DB	078H
	DB	0ffH
	DB	068H
	DB	06cH
	DB	068H
	DB	0ffH
	DB	068H
	DB	064H
	DB	068H
	DB	0ffH
	DB	060H
	DB	064H
	DB	060H
	DB	0ffH
	DB	060H
	DB	064H
	DB	060H
	DB	0ffH
	DB	068H
	DB	064H
	DB	068H
	DB	0ffH
	DB	068H
	DB	064H
	DB	068H
	DB	0ffH
	DB	068H
	DB	064H
	DB	068H
	DB	0ffH
	DB	068H
	DB	068H
	DB	068H
	DB	0ffH
	DB	068H
	DB	068H
	DB	068H
	DB	0ffH
	DB	068H
	DB	06cH
	DB	068H
	DB	0ffH
	DB	070H
	DB	06cH
	DB	070H
	DB	0ffH
	DB	070H
	DB	06cH
	DB	070H
	DB	0ffH
	DB	070H
	DB	070H
	DB	070H
	DB	0ffH
	DB	070H
	DB	074H
	DB	070H
	DB	0ffH
	DB	078H
	DB	074H
	DB	078H
	DB	0ffH
	DB	078H
	DB	074H
	DB	078H
	DB	0ffH
	DB	078H
	DB	078H
	DB	078H
	DB	0ffH
	DB	078H
	DB	07cH
	DB	078H
	DB	0ffH
	DB	080H
	DB	07cH
	DB	080H
	DB	0ffH
	DB	080H
	DB	080H
	DB	080H
	DB	0ffH
	DB	080H
	DB	080H
	DB	080H
	DB	0ffH
	DB	080H
	DB	084H
	DB	080H
	DB	0ffH
	DB	088H
	DB	084H
	DB	088H
	DB	0ffH
	DB	088H
	DB	088H
	DB	088H
	DB	0ffH
	DB	088H
	DB	088H
	DB	088H
	DB	0ffH
	DB	088H
	DB	08cH
	DB	088H
	DB	0ffH
	DB	090H
	DB	08cH
	DB	090H
	DB	0ffH
	DB	090H
	DB	090H
	DB	090H
	DB	0ffH
	DB	098H
	DB	09cH
	DB	098H
	DB	0ffH
	DB	00H
	DB	00H
	DB	00H
	DB	024H
	DB	00H
	DB	00H
	DB	00H
	DB	0cH
	DB	00H
	DB	00H
	DB	00H
	DB	0cH
	DB	00H
	DB	00H
	DB	00H
	DB	024H
	DB	078H
	DB	078H
	DB	078H
	DB	0ffH
	DB	068H
	DB	06cH
	DB	068H
	DB	0ffH
	DB	068H
	DB	064H
	DB	068H
	DB	0ffH
	DB	060H
	DB	064H
	DB	060H
	DB	0ffH
	DB	060H
	DB	064H
	DB	060H
	DB	0ffH
	DB	068H
	DB	064H
	DB	068H
	DB	0ffH
	DB	060H
	DB	064H
	DB	060H
	DB	0ffH
	DB	068H
	DB	068H
	DB	068H
	DB	0ffH
	DB	068H
	DB	068H
	DB	068H
	DB	0ffH
	DB	068H
	DB	068H
	DB	068H
	DB	0ffH
	DB	068H
	DB	06cH
	DB	068H
	DB	0ffH
	DB	070H
	DB	06cH
	DB	070H
	DB	0ffH
	DB	070H
	DB	070H
	DB	070H
	DB	0ffH
	DB	070H
	DB	070H
	DB	070H
	DB	0ffH
	DB	070H
	DB	070H
	DB	070H
	DB	0ffH
	DB	070H
	DB	074H
	DB	070H
	DB	0ffH
	DB	078H
	DB	078H
	DB	078H
	DB	0ffH
	DB	078H
	DB	078H
	DB	078H
	DB	0ffH
	DB	078H
	DB	07cH
	DB	078H
	DB	0ffH
	DB	080H
	DB	07cH
	DB	080H
	DB	0ffH
	DB	080H
	DB	080H
	DB	080H
	DB	0ffH
	DB	080H
	DB	080H
	DB	080H
	DB	0ffH
	DB	080H
	DB	084H
	DB	080H
	DB	0ffH
	DB	088H
	DB	084H
	DB	088H
	DB	0ffH
	DB	088H
	DB	088H
	DB	088H
	DB	0ffH
	DB	088H
	DB	088H
	DB	088H
	DB	0ffH
	DB	088H
	DB	08cH
	DB	088H
	DB	0ffH
	DB	090H
	DB	08cH
	DB	090H
	DB	0ffH
	DB	090H
	DB	090H
	DB	090H
	DB	0ffH
	DB	0a0H
	DB	09cH
	DB	0a0H
	DB	0ffH
	DB	00H
	DB	00H
	DB	00H
	DB	024H
	DB	00H
	DB	00H
	DB	00H
	DB	0cH
	DB	00H
	DB	00H
	DB	00H
	DB	0cH
	DB	00H
	DB	00H
	DB	00H
	DB	024H
	DB	078H
	DB	078H
	DB	078H
	DB	0ffH
	DB	068H
	DB	068H
	DB	068H
	DB	0ffH
	DB	068H
	DB	064H
	DB	068H
	DB	0ffH
	DB	068H
	DB	064H
	DB	068H
	DB	0ffH
	DB	060H
	DB	064H
	DB	060H
	DB	0ffH
	DB	068H
	DB	064H
	DB	068H
	DB	0ffH
	DB	068H
	DB	064H
	DB	068H
	DB	0ffH
	DB	060H
	DB	064H
	DB	060H
	DB	0ffH
	DB	068H
	DB	068H
	DB	068H
	DB	0ffH
	DB	068H
	DB	068H
	DB	068H
	DB	0ffH
	DB	068H
	DB	06cH
	DB	068H
	DB	0ffH
	DB	068H
	DB	06cH
	DB	068H
	DB	0ffH
	DB	070H
	DB	06cH
	DB	070H
	DB	0ffH
	DB	070H
	DB	070H
	DB	070H
	DB	0ffH
	DB	070H
	DB	074H
	DB	070H
	DB	0ffH
	DB	078H
	DB	074H
	DB	078H
	DB	0ffH
	DB	078H
	DB	074H
	DB	078H
	DB	0ffH
	DB	078H
	DB	078H
	DB	078H
	DB	0ffH
	DB	078H
	DB	07cH
	DB	078H
	DB	0ffH
	DB	080H
	DB	07cH
	DB	080H
	DB	0ffH
	DB	080H
	DB	080H
	DB	080H
	DB	0ffH
	DB	080H
	DB	080H
	DB	080H
	DB	0ffH
	DB	080H
	DB	084H
	DB	080H
	DB	0ffH
	DB	088H
	DB	084H
	DB	088H
	DB	0ffH
	DB	088H
	DB	088H
	DB	088H
	DB	0ffH
	DB	088H
	DB	088H
	DB	088H
	DB	0ffH
	DB	088H
	DB	08cH
	DB	088H
	DB	0ffH
	DB	090H
	DB	08cH
	DB	090H
	DB	0ffH
	DB	090H
	DB	090H
	DB	090H
	DB	0ffH
	DB	098H
	DB	09cH
	DB	098H
	DB	0ffH
	DB	00H
	DB	00H
	DB	00H
	DB	024H
	DB	00H
	DB	00H
	DB	00H
	DB	0cH
	DB	00H
	DB	00H
	DB	00H
	DB	0cH
	DB	00H
	DB	00H
	DB	00H
	DB	024H
	DB	078H
	DB	078H
	DB	078H
	DB	0ffH
	DB	068H
	DB	06cH
	DB	068H
	DB	0ffH
	DB	068H
	DB	064H
	DB	068H
	DB	0ffH
	DB	060H
	DB	064H
	DB	060H
	DB	0ffH
	DB	060H
	DB	064H
	DB	060H
	DB	0ffH
	DB	068H
	DB	064H
	DB	068H
	DB	0ffH
	DB	068H
	DB	064H
	DB	068H
	DB	0ffH
	DB	068H
	DB	068H
	DB	068H
	DB	0ffH
	DB	068H
	DB	068H
	DB	068H
	DB	0ffH
	DB	068H
	DB	068H
	DB	068H
	DB	0ffH
	DB	068H
	DB	06cH
	DB	068H
	DB	0ffH
	DB	070H
	DB	06cH
	DB	070H
	DB	0ffH
	DB	070H
	DB	06cH
	DB	070H
	DB	0ffH
	DB	070H
	DB	070H
	DB	070H
	DB	0ffH
	DB	070H
	DB	074H
	DB	070H
	DB	0ffH
	DB	070H
	DB	074H
	DB	070H
	DB	0ffH
	DB	078H
	DB	074H
	DB	078H
	DB	0ffH
	DB	078H
	DB	078H
	DB	078H
	DB	0ffH
	DB	078H
	DB	07cH
	DB	078H
	DB	0ffH
	DB	080H
	DB	07cH
	DB	080H
	DB	0ffH
	DB	080H
	DB	080H
	DB	080H
	DB	0ffH
	DB	080H
	DB	080H
	DB	080H
	DB	0ffH
	DB	080H
	DB	084H
	DB	080H
	DB	0ffH
	DB	088H
	DB	084H
	DB	088H
	DB	0ffH
	DB	088H
	DB	088H
	DB	088H
	DB	0ffH
	DB	088H
	DB	088H
	DB	088H
	DB	0ffH
	DB	088H
	DB	08cH
	DB	088H
	DB	0ffH
	DB	090H
	DB	08cH
	DB	090H
	DB	0ffH
	DB	090H
	DB	090H
	DB	090H
	DB	0ffH
	DB	098H
	DB	09cH
	DB	098H
	DB	0ffH
	DB	00H
	DB	00H
	DB	00H
	DB	024H
	DB	00H
	DB	00H
	DB	00H
	DB	0cH
	DB	00H
	DB	00H
	DB	00H
	DB	0cH
	DB	00H
	DB	00H
	DB	00H
	DB	024H
	DB	078H
	DB	078H
	DB	078H
	DB	0ffH
	DB	068H
	DB	06cH
	DB	068H
	DB	0ffH
	DB	068H
	DB	064H
	DB	068H
	DB	0ffH
	DB	060H
	DB	064H
	DB	060H
	DB	0ffH
	DB	060H
	DB	064H
	DB	060H
	DB	0ffH
	DB	060H
	DB	064H
	DB	060H
	DB	0ffH
	DB	068H
	DB	064H
	DB	068H
	DB	0ffH
	DB	068H
	DB	064H
	DB	068H
	DB	0ffH
	DB	068H
	DB	068H
	DB	068H
	DB	0ffH
	DB	068H
	DB	068H
	DB	068H
	DB	0ffH
	DB	068H
	DB	06cH
	DB	068H
	DB	0ffH
	DB	070H
	DB	06cH
	DB	070H
	DB	0ffH
	DB	070H
	DB	06cH
	DB	070H
	DB	0ffH
	DB	070H
	DB	070H
	DB	070H
	DB	0ffH
	DB	070H
	DB	074H
	DB	070H
	DB	0ffH
	DB	078H
	DB	074H
	DB	078H
	DB	0ffH
	DB	078H
	DB	074H
	DB	078H
	DB	0ffH
	DB	078H
	DB	078H
	DB	078H
	DB	0ffH
	DB	078H
	DB	07cH
	DB	078H
	DB	0ffH
	DB	080H
	DB	07cH
	DB	080H
	DB	0ffH
	DB	080H
	DB	080H
	DB	080H
	DB	0ffH
	DB	080H
	DB	080H
	DB	080H
	DB	0ffH
	DB	080H
	DB	084H
	DB	080H
	DB	0ffH
	DB	088H
	DB	084H
	DB	088H
	DB	0ffH
	DB	088H
	DB	088H
	DB	088H
	DB	0ffH
	DB	088H
	DB	088H
	DB	088H
	DB	0ffH
	DB	088H
	DB	08cH
	DB	088H
	DB	0ffH
	DB	090H
	DB	08cH
	DB	090H
	DB	0ffH
	DB	090H
	DB	090H
	DB	090H
	DB	0ffH
	DB	0a0H
	DB	09cH
	DB	0a0H
	DB	0ffH
	DB	00H
	DB	00H
	DB	00H
	DB	024H
	DB	00H
	DB	00H
	DB	00H
	DB	0cH
	DB	00H
	DB	00H
	DB	00H
	DB	0cH
	DB	00H
	DB	00H
	DB	00H
	DB	024H
	DB	078H
	DB	078H
	DB	078H
	DB	0ffH
	DB	068H
	DB	068H
	DB	068H
	DB	0ffH
	DB	068H
	DB	064H
	DB	068H
	DB	0ffH
	DB	068H
	DB	064H
	DB	068H
	DB	0ffH
	DB	060H
	DB	064H
	DB	060H
	DB	0ffH
	DB	068H
	DB	064H
	DB	068H
	DB	0ffH
	DB	060H
	DB	064H
	DB	060H
	DB	0ffH
	DB	068H
	DB	064H
	DB	068H
	DB	0ffH
	DB	068H
	DB	068H
	DB	068H
	DB	0ffH
	DB	068H
	DB	068H
	DB	068H
	DB	0ffH
	DB	068H
	DB	06cH
	DB	068H
	DB	0ffH
	DB	068H
	DB	06cH
	DB	068H
	DB	0ffH
	DB	070H
	DB	070H
	DB	070H
	DB	0ffH
	DB	070H
	DB	070H
	DB	070H
	DB	0ffH
	DB	070H
	DB	070H
	DB	070H
	DB	0ffH
	DB	070H
	DB	074H
	DB	070H
	DB	0ffH
	DB	078H
	DB	078H
	DB	078H
	DB	0ffH
	DB	078H
	DB	078H
	DB	078H
	DB	0ffH
	DB	078H
	DB	07cH
	DB	078H
	DB	0ffH
	DB	080H
	DB	07cH
	DB	080H
	DB	0ffH
	DB	080H
	DB	080H
	DB	080H
	DB	0ffH
	DB	080H
	DB	080H
	DB	080H
	DB	0ffH
	DB	080H
	DB	084H
	DB	080H
	DB	0ffH
	DB	088H
	DB	084H
	DB	088H
	DB	0ffH
	DB	088H
	DB	088H
	DB	088H
	DB	0ffH
	DB	088H
	DB	088H
	DB	088H
	DB	0ffH
	DB	088H
	DB	08cH
	DB	088H
	DB	0ffH
	DB	090H
	DB	08cH
	DB	090H
	DB	0ffH
	DB	090H
	DB	090H
	DB	090H
	DB	0ffH
	DB	098H
	DB	09cH
	DB	098H
	DB	0ffH
	DB	00H
	DB	00H
	DB	00H
	DB	024H
	DB	00H
	DB	00H
	DB	00H
	DB	0cH
	DB	00H
	DB	00H
	DB	00H
	DB	0cH
	DB	00H
	DB	00H
	DB	00H
	DB	024H
	DB	078H
	DB	078H
	DB	078H
	DB	0ffH
	DB	068H
	DB	06cH
	DB	068H
	DB	0ffH
	DB	068H
	DB	064H
	DB	068H
	DB	0ffH
	DB	060H
	DB	064H
	DB	060H
	DB	0ffH
	DB	068H
	DB	064H
	DB	068H
	DB	0ffH
	DB	068H
	DB	064H
	DB	068H
	DB	0ffH
	DB	060H
	DB	064H
	DB	060H
	DB	0ffH
	DB	068H
	DB	068H
	DB	068H
	DB	0ffH
	DB	068H
	DB	068H
	DB	068H
	DB	0ffH
	DB	068H
	DB	068H
	DB	068H
	DB	0ffH
	DB	068H
	DB	06cH
	DB	068H
	DB	0ffH
	DB	070H
	DB	06cH
	DB	070H
	DB	0ffH
	DB	070H
	DB	06cH
	DB	070H
	DB	0ffH
	DB	070H
	DB	070H
	DB	070H
	DB	0ffH
	DB	070H
	DB	074H
	DB	070H
	DB	0ffH
	DB	078H
	DB	074H
	DB	078H
	DB	0ffH
	DB	078H
	DB	074H
	DB	078H
	DB	0ffH
	DB	078H
	DB	078H
	DB	078H
	DB	0ffH
	DB	078H
	DB	07cH
	DB	078H
	DB	0ffH
	DB	078H
	DB	07cH
	DB	078H
	DB	0ffH
	DB	080H
	DB	080H
	DB	080H
	DB	0ffH
	DB	080H
	DB	080H
	DB	080H
	DB	0ffH
	DB	080H
	DB	084H
	DB	080H
	DB	0ffH
	DB	088H
	DB	084H
	DB	088H
	DB	0ffH
	DB	088H
	DB	088H
	DB	088H
	DB	0ffH
	DB	088H
	DB	088H
	DB	088H
	DB	0ffH
	DB	088H
	DB	08cH
	DB	088H
	DB	0ffH
	DB	090H
	DB	08cH
	DB	090H
	DB	0ffH
	DB	090H
	DB	090H
	DB	090H
	DB	0ffH
	DB	098H
	DB	09cH
	DB	098H
	DB	0ffH
	DB	00H
	DB	00H
	DB	00H
	DB	024H
	DB	00H
	DB	00H
	DB	00H
	DB	0cH
	DB	00H
	DB	00H
	DB	00H
	DB	0cH
	DB	00H
	DB	00H
	DB	00H
	DB	024H
	DB	078H
	DB	078H
	DB	078H
	DB	0ffH
	DB	068H
	DB	06cH
	DB	068H
	DB	0ffH
	DB	068H
	DB	064H
	DB	068H
	DB	0ffH
	DB	060H
	DB	064H
	DB	060H
	DB	0ffH
	DB	060H
	DB	064H
	DB	060H
	DB	0ffH
	DB	068H
	DB	064H
	DB	068H
	DB	0ffH
	DB	068H
	DB	064H
	DB	068H
	DB	0ffH
	DB	068H
	DB	064H
	DB	068H
	DB	0ffH
	DB	068H
	DB	068H
	DB	068H
	DB	0ffH
	DB	068H
	DB	068H
	DB	068H
	DB	0ffH
	DB	068H
	DB	06cH
	DB	068H
	DB	0ffH
	DB	070H
	DB	06cH
	DB	070H
	DB	0ffH
	DB	070H
	DB	06cH
	DB	070H
	DB	0ffH
	DB	070H
	DB	070H
	DB	070H
	DB	0ffH
	DB	070H
	DB	074H
	DB	070H
	DB	0ffH
	DB	070H
	DB	074H
	DB	070H
	DB	0ffH
	DB	078H
	DB	074H
	DB	078H
	DB	0ffH
	DB	078H
	DB	078H
	DB	078H
	DB	0ffH
	DB	078H
	DB	07cH
	DB	078H
	DB	0ffH
	DB	080H
	DB	07cH
	DB	080H
	DB	0ffH
	DB	080H
	DB	080H
	DB	080H
	DB	0ffH
	DB	080H
	DB	080H
	DB	080H
	DB	0ffH
	DB	080H
	DB	084H
	DB	080H
	DB	0ffH
	DB	088H
	DB	084H
	DB	088H
	DB	0ffH
	DB	088H
	DB	088H
	DB	088H
	DB	0ffH
	DB	088H
	DB	088H
	DB	088H
	DB	0ffH
	DB	088H
	DB	08cH
	DB	088H
	DB	0ffH
	DB	090H
	DB	08cH
	DB	090H
	DB	0ffH
	DB	090H
	DB	090H
	DB	090H
	DB	0ffH
	DB	0a0H
	DB	09cH
	DB	0a0H
	DB	0ffH
	DB	00H
	DB	00H
	DB	00H
	DB	024H
	DB	00H
	DB	00H
	DB	00H
	DB	0cH
	DB	00H
	DB	00H
	DB	00H
	DB	0cH
	DB	00H
	DB	00H
	DB	00H
	DB	024H
	DB	078H
	DB	078H
	DB	078H
	DB	0ffH
	DB	068H
	DB	06cH
	DB	068H
	DB	0ffH
	DB	068H
	DB	064H
	DB	068H
	DB	0ffH
	DB	060H
	DB	064H
	DB	060H
	DB	0ffH
	DB	060H
	DB	060H
	DB	060H
	DB	0ffH
	DB	060H
	DB	064H
	DB	060H
	DB	0ffH
	DB	068H
	DB	064H
	DB	068H
	DB	0ffH
	DB	068H
	DB	068H
	DB	068H
	DB	0ffH
	DB	068H
	DB	068H
	DB	068H
	DB	0ffH
	DB	068H
	DB	068H
	DB	068H
	DB	0ffH
	DB	068H
	DB	06cH
	DB	068H
	DB	0ffH
	DB	068H
	DB	06cH
	DB	068H
	DB	0ffH
	DB	070H
	DB	06cH
	DB	070H
	DB	0ffH
	DB	070H
	DB	070H
	DB	070H
	DB	0ffH
	DB	070H
	DB	074H
	DB	070H
	DB	0ffH
	DB	078H
	DB	074H
	DB	078H
	DB	0ffH
	DB	078H
	DB	074H
	DB	078H
	DB	0ffH
	DB	078H
	DB	078H
	DB	078H
	DB	0ffH
	DB	078H
	DB	07cH
	DB	078H
	DB	0ffH
	DB	080H
	DB	07cH
	DB	080H
	DB	0ffH
	DB	080H
	DB	080H
	DB	080H
	DB	0ffH
	DB	080H
	DB	080H
	DB	080H
	DB	0ffH
	DB	080H
	DB	084H
	DB	080H
	DB	0ffH
	DB	088H
	DB	084H
	DB	088H
	DB	0ffH
	DB	088H
	DB	088H
	DB	088H
	DB	0ffH
	DB	088H
	DB	088H
	DB	088H
	DB	0ffH
	DB	088H
	DB	08cH
	DB	088H
	DB	0ffH
	DB	090H
	DB	08cH
	DB	090H
	DB	0ffH
	DB	090H
	DB	090H
	DB	090H
	DB	0ffH
	DB	098H
	DB	09cH
	DB	098H
	DB	0ffH
	DB	00H
	DB	00H
	DB	00H
	DB	024H
	DB	00H
	DB	00H
	DB	00H
	DB	0cH
	DB	00H
	DB	00H
	DB	00H
	DB	0cH
	DB	00H
	DB	00H
	DB	00H
	DB	024H
	DB	078H
	DB	078H
	DB	078H
	DB	0ffH
	DB	070H
	DB	068H
	DB	070H
	DB	0ffH
	DB	068H
	DB	064H
	DB	068H
	DB	0ffH
	DB	060H
	DB	064H
	DB	060H
	DB	0ffH
	DB	068H
	DB	064H
	DB	068H
	DB	0ffH
	DB	060H
	DB	064H
	DB	060H
	DB	0ffH
	DB	060H
	DB	064H
	DB	060H
	DB	0ffH
	DB	068H
	DB	064H
	DB	068H
	DB	0ffH
	DB	068H
	DB	068H
	DB	068H
	DB	0ffH
	DB	068H
	DB	068H
	DB	068H
	DB	0ffH
	DB	068H
	DB	06cH
	DB	068H
	DB	0ffH
	DB	070H
	DB	06cH
	DB	070H
	DB	0ffH
	DB	070H
	DB	070H
	DB	070H
	DB	0ffH
	DB	070H
	DB	070H
	DB	070H
	DB	0ffH
	DB	070H
	DB	070H
	DB	070H
	DB	0ffH
	DB	070H
	DB	074H
	DB	070H
	DB	0ffH
	DB	078H
	DB	078H
	DB	078H
	DB	0ffH
	DB	078H
	DB	078H
	DB	078H
	DB	0ffH
	DB	078H
	DB	07cH
	DB	078H
	DB	0ffH
	DB	080H
	DB	07cH
	DB	080H
	DB	0ffH
	DB	080H
	DB	080H
	DB	080H
	DB	0ffH
	DB	080H
	DB	080H
	DB	080H
	DB	0ffH
	DB	080H
	DB	084H
	DB	080H
	DB	0ffH
	DB	088H
	DB	084H
	DB	088H
	DB	0ffH
	DB	088H
	DB	088H
	DB	088H
	DB	0ffH
	DB	088H
	DB	088H
	DB	088H
	DB	0ffH
	DB	088H
	DB	08cH
	DB	088H
	DB	0ffH
	DB	090H
	DB	08cH
	DB	090H
	DB	0ffH
	DB	090H
	DB	090H
	DB	090H
	DB	0ffH
	DB	098H
	DB	09cH
	DB	098H
	DB	0ffH
	DB	00H
	DB	00H
	DB	00H
	DB	024H
	DB	00H
	DB	00H
	DB	00H
	DB	0cH
	DB	00H
	DB	00H
	DB	00H
	DB	0cH
	DB	00H
	DB	00H
	DB	00H
	DB	024H
	DB	078H
	DB	078H
	DB	078H
	DB	0ffH
	DB	068H
	DB	06cH
	DB	068H
	DB	0ffH
	DB	068H
	DB	064H
	DB	068H
	DB	0ffH
	DB	060H
	DB	064H
	DB	060H
	DB	0ffH
	DB	068H
	DB	064H
	DB	068H
	DB	0ffH
	DB	068H
	DB	064H
	DB	068H
	DB	0ffH
	DB	068H
	DB	064H
	DB	068H
	DB	0ffH
	DB	068H
	DB	068H
	DB	068H
	DB	0ffH
	DB	068H
	DB	068H
	DB	068H
	DB	0ffH
	DB	068H
	DB	068H
	DB	068H
	DB	0ffH
	DB	068H
	DB	06cH
	DB	068H
	DB	0ffH
	DB	070H
	DB	06cH
	DB	070H
	DB	0ffH
	DB	070H
	DB	06cH
	DB	070H
	DB	0ffH
	DB	070H
	DB	070H
	DB	070H
	DB	0ffH
	DB	070H
	DB	074H
	DB	070H
	DB	0ffH
	DB	078H
	DB	074H
	DB	078H
	DB	0ffH
	DB	078H
	DB	074H
	DB	078H
	DB	0ffH
	DB	078H
	DB	078H
	DB	078H
	DB	0ffH
	DB	078H
	DB	07cH
	DB	078H
	DB	0ffH
	DB	080H
	DB	07cH
	DB	080H
	DB	0ffH
	DB	080H
	DB	080H
	DB	080H
	DB	0ffH
	DB	080H
	DB	080H
	DB	080H
	DB	0ffH
	DB	080H
	DB	084H
	DB	080H
	DB	0ffH
	DB	088H
	DB	084H
	DB	088H
	DB	0ffH
	DB	088H
	DB	088H
	DB	088H
	DB	0ffH
	DB	088H
	DB	088H
	DB	088H
	DB	0ffH
	DB	088H
	DB	08cH
	DB	088H
	DB	0ffH
	DB	090H
	DB	08cH
	DB	090H
	DB	0ffH
	DB	090H
	DB	090H
	DB	090H
	DB	0ffH
	DB	0a0H
	DB	09cH
	DB	0a0H
	DB	0ffH
	DB	00H
	DB	00H
	DB	00H
	DB	024H
	DB	00H
	DB	00H
	DB	00H
	DB	0cH
	DB	00H
	DB	00H
	DB	00H
	DB	0cH
	DB	00H
	DB	00H
	DB	00H
	DB	024H
	DB	078H
	DB	078H
	DB	078H
	DB	0ffH
	DB	068H
	DB	06cH
	DB	068H
	DB	0ffH
	DB	068H
	DB	064H
	DB	068H
	DB	0ffH
	DB	060H
	DB	064H
	DB	060H
	DB	0ffH
	DB	060H
	DB	064H
	DB	060H
	DB	0ffH
	DB	060H
	DB	064H
	DB	060H
	DB	0ffH
	DB	068H
	DB	064H
	DB	068H
	DB	0ffH
	DB	068H
	DB	064H
	DB	068H
	DB	0ffH
	DB	068H
	DB	068H
	DB	068H
	DB	0ffH
	DB	068H
	DB	068H
	DB	068H
	DB	0ffH
	DB	068H
	DB	06cH
	DB	068H
	DB	0ffH
	DB	068H
	DB	06cH
	DB	068H
	DB	0ffH
	DB	070H
	DB	06cH
	DB	070H
	DB	0ffH
	DB	070H
	DB	070H
	DB	070H
	DB	0ffH
	DB	070H
	DB	074H
	DB	070H
	DB	0ffH
	DB	070H
	DB	074H
	DB	070H
	DB	0ffH
	DB	078H
	DB	074H
	DB	078H
	DB	0ffH
	DB	078H
	DB	078H
	DB	078H
	DB	0ffH
	DB	078H
	DB	07cH
	DB	078H
	DB	0ffH
	DB	080H
	DB	07cH
	DB	080H
	DB	0ffH
	DB	080H
	DB	080H
	DB	080H
	DB	0ffH
	DB	080H
	DB	080H
	DB	080H
	DB	0ffH
	DB	080H
	DB	084H
	DB	080H
	DB	0ffH
	DB	088H
	DB	084H
	DB	088H
	DB	0ffH
	DB	088H
	DB	088H
	DB	088H
	DB	0ffH
	DB	088H
	DB	088H
	DB	088H
	DB	0ffH
	DB	088H
	DB	08cH
	DB	088H
	DB	0ffH
	DB	090H
	DB	08cH
	DB	090H
	DB	0ffH
	DB	090H
	DB	090H
	DB	090H
	DB	0ffH
	DB	098H
	DB	09cH
	DB	098H
	DB	0ffH
	DB	00H
	DB	00H
	DB	00H
	DB	024H
	DB	00H
	DB	00H
	DB	00H
	DB	0cH
	DB	00H
	DB	00H
	DB	00H
	DB	0cH
	DB	00H
	DB	00H
	DB	00H
	DB	024H
	DB	078H
	DB	078H
	DB	078H
	DB	0ffH
	DB	068H
	DB	06cH
	DB	068H
	DB	0ffH
	DB	068H
	DB	064H
	DB	068H
	DB	0ffH
	DB	060H
	DB	064H
	DB	060H
	DB	0ffH
	DB	060H
	DB	064H
	DB	060H
	DB	0ffH
	DB	068H
	DB	064H
	DB	068H
	DB	0ffH
	DB	060H
	DB	064H
	DB	060H
	DB	0ffH
	DB	068H
	DB	068H
	DB	068H
	DB	0ffH
	DB	068H
	DB	068H
	DB	068H
	DB	0ffH
	DB	068H
	DB	068H
	DB	068H
	DB	0ffH
	DB	068H
	DB	06cH
	DB	068H
	DB	0ffH
	DB	070H
	DB	06cH
	DB	070H
	DB	0ffH
	DB	070H
	DB	06cH
	DB	070H
	DB	0ffH
	DB	070H
	DB	070H
	DB	070H
	DB	0ffH
	DB	070H
	DB	074H
	DB	070H
	DB	0ffH
	DB	078H
	DB	074H
	DB	078H
	DB	0ffH
	DB	078H
	DB	074H
	DB	078H
	DB	0ffH
	DB	078H
	DB	078H
	DB	078H
	DB	0ffH
	DB	078H
	DB	07cH
	DB	078H
	DB	0ffH
	DB	080H
	DB	07cH
	DB	080H
	DB	0ffH
	DB	080H
	DB	080H
	DB	080H
	DB	0ffH
	DB	080H
	DB	080H
	DB	080H
	DB	0ffH
	DB	080H
	DB	084H
	DB	080H
	DB	0ffH
	DB	088H
	DB	084H
	DB	088H
	DB	0ffH
	DB	088H
	DB	088H
	DB	088H
	DB	0ffH
	DB	088H
	DB	088H
	DB	088H
	DB	0ffH
	DB	088H
	DB	08cH
	DB	088H
	DB	0ffH
	DB	090H
	DB	08cH
	DB	090H
	DB	0ffH
	DB	090H
	DB	094H
	DB	090H
	DB	0ffH
	DB	098H
	DB	09cH
	DB	098H
	DB	0ffH
	DB	00H
	DB	00H
	DB	00H
	DB	024H
	DB	00H
	DB	00H
	DB	00H
	DB	0cH
	DB	00H
	DB	00H
	DB	00H
	DB	0cH
	DB	00H
	DB	00H
	DB	00H
	DB	024H
	DB	078H
	DB	078H
	DB	078H
	DB	0ffH
	DB	068H
	DB	068H
	DB	068H
	DB	0ffH
	DB	068H
	DB	064H
	DB	068H
	DB	0ffH
	DB	068H
	DB	064H
	DB	068H
	DB	0ffH
	DB	060H
	DB	064H
	DB	060H
	DB	0ffH
	DB	068H
	DB	064H
	DB	068H
	DB	0ffH
	DB	068H
	DB	064H
	DB	068H
	DB	0ffH
	DB	060H
	DB	064H
	DB	060H
	DB	0ffH
	DB	068H
	DB	068H
	DB	068H
	DB	0ffH
	DB	068H
	DB	068H
	DB	068H
	DB	0ffH
	DB	068H
	DB	06cH
	DB	068H
	DB	0ffH
	DB	070H
	DB	06cH
	DB	070H
	DB	0ffH
	DB	070H
	DB	070H
	DB	070H
	DB	0ffH
	DB	070H
	DB	070H
	DB	070H
	DB	0ffH
	DB	070H
	DB	070H
	DB	070H
	DB	0ffH
	DB	070H
	DB	074H
	DB	070H
	DB	0ffH
	DB	078H
	DB	078H
	DB	078H
	DB	0ffH
	DB	078H
	DB	078H
	DB	078H
	DB	0ffH
	DB	078H
	DB	07cH
	DB	078H
	DB	0ffH
	DB	080H
	DB	07cH
	DB	080H
	DB	0ffH
	DB	080H
	DB	080H
	DB	080H
	DB	0ffH
	DB	080H
	DB	080H
	DB	080H
	DB	0ffH
	DB	080H
	DB	084H
	DB	080H
	DB	0ffH
	DB	088H
	DB	084H
	DB	088H
	DB	0ffH
	DB	088H
	DB	088H
	DB	088H
	DB	0ffH
	DB	088H
	DB	088H
	DB	088H
	DB	0ffH
	DB	088H
	DB	08cH
	DB	088H
	DB	0ffH
	DB	090H
	DB	08cH
	DB	090H
	DB	0ffH
	DB	090H
	DB	090H
	DB	090H
	DB	0ffH
	DB	0a0H
	DB	09cH
	DB	0a0H
	DB	0ffH
	DB	00H
	DB	00H
	DB	00H
	DB	024H
	DB	00H
	DB	00H
	DB	00H
	DB	0cH
	DB	00H
	DB	00H
	DB	00H
	DB	0cH
	DB	00H
	DB	00H
	DB	00H
	DB	024H
	DB	078H
	DB	078H
	DB	078H
	DB	0ffH
	DB	068H
	DB	06cH
	DB	068H
	DB	0ffH
	DB	068H
	DB	064H
	DB	068H
	DB	0ffH
	DB	060H
	DB	064H
	DB	060H
	DB	0ffH
	DB	060H
	DB	064H
	DB	060H
	DB	0ffH
	DB	068H
	DB	064H
	DB	068H
	DB	0ffH
	DB	068H
	DB	064H
	DB	068H
	DB	0ffH
	DB	068H
	DB	064H
	DB	068H
	DB	0ffH
	DB	068H
	DB	068H
	DB	068H
	DB	0ffH
	DB	068H
	DB	068H
	DB	068H
	DB	0ffH
	DB	068H
	DB	06cH
	DB	068H
	DB	0ffH
	DB	068H
	DB	06cH
	DB	068H
	DB	0ffH
	DB	070H
	DB	06cH
	DB	070H
	DB	0ffH
	DB	070H
	DB	070H
	DB	070H
	DB	0ffH
	DB	070H
	DB	074H
	DB	070H
	DB	0ffH
	DB	070H
	DB	074H
	DB	070H
	DB	0ffH
	DB	078H
	DB	074H
	DB	078H
	DB	0ffH
	DB	078H
	DB	078H
	DB	078H
	DB	0ffH
	DB	078H
	DB	07cH
	DB	078H
	DB	0ffH
	DB	080H
	DB	07cH
	DB	080H
	DB	0ffH
	DB	080H
	DB	080H
	DB	080H
	DB	0ffH
	DB	080H
	DB	080H
	DB	080H
	DB	0ffH
	DB	080H
	DB	084H
	DB	080H
	DB	0ffH
	DB	088H
	DB	084H
	DB	088H
	DB	0ffH
	DB	088H
	DB	088H
	DB	088H
	DB	0ffH
	DB	088H
	DB	088H
	DB	088H
	DB	0ffH
	DB	088H
	DB	08cH
	DB	088H
	DB	0ffH
	DB	090H
	DB	08cH
	DB	090H
	DB	0ffH
	DB	090H
	DB	090H
	DB	090H
	DB	0ffH
	DB	098H
	DB	09cH
	DB	098H
	DB	0ffH
	DB	00H
	DB	00H
	DB	00H
	DB	024H
	DB	00H
	DB	00H
	DB	00H
	DB	0cH
	DB	00H
	DB	00H
	DB	00H
	DB	0cH
	DB	00H
	DB	00H
	DB	00H
	DB	024H
	DB	078H
	DB	078H
	DB	078H
	DB	0ffH
	DB	070H
	DB	06cH
	DB	070H
	DB	0ffH
	DB	068H
	DB	064H
	DB	068H
	DB	0ffH
	DB	060H
	DB	064H
	DB	060H
	DB	0ffH
	DB	060H
	DB	064H
	DB	060H
	DB	0ffH
	DB	060H
	DB	064H
	DB	060H
	DB	0ffH
	DB	068H
	DB	064H
	DB	068H
	DB	0ffH
	DB	068H
	DB	068H
	DB	068H
	DB	0ffH
	DB	068H
	DB	068H
	DB	068H
	DB	0ffH
	DB	068H
	DB	068H
	DB	068H
	DB	0ffH
	DB	068H
	DB	06cH
	DB	068H
	DB	0ffH
	DB	070H
	DB	06cH
	DB	070H
	DB	0ffH
	DB	070H
	DB	06cH
	DB	070H
	DB	0ffH
	DB	070H
	DB	070H
	DB	070H
	DB	0ffH
	DB	070H
	DB	074H
	DB	070H
	DB	0ffH
	DB	078H
	DB	074H
	DB	078H
	DB	0ffH
	DB	078H
	DB	074H
	DB	078H
	DB	0ffH
	DB	078H
	DB	078H
	DB	078H
	DB	0ffH
	DB	078H
	DB	07cH
	DB	078H
	DB	0ffH
	DB	080H
	DB	07cH
	DB	080H
	DB	0ffH
	DB	080H
	DB	080H
	DB	080H
	DB	0ffH
	DB	080H
	DB	080H
	DB	080H
	DB	0ffH
	DB	080H
	DB	084H
	DB	080H
	DB	0ffH
	DB	088H
	DB	084H
	DB	088H
	DB	0ffH
	DB	088H
	DB	088H
	DB	088H
	DB	0ffH
	DB	088H
	DB	088H
	DB	088H
	DB	0ffH
	DB	088H
	DB	08cH
	DB	088H
	DB	0ffH
	DB	090H
	DB	08cH
	DB	090H
	DB	0ffH
	DB	090H
	DB	094H
	DB	090H
	DB	0ffH
	DB	098H
	DB	09cH
	DB	098H
	DB	0ffH
	DB	00H
	DB	00H
	DB	00H
	DB	024H
	DB	00H
	DB	00H
	DB	00H
	DB	0cH
	DB	00H
	DB	00H
	DB	00H
	DB	0cH
	DB	00H
	DB	00H
	DB	00H
	DB	024H
	DB	078H
	DB	078H
	DB	078H
	DB	0ffH
	DB	068H
	DB	06cH
	DB	068H
	DB	0ffH
	DB	068H
	DB	064H
	DB	068H
	DB	0ffH
	DB	060H
	DB	064H
	DB	060H
	DB	0ffH
	DB	068H
	DB	064H
	DB	068H
	DB	0ffH
	DB	060H
	DB	064H
	DB	060H
	DB	0ffH
	DB	060H
	DB	064H
	DB	060H
	DB	0ffH
	DB	068H
	DB	064H
	DB	068H
	DB	0ffH
	DB	068H
	DB	068H
	DB	068H
	DB	0ffH
	DB	068H
	DB	068H
	DB	068H
	DB	0ffH
	DB	068H
	DB	06cH
	DB	068H
	DB	0ffH
	DB	070H
	DB	06cH
	DB	070H
	DB	0ffH
	DB	070H
	DB	06cH
	DB	070H
	DB	0ffH
	DB	070H
	DB	070H
	DB	070H
	DB	0ffH
	DB	070H
	DB	070H
	DB	070H
	DB	0ffH
	DB	078H
	DB	074H
	DB	078H
	DB	0ffH
	DB	078H
	DB	078H
	DB	078H
	DB	0ffH
	DB	078H
	DB	078H
	DB	078H
	DB	0ffH
	DB	078H
	DB	07cH
	DB	078H
	DB	0ffH
	DB	080H
	DB	07cH
	DB	080H
	DB	0ffH
	DB	080H
	DB	080H
	DB	080H
	DB	0ffH
	DB	080H
	DB	080H
	DB	080H
	DB	0ffH
	DB	080H
	DB	084H
	DB	080H
	DB	0ffH
	DB	088H
	DB	084H
	DB	088H
	DB	0ffH
	DB	088H
	DB	088H
	DB	088H
	DB	0ffH
	DB	088H
	DB	088H
	DB	088H
	DB	0ffH
	DB	088H
	DB	08cH
	DB	088H
	DB	0ffH
	DB	090H
	DB	08cH
	DB	090H
	DB	0ffH
	DB	090H
	DB	090H
	DB	090H
	DB	0ffH
	DB	0a0H
	DB	09cH
	DB	0a0H
	DB	0ffH
	DB	00H
	DB	00H
	DB	00H
	DB	024H
	DB	00H
	DB	00H
	DB	00H
	DB	0cH
	DB	00H
	DB	00H
	DB	00H
	DB	0cH
	DB	00H
	DB	00H
	DB	00H
	DB	024H
	DB	078H
	DB	078H
	DB	078H
	DB	0ffH
	DB	068H
	DB	06cH
	DB	068H
	DB	0ffH
	DB	068H
	DB	064H
	DB	068H
	DB	0ffH
	DB	060H
	DB	064H
	DB	060H
	DB	0ffH
	DB	068H
	DB	060H
	DB	068H
	DB	0ffH
	DB	068H
	DB	064H
	DB	068H
	DB	0ffH
	DB	068H
	DB	064H
	DB	068H
	DB	0ffH
	DB	068H
	DB	068H
	DB	068H
	DB	0ffH
	DB	068H
	DB	068H
	DB	068H
	DB	0ffH
	DB	068H
	DB	068H
	DB	068H
	DB	0ffH
	DB	068H
	DB	06cH
	DB	068H
	DB	0ffH
	DB	068H
	DB	06cH
	DB	068H
	DB	0ffH
	DB	070H
	DB	070H
	DB	070H
	DB	0ffH
	DB	070H
	DB	070H
	DB	070H
	DB	0ffH
	DB	070H
	DB	074H
	DB	070H
	DB	0ffH
	DB	070H
	DB	074H
	DB	070H
	DB	0ffH
	DB	078H
	DB	074H
	DB	078H
	DB	0ffH
	DB	078H
	DB	078H
	DB	078H
	DB	0ffH
	DB	078H
	DB	07cH
	DB	078H
	DB	0ffH
	DB	080H
	DB	07cH
	DB	080H
	DB	0ffH
	DB	080H
	DB	080H
	DB	080H
	DB	0ffH
	DB	080H
	DB	080H
	DB	080H
	DB	0ffH
	DB	080H
	DB	084H
	DB	080H
	DB	0ffH
	DB	088H
	DB	084H
	DB	088H
	DB	0ffH
	DB	088H
	DB	088H
	DB	088H
	DB	0ffH
	DB	088H
	DB	088H
	DB	088H
	DB	0ffH
	DB	088H
	DB	08cH
	DB	088H
	DB	0ffH
	DB	090H
	DB	08cH
	DB	090H
	DB	0ffH
	DB	090H
	DB	094H
	DB	090H
	DB	0ffH
	DB	098H
	DB	09cH
	DB	098H
	DB	0ffH
	DB	00H
	DB	00H
	DB	00H
	DB	024H
	DB	00H
	DB	00H
	DB	00H
	DB	0cH
	DB	00H
	DB	00H
	DB	00H
	DB	0cH
	DB	00H
	DB	00H
	DB	00H
	DB	020H
	DB	078H
	DB	078H
	DB	078H
	DB	0f3H
	DB	070H
	DB	06cH
	DB	070H
	DB	0ffH
	DB	068H
	DB	064H
	DB	068H
	DB	0ffH
	DB	060H
	DB	064H
	DB	060H
	DB	0ffH
	DB	060H
	DB	064H
	DB	060H
	DB	0ffH
	DB	060H
	DB	064H
	DB	060H
	DB	0ffH
	DB	068H
	DB	064H
	DB	068H
	DB	0ffH
	DB	068H
	DB	064H
	DB	068H
	DB	0ffH
	DB	068H
	DB	068H
	DB	068H
	DB	0ffH
	DB	068H
	DB	068H
	DB	068H
	DB	0ffH
	DB	068H
	DB	06cH
	DB	068H
	DB	0ffH
	DB	070H
	DB	06cH
	DB	070H
	DB	0ffH
	DB	070H
	DB	06cH
	DB	070H
	DB	0ffH
	DB	070H
	DB	070H
	DB	070H
	DB	0ffH
	DB	070H
	DB	074H
	DB	070H
	DB	0ffH
	DB	070H
	DB	074H
	DB	070H
	DB	0ffH
	DB	078H
	DB	074H
	DB	078H
	DB	0ffH
	DB	078H
	DB	078H
	DB	078H
	DB	0ffH
	DB	078H
	DB	07cH
	DB	078H
	DB	0ffH
	DB	080H
	DB	07cH
	DB	080H
	DB	0ffH
	DB	080H
	DB	080H
	DB	080H
	DB	0ffH
	DB	080H
	DB	080H
	DB	080H
	DB	0ffH
	DB	080H
	DB	084H
	DB	080H
	DB	0ffH
	DB	088H
	DB	084H
	DB	088H
	DB	0ffH
	DB	088H
	DB	088H
	DB	088H
	DB	0ffH
	DB	088H
	DB	088H
	DB	088H
	DB	0ffH
	DB	088H
	DB	08cH
	DB	088H
	DB	0ffH
	DB	090H
	DB	090H
	DB	090H
	DB	0ffH
	DB	090H
	DB	090H
	DB	090H
	DB	0ffH
	DB	098H
	DB	098H
	DB	098H
	DB	0f7H
	DB	00H
	DB	00H
	DB	00H
	DB	020H
	DB	00H
	DB	00H
	DB	00H
	DB	0cH
	DB	00H
	DB	00H
	DB	00H
	DB	08H
	DB	00H
	DB	00H
	DB	00H
	DB	020H
	DB	070H
	DB	070H
	DB	070H
	DB	0c3H
	DB	070H
	DB	070H
	DB	070H
	DB	0ffH
	DB	068H
	DB	068H
	DB	068H
	DB	0ffH
	DB	068H
	DB	064H
	DB	068H
	DB	0ffH
	DB	068H
	DB	064H
	DB	068H
	DB	0ffH
	DB	068H
	DB	068H
	DB	068H
	DB	0ffH
	DB	068H
	DB	068H
	DB	068H
	DB	0ffH
	DB	068H
	DB	068H
	DB	068H
	DB	0ffH
	DB	068H
	DB	068H
	DB	068H
	DB	0ffH
	DB	068H
	DB	06cH
	DB	068H
	DB	0ffH
	DB	070H
	DB	06cH
	DB	070H
	DB	0ffH
	DB	070H
	DB	06cH
	DB	070H
	DB	0ffH
	DB	070H
	DB	070H
	DB	070H
	DB	0ffH
	DB	070H
	DB	070H
	DB	070H
	DB	0ffH
	DB	078H
	DB	074H
	DB	078H
	DB	0ffH
	DB	078H
	DB	078H
	DB	078H
	DB	0ffH
	DB	078H
	DB	078H
	DB	078H
	DB	0ffH
	DB	078H
	DB	078H
	DB	078H
	DB	0ffH
	DB	080H
	DB	07cH
	DB	080H
	DB	0ffH
	DB	080H
	DB	080H
	DB	080H
	DB	0ffH
	DB	080H
	DB	080H
	DB	080H
	DB	0ffH
	DB	080H
	DB	080H
	DB	080H
	DB	0ffH
	DB	088H
	DB	084H
	DB	088H
	DB	0ffH
	DB	088H
	DB	088H
	DB	088H
	DB	0ffH
	DB	088H
	DB	088H
	DB	088H
	DB	0ffH
	DB	088H
	DB	088H
	DB	088H
	DB	0ffH
	DB	090H
	DB	08cH
	DB	090H
	DB	0ffH
	DB	090H
	DB	090H
	DB	090H
	DB	0ffH
	DB	098H
	DB	094H
	DB	098H
	DB	0ffH
	DB	090H
	DB	08cH
	DB	090H
	DB	0c3H
	DB	00H
	DB	00H
	DB	00H
	DB	020H
	DB	00H
	DB	00H
	DB	00H
	DB	08H
	DB	00H
	DB	00H
	DB	00H
	DB	08H
	DB	00H
	DB	00H
	DB	00H
	DB	018H
	DB	040H
	DB	040H
	DB	040H
	DB	055H
	DB	070H
	DB	070H
	DB	070H
	DB	0f3H
	DB	068H
	DB	06cH
	DB	068H
	DB	0ffH
	DB	068H
	DB	068H
	DB	068H
	DB	0ffH
	DB	068H
	DB	068H
	DB	068H
	DB	0ffH
	DB	068H
	DB	068H
	DB	068H
	DB	0ffH
	DB	068H
	DB	06cH
	DB	068H
	DB	0ffH
	DB	068H
	DB	068H
	DB	068H
	DB	0ffH
	DB	068H
	DB	06cH
	DB	068H
	DB	0ffH
	DB	070H
	DB	06cH
	DB	070H
	DB	0ffH
	DB	070H
	DB	070H
	DB	070H
	DB	0ffH
	DB	070H
	DB	070H
	DB	070H
	DB	0ffH
	DB	070H
	DB	074H
	DB	070H
	DB	0ffH
	DB	070H
	DB	074H
	DB	070H
	DB	0ffH
	DB	078H
	DB	074H
	DB	078H
	DB	0ffH
	DB	078H
	DB	078H
	DB	078H
	DB	0ffH
	DB	078H
	DB	07cH
	DB	078H
	DB	0ffH
	DB	078H
	DB	07cH
	DB	078H
	DB	0ffH
	DB	080H
	DB	080H
	DB	080H
	DB	0ffH
	DB	080H
	DB	080H
	DB	080H
	DB	0ffH
	DB	080H
	DB	084H
	DB	080H
	DB	0ffH
	DB	080H
	DB	084H
	DB	080H
	DB	0ffH
	DB	088H
	DB	084H
	DB	088H
	DB	0ffH
	DB	088H
	DB	088H
	DB	088H
	DB	0ffH
	DB	088H
	DB	08cH
	DB	088H
	DB	0ffH
	DB	090H
	DB	08cH
	DB	090H
	DB	0ffH
	DB	090H
	DB	090H
	DB	090H
	DB	0ffH
	DB	090H
	DB	094H
	DB	090H
	DB	0ffH
	DB	090H
	DB	094H
	DB	090H
	DB	0f3H
	DB	050H
	DB	050H
	DB	050H
	DB	055H
	DB	00H
	DB	00H
	DB	00H
	DB	018H
	DB	00H
	DB	00H
	DB	00H
	DB	08H
	DB	00H
	DB	00H
	DB	00H
	DB	04H
	DB	00H
	DB	00H
	DB	00H
	DB	010H
	DB	00H
	DB	00H
	DB	00H
	DB	024H
	DB	038H
	DB	038H
	DB	038H
	DB	05dH
	DB	060H
	DB	064H
	DB	060H
	DB	0c7H
	DB	068H
	DB	06cH
	DB	068H
	DB	0f7H
	DB	070H
	DB	06cH
	DB	070H
	DB	0ffH
	DB	070H
	DB	06cH
	DB	070H
	DB	0ffH
	DB	070H
	DB	06cH
	DB	070H
	DB	0ffH
	DB	070H
	DB	070H
	DB	070H
	DB	0ffH
	DB	070H
	DB	070H
	DB	070H
	DB	0ffH
	DB	070H
	DB	074H
	DB	070H
	DB	0ffH
	DB	070H
	DB	074H
	DB	070H
	DB	0ffH
	DB	078H
	DB	074H
	DB	078H
	DB	0ffH
	DB	078H
	DB	078H
	DB	078H
	DB	0ffH
	DB	078H
	DB	078H
	DB	078H
	DB	0ffH
	DB	078H
	DB	07cH
	DB	078H
	DB	0ffH
	DB	080H
	DB	07cH
	DB	080H
	DB	0ffH
	DB	080H
	DB	07cH
	DB	080H
	DB	0ffH
	DB	080H
	DB	080H
	DB	080H
	DB	0ffH
	DB	080H
	DB	084H
	DB	080H
	DB	0ffH
	DB	088H
	DB	084H
	DB	088H
	DB	0ffH
	DB	088H
	DB	088H
	DB	088H
	DB	0ffH
	DB	088H
	DB	088H
	DB	088H
	DB	0ffH
	DB	088H
	DB	08cH
	DB	088H
	DB	0ffH
	DB	088H
	DB	08cH
	DB	088H
	DB	0ffH
	DB	090H
	DB	090H
	DB	090H
	DB	0ffH
	DB	090H
	DB	090H
	DB	090H
	DB	0ffH
	DB	090H
	DB	090H
	DB	090H
	DB	0f7H
	DB	080H
	DB	080H
	DB	080H
	DB	0c7H
	DB	048H
	DB	044H
	DB	048H
	DB	059H
	DB	00H
	DB	00H
	DB	00H
	DB	024H
	DB	00H
	DB	00H
	DB	00H
	DB	010H
	DB	00H
	DB	00H
	DB	00H
	DB	04H
	DB	00H
	DB	00H
	DB	00H
	DB	00H
	DB	00H
	DB	00H
	DB	00H
	DB	08H
	DB	00H
	DB	00H
	DB	00H
	DB	014H
	DB	00H
	DB	00H
	DB	00H
	DB	024H
	DB	00H
	DB	00H
	DB	00H
	DB	034H
	DB	00H
	DB	00H
	DB	00H
	DB	041H
	DB	00H
	DB	00H
	DB	00H
	DB	045H
	DB	00H
	DB	00H
	DB	00H
	DB	045H
	DB	00H
	DB	00H
	DB	00H
	DB	049H
	DB	00H
	DB	00H
	DB	00H
	DB	045H
	DB	00H
	DB	00H
	DB	00H
	DB	045H
	DB	00H
	DB	00H
	DB	00H
	DB	049H
	DB	00H
	DB	00H
	DB	00H
	DB	045H
	DB	00H
	DB	00H
	DB	00H
	DB	045H
	DB	00H
	DB	00H
	DB	00H
	DB	049H
	DB	00H
	DB	00H
	DB	00H
	DB	045H
	DB	00H
	DB	00H
	DB	00H
	DB	045H
	DB	00H
	DB	00H
	DB	00H
	DB	049H
	DB	00H
	DB	00H
	DB	00H
	DB	045H
	DB	00H
	DB	00H
	DB	00H
	DB	045H
	DB	00H
	DB	00H
	DB	00H
	DB	049H
	DB	00H
	DB	00H
	DB	00H
	DB	045H
	DB	00H
	DB	00H
	DB	00H
	DB	045H
	DB	00H
	DB	00H
	DB	00H
	DB	049H
	DB	00H
	DB	00H
	DB	00H
	DB	045H
	DB	00H
	DB	00H
	DB	00H
	DB	045H
	DB	00H
	DB	00H
	DB	00H
	DB	049H
	DB	00H
	DB	00H
	DB	00H
	DB	045H
	DB	00H
	DB	00H
	DB	00H
	DB	041H
	DB	00H
	DB	00H
	DB	00H
	DB	034H
	DB	00H
	DB	00H
	DB	00H
	DB	024H
	DB	00H
	DB	00H
	DB	00H
	DB	014H
	DB	00H
	DB	00H
	DB	00H
	DB	08H
	DB	00H
	DB	00H
	DB	00H
	DB	00H
	DB	00H
	DB	00H
	DB	00H
	DB	00H
	DB	00H
	DB	00H
	DB	00H
	DB	00H
	DB	00H
	DB	00H
	DB	00H
	DB	08H
	DB	00H
	DB	00H
	DB	00H
	DB	010H
	DB	00H
	DB	00H
	DB	00H
	DB	018H
	DB	00H
	DB	00H
	DB	00H
	DB	020H
	DB	00H
	DB	00H
	DB	00H
	DB	024H
	DB	00H
	DB	00H
	DB	00H
	DB	024H
	DB	00H
	DB	00H
	DB	00H
	DB	024H
	DB	00H
	DB	00H
	DB	00H
	DB	024H
	DB	00H
	DB	00H
	DB	00H
	DB	024H
	DB	00H
	DB	00H
	DB	00H
	DB	024H
	DB	00H
	DB	00H
	DB	00H
	DB	024H
	DB	00H
	DB	00H
	DB	00H
	DB	024H
	DB	00H
	DB	00H
	DB	00H
	DB	024H
	DB	00H
	DB	00H
	DB	00H
	DB	024H
	DB	00H
	DB	00H
	DB	00H
	DB	024H
	DB	00H
	DB	00H
	DB	00H
	DB	024H
	DB	00H
	DB	00H
	DB	00H
	DB	024H
	DB	00H
	DB	00H
	DB	00H
	DB	024H
	DB	00H
	DB	00H
	DB	00H
	DB	024H
	DB	00H
	DB	00H
	DB	00H
	DB	024H
	DB	00H
	DB	00H
	DB	00H
	DB	024H
	DB	00H
	DB	00H
	DB	00H
	DB	024H
	DB	00H
	DB	00H
	DB	00H
	DB	024H
	DB	00H
	DB	00H
	DB	00H
	DB	024H
	DB	00H
	DB	00H
	DB	00H
	DB	024H
	DB	00H
	DB	00H
	DB	00H
	DB	020H
	DB	00H
	DB	00H
	DB	00H
	DB	020H
	DB	00H
	DB	00H
	DB	00H
	DB	018H
	DB	00H
	DB	00H
	DB	00H
	DB	010H
	DB	00H
	DB	00H
	DB	00H
	DB	08H
	DB	00H
	DB	00H
	DB	00H
	DB	00H
	DB	00H
	DB	00H
	DB	00H
	DB	00H
	DB	00H
	DB	00H
	DB	00H
	DB	00H
	DB	00H
	DB	00H
	DB	00H
	DB	00H
	DB	00H
	DB	00H
	DB	00H
	DB	00H
	DB	00H
	DB	00H
	DB	00H
	DB	04H
	DB	00H
	DB	00H
	DB	00H
	DB	08H
	DB	00H
	DB	00H
	DB	00H
	DB	08H
	DB	00H
	DB	00H
	DB	00H
	DB	0cH
	DB	00H
	DB	00H
	DB	00H
	DB	0cH
	DB	00H
	DB	00H
	DB	00H
	DB	0cH
	DB	00H
	DB	00H
	DB	00H
	DB	0cH
	DB	00H
	DB	00H
	DB	00H
	DB	0cH
	DB	00H
	DB	00H
	DB	00H
	DB	0cH
	DB	00H
	DB	00H
	DB	00H
	DB	0cH
	DB	00H
	DB	00H
	DB	00H
	DB	0cH
	DB	00H
	DB	00H
	DB	00H
	DB	0cH
	DB	00H
	DB	00H
	DB	00H
	DB	0cH
	DB	00H
	DB	00H
	DB	00H
	DB	0cH
	DB	00H
	DB	00H
	DB	00H
	DB	0cH
	DB	00H
	DB	00H
	DB	00H
	DB	0cH
	DB	00H
	DB	00H
	DB	00H
	DB	0cH
	DB	00H
	DB	00H
	DB	00H
	DB	0cH
	DB	00H
	DB	00H
	DB	00H
	DB	0cH
	DB	00H
	DB	00H
	DB	00H
	DB	0cH
	DB	00H
	DB	00H
	DB	00H
	DB	0cH
	DB	00H
	DB	00H
	DB	00H
	DB	0cH
	DB	00H
	DB	00H
	DB	00H
	DB	0cH
	DB	00H
	DB	00H
	DB	00H
	DB	0cH
	DB	00H
	DB	00H
	DB	00H
	DB	0cH
	DB	00H
	DB	00H
	DB	00H
	DB	0cH
	DB	00H
	DB	00H
	DB	00H
	DB	08H
	DB	00H
	DB	00H
	DB	00H
	DB	04H
	DB	00H
	DB	00H
	DB	00H
	DB	00H
	DB	00H
	DB	00H
	DB	00H
	DB	00H
	DB	00H
	DB	00H
	DB	00H
	DB	00H
CONST	ENDS
END
