; Listing generated by Microsoft (R) Optimizing Compiler Version 19.24.28314.0 

	TITLE	D:\stm_gfx_hacktues_project\smart_home_v2\smart_home\TouchGFX\generated\images\src\__designer\image_Dark_Slider_Horizontal_Small_slider_horizontal_small_fill.cpp
	.686P
	.XMM
	include listing.inc
	.model	flat

INCLUDELIB MSVCRTD
INCLUDELIB OLDNAMES

PUBLIC	?image_dark_slider_horizontal_small_slider_horizontal_small_fill@@3QBEB ; image_dark_slider_horizontal_small_slider_horizontal_small_fill
CONST	SEGMENT
?image_dark_slider_horizontal_small_slider_horizontal_small_fill@@3QBEB DB 090H ; image_dark_slider_horizontal_small_slider_horizontal_small_fill
	DB	094H
	DB	090H
	DB	092H
	DB	028H
	DB	024H
	DB	028H
	DB	0ffH
	DB	028H
	DB	024H
	DB	020H
	DB	0ffH
	DB	020H
	DB	024H
	DB	028H
	DB	0ffH
	DB	028H
	DB	024H
	DB	028H
	DB	0ffH
	DB	028H
	DB	024H
	DB	020H
	DB	0ffH
	DB	020H
	DB	024H
	DB	028H
	DB	0ffH
	DB	028H
	DB	024H
	DB	028H
	DB	0ffH
	DB	028H
	DB	024H
	DB	020H
	DB	0ffH
	DB	020H
	DB	024H
	DB	028H
	DB	0ffH
	DB	028H
	DB	024H
	DB	028H
	DB	0ffH
	DB	028H
	DB	024H
	DB	020H
	DB	0ffH
	DB	020H
	DB	024H
	DB	028H
	DB	0ffH
	DB	028H
	DB	024H
	DB	028H
	DB	0ffH
	DB	028H
	DB	024H
	DB	020H
	DB	0ffH
	DB	020H
	DB	024H
	DB	028H
	DB	0ffH
	DB	028H
	DB	024H
	DB	028H
	DB	0ffH
	DB	028H
	DB	024H
	DB	020H
	DB	0ffH
	DB	020H
	DB	024H
	DB	028H
	DB	0ffH
	DB	028H
	DB	024H
	DB	028H
	DB	0ffH
	DB	028H
	DB	024H
	DB	020H
	DB	0ffH
	DB	020H
	DB	024H
	DB	028H
	DB	0ffH
	DB	028H
	DB	024H
	DB	028H
	DB	0ffH
	DB	028H
	DB	024H
	DB	020H
	DB	0ffH
	DB	020H
	DB	024H
	DB	028H
	DB	0ffH
	DB	028H
	DB	024H
	DB	028H
	DB	0ffH
	DB	028H
	DB	024H
	DB	020H
	DB	0ffH
	DB	020H
	DB	024H
	DB	028H
	DB	0ffH
	DB	028H
	DB	024H
	DB	028H
	DB	0ffH
	DB	028H
	DB	024H
	DB	020H
	DB	0ffH
	DB	020H
	DB	024H
	DB	028H
	DB	0ffH
	DB	028H
	DB	024H
	DB	028H
	DB	0ffH
	DB	028H
	DB	024H
	DB	020H
	DB	0ffH
	DB	020H
	DB	024H
	DB	028H
	DB	0ffH
	DB	028H
	DB	024H
	DB	028H
	DB	0ffH
	DB	028H
	DB	024H
	DB	020H
	DB	0ffH
	DB	020H
	DB	024H
	DB	028H
	DB	0ffH
	DB	028H
	DB	024H
	DB	028H
	DB	0ffH
	DB	028H
	DB	024H
	DB	020H
	DB	0ffH
	DB	020H
	DB	024H
	DB	028H
	DB	0ffH
	DB	028H
	DB	024H
	DB	028H
	DB	0ffH
	DB	028H
	DB	024H
	DB	020H
	DB	0ffH
	DB	020H
	DB	024H
	DB	028H
	DB	0ffH
	DB	028H
	DB	024H
	DB	028H
	DB	0ffH
	DB	028H
	DB	024H
	DB	020H
	DB	0ffH
	DB	020H
	DB	024H
	DB	028H
	DB	0ffH
	DB	028H
	DB	024H
	DB	028H
	DB	0ffH
	DB	028H
	DB	024H
	DB	020H
	DB	0ffH
	DB	020H
	DB	024H
	DB	028H
	DB	0ffH
	DB	028H
	DB	024H
	DB	028H
	DB	0ffH
	DB	028H
	DB	024H
	DB	020H
	DB	0ffH
	DB	020H
	DB	024H
	DB	028H
	DB	0ffH
	DB	028H
	DB	024H
	DB	028H
	DB	0ffH
	DB	028H
	DB	024H
	DB	020H
	DB	0ffH
	DB	020H
	DB	024H
	DB	028H
	DB	0ffH
	DB	028H
	DB	024H
	DB	028H
	DB	0ffH
	DB	028H
	DB	024H
	DB	020H
	DB	0ffH
	DB	020H
	DB	024H
	DB	028H
	DB	0ffH
	DB	028H
	DB	024H
	DB	028H
	DB	0ffH
	DB	028H
	DB	024H
	DB	020H
	DB	0ffH
	DB	020H
	DB	024H
	DB	028H
	DB	0ffH
	DB	028H
	DB	024H
	DB	028H
	DB	0ffH
	DB	028H
	DB	024H
	DB	020H
	DB	0ffH
	DB	020H
	DB	024H
	DB	028H
	DB	0ffH
	DB	028H
	DB	024H
	DB	028H
	DB	0ffH
	DB	028H
	DB	024H
	DB	020H
	DB	0ffH
	DB	020H
	DB	024H
	DB	028H
	DB	0ffH
	DB	028H
	DB	024H
	DB	028H
	DB	0ffH
	DB	028H
	DB	024H
	DB	020H
	DB	0ffH
	DB	020H
	DB	024H
	DB	028H
	DB	0ffH
	DB	028H
	DB	024H
	DB	028H
	DB	0ffH
	DB	028H
	DB	024H
	DB	020H
	DB	0ffH
	DB	020H
	DB	024H
	DB	028H
	DB	0ffH
	DB	028H
	DB	024H
	DB	028H
	DB	0ffH
	DB	028H
	DB	024H
	DB	020H
	DB	0ffH
	DB	020H
	DB	024H
	DB	028H
	DB	0ffH
	DB	028H
	DB	024H
	DB	028H
	DB	0ffH
	DB	028H
	DB	024H
	DB	020H
	DB	0ffH
	DB	020H
	DB	024H
	DB	028H
	DB	0ffH
	DB	028H
	DB	024H
	DB	028H
	DB	0ffH
	DB	028H
	DB	024H
	DB	020H
	DB	0ffH
	DB	020H
	DB	024H
	DB	028H
	DB	0ffH
	DB	028H
	DB	024H
	DB	028H
	DB	0ffH
	DB	028H
	DB	024H
	DB	020H
	DB	0ffH
	DB	020H
	DB	024H
	DB	028H
	DB	0ffH
	DB	028H
	DB	024H
	DB	028H
	DB	0ffH
	DB	028H
	DB	024H
	DB	020H
	DB	0ffH
	DB	020H
	DB	024H
	DB	028H
	DB	0ffH
	DB	028H
	DB	024H
	DB	028H
	DB	0ffH
	DB	028H
	DB	024H
	DB	020H
	DB	0ffH
	DB	020H
	DB	024H
	DB	028H
	DB	0ffH
	DB	028H
	DB	024H
	DB	028H
	DB	0ffH
	DB	028H
	DB	024H
	DB	020H
	DB	0ffH
	DB	020H
	DB	024H
	DB	028H
	DB	0ffH
	DB	028H
	DB	024H
	DB	028H
	DB	0ffH
	DB	028H
	DB	024H
	DB	020H
	DB	0ffH
	DB	020H
	DB	024H
	DB	028H
	DB	0ffH
	DB	028H
	DB	024H
	DB	028H
	DB	0ffH
	DB	028H
	DB	024H
	DB	020H
	DB	0ffH
	DB	020H
	DB	024H
	DB	028H
	DB	0ffH
	DB	028H
	DB	024H
	DB	028H
	DB	0ffH
	DB	028H
	DB	024H
	DB	020H
	DB	0ffH
	DB	020H
	DB	024H
	DB	028H
	DB	0ffH
	DB	028H
	DB	024H
	DB	028H
	DB	0ffH
	DB	028H
	DB	024H
	DB	020H
	DB	0ffH
	DB	020H
	DB	024H
	DB	028H
	DB	0ffH
	DB	028H
	DB	024H
	DB	028H
	DB	0ffH
	DB	028H
	DB	024H
	DB	020H
	DB	0ffH
	DB	020H
	DB	024H
	DB	028H
	DB	0ffH
	DB	028H
	DB	024H
	DB	028H
	DB	0ffH
	DB	028H
	DB	024H
	DB	020H
	DB	0ffH
	DB	020H
	DB	024H
	DB	028H
	DB	0ffH
	DB	028H
	DB	024H
	DB	028H
	DB	0ffH
	DB	028H
	DB	024H
	DB	020H
	DB	0ffH
	DB	020H
	DB	024H
	DB	028H
	DB	0ffH
	DB	028H
	DB	024H
	DB	028H
	DB	0ffH
	DB	028H
	DB	024H
	DB	020H
	DB	0ffH
	DB	020H
	DB	024H
	DB	028H
	DB	0ffH
	DB	028H
	DB	024H
	DB	028H
	DB	0ffH
	DB	028H
	DB	024H
	DB	020H
	DB	0ffH
	DB	020H
	DB	024H
	DB	028H
	DB	0ffH
	DB	028H
	DB	024H
	DB	028H
	DB	0ffH
	DB	028H
	DB	024H
	DB	020H
	DB	0ffH
	DB	020H
	DB	024H
	DB	028H
	DB	0ffH
	DB	028H
	DB	024H
	DB	028H
	DB	0ffH
	DB	028H
	DB	024H
	DB	020H
	DB	0ffH
	DB	020H
	DB	024H
	DB	028H
	DB	0ffH
	DB	028H
	DB	024H
	DB	028H
	DB	0ffH
	DB	028H
	DB	024H
	DB	020H
	DB	0ffH
	DB	020H
	DB	024H
	DB	028H
	DB	0ffH
	DB	028H
	DB	024H
	DB	028H
	DB	0ffH
	DB	028H
	DB	024H
	DB	020H
	DB	0ffH
	DB	020H
	DB	024H
	DB	028H
	DB	0ffH
	DB	028H
	DB	024H
	DB	028H
	DB	0ffH
	DB	028H
	DB	024H
	DB	020H
	DB	0ffH
	DB	020H
	DB	024H
	DB	028H
	DB	0ffH
	DB	028H
	DB	024H
	DB	028H
	DB	0ffH
	DB	028H
	DB	024H
	DB	020H
	DB	0ffH
	DB	020H
	DB	024H
	DB	028H
	DB	0ffH
	DB	028H
	DB	024H
	DB	028H
	DB	0ffH
	DB	028H
	DB	024H
	DB	020H
	DB	0ffH
	DB	020H
	DB	024H
	DB	028H
	DB	0ffH
	DB	028H
	DB	024H
	DB	028H
	DB	0ffH
	DB	028H
	DB	024H
	DB	020H
	DB	0ffH
	DB	020H
	DB	024H
	DB	028H
	DB	0ffH
	DB	028H
	DB	024H
	DB	028H
	DB	0ffH
	DB	028H
	DB	024H
	DB	020H
	DB	0ffH
	DB	020H
	DB	024H
	DB	028H
	DB	0ffH
	DB	028H
	DB	024H
	DB	028H
	DB	0ffH
	DB	028H
	DB	024H
	DB	020H
	DB	0ffH
	DB	020H
	DB	024H
	DB	028H
	DB	0ffH
	DB	028H
	DB	024H
	DB	028H
	DB	0ffH
	DB	028H
	DB	024H
	DB	020H
	DB	0ffH
	DB	020H
	DB	024H
	DB	028H
	DB	0ffH
	DB	028H
	DB	024H
	DB	028H
	DB	0ffH
	DB	028H
	DB	024H
	DB	020H
	DB	0ffH
	DB	020H
	DB	024H
	DB	028H
	DB	0ffH
	DB	028H
	DB	024H
	DB	028H
	DB	0ffH
	DB	028H
	DB	024H
	DB	020H
	DB	0ffH
	DB	020H
	DB	024H
	DB	028H
	DB	0ffH
	DB	028H
	DB	024H
	DB	028H
	DB	0ffH
	DB	028H
	DB	024H
	DB	020H
	DB	0ffH
	DB	020H
	DB	024H
	DB	028H
	DB	0ffH
	DB	028H
	DB	024H
	DB	028H
	DB	0ffH
	DB	028H
	DB	024H
	DB	020H
	DB	0ffH
	DB	020H
	DB	024H
	DB	028H
	DB	0ffH
	DB	028H
	DB	024H
	DB	028H
	DB	0ffH
	DB	028H
	DB	024H
	DB	020H
	DB	0ffH
	DB	020H
	DB	024H
	DB	028H
	DB	0ffH
	DB	028H
	DB	024H
	DB	028H
	DB	0ffH
	DB	028H
	DB	024H
	DB	020H
	DB	0ffH
	DB	020H
	DB	024H
	DB	028H
	DB	0ffH
	DB	028H
	DB	024H
	DB	028H
	DB	0ffH
	DB	028H
	DB	024H
	DB	020H
	DB	0ffH
	DB	020H
	DB	024H
	DB	028H
	DB	0ffH
	DB	028H
	DB	024H
	DB	028H
	DB	0ffH
	DB	028H
	DB	024H
	DB	020H
	DB	0ffH
	DB	020H
	DB	024H
	DB	028H
	DB	0ffH
	DB	028H
	DB	024H
	DB	028H
	DB	0ffH
	DB	028H
	DB	024H
	DB	020H
	DB	0ffH
	DB	020H
	DB	024H
	DB	028H
	DB	0ffH
	DB	028H
	DB	024H
	DB	028H
	DB	0ffH
	DB	028H
	DB	024H
	DB	020H
	DB	0ffH
	DB	020H
	DB	024H
	DB	028H
	DB	0ffH
	DB	028H
	DB	024H
	DB	028H
	DB	0ffH
	DB	028H
	DB	024H
	DB	020H
	DB	0ffH
	DB	020H
	DB	024H
	DB	028H
	DB	0ffH
	DB	028H
	DB	024H
	DB	028H
	DB	0ffH
	DB	028H
	DB	024H
	DB	020H
	DB	0ffH
	DB	020H
	DB	024H
	DB	028H
	DB	0ffH
	DB	028H
	DB	024H
	DB	028H
	DB	0ffH
	DB	028H
	DB	024H
	DB	020H
	DB	0ffH
	DB	020H
	DB	024H
	DB	028H
	DB	0ffH
	DB	090H
	DB	094H
	DB	090H
	DB	092H
	DB	028H
	DB	024H
	DB	028H
	DB	0ffH
	DB	028H
	DB	024H
	DB	020H
	DB	0ffH
	DB	020H
	DB	024H
	DB	028H
	DB	0ffH
	DB	028H
	DB	024H
	DB	028H
	DB	0ffH
	DB	028H
	DB	024H
	DB	020H
	DB	0ffH
	DB	020H
	DB	024H
	DB	028H
	DB	0ffH
	DB	028H
	DB	024H
	DB	028H
	DB	0ffH
	DB	028H
	DB	024H
	DB	020H
	DB	0ffH
	DB	020H
	DB	024H
	DB	028H
	DB	0ffH
	DB	028H
	DB	024H
	DB	028H
	DB	0ffH
	DB	028H
	DB	024H
	DB	020H
	DB	0ffH
	DB	020H
	DB	024H
	DB	028H
	DB	0ffH
	DB	028H
	DB	024H
	DB	028H
	DB	0ffH
	DB	028H
	DB	024H
	DB	020H
	DB	0ffH
	DB	020H
	DB	024H
	DB	028H
	DB	0ffH
	DB	028H
	DB	024H
	DB	028H
	DB	0ffH
	DB	028H
	DB	024H
	DB	020H
	DB	0ffH
	DB	020H
	DB	024H
	DB	028H
	DB	0ffH
	DB	028H
	DB	024H
	DB	028H
	DB	0ffH
	DB	028H
	DB	024H
	DB	020H
	DB	0ffH
	DB	020H
	DB	024H
	DB	028H
	DB	0ffH
	DB	028H
	DB	024H
	DB	028H
	DB	0ffH
	DB	028H
	DB	024H
	DB	020H
	DB	0ffH
	DB	020H
	DB	024H
	DB	028H
	DB	0ffH
	DB	028H
	DB	024H
	DB	028H
	DB	0ffH
	DB	028H
	DB	024H
	DB	020H
	DB	0ffH
	DB	020H
	DB	024H
	DB	028H
	DB	0ffH
	DB	028H
	DB	024H
	DB	028H
	DB	0ffH
	DB	028H
	DB	024H
	DB	020H
	DB	0ffH
	DB	020H
	DB	024H
	DB	028H
	DB	0ffH
	DB	028H
	DB	024H
	DB	028H
	DB	0ffH
	DB	028H
	DB	024H
	DB	020H
	DB	0ffH
	DB	020H
	DB	024H
	DB	028H
	DB	0ffH
	DB	028H
	DB	024H
	DB	028H
	DB	0ffH
	DB	028H
	DB	024H
	DB	020H
	DB	0ffH
	DB	020H
	DB	024H
	DB	028H
	DB	0ffH
	DB	028H
	DB	024H
	DB	028H
	DB	0ffH
	DB	028H
	DB	024H
	DB	020H
	DB	0ffH
	DB	020H
	DB	024H
	DB	028H
	DB	0ffH
	DB	028H
	DB	024H
	DB	028H
	DB	0ffH
	DB	028H
	DB	024H
	DB	020H
	DB	0ffH
	DB	020H
	DB	024H
	DB	028H
	DB	0ffH
	DB	028H
	DB	024H
	DB	028H
	DB	0ffH
	DB	028H
	DB	024H
	DB	020H
	DB	0ffH
	DB	020H
	DB	024H
	DB	028H
	DB	0ffH
	DB	028H
	DB	024H
	DB	028H
	DB	0ffH
	DB	028H
	DB	024H
	DB	020H
	DB	0ffH
	DB	020H
	DB	024H
	DB	028H
	DB	0ffH
	DB	028H
	DB	024H
	DB	028H
	DB	0ffH
	DB	028H
	DB	024H
	DB	020H
	DB	0ffH
	DB	020H
	DB	024H
	DB	028H
	DB	0ffH
	DB	028H
	DB	024H
	DB	028H
	DB	0ffH
	DB	028H
	DB	024H
	DB	020H
	DB	0ffH
	DB	020H
	DB	024H
	DB	028H
	DB	0ffH
	DB	028H
	DB	024H
	DB	028H
	DB	0ffH
	DB	028H
	DB	024H
	DB	020H
	DB	0ffH
	DB	020H
	DB	024H
	DB	028H
	DB	0ffH
	DB	028H
	DB	024H
	DB	028H
	DB	0ffH
	DB	028H
	DB	024H
	DB	020H
	DB	0ffH
	DB	020H
	DB	024H
	DB	028H
	DB	0ffH
	DB	028H
	DB	024H
	DB	028H
	DB	0ffH
	DB	028H
	DB	024H
	DB	020H
	DB	0ffH
	DB	020H
	DB	024H
	DB	028H
	DB	0ffH
	DB	028H
	DB	024H
	DB	028H
	DB	0ffH
	DB	028H
	DB	024H
	DB	020H
	DB	0ffH
	DB	020H
	DB	024H
	DB	028H
	DB	0ffH
	DB	028H
	DB	024H
	DB	028H
	DB	0ffH
	DB	028H
	DB	024H
	DB	020H
	DB	0ffH
	DB	020H
	DB	024H
	DB	028H
	DB	0ffH
	DB	028H
	DB	024H
	DB	028H
	DB	0ffH
	DB	028H
	DB	024H
	DB	020H
	DB	0ffH
	DB	020H
	DB	024H
	DB	028H
	DB	0ffH
	DB	028H
	DB	024H
	DB	028H
	DB	0ffH
	DB	028H
	DB	024H
	DB	020H
	DB	0ffH
	DB	020H
	DB	024H
	DB	028H
	DB	0ffH
	DB	028H
	DB	024H
	DB	028H
	DB	0ffH
	DB	028H
	DB	024H
	DB	020H
	DB	0ffH
	DB	020H
	DB	024H
	DB	028H
	DB	0ffH
	DB	028H
	DB	024H
	DB	028H
	DB	0ffH
	DB	028H
	DB	024H
	DB	020H
	DB	0ffH
	DB	020H
	DB	024H
	DB	028H
	DB	0ffH
	DB	028H
	DB	024H
	DB	028H
	DB	0ffH
	DB	028H
	DB	024H
	DB	020H
	DB	0ffH
	DB	020H
	DB	024H
	DB	028H
	DB	0ffH
	DB	028H
	DB	024H
	DB	028H
	DB	0ffH
	DB	028H
	DB	024H
	DB	020H
	DB	0ffH
	DB	020H
	DB	024H
	DB	028H
	DB	0ffH
	DB	028H
	DB	024H
	DB	028H
	DB	0ffH
	DB	028H
	DB	024H
	DB	020H
	DB	0ffH
	DB	020H
	DB	024H
	DB	028H
	DB	0ffH
	DB	028H
	DB	024H
	DB	028H
	DB	0ffH
	DB	028H
	DB	024H
	DB	020H
	DB	0ffH
	DB	020H
	DB	024H
	DB	028H
	DB	0ffH
	DB	028H
	DB	024H
	DB	028H
	DB	0ffH
	DB	028H
	DB	024H
	DB	020H
	DB	0ffH
	DB	020H
	DB	024H
	DB	028H
	DB	0ffH
	DB	028H
	DB	024H
	DB	028H
	DB	0ffH
	DB	028H
	DB	024H
	DB	020H
	DB	0ffH
	DB	020H
	DB	024H
	DB	028H
	DB	0ffH
	DB	028H
	DB	024H
	DB	028H
	DB	0ffH
	DB	028H
	DB	024H
	DB	020H
	DB	0ffH
	DB	020H
	DB	024H
	DB	028H
	DB	0ffH
	DB	028H
	DB	024H
	DB	028H
	DB	0ffH
	DB	028H
	DB	024H
	DB	020H
	DB	0ffH
	DB	020H
	DB	024H
	DB	028H
	DB	0ffH
	DB	028H
	DB	024H
	DB	028H
	DB	0ffH
	DB	028H
	DB	024H
	DB	020H
	DB	0ffH
	DB	020H
	DB	024H
	DB	028H
	DB	0ffH
	DB	028H
	DB	024H
	DB	028H
	DB	0ffH
	DB	028H
	DB	024H
	DB	020H
	DB	0ffH
	DB	020H
	DB	024H
	DB	028H
	DB	0ffH
	DB	028H
	DB	024H
	DB	028H
	DB	0ffH
	DB	028H
	DB	024H
	DB	020H
	DB	0ffH
	DB	020H
	DB	024H
	DB	028H
	DB	0ffH
	DB	028H
	DB	024H
	DB	028H
	DB	0ffH
	DB	028H
	DB	024H
	DB	020H
	DB	0ffH
	DB	020H
	DB	024H
	DB	028H
	DB	0ffH
	DB	028H
	DB	024H
	DB	028H
	DB	0ffH
	DB	028H
	DB	024H
	DB	020H
	DB	0ffH
	DB	020H
	DB	024H
	DB	028H
	DB	0ffH
	DB	028H
	DB	024H
	DB	028H
	DB	0ffH
	DB	028H
	DB	024H
	DB	020H
	DB	0ffH
	DB	020H
	DB	024H
	DB	028H
	DB	0ffH
	DB	028H
	DB	024H
	DB	028H
	DB	0ffH
	DB	028H
	DB	024H
	DB	020H
	DB	0ffH
	DB	020H
	DB	024H
	DB	028H
	DB	0ffH
	DB	028H
	DB	024H
	DB	028H
	DB	0ffH
	DB	028H
	DB	024H
	DB	020H
	DB	0ffH
	DB	020H
	DB	024H
	DB	028H
	DB	0ffH
	DB	028H
	DB	024H
	DB	028H
	DB	0ffH
	DB	028H
	DB	024H
	DB	020H
	DB	0ffH
	DB	020H
	DB	024H
	DB	028H
	DB	0ffH
	DB	028H
	DB	024H
	DB	028H
	DB	0ffH
	DB	028H
	DB	024H
	DB	020H
	DB	0ffH
	DB	020H
	DB	024H
	DB	028H
	DB	0ffH
	DB	028H
	DB	024H
	DB	028H
	DB	0ffH
	DB	028H
	DB	024H
	DB	020H
	DB	0ffH
	DB	020H
	DB	024H
	DB	028H
	DB	0ffH
	DB	028H
	DB	024H
	DB	028H
	DB	0ffH
	DB	028H
	DB	024H
	DB	020H
	DB	0ffH
	DB	020H
	DB	024H
	DB	028H
	DB	0ffH
	DB	028H
	DB	024H
	DB	028H
	DB	0ffH
	DB	028H
	DB	024H
	DB	020H
	DB	0ffH
	DB	020H
	DB	024H
	DB	028H
	DB	0ffH
	DB	028H
	DB	024H
	DB	028H
	DB	0ffH
	DB	028H
	DB	024H
	DB	020H
	DB	0ffH
	DB	020H
	DB	024H
	DB	028H
	DB	0ffH
	DB	028H
	DB	024H
	DB	028H
	DB	0ffH
	DB	028H
	DB	024H
	DB	020H
	DB	0ffH
	DB	020H
	DB	024H
	DB	028H
	DB	0ffH
	DB	028H
	DB	024H
	DB	028H
	DB	0ffH
	DB	028H
	DB	024H
	DB	020H
	DB	0ffH
	DB	020H
	DB	024H
	DB	028H
	DB	0ffH
	DB	028H
	DB	024H
	DB	028H
	DB	0ffH
	DB	028H
	DB	024H
	DB	020H
	DB	0ffH
	DB	020H
	DB	024H
	DB	028H
	DB	0ffH
	DB	028H
	DB	024H
	DB	028H
	DB	0ffH
	DB	028H
	DB	024H
	DB	020H
	DB	0ffH
	DB	020H
	DB	024H
	DB	028H
	DB	0ffH
	DB	028H
	DB	024H
	DB	028H
	DB	0ffH
	DB	028H
	DB	024H
	DB	020H
	DB	0ffH
	DB	020H
	DB	024H
	DB	028H
	DB	0ffH
	DB	028H
	DB	024H
	DB	028H
	DB	0ffH
	DB	028H
	DB	024H
	DB	020H
	DB	0ffH
	DB	020H
	DB	024H
	DB	028H
	DB	0ffH
	DB	028H
	DB	024H
	DB	028H
	DB	0ffH
	DB	028H
	DB	024H
	DB	020H
	DB	0ffH
	DB	020H
	DB	024H
	DB	028H
	DB	0ffH
	DB	028H
	DB	024H
	DB	028H
	DB	0ffH
	DB	028H
	DB	024H
	DB	020H
	DB	0ffH
	DB	020H
	DB	024H
	DB	028H
	DB	0ffH
	DB	028H
	DB	024H
	DB	028H
	DB	0ffH
	DB	028H
	DB	024H
	DB	020H
	DB	0ffH
	DB	020H
	DB	024H
	DB	028H
	DB	0ffH
	DB	028H
	DB	024H
	DB	028H
	DB	0ffH
	DB	028H
	DB	024H
	DB	020H
	DB	0ffH
	DB	020H
	DB	024H
	DB	028H
	DB	0ffH
	DB	028H
	DB	024H
	DB	028H
	DB	0ffH
	DB	028H
	DB	024H
	DB	020H
	DB	0ffH
	DB	020H
	DB	024H
	DB	028H
	DB	0ffH
	DB	028H
	DB	024H
	DB	028H
	DB	0ffH
	DB	028H
	DB	024H
	DB	020H
	DB	0ffH
	DB	020H
	DB	024H
	DB	028H
	DB	0ffH
	DB	028H
	DB	024H
	DB	028H
	DB	0ffH
	DB	028H
	DB	024H
	DB	020H
	DB	0ffH
	DB	020H
	DB	024H
	DB	028H
	DB	0ffH
	DB	028H
	DB	024H
	DB	028H
	DB	0ffH
	DB	028H
	DB	024H
	DB	020H
	DB	0ffH
	DB	020H
	DB	024H
	DB	028H
	DB	0ffH
	DB	028H
	DB	024H
	DB	028H
	DB	0ffH
	DB	028H
	DB	024H
	DB	020H
	DB	0ffH
	DB	020H
	DB	024H
	DB	028H
	DB	0ffH
	DB	090H
	DB	094H
	DB	090H
	DB	096H
	DB	028H
	DB	024H
	DB	020H
	DB	0ffH
	DB	028H
	DB	024H
	DB	028H
	DB	0ffH
	DB	040H
	DB	040H
	DB	040H
	DB	0ffH
	DB	040H
	DB	044H
	DB	040H
	DB	0ffH
	DB	040H
	DB	044H
	DB	040H
	DB	0ffH
	DB	040H
	DB	044H
	DB	040H
	DB	0ffH
	DB	040H
	DB	044H
	DB	040H
	DB	0ffH
	DB	048H
	DB	044H
	DB	048H
	DB	0ffH
	DB	040H
	DB	044H
	DB	040H
	DB	0ffH
	DB	040H
	DB	044H
	DB	040H
	DB	0ffH
	DB	040H
	DB	044H
	DB	040H
	DB	0ffH
	DB	048H
	DB	044H
	DB	048H
	DB	0ffH
	DB	040H
	DB	044H
	DB	040H
	DB	0ffH
	DB	040H
	DB	044H
	DB	040H
	DB	0ffH
	DB	040H
	DB	044H
	DB	040H
	DB	0ffH
	DB	048H
	DB	044H
	DB	048H
	DB	0ffH
	DB	040H
	DB	044H
	DB	040H
	DB	0ffH
	DB	040H
	DB	044H
	DB	040H
	DB	0ffH
	DB	040H
	DB	044H
	DB	040H
	DB	0ffH
	DB	048H
	DB	044H
	DB	048H
	DB	0ffH
	DB	040H
	DB	044H
	DB	040H
	DB	0ffH
	DB	040H
	DB	044H
	DB	040H
	DB	0ffH
	DB	040H
	DB	044H
	DB	040H
	DB	0ffH
	DB	048H
	DB	044H
	DB	048H
	DB	0ffH
	DB	040H
	DB	044H
	DB	040H
	DB	0ffH
	DB	040H
	DB	044H
	DB	040H
	DB	0ffH
	DB	040H
	DB	044H
	DB	040H
	DB	0ffH
	DB	048H
	DB	044H
	DB	048H
	DB	0ffH
	DB	040H
	DB	044H
	DB	040H
	DB	0ffH
	DB	040H
	DB	044H
	DB	040H
	DB	0ffH
	DB	040H
	DB	044H
	DB	040H
	DB	0ffH
	DB	048H
	DB	044H
	DB	048H
	DB	0ffH
	DB	040H
	DB	044H
	DB	040H
	DB	0ffH
	DB	040H
	DB	044H
	DB	040H
	DB	0ffH
	DB	040H
	DB	044H
	DB	040H
	DB	0ffH
	DB	048H
	DB	044H
	DB	048H
	DB	0ffH
	DB	040H
	DB	044H
	DB	040H
	DB	0ffH
	DB	040H
	DB	044H
	DB	040H
	DB	0ffH
	DB	040H
	DB	044H
	DB	040H
	DB	0ffH
	DB	048H
	DB	044H
	DB	048H
	DB	0ffH
	DB	040H
	DB	044H
	DB	040H
	DB	0ffH
	DB	040H
	DB	044H
	DB	040H
	DB	0ffH
	DB	040H
	DB	044H
	DB	040H
	DB	0ffH
	DB	048H
	DB	044H
	DB	048H
	DB	0ffH
	DB	040H
	DB	044H
	DB	040H
	DB	0ffH
	DB	040H
	DB	044H
	DB	040H
	DB	0ffH
	DB	040H
	DB	044H
	DB	040H
	DB	0ffH
	DB	048H
	DB	044H
	DB	048H
	DB	0ffH
	DB	040H
	DB	044H
	DB	040H
	DB	0ffH
	DB	040H
	DB	044H
	DB	040H
	DB	0ffH
	DB	040H
	DB	044H
	DB	040H
	DB	0ffH
	DB	048H
	DB	044H
	DB	048H
	DB	0ffH
	DB	040H
	DB	044H
	DB	040H
	DB	0ffH
	DB	040H
	DB	044H
	DB	040H
	DB	0ffH
	DB	040H
	DB	044H
	DB	040H
	DB	0ffH
	DB	048H
	DB	044H
	DB	048H
	DB	0ffH
	DB	040H
	DB	044H
	DB	040H
	DB	0ffH
	DB	040H
	DB	044H
	DB	040H
	DB	0ffH
	DB	040H
	DB	044H
	DB	040H
	DB	0ffH
	DB	048H
	DB	044H
	DB	048H
	DB	0ffH
	DB	040H
	DB	044H
	DB	040H
	DB	0ffH
	DB	040H
	DB	044H
	DB	040H
	DB	0ffH
	DB	040H
	DB	044H
	DB	040H
	DB	0ffH
	DB	048H
	DB	044H
	DB	048H
	DB	0ffH
	DB	040H
	DB	044H
	DB	040H
	DB	0ffH
	DB	040H
	DB	044H
	DB	040H
	DB	0ffH
	DB	040H
	DB	044H
	DB	040H
	DB	0ffH
	DB	048H
	DB	044H
	DB	048H
	DB	0ffH
	DB	040H
	DB	044H
	DB	040H
	DB	0ffH
	DB	040H
	DB	044H
	DB	040H
	DB	0ffH
	DB	040H
	DB	044H
	DB	040H
	DB	0ffH
	DB	048H
	DB	044H
	DB	048H
	DB	0ffH
	DB	040H
	DB	044H
	DB	040H
	DB	0ffH
	DB	040H
	DB	044H
	DB	040H
	DB	0ffH
	DB	040H
	DB	044H
	DB	040H
	DB	0ffH
	DB	048H
	DB	044H
	DB	048H
	DB	0ffH
	DB	040H
	DB	044H
	DB	040H
	DB	0ffH
	DB	040H
	DB	044H
	DB	040H
	DB	0ffH
	DB	040H
	DB	044H
	DB	040H
	DB	0ffH
	DB	048H
	DB	044H
	DB	048H
	DB	0ffH
	DB	040H
	DB	044H
	DB	040H
	DB	0ffH
	DB	040H
	DB	044H
	DB	040H
	DB	0ffH
	DB	040H
	DB	044H
	DB	040H
	DB	0ffH
	DB	048H
	DB	044H
	DB	048H
	DB	0ffH
	DB	040H
	DB	044H
	DB	040H
	DB	0ffH
	DB	040H
	DB	044H
	DB	040H
	DB	0ffH
	DB	040H
	DB	044H
	DB	040H
	DB	0ffH
	DB	048H
	DB	044H
	DB	048H
	DB	0ffH
	DB	040H
	DB	044H
	DB	040H
	DB	0ffH
	DB	040H
	DB	044H
	DB	040H
	DB	0ffH
	DB	040H
	DB	044H
	DB	040H
	DB	0ffH
	DB	048H
	DB	044H
	DB	048H
	DB	0ffH
	DB	040H
	DB	044H
	DB	040H
	DB	0ffH
	DB	040H
	DB	044H
	DB	040H
	DB	0ffH
	DB	040H
	DB	044H
	DB	040H
	DB	0ffH
	DB	048H
	DB	044H
	DB	048H
	DB	0ffH
	DB	040H
	DB	044H
	DB	040H
	DB	0ffH
	DB	040H
	DB	044H
	DB	040H
	DB	0ffH
	DB	040H
	DB	044H
	DB	040H
	DB	0ffH
	DB	048H
	DB	044H
	DB	048H
	DB	0ffH
	DB	040H
	DB	044H
	DB	040H
	DB	0ffH
	DB	040H
	DB	044H
	DB	040H
	DB	0ffH
	DB	040H
	DB	044H
	DB	040H
	DB	0ffH
	DB	048H
	DB	044H
	DB	048H
	DB	0ffH
	DB	040H
	DB	044H
	DB	040H
	DB	0ffH
	DB	040H
	DB	044H
	DB	040H
	DB	0ffH
	DB	040H
	DB	044H
	DB	040H
	DB	0ffH
	DB	048H
	DB	044H
	DB	048H
	DB	0ffH
	DB	040H
	DB	044H
	DB	040H
	DB	0ffH
	DB	040H
	DB	044H
	DB	040H
	DB	0ffH
	DB	040H
	DB	044H
	DB	040H
	DB	0ffH
	DB	048H
	DB	044H
	DB	048H
	DB	0ffH
	DB	040H
	DB	044H
	DB	040H
	DB	0ffH
	DB	040H
	DB	044H
	DB	040H
	DB	0ffH
	DB	040H
	DB	044H
	DB	040H
	DB	0ffH
	DB	048H
	DB	044H
	DB	048H
	DB	0ffH
	DB	040H
	DB	044H
	DB	040H
	DB	0ffH
	DB	040H
	DB	044H
	DB	040H
	DB	0ffH
	DB	040H
	DB	044H
	DB	040H
	DB	0ffH
	DB	048H
	DB	044H
	DB	048H
	DB	0ffH
	DB	040H
	DB	044H
	DB	040H
	DB	0ffH
	DB	040H
	DB	044H
	DB	040H
	DB	0ffH
	DB	040H
	DB	044H
	DB	040H
	DB	0ffH
	DB	048H
	DB	044H
	DB	048H
	DB	0ffH
	DB	040H
	DB	044H
	DB	040H
	DB	0ffH
	DB	040H
	DB	044H
	DB	040H
	DB	0ffH
	DB	040H
	DB	044H
	DB	040H
	DB	0ffH
	DB	048H
	DB	044H
	DB	048H
	DB	0ffH
	DB	040H
	DB	044H
	DB	040H
	DB	0ffH
	DB	040H
	DB	044H
	DB	040H
	DB	0ffH
	DB	040H
	DB	044H
	DB	040H
	DB	0ffH
	DB	048H
	DB	044H
	DB	048H
	DB	0ffH
	DB	040H
	DB	044H
	DB	040H
	DB	0ffH
	DB	040H
	DB	044H
	DB	040H
	DB	0ffH
	DB	040H
	DB	044H
	DB	040H
	DB	0ffH
	DB	048H
	DB	044H
	DB	048H
	DB	0ffH
	DB	040H
	DB	044H
	DB	040H
	DB	0ffH
	DB	040H
	DB	044H
	DB	040H
	DB	0ffH
	DB	040H
	DB	044H
	DB	040H
	DB	0ffH
	DB	048H
	DB	044H
	DB	048H
	DB	0ffH
	DB	040H
	DB	044H
	DB	040H
	DB	0ffH
	DB	040H
	DB	044H
	DB	040H
	DB	0ffH
	DB	040H
	DB	044H
	DB	040H
	DB	0ffH
	DB	048H
	DB	044H
	DB	048H
	DB	0ffH
	DB	040H
	DB	044H
	DB	040H
	DB	0ffH
	DB	040H
	DB	044H
	DB	040H
	DB	0ffH
	DB	040H
	DB	044H
	DB	040H
	DB	0ffH
	DB	048H
	DB	044H
	DB	048H
	DB	0ffH
	DB	040H
	DB	044H
	DB	040H
	DB	0ffH
	DB	040H
	DB	044H
	DB	040H
	DB	0ffH
	DB	040H
	DB	044H
	DB	040H
	DB	0ffH
	DB	048H
	DB	044H
	DB	048H
	DB	0ffH
	DB	040H
	DB	044H
	DB	040H
	DB	0ffH
	DB	040H
	DB	044H
	DB	040H
	DB	0ffH
	DB	040H
	DB	044H
	DB	040H
	DB	0ffH
	DB	048H
	DB	044H
	DB	048H
	DB	0ffH
	DB	040H
	DB	044H
	DB	040H
	DB	0ffH
	DB	040H
	DB	044H
	DB	040H
	DB	0ffH
	DB	040H
	DB	044H
	DB	040H
	DB	0ffH
	DB	048H
	DB	044H
	DB	048H
	DB	0ffH
	DB	040H
	DB	044H
	DB	040H
	DB	0ffH
	DB	040H
	DB	044H
	DB	040H
	DB	0ffH
	DB	040H
	DB	044H
	DB	040H
	DB	0ffH
	DB	048H
	DB	044H
	DB	048H
	DB	0ffH
	DB	040H
	DB	044H
	DB	040H
	DB	0ffH
	DB	040H
	DB	044H
	DB	040H
	DB	0ffH
	DB	040H
	DB	044H
	DB	040H
	DB	0ffH
	DB	048H
	DB	044H
	DB	048H
	DB	0ffH
	DB	040H
	DB	044H
	DB	040H
	DB	0ffH
	DB	040H
	DB	044H
	DB	040H
	DB	0ffH
	DB	040H
	DB	044H
	DB	040H
	DB	0ffH
	DB	048H
	DB	044H
	DB	048H
	DB	0ffH
	DB	040H
	DB	044H
	DB	040H
	DB	0ffH
	DB	040H
	DB	044H
	DB	040H
	DB	0ffH
	DB	040H
	DB	044H
	DB	040H
	DB	0ffH
	DB	048H
	DB	044H
	DB	048H
	DB	0ffH
	DB	040H
	DB	044H
	DB	040H
	DB	0ffH
	DB	040H
	DB	044H
	DB	040H
	DB	0ffH
	DB	040H
	DB	044H
	DB	040H
	DB	0ffH
	DB	048H
	DB	044H
	DB	048H
	DB	0ffH
	DB	040H
	DB	044H
	DB	040H
	DB	0ffH
	DB	040H
	DB	044H
	DB	040H
	DB	0ffH
	DB	040H
	DB	044H
	DB	040H
	DB	0ffH
	DB	048H
	DB	044H
	DB	048H
	DB	0ffH
	DB	040H
	DB	044H
	DB	040H
	DB	0ffH
	DB	040H
	DB	044H
	DB	040H
	DB	0ffH
	DB	040H
	DB	044H
	DB	040H
	DB	0ffH
	DB	040H
	DB	044H
	DB	040H
	DB	0ffH
	DB	040H
	DB	044H
	DB	040H
	DB	0ffH
	DB	040H
	DB	040H
	DB	040H
	DB	0ffH
	DB	028H
	DB	024H
	DB	028H
	DB	0ffH
	DB	028H
	DB	024H
	DB	020H
	DB	0ffH
	DB	090H
	DB	094H
	DB	090H
	DB	092H
	DB	028H
	DB	024H
	DB	028H
	DB	0ffH
	DB	020H
	DB	024H
	DB	020H
	DB	0ffH
	DB	048H
	DB	044H
	DB	048H
	DB	0ffH
	DB	048H
	DB	048H
	DB	048H
	DB	0ffH
	DB	048H
	DB	048H
	DB	048H
	DB	0ffH
	DB	048H
	DB	04cH
	DB	048H
	DB	0ffH
	DB	048H
	DB	04cH
	DB	048H
	DB	0ffH
	DB	048H
	DB	04cH
	DB	048H
	DB	0ffH
	DB	048H
	DB	04cH
	DB	048H
	DB	0ffH
	DB	048H
	DB	04cH
	DB	048H
	DB	0ffH
	DB	048H
	DB	04cH
	DB	048H
	DB	0ffH
	DB	048H
	DB	04cH
	DB	048H
	DB	0ffH
	DB	048H
	DB	04cH
	DB	048H
	DB	0ffH
	DB	048H
	DB	04cH
	DB	048H
	DB	0ffH
	DB	048H
	DB	04cH
	DB	048H
	DB	0ffH
	DB	048H
	DB	04cH
	DB	048H
	DB	0ffH
	DB	048H
	DB	04cH
	DB	048H
	DB	0ffH
	DB	048H
	DB	04cH
	DB	048H
	DB	0ffH
	DB	048H
	DB	04cH
	DB	048H
	DB	0ffH
	DB	048H
	DB	04cH
	DB	048H
	DB	0ffH
	DB	048H
	DB	04cH
	DB	048H
	DB	0ffH
	DB	048H
	DB	04cH
	DB	048H
	DB	0ffH
	DB	048H
	DB	04cH
	DB	048H
	DB	0ffH
	DB	048H
	DB	04cH
	DB	048H
	DB	0ffH
	DB	048H
	DB	04cH
	DB	048H
	DB	0ffH
	DB	048H
	DB	04cH
	DB	048H
	DB	0ffH
	DB	048H
	DB	04cH
	DB	048H
	DB	0ffH
	DB	048H
	DB	04cH
	DB	048H
	DB	0ffH
	DB	048H
	DB	04cH
	DB	048H
	DB	0ffH
	DB	048H
	DB	04cH
	DB	048H
	DB	0ffH
	DB	048H
	DB	04cH
	DB	048H
	DB	0ffH
	DB	048H
	DB	04cH
	DB	048H
	DB	0ffH
	DB	048H
	DB	04cH
	DB	048H
	DB	0ffH
	DB	048H
	DB	04cH
	DB	048H
	DB	0ffH
	DB	048H
	DB	04cH
	DB	048H
	DB	0ffH
	DB	048H
	DB	04cH
	DB	048H
	DB	0ffH
	DB	048H
	DB	04cH
	DB	048H
	DB	0ffH
	DB	048H
	DB	04cH
	DB	048H
	DB	0ffH
	DB	048H
	DB	04cH
	DB	048H
	DB	0ffH
	DB	048H
	DB	04cH
	DB	048H
	DB	0ffH
	DB	048H
	DB	04cH
	DB	048H
	DB	0ffH
	DB	048H
	DB	04cH
	DB	048H
	DB	0ffH
	DB	048H
	DB	04cH
	DB	048H
	DB	0ffH
	DB	048H
	DB	04cH
	DB	048H
	DB	0ffH
	DB	048H
	DB	04cH
	DB	048H
	DB	0ffH
	DB	048H
	DB	04cH
	DB	048H
	DB	0ffH
	DB	048H
	DB	04cH
	DB	048H
	DB	0ffH
	DB	048H
	DB	04cH
	DB	048H
	DB	0ffH
	DB	048H
	DB	04cH
	DB	048H
	DB	0ffH
	DB	048H
	DB	04cH
	DB	048H
	DB	0ffH
	DB	048H
	DB	04cH
	DB	048H
	DB	0ffH
	DB	048H
	DB	04cH
	DB	048H
	DB	0ffH
	DB	048H
	DB	04cH
	DB	048H
	DB	0ffH
	DB	048H
	DB	04cH
	DB	048H
	DB	0ffH
	DB	048H
	DB	04cH
	DB	048H
	DB	0ffH
	DB	048H
	DB	04cH
	DB	048H
	DB	0ffH
	DB	048H
	DB	04cH
	DB	048H
	DB	0ffH
	DB	048H
	DB	04cH
	DB	048H
	DB	0ffH
	DB	048H
	DB	04cH
	DB	048H
	DB	0ffH
	DB	048H
	DB	04cH
	DB	048H
	DB	0ffH
	DB	048H
	DB	04cH
	DB	048H
	DB	0ffH
	DB	048H
	DB	04cH
	DB	048H
	DB	0ffH
	DB	048H
	DB	04cH
	DB	048H
	DB	0ffH
	DB	048H
	DB	04cH
	DB	048H
	DB	0ffH
	DB	048H
	DB	04cH
	DB	048H
	DB	0ffH
	DB	048H
	DB	04cH
	DB	048H
	DB	0ffH
	DB	048H
	DB	04cH
	DB	048H
	DB	0ffH
	DB	048H
	DB	04cH
	DB	048H
	DB	0ffH
	DB	048H
	DB	04cH
	DB	048H
	DB	0ffH
	DB	048H
	DB	04cH
	DB	048H
	DB	0ffH
	DB	048H
	DB	04cH
	DB	048H
	DB	0ffH
	DB	048H
	DB	04cH
	DB	048H
	DB	0ffH
	DB	048H
	DB	04cH
	DB	048H
	DB	0ffH
	DB	048H
	DB	04cH
	DB	048H
	DB	0ffH
	DB	048H
	DB	04cH
	DB	048H
	DB	0ffH
	DB	048H
	DB	04cH
	DB	048H
	DB	0ffH
	DB	048H
	DB	04cH
	DB	048H
	DB	0ffH
	DB	048H
	DB	04cH
	DB	048H
	DB	0ffH
	DB	048H
	DB	04cH
	DB	048H
	DB	0ffH
	DB	048H
	DB	04cH
	DB	048H
	DB	0ffH
	DB	048H
	DB	04cH
	DB	048H
	DB	0ffH
	DB	048H
	DB	04cH
	DB	048H
	DB	0ffH
	DB	048H
	DB	04cH
	DB	048H
	DB	0ffH
	DB	048H
	DB	04cH
	DB	048H
	DB	0ffH
	DB	048H
	DB	04cH
	DB	048H
	DB	0ffH
	DB	048H
	DB	04cH
	DB	048H
	DB	0ffH
	DB	048H
	DB	04cH
	DB	048H
	DB	0ffH
	DB	048H
	DB	04cH
	DB	048H
	DB	0ffH
	DB	048H
	DB	04cH
	DB	048H
	DB	0ffH
	DB	048H
	DB	04cH
	DB	048H
	DB	0ffH
	DB	048H
	DB	04cH
	DB	048H
	DB	0ffH
	DB	048H
	DB	04cH
	DB	048H
	DB	0ffH
	DB	048H
	DB	04cH
	DB	048H
	DB	0ffH
	DB	048H
	DB	04cH
	DB	048H
	DB	0ffH
	DB	048H
	DB	04cH
	DB	048H
	DB	0ffH
	DB	048H
	DB	04cH
	DB	048H
	DB	0ffH
	DB	048H
	DB	04cH
	DB	048H
	DB	0ffH
	DB	048H
	DB	04cH
	DB	048H
	DB	0ffH
	DB	048H
	DB	04cH
	DB	048H
	DB	0ffH
	DB	048H
	DB	04cH
	DB	048H
	DB	0ffH
	DB	048H
	DB	04cH
	DB	048H
	DB	0ffH
	DB	048H
	DB	04cH
	DB	048H
	DB	0ffH
	DB	048H
	DB	04cH
	DB	048H
	DB	0ffH
	DB	048H
	DB	04cH
	DB	048H
	DB	0ffH
	DB	048H
	DB	04cH
	DB	048H
	DB	0ffH
	DB	048H
	DB	04cH
	DB	048H
	DB	0ffH
	DB	048H
	DB	04cH
	DB	048H
	DB	0ffH
	DB	048H
	DB	04cH
	DB	048H
	DB	0ffH
	DB	048H
	DB	04cH
	DB	048H
	DB	0ffH
	DB	048H
	DB	04cH
	DB	048H
	DB	0ffH
	DB	048H
	DB	04cH
	DB	048H
	DB	0ffH
	DB	048H
	DB	04cH
	DB	048H
	DB	0ffH
	DB	048H
	DB	04cH
	DB	048H
	DB	0ffH
	DB	048H
	DB	04cH
	DB	048H
	DB	0ffH
	DB	048H
	DB	04cH
	DB	048H
	DB	0ffH
	DB	048H
	DB	04cH
	DB	048H
	DB	0ffH
	DB	048H
	DB	04cH
	DB	048H
	DB	0ffH
	DB	048H
	DB	04cH
	DB	048H
	DB	0ffH
	DB	048H
	DB	04cH
	DB	048H
	DB	0ffH
	DB	048H
	DB	04cH
	DB	048H
	DB	0ffH
	DB	048H
	DB	04cH
	DB	048H
	DB	0ffH
	DB	048H
	DB	04cH
	DB	048H
	DB	0ffH
	DB	048H
	DB	04cH
	DB	048H
	DB	0ffH
	DB	048H
	DB	04cH
	DB	048H
	DB	0ffH
	DB	048H
	DB	04cH
	DB	048H
	DB	0ffH
	DB	048H
	DB	04cH
	DB	048H
	DB	0ffH
	DB	048H
	DB	04cH
	DB	048H
	DB	0ffH
	DB	048H
	DB	04cH
	DB	048H
	DB	0ffH
	DB	048H
	DB	04cH
	DB	048H
	DB	0ffH
	DB	048H
	DB	04cH
	DB	048H
	DB	0ffH
	DB	048H
	DB	04cH
	DB	048H
	DB	0ffH
	DB	048H
	DB	04cH
	DB	048H
	DB	0ffH
	DB	048H
	DB	04cH
	DB	048H
	DB	0ffH
	DB	048H
	DB	04cH
	DB	048H
	DB	0ffH
	DB	048H
	DB	04cH
	DB	048H
	DB	0ffH
	DB	048H
	DB	04cH
	DB	048H
	DB	0ffH
	DB	048H
	DB	04cH
	DB	048H
	DB	0ffH
	DB	048H
	DB	04cH
	DB	048H
	DB	0ffH
	DB	048H
	DB	04cH
	DB	048H
	DB	0ffH
	DB	048H
	DB	04cH
	DB	048H
	DB	0ffH
	DB	048H
	DB	04cH
	DB	048H
	DB	0ffH
	DB	048H
	DB	04cH
	DB	048H
	DB	0ffH
	DB	048H
	DB	04cH
	DB	048H
	DB	0ffH
	DB	048H
	DB	04cH
	DB	048H
	DB	0ffH
	DB	048H
	DB	04cH
	DB	048H
	DB	0ffH
	DB	048H
	DB	04cH
	DB	048H
	DB	0ffH
	DB	048H
	DB	04cH
	DB	048H
	DB	0ffH
	DB	048H
	DB	04cH
	DB	048H
	DB	0ffH
	DB	048H
	DB	04cH
	DB	048H
	DB	0ffH
	DB	048H
	DB	04cH
	DB	048H
	DB	0ffH
	DB	048H
	DB	04cH
	DB	048H
	DB	0ffH
	DB	048H
	DB	04cH
	DB	048H
	DB	0ffH
	DB	048H
	DB	04cH
	DB	048H
	DB	0ffH
	DB	048H
	DB	04cH
	DB	048H
	DB	0ffH
	DB	048H
	DB	04cH
	DB	048H
	DB	0ffH
	DB	048H
	DB	04cH
	DB	048H
	DB	0ffH
	DB	048H
	DB	04cH
	DB	048H
	DB	0ffH
	DB	048H
	DB	04cH
	DB	048H
	DB	0ffH
	DB	048H
	DB	04cH
	DB	048H
	DB	0ffH
	DB	048H
	DB	04cH
	DB	048H
	DB	0ffH
	DB	048H
	DB	04cH
	DB	048H
	DB	0ffH
	DB	048H
	DB	04cH
	DB	048H
	DB	0ffH
	DB	048H
	DB	04cH
	DB	048H
	DB	0ffH
	DB	048H
	DB	04cH
	DB	048H
	DB	0ffH
	DB	048H
	DB	04cH
	DB	048H
	DB	0ffH
	DB	048H
	DB	04cH
	DB	048H
	DB	0ffH
	DB	048H
	DB	04cH
	DB	048H
	DB	0ffH
	DB	048H
	DB	04cH
	DB	048H
	DB	0ffH
	DB	048H
	DB	04cH
	DB	048H
	DB	0ffH
	DB	048H
	DB	04cH
	DB	048H
	DB	0ffH
	DB	048H
	DB	04cH
	DB	048H
	DB	0ffH
	DB	048H
	DB	04cH
	DB	048H
	DB	0ffH
	DB	048H
	DB	04cH
	DB	048H
	DB	0ffH
	DB	048H
	DB	04cH
	DB	048H
	DB	0ffH
	DB	048H
	DB	04cH
	DB	048H
	DB	0ffH
	DB	048H
	DB	04cH
	DB	048H
	DB	0ffH
	DB	048H
	DB	04cH
	DB	048H
	DB	0ffH
	DB	048H
	DB	04cH
	DB	048H
	DB	0ffH
	DB	048H
	DB	04cH
	DB	048H
	DB	0ffH
	DB	048H
	DB	04cH
	DB	048H
	DB	0ffH
	DB	048H
	DB	04cH
	DB	048H
	DB	0ffH
	DB	048H
	DB	04cH
	DB	048H
	DB	0ffH
	DB	048H
	DB	04cH
	DB	048H
	DB	0ffH
	DB	048H
	DB	04cH
	DB	048H
	DB	0ffH
	DB	048H
	DB	04cH
	DB	048H
	DB	0ffH
	DB	048H
	DB	04cH
	DB	048H
	DB	0ffH
	DB	048H
	DB	04cH
	DB	048H
	DB	0ffH
	DB	048H
	DB	048H
	DB	048H
	DB	0ffH
	DB	048H
	DB	048H
	DB	048H
	DB	0ffH
	DB	048H
	DB	044H
	DB	048H
	DB	0ffH
	DB	020H
	DB	024H
	DB	028H
	DB	0ffH
	DB	028H
	DB	024H
	DB	020H
	DB	0ffH
	DB	098H
	DB	094H
	DB	090H
	DB	092H
	DB	028H
	DB	024H
	DB	028H
	DB	0ffH
	DB	020H
	DB	024H
	DB	020H
	DB	0ffH
	DB	048H
	DB	048H
	DB	048H
	DB	0ffH
	DB	048H
	DB	04cH
	DB	048H
	DB	0ffH
	DB	048H
	DB	04cH
	DB	048H
	DB	0ffH
	DB	050H
	DB	04cH
	DB	050H
	DB	0ffH
	DB	050H
	DB	04cH
	DB	050H
	DB	0ffH
	DB	050H
	DB	04cH
	DB	050H
	DB	0ffH
	DB	050H
	DB	04cH
	DB	050H
	DB	0ffH
	DB	050H
	DB	04cH
	DB	050H
	DB	0ffH
	DB	050H
	DB	04cH
	DB	050H
	DB	0ffH
	DB	050H
	DB	04cH
	DB	050H
	DB	0ffH
	DB	050H
	DB	04cH
	DB	050H
	DB	0ffH
	DB	050H
	DB	04cH
	DB	050H
	DB	0ffH
	DB	050H
	DB	04cH
	DB	050H
	DB	0ffH
	DB	050H
	DB	04cH
	DB	050H
	DB	0ffH
	DB	050H
	DB	04cH
	DB	050H
	DB	0ffH
	DB	050H
	DB	04cH
	DB	050H
	DB	0ffH
	DB	050H
	DB	04cH
	DB	050H
	DB	0ffH
	DB	050H
	DB	04cH
	DB	050H
	DB	0ffH
	DB	050H
	DB	04cH
	DB	050H
	DB	0ffH
	DB	050H
	DB	04cH
	DB	050H
	DB	0ffH
	DB	050H
	DB	04cH
	DB	050H
	DB	0ffH
	DB	050H
	DB	04cH
	DB	050H
	DB	0ffH
	DB	050H
	DB	04cH
	DB	050H
	DB	0ffH
	DB	050H
	DB	04cH
	DB	050H
	DB	0ffH
	DB	050H
	DB	04cH
	DB	050H
	DB	0ffH
	DB	050H
	DB	04cH
	DB	050H
	DB	0ffH
	DB	050H
	DB	04cH
	DB	050H
	DB	0ffH
	DB	050H
	DB	04cH
	DB	050H
	DB	0ffH
	DB	050H
	DB	04cH
	DB	050H
	DB	0ffH
	DB	050H
	DB	04cH
	DB	050H
	DB	0ffH
	DB	050H
	DB	04cH
	DB	050H
	DB	0ffH
	DB	050H
	DB	04cH
	DB	050H
	DB	0ffH
	DB	050H
	DB	04cH
	DB	050H
	DB	0ffH
	DB	050H
	DB	04cH
	DB	050H
	DB	0ffH
	DB	050H
	DB	04cH
	DB	050H
	DB	0ffH
	DB	050H
	DB	04cH
	DB	050H
	DB	0ffH
	DB	050H
	DB	04cH
	DB	050H
	DB	0ffH
	DB	050H
	DB	04cH
	DB	050H
	DB	0ffH
	DB	050H
	DB	04cH
	DB	050H
	DB	0ffH
	DB	050H
	DB	04cH
	DB	050H
	DB	0ffH
	DB	050H
	DB	04cH
	DB	050H
	DB	0ffH
	DB	050H
	DB	04cH
	DB	050H
	DB	0ffH
	DB	050H
	DB	04cH
	DB	050H
	DB	0ffH
	DB	050H
	DB	04cH
	DB	050H
	DB	0ffH
	DB	050H
	DB	04cH
	DB	050H
	DB	0ffH
	DB	050H
	DB	04cH
	DB	050H
	DB	0ffH
	DB	050H
	DB	04cH
	DB	050H
	DB	0ffH
	DB	050H
	DB	04cH
	DB	050H
	DB	0ffH
	DB	050H
	DB	04cH
	DB	050H
	DB	0ffH
	DB	050H
	DB	04cH
	DB	050H
	DB	0ffH
	DB	050H
	DB	04cH
	DB	050H
	DB	0ffH
	DB	050H
	DB	04cH
	DB	050H
	DB	0ffH
	DB	050H
	DB	04cH
	DB	050H
	DB	0ffH
	DB	050H
	DB	04cH
	DB	050H
	DB	0ffH
	DB	050H
	DB	04cH
	DB	050H
	DB	0ffH
	DB	050H
	DB	04cH
	DB	050H
	DB	0ffH
	DB	050H
	DB	04cH
	DB	050H
	DB	0ffH
	DB	050H
	DB	04cH
	DB	050H
	DB	0ffH
	DB	050H
	DB	04cH
	DB	050H
	DB	0ffH
	DB	050H
	DB	04cH
	DB	050H
	DB	0ffH
	DB	050H
	DB	04cH
	DB	050H
	DB	0ffH
	DB	050H
	DB	04cH
	DB	050H
	DB	0ffH
	DB	050H
	DB	04cH
	DB	050H
	DB	0ffH
	DB	050H
	DB	04cH
	DB	050H
	DB	0ffH
	DB	050H
	DB	04cH
	DB	050H
	DB	0ffH
	DB	050H
	DB	04cH
	DB	050H
	DB	0ffH
	DB	050H
	DB	04cH
	DB	050H
	DB	0ffH
	DB	050H
	DB	04cH
	DB	050H
	DB	0ffH
	DB	050H
	DB	04cH
	DB	050H
	DB	0ffH
	DB	050H
	DB	04cH
	DB	050H
	DB	0ffH
	DB	050H
	DB	04cH
	DB	050H
	DB	0ffH
	DB	050H
	DB	04cH
	DB	050H
	DB	0ffH
	DB	050H
	DB	04cH
	DB	050H
	DB	0ffH
	DB	050H
	DB	04cH
	DB	050H
	DB	0ffH
	DB	050H
	DB	04cH
	DB	050H
	DB	0ffH
	DB	050H
	DB	04cH
	DB	050H
	DB	0ffH
	DB	050H
	DB	04cH
	DB	050H
	DB	0ffH
	DB	050H
	DB	04cH
	DB	050H
	DB	0ffH
	DB	050H
	DB	04cH
	DB	050H
	DB	0ffH
	DB	050H
	DB	04cH
	DB	050H
	DB	0ffH
	DB	050H
	DB	04cH
	DB	050H
	DB	0ffH
	DB	050H
	DB	04cH
	DB	050H
	DB	0ffH
	DB	050H
	DB	04cH
	DB	050H
	DB	0ffH
	DB	050H
	DB	04cH
	DB	050H
	DB	0ffH
	DB	050H
	DB	04cH
	DB	050H
	DB	0ffH
	DB	050H
	DB	04cH
	DB	050H
	DB	0ffH
	DB	050H
	DB	04cH
	DB	050H
	DB	0ffH
	DB	050H
	DB	04cH
	DB	050H
	DB	0ffH
	DB	050H
	DB	04cH
	DB	050H
	DB	0ffH
	DB	050H
	DB	04cH
	DB	050H
	DB	0ffH
	DB	050H
	DB	04cH
	DB	050H
	DB	0ffH
	DB	050H
	DB	04cH
	DB	050H
	DB	0ffH
	DB	050H
	DB	04cH
	DB	050H
	DB	0ffH
	DB	050H
	DB	04cH
	DB	050H
	DB	0ffH
	DB	050H
	DB	04cH
	DB	050H
	DB	0ffH
	DB	050H
	DB	04cH
	DB	050H
	DB	0ffH
	DB	050H
	DB	04cH
	DB	050H
	DB	0ffH
	DB	050H
	DB	04cH
	DB	050H
	DB	0ffH
	DB	050H
	DB	04cH
	DB	050H
	DB	0ffH
	DB	050H
	DB	04cH
	DB	050H
	DB	0ffH
	DB	050H
	DB	04cH
	DB	050H
	DB	0ffH
	DB	050H
	DB	04cH
	DB	050H
	DB	0ffH
	DB	050H
	DB	04cH
	DB	050H
	DB	0ffH
	DB	050H
	DB	04cH
	DB	050H
	DB	0ffH
	DB	050H
	DB	04cH
	DB	050H
	DB	0ffH
	DB	050H
	DB	04cH
	DB	050H
	DB	0ffH
	DB	050H
	DB	04cH
	DB	050H
	DB	0ffH
	DB	050H
	DB	04cH
	DB	050H
	DB	0ffH
	DB	050H
	DB	04cH
	DB	050H
	DB	0ffH
	DB	050H
	DB	04cH
	DB	050H
	DB	0ffH
	DB	050H
	DB	04cH
	DB	050H
	DB	0ffH
	DB	050H
	DB	04cH
	DB	050H
	DB	0ffH
	DB	050H
	DB	04cH
	DB	050H
	DB	0ffH
	DB	050H
	DB	04cH
	DB	050H
	DB	0ffH
	DB	050H
	DB	04cH
	DB	050H
	DB	0ffH
	DB	050H
	DB	04cH
	DB	050H
	DB	0ffH
	DB	050H
	DB	04cH
	DB	050H
	DB	0ffH
	DB	050H
	DB	04cH
	DB	050H
	DB	0ffH
	DB	050H
	DB	04cH
	DB	050H
	DB	0ffH
	DB	050H
	DB	04cH
	DB	050H
	DB	0ffH
	DB	050H
	DB	04cH
	DB	050H
	DB	0ffH
	DB	050H
	DB	04cH
	DB	050H
	DB	0ffH
	DB	050H
	DB	04cH
	DB	050H
	DB	0ffH
	DB	050H
	DB	04cH
	DB	050H
	DB	0ffH
	DB	050H
	DB	04cH
	DB	050H
	DB	0ffH
	DB	050H
	DB	04cH
	DB	050H
	DB	0ffH
	DB	050H
	DB	04cH
	DB	050H
	DB	0ffH
	DB	050H
	DB	04cH
	DB	050H
	DB	0ffH
	DB	050H
	DB	04cH
	DB	050H
	DB	0ffH
	DB	050H
	DB	04cH
	DB	050H
	DB	0ffH
	DB	050H
	DB	04cH
	DB	050H
	DB	0ffH
	DB	050H
	DB	04cH
	DB	050H
	DB	0ffH
	DB	050H
	DB	04cH
	DB	050H
	DB	0ffH
	DB	050H
	DB	04cH
	DB	050H
	DB	0ffH
	DB	050H
	DB	04cH
	DB	050H
	DB	0ffH
	DB	050H
	DB	04cH
	DB	050H
	DB	0ffH
	DB	050H
	DB	04cH
	DB	050H
	DB	0ffH
	DB	050H
	DB	04cH
	DB	050H
	DB	0ffH
	DB	050H
	DB	04cH
	DB	050H
	DB	0ffH
	DB	050H
	DB	04cH
	DB	050H
	DB	0ffH
	DB	050H
	DB	04cH
	DB	050H
	DB	0ffH
	DB	050H
	DB	04cH
	DB	050H
	DB	0ffH
	DB	050H
	DB	04cH
	DB	050H
	DB	0ffH
	DB	050H
	DB	04cH
	DB	050H
	DB	0ffH
	DB	050H
	DB	04cH
	DB	050H
	DB	0ffH
	DB	050H
	DB	04cH
	DB	050H
	DB	0ffH
	DB	050H
	DB	04cH
	DB	050H
	DB	0ffH
	DB	050H
	DB	04cH
	DB	050H
	DB	0ffH
	DB	050H
	DB	04cH
	DB	050H
	DB	0ffH
	DB	050H
	DB	04cH
	DB	050H
	DB	0ffH
	DB	050H
	DB	04cH
	DB	050H
	DB	0ffH
	DB	050H
	DB	04cH
	DB	050H
	DB	0ffH
	DB	050H
	DB	04cH
	DB	050H
	DB	0ffH
	DB	050H
	DB	04cH
	DB	050H
	DB	0ffH
	DB	050H
	DB	04cH
	DB	050H
	DB	0ffH
	DB	050H
	DB	04cH
	DB	050H
	DB	0ffH
	DB	050H
	DB	04cH
	DB	050H
	DB	0ffH
	DB	050H
	DB	04cH
	DB	050H
	DB	0ffH
	DB	050H
	DB	04cH
	DB	050H
	DB	0ffH
	DB	050H
	DB	04cH
	DB	050H
	DB	0ffH
	DB	050H
	DB	04cH
	DB	050H
	DB	0ffH
	DB	050H
	DB	04cH
	DB	050H
	DB	0ffH
	DB	050H
	DB	04cH
	DB	050H
	DB	0ffH
	DB	050H
	DB	04cH
	DB	050H
	DB	0ffH
	DB	050H
	DB	04cH
	DB	050H
	DB	0ffH
	DB	050H
	DB	04cH
	DB	050H
	DB	0ffH
	DB	050H
	DB	04cH
	DB	050H
	DB	0ffH
	DB	050H
	DB	04cH
	DB	050H
	DB	0ffH
	DB	050H
	DB	04cH
	DB	050H
	DB	0ffH
	DB	050H
	DB	04cH
	DB	050H
	DB	0ffH
	DB	050H
	DB	04cH
	DB	050H
	DB	0ffH
	DB	050H
	DB	04cH
	DB	050H
	DB	0ffH
	DB	050H
	DB	04cH
	DB	050H
	DB	0ffH
	DB	050H
	DB	04cH
	DB	050H
	DB	0ffH
	DB	050H
	DB	04cH
	DB	050H
	DB	0ffH
	DB	050H
	DB	04cH
	DB	050H
	DB	0ffH
	DB	050H
	DB	04cH
	DB	050H
	DB	0ffH
	DB	050H
	DB	04cH
	DB	050H
	DB	0ffH
	DB	050H
	DB	04cH
	DB	050H
	DB	0ffH
	DB	050H
	DB	04cH
	DB	050H
	DB	0ffH
	DB	050H
	DB	04cH
	DB	050H
	DB	0ffH
	DB	050H
	DB	04cH
	DB	050H
	DB	0ffH
	DB	050H
	DB	04cH
	DB	050H
	DB	0ffH
	DB	050H
	DB	04cH
	DB	050H
	DB	0ffH
	DB	050H
	DB	04cH
	DB	050H
	DB	0ffH
	DB	048H
	DB	04cH
	DB	048H
	DB	0ffH
	DB	048H
	DB	048H
	DB	048H
	DB	0ffH
	DB	048H
	DB	048H
	DB	048H
	DB	0ffH
	DB	028H
	DB	028H
	DB	028H
	DB	0ffH
	DB	020H
	DB	024H
	DB	028H
	DB	0ffH
	DB	090H
	DB	094H
	DB	090H
	DB	096H
	DB	028H
	DB	024H
	DB	020H
	DB	0ffH
	DB	028H
	DB	024H
	DB	028H
	DB	0ffH
	DB	048H
	DB	04cH
	DB	048H
	DB	0ffH
	DB	050H
	DB	04cH
	DB	050H
	DB	0ffH
	DB	050H
	DB	04cH
	DB	050H
	DB	0ffH
	DB	050H
	DB	04cH
	DB	050H
	DB	0ffH
	DB	050H
	DB	04cH
	DB	050H
	DB	0ffH
	DB	048H
	DB	04cH
	DB	048H
	DB	0ffH
	DB	050H
	DB	04cH
	DB	050H
	DB	0ffH
	DB	050H
	DB	04cH
	DB	050H
	DB	0ffH
	DB	048H
	DB	04cH
	DB	048H
	DB	0ffH
	DB	050H
	DB	04cH
	DB	050H
	DB	0ffH
	DB	050H
	DB	04cH
	DB	050H
	DB	0ffH
	DB	048H
	DB	04cH
	DB	048H
	DB	0ffH
	DB	050H
	DB	04cH
	DB	050H
	DB	0ffH
	DB	050H
	DB	04cH
	DB	050H
	DB	0ffH
	DB	048H
	DB	04cH
	DB	048H
	DB	0ffH
	DB	050H
	DB	04cH
	DB	050H
	DB	0ffH
	DB	050H
	DB	04cH
	DB	050H
	DB	0ffH
	DB	048H
	DB	04cH
	DB	048H
	DB	0ffH
	DB	050H
	DB	04cH
	DB	050H
	DB	0ffH
	DB	050H
	DB	04cH
	DB	050H
	DB	0ffH
	DB	048H
	DB	04cH
	DB	048H
	DB	0ffH
	DB	050H
	DB	04cH
	DB	050H
	DB	0ffH
	DB	050H
	DB	04cH
	DB	050H
	DB	0ffH
	DB	048H
	DB	04cH
	DB	048H
	DB	0ffH
	DB	050H
	DB	04cH
	DB	050H
	DB	0ffH
	DB	050H
	DB	04cH
	DB	050H
	DB	0ffH
	DB	048H
	DB	04cH
	DB	048H
	DB	0ffH
	DB	050H
	DB	04cH
	DB	050H
	DB	0ffH
	DB	050H
	DB	04cH
	DB	050H
	DB	0ffH
	DB	048H
	DB	04cH
	DB	048H
	DB	0ffH
	DB	050H
	DB	04cH
	DB	050H
	DB	0ffH
	DB	050H
	DB	04cH
	DB	050H
	DB	0ffH
	DB	048H
	DB	04cH
	DB	048H
	DB	0ffH
	DB	050H
	DB	04cH
	DB	050H
	DB	0ffH
	DB	050H
	DB	04cH
	DB	050H
	DB	0ffH
	DB	048H
	DB	04cH
	DB	048H
	DB	0ffH
	DB	050H
	DB	04cH
	DB	050H
	DB	0ffH
	DB	050H
	DB	04cH
	DB	050H
	DB	0ffH
	DB	048H
	DB	04cH
	DB	048H
	DB	0ffH
	DB	050H
	DB	04cH
	DB	050H
	DB	0ffH
	DB	050H
	DB	04cH
	DB	050H
	DB	0ffH
	DB	048H
	DB	04cH
	DB	048H
	DB	0ffH
	DB	050H
	DB	04cH
	DB	050H
	DB	0ffH
	DB	050H
	DB	04cH
	DB	050H
	DB	0ffH
	DB	048H
	DB	04cH
	DB	048H
	DB	0ffH
	DB	050H
	DB	04cH
	DB	050H
	DB	0ffH
	DB	050H
	DB	04cH
	DB	050H
	DB	0ffH
	DB	048H
	DB	04cH
	DB	048H
	DB	0ffH
	DB	050H
	DB	04cH
	DB	050H
	DB	0ffH
	DB	050H
	DB	04cH
	DB	050H
	DB	0ffH
	DB	048H
	DB	04cH
	DB	048H
	DB	0ffH
	DB	050H
	DB	04cH
	DB	050H
	DB	0ffH
	DB	050H
	DB	04cH
	DB	050H
	DB	0ffH
	DB	048H
	DB	04cH
	DB	048H
	DB	0ffH
	DB	050H
	DB	04cH
	DB	050H
	DB	0ffH
	DB	050H
	DB	04cH
	DB	050H
	DB	0ffH
	DB	048H
	DB	04cH
	DB	048H
	DB	0ffH
	DB	050H
	DB	04cH
	DB	050H
	DB	0ffH
	DB	050H
	DB	04cH
	DB	050H
	DB	0ffH
	DB	048H
	DB	04cH
	DB	048H
	DB	0ffH
	DB	050H
	DB	04cH
	DB	050H
	DB	0ffH
	DB	050H
	DB	04cH
	DB	050H
	DB	0ffH
	DB	048H
	DB	04cH
	DB	048H
	DB	0ffH
	DB	050H
	DB	04cH
	DB	050H
	DB	0ffH
	DB	050H
	DB	04cH
	DB	050H
	DB	0ffH
	DB	048H
	DB	04cH
	DB	048H
	DB	0ffH
	DB	050H
	DB	04cH
	DB	050H
	DB	0ffH
	DB	050H
	DB	04cH
	DB	050H
	DB	0ffH
	DB	048H
	DB	04cH
	DB	048H
	DB	0ffH
	DB	050H
	DB	04cH
	DB	050H
	DB	0ffH
	DB	050H
	DB	04cH
	DB	050H
	DB	0ffH
	DB	048H
	DB	04cH
	DB	048H
	DB	0ffH
	DB	050H
	DB	04cH
	DB	050H
	DB	0ffH
	DB	050H
	DB	04cH
	DB	050H
	DB	0ffH
	DB	048H
	DB	04cH
	DB	048H
	DB	0ffH
	DB	050H
	DB	04cH
	DB	050H
	DB	0ffH
	DB	050H
	DB	04cH
	DB	050H
	DB	0ffH
	DB	048H
	DB	04cH
	DB	048H
	DB	0ffH
	DB	050H
	DB	04cH
	DB	050H
	DB	0ffH
	DB	050H
	DB	04cH
	DB	050H
	DB	0ffH
	DB	048H
	DB	04cH
	DB	048H
	DB	0ffH
	DB	050H
	DB	04cH
	DB	050H
	DB	0ffH
	DB	050H
	DB	04cH
	DB	050H
	DB	0ffH
	DB	048H
	DB	04cH
	DB	048H
	DB	0ffH
	DB	050H
	DB	04cH
	DB	050H
	DB	0ffH
	DB	050H
	DB	04cH
	DB	050H
	DB	0ffH
	DB	048H
	DB	04cH
	DB	048H
	DB	0ffH
	DB	050H
	DB	04cH
	DB	050H
	DB	0ffH
	DB	050H
	DB	04cH
	DB	050H
	DB	0ffH
	DB	048H
	DB	04cH
	DB	048H
	DB	0ffH
	DB	050H
	DB	04cH
	DB	050H
	DB	0ffH
	DB	050H
	DB	04cH
	DB	050H
	DB	0ffH
	DB	048H
	DB	04cH
	DB	048H
	DB	0ffH
	DB	050H
	DB	04cH
	DB	050H
	DB	0ffH
	DB	050H
	DB	04cH
	DB	050H
	DB	0ffH
	DB	048H
	DB	04cH
	DB	048H
	DB	0ffH
	DB	050H
	DB	04cH
	DB	050H
	DB	0ffH
	DB	050H
	DB	04cH
	DB	050H
	DB	0ffH
	DB	048H
	DB	04cH
	DB	048H
	DB	0ffH
	DB	050H
	DB	04cH
	DB	050H
	DB	0ffH
	DB	050H
	DB	04cH
	DB	050H
	DB	0ffH
	DB	048H
	DB	04cH
	DB	048H
	DB	0ffH
	DB	050H
	DB	04cH
	DB	050H
	DB	0ffH
	DB	050H
	DB	04cH
	DB	050H
	DB	0ffH
	DB	048H
	DB	04cH
	DB	048H
	DB	0ffH
	DB	050H
	DB	04cH
	DB	050H
	DB	0ffH
	DB	050H
	DB	04cH
	DB	050H
	DB	0ffH
	DB	048H
	DB	04cH
	DB	048H
	DB	0ffH
	DB	050H
	DB	04cH
	DB	050H
	DB	0ffH
	DB	050H
	DB	04cH
	DB	050H
	DB	0ffH
	DB	048H
	DB	04cH
	DB	048H
	DB	0ffH
	DB	050H
	DB	04cH
	DB	050H
	DB	0ffH
	DB	050H
	DB	04cH
	DB	050H
	DB	0ffH
	DB	048H
	DB	04cH
	DB	048H
	DB	0ffH
	DB	050H
	DB	04cH
	DB	050H
	DB	0ffH
	DB	050H
	DB	04cH
	DB	050H
	DB	0ffH
	DB	048H
	DB	04cH
	DB	048H
	DB	0ffH
	DB	050H
	DB	04cH
	DB	050H
	DB	0ffH
	DB	050H
	DB	04cH
	DB	050H
	DB	0ffH
	DB	048H
	DB	04cH
	DB	048H
	DB	0ffH
	DB	050H
	DB	04cH
	DB	050H
	DB	0ffH
	DB	050H
	DB	04cH
	DB	050H
	DB	0ffH
	DB	048H
	DB	04cH
	DB	048H
	DB	0ffH
	DB	050H
	DB	04cH
	DB	050H
	DB	0ffH
	DB	050H
	DB	04cH
	DB	050H
	DB	0ffH
	DB	048H
	DB	04cH
	DB	048H
	DB	0ffH
	DB	050H
	DB	04cH
	DB	050H
	DB	0ffH
	DB	050H
	DB	04cH
	DB	050H
	DB	0ffH
	DB	048H
	DB	04cH
	DB	048H
	DB	0ffH
	DB	050H
	DB	04cH
	DB	050H
	DB	0ffH
	DB	050H
	DB	04cH
	DB	050H
	DB	0ffH
	DB	048H
	DB	04cH
	DB	048H
	DB	0ffH
	DB	050H
	DB	04cH
	DB	050H
	DB	0ffH
	DB	050H
	DB	04cH
	DB	050H
	DB	0ffH
	DB	048H
	DB	04cH
	DB	048H
	DB	0ffH
	DB	050H
	DB	04cH
	DB	050H
	DB	0ffH
	DB	050H
	DB	04cH
	DB	050H
	DB	0ffH
	DB	048H
	DB	04cH
	DB	048H
	DB	0ffH
	DB	050H
	DB	04cH
	DB	050H
	DB	0ffH
	DB	050H
	DB	04cH
	DB	050H
	DB	0ffH
	DB	048H
	DB	04cH
	DB	048H
	DB	0ffH
	DB	050H
	DB	04cH
	DB	050H
	DB	0ffH
	DB	050H
	DB	04cH
	DB	050H
	DB	0ffH
	DB	048H
	DB	04cH
	DB	048H
	DB	0ffH
	DB	050H
	DB	04cH
	DB	050H
	DB	0ffH
	DB	050H
	DB	04cH
	DB	050H
	DB	0ffH
	DB	048H
	DB	04cH
	DB	048H
	DB	0ffH
	DB	050H
	DB	04cH
	DB	050H
	DB	0ffH
	DB	050H
	DB	04cH
	DB	050H
	DB	0ffH
	DB	048H
	DB	04cH
	DB	048H
	DB	0ffH
	DB	050H
	DB	04cH
	DB	050H
	DB	0ffH
	DB	050H
	DB	04cH
	DB	050H
	DB	0ffH
	DB	048H
	DB	04cH
	DB	048H
	DB	0ffH
	DB	050H
	DB	04cH
	DB	050H
	DB	0ffH
	DB	050H
	DB	04cH
	DB	050H
	DB	0ffH
	DB	048H
	DB	04cH
	DB	048H
	DB	0ffH
	DB	050H
	DB	04cH
	DB	050H
	DB	0ffH
	DB	050H
	DB	04cH
	DB	050H
	DB	0ffH
	DB	048H
	DB	04cH
	DB	048H
	DB	0ffH
	DB	050H
	DB	04cH
	DB	050H
	DB	0ffH
	DB	050H
	DB	04cH
	DB	050H
	DB	0ffH
	DB	048H
	DB	04cH
	DB	048H
	DB	0ffH
	DB	050H
	DB	04cH
	DB	050H
	DB	0ffH
	DB	050H
	DB	04cH
	DB	050H
	DB	0ffH
	DB	048H
	DB	04cH
	DB	048H
	DB	0ffH
	DB	050H
	DB	04cH
	DB	050H
	DB	0ffH
	DB	050H
	DB	04cH
	DB	050H
	DB	0ffH
	DB	048H
	DB	04cH
	DB	048H
	DB	0ffH
	DB	050H
	DB	04cH
	DB	050H
	DB	0ffH
	DB	050H
	DB	04cH
	DB	050H
	DB	0ffH
	DB	048H
	DB	04cH
	DB	048H
	DB	0ffH
	DB	050H
	DB	04cH
	DB	050H
	DB	0ffH
	DB	050H
	DB	04cH
	DB	050H
	DB	0ffH
	DB	048H
	DB	04cH
	DB	048H
	DB	0ffH
	DB	050H
	DB	04cH
	DB	050H
	DB	0ffH
	DB	050H
	DB	04cH
	DB	050H
	DB	0ffH
	DB	048H
	DB	04cH
	DB	048H
	DB	0ffH
	DB	050H
	DB	04cH
	DB	050H
	DB	0ffH
	DB	050H
	DB	04cH
	DB	050H
	DB	0ffH
	DB	048H
	DB	04cH
	DB	048H
	DB	0ffH
	DB	050H
	DB	04cH
	DB	050H
	DB	0ffH
	DB	050H
	DB	04cH
	DB	050H
	DB	0ffH
	DB	048H
	DB	04cH
	DB	048H
	DB	0ffH
	DB	050H
	DB	04cH
	DB	050H
	DB	0ffH
	DB	050H
	DB	04cH
	DB	050H
	DB	0ffH
	DB	050H
	DB	04cH
	DB	050H
	DB	0ffH
	DB	048H
	DB	04cH
	DB	048H
	DB	0ffH
	DB	048H
	DB	04cH
	DB	048H
	DB	0ffH
	DB	028H
	DB	024H
	DB	028H
	DB	0ffH
	DB	028H
	DB	024H
	DB	020H
	DB	0ffH
	DB	090H
	DB	094H
	DB	090H
	DB	092H
	DB	028H
	DB	024H
	DB	028H
	DB	0ffH
	DB	028H
	DB	024H
	DB	028H
	DB	0ffH
	DB	048H
	DB	04cH
	DB	048H
	DB	0ffH
	DB	048H
	DB	04cH
	DB	048H
	DB	0ffH
	DB	048H
	DB	04cH
	DB	048H
	DB	0ffH
	DB	048H
	DB	04cH
	DB	048H
	DB	0ffH
	DB	048H
	DB	04cH
	DB	048H
	DB	0ffH
	DB	048H
	DB	04cH
	DB	048H
	DB	0ffH
	DB	048H
	DB	04cH
	DB	048H
	DB	0ffH
	DB	048H
	DB	04cH
	DB	048H
	DB	0ffH
	DB	048H
	DB	04cH
	DB	048H
	DB	0ffH
	DB	048H
	DB	04cH
	DB	048H
	DB	0ffH
	DB	048H
	DB	04cH
	DB	048H
	DB	0ffH
	DB	048H
	DB	04cH
	DB	048H
	DB	0ffH
	DB	048H
	DB	04cH
	DB	048H
	DB	0ffH
	DB	048H
	DB	04cH
	DB	048H
	DB	0ffH
	DB	048H
	DB	04cH
	DB	048H
	DB	0ffH
	DB	048H
	DB	04cH
	DB	048H
	DB	0ffH
	DB	048H
	DB	04cH
	DB	048H
	DB	0ffH
	DB	048H
	DB	04cH
	DB	048H
	DB	0ffH
	DB	048H
	DB	04cH
	DB	048H
	DB	0ffH
	DB	048H
	DB	04cH
	DB	048H
	DB	0ffH
	DB	048H
	DB	04cH
	DB	048H
	DB	0ffH
	DB	048H
	DB	04cH
	DB	048H
	DB	0ffH
	DB	048H
	DB	04cH
	DB	048H
	DB	0ffH
	DB	048H
	DB	04cH
	DB	048H
	DB	0ffH
	DB	048H
	DB	04cH
	DB	048H
	DB	0ffH
	DB	048H
	DB	04cH
	DB	048H
	DB	0ffH
	DB	048H
	DB	04cH
	DB	048H
	DB	0ffH
	DB	048H
	DB	04cH
	DB	048H
	DB	0ffH
	DB	048H
	DB	04cH
	DB	048H
	DB	0ffH
	DB	048H
	DB	04cH
	DB	048H
	DB	0ffH
	DB	048H
	DB	04cH
	DB	048H
	DB	0ffH
	DB	048H
	DB	04cH
	DB	048H
	DB	0ffH
	DB	048H
	DB	04cH
	DB	048H
	DB	0ffH
	DB	048H
	DB	04cH
	DB	048H
	DB	0ffH
	DB	048H
	DB	04cH
	DB	048H
	DB	0ffH
	DB	048H
	DB	04cH
	DB	048H
	DB	0ffH
	DB	048H
	DB	04cH
	DB	048H
	DB	0ffH
	DB	048H
	DB	04cH
	DB	048H
	DB	0ffH
	DB	048H
	DB	04cH
	DB	048H
	DB	0ffH
	DB	048H
	DB	04cH
	DB	048H
	DB	0ffH
	DB	048H
	DB	04cH
	DB	048H
	DB	0ffH
	DB	048H
	DB	04cH
	DB	048H
	DB	0ffH
	DB	048H
	DB	04cH
	DB	048H
	DB	0ffH
	DB	048H
	DB	04cH
	DB	048H
	DB	0ffH
	DB	048H
	DB	04cH
	DB	048H
	DB	0ffH
	DB	048H
	DB	04cH
	DB	048H
	DB	0ffH
	DB	048H
	DB	04cH
	DB	048H
	DB	0ffH
	DB	048H
	DB	04cH
	DB	048H
	DB	0ffH
	DB	048H
	DB	04cH
	DB	048H
	DB	0ffH
	DB	048H
	DB	04cH
	DB	048H
	DB	0ffH
	DB	048H
	DB	04cH
	DB	048H
	DB	0ffH
	DB	048H
	DB	04cH
	DB	048H
	DB	0ffH
	DB	048H
	DB	04cH
	DB	048H
	DB	0ffH
	DB	048H
	DB	04cH
	DB	048H
	DB	0ffH
	DB	048H
	DB	04cH
	DB	048H
	DB	0ffH
	DB	048H
	DB	04cH
	DB	048H
	DB	0ffH
	DB	048H
	DB	04cH
	DB	048H
	DB	0ffH
	DB	048H
	DB	04cH
	DB	048H
	DB	0ffH
	DB	048H
	DB	04cH
	DB	048H
	DB	0ffH
	DB	048H
	DB	04cH
	DB	048H
	DB	0ffH
	DB	048H
	DB	04cH
	DB	048H
	DB	0ffH
	DB	048H
	DB	04cH
	DB	048H
	DB	0ffH
	DB	048H
	DB	04cH
	DB	048H
	DB	0ffH
	DB	048H
	DB	04cH
	DB	048H
	DB	0ffH
	DB	048H
	DB	04cH
	DB	048H
	DB	0ffH
	DB	048H
	DB	04cH
	DB	048H
	DB	0ffH
	DB	048H
	DB	04cH
	DB	048H
	DB	0ffH
	DB	048H
	DB	04cH
	DB	048H
	DB	0ffH
	DB	048H
	DB	04cH
	DB	048H
	DB	0ffH
	DB	048H
	DB	04cH
	DB	048H
	DB	0ffH
	DB	048H
	DB	04cH
	DB	048H
	DB	0ffH
	DB	048H
	DB	04cH
	DB	048H
	DB	0ffH
	DB	048H
	DB	04cH
	DB	048H
	DB	0ffH
	DB	048H
	DB	04cH
	DB	048H
	DB	0ffH
	DB	048H
	DB	04cH
	DB	048H
	DB	0ffH
	DB	048H
	DB	04cH
	DB	048H
	DB	0ffH
	DB	048H
	DB	04cH
	DB	048H
	DB	0ffH
	DB	048H
	DB	04cH
	DB	048H
	DB	0ffH
	DB	048H
	DB	04cH
	DB	048H
	DB	0ffH
	DB	048H
	DB	04cH
	DB	048H
	DB	0ffH
	DB	048H
	DB	04cH
	DB	048H
	DB	0ffH
	DB	048H
	DB	04cH
	DB	048H
	DB	0ffH
	DB	048H
	DB	04cH
	DB	048H
	DB	0ffH
	DB	048H
	DB	04cH
	DB	048H
	DB	0ffH
	DB	048H
	DB	04cH
	DB	048H
	DB	0ffH
	DB	048H
	DB	04cH
	DB	048H
	DB	0ffH
	DB	048H
	DB	04cH
	DB	048H
	DB	0ffH
	DB	048H
	DB	04cH
	DB	048H
	DB	0ffH
	DB	048H
	DB	04cH
	DB	048H
	DB	0ffH
	DB	048H
	DB	04cH
	DB	048H
	DB	0ffH
	DB	048H
	DB	04cH
	DB	048H
	DB	0ffH
	DB	048H
	DB	04cH
	DB	048H
	DB	0ffH
	DB	048H
	DB	04cH
	DB	048H
	DB	0ffH
	DB	048H
	DB	04cH
	DB	048H
	DB	0ffH
	DB	048H
	DB	04cH
	DB	048H
	DB	0ffH
	DB	048H
	DB	04cH
	DB	048H
	DB	0ffH
	DB	048H
	DB	04cH
	DB	048H
	DB	0ffH
	DB	048H
	DB	04cH
	DB	048H
	DB	0ffH
	DB	048H
	DB	04cH
	DB	048H
	DB	0ffH
	DB	048H
	DB	04cH
	DB	048H
	DB	0ffH
	DB	048H
	DB	04cH
	DB	048H
	DB	0ffH
	DB	048H
	DB	04cH
	DB	048H
	DB	0ffH
	DB	048H
	DB	04cH
	DB	048H
	DB	0ffH
	DB	048H
	DB	04cH
	DB	048H
	DB	0ffH
	DB	048H
	DB	04cH
	DB	048H
	DB	0ffH
	DB	048H
	DB	04cH
	DB	048H
	DB	0ffH
	DB	048H
	DB	04cH
	DB	048H
	DB	0ffH
	DB	048H
	DB	04cH
	DB	048H
	DB	0ffH
	DB	048H
	DB	04cH
	DB	048H
	DB	0ffH
	DB	048H
	DB	04cH
	DB	048H
	DB	0ffH
	DB	048H
	DB	04cH
	DB	048H
	DB	0ffH
	DB	048H
	DB	04cH
	DB	048H
	DB	0ffH
	DB	048H
	DB	04cH
	DB	048H
	DB	0ffH
	DB	048H
	DB	04cH
	DB	048H
	DB	0ffH
	DB	048H
	DB	04cH
	DB	048H
	DB	0ffH
	DB	048H
	DB	04cH
	DB	048H
	DB	0ffH
	DB	048H
	DB	04cH
	DB	048H
	DB	0ffH
	DB	048H
	DB	04cH
	DB	048H
	DB	0ffH
	DB	048H
	DB	04cH
	DB	048H
	DB	0ffH
	DB	048H
	DB	04cH
	DB	048H
	DB	0ffH
	DB	048H
	DB	04cH
	DB	048H
	DB	0ffH
	DB	048H
	DB	04cH
	DB	048H
	DB	0ffH
	DB	048H
	DB	04cH
	DB	048H
	DB	0ffH
	DB	048H
	DB	04cH
	DB	048H
	DB	0ffH
	DB	048H
	DB	04cH
	DB	048H
	DB	0ffH
	DB	048H
	DB	04cH
	DB	048H
	DB	0ffH
	DB	048H
	DB	04cH
	DB	048H
	DB	0ffH
	DB	048H
	DB	04cH
	DB	048H
	DB	0ffH
	DB	048H
	DB	04cH
	DB	048H
	DB	0ffH
	DB	048H
	DB	04cH
	DB	048H
	DB	0ffH
	DB	048H
	DB	04cH
	DB	048H
	DB	0ffH
	DB	048H
	DB	04cH
	DB	048H
	DB	0ffH
	DB	048H
	DB	04cH
	DB	048H
	DB	0ffH
	DB	048H
	DB	04cH
	DB	048H
	DB	0ffH
	DB	048H
	DB	04cH
	DB	048H
	DB	0ffH
	DB	048H
	DB	04cH
	DB	048H
	DB	0ffH
	DB	048H
	DB	04cH
	DB	048H
	DB	0ffH
	DB	048H
	DB	04cH
	DB	048H
	DB	0ffH
	DB	048H
	DB	04cH
	DB	048H
	DB	0ffH
	DB	048H
	DB	04cH
	DB	048H
	DB	0ffH
	DB	048H
	DB	04cH
	DB	048H
	DB	0ffH
	DB	048H
	DB	04cH
	DB	048H
	DB	0ffH
	DB	048H
	DB	04cH
	DB	048H
	DB	0ffH
	DB	048H
	DB	04cH
	DB	048H
	DB	0ffH
	DB	048H
	DB	04cH
	DB	048H
	DB	0ffH
	DB	048H
	DB	04cH
	DB	048H
	DB	0ffH
	DB	048H
	DB	04cH
	DB	048H
	DB	0ffH
	DB	048H
	DB	04cH
	DB	048H
	DB	0ffH
	DB	048H
	DB	04cH
	DB	048H
	DB	0ffH
	DB	048H
	DB	04cH
	DB	048H
	DB	0ffH
	DB	048H
	DB	04cH
	DB	048H
	DB	0ffH
	DB	048H
	DB	04cH
	DB	048H
	DB	0ffH
	DB	048H
	DB	04cH
	DB	048H
	DB	0ffH
	DB	048H
	DB	04cH
	DB	048H
	DB	0ffH
	DB	048H
	DB	04cH
	DB	048H
	DB	0ffH
	DB	048H
	DB	04cH
	DB	048H
	DB	0ffH
	DB	048H
	DB	04cH
	DB	048H
	DB	0ffH
	DB	048H
	DB	04cH
	DB	048H
	DB	0ffH
	DB	048H
	DB	04cH
	DB	048H
	DB	0ffH
	DB	048H
	DB	04cH
	DB	048H
	DB	0ffH
	DB	048H
	DB	04cH
	DB	048H
	DB	0ffH
	DB	048H
	DB	04cH
	DB	048H
	DB	0ffH
	DB	048H
	DB	04cH
	DB	048H
	DB	0ffH
	DB	048H
	DB	04cH
	DB	048H
	DB	0ffH
	DB	048H
	DB	04cH
	DB	048H
	DB	0ffH
	DB	048H
	DB	04cH
	DB	048H
	DB	0ffH
	DB	048H
	DB	04cH
	DB	048H
	DB	0ffH
	DB	048H
	DB	04cH
	DB	048H
	DB	0ffH
	DB	048H
	DB	04cH
	DB	048H
	DB	0ffH
	DB	048H
	DB	04cH
	DB	048H
	DB	0ffH
	DB	048H
	DB	04cH
	DB	048H
	DB	0ffH
	DB	048H
	DB	04cH
	DB	048H
	DB	0ffH
	DB	048H
	DB	04cH
	DB	048H
	DB	0ffH
	DB	048H
	DB	04cH
	DB	048H
	DB	0ffH
	DB	048H
	DB	04cH
	DB	048H
	DB	0ffH
	DB	048H
	DB	04cH
	DB	048H
	DB	0ffH
	DB	048H
	DB	04cH
	DB	048H
	DB	0ffH
	DB	048H
	DB	04cH
	DB	048H
	DB	0ffH
	DB	048H
	DB	04cH
	DB	048H
	DB	0ffH
	DB	048H
	DB	04cH
	DB	048H
	DB	0ffH
	DB	048H
	DB	04cH
	DB	048H
	DB	0ffH
	DB	048H
	DB	04cH
	DB	048H
	DB	0ffH
	DB	048H
	DB	04cH
	DB	048H
	DB	0ffH
	DB	048H
	DB	04cH
	DB	048H
	DB	0ffH
	DB	050H
	DB	04cH
	DB	050H
	DB	0ffH
	DB	050H
	DB	04cH
	DB	048H
	DB	0ffH
	DB	048H
	DB	04cH
	DB	050H
	DB	0ffH
	DB	048H
	DB	04cH
	DB	048H
	DB	0ffH
	DB	028H
	DB	024H
	DB	028H
	DB	0ffH
	DB	028H
	DB	024H
	DB	028H
	DB	0ffH
	DB	090H
	DB	094H
	DB	090H
	DB	092H
	DB	028H
	DB	024H
	DB	020H
	DB	0ffH
	DB	020H
	DB	024H
	DB	028H
	DB	0ffH
	DB	048H
	DB	04cH
	DB	048H
	DB	0ffH
	DB	050H
	DB	04cH
	DB	050H
	DB	0ffH
	DB	050H
	DB	04cH
	DB	050H
	DB	0ffH
	DB	050H
	DB	04cH
	DB	050H
	DB	0ffH
	DB	050H
	DB	04cH
	DB	050H
	DB	0ffH
	DB	050H
	DB	04cH
	DB	050H
	DB	0ffH
	DB	050H
	DB	04cH
	DB	050H
	DB	0ffH
	DB	050H
	DB	04cH
	DB	050H
	DB	0ffH
	DB	050H
	DB	04cH
	DB	050H
	DB	0ffH
	DB	050H
	DB	04cH
	DB	050H
	DB	0ffH
	DB	050H
	DB	04cH
	DB	050H
	DB	0ffH
	DB	050H
	DB	04cH
	DB	050H
	DB	0ffH
	DB	050H
	DB	04cH
	DB	050H
	DB	0ffH
	DB	050H
	DB	04cH
	DB	050H
	DB	0ffH
	DB	050H
	DB	04cH
	DB	050H
	DB	0ffH
	DB	050H
	DB	04cH
	DB	050H
	DB	0ffH
	DB	050H
	DB	04cH
	DB	050H
	DB	0ffH
	DB	050H
	DB	04cH
	DB	050H
	DB	0ffH
	DB	050H
	DB	04cH
	DB	050H
	DB	0ffH
	DB	050H
	DB	04cH
	DB	050H
	DB	0ffH
	DB	050H
	DB	04cH
	DB	050H
	DB	0ffH
	DB	050H
	DB	04cH
	DB	050H
	DB	0ffH
	DB	050H
	DB	04cH
	DB	050H
	DB	0ffH
	DB	050H
	DB	04cH
	DB	050H
	DB	0ffH
	DB	050H
	DB	04cH
	DB	050H
	DB	0ffH
	DB	050H
	DB	04cH
	DB	050H
	DB	0ffH
	DB	050H
	DB	04cH
	DB	050H
	DB	0ffH
	DB	050H
	DB	04cH
	DB	050H
	DB	0ffH
	DB	050H
	DB	04cH
	DB	050H
	DB	0ffH
	DB	050H
	DB	04cH
	DB	050H
	DB	0ffH
	DB	050H
	DB	04cH
	DB	050H
	DB	0ffH
	DB	050H
	DB	04cH
	DB	050H
	DB	0ffH
	DB	050H
	DB	04cH
	DB	050H
	DB	0ffH
	DB	050H
	DB	04cH
	DB	050H
	DB	0ffH
	DB	050H
	DB	04cH
	DB	050H
	DB	0ffH
	DB	050H
	DB	04cH
	DB	050H
	DB	0ffH
	DB	050H
	DB	04cH
	DB	050H
	DB	0ffH
	DB	050H
	DB	04cH
	DB	050H
	DB	0ffH
	DB	050H
	DB	04cH
	DB	050H
	DB	0ffH
	DB	050H
	DB	04cH
	DB	050H
	DB	0ffH
	DB	050H
	DB	04cH
	DB	050H
	DB	0ffH
	DB	050H
	DB	04cH
	DB	050H
	DB	0ffH
	DB	050H
	DB	04cH
	DB	050H
	DB	0ffH
	DB	050H
	DB	04cH
	DB	050H
	DB	0ffH
	DB	050H
	DB	04cH
	DB	050H
	DB	0ffH
	DB	050H
	DB	04cH
	DB	050H
	DB	0ffH
	DB	050H
	DB	04cH
	DB	050H
	DB	0ffH
	DB	050H
	DB	04cH
	DB	050H
	DB	0ffH
	DB	050H
	DB	04cH
	DB	050H
	DB	0ffH
	DB	050H
	DB	04cH
	DB	050H
	DB	0ffH
	DB	050H
	DB	04cH
	DB	050H
	DB	0ffH
	DB	050H
	DB	04cH
	DB	050H
	DB	0ffH
	DB	050H
	DB	04cH
	DB	050H
	DB	0ffH
	DB	050H
	DB	04cH
	DB	050H
	DB	0ffH
	DB	050H
	DB	04cH
	DB	050H
	DB	0ffH
	DB	050H
	DB	04cH
	DB	050H
	DB	0ffH
	DB	050H
	DB	04cH
	DB	050H
	DB	0ffH
	DB	050H
	DB	04cH
	DB	050H
	DB	0ffH
	DB	050H
	DB	04cH
	DB	050H
	DB	0ffH
	DB	050H
	DB	04cH
	DB	050H
	DB	0ffH
	DB	050H
	DB	04cH
	DB	050H
	DB	0ffH
	DB	050H
	DB	04cH
	DB	050H
	DB	0ffH
	DB	050H
	DB	04cH
	DB	050H
	DB	0ffH
	DB	050H
	DB	04cH
	DB	050H
	DB	0ffH
	DB	050H
	DB	04cH
	DB	050H
	DB	0ffH
	DB	050H
	DB	04cH
	DB	050H
	DB	0ffH
	DB	050H
	DB	04cH
	DB	050H
	DB	0ffH
	DB	050H
	DB	04cH
	DB	050H
	DB	0ffH
	DB	050H
	DB	04cH
	DB	050H
	DB	0ffH
	DB	050H
	DB	04cH
	DB	050H
	DB	0ffH
	DB	050H
	DB	04cH
	DB	050H
	DB	0ffH
	DB	050H
	DB	04cH
	DB	050H
	DB	0ffH
	DB	050H
	DB	04cH
	DB	050H
	DB	0ffH
	DB	050H
	DB	04cH
	DB	050H
	DB	0ffH
	DB	050H
	DB	04cH
	DB	050H
	DB	0ffH
	DB	050H
	DB	04cH
	DB	050H
	DB	0ffH
	DB	050H
	DB	04cH
	DB	050H
	DB	0ffH
	DB	050H
	DB	04cH
	DB	050H
	DB	0ffH
	DB	050H
	DB	04cH
	DB	050H
	DB	0ffH
	DB	050H
	DB	04cH
	DB	050H
	DB	0ffH
	DB	050H
	DB	04cH
	DB	050H
	DB	0ffH
	DB	050H
	DB	04cH
	DB	050H
	DB	0ffH
	DB	050H
	DB	04cH
	DB	050H
	DB	0ffH
	DB	050H
	DB	04cH
	DB	050H
	DB	0ffH
	DB	050H
	DB	04cH
	DB	050H
	DB	0ffH
	DB	050H
	DB	04cH
	DB	050H
	DB	0ffH
	DB	050H
	DB	04cH
	DB	050H
	DB	0ffH
	DB	050H
	DB	04cH
	DB	050H
	DB	0ffH
	DB	050H
	DB	04cH
	DB	050H
	DB	0ffH
	DB	050H
	DB	04cH
	DB	050H
	DB	0ffH
	DB	050H
	DB	04cH
	DB	050H
	DB	0ffH
	DB	050H
	DB	04cH
	DB	050H
	DB	0ffH
	DB	050H
	DB	04cH
	DB	050H
	DB	0ffH
	DB	050H
	DB	04cH
	DB	050H
	DB	0ffH
	DB	050H
	DB	04cH
	DB	050H
	DB	0ffH
	DB	050H
	DB	04cH
	DB	050H
	DB	0ffH
	DB	050H
	DB	04cH
	DB	050H
	DB	0ffH
	DB	050H
	DB	04cH
	DB	050H
	DB	0ffH
	DB	050H
	DB	04cH
	DB	050H
	DB	0ffH
	DB	050H
	DB	04cH
	DB	050H
	DB	0ffH
	DB	050H
	DB	04cH
	DB	050H
	DB	0ffH
	DB	050H
	DB	04cH
	DB	050H
	DB	0ffH
	DB	050H
	DB	04cH
	DB	050H
	DB	0ffH
	DB	050H
	DB	04cH
	DB	050H
	DB	0ffH
	DB	050H
	DB	04cH
	DB	050H
	DB	0ffH
	DB	050H
	DB	04cH
	DB	050H
	DB	0ffH
	DB	050H
	DB	04cH
	DB	050H
	DB	0ffH
	DB	050H
	DB	04cH
	DB	050H
	DB	0ffH
	DB	050H
	DB	04cH
	DB	050H
	DB	0ffH
	DB	050H
	DB	04cH
	DB	050H
	DB	0ffH
	DB	050H
	DB	04cH
	DB	050H
	DB	0ffH
	DB	050H
	DB	04cH
	DB	050H
	DB	0ffH
	DB	050H
	DB	04cH
	DB	050H
	DB	0ffH
	DB	050H
	DB	04cH
	DB	050H
	DB	0ffH
	DB	050H
	DB	04cH
	DB	050H
	DB	0ffH
	DB	050H
	DB	04cH
	DB	050H
	DB	0ffH
	DB	050H
	DB	04cH
	DB	050H
	DB	0ffH
	DB	050H
	DB	04cH
	DB	050H
	DB	0ffH
	DB	050H
	DB	04cH
	DB	050H
	DB	0ffH
	DB	050H
	DB	04cH
	DB	050H
	DB	0ffH
	DB	050H
	DB	04cH
	DB	050H
	DB	0ffH
	DB	050H
	DB	04cH
	DB	050H
	DB	0ffH
	DB	050H
	DB	04cH
	DB	050H
	DB	0ffH
	DB	050H
	DB	04cH
	DB	050H
	DB	0ffH
	DB	050H
	DB	04cH
	DB	050H
	DB	0ffH
	DB	050H
	DB	04cH
	DB	050H
	DB	0ffH
	DB	050H
	DB	04cH
	DB	050H
	DB	0ffH
	DB	050H
	DB	04cH
	DB	050H
	DB	0ffH
	DB	050H
	DB	04cH
	DB	050H
	DB	0ffH
	DB	050H
	DB	04cH
	DB	050H
	DB	0ffH
	DB	050H
	DB	04cH
	DB	050H
	DB	0ffH
	DB	050H
	DB	04cH
	DB	050H
	DB	0ffH
	DB	050H
	DB	04cH
	DB	050H
	DB	0ffH
	DB	050H
	DB	04cH
	DB	050H
	DB	0ffH
	DB	050H
	DB	04cH
	DB	050H
	DB	0ffH
	DB	050H
	DB	04cH
	DB	050H
	DB	0ffH
	DB	050H
	DB	04cH
	DB	050H
	DB	0ffH
	DB	050H
	DB	04cH
	DB	050H
	DB	0ffH
	DB	050H
	DB	04cH
	DB	050H
	DB	0ffH
	DB	050H
	DB	04cH
	DB	050H
	DB	0ffH
	DB	050H
	DB	04cH
	DB	050H
	DB	0ffH
	DB	050H
	DB	04cH
	DB	050H
	DB	0ffH
	DB	050H
	DB	04cH
	DB	050H
	DB	0ffH
	DB	050H
	DB	04cH
	DB	050H
	DB	0ffH
	DB	050H
	DB	04cH
	DB	050H
	DB	0ffH
	DB	050H
	DB	04cH
	DB	050H
	DB	0ffH
	DB	050H
	DB	04cH
	DB	050H
	DB	0ffH
	DB	050H
	DB	04cH
	DB	050H
	DB	0ffH
	DB	050H
	DB	04cH
	DB	050H
	DB	0ffH
	DB	050H
	DB	04cH
	DB	050H
	DB	0ffH
	DB	050H
	DB	04cH
	DB	050H
	DB	0ffH
	DB	050H
	DB	04cH
	DB	050H
	DB	0ffH
	DB	050H
	DB	04cH
	DB	050H
	DB	0ffH
	DB	050H
	DB	04cH
	DB	050H
	DB	0ffH
	DB	050H
	DB	04cH
	DB	050H
	DB	0ffH
	DB	050H
	DB	04cH
	DB	050H
	DB	0ffH
	DB	050H
	DB	04cH
	DB	050H
	DB	0ffH
	DB	050H
	DB	04cH
	DB	050H
	DB	0ffH
	DB	050H
	DB	04cH
	DB	050H
	DB	0ffH
	DB	050H
	DB	04cH
	DB	050H
	DB	0ffH
	DB	050H
	DB	04cH
	DB	050H
	DB	0ffH
	DB	050H
	DB	04cH
	DB	050H
	DB	0ffH
	DB	050H
	DB	04cH
	DB	050H
	DB	0ffH
	DB	050H
	DB	04cH
	DB	050H
	DB	0ffH
	DB	050H
	DB	04cH
	DB	050H
	DB	0ffH
	DB	050H
	DB	04cH
	DB	050H
	DB	0ffH
	DB	050H
	DB	04cH
	DB	050H
	DB	0ffH
	DB	050H
	DB	04cH
	DB	050H
	DB	0ffH
	DB	050H
	DB	04cH
	DB	050H
	DB	0ffH
	DB	050H
	DB	04cH
	DB	050H
	DB	0ffH
	DB	050H
	DB	04cH
	DB	050H
	DB	0ffH
	DB	050H
	DB	04cH
	DB	050H
	DB	0ffH
	DB	050H
	DB	04cH
	DB	050H
	DB	0ffH
	DB	050H
	DB	04cH
	DB	050H
	DB	0ffH
	DB	050H
	DB	04cH
	DB	050H
	DB	0ffH
	DB	050H
	DB	04cH
	DB	050H
	DB	0ffH
	DB	050H
	DB	04cH
	DB	050H
	DB	0ffH
	DB	050H
	DB	04cH
	DB	050H
	DB	0ffH
	DB	050H
	DB	04cH
	DB	050H
	DB	0ffH
	DB	050H
	DB	04cH
	DB	050H
	DB	0ffH
	DB	050H
	DB	04cH
	DB	050H
	DB	0ffH
	DB	050H
	DB	04cH
	DB	050H
	DB	0ffH
	DB	050H
	DB	04cH
	DB	050H
	DB	0ffH
	DB	048H
	DB	04cH
	DB	048H
	DB	0ffH
	DB	048H
	DB	04cH
	DB	050H
	DB	0ffH
	DB	050H
	DB	04cH
	DB	048H
	DB	0ffH
	DB	050H
	DB	04cH
	DB	050H
	DB	0ffH
	DB	048H
	DB	04cH
	DB	048H
	DB	0ffH
	DB	028H
	DB	024H
	DB	028H
	DB	0ffH
	DB	020H
	DB	024H
	DB	028H
	DB	0ffH
	DB	098H
	DB	094H
	DB	090H
	DB	096H
	DB	028H
	DB	024H
	DB	028H
	DB	0ffH
	DB	028H
	DB	024H
	DB	020H
	DB	0ffH
	DB	048H
	DB	04cH
	DB	048H
	DB	0ffH
	DB	048H
	DB	04cH
	DB	048H
	DB	0ffH
	DB	048H
	DB	04cH
	DB	048H
	DB	0ffH
	DB	048H
	DB	04cH
	DB	048H
	DB	0ffH
	DB	048H
	DB	04cH
	DB	048H
	DB	0ffH
	DB	048H
	DB	04cH
	DB	048H
	DB	0ffH
	DB	048H
	DB	04cH
	DB	048H
	DB	0ffH
	DB	050H
	DB	04cH
	DB	050H
	DB	0ffH
	DB	048H
	DB	04cH
	DB	048H
	DB	0ffH
	DB	048H
	DB	04cH
	DB	048H
	DB	0ffH
	DB	050H
	DB	04cH
	DB	050H
	DB	0ffH
	DB	048H
	DB	04cH
	DB	048H
	DB	0ffH
	DB	048H
	DB	04cH
	DB	048H
	DB	0ffH
	DB	050H
	DB	04cH
	DB	050H
	DB	0ffH
	DB	048H
	DB	04cH
	DB	048H
	DB	0ffH
	DB	048H
	DB	04cH
	DB	048H
	DB	0ffH
	DB	050H
	DB	04cH
	DB	050H
	DB	0ffH
	DB	048H
	DB	04cH
	DB	048H
	DB	0ffH
	DB	048H
	DB	04cH
	DB	048H
	DB	0ffH
	DB	050H
	DB	04cH
	DB	050H
	DB	0ffH
	DB	048H
	DB	04cH
	DB	048H
	DB	0ffH
	DB	048H
	DB	04cH
	DB	048H
	DB	0ffH
	DB	050H
	DB	04cH
	DB	050H
	DB	0ffH
	DB	048H
	DB	04cH
	DB	048H
	DB	0ffH
	DB	048H
	DB	04cH
	DB	048H
	DB	0ffH
	DB	050H
	DB	04cH
	DB	050H
	DB	0ffH
	DB	048H
	DB	04cH
	DB	048H
	DB	0ffH
	DB	048H
	DB	04cH
	DB	048H
	DB	0ffH
	DB	050H
	DB	04cH
	DB	050H
	DB	0ffH
	DB	048H
	DB	04cH
	DB	048H
	DB	0ffH
	DB	048H
	DB	04cH
	DB	048H
	DB	0ffH
	DB	050H
	DB	04cH
	DB	050H
	DB	0ffH
	DB	048H
	DB	04cH
	DB	048H
	DB	0ffH
	DB	048H
	DB	04cH
	DB	048H
	DB	0ffH
	DB	050H
	DB	04cH
	DB	050H
	DB	0ffH
	DB	048H
	DB	04cH
	DB	048H
	DB	0ffH
	DB	048H
	DB	04cH
	DB	048H
	DB	0ffH
	DB	050H
	DB	04cH
	DB	050H
	DB	0ffH
	DB	048H
	DB	04cH
	DB	048H
	DB	0ffH
	DB	048H
	DB	04cH
	DB	048H
	DB	0ffH
	DB	050H
	DB	04cH
	DB	050H
	DB	0ffH
	DB	048H
	DB	04cH
	DB	048H
	DB	0ffH
	DB	048H
	DB	04cH
	DB	048H
	DB	0ffH
	DB	050H
	DB	04cH
	DB	050H
	DB	0ffH
	DB	048H
	DB	04cH
	DB	048H
	DB	0ffH
	DB	048H
	DB	04cH
	DB	048H
	DB	0ffH
	DB	050H
	DB	04cH
	DB	050H
	DB	0ffH
	DB	048H
	DB	04cH
	DB	048H
	DB	0ffH
	DB	048H
	DB	04cH
	DB	048H
	DB	0ffH
	DB	050H
	DB	04cH
	DB	050H
	DB	0ffH
	DB	048H
	DB	04cH
	DB	048H
	DB	0ffH
	DB	048H
	DB	04cH
	DB	048H
	DB	0ffH
	DB	050H
	DB	04cH
	DB	050H
	DB	0ffH
	DB	048H
	DB	04cH
	DB	048H
	DB	0ffH
	DB	048H
	DB	04cH
	DB	048H
	DB	0ffH
	DB	050H
	DB	04cH
	DB	050H
	DB	0ffH
	DB	048H
	DB	04cH
	DB	048H
	DB	0ffH
	DB	048H
	DB	04cH
	DB	048H
	DB	0ffH
	DB	050H
	DB	04cH
	DB	050H
	DB	0ffH
	DB	048H
	DB	04cH
	DB	048H
	DB	0ffH
	DB	048H
	DB	04cH
	DB	048H
	DB	0ffH
	DB	050H
	DB	04cH
	DB	050H
	DB	0ffH
	DB	048H
	DB	04cH
	DB	048H
	DB	0ffH
	DB	048H
	DB	04cH
	DB	048H
	DB	0ffH
	DB	050H
	DB	04cH
	DB	050H
	DB	0ffH
	DB	048H
	DB	04cH
	DB	048H
	DB	0ffH
	DB	048H
	DB	04cH
	DB	048H
	DB	0ffH
	DB	050H
	DB	04cH
	DB	050H
	DB	0ffH
	DB	048H
	DB	04cH
	DB	048H
	DB	0ffH
	DB	048H
	DB	04cH
	DB	048H
	DB	0ffH
	DB	050H
	DB	04cH
	DB	050H
	DB	0ffH
	DB	048H
	DB	04cH
	DB	048H
	DB	0ffH
	DB	048H
	DB	04cH
	DB	048H
	DB	0ffH
	DB	050H
	DB	04cH
	DB	050H
	DB	0ffH
	DB	048H
	DB	04cH
	DB	048H
	DB	0ffH
	DB	048H
	DB	04cH
	DB	048H
	DB	0ffH
	DB	050H
	DB	04cH
	DB	050H
	DB	0ffH
	DB	048H
	DB	04cH
	DB	048H
	DB	0ffH
	DB	048H
	DB	04cH
	DB	048H
	DB	0ffH
	DB	050H
	DB	04cH
	DB	050H
	DB	0ffH
	DB	048H
	DB	04cH
	DB	048H
	DB	0ffH
	DB	048H
	DB	04cH
	DB	048H
	DB	0ffH
	DB	050H
	DB	04cH
	DB	050H
	DB	0ffH
	DB	048H
	DB	04cH
	DB	048H
	DB	0ffH
	DB	048H
	DB	04cH
	DB	048H
	DB	0ffH
	DB	050H
	DB	04cH
	DB	050H
	DB	0ffH
	DB	048H
	DB	04cH
	DB	048H
	DB	0ffH
	DB	048H
	DB	04cH
	DB	048H
	DB	0ffH
	DB	050H
	DB	04cH
	DB	050H
	DB	0ffH
	DB	048H
	DB	04cH
	DB	048H
	DB	0ffH
	DB	048H
	DB	04cH
	DB	048H
	DB	0ffH
	DB	050H
	DB	04cH
	DB	050H
	DB	0ffH
	DB	048H
	DB	04cH
	DB	048H
	DB	0ffH
	DB	048H
	DB	04cH
	DB	048H
	DB	0ffH
	DB	050H
	DB	04cH
	DB	050H
	DB	0ffH
	DB	048H
	DB	04cH
	DB	048H
	DB	0ffH
	DB	048H
	DB	04cH
	DB	048H
	DB	0ffH
	DB	050H
	DB	04cH
	DB	050H
	DB	0ffH
	DB	048H
	DB	04cH
	DB	048H
	DB	0ffH
	DB	048H
	DB	04cH
	DB	048H
	DB	0ffH
	DB	050H
	DB	04cH
	DB	050H
	DB	0ffH
	DB	048H
	DB	04cH
	DB	048H
	DB	0ffH
	DB	048H
	DB	04cH
	DB	048H
	DB	0ffH
	DB	050H
	DB	04cH
	DB	050H
	DB	0ffH
	DB	048H
	DB	04cH
	DB	048H
	DB	0ffH
	DB	048H
	DB	04cH
	DB	048H
	DB	0ffH
	DB	050H
	DB	04cH
	DB	050H
	DB	0ffH
	DB	048H
	DB	04cH
	DB	048H
	DB	0ffH
	DB	048H
	DB	04cH
	DB	048H
	DB	0ffH
	DB	050H
	DB	04cH
	DB	050H
	DB	0ffH
	DB	048H
	DB	04cH
	DB	048H
	DB	0ffH
	DB	048H
	DB	04cH
	DB	048H
	DB	0ffH
	DB	050H
	DB	04cH
	DB	050H
	DB	0ffH
	DB	048H
	DB	04cH
	DB	048H
	DB	0ffH
	DB	048H
	DB	04cH
	DB	048H
	DB	0ffH
	DB	050H
	DB	04cH
	DB	050H
	DB	0ffH
	DB	048H
	DB	04cH
	DB	048H
	DB	0ffH
	DB	048H
	DB	04cH
	DB	048H
	DB	0ffH
	DB	050H
	DB	04cH
	DB	050H
	DB	0ffH
	DB	048H
	DB	04cH
	DB	048H
	DB	0ffH
	DB	048H
	DB	04cH
	DB	048H
	DB	0ffH
	DB	050H
	DB	04cH
	DB	050H
	DB	0ffH
	DB	048H
	DB	04cH
	DB	048H
	DB	0ffH
	DB	048H
	DB	04cH
	DB	048H
	DB	0ffH
	DB	050H
	DB	04cH
	DB	050H
	DB	0ffH
	DB	048H
	DB	04cH
	DB	048H
	DB	0ffH
	DB	048H
	DB	04cH
	DB	048H
	DB	0ffH
	DB	050H
	DB	04cH
	DB	050H
	DB	0ffH
	DB	048H
	DB	04cH
	DB	048H
	DB	0ffH
	DB	048H
	DB	04cH
	DB	048H
	DB	0ffH
	DB	050H
	DB	04cH
	DB	050H
	DB	0ffH
	DB	048H
	DB	04cH
	DB	048H
	DB	0ffH
	DB	048H
	DB	04cH
	DB	048H
	DB	0ffH
	DB	050H
	DB	04cH
	DB	050H
	DB	0ffH
	DB	048H
	DB	04cH
	DB	048H
	DB	0ffH
	DB	048H
	DB	04cH
	DB	048H
	DB	0ffH
	DB	050H
	DB	04cH
	DB	050H
	DB	0ffH
	DB	048H
	DB	04cH
	DB	048H
	DB	0ffH
	DB	048H
	DB	04cH
	DB	048H
	DB	0ffH
	DB	050H
	DB	04cH
	DB	050H
	DB	0ffH
	DB	048H
	DB	04cH
	DB	048H
	DB	0ffH
	DB	048H
	DB	04cH
	DB	048H
	DB	0ffH
	DB	050H
	DB	04cH
	DB	050H
	DB	0ffH
	DB	048H
	DB	04cH
	DB	048H
	DB	0ffH
	DB	048H
	DB	04cH
	DB	048H
	DB	0ffH
	DB	050H
	DB	04cH
	DB	050H
	DB	0ffH
	DB	048H
	DB	04cH
	DB	048H
	DB	0ffH
	DB	048H
	DB	04cH
	DB	048H
	DB	0ffH
	DB	050H
	DB	04cH
	DB	050H
	DB	0ffH
	DB	048H
	DB	04cH
	DB	048H
	DB	0ffH
	DB	048H
	DB	04cH
	DB	048H
	DB	0ffH
	DB	050H
	DB	04cH
	DB	050H
	DB	0ffH
	DB	048H
	DB	04cH
	DB	048H
	DB	0ffH
	DB	048H
	DB	04cH
	DB	048H
	DB	0ffH
	DB	050H
	DB	04cH
	DB	050H
	DB	0ffH
	DB	048H
	DB	04cH
	DB	048H
	DB	0ffH
	DB	048H
	DB	04cH
	DB	048H
	DB	0ffH
	DB	050H
	DB	04cH
	DB	050H
	DB	0ffH
	DB	048H
	DB	04cH
	DB	048H
	DB	0ffH
	DB	048H
	DB	04cH
	DB	048H
	DB	0ffH
	DB	050H
	DB	04cH
	DB	050H
	DB	0ffH
	DB	048H
	DB	04cH
	DB	048H
	DB	0ffH
	DB	048H
	DB	04cH
	DB	048H
	DB	0ffH
	DB	050H
	DB	04cH
	DB	050H
	DB	0ffH
	DB	048H
	DB	04cH
	DB	048H
	DB	0ffH
	DB	048H
	DB	04cH
	DB	048H
	DB	0ffH
	DB	050H
	DB	04cH
	DB	050H
	DB	0ffH
	DB	048H
	DB	04cH
	DB	048H
	DB	0ffH
	DB	048H
	DB	04cH
	DB	048H
	DB	0ffH
	DB	050H
	DB	04cH
	DB	050H
	DB	0ffH
	DB	048H
	DB	04cH
	DB	048H
	DB	0ffH
	DB	048H
	DB	04cH
	DB	048H
	DB	0ffH
	DB	050H
	DB	04cH
	DB	050H
	DB	0ffH
	DB	048H
	DB	04cH
	DB	048H
	DB	0ffH
	DB	048H
	DB	04cH
	DB	048H
	DB	0ffH
	DB	050H
	DB	04cH
	DB	050H
	DB	0ffH
	DB	048H
	DB	04cH
	DB	048H
	DB	0ffH
	DB	048H
	DB	04cH
	DB	048H
	DB	0ffH
	DB	050H
	DB	04cH
	DB	050H
	DB	0ffH
	DB	048H
	DB	04cH
	DB	048H
	DB	0ffH
	DB	048H
	DB	04cH
	DB	048H
	DB	0ffH
	DB	048H
	DB	04cH
	DB	048H
	DB	0ffH
	DB	050H
	DB	04cH
	DB	048H
	DB	0ffH
	DB	048H
	DB	04cH
	DB	050H
	DB	0ffH
	DB	048H
	DB	04cH
	DB	048H
	DB	0ffH
	DB	048H
	DB	04cH
	DB	048H
	DB	0ffH
	DB	048H
	DB	04cH
	DB	048H
	DB	0ffH
	DB	048H
	DB	04cH
	DB	048H
	DB	0ffH
	DB	028H
	DB	024H
	DB	028H
	DB	0ffH
	DB	028H
	DB	024H
	DB	020H
	DB	0ffH
	DB	090H
	DB	094H
	DB	090H
	DB	092H
	DB	028H
	DB	024H
	DB	028H
	DB	0ffH
	DB	028H
	DB	024H
	DB	028H
	DB	0ffH
	DB	048H
	DB	048H
	DB	048H
	DB	0ffH
	DB	048H
	DB	048H
	DB	048H
	DB	0ffH
	DB	048H
	DB	048H
	DB	048H
	DB	0ffH
	DB	048H
	DB	048H
	DB	048H
	DB	0ffH
	DB	048H
	DB	048H
	DB	048H
	DB	0ffH
	DB	048H
	DB	04cH
	DB	048H
	DB	0ffH
	DB	050H
	DB	04cH
	DB	050H
	DB	0ffH
	DB	048H
	DB	04cH
	DB	048H
	DB	0ffH
	DB	048H
	DB	04cH
	DB	048H
	DB	0ffH
	DB	050H
	DB	04cH
	DB	050H
	DB	0ffH
	DB	048H
	DB	04cH
	DB	048H
	DB	0ffH
	DB	048H
	DB	04cH
	DB	048H
	DB	0ffH
	DB	050H
	DB	04cH
	DB	050H
	DB	0ffH
	DB	048H
	DB	04cH
	DB	048H
	DB	0ffH
	DB	048H
	DB	04cH
	DB	048H
	DB	0ffH
	DB	050H
	DB	04cH
	DB	050H
	DB	0ffH
	DB	048H
	DB	04cH
	DB	048H
	DB	0ffH
	DB	048H
	DB	04cH
	DB	048H
	DB	0ffH
	DB	050H
	DB	04cH
	DB	050H
	DB	0ffH
	DB	048H
	DB	04cH
	DB	048H
	DB	0ffH
	DB	048H
	DB	04cH
	DB	048H
	DB	0ffH
	DB	050H
	DB	04cH
	DB	050H
	DB	0ffH
	DB	048H
	DB	04cH
	DB	048H
	DB	0ffH
	DB	048H
	DB	04cH
	DB	048H
	DB	0ffH
	DB	050H
	DB	04cH
	DB	050H
	DB	0ffH
	DB	048H
	DB	04cH
	DB	048H
	DB	0ffH
	DB	048H
	DB	04cH
	DB	048H
	DB	0ffH
	DB	050H
	DB	04cH
	DB	050H
	DB	0ffH
	DB	048H
	DB	04cH
	DB	048H
	DB	0ffH
	DB	048H
	DB	04cH
	DB	048H
	DB	0ffH
	DB	050H
	DB	04cH
	DB	050H
	DB	0ffH
	DB	048H
	DB	04cH
	DB	048H
	DB	0ffH
	DB	048H
	DB	04cH
	DB	048H
	DB	0ffH
	DB	050H
	DB	04cH
	DB	050H
	DB	0ffH
	DB	048H
	DB	04cH
	DB	048H
	DB	0ffH
	DB	048H
	DB	04cH
	DB	048H
	DB	0ffH
	DB	050H
	DB	04cH
	DB	050H
	DB	0ffH
	DB	048H
	DB	04cH
	DB	048H
	DB	0ffH
	DB	048H
	DB	04cH
	DB	048H
	DB	0ffH
	DB	050H
	DB	04cH
	DB	050H
	DB	0ffH
	DB	048H
	DB	04cH
	DB	048H
	DB	0ffH
	DB	048H
	DB	04cH
	DB	048H
	DB	0ffH
	DB	050H
	DB	04cH
	DB	050H
	DB	0ffH
	DB	048H
	DB	04cH
	DB	048H
	DB	0ffH
	DB	048H
	DB	04cH
	DB	048H
	DB	0ffH
	DB	050H
	DB	04cH
	DB	050H
	DB	0ffH
	DB	048H
	DB	04cH
	DB	048H
	DB	0ffH
	DB	048H
	DB	04cH
	DB	048H
	DB	0ffH
	DB	050H
	DB	04cH
	DB	050H
	DB	0ffH
	DB	048H
	DB	04cH
	DB	048H
	DB	0ffH
	DB	048H
	DB	04cH
	DB	048H
	DB	0ffH
	DB	050H
	DB	04cH
	DB	050H
	DB	0ffH
	DB	048H
	DB	04cH
	DB	048H
	DB	0ffH
	DB	048H
	DB	04cH
	DB	048H
	DB	0ffH
	DB	050H
	DB	04cH
	DB	050H
	DB	0ffH
	DB	048H
	DB	04cH
	DB	048H
	DB	0ffH
	DB	048H
	DB	04cH
	DB	048H
	DB	0ffH
	DB	050H
	DB	04cH
	DB	050H
	DB	0ffH
	DB	048H
	DB	04cH
	DB	048H
	DB	0ffH
	DB	048H
	DB	04cH
	DB	048H
	DB	0ffH
	DB	050H
	DB	04cH
	DB	050H
	DB	0ffH
	DB	048H
	DB	04cH
	DB	048H
	DB	0ffH
	DB	048H
	DB	04cH
	DB	048H
	DB	0ffH
	DB	050H
	DB	04cH
	DB	050H
	DB	0ffH
	DB	048H
	DB	04cH
	DB	048H
	DB	0ffH
	DB	048H
	DB	04cH
	DB	048H
	DB	0ffH
	DB	050H
	DB	04cH
	DB	050H
	DB	0ffH
	DB	048H
	DB	04cH
	DB	048H
	DB	0ffH
	DB	048H
	DB	04cH
	DB	048H
	DB	0ffH
	DB	050H
	DB	04cH
	DB	050H
	DB	0ffH
	DB	048H
	DB	04cH
	DB	048H
	DB	0ffH
	DB	048H
	DB	04cH
	DB	048H
	DB	0ffH
	DB	050H
	DB	04cH
	DB	050H
	DB	0ffH
	DB	048H
	DB	04cH
	DB	048H
	DB	0ffH
	DB	048H
	DB	04cH
	DB	048H
	DB	0ffH
	DB	050H
	DB	04cH
	DB	050H
	DB	0ffH
	DB	048H
	DB	04cH
	DB	048H
	DB	0ffH
	DB	048H
	DB	04cH
	DB	048H
	DB	0ffH
	DB	050H
	DB	04cH
	DB	050H
	DB	0ffH
	DB	048H
	DB	04cH
	DB	048H
	DB	0ffH
	DB	048H
	DB	04cH
	DB	048H
	DB	0ffH
	DB	050H
	DB	04cH
	DB	050H
	DB	0ffH
	DB	048H
	DB	04cH
	DB	048H
	DB	0ffH
	DB	048H
	DB	04cH
	DB	048H
	DB	0ffH
	DB	050H
	DB	04cH
	DB	050H
	DB	0ffH
	DB	048H
	DB	04cH
	DB	048H
	DB	0ffH
	DB	048H
	DB	04cH
	DB	048H
	DB	0ffH
	DB	050H
	DB	04cH
	DB	050H
	DB	0ffH
	DB	048H
	DB	04cH
	DB	048H
	DB	0ffH
	DB	048H
	DB	04cH
	DB	048H
	DB	0ffH
	DB	050H
	DB	04cH
	DB	050H
	DB	0ffH
	DB	048H
	DB	04cH
	DB	048H
	DB	0ffH
	DB	048H
	DB	04cH
	DB	048H
	DB	0ffH
	DB	050H
	DB	04cH
	DB	050H
	DB	0ffH
	DB	048H
	DB	04cH
	DB	048H
	DB	0ffH
	DB	048H
	DB	04cH
	DB	048H
	DB	0ffH
	DB	050H
	DB	04cH
	DB	050H
	DB	0ffH
	DB	048H
	DB	04cH
	DB	048H
	DB	0ffH
	DB	048H
	DB	04cH
	DB	048H
	DB	0ffH
	DB	050H
	DB	04cH
	DB	050H
	DB	0ffH
	DB	048H
	DB	04cH
	DB	048H
	DB	0ffH
	DB	048H
	DB	04cH
	DB	048H
	DB	0ffH
	DB	050H
	DB	04cH
	DB	050H
	DB	0ffH
	DB	048H
	DB	04cH
	DB	048H
	DB	0ffH
	DB	048H
	DB	04cH
	DB	048H
	DB	0ffH
	DB	050H
	DB	04cH
	DB	050H
	DB	0ffH
	DB	048H
	DB	04cH
	DB	048H
	DB	0ffH
	DB	048H
	DB	04cH
	DB	048H
	DB	0ffH
	DB	050H
	DB	04cH
	DB	050H
	DB	0ffH
	DB	048H
	DB	04cH
	DB	048H
	DB	0ffH
	DB	048H
	DB	04cH
	DB	048H
	DB	0ffH
	DB	050H
	DB	04cH
	DB	050H
	DB	0ffH
	DB	048H
	DB	04cH
	DB	048H
	DB	0ffH
	DB	048H
	DB	04cH
	DB	048H
	DB	0ffH
	DB	050H
	DB	04cH
	DB	050H
	DB	0ffH
	DB	048H
	DB	04cH
	DB	048H
	DB	0ffH
	DB	048H
	DB	04cH
	DB	048H
	DB	0ffH
	DB	050H
	DB	04cH
	DB	050H
	DB	0ffH
	DB	048H
	DB	04cH
	DB	048H
	DB	0ffH
	DB	048H
	DB	04cH
	DB	048H
	DB	0ffH
	DB	050H
	DB	04cH
	DB	050H
	DB	0ffH
	DB	048H
	DB	04cH
	DB	048H
	DB	0ffH
	DB	048H
	DB	04cH
	DB	048H
	DB	0ffH
	DB	050H
	DB	04cH
	DB	050H
	DB	0ffH
	DB	048H
	DB	04cH
	DB	048H
	DB	0ffH
	DB	048H
	DB	04cH
	DB	048H
	DB	0ffH
	DB	050H
	DB	04cH
	DB	050H
	DB	0ffH
	DB	048H
	DB	04cH
	DB	048H
	DB	0ffH
	DB	048H
	DB	04cH
	DB	048H
	DB	0ffH
	DB	050H
	DB	04cH
	DB	050H
	DB	0ffH
	DB	048H
	DB	04cH
	DB	048H
	DB	0ffH
	DB	048H
	DB	04cH
	DB	048H
	DB	0ffH
	DB	050H
	DB	04cH
	DB	050H
	DB	0ffH
	DB	048H
	DB	04cH
	DB	048H
	DB	0ffH
	DB	048H
	DB	04cH
	DB	048H
	DB	0ffH
	DB	050H
	DB	04cH
	DB	050H
	DB	0ffH
	DB	048H
	DB	04cH
	DB	048H
	DB	0ffH
	DB	048H
	DB	04cH
	DB	048H
	DB	0ffH
	DB	050H
	DB	04cH
	DB	050H
	DB	0ffH
	DB	048H
	DB	04cH
	DB	048H
	DB	0ffH
	DB	048H
	DB	04cH
	DB	048H
	DB	0ffH
	DB	050H
	DB	04cH
	DB	050H
	DB	0ffH
	DB	048H
	DB	04cH
	DB	048H
	DB	0ffH
	DB	048H
	DB	04cH
	DB	048H
	DB	0ffH
	DB	050H
	DB	04cH
	DB	050H
	DB	0ffH
	DB	048H
	DB	04cH
	DB	048H
	DB	0ffH
	DB	048H
	DB	04cH
	DB	048H
	DB	0ffH
	DB	050H
	DB	04cH
	DB	050H
	DB	0ffH
	DB	048H
	DB	04cH
	DB	048H
	DB	0ffH
	DB	048H
	DB	04cH
	DB	048H
	DB	0ffH
	DB	050H
	DB	04cH
	DB	050H
	DB	0ffH
	DB	048H
	DB	04cH
	DB	048H
	DB	0ffH
	DB	048H
	DB	04cH
	DB	048H
	DB	0ffH
	DB	050H
	DB	04cH
	DB	050H
	DB	0ffH
	DB	048H
	DB	04cH
	DB	048H
	DB	0ffH
	DB	048H
	DB	04cH
	DB	048H
	DB	0ffH
	DB	050H
	DB	04cH
	DB	050H
	DB	0ffH
	DB	048H
	DB	04cH
	DB	048H
	DB	0ffH
	DB	048H
	DB	04cH
	DB	048H
	DB	0ffH
	DB	050H
	DB	04cH
	DB	050H
	DB	0ffH
	DB	048H
	DB	04cH
	DB	048H
	DB	0ffH
	DB	048H
	DB	04cH
	DB	048H
	DB	0ffH
	DB	050H
	DB	04cH
	DB	050H
	DB	0ffH
	DB	048H
	DB	04cH
	DB	048H
	DB	0ffH
	DB	048H
	DB	04cH
	DB	048H
	DB	0ffH
	DB	050H
	DB	04cH
	DB	050H
	DB	0ffH
	DB	048H
	DB	04cH
	DB	048H
	DB	0ffH
	DB	048H
	DB	04cH
	DB	048H
	DB	0ffH
	DB	050H
	DB	04cH
	DB	050H
	DB	0ffH
	DB	048H
	DB	04cH
	DB	048H
	DB	0ffH
	DB	048H
	DB	04cH
	DB	048H
	DB	0ffH
	DB	050H
	DB	04cH
	DB	050H
	DB	0ffH
	DB	048H
	DB	04cH
	DB	048H
	DB	0ffH
	DB	048H
	DB	04cH
	DB	048H
	DB	0ffH
	DB	050H
	DB	04cH
	DB	050H
	DB	0ffH
	DB	048H
	DB	04cH
	DB	048H
	DB	0ffH
	DB	048H
	DB	04cH
	DB	048H
	DB	0ffH
	DB	050H
	DB	04cH
	DB	050H
	DB	0ffH
	DB	048H
	DB	04cH
	DB	048H
	DB	0ffH
	DB	050H
	DB	04cH
	DB	050H
	DB	0ffH
	DB	048H
	DB	04cH
	DB	050H
	DB	0ffH
	DB	050H
	DB	04cH
	DB	048H
	DB	0ffH
	DB	048H
	DB	048H
	DB	048H
	DB	0ffH
	DB	048H
	DB	04cH
	DB	048H
	DB	0ffH
	DB	048H
	DB	048H
	DB	048H
	DB	0ffH
	DB	050H
	DB	048H
	DB	048H
	DB	0ffH
	DB	048H
	DB	04cH
	DB	048H
	DB	0ffH
	DB	048H
	DB	048H
	DB	048H
	DB	0ffH
	DB	028H
	DB	024H
	DB	028H
	DB	0ffH
	DB	028H
	DB	024H
	DB	028H
	DB	0ffH
	DB	090H
	DB	094H
	DB	090H
	DB	092H
	DB	020H
	DB	024H
	DB	020H
	DB	0ffH
	DB	028H
	DB	024H
	DB	028H
	DB	0ffH
	DB	048H
	DB	048H
	DB	048H
	DB	0ffH
	DB	048H
	DB	04cH
	DB	048H
	DB	0ffH
	DB	050H
	DB	04cH
	DB	050H
	DB	0ffH
	DB	048H
	DB	048H
	DB	050H
	DB	0ffH
	DB	050H
	DB	04cH
	DB	048H
	DB	0ffH
	DB	048H
	DB	048H
	DB	048H
	DB	0ffH
	DB	048H
	DB	04cH
	DB	050H
	DB	0ffH
	DB	050H
	DB	04cH
	DB	048H
	DB	0ffH
	DB	040H
	DB	040H
	DB	040H
	DB	0ffH
	DB	040H
	DB	03cH
	DB	040H
	DB	0ffH
	DB	038H
	DB	038H
	DB	038H
	DB	0ffH
	DB	038H
	DB	038H
	DB	038H
	DB	0ffH
	DB	038H
	DB	038H
	DB	038H
	DB	0ffH
	DB	038H
	DB	038H
	DB	038H
	DB	0ffH
	DB	038H
	DB	038H
	DB	038H
	DB	0ffH
	DB	038H
	DB	038H
	DB	038H
	DB	0ffH
	DB	038H
	DB	038H
	DB	038H
	DB	0ffH
	DB	038H
	DB	038H
	DB	038H
	DB	0ffH
	DB	038H
	DB	038H
	DB	038H
	DB	0ffH
	DB	038H
	DB	038H
	DB	038H
	DB	0ffH
	DB	038H
	DB	038H
	DB	038H
	DB	0ffH
	DB	038H
	DB	038H
	DB	038H
	DB	0ffH
	DB	038H
	DB	038H
	DB	038H
	DB	0ffH
	DB	038H
	DB	038H
	DB	038H
	DB	0ffH
	DB	038H
	DB	038H
	DB	038H
	DB	0ffH
	DB	038H
	DB	038H
	DB	038H
	DB	0ffH
	DB	038H
	DB	038H
	DB	038H
	DB	0ffH
	DB	038H
	DB	038H
	DB	038H
	DB	0ffH
	DB	038H
	DB	038H
	DB	038H
	DB	0ffH
	DB	038H
	DB	038H
	DB	038H
	DB	0ffH
	DB	038H
	DB	038H
	DB	038H
	DB	0ffH
	DB	038H
	DB	038H
	DB	038H
	DB	0ffH
	DB	038H
	DB	038H
	DB	038H
	DB	0ffH
	DB	038H
	DB	038H
	DB	038H
	DB	0ffH
	DB	038H
	DB	038H
	DB	038H
	DB	0ffH
	DB	038H
	DB	038H
	DB	038H
	DB	0ffH
	DB	038H
	DB	038H
	DB	038H
	DB	0ffH
	DB	038H
	DB	038H
	DB	038H
	DB	0ffH
	DB	038H
	DB	038H
	DB	038H
	DB	0ffH
	DB	038H
	DB	038H
	DB	038H
	DB	0ffH
	DB	038H
	DB	038H
	DB	038H
	DB	0ffH
	DB	038H
	DB	038H
	DB	038H
	DB	0ffH
	DB	038H
	DB	038H
	DB	038H
	DB	0ffH
	DB	038H
	DB	038H
	DB	038H
	DB	0ffH
	DB	038H
	DB	038H
	DB	038H
	DB	0ffH
	DB	038H
	DB	038H
	DB	038H
	DB	0ffH
	DB	038H
	DB	038H
	DB	038H
	DB	0ffH
	DB	038H
	DB	038H
	DB	038H
	DB	0ffH
	DB	038H
	DB	038H
	DB	038H
	DB	0ffH
	DB	038H
	DB	038H
	DB	038H
	DB	0ffH
	DB	038H
	DB	038H
	DB	038H
	DB	0ffH
	DB	038H
	DB	038H
	DB	038H
	DB	0ffH
	DB	038H
	DB	038H
	DB	038H
	DB	0ffH
	DB	038H
	DB	038H
	DB	038H
	DB	0ffH
	DB	038H
	DB	038H
	DB	038H
	DB	0ffH
	DB	038H
	DB	038H
	DB	038H
	DB	0ffH
	DB	038H
	DB	038H
	DB	038H
	DB	0ffH
	DB	038H
	DB	038H
	DB	038H
	DB	0ffH
	DB	038H
	DB	038H
	DB	038H
	DB	0ffH
	DB	038H
	DB	038H
	DB	038H
	DB	0ffH
	DB	038H
	DB	038H
	DB	038H
	DB	0ffH
	DB	038H
	DB	038H
	DB	038H
	DB	0ffH
	DB	038H
	DB	038H
	DB	038H
	DB	0ffH
	DB	038H
	DB	038H
	DB	038H
	DB	0ffH
	DB	038H
	DB	038H
	DB	038H
	DB	0ffH
	DB	038H
	DB	038H
	DB	038H
	DB	0ffH
	DB	038H
	DB	038H
	DB	038H
	DB	0ffH
	DB	038H
	DB	038H
	DB	038H
	DB	0ffH
	DB	038H
	DB	038H
	DB	038H
	DB	0ffH
	DB	038H
	DB	038H
	DB	038H
	DB	0ffH
	DB	038H
	DB	038H
	DB	038H
	DB	0ffH
	DB	038H
	DB	038H
	DB	038H
	DB	0ffH
	DB	038H
	DB	038H
	DB	038H
	DB	0ffH
	DB	038H
	DB	038H
	DB	038H
	DB	0ffH
	DB	038H
	DB	038H
	DB	038H
	DB	0ffH
	DB	038H
	DB	038H
	DB	038H
	DB	0ffH
	DB	038H
	DB	038H
	DB	038H
	DB	0ffH
	DB	038H
	DB	038H
	DB	038H
	DB	0ffH
	DB	038H
	DB	038H
	DB	038H
	DB	0ffH
	DB	038H
	DB	038H
	DB	038H
	DB	0ffH
	DB	038H
	DB	038H
	DB	038H
	DB	0ffH
	DB	038H
	DB	038H
	DB	038H
	DB	0ffH
	DB	038H
	DB	038H
	DB	038H
	DB	0ffH
	DB	038H
	DB	038H
	DB	038H
	DB	0ffH
	DB	038H
	DB	038H
	DB	038H
	DB	0ffH
	DB	038H
	DB	038H
	DB	038H
	DB	0ffH
	DB	038H
	DB	038H
	DB	038H
	DB	0ffH
	DB	038H
	DB	038H
	DB	038H
	DB	0ffH
	DB	038H
	DB	038H
	DB	038H
	DB	0ffH
	DB	038H
	DB	038H
	DB	038H
	DB	0ffH
	DB	038H
	DB	038H
	DB	038H
	DB	0ffH
	DB	038H
	DB	038H
	DB	038H
	DB	0ffH
	DB	038H
	DB	038H
	DB	038H
	DB	0ffH
	DB	038H
	DB	038H
	DB	038H
	DB	0ffH
	DB	038H
	DB	038H
	DB	038H
	DB	0ffH
	DB	038H
	DB	038H
	DB	038H
	DB	0ffH
	DB	038H
	DB	038H
	DB	038H
	DB	0ffH
	DB	038H
	DB	038H
	DB	038H
	DB	0ffH
	DB	038H
	DB	038H
	DB	038H
	DB	0ffH
	DB	038H
	DB	038H
	DB	038H
	DB	0ffH
	DB	038H
	DB	038H
	DB	038H
	DB	0ffH
	DB	038H
	DB	038H
	DB	038H
	DB	0ffH
	DB	038H
	DB	038H
	DB	038H
	DB	0ffH
	DB	038H
	DB	038H
	DB	038H
	DB	0ffH
	DB	038H
	DB	038H
	DB	038H
	DB	0ffH
	DB	038H
	DB	038H
	DB	038H
	DB	0ffH
	DB	038H
	DB	038H
	DB	038H
	DB	0ffH
	DB	038H
	DB	038H
	DB	038H
	DB	0ffH
	DB	038H
	DB	038H
	DB	038H
	DB	0ffH
	DB	038H
	DB	038H
	DB	038H
	DB	0ffH
	DB	038H
	DB	038H
	DB	038H
	DB	0ffH
	DB	038H
	DB	038H
	DB	038H
	DB	0ffH
	DB	038H
	DB	038H
	DB	038H
	DB	0ffH
	DB	038H
	DB	038H
	DB	038H
	DB	0ffH
	DB	038H
	DB	038H
	DB	038H
	DB	0ffH
	DB	038H
	DB	038H
	DB	038H
	DB	0ffH
	DB	038H
	DB	038H
	DB	038H
	DB	0ffH
	DB	038H
	DB	038H
	DB	038H
	DB	0ffH
	DB	038H
	DB	038H
	DB	038H
	DB	0ffH
	DB	038H
	DB	038H
	DB	038H
	DB	0ffH
	DB	038H
	DB	038H
	DB	038H
	DB	0ffH
	DB	038H
	DB	038H
	DB	038H
	DB	0ffH
	DB	038H
	DB	038H
	DB	038H
	DB	0ffH
	DB	038H
	DB	038H
	DB	038H
	DB	0ffH
	DB	038H
	DB	038H
	DB	038H
	DB	0ffH
	DB	038H
	DB	038H
	DB	038H
	DB	0ffH
	DB	038H
	DB	038H
	DB	038H
	DB	0ffH
	DB	038H
	DB	038H
	DB	038H
	DB	0ffH
	DB	038H
	DB	038H
	DB	038H
	DB	0ffH
	DB	038H
	DB	038H
	DB	038H
	DB	0ffH
	DB	038H
	DB	038H
	DB	038H
	DB	0ffH
	DB	038H
	DB	038H
	DB	038H
	DB	0ffH
	DB	038H
	DB	038H
	DB	038H
	DB	0ffH
	DB	038H
	DB	038H
	DB	038H
	DB	0ffH
	DB	038H
	DB	038H
	DB	038H
	DB	0ffH
	DB	038H
	DB	038H
	DB	038H
	DB	0ffH
	DB	038H
	DB	038H
	DB	038H
	DB	0ffH
	DB	038H
	DB	038H
	DB	038H
	DB	0ffH
	DB	038H
	DB	038H
	DB	038H
	DB	0ffH
	DB	038H
	DB	038H
	DB	038H
	DB	0ffH
	DB	038H
	DB	038H
	DB	038H
	DB	0ffH
	DB	038H
	DB	038H
	DB	038H
	DB	0ffH
	DB	038H
	DB	038H
	DB	038H
	DB	0ffH
	DB	038H
	DB	038H
	DB	038H
	DB	0ffH
	DB	038H
	DB	038H
	DB	038H
	DB	0ffH
	DB	038H
	DB	038H
	DB	038H
	DB	0ffH
	DB	038H
	DB	038H
	DB	038H
	DB	0ffH
	DB	038H
	DB	038H
	DB	038H
	DB	0ffH
	DB	038H
	DB	038H
	DB	038H
	DB	0ffH
	DB	038H
	DB	038H
	DB	038H
	DB	0ffH
	DB	038H
	DB	038H
	DB	038H
	DB	0ffH
	DB	038H
	DB	038H
	DB	038H
	DB	0ffH
	DB	038H
	DB	038H
	DB	038H
	DB	0ffH
	DB	038H
	DB	038H
	DB	038H
	DB	0ffH
	DB	038H
	DB	038H
	DB	038H
	DB	0ffH
	DB	038H
	DB	038H
	DB	038H
	DB	0ffH
	DB	038H
	DB	038H
	DB	038H
	DB	0ffH
	DB	038H
	DB	038H
	DB	038H
	DB	0ffH
	DB	038H
	DB	038H
	DB	038H
	DB	0ffH
	DB	038H
	DB	038H
	DB	038H
	DB	0ffH
	DB	038H
	DB	038H
	DB	038H
	DB	0ffH
	DB	038H
	DB	038H
	DB	038H
	DB	0ffH
	DB	038H
	DB	038H
	DB	038H
	DB	0ffH
	DB	038H
	DB	038H
	DB	038H
	DB	0ffH
	DB	038H
	DB	038H
	DB	038H
	DB	0ffH
	DB	038H
	DB	038H
	DB	038H
	DB	0ffH
	DB	038H
	DB	038H
	DB	038H
	DB	0ffH
	DB	038H
	DB	038H
	DB	038H
	DB	0ffH
	DB	038H
	DB	038H
	DB	038H
	DB	0ffH
	DB	038H
	DB	038H
	DB	038H
	DB	0ffH
	DB	038H
	DB	038H
	DB	038H
	DB	0ffH
	DB	038H
	DB	038H
	DB	038H
	DB	0ffH
	DB	038H
	DB	038H
	DB	038H
	DB	0ffH
	DB	038H
	DB	038H
	DB	038H
	DB	0ffH
	DB	038H
	DB	038H
	DB	038H
	DB	0ffH
	DB	038H
	DB	038H
	DB	038H
	DB	0ffH
	DB	038H
	DB	038H
	DB	038H
	DB	0ffH
	DB	038H
	DB	038H
	DB	038H
	DB	0ffH
	DB	040H
	DB	03cH
	DB	040H
	DB	0ffH
	DB	040H
	DB	040H
	DB	040H
	DB	0ffH
	DB	048H
	DB	04cH
	DB	048H
	DB	0ffH
	DB	048H
	DB	04cH
	DB	050H
	DB	0ffH
	DB	048H
	DB	048H
	DB	048H
	DB	0ffH
	DB	050H
	DB	04cH
	DB	048H
	DB	0ffH
	DB	048H
	DB	048H
	DB	050H
	DB	0ffH
	DB	048H
	DB	048H
	DB	050H
	DB	0ffH
	DB	048H
	DB	04cH
	DB	048H
	DB	0ffH
	DB	048H
	DB	048H
	DB	048H
	DB	0ffH
	DB	028H
	DB	024H
	DB	028H
	DB	0ffH
	DB	020H
	DB	024H
	DB	028H
	DB	0ffH
	DB	098H
	DB	094H
	DB	090H
	DB	096H
	DB	028H
	DB	024H
	DB	028H
	DB	0ffH
	DB	028H
	DB	024H
	DB	020H
	DB	0ffH
	DB	048H
	DB	048H
	DB	048H
	DB	0ffH
	DB	048H
	DB	048H
	DB	048H
	DB	0ffH
	DB	048H
	DB	048H
	DB	048H
	DB	0ffH
	DB	048H
	DB	048H
	DB	048H
	DB	0ffH
	DB	048H
	DB	048H
	DB	048H
	DB	0ffH
	DB	048H
	DB	048H
	DB	048H
	DB	0ffH
	DB	050H
	DB	04cH
	DB	050H
	DB	0ffH
	DB	048H
	DB	04cH
	DB	048H
	DB	0ffH
	DB	040H
	DB	040H
	DB	040H
	DB	0ffH
	DB	038H
	DB	038H
	DB	038H
	DB	0ffH
	DB	038H
	DB	038H
	DB	038H
	DB	0ffH
	DB	038H
	DB	03cH
	DB	038H
	DB	0ffH
	DB	038H
	DB	038H
	DB	038H
	DB	0ffH
	DB	038H
	DB	03cH
	DB	038H
	DB	0ffH
	DB	038H
	DB	038H
	DB	038H
	DB	0ffH
	DB	038H
	DB	03cH
	DB	038H
	DB	0ffH
	DB	038H
	DB	038H
	DB	038H
	DB	0ffH
	DB	038H
	DB	03cH
	DB	038H
	DB	0ffH
	DB	038H
	DB	038H
	DB	038H
	DB	0ffH
	DB	038H
	DB	03cH
	DB	038H
	DB	0ffH
	DB	038H
	DB	038H
	DB	038H
	DB	0ffH
	DB	038H
	DB	03cH
	DB	038H
	DB	0ffH
	DB	038H
	DB	038H
	DB	038H
	DB	0ffH
	DB	038H
	DB	03cH
	DB	038H
	DB	0ffH
	DB	038H
	DB	038H
	DB	038H
	DB	0ffH
	DB	038H
	DB	03cH
	DB	038H
	DB	0ffH
	DB	038H
	DB	038H
	DB	038H
	DB	0ffH
	DB	038H
	DB	03cH
	DB	038H
	DB	0ffH
	DB	038H
	DB	038H
	DB	038H
	DB	0ffH
	DB	038H
	DB	03cH
	DB	038H
	DB	0ffH
	DB	038H
	DB	038H
	DB	038H
	DB	0ffH
	DB	038H
	DB	03cH
	DB	038H
	DB	0ffH
	DB	038H
	DB	038H
	DB	038H
	DB	0ffH
	DB	038H
	DB	03cH
	DB	038H
	DB	0ffH
	DB	038H
	DB	038H
	DB	038H
	DB	0ffH
	DB	038H
	DB	03cH
	DB	038H
	DB	0ffH
	DB	038H
	DB	038H
	DB	038H
	DB	0ffH
	DB	038H
	DB	03cH
	DB	038H
	DB	0ffH
	DB	038H
	DB	038H
	DB	038H
	DB	0ffH
	DB	038H
	DB	03cH
	DB	038H
	DB	0ffH
	DB	038H
	DB	038H
	DB	038H
	DB	0ffH
	DB	038H
	DB	03cH
	DB	038H
	DB	0ffH
	DB	038H
	DB	038H
	DB	038H
	DB	0ffH
	DB	038H
	DB	03cH
	DB	038H
	DB	0ffH
	DB	038H
	DB	038H
	DB	038H
	DB	0ffH
	DB	038H
	DB	03cH
	DB	038H
	DB	0ffH
	DB	038H
	DB	038H
	DB	038H
	DB	0ffH
	DB	038H
	DB	03cH
	DB	038H
	DB	0ffH
	DB	038H
	DB	038H
	DB	038H
	DB	0ffH
	DB	038H
	DB	03cH
	DB	038H
	DB	0ffH
	DB	038H
	DB	038H
	DB	038H
	DB	0ffH
	DB	038H
	DB	03cH
	DB	038H
	DB	0ffH
	DB	038H
	DB	038H
	DB	038H
	DB	0ffH
	DB	038H
	DB	03cH
	DB	038H
	DB	0ffH
	DB	038H
	DB	038H
	DB	038H
	DB	0ffH
	DB	038H
	DB	03cH
	DB	038H
	DB	0ffH
	DB	038H
	DB	038H
	DB	038H
	DB	0ffH
	DB	038H
	DB	03cH
	DB	038H
	DB	0ffH
	DB	038H
	DB	038H
	DB	038H
	DB	0ffH
	DB	038H
	DB	03cH
	DB	038H
	DB	0ffH
	DB	038H
	DB	038H
	DB	038H
	DB	0ffH
	DB	038H
	DB	03cH
	DB	038H
	DB	0ffH
	DB	038H
	DB	038H
	DB	038H
	DB	0ffH
	DB	038H
	DB	03cH
	DB	038H
	DB	0ffH
	DB	038H
	DB	038H
	DB	038H
	DB	0ffH
	DB	038H
	DB	03cH
	DB	038H
	DB	0ffH
	DB	038H
	DB	038H
	DB	038H
	DB	0ffH
	DB	038H
	DB	03cH
	DB	038H
	DB	0ffH
	DB	038H
	DB	038H
	DB	038H
	DB	0ffH
	DB	038H
	DB	03cH
	DB	038H
	DB	0ffH
	DB	038H
	DB	038H
	DB	038H
	DB	0ffH
	DB	038H
	DB	03cH
	DB	038H
	DB	0ffH
	DB	038H
	DB	038H
	DB	038H
	DB	0ffH
	DB	038H
	DB	03cH
	DB	038H
	DB	0ffH
	DB	038H
	DB	038H
	DB	038H
	DB	0ffH
	DB	038H
	DB	03cH
	DB	038H
	DB	0ffH
	DB	038H
	DB	038H
	DB	038H
	DB	0ffH
	DB	038H
	DB	03cH
	DB	038H
	DB	0ffH
	DB	038H
	DB	038H
	DB	038H
	DB	0ffH
	DB	038H
	DB	03cH
	DB	038H
	DB	0ffH
	DB	038H
	DB	038H
	DB	038H
	DB	0ffH
	DB	038H
	DB	03cH
	DB	038H
	DB	0ffH
	DB	038H
	DB	038H
	DB	038H
	DB	0ffH
	DB	038H
	DB	03cH
	DB	038H
	DB	0ffH
	DB	038H
	DB	038H
	DB	038H
	DB	0ffH
	DB	038H
	DB	03cH
	DB	038H
	DB	0ffH
	DB	038H
	DB	038H
	DB	038H
	DB	0ffH
	DB	038H
	DB	03cH
	DB	038H
	DB	0ffH
	DB	038H
	DB	038H
	DB	038H
	DB	0ffH
	DB	038H
	DB	03cH
	DB	038H
	DB	0ffH
	DB	038H
	DB	038H
	DB	038H
	DB	0ffH
	DB	038H
	DB	03cH
	DB	038H
	DB	0ffH
	DB	038H
	DB	038H
	DB	038H
	DB	0ffH
	DB	038H
	DB	03cH
	DB	038H
	DB	0ffH
	DB	038H
	DB	038H
	DB	038H
	DB	0ffH
	DB	038H
	DB	03cH
	DB	038H
	DB	0ffH
	DB	038H
	DB	038H
	DB	038H
	DB	0ffH
	DB	038H
	DB	03cH
	DB	038H
	DB	0ffH
	DB	038H
	DB	038H
	DB	038H
	DB	0ffH
	DB	038H
	DB	03cH
	DB	038H
	DB	0ffH
	DB	038H
	DB	038H
	DB	038H
	DB	0ffH
	DB	038H
	DB	03cH
	DB	038H
	DB	0ffH
	DB	038H
	DB	038H
	DB	038H
	DB	0ffH
	DB	038H
	DB	03cH
	DB	038H
	DB	0ffH
	DB	038H
	DB	038H
	DB	038H
	DB	0ffH
	DB	038H
	DB	03cH
	DB	038H
	DB	0ffH
	DB	038H
	DB	038H
	DB	038H
	DB	0ffH
	DB	038H
	DB	03cH
	DB	038H
	DB	0ffH
	DB	038H
	DB	038H
	DB	038H
	DB	0ffH
	DB	038H
	DB	03cH
	DB	038H
	DB	0ffH
	DB	038H
	DB	038H
	DB	038H
	DB	0ffH
	DB	038H
	DB	03cH
	DB	038H
	DB	0ffH
	DB	038H
	DB	038H
	DB	038H
	DB	0ffH
	DB	038H
	DB	03cH
	DB	038H
	DB	0ffH
	DB	038H
	DB	038H
	DB	038H
	DB	0ffH
	DB	038H
	DB	03cH
	DB	038H
	DB	0ffH
	DB	038H
	DB	038H
	DB	038H
	DB	0ffH
	DB	038H
	DB	03cH
	DB	038H
	DB	0ffH
	DB	038H
	DB	038H
	DB	038H
	DB	0ffH
	DB	038H
	DB	03cH
	DB	038H
	DB	0ffH
	DB	038H
	DB	038H
	DB	038H
	DB	0ffH
	DB	038H
	DB	03cH
	DB	038H
	DB	0ffH
	DB	038H
	DB	038H
	DB	038H
	DB	0ffH
	DB	038H
	DB	03cH
	DB	038H
	DB	0ffH
	DB	038H
	DB	038H
	DB	038H
	DB	0ffH
	DB	038H
	DB	03cH
	DB	038H
	DB	0ffH
	DB	038H
	DB	038H
	DB	038H
	DB	0ffH
	DB	038H
	DB	03cH
	DB	038H
	DB	0ffH
	DB	038H
	DB	038H
	DB	038H
	DB	0ffH
	DB	038H
	DB	03cH
	DB	038H
	DB	0ffH
	DB	038H
	DB	038H
	DB	038H
	DB	0ffH
	DB	038H
	DB	03cH
	DB	038H
	DB	0ffH
	DB	038H
	DB	038H
	DB	038H
	DB	0ffH
	DB	038H
	DB	03cH
	DB	038H
	DB	0ffH
	DB	038H
	DB	038H
	DB	038H
	DB	0ffH
	DB	038H
	DB	03cH
	DB	038H
	DB	0ffH
	DB	038H
	DB	038H
	DB	038H
	DB	0ffH
	DB	038H
	DB	03cH
	DB	038H
	DB	0ffH
	DB	038H
	DB	038H
	DB	038H
	DB	0ffH
	DB	038H
	DB	03cH
	DB	038H
	DB	0ffH
	DB	038H
	DB	038H
	DB	038H
	DB	0ffH
	DB	038H
	DB	03cH
	DB	038H
	DB	0ffH
	DB	038H
	DB	038H
	DB	038H
	DB	0ffH
	DB	038H
	DB	03cH
	DB	038H
	DB	0ffH
	DB	038H
	DB	038H
	DB	038H
	DB	0ffH
	DB	038H
	DB	03cH
	DB	038H
	DB	0ffH
	DB	038H
	DB	038H
	DB	038H
	DB	0ffH
	DB	038H
	DB	03cH
	DB	038H
	DB	0ffH
	DB	038H
	DB	038H
	DB	038H
	DB	0ffH
	DB	038H
	DB	03cH
	DB	038H
	DB	0ffH
	DB	038H
	DB	038H
	DB	038H
	DB	0ffH
	DB	038H
	DB	03cH
	DB	038H
	DB	0ffH
	DB	038H
	DB	038H
	DB	038H
	DB	0ffH
	DB	038H
	DB	03cH
	DB	038H
	DB	0ffH
	DB	038H
	DB	038H
	DB	038H
	DB	0ffH
	DB	038H
	DB	03cH
	DB	038H
	DB	0ffH
	DB	038H
	DB	038H
	DB	038H
	DB	0ffH
	DB	038H
	DB	03cH
	DB	038H
	DB	0ffH
	DB	038H
	DB	038H
	DB	038H
	DB	0ffH
	DB	038H
	DB	03cH
	DB	038H
	DB	0ffH
	DB	038H
	DB	038H
	DB	038H
	DB	0ffH
	DB	038H
	DB	03cH
	DB	038H
	DB	0ffH
	DB	038H
	DB	038H
	DB	038H
	DB	0ffH
	DB	038H
	DB	03cH
	DB	038H
	DB	0ffH
	DB	038H
	DB	038H
	DB	038H
	DB	0ffH
	DB	038H
	DB	03cH
	DB	038H
	DB	0ffH
	DB	038H
	DB	038H
	DB	038H
	DB	0ffH
	DB	038H
	DB	03cH
	DB	038H
	DB	0ffH
	DB	038H
	DB	038H
	DB	038H
	DB	0ffH
	DB	038H
	DB	03cH
	DB	038H
	DB	0ffH
	DB	038H
	DB	038H
	DB	038H
	DB	0ffH
	DB	038H
	DB	03cH
	DB	038H
	DB	0ffH
	DB	038H
	DB	038H
	DB	038H
	DB	0ffH
	DB	038H
	DB	03cH
	DB	038H
	DB	0ffH
	DB	038H
	DB	038H
	DB	038H
	DB	0ffH
	DB	038H
	DB	03cH
	DB	038H
	DB	0ffH
	DB	038H
	DB	038H
	DB	038H
	DB	0ffH
	DB	038H
	DB	038H
	DB	038H
	DB	0ffH
	DB	038H
	DB	03cH
	DB	038H
	DB	0ffH
	DB	040H
	DB	040H
	DB	040H
	DB	0ffH
	DB	050H
	DB	04cH
	DB	048H
	DB	0ffH
	DB	048H
	DB	04cH
	DB	048H
	DB	0ffH
	DB	048H
	DB	048H
	DB	048H
	DB	0ffH
	DB	048H
	DB	048H
	DB	048H
	DB	0ffH
	DB	048H
	DB	048H
	DB	048H
	DB	0ffH
	DB	048H
	DB	048H
	DB	048H
	DB	0ffH
	DB	048H
	DB	048H
	DB	048H
	DB	0ffH
	DB	048H
	DB	048H
	DB	048H
	DB	0ffH
	DB	028H
	DB	024H
	DB	028H
	DB	0ffH
	DB	028H
	DB	024H
	DB	020H
	DB	0ffH
	DB	090H
	DB	094H
	DB	090H
	DB	092H
	DB	028H
	DB	024H
	DB	028H
	DB	0ffH
	DB	020H
	DB	024H
	DB	028H
	DB	0ffH
	DB	048H
	DB	048H
	DB	048H
	DB	0ffH
	DB	048H
	DB	048H
	DB	048H
	DB	0ffH
	DB	048H
	DB	048H
	DB	048H
	DB	0ffH
	DB	048H
	DB	048H
	DB	048H
	DB	0ffH
	DB	048H
	DB	048H
	DB	048H
	DB	0ffH
	DB	048H
	DB	048H
	DB	048H
	DB	0ffH
	DB	048H
	DB	048H
	DB	048H
	DB	0ffH
	DB	048H
	DB	048H
	DB	048H
	DB	0ffH
	DB	040H
	DB	040H
	DB	040H
	DB	0ffH
	DB	038H
	DB	03cH
	DB	040H
	DB	0ffH
	DB	038H
	DB	03cH
	DB	038H
	DB	0ffH
	DB	040H
	DB	03cH
	DB	038H
	DB	0ffH
	DB	038H
	DB	03cH
	DB	040H
	DB	0ffH
	DB	040H
	DB	038H
	DB	038H
	DB	0ffH
	DB	038H
	DB	03cH
	DB	040H
	DB	0ffH
	DB	040H
	DB	03cH
	DB	040H
	DB	0ffH
	DB	040H
	DB	03cH
	DB	038H
	DB	0ffH
	DB	038H
	DB	038H
	DB	040H
	DB	0ffH
	DB	040H
	DB	03cH
	DB	040H
	DB	0ffH
	DB	040H
	DB	03cH
	DB	038H
	DB	0ffH
	DB	038H
	DB	03cH
	DB	040H
	DB	0ffH
	DB	040H
	DB	038H
	DB	040H
	DB	0ffH
	DB	040H
	DB	03cH
	DB	038H
	DB	0ffH
	DB	038H
	DB	03cH
	DB	040H
	DB	0ffH
	DB	040H
	DB	03cH
	DB	040H
	DB	0ffH
	DB	040H
	DB	038H
	DB	038H
	DB	0ffH
	DB	038H
	DB	03cH
	DB	040H
	DB	0ffH
	DB	040H
	DB	03cH
	DB	040H
	DB	0ffH
	DB	040H
	DB	03cH
	DB	038H
	DB	0ffH
	DB	038H
	DB	038H
	DB	040H
	DB	0ffH
	DB	040H
	DB	03cH
	DB	040H
	DB	0ffH
	DB	040H
	DB	03cH
	DB	038H
	DB	0ffH
	DB	038H
	DB	03cH
	DB	040H
	DB	0ffH
	DB	040H
	DB	038H
	DB	040H
	DB	0ffH
	DB	040H
	DB	03cH
	DB	038H
	DB	0ffH
	DB	038H
	DB	03cH
	DB	040H
	DB	0ffH
	DB	040H
	DB	03cH
	DB	040H
	DB	0ffH
	DB	040H
	DB	038H
	DB	038H
	DB	0ffH
	DB	038H
	DB	03cH
	DB	040H
	DB	0ffH
	DB	040H
	DB	03cH
	DB	040H
	DB	0ffH
	DB	040H
	DB	03cH
	DB	038H
	DB	0ffH
	DB	038H
	DB	038H
	DB	040H
	DB	0ffH
	DB	040H
	DB	03cH
	DB	040H
	DB	0ffH
	DB	040H
	DB	03cH
	DB	038H
	DB	0ffH
	DB	038H
	DB	03cH
	DB	040H
	DB	0ffH
	DB	040H
	DB	038H
	DB	040H
	DB	0ffH
	DB	040H
	DB	03cH
	DB	038H
	DB	0ffH
	DB	038H
	DB	03cH
	DB	040H
	DB	0ffH
	DB	040H
	DB	03cH
	DB	040H
	DB	0ffH
	DB	040H
	DB	038H
	DB	038H
	DB	0ffH
	DB	038H
	DB	03cH
	DB	040H
	DB	0ffH
	DB	040H
	DB	03cH
	DB	040H
	DB	0ffH
	DB	040H
	DB	03cH
	DB	038H
	DB	0ffH
	DB	038H
	DB	038H
	DB	040H
	DB	0ffH
	DB	040H
	DB	03cH
	DB	040H
	DB	0ffH
	DB	040H
	DB	03cH
	DB	038H
	DB	0ffH
	DB	038H
	DB	03cH
	DB	040H
	DB	0ffH
	DB	040H
	DB	038H
	DB	040H
	DB	0ffH
	DB	040H
	DB	03cH
	DB	038H
	DB	0ffH
	DB	038H
	DB	03cH
	DB	040H
	DB	0ffH
	DB	040H
	DB	03cH
	DB	040H
	DB	0ffH
	DB	040H
	DB	038H
	DB	038H
	DB	0ffH
	DB	038H
	DB	03cH
	DB	040H
	DB	0ffH
	DB	040H
	DB	03cH
	DB	040H
	DB	0ffH
	DB	040H
	DB	03cH
	DB	038H
	DB	0ffH
	DB	038H
	DB	038H
	DB	040H
	DB	0ffH
	DB	040H
	DB	03cH
	DB	040H
	DB	0ffH
	DB	040H
	DB	03cH
	DB	038H
	DB	0ffH
	DB	038H
	DB	03cH
	DB	040H
	DB	0ffH
	DB	040H
	DB	038H
	DB	040H
	DB	0ffH
	DB	040H
	DB	03cH
	DB	038H
	DB	0ffH
	DB	038H
	DB	03cH
	DB	040H
	DB	0ffH
	DB	040H
	DB	03cH
	DB	040H
	DB	0ffH
	DB	040H
	DB	038H
	DB	038H
	DB	0ffH
	DB	038H
	DB	03cH
	DB	040H
	DB	0ffH
	DB	040H
	DB	03cH
	DB	040H
	DB	0ffH
	DB	040H
	DB	03cH
	DB	038H
	DB	0ffH
	DB	038H
	DB	038H
	DB	040H
	DB	0ffH
	DB	040H
	DB	03cH
	DB	040H
	DB	0ffH
	DB	040H
	DB	03cH
	DB	038H
	DB	0ffH
	DB	038H
	DB	03cH
	DB	040H
	DB	0ffH
	DB	040H
	DB	038H
	DB	040H
	DB	0ffH
	DB	040H
	DB	03cH
	DB	038H
	DB	0ffH
	DB	038H
	DB	03cH
	DB	040H
	DB	0ffH
	DB	040H
	DB	03cH
	DB	040H
	DB	0ffH
	DB	040H
	DB	038H
	DB	038H
	DB	0ffH
	DB	038H
	DB	03cH
	DB	040H
	DB	0ffH
	DB	040H
	DB	03cH
	DB	040H
	DB	0ffH
	DB	040H
	DB	03cH
	DB	038H
	DB	0ffH
	DB	038H
	DB	038H
	DB	040H
	DB	0ffH
	DB	040H
	DB	03cH
	DB	040H
	DB	0ffH
	DB	040H
	DB	03cH
	DB	038H
	DB	0ffH
	DB	038H
	DB	03cH
	DB	040H
	DB	0ffH
	DB	040H
	DB	038H
	DB	040H
	DB	0ffH
	DB	040H
	DB	03cH
	DB	038H
	DB	0ffH
	DB	038H
	DB	03cH
	DB	040H
	DB	0ffH
	DB	040H
	DB	03cH
	DB	040H
	DB	0ffH
	DB	040H
	DB	038H
	DB	038H
	DB	0ffH
	DB	038H
	DB	03cH
	DB	040H
	DB	0ffH
	DB	040H
	DB	03cH
	DB	040H
	DB	0ffH
	DB	040H
	DB	03cH
	DB	038H
	DB	0ffH
	DB	038H
	DB	038H
	DB	040H
	DB	0ffH
	DB	040H
	DB	03cH
	DB	040H
	DB	0ffH
	DB	040H
	DB	03cH
	DB	038H
	DB	0ffH
	DB	038H
	DB	03cH
	DB	040H
	DB	0ffH
	DB	040H
	DB	038H
	DB	040H
	DB	0ffH
	DB	040H
	DB	03cH
	DB	038H
	DB	0ffH
	DB	038H
	DB	03cH
	DB	040H
	DB	0ffH
	DB	040H
	DB	03cH
	DB	040H
	DB	0ffH
	DB	040H
	DB	038H
	DB	038H
	DB	0ffH
	DB	038H
	DB	03cH
	DB	040H
	DB	0ffH
	DB	040H
	DB	03cH
	DB	040H
	DB	0ffH
	DB	040H
	DB	03cH
	DB	038H
	DB	0ffH
	DB	038H
	DB	038H
	DB	040H
	DB	0ffH
	DB	040H
	DB	03cH
	DB	040H
	DB	0ffH
	DB	040H
	DB	03cH
	DB	038H
	DB	0ffH
	DB	038H
	DB	03cH
	DB	040H
	DB	0ffH
	DB	040H
	DB	038H
	DB	040H
	DB	0ffH
	DB	040H
	DB	03cH
	DB	038H
	DB	0ffH
	DB	038H
	DB	03cH
	DB	040H
	DB	0ffH
	DB	040H
	DB	03cH
	DB	040H
	DB	0ffH
	DB	040H
	DB	038H
	DB	038H
	DB	0ffH
	DB	038H
	DB	03cH
	DB	040H
	DB	0ffH
	DB	040H
	DB	03cH
	DB	040H
	DB	0ffH
	DB	040H
	DB	03cH
	DB	038H
	DB	0ffH
	DB	038H
	DB	038H
	DB	040H
	DB	0ffH
	DB	040H
	DB	03cH
	DB	040H
	DB	0ffH
	DB	040H
	DB	03cH
	DB	038H
	DB	0ffH
	DB	038H
	DB	03cH
	DB	040H
	DB	0ffH
	DB	040H
	DB	038H
	DB	040H
	DB	0ffH
	DB	040H
	DB	03cH
	DB	038H
	DB	0ffH
	DB	038H
	DB	03cH
	DB	040H
	DB	0ffH
	DB	040H
	DB	03cH
	DB	040H
	DB	0ffH
	DB	040H
	DB	038H
	DB	038H
	DB	0ffH
	DB	038H
	DB	03cH
	DB	040H
	DB	0ffH
	DB	040H
	DB	03cH
	DB	040H
	DB	0ffH
	DB	040H
	DB	03cH
	DB	038H
	DB	0ffH
	DB	038H
	DB	038H
	DB	040H
	DB	0ffH
	DB	040H
	DB	03cH
	DB	040H
	DB	0ffH
	DB	040H
	DB	03cH
	DB	038H
	DB	0ffH
	DB	038H
	DB	03cH
	DB	040H
	DB	0ffH
	DB	040H
	DB	038H
	DB	040H
	DB	0ffH
	DB	040H
	DB	03cH
	DB	038H
	DB	0ffH
	DB	038H
	DB	03cH
	DB	040H
	DB	0ffH
	DB	040H
	DB	03cH
	DB	040H
	DB	0ffH
	DB	040H
	DB	038H
	DB	038H
	DB	0ffH
	DB	038H
	DB	03cH
	DB	040H
	DB	0ffH
	DB	040H
	DB	03cH
	DB	040H
	DB	0ffH
	DB	040H
	DB	03cH
	DB	038H
	DB	0ffH
	DB	038H
	DB	038H
	DB	040H
	DB	0ffH
	DB	040H
	DB	03cH
	DB	040H
	DB	0ffH
	DB	040H
	DB	03cH
	DB	038H
	DB	0ffH
	DB	038H
	DB	03cH
	DB	040H
	DB	0ffH
	DB	040H
	DB	038H
	DB	040H
	DB	0ffH
	DB	040H
	DB	03cH
	DB	038H
	DB	0ffH
	DB	038H
	DB	03cH
	DB	040H
	DB	0ffH
	DB	040H
	DB	03cH
	DB	040H
	DB	0ffH
	DB	040H
	DB	038H
	DB	038H
	DB	0ffH
	DB	038H
	DB	03cH
	DB	040H
	DB	0ffH
	DB	040H
	DB	03cH
	DB	040H
	DB	0ffH
	DB	040H
	DB	03cH
	DB	038H
	DB	0ffH
	DB	038H
	DB	038H
	DB	040H
	DB	0ffH
	DB	040H
	DB	03cH
	DB	040H
	DB	0ffH
	DB	040H
	DB	03cH
	DB	038H
	DB	0ffH
	DB	038H
	DB	03cH
	DB	040H
	DB	0ffH
	DB	040H
	DB	038H
	DB	040H
	DB	0ffH
	DB	040H
	DB	03cH
	DB	038H
	DB	0ffH
	DB	038H
	DB	03cH
	DB	040H
	DB	0ffH
	DB	040H
	DB	03cH
	DB	040H
	DB	0ffH
	DB	040H
	DB	038H
	DB	038H
	DB	0ffH
	DB	038H
	DB	03cH
	DB	040H
	DB	0ffH
	DB	040H
	DB	03cH
	DB	040H
	DB	0ffH
	DB	040H
	DB	03cH
	DB	038H
	DB	0ffH
	DB	038H
	DB	038H
	DB	040H
	DB	0ffH
	DB	040H
	DB	03cH
	DB	040H
	DB	0ffH
	DB	038H
	DB	03cH
	DB	038H
	DB	0ffH
	DB	040H
	DB	03cH
	DB	038H
	DB	0ffH
	DB	038H
	DB	03cH
	DB	040H
	DB	0ffH
	DB	038H
	DB	03cH
	DB	038H
	DB	0ffH
	DB	040H
	DB	040H
	DB	040H
	DB	0ffH
	DB	048H
	DB	048H
	DB	048H
	DB	0ffH
	DB	048H
	DB	048H
	DB	048H
	DB	0ffH
	DB	048H
	DB	048H
	DB	048H
	DB	0ffH
	DB	048H
	DB	048H
	DB	048H
	DB	0ffH
	DB	048H
	DB	048H
	DB	048H
	DB	0ffH
	DB	048H
	DB	048H
	DB	048H
	DB	0ffH
	DB	048H
	DB	048H
	DB	048H
	DB	0ffH
	DB	048H
	DB	048H
	DB	048H
	DB	0ffH
	DB	028H
	DB	028H
	DB	028H
	DB	0ffH
	DB	020H
	DB	024H
	DB	028H
	DB	0ffH
	DB	090H
	DB	094H
	DB	090H
	DB	092H
	DB	028H
	DB	024H
	DB	020H
	DB	0ffH
	DB	028H
	DB	024H
	DB	028H
	DB	0ffH
	DB	048H
	DB	048H
	DB	048H
	DB	0ffH
	DB	048H
	DB	048H
	DB	048H
	DB	0ffH
	DB	048H
	DB	048H
	DB	048H
	DB	0ffH
	DB	048H
	DB	048H
	DB	048H
	DB	0ffH
	DB	048H
	DB	048H
	DB	048H
	DB	0ffH
	DB	048H
	DB	048H
	DB	048H
	DB	0ffH
	DB	048H
	DB	048H
	DB	048H
	DB	0ffH
	DB	048H
	DB	048H
	DB	048H
	DB	0ffH
	DB	040H
	DB	040H
	DB	040H
	DB	0ffH
	DB	040H
	DB	03cH
	DB	040H
	DB	0ffH
	DB	040H
	DB	03cH
	DB	038H
	DB	0ffH
	DB	038H
	DB	03cH
	DB	040H
	DB	0ffH
	DB	038H
	DB	03cH
	DB	038H
	DB	0ffH
	DB	040H
	DB	03cH
	DB	038H
	DB	0ffH
	DB	038H
	DB	03cH
	DB	040H
	DB	0ffH
	DB	038H
	DB	03cH
	DB	038H
	DB	0ffH
	DB	040H
	DB	03cH
	DB	038H
	DB	0ffH
	DB	038H
	DB	03cH
	DB	040H
	DB	0ffH
	DB	038H
	DB	03cH
	DB	038H
	DB	0ffH
	DB	040H
	DB	03cH
	DB	038H
	DB	0ffH
	DB	038H
	DB	03cH
	DB	040H
	DB	0ffH
	DB	038H
	DB	03cH
	DB	038H
	DB	0ffH
	DB	040H
	DB	03cH
	DB	038H
	DB	0ffH
	DB	038H
	DB	03cH
	DB	040H
	DB	0ffH
	DB	038H
	DB	03cH
	DB	038H
	DB	0ffH
	DB	040H
	DB	03cH
	DB	038H
	DB	0ffH
	DB	038H
	DB	03cH
	DB	040H
	DB	0ffH
	DB	038H
	DB	03cH
	DB	038H
	DB	0ffH
	DB	040H
	DB	03cH
	DB	038H
	DB	0ffH
	DB	038H
	DB	03cH
	DB	040H
	DB	0ffH
	DB	038H
	DB	03cH
	DB	038H
	DB	0ffH
	DB	040H
	DB	03cH
	DB	038H
	DB	0ffH
	DB	038H
	DB	03cH
	DB	040H
	DB	0ffH
	DB	038H
	DB	03cH
	DB	038H
	DB	0ffH
	DB	040H
	DB	03cH
	DB	038H
	DB	0ffH
	DB	038H
	DB	03cH
	DB	040H
	DB	0ffH
	DB	038H
	DB	03cH
	DB	038H
	DB	0ffH
	DB	040H
	DB	03cH
	DB	038H
	DB	0ffH
	DB	038H
	DB	03cH
	DB	040H
	DB	0ffH
	DB	038H
	DB	03cH
	DB	038H
	DB	0ffH
	DB	040H
	DB	03cH
	DB	038H
	DB	0ffH
	DB	038H
	DB	03cH
	DB	040H
	DB	0ffH
	DB	038H
	DB	03cH
	DB	038H
	DB	0ffH
	DB	040H
	DB	03cH
	DB	038H
	DB	0ffH
	DB	038H
	DB	03cH
	DB	040H
	DB	0ffH
	DB	038H
	DB	03cH
	DB	038H
	DB	0ffH
	DB	040H
	DB	03cH
	DB	038H
	DB	0ffH
	DB	038H
	DB	03cH
	DB	040H
	DB	0ffH
	DB	038H
	DB	03cH
	DB	038H
	DB	0ffH
	DB	040H
	DB	03cH
	DB	038H
	DB	0ffH
	DB	038H
	DB	03cH
	DB	040H
	DB	0ffH
	DB	038H
	DB	03cH
	DB	038H
	DB	0ffH
	DB	040H
	DB	03cH
	DB	038H
	DB	0ffH
	DB	038H
	DB	03cH
	DB	040H
	DB	0ffH
	DB	038H
	DB	03cH
	DB	038H
	DB	0ffH
	DB	040H
	DB	03cH
	DB	038H
	DB	0ffH
	DB	038H
	DB	03cH
	DB	040H
	DB	0ffH
	DB	038H
	DB	03cH
	DB	038H
	DB	0ffH
	DB	040H
	DB	03cH
	DB	038H
	DB	0ffH
	DB	038H
	DB	03cH
	DB	040H
	DB	0ffH
	DB	038H
	DB	03cH
	DB	038H
	DB	0ffH
	DB	040H
	DB	03cH
	DB	038H
	DB	0ffH
	DB	038H
	DB	03cH
	DB	040H
	DB	0ffH
	DB	038H
	DB	03cH
	DB	038H
	DB	0ffH
	DB	040H
	DB	03cH
	DB	038H
	DB	0ffH
	DB	038H
	DB	03cH
	DB	040H
	DB	0ffH
	DB	038H
	DB	03cH
	DB	038H
	DB	0ffH
	DB	040H
	DB	03cH
	DB	038H
	DB	0ffH
	DB	038H
	DB	03cH
	DB	040H
	DB	0ffH
	DB	038H
	DB	03cH
	DB	038H
	DB	0ffH
	DB	040H
	DB	03cH
	DB	038H
	DB	0ffH
	DB	038H
	DB	03cH
	DB	040H
	DB	0ffH
	DB	038H
	DB	03cH
	DB	038H
	DB	0ffH
	DB	040H
	DB	03cH
	DB	038H
	DB	0ffH
	DB	038H
	DB	03cH
	DB	040H
	DB	0ffH
	DB	038H
	DB	03cH
	DB	038H
	DB	0ffH
	DB	040H
	DB	03cH
	DB	038H
	DB	0ffH
	DB	038H
	DB	03cH
	DB	040H
	DB	0ffH
	DB	038H
	DB	03cH
	DB	038H
	DB	0ffH
	DB	040H
	DB	03cH
	DB	038H
	DB	0ffH
	DB	038H
	DB	03cH
	DB	040H
	DB	0ffH
	DB	038H
	DB	03cH
	DB	038H
	DB	0ffH
	DB	040H
	DB	03cH
	DB	038H
	DB	0ffH
	DB	038H
	DB	03cH
	DB	040H
	DB	0ffH
	DB	038H
	DB	03cH
	DB	038H
	DB	0ffH
	DB	040H
	DB	03cH
	DB	038H
	DB	0ffH
	DB	038H
	DB	03cH
	DB	040H
	DB	0ffH
	DB	038H
	DB	03cH
	DB	038H
	DB	0ffH
	DB	040H
	DB	03cH
	DB	038H
	DB	0ffH
	DB	038H
	DB	03cH
	DB	040H
	DB	0ffH
	DB	038H
	DB	03cH
	DB	038H
	DB	0ffH
	DB	040H
	DB	03cH
	DB	038H
	DB	0ffH
	DB	038H
	DB	03cH
	DB	040H
	DB	0ffH
	DB	038H
	DB	03cH
	DB	038H
	DB	0ffH
	DB	040H
	DB	03cH
	DB	038H
	DB	0ffH
	DB	038H
	DB	03cH
	DB	040H
	DB	0ffH
	DB	038H
	DB	03cH
	DB	038H
	DB	0ffH
	DB	040H
	DB	03cH
	DB	038H
	DB	0ffH
	DB	038H
	DB	03cH
	DB	040H
	DB	0ffH
	DB	038H
	DB	03cH
	DB	038H
	DB	0ffH
	DB	040H
	DB	03cH
	DB	038H
	DB	0ffH
	DB	038H
	DB	03cH
	DB	040H
	DB	0ffH
	DB	038H
	DB	03cH
	DB	038H
	DB	0ffH
	DB	040H
	DB	03cH
	DB	038H
	DB	0ffH
	DB	038H
	DB	03cH
	DB	040H
	DB	0ffH
	DB	038H
	DB	03cH
	DB	038H
	DB	0ffH
	DB	040H
	DB	03cH
	DB	038H
	DB	0ffH
	DB	038H
	DB	03cH
	DB	040H
	DB	0ffH
	DB	038H
	DB	03cH
	DB	038H
	DB	0ffH
	DB	040H
	DB	03cH
	DB	038H
	DB	0ffH
	DB	038H
	DB	03cH
	DB	040H
	DB	0ffH
	DB	038H
	DB	03cH
	DB	038H
	DB	0ffH
	DB	040H
	DB	03cH
	DB	038H
	DB	0ffH
	DB	038H
	DB	03cH
	DB	040H
	DB	0ffH
	DB	038H
	DB	03cH
	DB	038H
	DB	0ffH
	DB	040H
	DB	03cH
	DB	038H
	DB	0ffH
	DB	038H
	DB	03cH
	DB	040H
	DB	0ffH
	DB	038H
	DB	03cH
	DB	038H
	DB	0ffH
	DB	040H
	DB	03cH
	DB	038H
	DB	0ffH
	DB	038H
	DB	03cH
	DB	040H
	DB	0ffH
	DB	038H
	DB	03cH
	DB	038H
	DB	0ffH
	DB	040H
	DB	03cH
	DB	038H
	DB	0ffH
	DB	038H
	DB	03cH
	DB	040H
	DB	0ffH
	DB	038H
	DB	03cH
	DB	038H
	DB	0ffH
	DB	040H
	DB	03cH
	DB	038H
	DB	0ffH
	DB	038H
	DB	03cH
	DB	040H
	DB	0ffH
	DB	038H
	DB	03cH
	DB	038H
	DB	0ffH
	DB	040H
	DB	03cH
	DB	038H
	DB	0ffH
	DB	038H
	DB	03cH
	DB	040H
	DB	0ffH
	DB	038H
	DB	03cH
	DB	038H
	DB	0ffH
	DB	040H
	DB	03cH
	DB	038H
	DB	0ffH
	DB	038H
	DB	03cH
	DB	040H
	DB	0ffH
	DB	038H
	DB	03cH
	DB	038H
	DB	0ffH
	DB	040H
	DB	03cH
	DB	038H
	DB	0ffH
	DB	038H
	DB	03cH
	DB	040H
	DB	0ffH
	DB	038H
	DB	03cH
	DB	038H
	DB	0ffH
	DB	040H
	DB	03cH
	DB	038H
	DB	0ffH
	DB	038H
	DB	03cH
	DB	040H
	DB	0ffH
	DB	038H
	DB	03cH
	DB	038H
	DB	0ffH
	DB	040H
	DB	03cH
	DB	038H
	DB	0ffH
	DB	038H
	DB	03cH
	DB	040H
	DB	0ffH
	DB	038H
	DB	03cH
	DB	038H
	DB	0ffH
	DB	040H
	DB	03cH
	DB	038H
	DB	0ffH
	DB	038H
	DB	03cH
	DB	040H
	DB	0ffH
	DB	038H
	DB	03cH
	DB	038H
	DB	0ffH
	DB	040H
	DB	03cH
	DB	038H
	DB	0ffH
	DB	038H
	DB	03cH
	DB	040H
	DB	0ffH
	DB	038H
	DB	03cH
	DB	038H
	DB	0ffH
	DB	040H
	DB	03cH
	DB	038H
	DB	0ffH
	DB	038H
	DB	03cH
	DB	040H
	DB	0ffH
	DB	038H
	DB	03cH
	DB	038H
	DB	0ffH
	DB	040H
	DB	03cH
	DB	038H
	DB	0ffH
	DB	038H
	DB	03cH
	DB	040H
	DB	0ffH
	DB	038H
	DB	03cH
	DB	038H
	DB	0ffH
	DB	040H
	DB	03cH
	DB	038H
	DB	0ffH
	DB	038H
	DB	03cH
	DB	040H
	DB	0ffH
	DB	038H
	DB	03cH
	DB	038H
	DB	0ffH
	DB	040H
	DB	03cH
	DB	038H
	DB	0ffH
	DB	038H
	DB	03cH
	DB	040H
	DB	0ffH
	DB	038H
	DB	03cH
	DB	038H
	DB	0ffH
	DB	040H
	DB	03cH
	DB	038H
	DB	0ffH
	DB	038H
	DB	03cH
	DB	040H
	DB	0ffH
	DB	038H
	DB	03cH
	DB	038H
	DB	0ffH
	DB	040H
	DB	03cH
	DB	038H
	DB	0ffH
	DB	038H
	DB	03cH
	DB	040H
	DB	0ffH
	DB	038H
	DB	03cH
	DB	038H
	DB	0ffH
	DB	040H
	DB	03cH
	DB	038H
	DB	0ffH
	DB	038H
	DB	03cH
	DB	040H
	DB	0ffH
	DB	038H
	DB	03cH
	DB	038H
	DB	0ffH
	DB	040H
	DB	03cH
	DB	038H
	DB	0ffH
	DB	038H
	DB	03cH
	DB	040H
	DB	0ffH
	DB	038H
	DB	03cH
	DB	038H
	DB	0ffH
	DB	040H
	DB	03cH
	DB	038H
	DB	0ffH
	DB	038H
	DB	03cH
	DB	040H
	DB	0ffH
	DB	038H
	DB	03cH
	DB	038H
	DB	0ffH
	DB	040H
	DB	03cH
	DB	038H
	DB	0ffH
	DB	038H
	DB	03cH
	DB	040H
	DB	0ffH
	DB	040H
	DB	03cH
	DB	040H
	DB	0ffH
	DB	040H
	DB	03cH
	DB	040H
	DB	0ffH
	DB	040H
	DB	040H
	DB	040H
	DB	0ffH
	DB	048H
	DB	048H
	DB	048H
	DB	0ffH
	DB	048H
	DB	048H
	DB	048H
	DB	0ffH
	DB	048H
	DB	048H
	DB	048H
	DB	0ffH
	DB	048H
	DB	048H
	DB	048H
	DB	0ffH
	DB	048H
	DB	048H
	DB	048H
	DB	0ffH
	DB	048H
	DB	048H
	DB	048H
	DB	0ffH
	DB	048H
	DB	048H
	DB	048H
	DB	0ffH
	DB	048H
	DB	048H
	DB	048H
	DB	0ffH
	DB	028H
	DB	024H
	DB	028H
	DB	0ffH
	DB	028H
	DB	024H
	DB	020H
	DB	0ffH
	DB	090H
	DB	094H
	DB	090H
	DB	096H
	DB	028H
	DB	024H
	DB	020H
	DB	0ffH
	DB	028H
	DB	024H
	DB	028H
	DB	0ffH
	DB	048H
	DB	048H
	DB	048H
	DB	0ffH
	DB	048H
	DB	048H
	DB	048H
	DB	0ffH
	DB	048H
	DB	048H
	DB	048H
	DB	0ffH
	DB	048H
	DB	048H
	DB	048H
	DB	0ffH
	DB	048H
	DB	048H
	DB	048H
	DB	0ffH
	DB	048H
	DB	048H
	DB	048H
	DB	0ffH
	DB	048H
	DB	048H
	DB	048H
	DB	0ffH
	DB	048H
	DB	048H
	DB	048H
	DB	0ffH
	DB	040H
	DB	044H
	DB	040H
	DB	0ffH
	DB	040H
	DB	03cH
	DB	040H
	DB	0ffH
	DB	040H
	DB	03cH
	DB	040H
	DB	0ffH
	DB	040H
	DB	03cH
	DB	040H
	DB	0ffH
	DB	040H
	DB	03cH
	DB	040H
	DB	0ffH
	DB	040H
	DB	03cH
	DB	040H
	DB	0ffH
	DB	040H
	DB	03cH
	DB	040H
	DB	0ffH
	DB	040H
	DB	03cH
	DB	040H
	DB	0ffH
	DB	040H
	DB	03cH
	DB	040H
	DB	0ffH
	DB	040H
	DB	03cH
	DB	040H
	DB	0ffH
	DB	038H
	DB	03cH
	DB	038H
	DB	0ffH
	DB	040H
	DB	03cH
	DB	040H
	DB	0ffH
	DB	040H
	DB	03cH
	DB	040H
	DB	0ffH
	DB	040H
	DB	03cH
	DB	040H
	DB	0ffH
	DB	040H
	DB	03cH
	DB	040H
	DB	0ffH
	DB	040H
	DB	03cH
	DB	040H
	DB	0ffH
	DB	038H
	DB	03cH
	DB	038H
	DB	0ffH
	DB	040H
	DB	03cH
	DB	040H
	DB	0ffH
	DB	040H
	DB	03cH
	DB	040H
	DB	0ffH
	DB	040H
	DB	03cH
	DB	040H
	DB	0ffH
	DB	040H
	DB	03cH
	DB	040H
	DB	0ffH
	DB	040H
	DB	03cH
	DB	040H
	DB	0ffH
	DB	038H
	DB	03cH
	DB	038H
	DB	0ffH
	DB	040H
	DB	03cH
	DB	040H
	DB	0ffH
	DB	040H
	DB	03cH
	DB	040H
	DB	0ffH
	DB	040H
	DB	03cH
	DB	040H
	DB	0ffH
	DB	040H
	DB	03cH
	DB	040H
	DB	0ffH
	DB	040H
	DB	03cH
	DB	040H
	DB	0ffH
	DB	038H
	DB	03cH
	DB	038H
	DB	0ffH
	DB	040H
	DB	03cH
	DB	040H
	DB	0ffH
	DB	040H
	DB	03cH
	DB	040H
	DB	0ffH
	DB	040H
	DB	03cH
	DB	040H
	DB	0ffH
	DB	040H
	DB	03cH
	DB	040H
	DB	0ffH
	DB	040H
	DB	03cH
	DB	040H
	DB	0ffH
	DB	038H
	DB	03cH
	DB	038H
	DB	0ffH
	DB	040H
	DB	03cH
	DB	040H
	DB	0ffH
	DB	040H
	DB	03cH
	DB	040H
	DB	0ffH
	DB	040H
	DB	03cH
	DB	040H
	DB	0ffH
	DB	040H
	DB	03cH
	DB	040H
	DB	0ffH
	DB	040H
	DB	03cH
	DB	040H
	DB	0ffH
	DB	038H
	DB	03cH
	DB	038H
	DB	0ffH
	DB	040H
	DB	03cH
	DB	040H
	DB	0ffH
	DB	040H
	DB	03cH
	DB	040H
	DB	0ffH
	DB	040H
	DB	03cH
	DB	040H
	DB	0ffH
	DB	040H
	DB	03cH
	DB	040H
	DB	0ffH
	DB	040H
	DB	03cH
	DB	040H
	DB	0ffH
	DB	038H
	DB	03cH
	DB	038H
	DB	0ffH
	DB	040H
	DB	03cH
	DB	040H
	DB	0ffH
	DB	040H
	DB	03cH
	DB	040H
	DB	0ffH
	DB	040H
	DB	03cH
	DB	040H
	DB	0ffH
	DB	040H
	DB	03cH
	DB	040H
	DB	0ffH
	DB	040H
	DB	03cH
	DB	040H
	DB	0ffH
	DB	038H
	DB	03cH
	DB	038H
	DB	0ffH
	DB	040H
	DB	03cH
	DB	040H
	DB	0ffH
	DB	040H
	DB	03cH
	DB	040H
	DB	0ffH
	DB	040H
	DB	03cH
	DB	040H
	DB	0ffH
	DB	040H
	DB	03cH
	DB	040H
	DB	0ffH
	DB	040H
	DB	03cH
	DB	040H
	DB	0ffH
	DB	038H
	DB	03cH
	DB	038H
	DB	0ffH
	DB	040H
	DB	03cH
	DB	040H
	DB	0ffH
	DB	040H
	DB	03cH
	DB	040H
	DB	0ffH
	DB	040H
	DB	03cH
	DB	040H
	DB	0ffH
	DB	040H
	DB	03cH
	DB	040H
	DB	0ffH
	DB	040H
	DB	03cH
	DB	040H
	DB	0ffH
	DB	038H
	DB	03cH
	DB	038H
	DB	0ffH
	DB	040H
	DB	03cH
	DB	040H
	DB	0ffH
	DB	040H
	DB	03cH
	DB	040H
	DB	0ffH
	DB	040H
	DB	03cH
	DB	040H
	DB	0ffH
	DB	040H
	DB	03cH
	DB	040H
	DB	0ffH
	DB	040H
	DB	03cH
	DB	040H
	DB	0ffH
	DB	038H
	DB	03cH
	DB	038H
	DB	0ffH
	DB	040H
	DB	03cH
	DB	040H
	DB	0ffH
	DB	040H
	DB	03cH
	DB	040H
	DB	0ffH
	DB	040H
	DB	03cH
	DB	040H
	DB	0ffH
	DB	040H
	DB	03cH
	DB	040H
	DB	0ffH
	DB	040H
	DB	03cH
	DB	040H
	DB	0ffH
	DB	038H
	DB	03cH
	DB	038H
	DB	0ffH
	DB	040H
	DB	03cH
	DB	040H
	DB	0ffH
	DB	040H
	DB	03cH
	DB	040H
	DB	0ffH
	DB	040H
	DB	03cH
	DB	040H
	DB	0ffH
	DB	040H
	DB	03cH
	DB	040H
	DB	0ffH
	DB	040H
	DB	03cH
	DB	040H
	DB	0ffH
	DB	038H
	DB	03cH
	DB	038H
	DB	0ffH
	DB	040H
	DB	03cH
	DB	040H
	DB	0ffH
	DB	040H
	DB	03cH
	DB	040H
	DB	0ffH
	DB	040H
	DB	03cH
	DB	040H
	DB	0ffH
	DB	040H
	DB	03cH
	DB	040H
	DB	0ffH
	DB	040H
	DB	03cH
	DB	040H
	DB	0ffH
	DB	038H
	DB	03cH
	DB	038H
	DB	0ffH
	DB	040H
	DB	03cH
	DB	040H
	DB	0ffH
	DB	040H
	DB	03cH
	DB	040H
	DB	0ffH
	DB	040H
	DB	03cH
	DB	040H
	DB	0ffH
	DB	040H
	DB	03cH
	DB	040H
	DB	0ffH
	DB	040H
	DB	03cH
	DB	040H
	DB	0ffH
	DB	038H
	DB	03cH
	DB	038H
	DB	0ffH
	DB	040H
	DB	03cH
	DB	040H
	DB	0ffH
	DB	040H
	DB	03cH
	DB	040H
	DB	0ffH
	DB	040H
	DB	03cH
	DB	040H
	DB	0ffH
	DB	040H
	DB	03cH
	DB	040H
	DB	0ffH
	DB	040H
	DB	03cH
	DB	040H
	DB	0ffH
	DB	038H
	DB	03cH
	DB	038H
	DB	0ffH
	DB	040H
	DB	03cH
	DB	040H
	DB	0ffH
	DB	040H
	DB	03cH
	DB	040H
	DB	0ffH
	DB	040H
	DB	03cH
	DB	040H
	DB	0ffH
	DB	040H
	DB	03cH
	DB	040H
	DB	0ffH
	DB	040H
	DB	03cH
	DB	040H
	DB	0ffH
	DB	038H
	DB	03cH
	DB	038H
	DB	0ffH
	DB	040H
	DB	03cH
	DB	040H
	DB	0ffH
	DB	040H
	DB	03cH
	DB	040H
	DB	0ffH
	DB	040H
	DB	03cH
	DB	040H
	DB	0ffH
	DB	040H
	DB	03cH
	DB	040H
	DB	0ffH
	DB	040H
	DB	03cH
	DB	040H
	DB	0ffH
	DB	038H
	DB	03cH
	DB	038H
	DB	0ffH
	DB	040H
	DB	03cH
	DB	040H
	DB	0ffH
	DB	040H
	DB	03cH
	DB	040H
	DB	0ffH
	DB	040H
	DB	03cH
	DB	040H
	DB	0ffH
	DB	040H
	DB	03cH
	DB	040H
	DB	0ffH
	DB	040H
	DB	03cH
	DB	040H
	DB	0ffH
	DB	038H
	DB	03cH
	DB	038H
	DB	0ffH
	DB	040H
	DB	03cH
	DB	040H
	DB	0ffH
	DB	040H
	DB	03cH
	DB	040H
	DB	0ffH
	DB	040H
	DB	03cH
	DB	040H
	DB	0ffH
	DB	040H
	DB	03cH
	DB	040H
	DB	0ffH
	DB	040H
	DB	03cH
	DB	040H
	DB	0ffH
	DB	038H
	DB	03cH
	DB	038H
	DB	0ffH
	DB	040H
	DB	03cH
	DB	040H
	DB	0ffH
	DB	040H
	DB	03cH
	DB	040H
	DB	0ffH
	DB	040H
	DB	03cH
	DB	040H
	DB	0ffH
	DB	040H
	DB	03cH
	DB	040H
	DB	0ffH
	DB	040H
	DB	03cH
	DB	040H
	DB	0ffH
	DB	038H
	DB	03cH
	DB	038H
	DB	0ffH
	DB	040H
	DB	03cH
	DB	040H
	DB	0ffH
	DB	040H
	DB	03cH
	DB	040H
	DB	0ffH
	DB	040H
	DB	03cH
	DB	040H
	DB	0ffH
	DB	040H
	DB	03cH
	DB	040H
	DB	0ffH
	DB	040H
	DB	03cH
	DB	040H
	DB	0ffH
	DB	038H
	DB	03cH
	DB	038H
	DB	0ffH
	DB	040H
	DB	03cH
	DB	040H
	DB	0ffH
	DB	040H
	DB	03cH
	DB	040H
	DB	0ffH
	DB	040H
	DB	03cH
	DB	040H
	DB	0ffH
	DB	040H
	DB	03cH
	DB	040H
	DB	0ffH
	DB	040H
	DB	03cH
	DB	040H
	DB	0ffH
	DB	038H
	DB	03cH
	DB	038H
	DB	0ffH
	DB	040H
	DB	03cH
	DB	040H
	DB	0ffH
	DB	040H
	DB	03cH
	DB	040H
	DB	0ffH
	DB	040H
	DB	03cH
	DB	040H
	DB	0ffH
	DB	040H
	DB	03cH
	DB	040H
	DB	0ffH
	DB	040H
	DB	03cH
	DB	040H
	DB	0ffH
	DB	038H
	DB	03cH
	DB	038H
	DB	0ffH
	DB	040H
	DB	03cH
	DB	040H
	DB	0ffH
	DB	040H
	DB	03cH
	DB	040H
	DB	0ffH
	DB	040H
	DB	03cH
	DB	040H
	DB	0ffH
	DB	040H
	DB	03cH
	DB	040H
	DB	0ffH
	DB	040H
	DB	03cH
	DB	040H
	DB	0ffH
	DB	038H
	DB	03cH
	DB	038H
	DB	0ffH
	DB	040H
	DB	03cH
	DB	040H
	DB	0ffH
	DB	040H
	DB	03cH
	DB	040H
	DB	0ffH
	DB	040H
	DB	03cH
	DB	040H
	DB	0ffH
	DB	040H
	DB	03cH
	DB	040H
	DB	0ffH
	DB	040H
	DB	03cH
	DB	040H
	DB	0ffH
	DB	038H
	DB	03cH
	DB	038H
	DB	0ffH
	DB	040H
	DB	03cH
	DB	040H
	DB	0ffH
	DB	040H
	DB	03cH
	DB	040H
	DB	0ffH
	DB	040H
	DB	03cH
	DB	040H
	DB	0ffH
	DB	040H
	DB	03cH
	DB	040H
	DB	0ffH
	DB	040H
	DB	03cH
	DB	040H
	DB	0ffH
	DB	040H
	DB	03cH
	DB	040H
	DB	0ffH
	DB	040H
	DB	03cH
	DB	040H
	DB	0ffH
	DB	040H
	DB	03cH
	DB	038H
	DB	0ffH
	DB	038H
	DB	03cH
	DB	040H
	DB	0ffH
	DB	040H
	DB	03cH
	DB	040H
	DB	0ffH
	DB	040H
	DB	040H
	DB	040H
	DB	0ffH
	DB	048H
	DB	048H
	DB	048H
	DB	0ffH
	DB	048H
	DB	04cH
	DB	048H
	DB	0ffH
	DB	048H
	DB	048H
	DB	048H
	DB	0ffH
	DB	048H
	DB	048H
	DB	048H
	DB	0ffH
	DB	048H
	DB	048H
	DB	048H
	DB	0ffH
	DB	048H
	DB	048H
	DB	048H
	DB	0ffH
	DB	048H
	DB	048H
	DB	048H
	DB	0ffH
	DB	048H
	DB	048H
	DB	048H
	DB	0ffH
	DB	020H
	DB	024H
	DB	020H
	DB	0ffH
	DB	028H
	DB	024H
	DB	028H
	DB	0ffH
	DB	090H
	DB	094H
	DB	090H
	DB	092H
	DB	028H
	DB	024H
	DB	028H
	DB	0ffH
	DB	020H
	DB	024H
	DB	020H
	DB	0ffH
	DB	040H
	DB	044H
	DB	040H
	DB	0ffH
	DB	048H
	DB	048H
	DB	048H
	DB	0ffH
	DB	048H
	DB	044H
	DB	048H
	DB	0ffH
	DB	048H
	DB	048H
	DB	048H
	DB	0ffH
	DB	048H
	DB	048H
	DB	048H
	DB	0ffH
	DB	048H
	DB	048H
	DB	048H
	DB	0ffH
	DB	048H
	DB	048H
	DB	048H
	DB	0ffH
	DB	048H
	DB	048H
	DB	048H
	DB	0ffH
	DB	040H
	DB	044H
	DB	040H
	DB	0ffH
	DB	040H
	DB	040H
	DB	040H
	DB	0ffH
	DB	040H
	DB	03cH
	DB	040H
	DB	0ffH
	DB	040H
	DB	03cH
	DB	040H
	DB	0ffH
	DB	040H
	DB	03cH
	DB	040H
	DB	0ffH
	DB	038H
	DB	03cH
	DB	038H
	DB	0ffH
	DB	040H
	DB	03cH
	DB	040H
	DB	0ffH
	DB	040H
	DB	03cH
	DB	040H
	DB	0ffH
	DB	038H
	DB	03cH
	DB	040H
	DB	0ffH
	DB	040H
	DB	03cH
	DB	040H
	DB	0ffH
	DB	040H
	DB	03cH
	DB	040H
	DB	0ffH
	DB	040H
	DB	03cH
	DB	040H
	DB	0ffH
	DB	040H
	DB	03cH
	DB	040H
	DB	0ffH
	DB	038H
	DB	03cH
	DB	038H
	DB	0ffH
	DB	040H
	DB	03cH
	DB	040H
	DB	0ffH
	DB	040H
	DB	03cH
	DB	040H
	DB	0ffH
	DB	040H
	DB	03cH
	DB	040H
	DB	0ffH
	DB	040H
	DB	040H
	DB	040H
	DB	0ffH
	DB	040H
	DB	03cH
	DB	040H
	DB	0ffH
	DB	038H
	DB	03cH
	DB	038H
	DB	0ffH
	DB	040H
	DB	03cH
	DB	040H
	DB	0ffH
	DB	040H
	DB	03cH
	DB	040H
	DB	0ffH
	DB	040H
	DB	03cH
	DB	040H
	DB	0ffH
	DB	040H
	DB	03cH
	DB	040H
	DB	0ffH
	DB	040H
	DB	03cH
	DB	040H
	DB	0ffH
	DB	038H
	DB	040H
	DB	038H
	DB	0ffH
	DB	040H
	DB	03cH
	DB	040H
	DB	0ffH
	DB	040H
	DB	03cH
	DB	040H
	DB	0ffH
	DB	040H
	DB	03cH
	DB	040H
	DB	0ffH
	DB	040H
	DB	03cH
	DB	040H
	DB	0ffH
	DB	040H
	DB	03cH
	DB	040H
	DB	0ffH
	DB	038H
	DB	03cH
	DB	038H
	DB	0ffH
	DB	040H
	DB	03cH
	DB	040H
	DB	0ffH
	DB	040H
	DB	040H
	DB	040H
	DB	0ffH
	DB	040H
	DB	03cH
	DB	040H
	DB	0ffH
	DB	040H
	DB	03cH
	DB	040H
	DB	0ffH
	DB	040H
	DB	03cH
	DB	040H
	DB	0ffH
	DB	038H
	DB	03cH
	DB	038H
	DB	0ffH
	DB	040H
	DB	03cH
	DB	040H
	DB	0ffH
	DB	040H
	DB	03cH
	DB	040H
	DB	0ffH
	DB	040H
	DB	03cH
	DB	040H
	DB	0ffH
	DB	040H
	DB	040H
	DB	040H
	DB	0ffH
	DB	040H
	DB	03cH
	DB	040H
	DB	0ffH
	DB	038H
	DB	03cH
	DB	038H
	DB	0ffH
	DB	040H
	DB	03cH
	DB	040H
	DB	0ffH
	DB	040H
	DB	03cH
	DB	040H
	DB	0ffH
	DB	040H
	DB	03cH
	DB	040H
	DB	0ffH
	DB	040H
	DB	03cH
	DB	040H
	DB	0ffH
	DB	040H
	DB	03cH
	DB	040H
	DB	0ffH
	DB	038H
	DB	040H
	DB	038H
	DB	0ffH
	DB	040H
	DB	03cH
	DB	040H
	DB	0ffH
	DB	040H
	DB	03cH
	DB	040H
	DB	0ffH
	DB	040H
	DB	03cH
	DB	040H
	DB	0ffH
	DB	040H
	DB	03cH
	DB	040H
	DB	0ffH
	DB	040H
	DB	03cH
	DB	040H
	DB	0ffH
	DB	038H
	DB	03cH
	DB	038H
	DB	0ffH
	DB	040H
	DB	03cH
	DB	040H
	DB	0ffH
	DB	040H
	DB	040H
	DB	040H
	DB	0ffH
	DB	040H
	DB	03cH
	DB	040H
	DB	0ffH
	DB	040H
	DB	03cH
	DB	040H
	DB	0ffH
	DB	040H
	DB	03cH
	DB	040H
	DB	0ffH
	DB	038H
	DB	03cH
	DB	038H
	DB	0ffH
	DB	040H
	DB	03cH
	DB	040H
	DB	0ffH
	DB	040H
	DB	03cH
	DB	040H
	DB	0ffH
	DB	040H
	DB	03cH
	DB	040H
	DB	0ffH
	DB	040H
	DB	040H
	DB	040H
	DB	0ffH
	DB	040H
	DB	03cH
	DB	040H
	DB	0ffH
	DB	038H
	DB	03cH
	DB	038H
	DB	0ffH
	DB	040H
	DB	03cH
	DB	040H
	DB	0ffH
	DB	040H
	DB	03cH
	DB	040H
	DB	0ffH
	DB	040H
	DB	03cH
	DB	040H
	DB	0ffH
	DB	040H
	DB	03cH
	DB	040H
	DB	0ffH
	DB	040H
	DB	03cH
	DB	040H
	DB	0ffH
	DB	038H
	DB	040H
	DB	038H
	DB	0ffH
	DB	040H
	DB	03cH
	DB	040H
	DB	0ffH
	DB	040H
	DB	03cH
	DB	040H
	DB	0ffH
	DB	040H
	DB	03cH
	DB	040H
	DB	0ffH
	DB	040H
	DB	03cH
	DB	040H
	DB	0ffH
	DB	040H
	DB	03cH
	DB	040H
	DB	0ffH
	DB	038H
	DB	03cH
	DB	038H
	DB	0ffH
	DB	040H
	DB	03cH
	DB	040H
	DB	0ffH
	DB	040H
	DB	040H
	DB	040H
	DB	0ffH
	DB	040H
	DB	03cH
	DB	040H
	DB	0ffH
	DB	040H
	DB	03cH
	DB	040H
	DB	0ffH
	DB	040H
	DB	03cH
	DB	040H
	DB	0ffH
	DB	038H
	DB	03cH
	DB	038H
	DB	0ffH
	DB	040H
	DB	03cH
	DB	040H
	DB	0ffH
	DB	040H
	DB	03cH
	DB	040H
	DB	0ffH
	DB	040H
	DB	03cH
	DB	040H
	DB	0ffH
	DB	040H
	DB	040H
	DB	040H
	DB	0ffH
	DB	040H
	DB	03cH
	DB	040H
	DB	0ffH
	DB	038H
	DB	03cH
	DB	038H
	DB	0ffH
	DB	040H
	DB	03cH
	DB	040H
	DB	0ffH
	DB	040H
	DB	03cH
	DB	040H
	DB	0ffH
	DB	040H
	DB	03cH
	DB	040H
	DB	0ffH
	DB	040H
	DB	03cH
	DB	040H
	DB	0ffH
	DB	040H
	DB	03cH
	DB	040H
	DB	0ffH
	DB	038H
	DB	040H
	DB	038H
	DB	0ffH
	DB	040H
	DB	03cH
	DB	040H
	DB	0ffH
	DB	040H
	DB	03cH
	DB	040H
	DB	0ffH
	DB	040H
	DB	03cH
	DB	040H
	DB	0ffH
	DB	040H
	DB	03cH
	DB	040H
	DB	0ffH
	DB	040H
	DB	03cH
	DB	040H
	DB	0ffH
	DB	038H
	DB	03cH
	DB	038H
	DB	0ffH
	DB	040H
	DB	03cH
	DB	040H
	DB	0ffH
	DB	040H
	DB	040H
	DB	040H
	DB	0ffH
	DB	040H
	DB	03cH
	DB	040H
	DB	0ffH
	DB	040H
	DB	03cH
	DB	040H
	DB	0ffH
	DB	040H
	DB	03cH
	DB	040H
	DB	0ffH
	DB	038H
	DB	03cH
	DB	038H
	DB	0ffH
	DB	040H
	DB	03cH
	DB	040H
	DB	0ffH
	DB	040H
	DB	03cH
	DB	040H
	DB	0ffH
	DB	040H
	DB	03cH
	DB	040H
	DB	0ffH
	DB	040H
	DB	040H
	DB	040H
	DB	0ffH
	DB	040H
	DB	03cH
	DB	040H
	DB	0ffH
	DB	038H
	DB	03cH
	DB	038H
	DB	0ffH
	DB	040H
	DB	03cH
	DB	040H
	DB	0ffH
	DB	040H
	DB	03cH
	DB	040H
	DB	0ffH
	DB	040H
	DB	03cH
	DB	040H
	DB	0ffH
	DB	040H
	DB	03cH
	DB	040H
	DB	0ffH
	DB	040H
	DB	03cH
	DB	040H
	DB	0ffH
	DB	038H
	DB	040H
	DB	038H
	DB	0ffH
	DB	040H
	DB	03cH
	DB	040H
	DB	0ffH
	DB	040H
	DB	03cH
	DB	040H
	DB	0ffH
	DB	040H
	DB	03cH
	DB	040H
	DB	0ffH
	DB	040H
	DB	03cH
	DB	040H
	DB	0ffH
	DB	040H
	DB	03cH
	DB	040H
	DB	0ffH
	DB	038H
	DB	03cH
	DB	038H
	DB	0ffH
	DB	040H
	DB	03cH
	DB	040H
	DB	0ffH
	DB	040H
	DB	040H
	DB	040H
	DB	0ffH
	DB	040H
	DB	03cH
	DB	040H
	DB	0ffH
	DB	040H
	DB	03cH
	DB	040H
	DB	0ffH
	DB	040H
	DB	03cH
	DB	040H
	DB	0ffH
	DB	038H
	DB	03cH
	DB	038H
	DB	0ffH
	DB	040H
	DB	03cH
	DB	040H
	DB	0ffH
	DB	040H
	DB	03cH
	DB	040H
	DB	0ffH
	DB	040H
	DB	03cH
	DB	040H
	DB	0ffH
	DB	040H
	DB	040H
	DB	040H
	DB	0ffH
	DB	040H
	DB	03cH
	DB	040H
	DB	0ffH
	DB	038H
	DB	03cH
	DB	038H
	DB	0ffH
	DB	040H
	DB	03cH
	DB	040H
	DB	0ffH
	DB	040H
	DB	03cH
	DB	040H
	DB	0ffH
	DB	040H
	DB	03cH
	DB	040H
	DB	0ffH
	DB	040H
	DB	03cH
	DB	040H
	DB	0ffH
	DB	040H
	DB	03cH
	DB	040H
	DB	0ffH
	DB	038H
	DB	040H
	DB	038H
	DB	0ffH
	DB	040H
	DB	03cH
	DB	040H
	DB	0ffH
	DB	040H
	DB	03cH
	DB	040H
	DB	0ffH
	DB	040H
	DB	03cH
	DB	040H
	DB	0ffH
	DB	040H
	DB	03cH
	DB	040H
	DB	0ffH
	DB	040H
	DB	03cH
	DB	040H
	DB	0ffH
	DB	038H
	DB	03cH
	DB	038H
	DB	0ffH
	DB	040H
	DB	03cH
	DB	040H
	DB	0ffH
	DB	040H
	DB	040H
	DB	040H
	DB	0ffH
	DB	040H
	DB	03cH
	DB	040H
	DB	0ffH
	DB	040H
	DB	03cH
	DB	040H
	DB	0ffH
	DB	040H
	DB	03cH
	DB	040H
	DB	0ffH
	DB	038H
	DB	03cH
	DB	038H
	DB	0ffH
	DB	040H
	DB	03cH
	DB	040H
	DB	0ffH
	DB	040H
	DB	03cH
	DB	040H
	DB	0ffH
	DB	040H
	DB	03cH
	DB	040H
	DB	0ffH
	DB	040H
	DB	040H
	DB	040H
	DB	0ffH
	DB	040H
	DB	03cH
	DB	040H
	DB	0ffH
	DB	038H
	DB	03cH
	DB	038H
	DB	0ffH
	DB	040H
	DB	03cH
	DB	040H
	DB	0ffH
	DB	040H
	DB	03cH
	DB	040H
	DB	0ffH
	DB	038H
	DB	03cH
	DB	040H
	DB	0ffH
	DB	040H
	DB	03cH
	DB	040H
	DB	0ffH
	DB	040H
	DB	03cH
	DB	040H
	DB	0ffH
	DB	040H
	DB	040H
	DB	038H
	DB	0ffH
	DB	040H
	DB	040H
	DB	040H
	DB	0ffH
	DB	040H
	DB	040H
	DB	040H
	DB	0ffH
	DB	048H
	DB	048H
	DB	048H
	DB	0ffH
	DB	048H
	DB	048H
	DB	048H
	DB	0ffH
	DB	048H
	DB	048H
	DB	048H
	DB	0ffH
	DB	048H
	DB	044H
	DB	048H
	DB	0ffH
	DB	048H
	DB	048H
	DB	048H
	DB	0ffH
	DB	048H
	DB	044H
	DB	048H
	DB	0ffH
	DB	048H
	DB	048H
	DB	048H
	DB	0ffH
	DB	048H
	DB	044H
	DB	048H
	DB	0ffH
	DB	020H
	DB	024H
	DB	020H
	DB	0ffH
	DB	028H
	DB	024H
	DB	028H
	DB	0ffH
	DB	098H
	DB	094H
	DB	090H
	DB	092H
	DB	028H
	DB	024H
	DB	028H
	DB	0ffH
	DB	020H
	DB	024H
	DB	028H
	DB	0ffH
	DB	048H
	DB	044H
	DB	040H
	DB	0ffH
	DB	048H
	DB	048H
	DB	048H
	DB	0ffH
	DB	040H
	DB	044H
	DB	048H
	DB	0ffH
	DB	048H
	DB	044H
	DB	040H
	DB	0ffH
	DB	048H
	DB	044H
	DB	048H
	DB	0ffH
	DB	048H
	DB	048H
	DB	048H
	DB	0ffH
	DB	048H
	DB	048H
	DB	048H
	DB	0ffH
	DB	048H
	DB	048H
	DB	048H
	DB	0ffH
	DB	040H
	DB	044H
	DB	040H
	DB	0ffH
	DB	040H
	DB	040H
	DB	040H
	DB	0ffH
	DB	040H
	DB	040H
	DB	040H
	DB	0ffH
	DB	040H
	DB	040H
	DB	040H
	DB	0ffH
	DB	040H
	DB	040H
	DB	040H
	DB	0ffH
	DB	040H
	DB	040H
	DB	040H
	DB	0ffH
	DB	040H
	DB	040H
	DB	040H
	DB	0ffH
	DB	040H
	DB	040H
	DB	038H
	DB	0ffH
	DB	040H
	DB	040H
	DB	040H
	DB	0ffH
	DB	040H
	DB	040H
	DB	040H
	DB	0ffH
	DB	040H
	DB	040H
	DB	040H
	DB	0ffH
	DB	040H
	DB	040H
	DB	040H
	DB	0ffH
	DB	040H
	DB	040H
	DB	040H
	DB	0ffH
	DB	040H
	DB	040H
	DB	040H
	DB	0ffH
	DB	040H
	DB	040H
	DB	040H
	DB	0ffH
	DB	040H
	DB	040H
	DB	040H
	DB	0ffH
	DB	040H
	DB	040H
	DB	040H
	DB	0ffH
	DB	040H
	DB	040H
	DB	040H
	DB	0ffH
	DB	040H
	DB	040H
	DB	040H
	DB	0ffH
	DB	040H
	DB	040H
	DB	040H
	DB	0ffH
	DB	040H
	DB	040H
	DB	040H
	DB	0ffH
	DB	040H
	DB	040H
	DB	040H
	DB	0ffH
	DB	040H
	DB	040H
	DB	040H
	DB	0ffH
	DB	040H
	DB	040H
	DB	040H
	DB	0ffH
	DB	040H
	DB	040H
	DB	040H
	DB	0ffH
	DB	040H
	DB	040H
	DB	040H
	DB	0ffH
	DB	040H
	DB	040H
	DB	040H
	DB	0ffH
	DB	040H
	DB	040H
	DB	040H
	DB	0ffH
	DB	040H
	DB	040H
	DB	040H
	DB	0ffH
	DB	040H
	DB	040H
	DB	040H
	DB	0ffH
	DB	040H
	DB	040H
	DB	040H
	DB	0ffH
	DB	040H
	DB	040H
	DB	040H
	DB	0ffH
	DB	040H
	DB	040H
	DB	040H
	DB	0ffH
	DB	040H
	DB	040H
	DB	040H
	DB	0ffH
	DB	040H
	DB	040H
	DB	040H
	DB	0ffH
	DB	040H
	DB	040H
	DB	040H
	DB	0ffH
	DB	040H
	DB	040H
	DB	040H
	DB	0ffH
	DB	040H
	DB	040H
	DB	040H
	DB	0ffH
	DB	040H
	DB	040H
	DB	040H
	DB	0ffH
	DB	040H
	DB	040H
	DB	040H
	DB	0ffH
	DB	040H
	DB	040H
	DB	040H
	DB	0ffH
	DB	040H
	DB	040H
	DB	040H
	DB	0ffH
	DB	040H
	DB	040H
	DB	040H
	DB	0ffH
	DB	040H
	DB	040H
	DB	040H
	DB	0ffH
	DB	040H
	DB	040H
	DB	040H
	DB	0ffH
	DB	040H
	DB	040H
	DB	040H
	DB	0ffH
	DB	040H
	DB	040H
	DB	040H
	DB	0ffH
	DB	040H
	DB	040H
	DB	040H
	DB	0ffH
	DB	040H
	DB	040H
	DB	040H
	DB	0ffH
	DB	040H
	DB	040H
	DB	040H
	DB	0ffH
	DB	040H
	DB	040H
	DB	040H
	DB	0ffH
	DB	040H
	DB	040H
	DB	040H
	DB	0ffH
	DB	040H
	DB	040H
	DB	040H
	DB	0ffH
	DB	040H
	DB	040H
	DB	040H
	DB	0ffH
	DB	040H
	DB	040H
	DB	040H
	DB	0ffH
	DB	040H
	DB	040H
	DB	040H
	DB	0ffH
	DB	040H
	DB	040H
	DB	040H
	DB	0ffH
	DB	040H
	DB	040H
	DB	040H
	DB	0ffH
	DB	040H
	DB	040H
	DB	040H
	DB	0ffH
	DB	040H
	DB	040H
	DB	040H
	DB	0ffH
	DB	040H
	DB	040H
	DB	040H
	DB	0ffH
	DB	040H
	DB	040H
	DB	040H
	DB	0ffH
	DB	040H
	DB	040H
	DB	040H
	DB	0ffH
	DB	040H
	DB	040H
	DB	040H
	DB	0ffH
	DB	040H
	DB	040H
	DB	040H
	DB	0ffH
	DB	040H
	DB	040H
	DB	040H
	DB	0ffH
	DB	040H
	DB	040H
	DB	040H
	DB	0ffH
	DB	040H
	DB	040H
	DB	040H
	DB	0ffH
	DB	040H
	DB	040H
	DB	040H
	DB	0ffH
	DB	040H
	DB	040H
	DB	040H
	DB	0ffH
	DB	040H
	DB	040H
	DB	040H
	DB	0ffH
	DB	040H
	DB	040H
	DB	040H
	DB	0ffH
	DB	040H
	DB	040H
	DB	040H
	DB	0ffH
	DB	040H
	DB	040H
	DB	040H
	DB	0ffH
	DB	040H
	DB	040H
	DB	040H
	DB	0ffH
	DB	040H
	DB	040H
	DB	040H
	DB	0ffH
	DB	040H
	DB	040H
	DB	040H
	DB	0ffH
	DB	040H
	DB	040H
	DB	040H
	DB	0ffH
	DB	040H
	DB	040H
	DB	040H
	DB	0ffH
	DB	040H
	DB	040H
	DB	040H
	DB	0ffH
	DB	040H
	DB	040H
	DB	040H
	DB	0ffH
	DB	040H
	DB	040H
	DB	040H
	DB	0ffH
	DB	040H
	DB	040H
	DB	040H
	DB	0ffH
	DB	040H
	DB	040H
	DB	040H
	DB	0ffH
	DB	040H
	DB	040H
	DB	040H
	DB	0ffH
	DB	040H
	DB	040H
	DB	040H
	DB	0ffH
	DB	040H
	DB	040H
	DB	040H
	DB	0ffH
	DB	040H
	DB	040H
	DB	040H
	DB	0ffH
	DB	040H
	DB	040H
	DB	040H
	DB	0ffH
	DB	040H
	DB	040H
	DB	040H
	DB	0ffH
	DB	040H
	DB	040H
	DB	040H
	DB	0ffH
	DB	040H
	DB	040H
	DB	040H
	DB	0ffH
	DB	040H
	DB	040H
	DB	040H
	DB	0ffH
	DB	040H
	DB	040H
	DB	040H
	DB	0ffH
	DB	040H
	DB	040H
	DB	040H
	DB	0ffH
	DB	040H
	DB	040H
	DB	040H
	DB	0ffH
	DB	040H
	DB	040H
	DB	040H
	DB	0ffH
	DB	040H
	DB	040H
	DB	040H
	DB	0ffH
	DB	040H
	DB	040H
	DB	040H
	DB	0ffH
	DB	040H
	DB	040H
	DB	040H
	DB	0ffH
	DB	040H
	DB	040H
	DB	040H
	DB	0ffH
	DB	040H
	DB	040H
	DB	040H
	DB	0ffH
	DB	040H
	DB	040H
	DB	040H
	DB	0ffH
	DB	040H
	DB	040H
	DB	040H
	DB	0ffH
	DB	040H
	DB	040H
	DB	040H
	DB	0ffH
	DB	040H
	DB	040H
	DB	040H
	DB	0ffH
	DB	040H
	DB	040H
	DB	040H
	DB	0ffH
	DB	040H
	DB	040H
	DB	040H
	DB	0ffH
	DB	040H
	DB	040H
	DB	040H
	DB	0ffH
	DB	040H
	DB	040H
	DB	040H
	DB	0ffH
	DB	040H
	DB	040H
	DB	040H
	DB	0ffH
	DB	040H
	DB	040H
	DB	040H
	DB	0ffH
	DB	040H
	DB	040H
	DB	040H
	DB	0ffH
	DB	040H
	DB	040H
	DB	040H
	DB	0ffH
	DB	040H
	DB	040H
	DB	040H
	DB	0ffH
	DB	040H
	DB	040H
	DB	040H
	DB	0ffH
	DB	040H
	DB	040H
	DB	040H
	DB	0ffH
	DB	040H
	DB	040H
	DB	040H
	DB	0ffH
	DB	040H
	DB	040H
	DB	040H
	DB	0ffH
	DB	040H
	DB	040H
	DB	040H
	DB	0ffH
	DB	040H
	DB	040H
	DB	040H
	DB	0ffH
	DB	040H
	DB	040H
	DB	040H
	DB	0ffH
	DB	040H
	DB	040H
	DB	040H
	DB	0ffH
	DB	040H
	DB	040H
	DB	040H
	DB	0ffH
	DB	040H
	DB	040H
	DB	040H
	DB	0ffH
	DB	040H
	DB	040H
	DB	040H
	DB	0ffH
	DB	040H
	DB	040H
	DB	040H
	DB	0ffH
	DB	040H
	DB	040H
	DB	040H
	DB	0ffH
	DB	040H
	DB	040H
	DB	040H
	DB	0ffH
	DB	040H
	DB	040H
	DB	040H
	DB	0ffH
	DB	040H
	DB	040H
	DB	040H
	DB	0ffH
	DB	040H
	DB	040H
	DB	040H
	DB	0ffH
	DB	040H
	DB	040H
	DB	040H
	DB	0ffH
	DB	040H
	DB	040H
	DB	040H
	DB	0ffH
	DB	040H
	DB	040H
	DB	040H
	DB	0ffH
	DB	040H
	DB	040H
	DB	040H
	DB	0ffH
	DB	040H
	DB	040H
	DB	040H
	DB	0ffH
	DB	040H
	DB	040H
	DB	040H
	DB	0ffH
	DB	040H
	DB	040H
	DB	040H
	DB	0ffH
	DB	040H
	DB	040H
	DB	040H
	DB	0ffH
	DB	040H
	DB	040H
	DB	040H
	DB	0ffH
	DB	040H
	DB	040H
	DB	040H
	DB	0ffH
	DB	040H
	DB	040H
	DB	040H
	DB	0ffH
	DB	040H
	DB	040H
	DB	040H
	DB	0ffH
	DB	040H
	DB	040H
	DB	040H
	DB	0ffH
	DB	040H
	DB	040H
	DB	040H
	DB	0ffH
	DB	040H
	DB	040H
	DB	040H
	DB	0ffH
	DB	040H
	DB	040H
	DB	040H
	DB	0ffH
	DB	040H
	DB	040H
	DB	040H
	DB	0ffH
	DB	040H
	DB	040H
	DB	040H
	DB	0ffH
	DB	040H
	DB	040H
	DB	040H
	DB	0ffH
	DB	040H
	DB	040H
	DB	040H
	DB	0ffH
	DB	040H
	DB	040H
	DB	040H
	DB	0ffH
	DB	040H
	DB	040H
	DB	040H
	DB	0ffH
	DB	040H
	DB	040H
	DB	040H
	DB	0ffH
	DB	040H
	DB	040H
	DB	040H
	DB	0ffH
	DB	040H
	DB	040H
	DB	040H
	DB	0ffH
	DB	040H
	DB	040H
	DB	040H
	DB	0ffH
	DB	040H
	DB	040H
	DB	040H
	DB	0ffH
	DB	040H
	DB	040H
	DB	040H
	DB	0ffH
	DB	040H
	DB	040H
	DB	040H
	DB	0ffH
	DB	040H
	DB	040H
	DB	040H
	DB	0ffH
	DB	040H
	DB	040H
	DB	040H
	DB	0ffH
	DB	040H
	DB	040H
	DB	040H
	DB	0ffH
	DB	040H
	DB	040H
	DB	040H
	DB	0ffH
	DB	040H
	DB	040H
	DB	038H
	DB	0ffH
	DB	040H
	DB	040H
	DB	040H
	DB	0ffH
	DB	040H
	DB	040H
	DB	040H
	DB	0ffH
	DB	040H
	DB	040H
	DB	040H
	DB	0ffH
	DB	040H
	DB	040H
	DB	040H
	DB	0ffH
	DB	040H
	DB	040H
	DB	040H
	DB	0ffH
	DB	040H
	DB	044H
	DB	040H
	DB	0ffH
	DB	048H
	DB	048H
	DB	048H
	DB	0ffH
	DB	048H
	DB	048H
	DB	048H
	DB	0ffH
	DB	048H
	DB	044H
	DB	048H
	DB	0ffH
	DB	048H
	DB	048H
	DB	048H
	DB	0ffH
	DB	048H
	DB	044H
	DB	048H
	DB	0ffH
	DB	048H
	DB	044H
	DB	048H
	DB	0ffH
	DB	048H
	DB	048H
	DB	048H
	DB	0ffH
	DB	040H
	DB	044H
	DB	040H
	DB	0ffH
	DB	028H
	DB	024H
	DB	028H
	DB	0ffH
	DB	028H
	DB	024H
	DB	028H
	DB	0ffH
	DB	090H
	DB	094H
	DB	090H
	DB	096H
	DB	028H
	DB	024H
	DB	020H
	DB	0ffH
	DB	028H
	DB	024H
	DB	028H
	DB	0ffH
	DB	040H
	DB	044H
	DB	040H
	DB	0ffH
	DB	048H
	DB	044H
	DB	048H
	DB	0ffH
	DB	040H
	DB	044H
	DB	048H
	DB	0ffH
	DB	040H
	DB	044H
	DB	040H
	DB	0ffH
	DB	048H
	DB	044H
	DB	048H
	DB	0ffH
	DB	040H
	DB	044H
	DB	040H
	DB	0ffH
	DB	048H
	DB	044H
	DB	048H
	DB	0ffH
	DB	048H
	DB	044H
	DB	048H
	DB	0ffH
	DB	048H
	DB	044H
	DB	048H
	DB	0ffH
	DB	040H
	DB	040H
	DB	040H
	DB	0ffH
	DB	040H
	DB	040H
	DB	040H
	DB	0ffH
	DB	040H
	DB	040H
	DB	040H
	DB	0ffH
	DB	040H
	DB	040H
	DB	040H
	DB	0ffH
	DB	040H
	DB	040H
	DB	040H
	DB	0ffH
	DB	040H
	DB	040H
	DB	040H
	DB	0ffH
	DB	040H
	DB	040H
	DB	040H
	DB	0ffH
	DB	040H
	DB	040H
	DB	040H
	DB	0ffH
	DB	040H
	DB	040H
	DB	040H
	DB	0ffH
	DB	040H
	DB	040H
	DB	040H
	DB	0ffH
	DB	040H
	DB	040H
	DB	040H
	DB	0ffH
	DB	040H
	DB	040H
	DB	040H
	DB	0ffH
	DB	040H
	DB	040H
	DB	040H
	DB	0ffH
	DB	040H
	DB	040H
	DB	040H
	DB	0ffH
	DB	040H
	DB	040H
	DB	040H
	DB	0ffH
	DB	040H
	DB	040H
	DB	040H
	DB	0ffH
	DB	040H
	DB	040H
	DB	040H
	DB	0ffH
	DB	040H
	DB	040H
	DB	040H
	DB	0ffH
	DB	040H
	DB	040H
	DB	040H
	DB	0ffH
	DB	040H
	DB	040H
	DB	040H
	DB	0ffH
	DB	040H
	DB	040H
	DB	040H
	DB	0ffH
	DB	040H
	DB	040H
	DB	040H
	DB	0ffH
	DB	040H
	DB	040H
	DB	040H
	DB	0ffH
	DB	040H
	DB	040H
	DB	040H
	DB	0ffH
	DB	040H
	DB	040H
	DB	040H
	DB	0ffH
	DB	040H
	DB	040H
	DB	040H
	DB	0ffH
	DB	040H
	DB	040H
	DB	040H
	DB	0ffH
	DB	040H
	DB	040H
	DB	040H
	DB	0ffH
	DB	040H
	DB	040H
	DB	040H
	DB	0ffH
	DB	040H
	DB	040H
	DB	040H
	DB	0ffH
	DB	040H
	DB	040H
	DB	040H
	DB	0ffH
	DB	040H
	DB	040H
	DB	040H
	DB	0ffH
	DB	040H
	DB	040H
	DB	040H
	DB	0ffH
	DB	040H
	DB	040H
	DB	040H
	DB	0ffH
	DB	040H
	DB	040H
	DB	040H
	DB	0ffH
	DB	040H
	DB	040H
	DB	040H
	DB	0ffH
	DB	040H
	DB	040H
	DB	040H
	DB	0ffH
	DB	040H
	DB	040H
	DB	040H
	DB	0ffH
	DB	040H
	DB	040H
	DB	040H
	DB	0ffH
	DB	040H
	DB	040H
	DB	040H
	DB	0ffH
	DB	040H
	DB	040H
	DB	040H
	DB	0ffH
	DB	040H
	DB	040H
	DB	040H
	DB	0ffH
	DB	040H
	DB	040H
	DB	040H
	DB	0ffH
	DB	040H
	DB	040H
	DB	040H
	DB	0ffH
	DB	040H
	DB	040H
	DB	040H
	DB	0ffH
	DB	040H
	DB	040H
	DB	040H
	DB	0ffH
	DB	040H
	DB	040H
	DB	040H
	DB	0ffH
	DB	040H
	DB	040H
	DB	040H
	DB	0ffH
	DB	040H
	DB	040H
	DB	040H
	DB	0ffH
	DB	040H
	DB	040H
	DB	040H
	DB	0ffH
	DB	040H
	DB	040H
	DB	040H
	DB	0ffH
	DB	040H
	DB	040H
	DB	040H
	DB	0ffH
	DB	040H
	DB	040H
	DB	040H
	DB	0ffH
	DB	040H
	DB	040H
	DB	040H
	DB	0ffH
	DB	040H
	DB	040H
	DB	040H
	DB	0ffH
	DB	040H
	DB	040H
	DB	040H
	DB	0ffH
	DB	040H
	DB	040H
	DB	040H
	DB	0ffH
	DB	040H
	DB	040H
	DB	040H
	DB	0ffH
	DB	040H
	DB	040H
	DB	040H
	DB	0ffH
	DB	040H
	DB	040H
	DB	040H
	DB	0ffH
	DB	040H
	DB	040H
	DB	040H
	DB	0ffH
	DB	040H
	DB	040H
	DB	040H
	DB	0ffH
	DB	040H
	DB	040H
	DB	040H
	DB	0ffH
	DB	040H
	DB	040H
	DB	040H
	DB	0ffH
	DB	040H
	DB	040H
	DB	040H
	DB	0ffH
	DB	040H
	DB	040H
	DB	040H
	DB	0ffH
	DB	040H
	DB	040H
	DB	040H
	DB	0ffH
	DB	040H
	DB	040H
	DB	040H
	DB	0ffH
	DB	040H
	DB	040H
	DB	040H
	DB	0ffH
	DB	040H
	DB	040H
	DB	040H
	DB	0ffH
	DB	040H
	DB	040H
	DB	040H
	DB	0ffH
	DB	040H
	DB	040H
	DB	040H
	DB	0ffH
	DB	040H
	DB	040H
	DB	040H
	DB	0ffH
	DB	040H
	DB	040H
	DB	040H
	DB	0ffH
	DB	040H
	DB	040H
	DB	040H
	DB	0ffH
	DB	040H
	DB	040H
	DB	040H
	DB	0ffH
	DB	040H
	DB	040H
	DB	040H
	DB	0ffH
	DB	040H
	DB	040H
	DB	040H
	DB	0ffH
	DB	040H
	DB	040H
	DB	040H
	DB	0ffH
	DB	040H
	DB	040H
	DB	040H
	DB	0ffH
	DB	040H
	DB	040H
	DB	040H
	DB	0ffH
	DB	040H
	DB	040H
	DB	040H
	DB	0ffH
	DB	040H
	DB	040H
	DB	040H
	DB	0ffH
	DB	040H
	DB	040H
	DB	040H
	DB	0ffH
	DB	040H
	DB	040H
	DB	040H
	DB	0ffH
	DB	040H
	DB	040H
	DB	040H
	DB	0ffH
	DB	040H
	DB	040H
	DB	040H
	DB	0ffH
	DB	040H
	DB	040H
	DB	040H
	DB	0ffH
	DB	040H
	DB	040H
	DB	040H
	DB	0ffH
	DB	040H
	DB	040H
	DB	040H
	DB	0ffH
	DB	040H
	DB	040H
	DB	040H
	DB	0ffH
	DB	040H
	DB	040H
	DB	040H
	DB	0ffH
	DB	040H
	DB	040H
	DB	040H
	DB	0ffH
	DB	040H
	DB	040H
	DB	040H
	DB	0ffH
	DB	040H
	DB	040H
	DB	040H
	DB	0ffH
	DB	040H
	DB	040H
	DB	040H
	DB	0ffH
	DB	040H
	DB	040H
	DB	040H
	DB	0ffH
	DB	040H
	DB	040H
	DB	040H
	DB	0ffH
	DB	040H
	DB	040H
	DB	040H
	DB	0ffH
	DB	040H
	DB	040H
	DB	040H
	DB	0ffH
	DB	040H
	DB	040H
	DB	040H
	DB	0ffH
	DB	040H
	DB	040H
	DB	040H
	DB	0ffH
	DB	040H
	DB	040H
	DB	040H
	DB	0ffH
	DB	040H
	DB	040H
	DB	040H
	DB	0ffH
	DB	040H
	DB	040H
	DB	040H
	DB	0ffH
	DB	040H
	DB	040H
	DB	040H
	DB	0ffH
	DB	040H
	DB	040H
	DB	040H
	DB	0ffH
	DB	040H
	DB	040H
	DB	040H
	DB	0ffH
	DB	040H
	DB	040H
	DB	040H
	DB	0ffH
	DB	040H
	DB	040H
	DB	040H
	DB	0ffH
	DB	040H
	DB	040H
	DB	040H
	DB	0ffH
	DB	040H
	DB	040H
	DB	040H
	DB	0ffH
	DB	040H
	DB	040H
	DB	040H
	DB	0ffH
	DB	040H
	DB	040H
	DB	040H
	DB	0ffH
	DB	040H
	DB	040H
	DB	040H
	DB	0ffH
	DB	040H
	DB	040H
	DB	040H
	DB	0ffH
	DB	040H
	DB	040H
	DB	040H
	DB	0ffH
	DB	040H
	DB	040H
	DB	040H
	DB	0ffH
	DB	040H
	DB	040H
	DB	040H
	DB	0ffH
	DB	040H
	DB	040H
	DB	040H
	DB	0ffH
	DB	040H
	DB	040H
	DB	040H
	DB	0ffH
	DB	040H
	DB	040H
	DB	040H
	DB	0ffH
	DB	040H
	DB	040H
	DB	040H
	DB	0ffH
	DB	040H
	DB	040H
	DB	040H
	DB	0ffH
	DB	040H
	DB	040H
	DB	040H
	DB	0ffH
	DB	040H
	DB	040H
	DB	040H
	DB	0ffH
	DB	040H
	DB	040H
	DB	040H
	DB	0ffH
	DB	040H
	DB	040H
	DB	040H
	DB	0ffH
	DB	040H
	DB	040H
	DB	040H
	DB	0ffH
	DB	040H
	DB	040H
	DB	040H
	DB	0ffH
	DB	040H
	DB	040H
	DB	040H
	DB	0ffH
	DB	040H
	DB	040H
	DB	040H
	DB	0ffH
	DB	040H
	DB	040H
	DB	040H
	DB	0ffH
	DB	040H
	DB	040H
	DB	040H
	DB	0ffH
	DB	040H
	DB	040H
	DB	040H
	DB	0ffH
	DB	040H
	DB	040H
	DB	040H
	DB	0ffH
	DB	040H
	DB	040H
	DB	040H
	DB	0ffH
	DB	040H
	DB	040H
	DB	040H
	DB	0ffH
	DB	040H
	DB	040H
	DB	040H
	DB	0ffH
	DB	040H
	DB	040H
	DB	040H
	DB	0ffH
	DB	040H
	DB	040H
	DB	040H
	DB	0ffH
	DB	040H
	DB	040H
	DB	040H
	DB	0ffH
	DB	040H
	DB	040H
	DB	040H
	DB	0ffH
	DB	040H
	DB	040H
	DB	040H
	DB	0ffH
	DB	040H
	DB	040H
	DB	040H
	DB	0ffH
	DB	040H
	DB	040H
	DB	040H
	DB	0ffH
	DB	040H
	DB	040H
	DB	040H
	DB	0ffH
	DB	040H
	DB	040H
	DB	040H
	DB	0ffH
	DB	040H
	DB	040H
	DB	040H
	DB	0ffH
	DB	040H
	DB	040H
	DB	040H
	DB	0ffH
	DB	040H
	DB	040H
	DB	040H
	DB	0ffH
	DB	040H
	DB	040H
	DB	040H
	DB	0ffH
	DB	040H
	DB	040H
	DB	040H
	DB	0ffH
	DB	040H
	DB	040H
	DB	040H
	DB	0ffH
	DB	040H
	DB	040H
	DB	040H
	DB	0ffH
	DB	040H
	DB	040H
	DB	040H
	DB	0ffH
	DB	040H
	DB	040H
	DB	040H
	DB	0ffH
	DB	040H
	DB	040H
	DB	040H
	DB	0ffH
	DB	040H
	DB	040H
	DB	040H
	DB	0ffH
	DB	040H
	DB	040H
	DB	040H
	DB	0ffH
	DB	040H
	DB	040H
	DB	040H
	DB	0ffH
	DB	040H
	DB	040H
	DB	040H
	DB	0ffH
	DB	040H
	DB	040H
	DB	040H
	DB	0ffH
	DB	040H
	DB	040H
	DB	040H
	DB	0ffH
	DB	040H
	DB	040H
	DB	040H
	DB	0ffH
	DB	040H
	DB	040H
	DB	040H
	DB	0ffH
	DB	040H
	DB	040H
	DB	040H
	DB	0ffH
	DB	040H
	DB	040H
	DB	040H
	DB	0ffH
	DB	040H
	DB	040H
	DB	040H
	DB	0ffH
	DB	040H
	DB	044H
	DB	040H
	DB	0ffH
	DB	048H
	DB	044H
	DB	048H
	DB	0ffH
	DB	048H
	DB	044H
	DB	048H
	DB	0ffH
	DB	048H
	DB	048H
	DB	048H
	DB	0ffH
	DB	048H
	DB	044H
	DB	048H
	DB	0ffH
	DB	040H
	DB	044H
	DB	040H
	DB	0ffH
	DB	040H
	DB	044H
	DB	040H
	DB	0ffH
	DB	048H
	DB	044H
	DB	048H
	DB	0ffH
	DB	040H
	DB	044H
	DB	040H
	DB	0ffH
	DB	040H
	DB	044H
	DB	040H
	DB	0ffH
	DB	028H
	DB	024H
	DB	028H
	DB	0ffH
	DB	020H
	DB	024H
	DB	020H
	DB	0ffH
	DB	090H
	DB	094H
	DB	090H
	DB	092H
	DB	028H
	DB	024H
	DB	028H
	DB	0ffH
	DB	028H
	DB	024H
	DB	020H
	DB	0ffH
	DB	040H
	DB	044H
	DB	040H
	DB	0ffH
	DB	040H
	DB	044H
	DB	048H
	DB	0ffH
	DB	048H
	DB	044H
	DB	040H
	DB	0ffH
	DB	048H
	DB	044H
	DB	040H
	DB	0ffH
	DB	040H
	DB	044H
	DB	048H
	DB	0ffH
	DB	040H
	DB	044H
	DB	040H
	DB	0ffH
	DB	048H
	DB	048H
	DB	048H
	DB	0ffH
	DB	048H
	DB	048H
	DB	048H
	DB	0ffH
	DB	048H
	DB	044H
	DB	048H
	DB	0ffH
	DB	040H
	DB	044H
	DB	040H
	DB	0ffH
	DB	040H
	DB	044H
	DB	040H
	DB	0ffH
	DB	040H
	DB	044H
	DB	040H
	DB	0ffH
	DB	040H
	DB	044H
	DB	040H
	DB	0ffH
	DB	040H
	DB	044H
	DB	040H
	DB	0ffH
	DB	040H
	DB	044H
	DB	040H
	DB	0ffH
	DB	040H
	DB	044H
	DB	040H
	DB	0ffH
	DB	040H
	DB	044H
	DB	040H
	DB	0ffH
	DB	040H
	DB	044H
	DB	040H
	DB	0ffH
	DB	040H
	DB	044H
	DB	040H
	DB	0ffH
	DB	040H
	DB	044H
	DB	040H
	DB	0ffH
	DB	040H
	DB	044H
	DB	040H
	DB	0ffH
	DB	040H
	DB	044H
	DB	040H
	DB	0ffH
	DB	040H
	DB	044H
	DB	040H
	DB	0ffH
	DB	040H
	DB	044H
	DB	040H
	DB	0ffH
	DB	040H
	DB	044H
	DB	040H
	DB	0ffH
	DB	040H
	DB	044H
	DB	040H
	DB	0ffH
	DB	040H
	DB	040H
	DB	040H
	DB	0ffH
	DB	040H
	DB	044H
	DB	040H
	DB	0ffH
	DB	040H
	DB	044H
	DB	040H
	DB	0ffH
	DB	040H
	DB	044H
	DB	040H
	DB	0ffH
	DB	040H
	DB	044H
	DB	040H
	DB	0ffH
	DB	040H
	DB	044H
	DB	040H
	DB	0ffH
	DB	040H
	DB	044H
	DB	040H
	DB	0ffH
	DB	040H
	DB	040H
	DB	040H
	DB	0ffH
	DB	040H
	DB	044H
	DB	040H
	DB	0ffH
	DB	040H
	DB	044H
	DB	040H
	DB	0ffH
	DB	040H
	DB	044H
	DB	040H
	DB	0ffH
	DB	040H
	DB	044H
	DB	040H
	DB	0ffH
	DB	040H
	DB	044H
	DB	040H
	DB	0ffH
	DB	040H
	DB	044H
	DB	040H
	DB	0ffH
	DB	040H
	DB	044H
	DB	040H
	DB	0ffH
	DB	040H
	DB	040H
	DB	040H
	DB	0ffH
	DB	040H
	DB	044H
	DB	040H
	DB	0ffH
	DB	040H
	DB	044H
	DB	040H
	DB	0ffH
	DB	040H
	DB	044H
	DB	040H
	DB	0ffH
	DB	040H
	DB	044H
	DB	040H
	DB	0ffH
	DB	040H
	DB	044H
	DB	040H
	DB	0ffH
	DB	040H
	DB	044H
	DB	040H
	DB	0ffH
	DB	040H
	DB	044H
	DB	040H
	DB	0ffH
	DB	040H
	DB	040H
	DB	040H
	DB	0ffH
	DB	040H
	DB	044H
	DB	040H
	DB	0ffH
	DB	040H
	DB	044H
	DB	040H
	DB	0ffH
	DB	040H
	DB	044H
	DB	040H
	DB	0ffH
	DB	040H
	DB	044H
	DB	040H
	DB	0ffH
	DB	040H
	DB	044H
	DB	040H
	DB	0ffH
	DB	040H
	DB	044H
	DB	040H
	DB	0ffH
	DB	040H
	DB	044H
	DB	040H
	DB	0ffH
	DB	040H
	DB	040H
	DB	040H
	DB	0ffH
	DB	040H
	DB	044H
	DB	040H
	DB	0ffH
	DB	040H
	DB	044H
	DB	040H
	DB	0ffH
	DB	040H
	DB	044H
	DB	040H
	DB	0ffH
	DB	040H
	DB	044H
	DB	040H
	DB	0ffH
	DB	040H
	DB	044H
	DB	040H
	DB	0ffH
	DB	040H
	DB	044H
	DB	040H
	DB	0ffH
	DB	040H
	DB	044H
	DB	040H
	DB	0ffH
	DB	040H
	DB	040H
	DB	040H
	DB	0ffH
	DB	040H
	DB	044H
	DB	040H
	DB	0ffH
	DB	040H
	DB	044H
	DB	040H
	DB	0ffH
	DB	040H
	DB	044H
	DB	040H
	DB	0ffH
	DB	040H
	DB	044H
	DB	040H
	DB	0ffH
	DB	040H
	DB	044H
	DB	040H
	DB	0ffH
	DB	040H
	DB	044H
	DB	040H
	DB	0ffH
	DB	040H
	DB	044H
	DB	040H
	DB	0ffH
	DB	040H
	DB	040H
	DB	040H
	DB	0ffH
	DB	040H
	DB	044H
	DB	040H
	DB	0ffH
	DB	040H
	DB	044H
	DB	040H
	DB	0ffH
	DB	040H
	DB	044H
	DB	040H
	DB	0ffH
	DB	040H
	DB	044H
	DB	040H
	DB	0ffH
	DB	040H
	DB	044H
	DB	040H
	DB	0ffH
	DB	040H
	DB	044H
	DB	040H
	DB	0ffH
	DB	040H
	DB	044H
	DB	040H
	DB	0ffH
	DB	040H
	DB	040H
	DB	040H
	DB	0ffH
	DB	040H
	DB	044H
	DB	040H
	DB	0ffH
	DB	040H
	DB	044H
	DB	040H
	DB	0ffH
	DB	040H
	DB	044H
	DB	040H
	DB	0ffH
	DB	040H
	DB	044H
	DB	040H
	DB	0ffH
	DB	040H
	DB	044H
	DB	040H
	DB	0ffH
	DB	040H
	DB	044H
	DB	040H
	DB	0ffH
	DB	040H
	DB	044H
	DB	040H
	DB	0ffH
	DB	040H
	DB	040H
	DB	040H
	DB	0ffH
	DB	040H
	DB	044H
	DB	040H
	DB	0ffH
	DB	040H
	DB	044H
	DB	040H
	DB	0ffH
	DB	040H
	DB	044H
	DB	040H
	DB	0ffH
	DB	040H
	DB	044H
	DB	040H
	DB	0ffH
	DB	040H
	DB	044H
	DB	040H
	DB	0ffH
	DB	040H
	DB	044H
	DB	040H
	DB	0ffH
	DB	040H
	DB	044H
	DB	040H
	DB	0ffH
	DB	040H
	DB	040H
	DB	040H
	DB	0ffH
	DB	040H
	DB	044H
	DB	040H
	DB	0ffH
	DB	040H
	DB	044H
	DB	040H
	DB	0ffH
	DB	040H
	DB	044H
	DB	040H
	DB	0ffH
	DB	040H
	DB	044H
	DB	040H
	DB	0ffH
	DB	040H
	DB	044H
	DB	040H
	DB	0ffH
	DB	040H
	DB	044H
	DB	040H
	DB	0ffH
	DB	040H
	DB	044H
	DB	040H
	DB	0ffH
	DB	040H
	DB	040H
	DB	040H
	DB	0ffH
	DB	040H
	DB	044H
	DB	040H
	DB	0ffH
	DB	040H
	DB	044H
	DB	040H
	DB	0ffH
	DB	040H
	DB	044H
	DB	040H
	DB	0ffH
	DB	040H
	DB	044H
	DB	040H
	DB	0ffH
	DB	040H
	DB	044H
	DB	040H
	DB	0ffH
	DB	040H
	DB	044H
	DB	040H
	DB	0ffH
	DB	040H
	DB	044H
	DB	040H
	DB	0ffH
	DB	040H
	DB	040H
	DB	040H
	DB	0ffH
	DB	040H
	DB	044H
	DB	040H
	DB	0ffH
	DB	040H
	DB	044H
	DB	040H
	DB	0ffH
	DB	040H
	DB	044H
	DB	040H
	DB	0ffH
	DB	040H
	DB	044H
	DB	040H
	DB	0ffH
	DB	040H
	DB	044H
	DB	040H
	DB	0ffH
	DB	040H
	DB	044H
	DB	040H
	DB	0ffH
	DB	040H
	DB	044H
	DB	040H
	DB	0ffH
	DB	040H
	DB	040H
	DB	040H
	DB	0ffH
	DB	040H
	DB	044H
	DB	040H
	DB	0ffH
	DB	040H
	DB	044H
	DB	040H
	DB	0ffH
	DB	040H
	DB	044H
	DB	040H
	DB	0ffH
	DB	040H
	DB	044H
	DB	040H
	DB	0ffH
	DB	040H
	DB	044H
	DB	040H
	DB	0ffH
	DB	040H
	DB	044H
	DB	040H
	DB	0ffH
	DB	040H
	DB	044H
	DB	040H
	DB	0ffH
	DB	040H
	DB	040H
	DB	040H
	DB	0ffH
	DB	040H
	DB	044H
	DB	040H
	DB	0ffH
	DB	040H
	DB	044H
	DB	040H
	DB	0ffH
	DB	040H
	DB	044H
	DB	040H
	DB	0ffH
	DB	040H
	DB	044H
	DB	040H
	DB	0ffH
	DB	040H
	DB	044H
	DB	040H
	DB	0ffH
	DB	040H
	DB	044H
	DB	040H
	DB	0ffH
	DB	040H
	DB	044H
	DB	040H
	DB	0ffH
	DB	040H
	DB	040H
	DB	040H
	DB	0ffH
	DB	040H
	DB	044H
	DB	040H
	DB	0ffH
	DB	040H
	DB	044H
	DB	040H
	DB	0ffH
	DB	040H
	DB	044H
	DB	040H
	DB	0ffH
	DB	040H
	DB	044H
	DB	040H
	DB	0ffH
	DB	040H
	DB	044H
	DB	040H
	DB	0ffH
	DB	040H
	DB	044H
	DB	040H
	DB	0ffH
	DB	040H
	DB	044H
	DB	040H
	DB	0ffH
	DB	040H
	DB	040H
	DB	040H
	DB	0ffH
	DB	040H
	DB	044H
	DB	040H
	DB	0ffH
	DB	040H
	DB	044H
	DB	040H
	DB	0ffH
	DB	040H
	DB	044H
	DB	040H
	DB	0ffH
	DB	040H
	DB	044H
	DB	040H
	DB	0ffH
	DB	040H
	DB	044H
	DB	040H
	DB	0ffH
	DB	040H
	DB	044H
	DB	040H
	DB	0ffH
	DB	040H
	DB	044H
	DB	040H
	DB	0ffH
	DB	040H
	DB	040H
	DB	040H
	DB	0ffH
	DB	040H
	DB	044H
	DB	040H
	DB	0ffH
	DB	040H
	DB	044H
	DB	040H
	DB	0ffH
	DB	040H
	DB	044H
	DB	040H
	DB	0ffH
	DB	040H
	DB	044H
	DB	040H
	DB	0ffH
	DB	040H
	DB	044H
	DB	040H
	DB	0ffH
	DB	040H
	DB	044H
	DB	040H
	DB	0ffH
	DB	040H
	DB	044H
	DB	040H
	DB	0ffH
	DB	040H
	DB	040H
	DB	040H
	DB	0ffH
	DB	040H
	DB	044H
	DB	040H
	DB	0ffH
	DB	040H
	DB	044H
	DB	040H
	DB	0ffH
	DB	040H
	DB	044H
	DB	040H
	DB	0ffH
	DB	040H
	DB	044H
	DB	040H
	DB	0ffH
	DB	040H
	DB	044H
	DB	040H
	DB	0ffH
	DB	040H
	DB	044H
	DB	040H
	DB	0ffH
	DB	040H
	DB	044H
	DB	040H
	DB	0ffH
	DB	040H
	DB	040H
	DB	040H
	DB	0ffH
	DB	040H
	DB	044H
	DB	040H
	DB	0ffH
	DB	040H
	DB	044H
	DB	040H
	DB	0ffH
	DB	040H
	DB	044H
	DB	040H
	DB	0ffH
	DB	040H
	DB	044H
	DB	040H
	DB	0ffH
	DB	040H
	DB	044H
	DB	040H
	DB	0ffH
	DB	040H
	DB	044H
	DB	040H
	DB	0ffH
	DB	040H
	DB	040H
	DB	040H
	DB	0ffH
	DB	040H
	DB	044H
	DB	040H
	DB	0ffH
	DB	040H
	DB	044H
	DB	040H
	DB	0ffH
	DB	048H
	DB	044H
	DB	048H
	DB	0ffH
	DB	048H
	DB	048H
	DB	048H
	DB	0ffH
	DB	048H
	DB	044H
	DB	048H
	DB	0ffH
	DB	040H
	DB	044H
	DB	040H
	DB	0ffH
	DB	040H
	DB	044H
	DB	040H
	DB	0ffH
	DB	048H
	DB	044H
	DB	048H
	DB	0ffH
	DB	048H
	DB	044H
	DB	040H
	DB	0ffH
	DB	040H
	DB	044H
	DB	048H
	DB	0ffH
	DB	040H
	DB	044H
	DB	040H
	DB	0ffH
	DB	028H
	DB	028H
	DB	028H
	DB	0ffH
	DB	028H
	DB	024H
	DB	028H
	DB	0ffH
	DB	090H
	DB	094H
	DB	090H
	DB	092H
	DB	028H
	DB	024H
	DB	028H
	DB	0ffH
	DB	028H
	DB	024H
	DB	028H
	DB	0ffH
	DB	040H
	DB	044H
	DB	040H
	DB	0ffH
	DB	040H
	DB	044H
	DB	040H
	DB	0ffH
	DB	040H
	DB	044H
	DB	040H
	DB	0ffH
	DB	048H
	DB	044H
	DB	048H
	DB	0ffH
	DB	040H
	DB	044H
	DB	040H
	DB	0ffH
	DB	040H
	DB	044H
	DB	040H
	DB	0ffH
	DB	048H
	DB	044H
	DB	048H
	DB	0ffH
	DB	040H
	DB	044H
	DB	040H
	DB	0ffH
	DB	048H
	DB	048H
	DB	048H
	DB	0ffH
	DB	048H
	DB	044H
	DB	048H
	DB	0ffH
	DB	040H
	DB	044H
	DB	040H
	DB	0ffH
	DB	040H
	DB	044H
	DB	040H
	DB	0ffH
	DB	048H
	DB	044H
	DB	048H
	DB	0ffH
	DB	040H
	DB	044H
	DB	040H
	DB	0ffH
	DB	040H
	DB	044H
	DB	040H
	DB	0ffH
	DB	040H
	DB	044H
	DB	048H
	DB	0ffH
	DB	048H
	DB	044H
	DB	040H
	DB	0ffH
	DB	040H
	DB	044H
	DB	040H
	DB	0ffH
	DB	040H
	DB	044H
	DB	040H
	DB	0ffH
	DB	040H
	DB	044H
	DB	040H
	DB	0ffH
	DB	040H
	DB	044H
	DB	040H
	DB	0ffH
	DB	040H
	DB	044H
	DB	040H
	DB	0ffH
	DB	040H
	DB	044H
	DB	040H
	DB	0ffH
	DB	040H
	DB	044H
	DB	040H
	DB	0ffH
	DB	040H
	DB	044H
	DB	040H
	DB	0ffH
	DB	040H
	DB	044H
	DB	040H
	DB	0ffH
	DB	040H
	DB	044H
	DB	040H
	DB	0ffH
	DB	040H
	DB	044H
	DB	040H
	DB	0ffH
	DB	040H
	DB	044H
	DB	040H
	DB	0ffH
	DB	040H
	DB	044H
	DB	040H
	DB	0ffH
	DB	040H
	DB	044H
	DB	040H
	DB	0ffH
	DB	040H
	DB	044H
	DB	040H
	DB	0ffH
	DB	040H
	DB	044H
	DB	040H
	DB	0ffH
	DB	040H
	DB	044H
	DB	040H
	DB	0ffH
	DB	040H
	DB	044H
	DB	040H
	DB	0ffH
	DB	040H
	DB	044H
	DB	040H
	DB	0ffH
	DB	040H
	DB	044H
	DB	040H
	DB	0ffH
	DB	040H
	DB	044H
	DB	040H
	DB	0ffH
	DB	040H
	DB	044H
	DB	040H
	DB	0ffH
	DB	040H
	DB	044H
	DB	040H
	DB	0ffH
	DB	040H
	DB	044H
	DB	040H
	DB	0ffH
	DB	040H
	DB	044H
	DB	040H
	DB	0ffH
	DB	040H
	DB	044H
	DB	040H
	DB	0ffH
	DB	040H
	DB	044H
	DB	040H
	DB	0ffH
	DB	040H
	DB	044H
	DB	040H
	DB	0ffH
	DB	040H
	DB	044H
	DB	040H
	DB	0ffH
	DB	040H
	DB	044H
	DB	040H
	DB	0ffH
	DB	040H
	DB	044H
	DB	040H
	DB	0ffH
	DB	040H
	DB	044H
	DB	040H
	DB	0ffH
	DB	040H
	DB	044H
	DB	040H
	DB	0ffH
	DB	040H
	DB	044H
	DB	040H
	DB	0ffH
	DB	040H
	DB	044H
	DB	040H
	DB	0ffH
	DB	040H
	DB	044H
	DB	040H
	DB	0ffH
	DB	040H
	DB	044H
	DB	040H
	DB	0ffH
	DB	040H
	DB	044H
	DB	040H
	DB	0ffH
	DB	040H
	DB	044H
	DB	040H
	DB	0ffH
	DB	040H
	DB	044H
	DB	040H
	DB	0ffH
	DB	040H
	DB	044H
	DB	040H
	DB	0ffH
	DB	040H
	DB	044H
	DB	040H
	DB	0ffH
	DB	040H
	DB	044H
	DB	040H
	DB	0ffH
	DB	040H
	DB	044H
	DB	040H
	DB	0ffH
	DB	040H
	DB	044H
	DB	040H
	DB	0ffH
	DB	040H
	DB	044H
	DB	040H
	DB	0ffH
	DB	040H
	DB	044H
	DB	040H
	DB	0ffH
	DB	040H
	DB	044H
	DB	040H
	DB	0ffH
	DB	040H
	DB	044H
	DB	040H
	DB	0ffH
	DB	040H
	DB	044H
	DB	040H
	DB	0ffH
	DB	040H
	DB	044H
	DB	040H
	DB	0ffH
	DB	040H
	DB	044H
	DB	040H
	DB	0ffH
	DB	040H
	DB	044H
	DB	040H
	DB	0ffH
	DB	040H
	DB	044H
	DB	040H
	DB	0ffH
	DB	040H
	DB	044H
	DB	040H
	DB	0ffH
	DB	040H
	DB	044H
	DB	040H
	DB	0ffH
	DB	040H
	DB	044H
	DB	040H
	DB	0ffH
	DB	040H
	DB	044H
	DB	040H
	DB	0ffH
	DB	040H
	DB	044H
	DB	040H
	DB	0ffH
	DB	040H
	DB	044H
	DB	040H
	DB	0ffH
	DB	040H
	DB	044H
	DB	040H
	DB	0ffH
	DB	040H
	DB	044H
	DB	040H
	DB	0ffH
	DB	040H
	DB	044H
	DB	040H
	DB	0ffH
	DB	040H
	DB	044H
	DB	040H
	DB	0ffH
	DB	040H
	DB	044H
	DB	040H
	DB	0ffH
	DB	040H
	DB	044H
	DB	040H
	DB	0ffH
	DB	040H
	DB	044H
	DB	040H
	DB	0ffH
	DB	040H
	DB	044H
	DB	040H
	DB	0ffH
	DB	040H
	DB	044H
	DB	040H
	DB	0ffH
	DB	040H
	DB	044H
	DB	040H
	DB	0ffH
	DB	040H
	DB	044H
	DB	040H
	DB	0ffH
	DB	040H
	DB	044H
	DB	040H
	DB	0ffH
	DB	040H
	DB	044H
	DB	040H
	DB	0ffH
	DB	040H
	DB	044H
	DB	040H
	DB	0ffH
	DB	040H
	DB	044H
	DB	040H
	DB	0ffH
	DB	040H
	DB	044H
	DB	040H
	DB	0ffH
	DB	040H
	DB	044H
	DB	040H
	DB	0ffH
	DB	040H
	DB	044H
	DB	040H
	DB	0ffH
	DB	040H
	DB	044H
	DB	040H
	DB	0ffH
	DB	040H
	DB	044H
	DB	040H
	DB	0ffH
	DB	040H
	DB	044H
	DB	040H
	DB	0ffH
	DB	040H
	DB	044H
	DB	040H
	DB	0ffH
	DB	040H
	DB	044H
	DB	040H
	DB	0ffH
	DB	040H
	DB	044H
	DB	040H
	DB	0ffH
	DB	040H
	DB	044H
	DB	040H
	DB	0ffH
	DB	040H
	DB	044H
	DB	040H
	DB	0ffH
	DB	040H
	DB	044H
	DB	040H
	DB	0ffH
	DB	040H
	DB	044H
	DB	040H
	DB	0ffH
	DB	040H
	DB	044H
	DB	040H
	DB	0ffH
	DB	040H
	DB	044H
	DB	040H
	DB	0ffH
	DB	040H
	DB	044H
	DB	040H
	DB	0ffH
	DB	040H
	DB	044H
	DB	040H
	DB	0ffH
	DB	040H
	DB	044H
	DB	040H
	DB	0ffH
	DB	040H
	DB	044H
	DB	040H
	DB	0ffH
	DB	040H
	DB	044H
	DB	040H
	DB	0ffH
	DB	040H
	DB	044H
	DB	040H
	DB	0ffH
	DB	040H
	DB	044H
	DB	040H
	DB	0ffH
	DB	040H
	DB	044H
	DB	040H
	DB	0ffH
	DB	040H
	DB	044H
	DB	040H
	DB	0ffH
	DB	040H
	DB	044H
	DB	040H
	DB	0ffH
	DB	040H
	DB	044H
	DB	040H
	DB	0ffH
	DB	040H
	DB	044H
	DB	040H
	DB	0ffH
	DB	040H
	DB	044H
	DB	040H
	DB	0ffH
	DB	040H
	DB	044H
	DB	040H
	DB	0ffH
	DB	040H
	DB	044H
	DB	040H
	DB	0ffH
	DB	040H
	DB	044H
	DB	040H
	DB	0ffH
	DB	040H
	DB	044H
	DB	040H
	DB	0ffH
	DB	040H
	DB	044H
	DB	040H
	DB	0ffH
	DB	040H
	DB	044H
	DB	040H
	DB	0ffH
	DB	040H
	DB	044H
	DB	040H
	DB	0ffH
	DB	040H
	DB	044H
	DB	040H
	DB	0ffH
	DB	040H
	DB	044H
	DB	040H
	DB	0ffH
	DB	040H
	DB	044H
	DB	040H
	DB	0ffH
	DB	040H
	DB	044H
	DB	040H
	DB	0ffH
	DB	040H
	DB	044H
	DB	040H
	DB	0ffH
	DB	040H
	DB	044H
	DB	040H
	DB	0ffH
	DB	040H
	DB	044H
	DB	040H
	DB	0ffH
	DB	040H
	DB	044H
	DB	040H
	DB	0ffH
	DB	040H
	DB	044H
	DB	040H
	DB	0ffH
	DB	040H
	DB	044H
	DB	040H
	DB	0ffH
	DB	040H
	DB	044H
	DB	040H
	DB	0ffH
	DB	040H
	DB	044H
	DB	040H
	DB	0ffH
	DB	040H
	DB	044H
	DB	040H
	DB	0ffH
	DB	040H
	DB	044H
	DB	040H
	DB	0ffH
	DB	040H
	DB	044H
	DB	040H
	DB	0ffH
	DB	040H
	DB	044H
	DB	040H
	DB	0ffH
	DB	040H
	DB	044H
	DB	040H
	DB	0ffH
	DB	040H
	DB	044H
	DB	040H
	DB	0ffH
	DB	040H
	DB	044H
	DB	040H
	DB	0ffH
	DB	040H
	DB	044H
	DB	040H
	DB	0ffH
	DB	040H
	DB	044H
	DB	040H
	DB	0ffH
	DB	040H
	DB	044H
	DB	040H
	DB	0ffH
	DB	040H
	DB	044H
	DB	040H
	DB	0ffH
	DB	040H
	DB	044H
	DB	040H
	DB	0ffH
	DB	040H
	DB	044H
	DB	040H
	DB	0ffH
	DB	040H
	DB	044H
	DB	040H
	DB	0ffH
	DB	040H
	DB	044H
	DB	040H
	DB	0ffH
	DB	040H
	DB	044H
	DB	040H
	DB	0ffH
	DB	040H
	DB	044H
	DB	040H
	DB	0ffH
	DB	040H
	DB	044H
	DB	040H
	DB	0ffH
	DB	040H
	DB	044H
	DB	040H
	DB	0ffH
	DB	040H
	DB	044H
	DB	040H
	DB	0ffH
	DB	040H
	DB	044H
	DB	040H
	DB	0ffH
	DB	040H
	DB	044H
	DB	040H
	DB	0ffH
	DB	040H
	DB	044H
	DB	040H
	DB	0ffH
	DB	040H
	DB	044H
	DB	040H
	DB	0ffH
	DB	040H
	DB	044H
	DB	040H
	DB	0ffH
	DB	040H
	DB	044H
	DB	040H
	DB	0ffH
	DB	040H
	DB	044H
	DB	040H
	DB	0ffH
	DB	040H
	DB	044H
	DB	040H
	DB	0ffH
	DB	040H
	DB	044H
	DB	040H
	DB	0ffH
	DB	040H
	DB	044H
	DB	040H
	DB	0ffH
	DB	040H
	DB	044H
	DB	040H
	DB	0ffH
	DB	040H
	DB	044H
	DB	040H
	DB	0ffH
	DB	040H
	DB	044H
	DB	040H
	DB	0ffH
	DB	040H
	DB	044H
	DB	048H
	DB	0ffH
	DB	040H
	DB	044H
	DB	040H
	DB	0ffH
	DB	048H
	DB	044H
	DB	040H
	DB	0ffH
	DB	040H
	DB	044H
	DB	048H
	DB	0ffH
	DB	040H
	DB	044H
	DB	040H
	DB	0ffH
	DB	048H
	DB	044H
	DB	040H
	DB	0ffH
	DB	040H
	DB	044H
	DB	048H
	DB	0ffH
	DB	048H
	DB	048H
	DB	048H
	DB	0ffH
	DB	048H
	DB	044H
	DB	040H
	DB	0ffH
	DB	040H
	DB	044H
	DB	048H
	DB	0ffH
	DB	040H
	DB	044H
	DB	040H
	DB	0ffH
	DB	048H
	DB	044H
	DB	040H
	DB	0ffH
	DB	040H
	DB	044H
	DB	048H
	DB	0ffH
	DB	040H
	DB	044H
	DB	040H
	DB	0ffH
	DB	048H
	DB	044H
	DB	040H
	DB	0ffH
	DB	040H
	DB	044H
	DB	040H
	DB	0ffH
	DB	028H
	DB	024H
	DB	028H
	DB	0ffH
	DB	028H
	DB	024H
	DB	028H
	DB	0ffH
	DB	090H
	DB	094H
	DB	090H
	DB	096H
	DB	028H
	DB	024H
	DB	020H
	DB	0ffH
	DB	028H
	DB	024H
	DB	028H
	DB	0ffH
	DB	040H
	DB	044H
	DB	040H
	DB	0ffH
	DB	040H
	DB	044H
	DB	040H
	DB	0ffH
	DB	040H
	DB	044H
	DB	048H
	DB	0ffH
	DB	048H
	DB	044H
	DB	040H
	DB	0ffH
	DB	040H
	DB	044H
	DB	040H
	DB	0ffH
	DB	040H
	DB	044H
	DB	048H
	DB	0ffH
	DB	048H
	DB	044H
	DB	040H
	DB	0ffH
	DB	040H
	DB	044H
	DB	040H
	DB	0ffH
	DB	048H
	DB	048H
	DB	048H
	DB	0ffH
	DB	048H
	DB	044H
	DB	048H
	DB	0ffH
	DB	048H
	DB	044H
	DB	048H
	DB	0ffH
	DB	048H
	DB	044H
	DB	048H
	DB	0ffH
	DB	048H
	DB	044H
	DB	048H
	DB	0ffH
	DB	048H
	DB	044H
	DB	048H
	DB	0ffH
	DB	048H
	DB	044H
	DB	048H
	DB	0ffH
	DB	048H
	DB	044H
	DB	048H
	DB	0ffH
	DB	048H
	DB	044H
	DB	048H
	DB	0ffH
	DB	048H
	DB	044H
	DB	048H
	DB	0ffH
	DB	048H
	DB	044H
	DB	048H
	DB	0ffH
	DB	048H
	DB	044H
	DB	048H
	DB	0ffH
	DB	048H
	DB	044H
	DB	048H
	DB	0ffH
	DB	048H
	DB	044H
	DB	048H
	DB	0ffH
	DB	048H
	DB	044H
	DB	048H
	DB	0ffH
	DB	048H
	DB	044H
	DB	048H
	DB	0ffH
	DB	048H
	DB	044H
	DB	048H
	DB	0ffH
	DB	048H
	DB	044H
	DB	048H
	DB	0ffH
	DB	048H
	DB	044H
	DB	048H
	DB	0ffH
	DB	048H
	DB	044H
	DB	048H
	DB	0ffH
	DB	048H
	DB	044H
	DB	048H
	DB	0ffH
	DB	048H
	DB	044H
	DB	048H
	DB	0ffH
	DB	048H
	DB	044H
	DB	048H
	DB	0ffH
	DB	048H
	DB	044H
	DB	048H
	DB	0ffH
	DB	048H
	DB	044H
	DB	048H
	DB	0ffH
	DB	048H
	DB	044H
	DB	048H
	DB	0ffH
	DB	048H
	DB	044H
	DB	048H
	DB	0ffH
	DB	048H
	DB	044H
	DB	048H
	DB	0ffH
	DB	048H
	DB	044H
	DB	048H
	DB	0ffH
	DB	048H
	DB	044H
	DB	048H
	DB	0ffH
	DB	048H
	DB	044H
	DB	048H
	DB	0ffH
	DB	048H
	DB	044H
	DB	048H
	DB	0ffH
	DB	048H
	DB	044H
	DB	048H
	DB	0ffH
	DB	048H
	DB	044H
	DB	048H
	DB	0ffH
	DB	048H
	DB	044H
	DB	048H
	DB	0ffH
	DB	048H
	DB	044H
	DB	048H
	DB	0ffH
	DB	048H
	DB	044H
	DB	048H
	DB	0ffH
	DB	048H
	DB	044H
	DB	048H
	DB	0ffH
	DB	048H
	DB	044H
	DB	048H
	DB	0ffH
	DB	048H
	DB	044H
	DB	048H
	DB	0ffH
	DB	048H
	DB	044H
	DB	048H
	DB	0ffH
	DB	048H
	DB	044H
	DB	048H
	DB	0ffH
	DB	048H
	DB	044H
	DB	048H
	DB	0ffH
	DB	048H
	DB	044H
	DB	048H
	DB	0ffH
	DB	048H
	DB	044H
	DB	048H
	DB	0ffH
	DB	048H
	DB	044H
	DB	048H
	DB	0ffH
	DB	048H
	DB	044H
	DB	048H
	DB	0ffH
	DB	048H
	DB	044H
	DB	048H
	DB	0ffH
	DB	048H
	DB	044H
	DB	048H
	DB	0ffH
	DB	048H
	DB	044H
	DB	048H
	DB	0ffH
	DB	048H
	DB	044H
	DB	048H
	DB	0ffH
	DB	048H
	DB	044H
	DB	048H
	DB	0ffH
	DB	048H
	DB	044H
	DB	048H
	DB	0ffH
	DB	048H
	DB	044H
	DB	048H
	DB	0ffH
	DB	048H
	DB	044H
	DB	048H
	DB	0ffH
	DB	048H
	DB	044H
	DB	048H
	DB	0ffH
	DB	048H
	DB	044H
	DB	048H
	DB	0ffH
	DB	048H
	DB	044H
	DB	048H
	DB	0ffH
	DB	048H
	DB	044H
	DB	048H
	DB	0ffH
	DB	048H
	DB	044H
	DB	048H
	DB	0ffH
	DB	048H
	DB	044H
	DB	048H
	DB	0ffH
	DB	048H
	DB	044H
	DB	048H
	DB	0ffH
	DB	048H
	DB	044H
	DB	048H
	DB	0ffH
	DB	048H
	DB	044H
	DB	048H
	DB	0ffH
	DB	048H
	DB	044H
	DB	048H
	DB	0ffH
	DB	048H
	DB	044H
	DB	048H
	DB	0ffH
	DB	048H
	DB	044H
	DB	048H
	DB	0ffH
	DB	048H
	DB	044H
	DB	048H
	DB	0ffH
	DB	048H
	DB	044H
	DB	048H
	DB	0ffH
	DB	048H
	DB	044H
	DB	048H
	DB	0ffH
	DB	048H
	DB	044H
	DB	048H
	DB	0ffH
	DB	048H
	DB	044H
	DB	048H
	DB	0ffH
	DB	048H
	DB	044H
	DB	048H
	DB	0ffH
	DB	048H
	DB	044H
	DB	048H
	DB	0ffH
	DB	048H
	DB	044H
	DB	048H
	DB	0ffH
	DB	048H
	DB	044H
	DB	048H
	DB	0ffH
	DB	048H
	DB	044H
	DB	048H
	DB	0ffH
	DB	048H
	DB	044H
	DB	048H
	DB	0ffH
	DB	048H
	DB	044H
	DB	048H
	DB	0ffH
	DB	048H
	DB	044H
	DB	048H
	DB	0ffH
	DB	048H
	DB	044H
	DB	048H
	DB	0ffH
	DB	048H
	DB	044H
	DB	048H
	DB	0ffH
	DB	048H
	DB	044H
	DB	048H
	DB	0ffH
	DB	048H
	DB	044H
	DB	048H
	DB	0ffH
	DB	048H
	DB	044H
	DB	048H
	DB	0ffH
	DB	048H
	DB	044H
	DB	048H
	DB	0ffH
	DB	048H
	DB	044H
	DB	048H
	DB	0ffH
	DB	048H
	DB	044H
	DB	048H
	DB	0ffH
	DB	048H
	DB	044H
	DB	048H
	DB	0ffH
	DB	048H
	DB	044H
	DB	048H
	DB	0ffH
	DB	048H
	DB	044H
	DB	048H
	DB	0ffH
	DB	048H
	DB	044H
	DB	048H
	DB	0ffH
	DB	048H
	DB	044H
	DB	048H
	DB	0ffH
	DB	048H
	DB	044H
	DB	048H
	DB	0ffH
	DB	048H
	DB	044H
	DB	048H
	DB	0ffH
	DB	048H
	DB	044H
	DB	048H
	DB	0ffH
	DB	048H
	DB	044H
	DB	048H
	DB	0ffH
	DB	048H
	DB	044H
	DB	048H
	DB	0ffH
	DB	048H
	DB	044H
	DB	048H
	DB	0ffH
	DB	048H
	DB	044H
	DB	048H
	DB	0ffH
	DB	048H
	DB	044H
	DB	048H
	DB	0ffH
	DB	048H
	DB	044H
	DB	048H
	DB	0ffH
	DB	048H
	DB	044H
	DB	048H
	DB	0ffH
	DB	048H
	DB	044H
	DB	048H
	DB	0ffH
	DB	048H
	DB	044H
	DB	048H
	DB	0ffH
	DB	048H
	DB	044H
	DB	048H
	DB	0ffH
	DB	048H
	DB	044H
	DB	048H
	DB	0ffH
	DB	048H
	DB	044H
	DB	048H
	DB	0ffH
	DB	048H
	DB	044H
	DB	048H
	DB	0ffH
	DB	048H
	DB	044H
	DB	048H
	DB	0ffH
	DB	048H
	DB	044H
	DB	048H
	DB	0ffH
	DB	048H
	DB	044H
	DB	048H
	DB	0ffH
	DB	048H
	DB	044H
	DB	048H
	DB	0ffH
	DB	048H
	DB	044H
	DB	048H
	DB	0ffH
	DB	048H
	DB	044H
	DB	048H
	DB	0ffH
	DB	048H
	DB	044H
	DB	048H
	DB	0ffH
	DB	048H
	DB	044H
	DB	048H
	DB	0ffH
	DB	048H
	DB	044H
	DB	048H
	DB	0ffH
	DB	048H
	DB	044H
	DB	048H
	DB	0ffH
	DB	048H
	DB	044H
	DB	048H
	DB	0ffH
	DB	048H
	DB	044H
	DB	048H
	DB	0ffH
	DB	048H
	DB	044H
	DB	048H
	DB	0ffH
	DB	048H
	DB	044H
	DB	048H
	DB	0ffH
	DB	048H
	DB	044H
	DB	048H
	DB	0ffH
	DB	048H
	DB	044H
	DB	048H
	DB	0ffH
	DB	048H
	DB	044H
	DB	048H
	DB	0ffH
	DB	048H
	DB	044H
	DB	048H
	DB	0ffH
	DB	048H
	DB	044H
	DB	048H
	DB	0ffH
	DB	048H
	DB	044H
	DB	048H
	DB	0ffH
	DB	048H
	DB	044H
	DB	048H
	DB	0ffH
	DB	048H
	DB	044H
	DB	048H
	DB	0ffH
	DB	048H
	DB	044H
	DB	048H
	DB	0ffH
	DB	048H
	DB	044H
	DB	048H
	DB	0ffH
	DB	048H
	DB	044H
	DB	048H
	DB	0ffH
	DB	048H
	DB	044H
	DB	048H
	DB	0ffH
	DB	048H
	DB	044H
	DB	048H
	DB	0ffH
	DB	048H
	DB	044H
	DB	048H
	DB	0ffH
	DB	048H
	DB	044H
	DB	048H
	DB	0ffH
	DB	048H
	DB	044H
	DB	048H
	DB	0ffH
	DB	048H
	DB	044H
	DB	048H
	DB	0ffH
	DB	048H
	DB	044H
	DB	048H
	DB	0ffH
	DB	048H
	DB	044H
	DB	048H
	DB	0ffH
	DB	048H
	DB	044H
	DB	048H
	DB	0ffH
	DB	048H
	DB	044H
	DB	048H
	DB	0ffH
	DB	048H
	DB	044H
	DB	048H
	DB	0ffH
	DB	048H
	DB	044H
	DB	048H
	DB	0ffH
	DB	048H
	DB	044H
	DB	048H
	DB	0ffH
	DB	048H
	DB	044H
	DB	048H
	DB	0ffH
	DB	048H
	DB	044H
	DB	048H
	DB	0ffH
	DB	048H
	DB	044H
	DB	048H
	DB	0ffH
	DB	048H
	DB	044H
	DB	048H
	DB	0ffH
	DB	048H
	DB	044H
	DB	048H
	DB	0ffH
	DB	048H
	DB	044H
	DB	048H
	DB	0ffH
	DB	048H
	DB	044H
	DB	048H
	DB	0ffH
	DB	048H
	DB	044H
	DB	048H
	DB	0ffH
	DB	048H
	DB	044H
	DB	048H
	DB	0ffH
	DB	048H
	DB	044H
	DB	048H
	DB	0ffH
	DB	048H
	DB	044H
	DB	048H
	DB	0ffH
	DB	048H
	DB	044H
	DB	048H
	DB	0ffH
	DB	048H
	DB	044H
	DB	048H
	DB	0ffH
	DB	048H
	DB	044H
	DB	048H
	DB	0ffH
	DB	048H
	DB	044H
	DB	048H
	DB	0ffH
	DB	048H
	DB	044H
	DB	048H
	DB	0ffH
	DB	048H
	DB	044H
	DB	048H
	DB	0ffH
	DB	048H
	DB	044H
	DB	048H
	DB	0ffH
	DB	048H
	DB	044H
	DB	048H
	DB	0ffH
	DB	048H
	DB	044H
	DB	048H
	DB	0ffH
	DB	048H
	DB	044H
	DB	048H
	DB	0ffH
	DB	048H
	DB	044H
	DB	048H
	DB	0ffH
	DB	048H
	DB	044H
	DB	048H
	DB	0ffH
	DB	048H
	DB	044H
	DB	048H
	DB	0ffH
	DB	048H
	DB	048H
	DB	048H
	DB	0ffH
	DB	040H
	DB	044H
	DB	040H
	DB	0ffH
	DB	048H
	DB	044H
	DB	048H
	DB	0ffH
	DB	040H
	DB	044H
	DB	040H
	DB	0ffH
	DB	040H
	DB	044H
	DB	048H
	DB	0ffH
	DB	048H
	DB	044H
	DB	040H
	DB	0ffH
	DB	040H
	DB	044H
	DB	048H
	DB	0ffH
	DB	040H
	DB	044H
	DB	040H
	DB	0ffH
	DB	040H
	DB	040H
	DB	040H
	DB	0ffH
	DB	028H
	DB	024H
	DB	028H
	DB	0ffH
	DB	020H
	DB	024H
	DB	020H
	DB	0ffH
	DB	090H
	DB	094H
	DB	090H
	DB	092H
	DB	028H
	DB	024H
	DB	020H
	DB	0ffH
	DB	028H
	DB	024H
	DB	028H
	DB	0ffH
	DB	040H
	DB	040H
	DB	040H
	DB	0ffH
	DB	040H
	DB	040H
	DB	040H
	DB	0ffH
	DB	040H
	DB	040H
	DB	040H
	DB	0ffH
	DB	040H
	DB	040H
	DB	040H
	DB	0ffH
	DB	040H
	DB	040H
	DB	040H
	DB	0ffH
	DB	040H
	DB	044H
	DB	040H
	DB	0ffH
	DB	048H
	DB	044H
	DB	048H
	DB	0ffH
	DB	040H
	DB	044H
	DB	040H
	DB	0ffH
	DB	048H
	DB	04cH
	DB	048H
	DB	0ffH
	DB	048H
	DB	048H
	DB	048H
	DB	0ffH
	DB	048H
	DB	044H
	DB	048H
	DB	0ffH
	DB	048H
	DB	048H
	DB	048H
	DB	0ffH
	DB	040H
	DB	044H
	DB	048H
	DB	0ffH
	DB	048H
	DB	044H
	DB	048H
	DB	0ffH
	DB	048H
	DB	044H
	DB	048H
	DB	0ffH
	DB	048H
	DB	044H
	DB	040H
	DB	0ffH
	DB	048H
	DB	044H
	DB	048H
	DB	0ffH
	DB	048H
	DB	044H
	DB	048H
	DB	0ffH
	DB	048H
	DB	044H
	DB	048H
	DB	0ffH
	DB	048H
	DB	044H
	DB	048H
	DB	0ffH
	DB	048H
	DB	044H
	DB	048H
	DB	0ffH
	DB	048H
	DB	044H
	DB	048H
	DB	0ffH
	DB	048H
	DB	044H
	DB	048H
	DB	0ffH
	DB	048H
	DB	044H
	DB	048H
	DB	0ffH
	DB	048H
	DB	044H
	DB	048H
	DB	0ffH
	DB	048H
	DB	048H
	DB	048H
	DB	0ffH
	DB	048H
	DB	044H
	DB	048H
	DB	0ffH
	DB	048H
	DB	044H
	DB	048H
	DB	0ffH
	DB	048H
	DB	048H
	DB	048H
	DB	0ffH
	DB	048H
	DB	044H
	DB	048H
	DB	0ffH
	DB	048H
	DB	044H
	DB	048H
	DB	0ffH
	DB	048H
	DB	044H
	DB	048H
	DB	0ffH
	DB	048H
	DB	048H
	DB	048H
	DB	0ffH
	DB	048H
	DB	044H
	DB	048H
	DB	0ffH
	DB	048H
	DB	044H
	DB	048H
	DB	0ffH
	DB	048H
	DB	044H
	DB	048H
	DB	0ffH
	DB	048H
	DB	044H
	DB	048H
	DB	0ffH
	DB	048H
	DB	044H
	DB	048H
	DB	0ffH
	DB	048H
	DB	044H
	DB	048H
	DB	0ffH
	DB	048H
	DB	044H
	DB	048H
	DB	0ffH
	DB	048H
	DB	048H
	DB	048H
	DB	0ffH
	DB	048H
	DB	044H
	DB	048H
	DB	0ffH
	DB	048H
	DB	044H
	DB	048H
	DB	0ffH
	DB	048H
	DB	044H
	DB	048H
	DB	0ffH
	DB	048H
	DB	044H
	DB	048H
	DB	0ffH
	DB	048H
	DB	044H
	DB	048H
	DB	0ffH
	DB	048H
	DB	044H
	DB	048H
	DB	0ffH
	DB	048H
	DB	044H
	DB	048H
	DB	0ffH
	DB	048H
	DB	048H
	DB	048H
	DB	0ffH
	DB	048H
	DB	044H
	DB	048H
	DB	0ffH
	DB	048H
	DB	044H
	DB	048H
	DB	0ffH
	DB	048H
	DB	044H
	DB	048H
	DB	0ffH
	DB	048H
	DB	044H
	DB	048H
	DB	0ffH
	DB	048H
	DB	044H
	DB	048H
	DB	0ffH
	DB	048H
	DB	044H
	DB	048H
	DB	0ffH
	DB	048H
	DB	044H
	DB	048H
	DB	0ffH
	DB	048H
	DB	048H
	DB	048H
	DB	0ffH
	DB	048H
	DB	044H
	DB	048H
	DB	0ffH
	DB	048H
	DB	044H
	DB	048H
	DB	0ffH
	DB	048H
	DB	044H
	DB	048H
	DB	0ffH
	DB	048H
	DB	044H
	DB	048H
	DB	0ffH
	DB	048H
	DB	044H
	DB	048H
	DB	0ffH
	DB	048H
	DB	044H
	DB	048H
	DB	0ffH
	DB	048H
	DB	044H
	DB	048H
	DB	0ffH
	DB	048H
	DB	048H
	DB	048H
	DB	0ffH
	DB	048H
	DB	044H
	DB	048H
	DB	0ffH
	DB	048H
	DB	044H
	DB	048H
	DB	0ffH
	DB	048H
	DB	044H
	DB	048H
	DB	0ffH
	DB	048H
	DB	044H
	DB	048H
	DB	0ffH
	DB	048H
	DB	044H
	DB	048H
	DB	0ffH
	DB	048H
	DB	044H
	DB	048H
	DB	0ffH
	DB	048H
	DB	044H
	DB	048H
	DB	0ffH
	DB	048H
	DB	048H
	DB	048H
	DB	0ffH
	DB	048H
	DB	044H
	DB	048H
	DB	0ffH
	DB	048H
	DB	044H
	DB	048H
	DB	0ffH
	DB	048H
	DB	044H
	DB	048H
	DB	0ffH
	DB	048H
	DB	044H
	DB	048H
	DB	0ffH
	DB	048H
	DB	044H
	DB	048H
	DB	0ffH
	DB	048H
	DB	044H
	DB	048H
	DB	0ffH
	DB	048H
	DB	044H
	DB	048H
	DB	0ffH
	DB	048H
	DB	048H
	DB	048H
	DB	0ffH
	DB	048H
	DB	044H
	DB	048H
	DB	0ffH
	DB	048H
	DB	044H
	DB	048H
	DB	0ffH
	DB	048H
	DB	044H
	DB	048H
	DB	0ffH
	DB	048H
	DB	044H
	DB	048H
	DB	0ffH
	DB	048H
	DB	044H
	DB	048H
	DB	0ffH
	DB	048H
	DB	044H
	DB	048H
	DB	0ffH
	DB	048H
	DB	044H
	DB	048H
	DB	0ffH
	DB	048H
	DB	048H
	DB	048H
	DB	0ffH
	DB	048H
	DB	044H
	DB	048H
	DB	0ffH
	DB	048H
	DB	044H
	DB	048H
	DB	0ffH
	DB	048H
	DB	044H
	DB	048H
	DB	0ffH
	DB	048H
	DB	044H
	DB	048H
	DB	0ffH
	DB	048H
	DB	044H
	DB	048H
	DB	0ffH
	DB	048H
	DB	044H
	DB	048H
	DB	0ffH
	DB	048H
	DB	044H
	DB	048H
	DB	0ffH
	DB	048H
	DB	048H
	DB	048H
	DB	0ffH
	DB	048H
	DB	044H
	DB	048H
	DB	0ffH
	DB	048H
	DB	044H
	DB	048H
	DB	0ffH
	DB	048H
	DB	044H
	DB	048H
	DB	0ffH
	DB	048H
	DB	044H
	DB	048H
	DB	0ffH
	DB	048H
	DB	044H
	DB	048H
	DB	0ffH
	DB	048H
	DB	044H
	DB	048H
	DB	0ffH
	DB	048H
	DB	044H
	DB	048H
	DB	0ffH
	DB	048H
	DB	048H
	DB	048H
	DB	0ffH
	DB	048H
	DB	044H
	DB	048H
	DB	0ffH
	DB	048H
	DB	044H
	DB	048H
	DB	0ffH
	DB	048H
	DB	044H
	DB	048H
	DB	0ffH
	DB	048H
	DB	044H
	DB	048H
	DB	0ffH
	DB	048H
	DB	044H
	DB	048H
	DB	0ffH
	DB	048H
	DB	044H
	DB	048H
	DB	0ffH
	DB	048H
	DB	044H
	DB	048H
	DB	0ffH
	DB	048H
	DB	048H
	DB	048H
	DB	0ffH
	DB	048H
	DB	044H
	DB	048H
	DB	0ffH
	DB	048H
	DB	044H
	DB	048H
	DB	0ffH
	DB	048H
	DB	044H
	DB	048H
	DB	0ffH
	DB	048H
	DB	044H
	DB	048H
	DB	0ffH
	DB	048H
	DB	044H
	DB	048H
	DB	0ffH
	DB	048H
	DB	044H
	DB	048H
	DB	0ffH
	DB	048H
	DB	044H
	DB	048H
	DB	0ffH
	DB	048H
	DB	048H
	DB	048H
	DB	0ffH
	DB	048H
	DB	044H
	DB	048H
	DB	0ffH
	DB	048H
	DB	044H
	DB	048H
	DB	0ffH
	DB	048H
	DB	044H
	DB	048H
	DB	0ffH
	DB	048H
	DB	044H
	DB	048H
	DB	0ffH
	DB	048H
	DB	044H
	DB	048H
	DB	0ffH
	DB	048H
	DB	044H
	DB	048H
	DB	0ffH
	DB	048H
	DB	044H
	DB	048H
	DB	0ffH
	DB	048H
	DB	048H
	DB	048H
	DB	0ffH
	DB	048H
	DB	044H
	DB	048H
	DB	0ffH
	DB	048H
	DB	044H
	DB	048H
	DB	0ffH
	DB	048H
	DB	044H
	DB	048H
	DB	0ffH
	DB	048H
	DB	044H
	DB	048H
	DB	0ffH
	DB	048H
	DB	044H
	DB	048H
	DB	0ffH
	DB	048H
	DB	044H
	DB	048H
	DB	0ffH
	DB	048H
	DB	044H
	DB	048H
	DB	0ffH
	DB	048H
	DB	048H
	DB	048H
	DB	0ffH
	DB	048H
	DB	044H
	DB	048H
	DB	0ffH
	DB	048H
	DB	044H
	DB	048H
	DB	0ffH
	DB	048H
	DB	044H
	DB	048H
	DB	0ffH
	DB	048H
	DB	044H
	DB	048H
	DB	0ffH
	DB	048H
	DB	044H
	DB	048H
	DB	0ffH
	DB	048H
	DB	044H
	DB	048H
	DB	0ffH
	DB	048H
	DB	044H
	DB	048H
	DB	0ffH
	DB	048H
	DB	048H
	DB	048H
	DB	0ffH
	DB	048H
	DB	044H
	DB	048H
	DB	0ffH
	DB	048H
	DB	044H
	DB	048H
	DB	0ffH
	DB	048H
	DB	044H
	DB	048H
	DB	0ffH
	DB	048H
	DB	044H
	DB	048H
	DB	0ffH
	DB	048H
	DB	044H
	DB	048H
	DB	0ffH
	DB	048H
	DB	044H
	DB	048H
	DB	0ffH
	DB	048H
	DB	044H
	DB	048H
	DB	0ffH
	DB	048H
	DB	048H
	DB	048H
	DB	0ffH
	DB	048H
	DB	044H
	DB	048H
	DB	0ffH
	DB	048H
	DB	044H
	DB	048H
	DB	0ffH
	DB	048H
	DB	044H
	DB	048H
	DB	0ffH
	DB	048H
	DB	044H
	DB	048H
	DB	0ffH
	DB	048H
	DB	044H
	DB	048H
	DB	0ffH
	DB	048H
	DB	044H
	DB	048H
	DB	0ffH
	DB	048H
	DB	044H
	DB	048H
	DB	0ffH
	DB	048H
	DB	048H
	DB	048H
	DB	0ffH
	DB	048H
	DB	044H
	DB	048H
	DB	0ffH
	DB	048H
	DB	044H
	DB	048H
	DB	0ffH
	DB	048H
	DB	044H
	DB	048H
	DB	0ffH
	DB	048H
	DB	044H
	DB	048H
	DB	0ffH
	DB	048H
	DB	044H
	DB	048H
	DB	0ffH
	DB	048H
	DB	044H
	DB	048H
	DB	0ffH
	DB	048H
	DB	044H
	DB	048H
	DB	0ffH
	DB	048H
	DB	048H
	DB	048H
	DB	0ffH
	DB	048H
	DB	044H
	DB	048H
	DB	0ffH
	DB	048H
	DB	044H
	DB	048H
	DB	0ffH
	DB	048H
	DB	044H
	DB	048H
	DB	0ffH
	DB	048H
	DB	044H
	DB	048H
	DB	0ffH
	DB	048H
	DB	044H
	DB	048H
	DB	0ffH
	DB	048H
	DB	044H
	DB	048H
	DB	0ffH
	DB	040H
	DB	048H
	DB	040H
	DB	0ffH
	DB	048H
	DB	044H
	DB	048H
	DB	0ffH
	DB	048H
	DB	048H
	DB	048H
	DB	0ffH
	DB	048H
	DB	048H
	DB	048H
	DB	0ffH
	DB	048H
	DB	048H
	DB	048H
	DB	0ffH
	DB	040H
	DB	044H
	DB	040H
	DB	0ffH
	DB	048H
	DB	044H
	DB	040H
	DB	0ffH
	DB	040H
	DB	040H
	DB	040H
	DB	0ffH
	DB	040H
	DB	040H
	DB	040H
	DB	0ffH
	DB	040H
	DB	040H
	DB	040H
	DB	0ffH
	DB	040H
	DB	040H
	DB	040H
	DB	0ffH
	DB	040H
	DB	044H
	DB	040H
	DB	0ffH
	DB	040H
	DB	040H
	DB	040H
	DB	0ffH
	DB	028H
	DB	024H
	DB	028H
	DB	0ffH
	DB	028H
	DB	024H
	DB	028H
	DB	0ffH
	DB	090H
	DB	094H
	DB	090H
	DB	092H
	DB	028H
	DB	024H
	DB	028H
	DB	0ffH
	DB	020H
	DB	024H
	DB	028H
	DB	0ffH
	DB	040H
	DB	040H
	DB	040H
	DB	0ffH
	DB	040H
	DB	040H
	DB	040H
	DB	0ffH
	DB	040H
	DB	044H
	DB	040H
	DB	0ffH
	DB	040H
	DB	040H
	DB	040H
	DB	0ffH
	DB	040H
	DB	040H
	DB	040H
	DB	0ffH
	DB	040H
	DB	040H
	DB	040H
	DB	0ffH
	DB	040H
	DB	040H
	DB	048H
	DB	0ffH
	DB	040H
	DB	040H
	DB	040H
	DB	0ffH
	DB	050H
	DB	04cH
	DB	050H
	DB	0ffH
	DB	048H
	DB	048H
	DB	048H
	DB	0ffH
	DB	048H
	DB	048H
	DB	048H
	DB	0ffH
	DB	048H
	DB	048H
	DB	048H
	DB	0ffH
	DB	048H
	DB	048H
	DB	048H
	DB	0ffH
	DB	048H
	DB	048H
	DB	048H
	DB	0ffH
	DB	048H
	DB	048H
	DB	048H
	DB	0ffH
	DB	048H
	DB	048H
	DB	048H
	DB	0ffH
	DB	048H
	DB	048H
	DB	048H
	DB	0ffH
	DB	048H
	DB	048H
	DB	048H
	DB	0ffH
	DB	048H
	DB	048H
	DB	048H
	DB	0ffH
	DB	048H
	DB	048H
	DB	048H
	DB	0ffH
	DB	048H
	DB	048H
	DB	048H
	DB	0ffH
	DB	048H
	DB	048H
	DB	048H
	DB	0ffH
	DB	048H
	DB	048H
	DB	048H
	DB	0ffH
	DB	048H
	DB	048H
	DB	048H
	DB	0ffH
	DB	048H
	DB	048H
	DB	048H
	DB	0ffH
	DB	048H
	DB	048H
	DB	048H
	DB	0ffH
	DB	048H
	DB	048H
	DB	048H
	DB	0ffH
	DB	048H
	DB	048H
	DB	048H
	DB	0ffH
	DB	048H
	DB	048H
	DB	048H
	DB	0ffH
	DB	048H
	DB	048H
	DB	048H
	DB	0ffH
	DB	048H
	DB	048H
	DB	048H
	DB	0ffH
	DB	048H
	DB	048H
	DB	048H
	DB	0ffH
	DB	048H
	DB	048H
	DB	048H
	DB	0ffH
	DB	048H
	DB	048H
	DB	048H
	DB	0ffH
	DB	048H
	DB	048H
	DB	048H
	DB	0ffH
	DB	048H
	DB	048H
	DB	048H
	DB	0ffH
	DB	048H
	DB	048H
	DB	048H
	DB	0ffH
	DB	048H
	DB	048H
	DB	048H
	DB	0ffH
	DB	048H
	DB	048H
	DB	048H
	DB	0ffH
	DB	048H
	DB	048H
	DB	048H
	DB	0ffH
	DB	048H
	DB	048H
	DB	048H
	DB	0ffH
	DB	048H
	DB	048H
	DB	048H
	DB	0ffH
	DB	048H
	DB	048H
	DB	048H
	DB	0ffH
	DB	048H
	DB	048H
	DB	048H
	DB	0ffH
	DB	048H
	DB	048H
	DB	048H
	DB	0ffH
	DB	048H
	DB	048H
	DB	048H
	DB	0ffH
	DB	048H
	DB	048H
	DB	048H
	DB	0ffH
	DB	048H
	DB	048H
	DB	048H
	DB	0ffH
	DB	048H
	DB	048H
	DB	048H
	DB	0ffH
	DB	048H
	DB	048H
	DB	048H
	DB	0ffH
	DB	048H
	DB	048H
	DB	048H
	DB	0ffH
	DB	048H
	DB	048H
	DB	048H
	DB	0ffH
	DB	048H
	DB	048H
	DB	048H
	DB	0ffH
	DB	048H
	DB	048H
	DB	048H
	DB	0ffH
	DB	048H
	DB	048H
	DB	048H
	DB	0ffH
	DB	048H
	DB	048H
	DB	048H
	DB	0ffH
	DB	048H
	DB	048H
	DB	048H
	DB	0ffH
	DB	048H
	DB	048H
	DB	048H
	DB	0ffH
	DB	048H
	DB	048H
	DB	048H
	DB	0ffH
	DB	048H
	DB	048H
	DB	048H
	DB	0ffH
	DB	048H
	DB	048H
	DB	048H
	DB	0ffH
	DB	048H
	DB	048H
	DB	048H
	DB	0ffH
	DB	048H
	DB	048H
	DB	048H
	DB	0ffH
	DB	048H
	DB	048H
	DB	048H
	DB	0ffH
	DB	048H
	DB	048H
	DB	048H
	DB	0ffH
	DB	048H
	DB	048H
	DB	048H
	DB	0ffH
	DB	048H
	DB	048H
	DB	048H
	DB	0ffH
	DB	048H
	DB	048H
	DB	048H
	DB	0ffH
	DB	048H
	DB	048H
	DB	048H
	DB	0ffH
	DB	048H
	DB	048H
	DB	048H
	DB	0ffH
	DB	048H
	DB	048H
	DB	048H
	DB	0ffH
	DB	048H
	DB	048H
	DB	048H
	DB	0ffH
	DB	048H
	DB	048H
	DB	048H
	DB	0ffH
	DB	048H
	DB	048H
	DB	048H
	DB	0ffH
	DB	048H
	DB	048H
	DB	048H
	DB	0ffH
	DB	048H
	DB	048H
	DB	048H
	DB	0ffH
	DB	048H
	DB	048H
	DB	048H
	DB	0ffH
	DB	048H
	DB	048H
	DB	048H
	DB	0ffH
	DB	048H
	DB	048H
	DB	048H
	DB	0ffH
	DB	048H
	DB	048H
	DB	048H
	DB	0ffH
	DB	048H
	DB	048H
	DB	048H
	DB	0ffH
	DB	048H
	DB	048H
	DB	048H
	DB	0ffH
	DB	048H
	DB	048H
	DB	048H
	DB	0ffH
	DB	048H
	DB	048H
	DB	048H
	DB	0ffH
	DB	048H
	DB	048H
	DB	048H
	DB	0ffH
	DB	048H
	DB	048H
	DB	048H
	DB	0ffH
	DB	048H
	DB	048H
	DB	048H
	DB	0ffH
	DB	048H
	DB	048H
	DB	048H
	DB	0ffH
	DB	048H
	DB	048H
	DB	048H
	DB	0ffH
	DB	048H
	DB	048H
	DB	048H
	DB	0ffH
	DB	048H
	DB	048H
	DB	048H
	DB	0ffH
	DB	048H
	DB	048H
	DB	048H
	DB	0ffH
	DB	048H
	DB	048H
	DB	048H
	DB	0ffH
	DB	048H
	DB	048H
	DB	048H
	DB	0ffH
	DB	048H
	DB	048H
	DB	048H
	DB	0ffH
	DB	048H
	DB	048H
	DB	048H
	DB	0ffH
	DB	048H
	DB	048H
	DB	048H
	DB	0ffH
	DB	048H
	DB	048H
	DB	048H
	DB	0ffH
	DB	048H
	DB	048H
	DB	048H
	DB	0ffH
	DB	048H
	DB	048H
	DB	048H
	DB	0ffH
	DB	048H
	DB	048H
	DB	048H
	DB	0ffH
	DB	048H
	DB	048H
	DB	048H
	DB	0ffH
	DB	048H
	DB	048H
	DB	048H
	DB	0ffH
	DB	048H
	DB	048H
	DB	048H
	DB	0ffH
	DB	048H
	DB	048H
	DB	048H
	DB	0ffH
	DB	048H
	DB	048H
	DB	048H
	DB	0ffH
	DB	048H
	DB	048H
	DB	048H
	DB	0ffH
	DB	048H
	DB	048H
	DB	048H
	DB	0ffH
	DB	048H
	DB	048H
	DB	048H
	DB	0ffH
	DB	048H
	DB	048H
	DB	048H
	DB	0ffH
	DB	048H
	DB	048H
	DB	048H
	DB	0ffH
	DB	048H
	DB	048H
	DB	048H
	DB	0ffH
	DB	048H
	DB	048H
	DB	048H
	DB	0ffH
	DB	048H
	DB	048H
	DB	048H
	DB	0ffH
	DB	048H
	DB	048H
	DB	048H
	DB	0ffH
	DB	048H
	DB	048H
	DB	048H
	DB	0ffH
	DB	048H
	DB	048H
	DB	048H
	DB	0ffH
	DB	048H
	DB	048H
	DB	048H
	DB	0ffH
	DB	048H
	DB	048H
	DB	048H
	DB	0ffH
	DB	048H
	DB	048H
	DB	048H
	DB	0ffH
	DB	048H
	DB	048H
	DB	048H
	DB	0ffH
	DB	048H
	DB	048H
	DB	048H
	DB	0ffH
	DB	048H
	DB	048H
	DB	048H
	DB	0ffH
	DB	048H
	DB	048H
	DB	048H
	DB	0ffH
	DB	048H
	DB	048H
	DB	048H
	DB	0ffH
	DB	048H
	DB	048H
	DB	048H
	DB	0ffH
	DB	048H
	DB	048H
	DB	048H
	DB	0ffH
	DB	048H
	DB	048H
	DB	048H
	DB	0ffH
	DB	048H
	DB	048H
	DB	048H
	DB	0ffH
	DB	048H
	DB	048H
	DB	048H
	DB	0ffH
	DB	048H
	DB	048H
	DB	048H
	DB	0ffH
	DB	048H
	DB	048H
	DB	048H
	DB	0ffH
	DB	048H
	DB	048H
	DB	048H
	DB	0ffH
	DB	048H
	DB	048H
	DB	048H
	DB	0ffH
	DB	048H
	DB	048H
	DB	048H
	DB	0ffH
	DB	048H
	DB	048H
	DB	048H
	DB	0ffH
	DB	048H
	DB	048H
	DB	048H
	DB	0ffH
	DB	048H
	DB	048H
	DB	048H
	DB	0ffH
	DB	048H
	DB	048H
	DB	048H
	DB	0ffH
	DB	048H
	DB	048H
	DB	048H
	DB	0ffH
	DB	048H
	DB	048H
	DB	048H
	DB	0ffH
	DB	048H
	DB	048H
	DB	048H
	DB	0ffH
	DB	048H
	DB	048H
	DB	048H
	DB	0ffH
	DB	048H
	DB	048H
	DB	048H
	DB	0ffH
	DB	048H
	DB	048H
	DB	048H
	DB	0ffH
	DB	048H
	DB	048H
	DB	048H
	DB	0ffH
	DB	048H
	DB	048H
	DB	048H
	DB	0ffH
	DB	048H
	DB	048H
	DB	048H
	DB	0ffH
	DB	048H
	DB	048H
	DB	048H
	DB	0ffH
	DB	048H
	DB	048H
	DB	048H
	DB	0ffH
	DB	048H
	DB	048H
	DB	048H
	DB	0ffH
	DB	048H
	DB	048H
	DB	048H
	DB	0ffH
	DB	048H
	DB	048H
	DB	048H
	DB	0ffH
	DB	048H
	DB	048H
	DB	048H
	DB	0ffH
	DB	048H
	DB	048H
	DB	048H
	DB	0ffH
	DB	048H
	DB	048H
	DB	048H
	DB	0ffH
	DB	048H
	DB	048H
	DB	048H
	DB	0ffH
	DB	048H
	DB	048H
	DB	048H
	DB	0ffH
	DB	048H
	DB	048H
	DB	048H
	DB	0ffH
	DB	048H
	DB	048H
	DB	048H
	DB	0ffH
	DB	048H
	DB	048H
	DB	048H
	DB	0ffH
	DB	048H
	DB	048H
	DB	048H
	DB	0ffH
	DB	048H
	DB	048H
	DB	048H
	DB	0ffH
	DB	048H
	DB	048H
	DB	048H
	DB	0ffH
	DB	048H
	DB	048H
	DB	048H
	DB	0ffH
	DB	048H
	DB	048H
	DB	048H
	DB	0ffH
	DB	048H
	DB	048H
	DB	048H
	DB	0ffH
	DB	048H
	DB	048H
	DB	048H
	DB	0ffH
	DB	048H
	DB	048H
	DB	048H
	DB	0ffH
	DB	048H
	DB	048H
	DB	048H
	DB	0ffH
	DB	048H
	DB	048H
	DB	048H
	DB	0ffH
	DB	048H
	DB	048H
	DB	048H
	DB	0ffH
	DB	048H
	DB	048H
	DB	048H
	DB	0ffH
	DB	048H
	DB	048H
	DB	048H
	DB	0ffH
	DB	048H
	DB	048H
	DB	048H
	DB	0ffH
	DB	048H
	DB	048H
	DB	048H
	DB	0ffH
	DB	048H
	DB	048H
	DB	048H
	DB	0ffH
	DB	048H
	DB	048H
	DB	048H
	DB	0ffH
	DB	048H
	DB	048H
	DB	048H
	DB	0ffH
	DB	048H
	DB	04cH
	DB	050H
	DB	0ffH
	DB	040H
	DB	044H
	DB	040H
	DB	0ffH
	DB	040H
	DB	044H
	DB	040H
	DB	0ffH
	DB	040H
	DB	040H
	DB	040H
	DB	0ffH
	DB	040H
	DB	040H
	DB	040H
	DB	0ffH
	DB	040H
	DB	040H
	DB	040H
	DB	0ffH
	DB	040H
	DB	040H
	DB	040H
	DB	0ffH
	DB	040H
	DB	040H
	DB	040H
	DB	0ffH
	DB	040H
	DB	040H
	DB	040H
	DB	0ffH
	DB	028H
	DB	024H
	DB	028H
	DB	0ffH
	DB	028H
	DB	024H
	DB	028H
	DB	0ffH
	DB	098H
	DB	094H
	DB	090H
	DB	096H
	DB	028H
	DB	024H
	DB	020H
	DB	0ffH
	DB	028H
	DB	024H
	DB	028H
	DB	0ffH
	DB	040H
	DB	040H
	DB	040H
	DB	0ffH
	DB	040H
	DB	044H
	DB	040H
	DB	0ffH
	DB	040H
	DB	040H
	DB	040H
	DB	0ffH
	DB	048H
	DB	040H
	DB	048H
	DB	0ffH
	DB	040H
	DB	044H
	DB	040H
	DB	0ffH
	DB	040H
	DB	040H
	DB	040H
	DB	0ffH
	DB	048H
	DB	044H
	DB	040H
	DB	0ffH
	DB	040H
	DB	044H
	DB	040H
	DB	0ffH
	DB	050H
	DB	04cH
	DB	050H
	DB	0ffH
	DB	048H
	DB	04cH
	DB	048H
	DB	0ffH
	DB	048H
	DB	048H
	DB	048H
	DB	0ffH
	DB	048H
	DB	048H
	DB	048H
	DB	0ffH
	DB	048H
	DB	048H
	DB	048H
	DB	0ffH
	DB	048H
	DB	04cH
	DB	048H
	DB	0ffH
	DB	048H
	DB	048H
	DB	048H
	DB	0ffH
	DB	048H
	DB	04cH
	DB	048H
	DB	0ffH
	DB	048H
	DB	048H
	DB	048H
	DB	0ffH
	DB	048H
	DB	04cH
	DB	048H
	DB	0ffH
	DB	048H
	DB	04cH
	DB	048H
	DB	0ffH
	DB	048H
	DB	048H
	DB	048H
	DB	0ffH
	DB	048H
	DB	04cH
	DB	048H
	DB	0ffH
	DB	048H
	DB	048H
	DB	048H
	DB	0ffH
	DB	048H
	DB	04cH
	DB	048H
	DB	0ffH
	DB	048H
	DB	048H
	DB	048H
	DB	0ffH
	DB	048H
	DB	048H
	DB	048H
	DB	0ffH
	DB	048H
	DB	048H
	DB	048H
	DB	0ffH
	DB	048H
	DB	048H
	DB	048H
	DB	0ffH
	DB	048H
	DB	048H
	DB	048H
	DB	0ffH
	DB	048H
	DB	048H
	DB	048H
	DB	0ffH
	DB	048H
	DB	048H
	DB	048H
	DB	0ffH
	DB	048H
	DB	048H
	DB	048H
	DB	0ffH
	DB	048H
	DB	048H
	DB	048H
	DB	0ffH
	DB	048H
	DB	048H
	DB	048H
	DB	0ffH
	DB	048H
	DB	048H
	DB	048H
	DB	0ffH
	DB	048H
	DB	04cH
	DB	048H
	DB	0ffH
	DB	048H
	DB	048H
	DB	048H
	DB	0ffH
	DB	048H
	DB	04cH
	DB	048H
	DB	0ffH
	DB	048H
	DB	048H
	DB	048H
	DB	0ffH
	DB	048H
	DB	048H
	DB	048H
	DB	0ffH
	DB	048H
	DB	04cH
	DB	048H
	DB	0ffH
	DB	048H
	DB	048H
	DB	048H
	DB	0ffH
	DB	048H
	DB	048H
	DB	048H
	DB	0ffH
	DB	048H
	DB	04cH
	DB	048H
	DB	0ffH
	DB	048H
	DB	048H
	DB	048H
	DB	0ffH
	DB	048H
	DB	04cH
	DB	048H
	DB	0ffH
	DB	048H
	DB	048H
	DB	048H
	DB	0ffH
	DB	048H
	DB	048H
	DB	048H
	DB	0ffH
	DB	048H
	DB	04cH
	DB	048H
	DB	0ffH
	DB	048H
	DB	048H
	DB	048H
	DB	0ffH
	DB	048H
	DB	048H
	DB	048H
	DB	0ffH
	DB	048H
	DB	04cH
	DB	048H
	DB	0ffH
	DB	048H
	DB	048H
	DB	048H
	DB	0ffH
	DB	048H
	DB	04cH
	DB	048H
	DB	0ffH
	DB	048H
	DB	048H
	DB	048H
	DB	0ffH
	DB	048H
	DB	048H
	DB	048H
	DB	0ffH
	DB	048H
	DB	04cH
	DB	048H
	DB	0ffH
	DB	048H
	DB	048H
	DB	048H
	DB	0ffH
	DB	048H
	DB	048H
	DB	048H
	DB	0ffH
	DB	048H
	DB	04cH
	DB	048H
	DB	0ffH
	DB	048H
	DB	048H
	DB	048H
	DB	0ffH
	DB	048H
	DB	04cH
	DB	048H
	DB	0ffH
	DB	048H
	DB	048H
	DB	048H
	DB	0ffH
	DB	048H
	DB	048H
	DB	048H
	DB	0ffH
	DB	048H
	DB	04cH
	DB	048H
	DB	0ffH
	DB	048H
	DB	048H
	DB	048H
	DB	0ffH
	DB	048H
	DB	048H
	DB	048H
	DB	0ffH
	DB	048H
	DB	04cH
	DB	048H
	DB	0ffH
	DB	048H
	DB	048H
	DB	048H
	DB	0ffH
	DB	048H
	DB	04cH
	DB	048H
	DB	0ffH
	DB	048H
	DB	048H
	DB	048H
	DB	0ffH
	DB	048H
	DB	048H
	DB	048H
	DB	0ffH
	DB	048H
	DB	04cH
	DB	048H
	DB	0ffH
	DB	048H
	DB	048H
	DB	048H
	DB	0ffH
	DB	048H
	DB	048H
	DB	048H
	DB	0ffH
	DB	048H
	DB	04cH
	DB	048H
	DB	0ffH
	DB	048H
	DB	048H
	DB	048H
	DB	0ffH
	DB	048H
	DB	04cH
	DB	048H
	DB	0ffH
	DB	048H
	DB	048H
	DB	048H
	DB	0ffH
	DB	048H
	DB	048H
	DB	048H
	DB	0ffH
	DB	048H
	DB	04cH
	DB	048H
	DB	0ffH
	DB	048H
	DB	048H
	DB	048H
	DB	0ffH
	DB	048H
	DB	048H
	DB	048H
	DB	0ffH
	DB	048H
	DB	04cH
	DB	048H
	DB	0ffH
	DB	048H
	DB	048H
	DB	048H
	DB	0ffH
	DB	048H
	DB	04cH
	DB	048H
	DB	0ffH
	DB	048H
	DB	048H
	DB	048H
	DB	0ffH
	DB	048H
	DB	048H
	DB	048H
	DB	0ffH
	DB	048H
	DB	04cH
	DB	048H
	DB	0ffH
	DB	048H
	DB	048H
	DB	048H
	DB	0ffH
	DB	048H
	DB	048H
	DB	048H
	DB	0ffH
	DB	048H
	DB	04cH
	DB	048H
	DB	0ffH
	DB	048H
	DB	048H
	DB	048H
	DB	0ffH
	DB	048H
	DB	04cH
	DB	048H
	DB	0ffH
	DB	048H
	DB	048H
	DB	048H
	DB	0ffH
	DB	048H
	DB	048H
	DB	048H
	DB	0ffH
	DB	048H
	DB	04cH
	DB	048H
	DB	0ffH
	DB	048H
	DB	048H
	DB	048H
	DB	0ffH
	DB	048H
	DB	048H
	DB	048H
	DB	0ffH
	DB	048H
	DB	04cH
	DB	048H
	DB	0ffH
	DB	048H
	DB	048H
	DB	048H
	DB	0ffH
	DB	048H
	DB	04cH
	DB	048H
	DB	0ffH
	DB	048H
	DB	048H
	DB	048H
	DB	0ffH
	DB	048H
	DB	048H
	DB	048H
	DB	0ffH
	DB	048H
	DB	04cH
	DB	048H
	DB	0ffH
	DB	048H
	DB	048H
	DB	048H
	DB	0ffH
	DB	048H
	DB	048H
	DB	048H
	DB	0ffH
	DB	048H
	DB	04cH
	DB	048H
	DB	0ffH
	DB	048H
	DB	048H
	DB	048H
	DB	0ffH
	DB	048H
	DB	04cH
	DB	048H
	DB	0ffH
	DB	048H
	DB	048H
	DB	048H
	DB	0ffH
	DB	048H
	DB	048H
	DB	048H
	DB	0ffH
	DB	048H
	DB	04cH
	DB	048H
	DB	0ffH
	DB	048H
	DB	048H
	DB	048H
	DB	0ffH
	DB	048H
	DB	048H
	DB	048H
	DB	0ffH
	DB	048H
	DB	04cH
	DB	048H
	DB	0ffH
	DB	048H
	DB	048H
	DB	048H
	DB	0ffH
	DB	048H
	DB	04cH
	DB	048H
	DB	0ffH
	DB	048H
	DB	048H
	DB	048H
	DB	0ffH
	DB	048H
	DB	048H
	DB	048H
	DB	0ffH
	DB	048H
	DB	04cH
	DB	048H
	DB	0ffH
	DB	048H
	DB	048H
	DB	048H
	DB	0ffH
	DB	048H
	DB	048H
	DB	048H
	DB	0ffH
	DB	048H
	DB	04cH
	DB	048H
	DB	0ffH
	DB	048H
	DB	048H
	DB	048H
	DB	0ffH
	DB	048H
	DB	04cH
	DB	048H
	DB	0ffH
	DB	048H
	DB	048H
	DB	048H
	DB	0ffH
	DB	048H
	DB	048H
	DB	048H
	DB	0ffH
	DB	048H
	DB	04cH
	DB	048H
	DB	0ffH
	DB	048H
	DB	048H
	DB	048H
	DB	0ffH
	DB	048H
	DB	048H
	DB	048H
	DB	0ffH
	DB	048H
	DB	04cH
	DB	048H
	DB	0ffH
	DB	048H
	DB	048H
	DB	048H
	DB	0ffH
	DB	048H
	DB	04cH
	DB	048H
	DB	0ffH
	DB	048H
	DB	048H
	DB	048H
	DB	0ffH
	DB	048H
	DB	048H
	DB	048H
	DB	0ffH
	DB	048H
	DB	04cH
	DB	048H
	DB	0ffH
	DB	048H
	DB	048H
	DB	048H
	DB	0ffH
	DB	048H
	DB	048H
	DB	048H
	DB	0ffH
	DB	048H
	DB	04cH
	DB	048H
	DB	0ffH
	DB	048H
	DB	048H
	DB	048H
	DB	0ffH
	DB	048H
	DB	04cH
	DB	048H
	DB	0ffH
	DB	048H
	DB	048H
	DB	048H
	DB	0ffH
	DB	048H
	DB	048H
	DB	048H
	DB	0ffH
	DB	048H
	DB	04cH
	DB	048H
	DB	0ffH
	DB	048H
	DB	048H
	DB	048H
	DB	0ffH
	DB	048H
	DB	048H
	DB	048H
	DB	0ffH
	DB	048H
	DB	04cH
	DB	048H
	DB	0ffH
	DB	048H
	DB	048H
	DB	048H
	DB	0ffH
	DB	048H
	DB	04cH
	DB	048H
	DB	0ffH
	DB	048H
	DB	048H
	DB	048H
	DB	0ffH
	DB	048H
	DB	048H
	DB	048H
	DB	0ffH
	DB	048H
	DB	04cH
	DB	048H
	DB	0ffH
	DB	048H
	DB	048H
	DB	048H
	DB	0ffH
	DB	048H
	DB	048H
	DB	048H
	DB	0ffH
	DB	048H
	DB	04cH
	DB	048H
	DB	0ffH
	DB	048H
	DB	048H
	DB	048H
	DB	0ffH
	DB	048H
	DB	04cH
	DB	048H
	DB	0ffH
	DB	048H
	DB	048H
	DB	048H
	DB	0ffH
	DB	048H
	DB	048H
	DB	048H
	DB	0ffH
	DB	048H
	DB	04cH
	DB	048H
	DB	0ffH
	DB	048H
	DB	048H
	DB	048H
	DB	0ffH
	DB	048H
	DB	048H
	DB	048H
	DB	0ffH
	DB	048H
	DB	04cH
	DB	048H
	DB	0ffH
	DB	048H
	DB	048H
	DB	048H
	DB	0ffH
	DB	048H
	DB	04cH
	DB	048H
	DB	0ffH
	DB	048H
	DB	048H
	DB	048H
	DB	0ffH
	DB	048H
	DB	048H
	DB	048H
	DB	0ffH
	DB	048H
	DB	04cH
	DB	048H
	DB	0ffH
	DB	048H
	DB	048H
	DB	048H
	DB	0ffH
	DB	048H
	DB	048H
	DB	048H
	DB	0ffH
	DB	048H
	DB	04cH
	DB	048H
	DB	0ffH
	DB	048H
	DB	048H
	DB	048H
	DB	0ffH
	DB	048H
	DB	04cH
	DB	048H
	DB	0ffH
	DB	048H
	DB	048H
	DB	048H
	DB	0ffH
	DB	048H
	DB	048H
	DB	048H
	DB	0ffH
	DB	048H
	DB	048H
	DB	048H
	DB	0ffH
	DB	048H
	DB	048H
	DB	048H
	DB	0ffH
	DB	048H
	DB	048H
	DB	048H
	DB	0ffH
	DB	048H
	DB	04cH
	DB	048H
	DB	0ffH
	DB	050H
	DB	04cH
	DB	050H
	DB	0ffH
	DB	040H
	DB	040H
	DB	040H
	DB	0ffH
	DB	040H
	DB	044H
	DB	048H
	DB	0ffH
	DB	040H
	DB	040H
	DB	040H
	DB	0ffH
	DB	048H
	DB	040H
	DB	040H
	DB	0ffH
	DB	040H
	DB	044H
	DB	048H
	DB	0ffH
	DB	040H
	DB	040H
	DB	040H
	DB	0ffH
	DB	040H
	DB	040H
	DB	040H
	DB	0ffH
	DB	040H
	DB	040H
	DB	040H
	DB	0ffH
	DB	028H
	DB	028H
	DB	028H
	DB	0ffH
	DB	020H
	DB	024H
	DB	020H
	DB	0ffH
	DB	090H
	DB	094H
	DB	090H
	DB	092H
	DB	028H
	DB	024H
	DB	028H
	DB	0ffH
	DB	028H
	DB	024H
	DB	020H
	DB	0ffH
	DB	040H
	DB	040H
	DB	040H
	DB	0ffH
	DB	040H
	DB	040H
	DB	040H
	DB	0ffH
	DB	040H
	DB	040H
	DB	040H
	DB	0ffH
	DB	040H
	DB	040H
	DB	040H
	DB	0ffH
	DB	040H
	DB	040H
	DB	040H
	DB	0ffH
	DB	040H
	DB	040H
	DB	040H
	DB	0ffH
	DB	040H
	DB	040H
	DB	040H
	DB	0ffH
	DB	040H
	DB	040H
	DB	040H
	DB	0ffH
	DB	050H
	DB	050H
	DB	050H
	DB	0ffH
	DB	048H
	DB	04cH
	DB	048H
	DB	0ffH
	DB	048H
	DB	04cH
	DB	048H
	DB	0ffH
	DB	048H
	DB	04cH
	DB	048H
	DB	0ffH
	DB	048H
	DB	04cH
	DB	048H
	DB	0ffH
	DB	048H
	DB	048H
	DB	048H
	DB	0ffH
	DB	048H
	DB	04cH
	DB	048H
	DB	0ffH
	DB	048H
	DB	04cH
	DB	048H
	DB	0ffH
	DB	048H
	DB	048H
	DB	048H
	DB	0ffH
	DB	048H
	DB	04cH
	DB	048H
	DB	0ffH
	DB	048H
	DB	048H
	DB	048H
	DB	0ffH
	DB	048H
	DB	04cH
	DB	048H
	DB	0ffH
	DB	048H
	DB	04cH
	DB	048H
	DB	0ffH
	DB	048H
	DB	048H
	DB	048H
	DB	0ffH
	DB	048H
	DB	04cH
	DB	048H
	DB	0ffH
	DB	048H
	DB	04cH
	DB	048H
	DB	0ffH
	DB	048H
	DB	04cH
	DB	048H
	DB	0ffH
	DB	048H
	DB	04cH
	DB	048H
	DB	0ffH
	DB	048H
	DB	04cH
	DB	048H
	DB	0ffH
	DB	048H
	DB	04cH
	DB	048H
	DB	0ffH
	DB	048H
	DB	04cH
	DB	048H
	DB	0ffH
	DB	048H
	DB	04cH
	DB	048H
	DB	0ffH
	DB	048H
	DB	04cH
	DB	048H
	DB	0ffH
	DB	048H
	DB	04cH
	DB	048H
	DB	0ffH
	DB	048H
	DB	04cH
	DB	048H
	DB	0ffH
	DB	048H
	DB	04cH
	DB	048H
	DB	0ffH
	DB	048H
	DB	048H
	DB	048H
	DB	0ffH
	DB	048H
	DB	04cH
	DB	048H
	DB	0ffH
	DB	048H
	DB	04cH
	DB	048H
	DB	0ffH
	DB	048H
	DB	04cH
	DB	048H
	DB	0ffH
	DB	048H
	DB	04cH
	DB	048H
	DB	0ffH
	DB	048H
	DB	048H
	DB	048H
	DB	0ffH
	DB	048H
	DB	04cH
	DB	048H
	DB	0ffH
	DB	048H
	DB	04cH
	DB	048H
	DB	0ffH
	DB	048H
	DB	048H
	DB	048H
	DB	0ffH
	DB	048H
	DB	04cH
	DB	048H
	DB	0ffH
	DB	048H
	DB	04cH
	DB	048H
	DB	0ffH
	DB	048H
	DB	04cH
	DB	048H
	DB	0ffH
	DB	048H
	DB	04cH
	DB	048H
	DB	0ffH
	DB	048H
	DB	048H
	DB	048H
	DB	0ffH
	DB	048H
	DB	04cH
	DB	048H
	DB	0ffH
	DB	048H
	DB	04cH
	DB	048H
	DB	0ffH
	DB	048H
	DB	048H
	DB	048H
	DB	0ffH
	DB	048H
	DB	04cH
	DB	048H
	DB	0ffH
	DB	048H
	DB	04cH
	DB	048H
	DB	0ffH
	DB	048H
	DB	04cH
	DB	048H
	DB	0ffH
	DB	048H
	DB	04cH
	DB	048H
	DB	0ffH
	DB	048H
	DB	048H
	DB	048H
	DB	0ffH
	DB	048H
	DB	04cH
	DB	048H
	DB	0ffH
	DB	048H
	DB	04cH
	DB	048H
	DB	0ffH
	DB	048H
	DB	048H
	DB	048H
	DB	0ffH
	DB	048H
	DB	04cH
	DB	048H
	DB	0ffH
	DB	048H
	DB	04cH
	DB	048H
	DB	0ffH
	DB	048H
	DB	04cH
	DB	048H
	DB	0ffH
	DB	048H
	DB	04cH
	DB	048H
	DB	0ffH
	DB	048H
	DB	048H
	DB	048H
	DB	0ffH
	DB	048H
	DB	04cH
	DB	048H
	DB	0ffH
	DB	048H
	DB	04cH
	DB	048H
	DB	0ffH
	DB	048H
	DB	048H
	DB	048H
	DB	0ffH
	DB	048H
	DB	04cH
	DB	048H
	DB	0ffH
	DB	048H
	DB	04cH
	DB	048H
	DB	0ffH
	DB	048H
	DB	04cH
	DB	048H
	DB	0ffH
	DB	048H
	DB	04cH
	DB	048H
	DB	0ffH
	DB	048H
	DB	048H
	DB	048H
	DB	0ffH
	DB	048H
	DB	04cH
	DB	048H
	DB	0ffH
	DB	048H
	DB	04cH
	DB	048H
	DB	0ffH
	DB	048H
	DB	048H
	DB	048H
	DB	0ffH
	DB	048H
	DB	04cH
	DB	048H
	DB	0ffH
	DB	048H
	DB	04cH
	DB	048H
	DB	0ffH
	DB	048H
	DB	04cH
	DB	048H
	DB	0ffH
	DB	048H
	DB	04cH
	DB	048H
	DB	0ffH
	DB	048H
	DB	048H
	DB	048H
	DB	0ffH
	DB	048H
	DB	04cH
	DB	048H
	DB	0ffH
	DB	048H
	DB	04cH
	DB	048H
	DB	0ffH
	DB	048H
	DB	048H
	DB	048H
	DB	0ffH
	DB	048H
	DB	04cH
	DB	048H
	DB	0ffH
	DB	048H
	DB	04cH
	DB	048H
	DB	0ffH
	DB	048H
	DB	04cH
	DB	048H
	DB	0ffH
	DB	048H
	DB	04cH
	DB	048H
	DB	0ffH
	DB	048H
	DB	048H
	DB	048H
	DB	0ffH
	DB	048H
	DB	04cH
	DB	048H
	DB	0ffH
	DB	048H
	DB	04cH
	DB	048H
	DB	0ffH
	DB	048H
	DB	048H
	DB	048H
	DB	0ffH
	DB	048H
	DB	04cH
	DB	048H
	DB	0ffH
	DB	048H
	DB	04cH
	DB	048H
	DB	0ffH
	DB	048H
	DB	04cH
	DB	048H
	DB	0ffH
	DB	048H
	DB	04cH
	DB	048H
	DB	0ffH
	DB	048H
	DB	048H
	DB	048H
	DB	0ffH
	DB	048H
	DB	04cH
	DB	048H
	DB	0ffH
	DB	048H
	DB	04cH
	DB	048H
	DB	0ffH
	DB	048H
	DB	048H
	DB	048H
	DB	0ffH
	DB	048H
	DB	04cH
	DB	048H
	DB	0ffH
	DB	048H
	DB	04cH
	DB	048H
	DB	0ffH
	DB	048H
	DB	04cH
	DB	048H
	DB	0ffH
	DB	048H
	DB	04cH
	DB	048H
	DB	0ffH
	DB	048H
	DB	048H
	DB	048H
	DB	0ffH
	DB	048H
	DB	04cH
	DB	048H
	DB	0ffH
	DB	048H
	DB	04cH
	DB	048H
	DB	0ffH
	DB	048H
	DB	048H
	DB	048H
	DB	0ffH
	DB	048H
	DB	04cH
	DB	048H
	DB	0ffH
	DB	048H
	DB	04cH
	DB	048H
	DB	0ffH
	DB	048H
	DB	04cH
	DB	048H
	DB	0ffH
	DB	048H
	DB	04cH
	DB	048H
	DB	0ffH
	DB	048H
	DB	048H
	DB	048H
	DB	0ffH
	DB	048H
	DB	04cH
	DB	048H
	DB	0ffH
	DB	048H
	DB	04cH
	DB	048H
	DB	0ffH
	DB	048H
	DB	048H
	DB	048H
	DB	0ffH
	DB	048H
	DB	04cH
	DB	048H
	DB	0ffH
	DB	048H
	DB	04cH
	DB	048H
	DB	0ffH
	DB	048H
	DB	04cH
	DB	048H
	DB	0ffH
	DB	048H
	DB	04cH
	DB	048H
	DB	0ffH
	DB	048H
	DB	048H
	DB	048H
	DB	0ffH
	DB	048H
	DB	04cH
	DB	048H
	DB	0ffH
	DB	048H
	DB	04cH
	DB	048H
	DB	0ffH
	DB	048H
	DB	048H
	DB	048H
	DB	0ffH
	DB	048H
	DB	04cH
	DB	048H
	DB	0ffH
	DB	048H
	DB	04cH
	DB	048H
	DB	0ffH
	DB	048H
	DB	04cH
	DB	048H
	DB	0ffH
	DB	048H
	DB	04cH
	DB	048H
	DB	0ffH
	DB	048H
	DB	048H
	DB	048H
	DB	0ffH
	DB	048H
	DB	04cH
	DB	048H
	DB	0ffH
	DB	048H
	DB	04cH
	DB	048H
	DB	0ffH
	DB	048H
	DB	048H
	DB	048H
	DB	0ffH
	DB	048H
	DB	04cH
	DB	048H
	DB	0ffH
	DB	048H
	DB	04cH
	DB	048H
	DB	0ffH
	DB	048H
	DB	04cH
	DB	048H
	DB	0ffH
	DB	048H
	DB	04cH
	DB	048H
	DB	0ffH
	DB	048H
	DB	048H
	DB	048H
	DB	0ffH
	DB	048H
	DB	04cH
	DB	048H
	DB	0ffH
	DB	048H
	DB	04cH
	DB	048H
	DB	0ffH
	DB	048H
	DB	048H
	DB	048H
	DB	0ffH
	DB	048H
	DB	04cH
	DB	048H
	DB	0ffH
	DB	048H
	DB	04cH
	DB	048H
	DB	0ffH
	DB	048H
	DB	04cH
	DB	048H
	DB	0ffH
	DB	048H
	DB	04cH
	DB	048H
	DB	0ffH
	DB	048H
	DB	048H
	DB	048H
	DB	0ffH
	DB	048H
	DB	04cH
	DB	048H
	DB	0ffH
	DB	048H
	DB	04cH
	DB	048H
	DB	0ffH
	DB	048H
	DB	048H
	DB	048H
	DB	0ffH
	DB	048H
	DB	04cH
	DB	048H
	DB	0ffH
	DB	048H
	DB	04cH
	DB	048H
	DB	0ffH
	DB	048H
	DB	04cH
	DB	048H
	DB	0ffH
	DB	048H
	DB	04cH
	DB	048H
	DB	0ffH
	DB	048H
	DB	048H
	DB	048H
	DB	0ffH
	DB	048H
	DB	04cH
	DB	048H
	DB	0ffH
	DB	048H
	DB	04cH
	DB	048H
	DB	0ffH
	DB	048H
	DB	048H
	DB	048H
	DB	0ffH
	DB	048H
	DB	04cH
	DB	048H
	DB	0ffH
	DB	048H
	DB	04cH
	DB	048H
	DB	0ffH
	DB	048H
	DB	04cH
	DB	048H
	DB	0ffH
	DB	048H
	DB	04cH
	DB	048H
	DB	0ffH
	DB	048H
	DB	048H
	DB	048H
	DB	0ffH
	DB	048H
	DB	04cH
	DB	048H
	DB	0ffH
	DB	048H
	DB	04cH
	DB	048H
	DB	0ffH
	DB	048H
	DB	048H
	DB	048H
	DB	0ffH
	DB	048H
	DB	04cH
	DB	048H
	DB	0ffH
	DB	048H
	DB	04cH
	DB	048H
	DB	0ffH
	DB	048H
	DB	04cH
	DB	048H
	DB	0ffH
	DB	048H
	DB	04cH
	DB	048H
	DB	0ffH
	DB	048H
	DB	048H
	DB	048H
	DB	0ffH
	DB	048H
	DB	04cH
	DB	048H
	DB	0ffH
	DB	048H
	DB	04cH
	DB	048H
	DB	0ffH
	DB	048H
	DB	048H
	DB	048H
	DB	0ffH
	DB	048H
	DB	04cH
	DB	048H
	DB	0ffH
	DB	048H
	DB	04cH
	DB	048H
	DB	0ffH
	DB	048H
	DB	04cH
	DB	048H
	DB	0ffH
	DB	048H
	DB	04cH
	DB	048H
	DB	0ffH
	DB	048H
	DB	04cH
	DB	048H
	DB	0ffH
	DB	048H
	DB	04cH
	DB	048H
	DB	0ffH
	DB	048H
	DB	04cH
	DB	048H
	DB	0ffH
	DB	048H
	DB	04cH
	DB	048H
	DB	0ffH
	DB	050H
	DB	04cH
	DB	050H
	DB	0ffH
	DB	040H
	DB	040H
	DB	040H
	DB	0ffH
	DB	040H
	DB	040H
	DB	040H
	DB	0ffH
	DB	040H
	DB	040H
	DB	040H
	DB	0ffH
	DB	040H
	DB	040H
	DB	040H
	DB	0ffH
	DB	040H
	DB	040H
	DB	040H
	DB	0ffH
	DB	040H
	DB	040H
	DB	040H
	DB	0ffH
	DB	040H
	DB	040H
	DB	040H
	DB	0ffH
	DB	040H
	DB	040H
	DB	040H
	DB	0ffH
	DB	028H
	DB	024H
	DB	028H
	DB	0ffH
	DB	028H
	DB	024H
	DB	028H
	DB	0ffH
	DB	090H
	DB	094H
	DB	090H
	DB	092H
	DB	020H
	DB	024H
	DB	028H
	DB	0ffH
	DB	028H
	DB	024H
	DB	028H
	DB	0ffH
	DB	040H
	DB	040H
	DB	040H
	DB	0ffH
	DB	040H
	DB	040H
	DB	040H
	DB	0ffH
	DB	040H
	DB	040H
	DB	040H
	DB	0ffH
	DB	040H
	DB	040H
	DB	040H
	DB	0ffH
	DB	040H
	DB	040H
	DB	040H
	DB	0ffH
	DB	040H
	DB	040H
	DB	040H
	DB	0ffH
	DB	040H
	DB	040H
	DB	040H
	DB	0ffH
	DB	040H
	DB	040H
	DB	040H
	DB	0ffH
	DB	050H
	DB	050H
	DB	050H
	DB	0ffH
	DB	050H
	DB	04cH
	DB	050H
	DB	0ffH
	DB	050H
	DB	04cH
	DB	050H
	DB	0ffH
	DB	050H
	DB	04cH
	DB	048H
	DB	0ffH
	DB	050H
	DB	04cH
	DB	050H
	DB	0ffH
	DB	048H
	DB	04cH
	DB	050H
	DB	0ffH
	DB	050H
	DB	04cH
	DB	048H
	DB	0ffH
	DB	050H
	DB	04cH
	DB	050H
	DB	0ffH
	DB	048H
	DB	04cH
	DB	050H
	DB	0ffH
	DB	048H
	DB	04cH
	DB	048H
	DB	0ffH
	DB	050H
	DB	04cH
	DB	050H
	DB	0ffH
	DB	048H
	DB	04cH
	DB	050H
	DB	0ffH
	DB	050H
	DB	04cH
	DB	048H
	DB	0ffH
	DB	050H
	DB	04cH
	DB	050H
	DB	0ffH
	DB	048H
	DB	04cH
	DB	050H
	DB	0ffH
	DB	050H
	DB	04cH
	DB	048H
	DB	0ffH
	DB	050H
	DB	04cH
	DB	050H
	DB	0ffH
	DB	048H
	DB	04cH
	DB	050H
	DB	0ffH
	DB	050H
	DB	04cH
	DB	048H
	DB	0ffH
	DB	050H
	DB	04cH
	DB	050H
	DB	0ffH
	DB	048H
	DB	04cH
	DB	050H
	DB	0ffH
	DB	050H
	DB	04cH
	DB	048H
	DB	0ffH
	DB	050H
	DB	04cH
	DB	050H
	DB	0ffH
	DB	048H
	DB	04cH
	DB	050H
	DB	0ffH
	DB	050H
	DB	04cH
	DB	048H
	DB	0ffH
	DB	050H
	DB	04cH
	DB	050H
	DB	0ffH
	DB	048H
	DB	04cH
	DB	050H
	DB	0ffH
	DB	050H
	DB	04cH
	DB	048H
	DB	0ffH
	DB	050H
	DB	04cH
	DB	050H
	DB	0ffH
	DB	048H
	DB	04cH
	DB	050H
	DB	0ffH
	DB	050H
	DB	04cH
	DB	048H
	DB	0ffH
	DB	050H
	DB	04cH
	DB	050H
	DB	0ffH
	DB	048H
	DB	04cH
	DB	050H
	DB	0ffH
	DB	050H
	DB	04cH
	DB	048H
	DB	0ffH
	DB	050H
	DB	04cH
	DB	050H
	DB	0ffH
	DB	048H
	DB	04cH
	DB	050H
	DB	0ffH
	DB	050H
	DB	04cH
	DB	048H
	DB	0ffH
	DB	050H
	DB	04cH
	DB	050H
	DB	0ffH
	DB	048H
	DB	04cH
	DB	050H
	DB	0ffH
	DB	050H
	DB	04cH
	DB	048H
	DB	0ffH
	DB	050H
	DB	04cH
	DB	050H
	DB	0ffH
	DB	048H
	DB	04cH
	DB	050H
	DB	0ffH
	DB	050H
	DB	04cH
	DB	048H
	DB	0ffH
	DB	050H
	DB	04cH
	DB	050H
	DB	0ffH
	DB	048H
	DB	04cH
	DB	050H
	DB	0ffH
	DB	050H
	DB	04cH
	DB	048H
	DB	0ffH
	DB	050H
	DB	04cH
	DB	050H
	DB	0ffH
	DB	048H
	DB	04cH
	DB	050H
	DB	0ffH
	DB	050H
	DB	04cH
	DB	048H
	DB	0ffH
	DB	050H
	DB	04cH
	DB	050H
	DB	0ffH
	DB	048H
	DB	04cH
	DB	050H
	DB	0ffH
	DB	050H
	DB	04cH
	DB	048H
	DB	0ffH
	DB	050H
	DB	04cH
	DB	050H
	DB	0ffH
	DB	048H
	DB	04cH
	DB	050H
	DB	0ffH
	DB	050H
	DB	04cH
	DB	048H
	DB	0ffH
	DB	050H
	DB	04cH
	DB	050H
	DB	0ffH
	DB	048H
	DB	04cH
	DB	050H
	DB	0ffH
	DB	050H
	DB	04cH
	DB	048H
	DB	0ffH
	DB	050H
	DB	04cH
	DB	050H
	DB	0ffH
	DB	048H
	DB	04cH
	DB	050H
	DB	0ffH
	DB	050H
	DB	04cH
	DB	048H
	DB	0ffH
	DB	050H
	DB	04cH
	DB	050H
	DB	0ffH
	DB	048H
	DB	04cH
	DB	050H
	DB	0ffH
	DB	050H
	DB	04cH
	DB	048H
	DB	0ffH
	DB	050H
	DB	04cH
	DB	050H
	DB	0ffH
	DB	048H
	DB	04cH
	DB	050H
	DB	0ffH
	DB	050H
	DB	04cH
	DB	048H
	DB	0ffH
	DB	050H
	DB	04cH
	DB	050H
	DB	0ffH
	DB	048H
	DB	04cH
	DB	050H
	DB	0ffH
	DB	050H
	DB	04cH
	DB	048H
	DB	0ffH
	DB	050H
	DB	04cH
	DB	050H
	DB	0ffH
	DB	048H
	DB	04cH
	DB	050H
	DB	0ffH
	DB	050H
	DB	04cH
	DB	048H
	DB	0ffH
	DB	050H
	DB	04cH
	DB	050H
	DB	0ffH
	DB	048H
	DB	04cH
	DB	050H
	DB	0ffH
	DB	050H
	DB	04cH
	DB	048H
	DB	0ffH
	DB	050H
	DB	04cH
	DB	050H
	DB	0ffH
	DB	048H
	DB	04cH
	DB	050H
	DB	0ffH
	DB	050H
	DB	04cH
	DB	048H
	DB	0ffH
	DB	050H
	DB	04cH
	DB	050H
	DB	0ffH
	DB	048H
	DB	04cH
	DB	050H
	DB	0ffH
	DB	050H
	DB	04cH
	DB	048H
	DB	0ffH
	DB	050H
	DB	04cH
	DB	050H
	DB	0ffH
	DB	048H
	DB	04cH
	DB	050H
	DB	0ffH
	DB	050H
	DB	04cH
	DB	048H
	DB	0ffH
	DB	050H
	DB	04cH
	DB	050H
	DB	0ffH
	DB	048H
	DB	04cH
	DB	050H
	DB	0ffH
	DB	050H
	DB	04cH
	DB	048H
	DB	0ffH
	DB	050H
	DB	04cH
	DB	050H
	DB	0ffH
	DB	048H
	DB	04cH
	DB	050H
	DB	0ffH
	DB	050H
	DB	04cH
	DB	048H
	DB	0ffH
	DB	050H
	DB	04cH
	DB	050H
	DB	0ffH
	DB	048H
	DB	04cH
	DB	050H
	DB	0ffH
	DB	050H
	DB	04cH
	DB	048H
	DB	0ffH
	DB	050H
	DB	04cH
	DB	050H
	DB	0ffH
	DB	048H
	DB	04cH
	DB	050H
	DB	0ffH
	DB	050H
	DB	04cH
	DB	048H
	DB	0ffH
	DB	050H
	DB	04cH
	DB	050H
	DB	0ffH
	DB	048H
	DB	04cH
	DB	050H
	DB	0ffH
	DB	050H
	DB	04cH
	DB	048H
	DB	0ffH
	DB	050H
	DB	04cH
	DB	050H
	DB	0ffH
	DB	048H
	DB	04cH
	DB	050H
	DB	0ffH
	DB	050H
	DB	04cH
	DB	048H
	DB	0ffH
	DB	050H
	DB	04cH
	DB	050H
	DB	0ffH
	DB	048H
	DB	04cH
	DB	050H
	DB	0ffH
	DB	050H
	DB	04cH
	DB	048H
	DB	0ffH
	DB	050H
	DB	04cH
	DB	050H
	DB	0ffH
	DB	048H
	DB	04cH
	DB	050H
	DB	0ffH
	DB	050H
	DB	04cH
	DB	048H
	DB	0ffH
	DB	050H
	DB	04cH
	DB	050H
	DB	0ffH
	DB	048H
	DB	04cH
	DB	050H
	DB	0ffH
	DB	050H
	DB	04cH
	DB	048H
	DB	0ffH
	DB	050H
	DB	04cH
	DB	050H
	DB	0ffH
	DB	048H
	DB	04cH
	DB	050H
	DB	0ffH
	DB	050H
	DB	04cH
	DB	048H
	DB	0ffH
	DB	050H
	DB	04cH
	DB	050H
	DB	0ffH
	DB	048H
	DB	04cH
	DB	050H
	DB	0ffH
	DB	050H
	DB	04cH
	DB	048H
	DB	0ffH
	DB	050H
	DB	04cH
	DB	050H
	DB	0ffH
	DB	048H
	DB	04cH
	DB	050H
	DB	0ffH
	DB	050H
	DB	04cH
	DB	048H
	DB	0ffH
	DB	050H
	DB	04cH
	DB	050H
	DB	0ffH
	DB	048H
	DB	04cH
	DB	050H
	DB	0ffH
	DB	050H
	DB	04cH
	DB	048H
	DB	0ffH
	DB	050H
	DB	04cH
	DB	050H
	DB	0ffH
	DB	048H
	DB	04cH
	DB	050H
	DB	0ffH
	DB	050H
	DB	04cH
	DB	048H
	DB	0ffH
	DB	050H
	DB	04cH
	DB	050H
	DB	0ffH
	DB	048H
	DB	04cH
	DB	050H
	DB	0ffH
	DB	050H
	DB	04cH
	DB	048H
	DB	0ffH
	DB	050H
	DB	04cH
	DB	050H
	DB	0ffH
	DB	048H
	DB	04cH
	DB	050H
	DB	0ffH
	DB	050H
	DB	04cH
	DB	048H
	DB	0ffH
	DB	050H
	DB	04cH
	DB	050H
	DB	0ffH
	DB	048H
	DB	04cH
	DB	050H
	DB	0ffH
	DB	050H
	DB	04cH
	DB	048H
	DB	0ffH
	DB	050H
	DB	04cH
	DB	050H
	DB	0ffH
	DB	048H
	DB	04cH
	DB	050H
	DB	0ffH
	DB	050H
	DB	04cH
	DB	048H
	DB	0ffH
	DB	050H
	DB	04cH
	DB	050H
	DB	0ffH
	DB	048H
	DB	04cH
	DB	050H
	DB	0ffH
	DB	050H
	DB	04cH
	DB	048H
	DB	0ffH
	DB	050H
	DB	04cH
	DB	050H
	DB	0ffH
	DB	048H
	DB	04cH
	DB	050H
	DB	0ffH
	DB	050H
	DB	04cH
	DB	048H
	DB	0ffH
	DB	050H
	DB	04cH
	DB	050H
	DB	0ffH
	DB	048H
	DB	04cH
	DB	050H
	DB	0ffH
	DB	050H
	DB	04cH
	DB	048H
	DB	0ffH
	DB	050H
	DB	04cH
	DB	050H
	DB	0ffH
	DB	048H
	DB	04cH
	DB	050H
	DB	0ffH
	DB	050H
	DB	04cH
	DB	048H
	DB	0ffH
	DB	050H
	DB	04cH
	DB	050H
	DB	0ffH
	DB	048H
	DB	04cH
	DB	050H
	DB	0ffH
	DB	050H
	DB	04cH
	DB	048H
	DB	0ffH
	DB	050H
	DB	04cH
	DB	050H
	DB	0ffH
	DB	048H
	DB	04cH
	DB	050H
	DB	0ffH
	DB	050H
	DB	04cH
	DB	048H
	DB	0ffH
	DB	050H
	DB	04cH
	DB	050H
	DB	0ffH
	DB	048H
	DB	04cH
	DB	050H
	DB	0ffH
	DB	050H
	DB	04cH
	DB	048H
	DB	0ffH
	DB	050H
	DB	04cH
	DB	050H
	DB	0ffH
	DB	048H
	DB	04cH
	DB	050H
	DB	0ffH
	DB	050H
	DB	04cH
	DB	048H
	DB	0ffH
	DB	050H
	DB	04cH
	DB	050H
	DB	0ffH
	DB	048H
	DB	04cH
	DB	048H
	DB	0ffH
	DB	050H
	DB	04cH
	DB	050H
	DB	0ffH
	DB	050H
	DB	04cH
	DB	050H
	DB	0ffH
	DB	048H
	DB	04cH
	DB	048H
	DB	0ffH
	DB	050H
	DB	04cH
	DB	050H
	DB	0ffH
	DB	050H
	DB	04cH
	DB	050H
	DB	0ffH
	DB	050H
	DB	04cH
	DB	050H
	DB	0ffH
	DB	050H
	DB	050H
	DB	050H
	DB	0ffH
	DB	040H
	DB	040H
	DB	040H
	DB	0ffH
	DB	040H
	DB	040H
	DB	040H
	DB	0ffH
	DB	040H
	DB	040H
	DB	040H
	DB	0ffH
	DB	040H
	DB	040H
	DB	040H
	DB	0ffH
	DB	040H
	DB	040H
	DB	040H
	DB	0ffH
	DB	040H
	DB	040H
	DB	040H
	DB	0ffH
	DB	040H
	DB	040H
	DB	040H
	DB	0ffH
	DB	040H
	DB	040H
	DB	040H
	DB	0ffH
	DB	028H
	DB	024H
	DB	028H
	DB	0ffH
	DB	020H
	DB	024H
	DB	020H
	DB	0ffH
	DB	098H
	DB	094H
	DB	090H
	DB	096H
	DB	028H
	DB	024H
	DB	020H
	DB	0ffH
	DB	020H
	DB	024H
	DB	020H
	DB	0ffH
	DB	040H
	DB	040H
	DB	040H
	DB	0ffH
	DB	040H
	DB	040H
	DB	040H
	DB	0ffH
	DB	040H
	DB	040H
	DB	040H
	DB	0ffH
	DB	040H
	DB	040H
	DB	040H
	DB	0ffH
	DB	040H
	DB	040H
	DB	040H
	DB	0ffH
	DB	040H
	DB	040H
	DB	040H
	DB	0ffH
	DB	040H
	DB	040H
	DB	040H
	DB	0ffH
	DB	040H
	DB	040H
	DB	040H
	DB	0ffH
	DB	050H
	DB	050H
	DB	050H
	DB	0ffH
	DB	050H
	DB	04cH
	DB	050H
	DB	0ffH
	DB	050H
	DB	04cH
	DB	050H
	DB	0ffH
	DB	048H
	DB	04cH
	DB	050H
	DB	0ffH
	DB	050H
	DB	04cH
	DB	050H
	DB	0ffH
	DB	050H
	DB	04cH
	DB	048H
	DB	0ffH
	DB	050H
	DB	04cH
	DB	050H
	DB	0ffH
	DB	050H
	DB	04cH
	DB	050H
	DB	0ffH
	DB	050H
	DB	04cH
	DB	050H
	DB	0ffH
	DB	050H
	DB	04cH
	DB	048H
	DB	0ffH
	DB	050H
	DB	04cH
	DB	050H
	DB	0ffH
	DB	050H
	DB	04cH
	DB	050H
	DB	0ffH
	DB	048H
	DB	04cH
	DB	048H
	DB	0ffH
	DB	050H
	DB	04cH
	DB	050H
	DB	0ffH
	DB	050H
	DB	04cH
	DB	050H
	DB	0ffH
	DB	048H
	DB	04cH
	DB	048H
	DB	0ffH
	DB	050H
	DB	04cH
	DB	050H
	DB	0ffH
	DB	050H
	DB	04cH
	DB	050H
	DB	0ffH
	DB	050H
	DB	04cH
	DB	048H
	DB	0ffH
	DB	048H
	DB	04cH
	DB	050H
	DB	0ffH
	DB	050H
	DB	04cH
	DB	050H
	DB	0ffH
	DB	050H
	DB	04cH
	DB	048H
	DB	0ffH
	DB	050H
	DB	04cH
	DB	050H
	DB	0ffH
	DB	048H
	DB	04cH
	DB	050H
	DB	0ffH
	DB	050H
	DB	04cH
	DB	048H
	DB	0ffH
	DB	050H
	DB	04cH
	DB	050H
	DB	0ffH
	DB	048H
	DB	04cH
	DB	050H
	DB	0ffH
	DB	050H
	DB	04cH
	DB	048H
	DB	0ffH
	DB	050H
	DB	04cH
	DB	050H
	DB	0ffH
	DB	048H
	DB	04cH
	DB	050H
	DB	0ffH
	DB	050H
	DB	04cH
	DB	048H
	DB	0ffH
	DB	050H
	DB	04cH
	DB	050H
	DB	0ffH
	DB	048H
	DB	04cH
	DB	050H
	DB	0ffH
	DB	050H
	DB	04cH
	DB	048H
	DB	0ffH
	DB	050H
	DB	04cH
	DB	050H
	DB	0ffH
	DB	048H
	DB	04cH
	DB	050H
	DB	0ffH
	DB	050H
	DB	04cH
	DB	048H
	DB	0ffH
	DB	050H
	DB	04cH
	DB	050H
	DB	0ffH
	DB	048H
	DB	04cH
	DB	050H
	DB	0ffH
	DB	050H
	DB	04cH
	DB	048H
	DB	0ffH
	DB	050H
	DB	04cH
	DB	050H
	DB	0ffH
	DB	048H
	DB	04cH
	DB	050H
	DB	0ffH
	DB	050H
	DB	04cH
	DB	048H
	DB	0ffH
	DB	050H
	DB	04cH
	DB	050H
	DB	0ffH
	DB	048H
	DB	04cH
	DB	050H
	DB	0ffH
	DB	050H
	DB	04cH
	DB	048H
	DB	0ffH
	DB	050H
	DB	04cH
	DB	050H
	DB	0ffH
	DB	048H
	DB	04cH
	DB	050H
	DB	0ffH
	DB	050H
	DB	04cH
	DB	048H
	DB	0ffH
	DB	050H
	DB	04cH
	DB	050H
	DB	0ffH
	DB	048H
	DB	04cH
	DB	050H
	DB	0ffH
	DB	050H
	DB	04cH
	DB	048H
	DB	0ffH
	DB	050H
	DB	04cH
	DB	050H
	DB	0ffH
	DB	048H
	DB	04cH
	DB	050H
	DB	0ffH
	DB	050H
	DB	04cH
	DB	048H
	DB	0ffH
	DB	050H
	DB	04cH
	DB	050H
	DB	0ffH
	DB	048H
	DB	04cH
	DB	050H
	DB	0ffH
	DB	050H
	DB	04cH
	DB	048H
	DB	0ffH
	DB	050H
	DB	04cH
	DB	050H
	DB	0ffH
	DB	048H
	DB	04cH
	DB	050H
	DB	0ffH
	DB	050H
	DB	04cH
	DB	048H
	DB	0ffH
	DB	050H
	DB	04cH
	DB	050H
	DB	0ffH
	DB	048H
	DB	04cH
	DB	050H
	DB	0ffH
	DB	050H
	DB	04cH
	DB	048H
	DB	0ffH
	DB	050H
	DB	04cH
	DB	050H
	DB	0ffH
	DB	048H
	DB	04cH
	DB	050H
	DB	0ffH
	DB	050H
	DB	04cH
	DB	048H
	DB	0ffH
	DB	050H
	DB	04cH
	DB	050H
	DB	0ffH
	DB	048H
	DB	04cH
	DB	050H
	DB	0ffH
	DB	050H
	DB	04cH
	DB	048H
	DB	0ffH
	DB	050H
	DB	04cH
	DB	050H
	DB	0ffH
	DB	048H
	DB	04cH
	DB	050H
	DB	0ffH
	DB	050H
	DB	04cH
	DB	048H
	DB	0ffH
	DB	050H
	DB	04cH
	DB	050H
	DB	0ffH
	DB	048H
	DB	04cH
	DB	050H
	DB	0ffH
	DB	050H
	DB	04cH
	DB	048H
	DB	0ffH
	DB	050H
	DB	04cH
	DB	050H
	DB	0ffH
	DB	048H
	DB	04cH
	DB	050H
	DB	0ffH
	DB	050H
	DB	04cH
	DB	048H
	DB	0ffH
	DB	050H
	DB	04cH
	DB	050H
	DB	0ffH
	DB	048H
	DB	04cH
	DB	050H
	DB	0ffH
	DB	050H
	DB	04cH
	DB	048H
	DB	0ffH
	DB	050H
	DB	04cH
	DB	050H
	DB	0ffH
	DB	048H
	DB	04cH
	DB	050H
	DB	0ffH
	DB	050H
	DB	04cH
	DB	048H
	DB	0ffH
	DB	050H
	DB	04cH
	DB	050H
	DB	0ffH
	DB	048H
	DB	04cH
	DB	050H
	DB	0ffH
	DB	050H
	DB	04cH
	DB	048H
	DB	0ffH
	DB	050H
	DB	04cH
	DB	050H
	DB	0ffH
	DB	048H
	DB	04cH
	DB	050H
	DB	0ffH
	DB	050H
	DB	04cH
	DB	048H
	DB	0ffH
	DB	050H
	DB	04cH
	DB	050H
	DB	0ffH
	DB	048H
	DB	04cH
	DB	050H
	DB	0ffH
	DB	050H
	DB	04cH
	DB	048H
	DB	0ffH
	DB	050H
	DB	04cH
	DB	050H
	DB	0ffH
	DB	048H
	DB	04cH
	DB	050H
	DB	0ffH
	DB	050H
	DB	04cH
	DB	048H
	DB	0ffH
	DB	050H
	DB	04cH
	DB	050H
	DB	0ffH
	DB	048H
	DB	04cH
	DB	050H
	DB	0ffH
	DB	050H
	DB	04cH
	DB	048H
	DB	0ffH
	DB	050H
	DB	04cH
	DB	050H
	DB	0ffH
	DB	048H
	DB	04cH
	DB	050H
	DB	0ffH
	DB	050H
	DB	04cH
	DB	048H
	DB	0ffH
	DB	050H
	DB	04cH
	DB	050H
	DB	0ffH
	DB	048H
	DB	04cH
	DB	050H
	DB	0ffH
	DB	050H
	DB	04cH
	DB	048H
	DB	0ffH
	DB	050H
	DB	04cH
	DB	050H
	DB	0ffH
	DB	048H
	DB	04cH
	DB	050H
	DB	0ffH
	DB	050H
	DB	04cH
	DB	048H
	DB	0ffH
	DB	050H
	DB	04cH
	DB	050H
	DB	0ffH
	DB	048H
	DB	04cH
	DB	050H
	DB	0ffH
	DB	050H
	DB	04cH
	DB	048H
	DB	0ffH
	DB	050H
	DB	04cH
	DB	050H
	DB	0ffH
	DB	048H
	DB	04cH
	DB	050H
	DB	0ffH
	DB	050H
	DB	04cH
	DB	048H
	DB	0ffH
	DB	050H
	DB	04cH
	DB	050H
	DB	0ffH
	DB	048H
	DB	04cH
	DB	050H
	DB	0ffH
	DB	050H
	DB	04cH
	DB	048H
	DB	0ffH
	DB	050H
	DB	04cH
	DB	050H
	DB	0ffH
	DB	048H
	DB	04cH
	DB	050H
	DB	0ffH
	DB	050H
	DB	04cH
	DB	048H
	DB	0ffH
	DB	050H
	DB	04cH
	DB	050H
	DB	0ffH
	DB	048H
	DB	04cH
	DB	050H
	DB	0ffH
	DB	050H
	DB	04cH
	DB	048H
	DB	0ffH
	DB	050H
	DB	04cH
	DB	050H
	DB	0ffH
	DB	048H
	DB	04cH
	DB	050H
	DB	0ffH
	DB	050H
	DB	04cH
	DB	048H
	DB	0ffH
	DB	050H
	DB	04cH
	DB	050H
	DB	0ffH
	DB	048H
	DB	04cH
	DB	050H
	DB	0ffH
	DB	050H
	DB	04cH
	DB	048H
	DB	0ffH
	DB	050H
	DB	04cH
	DB	050H
	DB	0ffH
	DB	048H
	DB	04cH
	DB	050H
	DB	0ffH
	DB	050H
	DB	04cH
	DB	048H
	DB	0ffH
	DB	050H
	DB	04cH
	DB	050H
	DB	0ffH
	DB	048H
	DB	04cH
	DB	050H
	DB	0ffH
	DB	050H
	DB	04cH
	DB	048H
	DB	0ffH
	DB	050H
	DB	04cH
	DB	050H
	DB	0ffH
	DB	048H
	DB	04cH
	DB	050H
	DB	0ffH
	DB	050H
	DB	04cH
	DB	048H
	DB	0ffH
	DB	050H
	DB	04cH
	DB	050H
	DB	0ffH
	DB	048H
	DB	04cH
	DB	050H
	DB	0ffH
	DB	050H
	DB	04cH
	DB	048H
	DB	0ffH
	DB	050H
	DB	04cH
	DB	050H
	DB	0ffH
	DB	048H
	DB	04cH
	DB	050H
	DB	0ffH
	DB	050H
	DB	04cH
	DB	048H
	DB	0ffH
	DB	050H
	DB	04cH
	DB	050H
	DB	0ffH
	DB	048H
	DB	04cH
	DB	050H
	DB	0ffH
	DB	050H
	DB	04cH
	DB	048H
	DB	0ffH
	DB	050H
	DB	04cH
	DB	050H
	DB	0ffH
	DB	048H
	DB	04cH
	DB	050H
	DB	0ffH
	DB	050H
	DB	04cH
	DB	048H
	DB	0ffH
	DB	050H
	DB	04cH
	DB	050H
	DB	0ffH
	DB	048H
	DB	04cH
	DB	050H
	DB	0ffH
	DB	050H
	DB	04cH
	DB	048H
	DB	0ffH
	DB	050H
	DB	04cH
	DB	050H
	DB	0ffH
	DB	048H
	DB	04cH
	DB	050H
	DB	0ffH
	DB	050H
	DB	04cH
	DB	048H
	DB	0ffH
	DB	050H
	DB	04cH
	DB	050H
	DB	0ffH
	DB	048H
	DB	04cH
	DB	050H
	DB	0ffH
	DB	050H
	DB	04cH
	DB	048H
	DB	0ffH
	DB	050H
	DB	04cH
	DB	050H
	DB	0ffH
	DB	048H
	DB	04cH
	DB	050H
	DB	0ffH
	DB	050H
	DB	04cH
	DB	050H
	DB	0ffH
	DB	050H
	DB	04cH
	DB	050H
	DB	0ffH
	DB	048H
	DB	04cH
	DB	050H
	DB	0ffH
	DB	050H
	DB	04cH
	DB	048H
	DB	0ffH
	DB	050H
	DB	04cH
	DB	050H
	DB	0ffH
	DB	050H
	DB	04cH
	DB	050H
	DB	0ffH
	DB	048H
	DB	04cH
	DB	048H
	DB	0ffH
	DB	050H
	DB	04cH
	DB	050H
	DB	0ffH
	DB	050H
	DB	050H
	DB	050H
	DB	0ffH
	DB	050H
	DB	054H
	DB	050H
	DB	0ffH
	DB	040H
	DB	040H
	DB	040H
	DB	0ffH
	DB	040H
	DB	040H
	DB	040H
	DB	0ffH
	DB	040H
	DB	040H
	DB	040H
	DB	0ffH
	DB	040H
	DB	040H
	DB	040H
	DB	0ffH
	DB	040H
	DB	040H
	DB	040H
	DB	0ffH
	DB	040H
	DB	040H
	DB	040H
	DB	0ffH
	DB	040H
	DB	040H
	DB	040H
	DB	0ffH
	DB	040H
	DB	03cH
	DB	040H
	DB	0ffH
	DB	020H
	DB	024H
	DB	020H
	DB	0ffH
	DB	028H
	DB	024H
	DB	028H
	DB	0ffH
	DB	090H
	DB	094H
	DB	090H
	DB	092H
	DB	028H
	DB	024H
	DB	028H
	DB	0ffH
	DB	020H
	DB	024H
	DB	020H
	DB	0ffH
	DB	038H
	DB	03cH
	DB	040H
	DB	0ffH
	DB	040H
	DB	03cH
	DB	040H
	DB	0ffH
	DB	040H
	DB	03cH
	DB	040H
	DB	0ffH
	DB	040H
	DB	03cH
	DB	040H
	DB	0ffH
	DB	040H
	DB	03cH
	DB	040H
	DB	0ffH
	DB	040H
	DB	03cH
	DB	040H
	DB	0ffH
	DB	040H
	DB	040H
	DB	040H
	DB	0ffH
	DB	040H
	DB	040H
	DB	040H
	DB	0ffH
	DB	058H
	DB	054H
	DB	058H
	DB	0ffH
	DB	050H
	DB	050H
	DB	050H
	DB	0ffH
	DB	050H
	DB	050H
	DB	050H
	DB	0ffH
	DB	050H
	DB	050H
	DB	050H
	DB	0ffH
	DB	050H
	DB	050H
	DB	050H
	DB	0ffH
	DB	050H
	DB	050H
	DB	050H
	DB	0ffH
	DB	050H
	DB	050H
	DB	050H
	DB	0ffH
	DB	050H
	DB	050H
	DB	050H
	DB	0ffH
	DB	050H
	DB	050H
	DB	050H
	DB	0ffH
	DB	050H
	DB	050H
	DB	050H
	DB	0ffH
	DB	050H
	DB	050H
	DB	050H
	DB	0ffH
	DB	050H
	DB	050H
	DB	050H
	DB	0ffH
	DB	050H
	DB	050H
	DB	050H
	DB	0ffH
	DB	050H
	DB	050H
	DB	050H
	DB	0ffH
	DB	050H
	DB	050H
	DB	050H
	DB	0ffH
	DB	050H
	DB	050H
	DB	050H
	DB	0ffH
	DB	050H
	DB	050H
	DB	050H
	DB	0ffH
	DB	050H
	DB	050H
	DB	050H
	DB	0ffH
	DB	050H
	DB	050H
	DB	050H
	DB	0ffH
	DB	050H
	DB	050H
	DB	050H
	DB	0ffH
	DB	050H
	DB	050H
	DB	050H
	DB	0ffH
	DB	050H
	DB	050H
	DB	050H
	DB	0ffH
	DB	050H
	DB	050H
	DB	050H
	DB	0ffH
	DB	050H
	DB	050H
	DB	050H
	DB	0ffH
	DB	050H
	DB	050H
	DB	050H
	DB	0ffH
	DB	050H
	DB	050H
	DB	050H
	DB	0ffH
	DB	050H
	DB	050H
	DB	050H
	DB	0ffH
	DB	050H
	DB	050H
	DB	050H
	DB	0ffH
	DB	050H
	DB	050H
	DB	050H
	DB	0ffH
	DB	050H
	DB	050H
	DB	050H
	DB	0ffH
	DB	050H
	DB	050H
	DB	050H
	DB	0ffH
	DB	050H
	DB	050H
	DB	050H
	DB	0ffH
	DB	050H
	DB	050H
	DB	050H
	DB	0ffH
	DB	050H
	DB	050H
	DB	050H
	DB	0ffH
	DB	050H
	DB	050H
	DB	050H
	DB	0ffH
	DB	050H
	DB	050H
	DB	050H
	DB	0ffH
	DB	050H
	DB	050H
	DB	050H
	DB	0ffH
	DB	050H
	DB	050H
	DB	050H
	DB	0ffH
	DB	050H
	DB	050H
	DB	050H
	DB	0ffH
	DB	050H
	DB	050H
	DB	050H
	DB	0ffH
	DB	050H
	DB	050H
	DB	050H
	DB	0ffH
	DB	050H
	DB	050H
	DB	050H
	DB	0ffH
	DB	050H
	DB	050H
	DB	050H
	DB	0ffH
	DB	050H
	DB	050H
	DB	050H
	DB	0ffH
	DB	050H
	DB	050H
	DB	050H
	DB	0ffH
	DB	050H
	DB	050H
	DB	050H
	DB	0ffH
	DB	050H
	DB	050H
	DB	050H
	DB	0ffH
	DB	050H
	DB	050H
	DB	050H
	DB	0ffH
	DB	050H
	DB	050H
	DB	050H
	DB	0ffH
	DB	050H
	DB	050H
	DB	050H
	DB	0ffH
	DB	050H
	DB	050H
	DB	050H
	DB	0ffH
	DB	050H
	DB	050H
	DB	050H
	DB	0ffH
	DB	050H
	DB	050H
	DB	050H
	DB	0ffH
	DB	050H
	DB	050H
	DB	050H
	DB	0ffH
	DB	050H
	DB	050H
	DB	050H
	DB	0ffH
	DB	050H
	DB	050H
	DB	050H
	DB	0ffH
	DB	050H
	DB	050H
	DB	050H
	DB	0ffH
	DB	050H
	DB	050H
	DB	050H
	DB	0ffH
	DB	050H
	DB	050H
	DB	050H
	DB	0ffH
	DB	050H
	DB	050H
	DB	050H
	DB	0ffH
	DB	050H
	DB	050H
	DB	050H
	DB	0ffH
	DB	050H
	DB	050H
	DB	050H
	DB	0ffH
	DB	050H
	DB	050H
	DB	050H
	DB	0ffH
	DB	050H
	DB	050H
	DB	050H
	DB	0ffH
	DB	050H
	DB	050H
	DB	050H
	DB	0ffH
	DB	050H
	DB	050H
	DB	050H
	DB	0ffH
	DB	050H
	DB	050H
	DB	050H
	DB	0ffH
	DB	050H
	DB	050H
	DB	050H
	DB	0ffH
	DB	050H
	DB	050H
	DB	050H
	DB	0ffH
	DB	050H
	DB	050H
	DB	050H
	DB	0ffH
	DB	050H
	DB	050H
	DB	050H
	DB	0ffH
	DB	050H
	DB	050H
	DB	050H
	DB	0ffH
	DB	050H
	DB	050H
	DB	050H
	DB	0ffH
	DB	050H
	DB	050H
	DB	050H
	DB	0ffH
	DB	050H
	DB	050H
	DB	050H
	DB	0ffH
	DB	050H
	DB	050H
	DB	050H
	DB	0ffH
	DB	050H
	DB	050H
	DB	050H
	DB	0ffH
	DB	050H
	DB	050H
	DB	050H
	DB	0ffH
	DB	050H
	DB	050H
	DB	050H
	DB	0ffH
	DB	050H
	DB	050H
	DB	050H
	DB	0ffH
	DB	050H
	DB	050H
	DB	050H
	DB	0ffH
	DB	050H
	DB	050H
	DB	050H
	DB	0ffH
	DB	050H
	DB	050H
	DB	050H
	DB	0ffH
	DB	050H
	DB	050H
	DB	050H
	DB	0ffH
	DB	050H
	DB	050H
	DB	050H
	DB	0ffH
	DB	050H
	DB	050H
	DB	050H
	DB	0ffH
	DB	050H
	DB	050H
	DB	050H
	DB	0ffH
	DB	050H
	DB	050H
	DB	050H
	DB	0ffH
	DB	050H
	DB	050H
	DB	050H
	DB	0ffH
	DB	050H
	DB	050H
	DB	050H
	DB	0ffH
	DB	050H
	DB	050H
	DB	050H
	DB	0ffH
	DB	050H
	DB	050H
	DB	050H
	DB	0ffH
	DB	050H
	DB	050H
	DB	050H
	DB	0ffH
	DB	050H
	DB	050H
	DB	050H
	DB	0ffH
	DB	050H
	DB	050H
	DB	050H
	DB	0ffH
	DB	050H
	DB	050H
	DB	050H
	DB	0ffH
	DB	050H
	DB	050H
	DB	050H
	DB	0ffH
	DB	050H
	DB	050H
	DB	050H
	DB	0ffH
	DB	050H
	DB	050H
	DB	050H
	DB	0ffH
	DB	050H
	DB	050H
	DB	050H
	DB	0ffH
	DB	050H
	DB	050H
	DB	050H
	DB	0ffH
	DB	050H
	DB	050H
	DB	050H
	DB	0ffH
	DB	050H
	DB	050H
	DB	050H
	DB	0ffH
	DB	050H
	DB	050H
	DB	050H
	DB	0ffH
	DB	050H
	DB	050H
	DB	050H
	DB	0ffH
	DB	050H
	DB	050H
	DB	050H
	DB	0ffH
	DB	050H
	DB	050H
	DB	050H
	DB	0ffH
	DB	050H
	DB	050H
	DB	050H
	DB	0ffH
	DB	050H
	DB	050H
	DB	050H
	DB	0ffH
	DB	050H
	DB	050H
	DB	050H
	DB	0ffH
	DB	050H
	DB	050H
	DB	050H
	DB	0ffH
	DB	050H
	DB	050H
	DB	050H
	DB	0ffH
	DB	050H
	DB	050H
	DB	050H
	DB	0ffH
	DB	050H
	DB	050H
	DB	050H
	DB	0ffH
	DB	050H
	DB	050H
	DB	050H
	DB	0ffH
	DB	050H
	DB	050H
	DB	050H
	DB	0ffH
	DB	050H
	DB	050H
	DB	050H
	DB	0ffH
	DB	050H
	DB	050H
	DB	050H
	DB	0ffH
	DB	050H
	DB	050H
	DB	050H
	DB	0ffH
	DB	050H
	DB	050H
	DB	050H
	DB	0ffH
	DB	050H
	DB	050H
	DB	050H
	DB	0ffH
	DB	050H
	DB	050H
	DB	050H
	DB	0ffH
	DB	050H
	DB	050H
	DB	050H
	DB	0ffH
	DB	050H
	DB	050H
	DB	050H
	DB	0ffH
	DB	050H
	DB	050H
	DB	050H
	DB	0ffH
	DB	050H
	DB	050H
	DB	050H
	DB	0ffH
	DB	050H
	DB	050H
	DB	050H
	DB	0ffH
	DB	050H
	DB	050H
	DB	050H
	DB	0ffH
	DB	050H
	DB	050H
	DB	050H
	DB	0ffH
	DB	050H
	DB	050H
	DB	050H
	DB	0ffH
	DB	050H
	DB	050H
	DB	050H
	DB	0ffH
	DB	050H
	DB	050H
	DB	050H
	DB	0ffH
	DB	050H
	DB	050H
	DB	050H
	DB	0ffH
	DB	050H
	DB	050H
	DB	050H
	DB	0ffH
	DB	050H
	DB	050H
	DB	050H
	DB	0ffH
	DB	050H
	DB	050H
	DB	050H
	DB	0ffH
	DB	050H
	DB	050H
	DB	050H
	DB	0ffH
	DB	050H
	DB	050H
	DB	050H
	DB	0ffH
	DB	050H
	DB	050H
	DB	050H
	DB	0ffH
	DB	050H
	DB	050H
	DB	050H
	DB	0ffH
	DB	050H
	DB	050H
	DB	050H
	DB	0ffH
	DB	050H
	DB	050H
	DB	050H
	DB	0ffH
	DB	050H
	DB	050H
	DB	050H
	DB	0ffH
	DB	050H
	DB	050H
	DB	050H
	DB	0ffH
	DB	050H
	DB	050H
	DB	050H
	DB	0ffH
	DB	050H
	DB	050H
	DB	050H
	DB	0ffH
	DB	050H
	DB	050H
	DB	050H
	DB	0ffH
	DB	050H
	DB	050H
	DB	050H
	DB	0ffH
	DB	050H
	DB	050H
	DB	050H
	DB	0ffH
	DB	050H
	DB	050H
	DB	050H
	DB	0ffH
	DB	050H
	DB	050H
	DB	050H
	DB	0ffH
	DB	050H
	DB	050H
	DB	050H
	DB	0ffH
	DB	050H
	DB	050H
	DB	050H
	DB	0ffH
	DB	050H
	DB	050H
	DB	050H
	DB	0ffH
	DB	050H
	DB	050H
	DB	050H
	DB	0ffH
	DB	050H
	DB	050H
	DB	050H
	DB	0ffH
	DB	050H
	DB	050H
	DB	050H
	DB	0ffH
	DB	050H
	DB	050H
	DB	050H
	DB	0ffH
	DB	050H
	DB	050H
	DB	050H
	DB	0ffH
	DB	050H
	DB	050H
	DB	050H
	DB	0ffH
	DB	050H
	DB	050H
	DB	050H
	DB	0ffH
	DB	050H
	DB	050H
	DB	050H
	DB	0ffH
	DB	050H
	DB	050H
	DB	050H
	DB	0ffH
	DB	050H
	DB	050H
	DB	050H
	DB	0ffH
	DB	050H
	DB	050H
	DB	050H
	DB	0ffH
	DB	050H
	DB	050H
	DB	050H
	DB	0ffH
	DB	050H
	DB	050H
	DB	050H
	DB	0ffH
	DB	050H
	DB	050H
	DB	050H
	DB	0ffH
	DB	050H
	DB	050H
	DB	050H
	DB	0ffH
	DB	050H
	DB	050H
	DB	050H
	DB	0ffH
	DB	050H
	DB	050H
	DB	050H
	DB	0ffH
	DB	058H
	DB	054H
	DB	050H
	DB	0ffH
	DB	040H
	DB	040H
	DB	040H
	DB	0ffH
	DB	040H
	DB	040H
	DB	040H
	DB	0ffH
	DB	040H
	DB	03cH
	DB	040H
	DB	0ffH
	DB	040H
	DB	03cH
	DB	040H
	DB	0ffH
	DB	040H
	DB	03cH
	DB	040H
	DB	0ffH
	DB	040H
	DB	03cH
	DB	040H
	DB	0ffH
	DB	040H
	DB	040H
	DB	040H
	DB	0ffH
	DB	038H
	DB	03cH
	DB	038H
	DB	0ffH
	DB	028H
	DB	024H
	DB	028H
	DB	0ffH
	DB	028H
	DB	024H
	DB	028H
	DB	0ffH
	DB	090H
	DB	094H
	DB	090H
	DB	092H
	DB	028H
	DB	024H
	DB	028H
	DB	0ffH
	DB	028H
	DB	024H
	DB	028H
	DB	0ffH
	DB	038H
	DB	03cH
	DB	038H
	DB	0ffH
	DB	040H
	DB	03cH
	DB	038H
	DB	0ffH
	DB	038H
	DB	03cH
	DB	038H
	DB	0ffH
	DB	038H
	DB	03cH
	DB	040H
	DB	0ffH
	DB	040H
	DB	03cH
	DB	038H
	DB	0ffH
	DB	038H
	DB	03cH
	DB	038H
	DB	0ffH
	DB	040H
	DB	03cH
	DB	040H
	DB	0ffH
	DB	040H
	DB	040H
	DB	040H
	DB	0ffH
	DB	058H
	DB	058H
	DB	058H
	DB	0ffH
	DB	050H
	DB	054H
	DB	050H
	DB	0ffH
	DB	050H
	DB	054H
	DB	050H
	DB	0ffH
	DB	050H
	DB	054H
	DB	050H
	DB	0ffH
	DB	050H
	DB	054H
	DB	050H
	DB	0ffH
	DB	050H
	DB	054H
	DB	050H
	DB	0ffH
	DB	050H
	DB	054H
	DB	050H
	DB	0ffH
	DB	050H
	DB	054H
	DB	050H
	DB	0ffH
	DB	050H
	DB	054H
	DB	050H
	DB	0ffH
	DB	050H
	DB	054H
	DB	050H
	DB	0ffH
	DB	050H
	DB	054H
	DB	050H
	DB	0ffH
	DB	050H
	DB	054H
	DB	050H
	DB	0ffH
	DB	050H
	DB	054H
	DB	050H
	DB	0ffH
	DB	050H
	DB	054H
	DB	050H
	DB	0ffH
	DB	050H
	DB	054H
	DB	050H
	DB	0ffH
	DB	050H
	DB	054H
	DB	050H
	DB	0ffH
	DB	050H
	DB	054H
	DB	050H
	DB	0ffH
	DB	050H
	DB	054H
	DB	050H
	DB	0ffH
	DB	050H
	DB	054H
	DB	050H
	DB	0ffH
	DB	050H
	DB	054H
	DB	050H
	DB	0ffH
	DB	050H
	DB	054H
	DB	050H
	DB	0ffH
	DB	050H
	DB	054H
	DB	050H
	DB	0ffH
	DB	050H
	DB	054H
	DB	050H
	DB	0ffH
	DB	050H
	DB	054H
	DB	050H
	DB	0ffH
	DB	050H
	DB	054H
	DB	050H
	DB	0ffH
	DB	050H
	DB	054H
	DB	050H
	DB	0ffH
	DB	050H
	DB	054H
	DB	050H
	DB	0ffH
	DB	050H
	DB	054H
	DB	050H
	DB	0ffH
	DB	050H
	DB	054H
	DB	050H
	DB	0ffH
	DB	050H
	DB	054H
	DB	050H
	DB	0ffH
	DB	050H
	DB	054H
	DB	050H
	DB	0ffH
	DB	050H
	DB	054H
	DB	050H
	DB	0ffH
	DB	050H
	DB	054H
	DB	050H
	DB	0ffH
	DB	050H
	DB	054H
	DB	050H
	DB	0ffH
	DB	050H
	DB	054H
	DB	050H
	DB	0ffH
	DB	050H
	DB	054H
	DB	050H
	DB	0ffH
	DB	050H
	DB	054H
	DB	050H
	DB	0ffH
	DB	050H
	DB	054H
	DB	050H
	DB	0ffH
	DB	050H
	DB	054H
	DB	050H
	DB	0ffH
	DB	050H
	DB	054H
	DB	050H
	DB	0ffH
	DB	050H
	DB	054H
	DB	050H
	DB	0ffH
	DB	050H
	DB	054H
	DB	050H
	DB	0ffH
	DB	050H
	DB	054H
	DB	050H
	DB	0ffH
	DB	050H
	DB	054H
	DB	050H
	DB	0ffH
	DB	050H
	DB	054H
	DB	050H
	DB	0ffH
	DB	050H
	DB	054H
	DB	050H
	DB	0ffH
	DB	050H
	DB	054H
	DB	050H
	DB	0ffH
	DB	050H
	DB	054H
	DB	050H
	DB	0ffH
	DB	050H
	DB	054H
	DB	050H
	DB	0ffH
	DB	050H
	DB	054H
	DB	050H
	DB	0ffH
	DB	050H
	DB	054H
	DB	050H
	DB	0ffH
	DB	050H
	DB	054H
	DB	050H
	DB	0ffH
	DB	050H
	DB	054H
	DB	050H
	DB	0ffH
	DB	050H
	DB	054H
	DB	050H
	DB	0ffH
	DB	050H
	DB	054H
	DB	050H
	DB	0ffH
	DB	050H
	DB	054H
	DB	050H
	DB	0ffH
	DB	050H
	DB	054H
	DB	050H
	DB	0ffH
	DB	050H
	DB	054H
	DB	050H
	DB	0ffH
	DB	050H
	DB	054H
	DB	050H
	DB	0ffH
	DB	050H
	DB	054H
	DB	050H
	DB	0ffH
	DB	050H
	DB	054H
	DB	050H
	DB	0ffH
	DB	050H
	DB	054H
	DB	050H
	DB	0ffH
	DB	050H
	DB	054H
	DB	050H
	DB	0ffH
	DB	050H
	DB	054H
	DB	050H
	DB	0ffH
	DB	050H
	DB	054H
	DB	050H
	DB	0ffH
	DB	050H
	DB	054H
	DB	050H
	DB	0ffH
	DB	050H
	DB	054H
	DB	050H
	DB	0ffH
	DB	050H
	DB	054H
	DB	050H
	DB	0ffH
	DB	050H
	DB	054H
	DB	050H
	DB	0ffH
	DB	050H
	DB	054H
	DB	050H
	DB	0ffH
	DB	050H
	DB	054H
	DB	050H
	DB	0ffH
	DB	050H
	DB	054H
	DB	050H
	DB	0ffH
	DB	050H
	DB	054H
	DB	050H
	DB	0ffH
	DB	050H
	DB	054H
	DB	050H
	DB	0ffH
	DB	050H
	DB	054H
	DB	050H
	DB	0ffH
	DB	050H
	DB	054H
	DB	050H
	DB	0ffH
	DB	050H
	DB	054H
	DB	050H
	DB	0ffH
	DB	050H
	DB	054H
	DB	050H
	DB	0ffH
	DB	050H
	DB	054H
	DB	050H
	DB	0ffH
	DB	050H
	DB	054H
	DB	050H
	DB	0ffH
	DB	050H
	DB	054H
	DB	050H
	DB	0ffH
	DB	050H
	DB	054H
	DB	050H
	DB	0ffH
	DB	050H
	DB	054H
	DB	050H
	DB	0ffH
	DB	050H
	DB	054H
	DB	050H
	DB	0ffH
	DB	050H
	DB	054H
	DB	050H
	DB	0ffH
	DB	050H
	DB	054H
	DB	050H
	DB	0ffH
	DB	050H
	DB	054H
	DB	050H
	DB	0ffH
	DB	050H
	DB	054H
	DB	050H
	DB	0ffH
	DB	050H
	DB	054H
	DB	050H
	DB	0ffH
	DB	050H
	DB	054H
	DB	050H
	DB	0ffH
	DB	050H
	DB	054H
	DB	050H
	DB	0ffH
	DB	050H
	DB	054H
	DB	050H
	DB	0ffH
	DB	050H
	DB	054H
	DB	050H
	DB	0ffH
	DB	050H
	DB	054H
	DB	050H
	DB	0ffH
	DB	050H
	DB	054H
	DB	050H
	DB	0ffH
	DB	050H
	DB	054H
	DB	050H
	DB	0ffH
	DB	050H
	DB	054H
	DB	050H
	DB	0ffH
	DB	050H
	DB	054H
	DB	050H
	DB	0ffH
	DB	050H
	DB	054H
	DB	050H
	DB	0ffH
	DB	050H
	DB	054H
	DB	050H
	DB	0ffH
	DB	050H
	DB	054H
	DB	050H
	DB	0ffH
	DB	050H
	DB	054H
	DB	050H
	DB	0ffH
	DB	050H
	DB	054H
	DB	050H
	DB	0ffH
	DB	050H
	DB	054H
	DB	050H
	DB	0ffH
	DB	050H
	DB	054H
	DB	050H
	DB	0ffH
	DB	050H
	DB	054H
	DB	050H
	DB	0ffH
	DB	050H
	DB	054H
	DB	050H
	DB	0ffH
	DB	050H
	DB	054H
	DB	050H
	DB	0ffH
	DB	050H
	DB	054H
	DB	050H
	DB	0ffH
	DB	050H
	DB	054H
	DB	050H
	DB	0ffH
	DB	050H
	DB	054H
	DB	050H
	DB	0ffH
	DB	050H
	DB	054H
	DB	050H
	DB	0ffH
	DB	050H
	DB	054H
	DB	050H
	DB	0ffH
	DB	050H
	DB	054H
	DB	050H
	DB	0ffH
	DB	050H
	DB	054H
	DB	050H
	DB	0ffH
	DB	050H
	DB	054H
	DB	050H
	DB	0ffH
	DB	050H
	DB	054H
	DB	050H
	DB	0ffH
	DB	050H
	DB	054H
	DB	050H
	DB	0ffH
	DB	050H
	DB	054H
	DB	050H
	DB	0ffH
	DB	050H
	DB	054H
	DB	050H
	DB	0ffH
	DB	050H
	DB	054H
	DB	050H
	DB	0ffH
	DB	050H
	DB	054H
	DB	050H
	DB	0ffH
	DB	050H
	DB	054H
	DB	050H
	DB	0ffH
	DB	050H
	DB	054H
	DB	050H
	DB	0ffH
	DB	050H
	DB	054H
	DB	050H
	DB	0ffH
	DB	050H
	DB	054H
	DB	050H
	DB	0ffH
	DB	050H
	DB	054H
	DB	050H
	DB	0ffH
	DB	050H
	DB	054H
	DB	050H
	DB	0ffH
	DB	050H
	DB	054H
	DB	050H
	DB	0ffH
	DB	050H
	DB	054H
	DB	050H
	DB	0ffH
	DB	050H
	DB	054H
	DB	050H
	DB	0ffH
	DB	050H
	DB	054H
	DB	050H
	DB	0ffH
	DB	050H
	DB	054H
	DB	050H
	DB	0ffH
	DB	050H
	DB	054H
	DB	050H
	DB	0ffH
	DB	050H
	DB	054H
	DB	050H
	DB	0ffH
	DB	050H
	DB	054H
	DB	050H
	DB	0ffH
	DB	050H
	DB	054H
	DB	050H
	DB	0ffH
	DB	050H
	DB	054H
	DB	050H
	DB	0ffH
	DB	050H
	DB	054H
	DB	050H
	DB	0ffH
	DB	050H
	DB	054H
	DB	050H
	DB	0ffH
	DB	050H
	DB	054H
	DB	050H
	DB	0ffH
	DB	050H
	DB	054H
	DB	050H
	DB	0ffH
	DB	050H
	DB	054H
	DB	050H
	DB	0ffH
	DB	050H
	DB	054H
	DB	050H
	DB	0ffH
	DB	050H
	DB	054H
	DB	050H
	DB	0ffH
	DB	050H
	DB	054H
	DB	050H
	DB	0ffH
	DB	050H
	DB	054H
	DB	050H
	DB	0ffH
	DB	050H
	DB	054H
	DB	050H
	DB	0ffH
	DB	050H
	DB	054H
	DB	050H
	DB	0ffH
	DB	050H
	DB	054H
	DB	050H
	DB	0ffH
	DB	050H
	DB	054H
	DB	050H
	DB	0ffH
	DB	050H
	DB	054H
	DB	050H
	DB	0ffH
	DB	050H
	DB	054H
	DB	050H
	DB	0ffH
	DB	050H
	DB	054H
	DB	050H
	DB	0ffH
	DB	050H
	DB	054H
	DB	050H
	DB	0ffH
	DB	050H
	DB	054H
	DB	050H
	DB	0ffH
	DB	050H
	DB	054H
	DB	050H
	DB	0ffH
	DB	050H
	DB	054H
	DB	050H
	DB	0ffH
	DB	050H
	DB	054H
	DB	050H
	DB	0ffH
	DB	050H
	DB	054H
	DB	050H
	DB	0ffH
	DB	050H
	DB	054H
	DB	050H
	DB	0ffH
	DB	050H
	DB	054H
	DB	050H
	DB	0ffH
	DB	050H
	DB	054H
	DB	050H
	DB	0ffH
	DB	050H
	DB	054H
	DB	050H
	DB	0ffH
	DB	050H
	DB	054H
	DB	050H
	DB	0ffH
	DB	050H
	DB	054H
	DB	050H
	DB	0ffH
	DB	050H
	DB	054H
	DB	050H
	DB	0ffH
	DB	050H
	DB	050H
	DB	050H
	DB	0ffH
	DB	050H
	DB	054H
	DB	050H
	DB	0ffH
	DB	050H
	DB	054H
	DB	050H
	DB	0ffH
	DB	058H
	DB	054H
	DB	058H
	DB	0ffH
	DB	058H
	DB	058H
	DB	058H
	DB	0ffH
	DB	040H
	DB	03cH
	DB	040H
	DB	0ffH
	DB	040H
	DB	03cH
	DB	040H
	DB	0ffH
	DB	038H
	DB	03cH
	DB	038H
	DB	0ffH
	DB	040H
	DB	03cH
	DB	038H
	DB	0ffH
	DB	038H
	DB	03cH
	DB	040H
	DB	0ffH
	DB	040H
	DB	03cH
	DB	038H
	DB	0ffH
	DB	040H
	DB	03cH
	DB	040H
	DB	0ffH
	DB	038H
	DB	03cH
	DB	038H
	DB	0ffH
	DB	028H
	DB	028H
	DB	028H
	DB	0ffH
	DB	020H
	DB	024H
	DB	020H
	DB	0ffH
	DB	098H
	DB	094H
	DB	090H
	DB	096H
	DB	028H
	DB	024H
	DB	020H
	DB	0ffH
	DB	028H
	DB	024H
	DB	028H
	DB	0ffH
	DB	038H
	DB	03cH
	DB	038H
	DB	0ffH
	DB	040H
	DB	040H
	DB	040H
	DB	0ffH
	DB	040H
	DB	03cH
	DB	040H
	DB	0ffH
	DB	038H
	DB	040H
	DB	038H
	DB	0ffH
	DB	040H
	DB	03cH
	DB	040H
	DB	0ffH
	DB	038H
	DB	03cH
	DB	040H
	DB	0ffH
	DB	038H
	DB	03cH
	DB	038H
	DB	0ffH
	DB	040H
	DB	03cH
	DB	040H
	DB	0ffH
	DB	058H
	DB	058H
	DB	058H
	DB	0ffH
	DB	058H
	DB	058H
	DB	058H
	DB	0ffH
	DB	058H
	DB	058H
	DB	058H
	DB	0ffH
	DB	058H
	DB	058H
	DB	058H
	DB	0ffH
	DB	058H
	DB	054H
	DB	058H
	DB	0ffH
	DB	058H
	DB	058H
	DB	058H
	DB	0ffH
	DB	058H
	DB	054H
	DB	058H
	DB	0ffH
	DB	058H
	DB	058H
	DB	058H
	DB	0ffH
	DB	058H
	DB	054H
	DB	058H
	DB	0ffH
	DB	058H
	DB	058H
	DB	058H
	DB	0ffH
	DB	058H
	DB	054H
	DB	058H
	DB	0ffH
	DB	058H
	DB	058H
	DB	058H
	DB	0ffH
	DB	058H
	DB	054H
	DB	058H
	DB	0ffH
	DB	058H
	DB	058H
	DB	058H
	DB	0ffH
	DB	058H
	DB	054H
	DB	058H
	DB	0ffH
	DB	058H
	DB	058H
	DB	058H
	DB	0ffH
	DB	058H
	DB	054H
	DB	058H
	DB	0ffH
	DB	058H
	DB	054H
	DB	058H
	DB	0ffH
	DB	058H
	DB	058H
	DB	058H
	DB	0ffH
	DB	058H
	DB	054H
	DB	058H
	DB	0ffH
	DB	058H
	DB	058H
	DB	058H
	DB	0ffH
	DB	058H
	DB	054H
	DB	058H
	DB	0ffH
	DB	058H
	DB	054H
	DB	058H
	DB	0ffH
	DB	058H
	DB	058H
	DB	058H
	DB	0ffH
	DB	058H
	DB	054H
	DB	058H
	DB	0ffH
	DB	058H
	DB	058H
	DB	058H
	DB	0ffH
	DB	058H
	DB	054H
	DB	058H
	DB	0ffH
	DB	058H
	DB	058H
	DB	058H
	DB	0ffH
	DB	058H
	DB	054H
	DB	058H
	DB	0ffH
	DB	058H
	DB	054H
	DB	058H
	DB	0ffH
	DB	058H
	DB	058H
	DB	058H
	DB	0ffH
	DB	058H
	DB	054H
	DB	058H
	DB	0ffH
	DB	058H
	DB	058H
	DB	058H
	DB	0ffH
	DB	058H
	DB	054H
	DB	058H
	DB	0ffH
	DB	058H
	DB	058H
	DB	058H
	DB	0ffH
	DB	058H
	DB	054H
	DB	058H
	DB	0ffH
	DB	058H
	DB	054H
	DB	058H
	DB	0ffH
	DB	058H
	DB	058H
	DB	058H
	DB	0ffH
	DB	058H
	DB	054H
	DB	058H
	DB	0ffH
	DB	058H
	DB	058H
	DB	058H
	DB	0ffH
	DB	058H
	DB	054H
	DB	058H
	DB	0ffH
	DB	058H
	DB	058H
	DB	058H
	DB	0ffH
	DB	058H
	DB	054H
	DB	058H
	DB	0ffH
	DB	058H
	DB	058H
	DB	058H
	DB	0ffH
	DB	058H
	DB	054H
	DB	058H
	DB	0ffH
	DB	058H
	DB	054H
	DB	058H
	DB	0ffH
	DB	058H
	DB	058H
	DB	058H
	DB	0ffH
	DB	058H
	DB	054H
	DB	058H
	DB	0ffH
	DB	058H
	DB	058H
	DB	058H
	DB	0ffH
	DB	058H
	DB	054H
	DB	058H
	DB	0ffH
	DB	058H
	DB	058H
	DB	058H
	DB	0ffH
	DB	058H
	DB	054H
	DB	058H
	DB	0ffH
	DB	058H
	DB	054H
	DB	058H
	DB	0ffH
	DB	058H
	DB	058H
	DB	058H
	DB	0ffH
	DB	058H
	DB	054H
	DB	058H
	DB	0ffH
	DB	058H
	DB	058H
	DB	058H
	DB	0ffH
	DB	058H
	DB	054H
	DB	058H
	DB	0ffH
	DB	058H
	DB	058H
	DB	058H
	DB	0ffH
	DB	058H
	DB	054H
	DB	058H
	DB	0ffH
	DB	058H
	DB	058H
	DB	058H
	DB	0ffH
	DB	058H
	DB	054H
	DB	058H
	DB	0ffH
	DB	058H
	DB	054H
	DB	058H
	DB	0ffH
	DB	058H
	DB	058H
	DB	058H
	DB	0ffH
	DB	058H
	DB	054H
	DB	058H
	DB	0ffH
	DB	058H
	DB	058H
	DB	058H
	DB	0ffH
	DB	058H
	DB	054H
	DB	058H
	DB	0ffH
	DB	058H
	DB	058H
	DB	058H
	DB	0ffH
	DB	058H
	DB	054H
	DB	058H
	DB	0ffH
	DB	058H
	DB	054H
	DB	058H
	DB	0ffH
	DB	058H
	DB	058H
	DB	058H
	DB	0ffH
	DB	058H
	DB	054H
	DB	058H
	DB	0ffH
	DB	058H
	DB	058H
	DB	058H
	DB	0ffH
	DB	058H
	DB	054H
	DB	058H
	DB	0ffH
	DB	058H
	DB	058H
	DB	058H
	DB	0ffH
	DB	058H
	DB	054H
	DB	058H
	DB	0ffH
	DB	058H
	DB	058H
	DB	058H
	DB	0ffH
	DB	058H
	DB	054H
	DB	058H
	DB	0ffH
	DB	058H
	DB	054H
	DB	058H
	DB	0ffH
	DB	058H
	DB	058H
	DB	058H
	DB	0ffH
	DB	058H
	DB	054H
	DB	058H
	DB	0ffH
	DB	058H
	DB	058H
	DB	058H
	DB	0ffH
	DB	058H
	DB	054H
	DB	058H
	DB	0ffH
	DB	058H
	DB	058H
	DB	058H
	DB	0ffH
	DB	058H
	DB	054H
	DB	058H
	DB	0ffH
	DB	058H
	DB	054H
	DB	058H
	DB	0ffH
	DB	058H
	DB	058H
	DB	058H
	DB	0ffH
	DB	058H
	DB	054H
	DB	058H
	DB	0ffH
	DB	058H
	DB	058H
	DB	058H
	DB	0ffH
	DB	058H
	DB	054H
	DB	058H
	DB	0ffH
	DB	058H
	DB	058H
	DB	058H
	DB	0ffH
	DB	058H
	DB	054H
	DB	058H
	DB	0ffH
	DB	058H
	DB	058H
	DB	058H
	DB	0ffH
	DB	058H
	DB	054H
	DB	058H
	DB	0ffH
	DB	058H
	DB	054H
	DB	058H
	DB	0ffH
	DB	058H
	DB	058H
	DB	058H
	DB	0ffH
	DB	058H
	DB	054H
	DB	058H
	DB	0ffH
	DB	058H
	DB	058H
	DB	058H
	DB	0ffH
	DB	058H
	DB	054H
	DB	058H
	DB	0ffH
	DB	058H
	DB	058H
	DB	058H
	DB	0ffH
	DB	058H
	DB	054H
	DB	058H
	DB	0ffH
	DB	058H
	DB	054H
	DB	058H
	DB	0ffH
	DB	058H
	DB	058H
	DB	058H
	DB	0ffH
	DB	058H
	DB	054H
	DB	058H
	DB	0ffH
	DB	058H
	DB	058H
	DB	058H
	DB	0ffH
	DB	058H
	DB	054H
	DB	058H
	DB	0ffH
	DB	058H
	DB	058H
	DB	058H
	DB	0ffH
	DB	058H
	DB	054H
	DB	058H
	DB	0ffH
	DB	058H
	DB	058H
	DB	058H
	DB	0ffH
	DB	058H
	DB	054H
	DB	058H
	DB	0ffH
	DB	058H
	DB	054H
	DB	058H
	DB	0ffH
	DB	058H
	DB	058H
	DB	058H
	DB	0ffH
	DB	058H
	DB	054H
	DB	058H
	DB	0ffH
	DB	058H
	DB	058H
	DB	058H
	DB	0ffH
	DB	058H
	DB	054H
	DB	058H
	DB	0ffH
	DB	058H
	DB	058H
	DB	058H
	DB	0ffH
	DB	058H
	DB	054H
	DB	058H
	DB	0ffH
	DB	058H
	DB	054H
	DB	058H
	DB	0ffH
	DB	058H
	DB	058H
	DB	058H
	DB	0ffH
	DB	058H
	DB	054H
	DB	058H
	DB	0ffH
	DB	058H
	DB	058H
	DB	058H
	DB	0ffH
	DB	058H
	DB	054H
	DB	058H
	DB	0ffH
	DB	058H
	DB	058H
	DB	058H
	DB	0ffH
	DB	058H
	DB	054H
	DB	058H
	DB	0ffH
	DB	058H
	DB	058H
	DB	058H
	DB	0ffH
	DB	058H
	DB	054H
	DB	058H
	DB	0ffH
	DB	058H
	DB	054H
	DB	058H
	DB	0ffH
	DB	058H
	DB	058H
	DB	058H
	DB	0ffH
	DB	058H
	DB	054H
	DB	058H
	DB	0ffH
	DB	058H
	DB	058H
	DB	058H
	DB	0ffH
	DB	058H
	DB	054H
	DB	058H
	DB	0ffH
	DB	058H
	DB	058H
	DB	058H
	DB	0ffH
	DB	058H
	DB	054H
	DB	058H
	DB	0ffH
	DB	058H
	DB	054H
	DB	058H
	DB	0ffH
	DB	058H
	DB	058H
	DB	058H
	DB	0ffH
	DB	058H
	DB	054H
	DB	058H
	DB	0ffH
	DB	058H
	DB	058H
	DB	058H
	DB	0ffH
	DB	058H
	DB	054H
	DB	058H
	DB	0ffH
	DB	058H
	DB	058H
	DB	058H
	DB	0ffH
	DB	058H
	DB	054H
	DB	058H
	DB	0ffH
	DB	058H
	DB	058H
	DB	058H
	DB	0ffH
	DB	058H
	DB	054H
	DB	058H
	DB	0ffH
	DB	058H
	DB	054H
	DB	058H
	DB	0ffH
	DB	058H
	DB	058H
	DB	058H
	DB	0ffH
	DB	058H
	DB	054H
	DB	058H
	DB	0ffH
	DB	058H
	DB	058H
	DB	058H
	DB	0ffH
	DB	058H
	DB	054H
	DB	058H
	DB	0ffH
	DB	058H
	DB	058H
	DB	058H
	DB	0ffH
	DB	058H
	DB	054H
	DB	058H
	DB	0ffH
	DB	058H
	DB	054H
	DB	058H
	DB	0ffH
	DB	058H
	DB	058H
	DB	058H
	DB	0ffH
	DB	058H
	DB	054H
	DB	058H
	DB	0ffH
	DB	058H
	DB	058H
	DB	058H
	DB	0ffH
	DB	058H
	DB	054H
	DB	058H
	DB	0ffH
	DB	058H
	DB	058H
	DB	058H
	DB	0ffH
	DB	058H
	DB	054H
	DB	058H
	DB	0ffH
	DB	058H
	DB	058H
	DB	058H
	DB	0ffH
	DB	058H
	DB	054H
	DB	058H
	DB	0ffH
	DB	058H
	DB	054H
	DB	058H
	DB	0ffH
	DB	058H
	DB	058H
	DB	058H
	DB	0ffH
	DB	058H
	DB	054H
	DB	058H
	DB	0ffH
	DB	058H
	DB	058H
	DB	058H
	DB	0ffH
	DB	058H
	DB	054H
	DB	058H
	DB	0ffH
	DB	058H
	DB	058H
	DB	058H
	DB	0ffH
	DB	058H
	DB	054H
	DB	058H
	DB	0ffH
	DB	058H
	DB	054H
	DB	058H
	DB	0ffH
	DB	058H
	DB	058H
	DB	058H
	DB	0ffH
	DB	058H
	DB	058H
	DB	058H
	DB	0ffH
	DB	058H
	DB	058H
	DB	058H
	DB	0ffH
	DB	058H
	DB	058H
	DB	058H
	DB	0ffH
	DB	058H
	DB	058H
	DB	058H
	DB	0ffH
	DB	058H
	DB	058H
	DB	058H
	DB	0ffH
	DB	058H
	DB	058H
	DB	058H
	DB	0ffH
	DB	038H
	DB	03cH
	DB	040H
	DB	0ffH
	DB	040H
	DB	03cH
	DB	038H
	DB	0ffH
	DB	040H
	DB	040H
	DB	040H
	DB	0ffH
	DB	038H
	DB	03cH
	DB	040H
	DB	0ffH
	DB	040H
	DB	040H
	DB	038H
	DB	0ffH
	DB	038H
	DB	03cH
	DB	040H
	DB	0ffH
	DB	040H
	DB	03cH
	DB	040H
	DB	0ffH
	DB	038H
	DB	03cH
	DB	038H
	DB	0ffH
	DB	028H
	DB	024H
	DB	028H
	DB	0ffH
	DB	028H
	DB	024H
	DB	028H
	DB	0ffH
	DB	090H
	DB	094H
	DB	090H
	DB	092H
	DB	028H
	DB	024H
	DB	028H
	DB	0ffH
	DB	020H
	DB	024H
	DB	020H
	DB	0ffH
	DB	038H
	DB	03cH
	DB	038H
	DB	0ffH
	DB	040H
	DB	03cH
	DB	040H
	DB	0ffH
	DB	038H
	DB	03cH
	DB	040H
	DB	0ffH
	DB	040H
	DB	03cH
	DB	038H
	DB	0ffH
	DB	040H
	DB	03cH
	DB	038H
	DB	0ffH
	DB	038H
	DB	03cH
	DB	040H
	DB	0ffH
	DB	040H
	DB	040H
	DB	040H
	DB	0ffH
	DB	040H
	DB	03cH
	DB	038H
	DB	0ffH
	DB	038H
	DB	03cH
	DB	040H
	DB	0ffH
	DB	040H
	DB	03cH
	DB	040H
	DB	0ffH
	DB	040H
	DB	03cH
	DB	040H
	DB	0ffH
	DB	040H
	DB	03cH
	DB	040H
	DB	0ffH
	DB	038H
	DB	03cH
	DB	038H
	DB	0ffH
	DB	040H
	DB	03cH
	DB	040H
	DB	0ffH
	DB	040H
	DB	03cH
	DB	040H
	DB	0ffH
	DB	038H
	DB	03cH
	DB	040H
	DB	0ffH
	DB	040H
	DB	03cH
	DB	038H
	DB	0ffH
	DB	040H
	DB	03cH
	DB	040H
	DB	0ffH
	DB	038H
	DB	03cH
	DB	040H
	DB	0ffH
	DB	040H
	DB	03cH
	DB	040H
	DB	0ffH
	DB	040H
	DB	03cH
	DB	040H
	DB	0ffH
	DB	040H
	DB	03cH
	DB	040H
	DB	0ffH
	DB	040H
	DB	03cH
	DB	040H
	DB	0ffH
	DB	040H
	DB	03cH
	DB	040H
	DB	0ffH
	DB	040H
	DB	03cH
	DB	040H
	DB	0ffH
	DB	038H
	DB	03cH
	DB	040H
	DB	0ffH
	DB	040H
	DB	03cH
	DB	040H
	DB	0ffH
	DB	040H
	DB	03cH
	DB	040H
	DB	0ffH
	DB	040H
	DB	03cH
	DB	040H
	DB	0ffH
	DB	038H
	DB	03cH
	DB	040H
	DB	0ffH
	DB	040H
	DB	03cH
	DB	040H
	DB	0ffH
	DB	040H
	DB	03cH
	DB	040H
	DB	0ffH
	DB	040H
	DB	03cH
	DB	040H
	DB	0ffH
	DB	040H
	DB	03cH
	DB	040H
	DB	0ffH
	DB	040H
	DB	03cH
	DB	040H
	DB	0ffH
	DB	040H
	DB	03cH
	DB	040H
	DB	0ffH
	DB	040H
	DB	03cH
	DB	040H
	DB	0ffH
	DB	040H
	DB	03cH
	DB	040H
	DB	0ffH
	DB	040H
	DB	03cH
	DB	040H
	DB	0ffH
	DB	040H
	DB	03cH
	DB	040H
	DB	0ffH
	DB	040H
	DB	03cH
	DB	040H
	DB	0ffH
	DB	040H
	DB	03cH
	DB	040H
	DB	0ffH
	DB	040H
	DB	03cH
	DB	040H
	DB	0ffH
	DB	040H
	DB	03cH
	DB	040H
	DB	0ffH
	DB	040H
	DB	03cH
	DB	040H
	DB	0ffH
	DB	040H
	DB	03cH
	DB	040H
	DB	0ffH
	DB	040H
	DB	03cH
	DB	040H
	DB	0ffH
	DB	040H
	DB	03cH
	DB	040H
	DB	0ffH
	DB	040H
	DB	03cH
	DB	040H
	DB	0ffH
	DB	040H
	DB	03cH
	DB	040H
	DB	0ffH
	DB	040H
	DB	03cH
	DB	040H
	DB	0ffH
	DB	040H
	DB	03cH
	DB	040H
	DB	0ffH
	DB	040H
	DB	03cH
	DB	040H
	DB	0ffH
	DB	040H
	DB	03cH
	DB	040H
	DB	0ffH
	DB	040H
	DB	03cH
	DB	040H
	DB	0ffH
	DB	040H
	DB	03cH
	DB	040H
	DB	0ffH
	DB	040H
	DB	03cH
	DB	040H
	DB	0ffH
	DB	040H
	DB	03cH
	DB	040H
	DB	0ffH
	DB	040H
	DB	03cH
	DB	040H
	DB	0ffH
	DB	040H
	DB	03cH
	DB	040H
	DB	0ffH
	DB	040H
	DB	03cH
	DB	040H
	DB	0ffH
	DB	040H
	DB	03cH
	DB	040H
	DB	0ffH
	DB	040H
	DB	03cH
	DB	040H
	DB	0ffH
	DB	040H
	DB	03cH
	DB	040H
	DB	0ffH
	DB	040H
	DB	03cH
	DB	040H
	DB	0ffH
	DB	040H
	DB	03cH
	DB	040H
	DB	0ffH
	DB	040H
	DB	03cH
	DB	040H
	DB	0ffH
	DB	040H
	DB	03cH
	DB	040H
	DB	0ffH
	DB	040H
	DB	03cH
	DB	040H
	DB	0ffH
	DB	040H
	DB	03cH
	DB	040H
	DB	0ffH
	DB	040H
	DB	03cH
	DB	040H
	DB	0ffH
	DB	040H
	DB	03cH
	DB	040H
	DB	0ffH
	DB	040H
	DB	03cH
	DB	040H
	DB	0ffH
	DB	040H
	DB	03cH
	DB	040H
	DB	0ffH
	DB	040H
	DB	03cH
	DB	040H
	DB	0ffH
	DB	040H
	DB	03cH
	DB	040H
	DB	0ffH
	DB	040H
	DB	03cH
	DB	040H
	DB	0ffH
	DB	040H
	DB	03cH
	DB	040H
	DB	0ffH
	DB	040H
	DB	03cH
	DB	040H
	DB	0ffH
	DB	040H
	DB	03cH
	DB	040H
	DB	0ffH
	DB	040H
	DB	03cH
	DB	040H
	DB	0ffH
	DB	040H
	DB	03cH
	DB	040H
	DB	0ffH
	DB	040H
	DB	03cH
	DB	040H
	DB	0ffH
	DB	040H
	DB	03cH
	DB	040H
	DB	0ffH
	DB	040H
	DB	03cH
	DB	040H
	DB	0ffH
	DB	040H
	DB	03cH
	DB	040H
	DB	0ffH
	DB	040H
	DB	03cH
	DB	040H
	DB	0ffH
	DB	040H
	DB	03cH
	DB	040H
	DB	0ffH
	DB	040H
	DB	03cH
	DB	040H
	DB	0ffH
	DB	040H
	DB	03cH
	DB	040H
	DB	0ffH
	DB	040H
	DB	03cH
	DB	040H
	DB	0ffH
	DB	040H
	DB	03cH
	DB	040H
	DB	0ffH
	DB	040H
	DB	03cH
	DB	040H
	DB	0ffH
	DB	040H
	DB	03cH
	DB	040H
	DB	0ffH
	DB	040H
	DB	03cH
	DB	040H
	DB	0ffH
	DB	040H
	DB	03cH
	DB	040H
	DB	0ffH
	DB	040H
	DB	03cH
	DB	040H
	DB	0ffH
	DB	040H
	DB	03cH
	DB	040H
	DB	0ffH
	DB	040H
	DB	03cH
	DB	040H
	DB	0ffH
	DB	040H
	DB	03cH
	DB	040H
	DB	0ffH
	DB	040H
	DB	03cH
	DB	040H
	DB	0ffH
	DB	040H
	DB	03cH
	DB	040H
	DB	0ffH
	DB	040H
	DB	03cH
	DB	040H
	DB	0ffH
	DB	040H
	DB	03cH
	DB	040H
	DB	0ffH
	DB	040H
	DB	03cH
	DB	040H
	DB	0ffH
	DB	040H
	DB	03cH
	DB	040H
	DB	0ffH
	DB	040H
	DB	03cH
	DB	040H
	DB	0ffH
	DB	040H
	DB	03cH
	DB	040H
	DB	0ffH
	DB	040H
	DB	03cH
	DB	040H
	DB	0ffH
	DB	040H
	DB	03cH
	DB	040H
	DB	0ffH
	DB	040H
	DB	03cH
	DB	040H
	DB	0ffH
	DB	040H
	DB	03cH
	DB	040H
	DB	0ffH
	DB	040H
	DB	03cH
	DB	040H
	DB	0ffH
	DB	040H
	DB	03cH
	DB	040H
	DB	0ffH
	DB	040H
	DB	03cH
	DB	040H
	DB	0ffH
	DB	040H
	DB	03cH
	DB	040H
	DB	0ffH
	DB	040H
	DB	03cH
	DB	040H
	DB	0ffH
	DB	040H
	DB	03cH
	DB	040H
	DB	0ffH
	DB	040H
	DB	03cH
	DB	040H
	DB	0ffH
	DB	040H
	DB	03cH
	DB	040H
	DB	0ffH
	DB	040H
	DB	03cH
	DB	040H
	DB	0ffH
	DB	040H
	DB	03cH
	DB	040H
	DB	0ffH
	DB	040H
	DB	03cH
	DB	040H
	DB	0ffH
	DB	040H
	DB	03cH
	DB	040H
	DB	0ffH
	DB	040H
	DB	03cH
	DB	040H
	DB	0ffH
	DB	040H
	DB	03cH
	DB	040H
	DB	0ffH
	DB	040H
	DB	03cH
	DB	040H
	DB	0ffH
	DB	040H
	DB	03cH
	DB	040H
	DB	0ffH
	DB	040H
	DB	03cH
	DB	040H
	DB	0ffH
	DB	040H
	DB	03cH
	DB	040H
	DB	0ffH
	DB	040H
	DB	03cH
	DB	040H
	DB	0ffH
	DB	040H
	DB	03cH
	DB	040H
	DB	0ffH
	DB	040H
	DB	03cH
	DB	040H
	DB	0ffH
	DB	040H
	DB	03cH
	DB	040H
	DB	0ffH
	DB	040H
	DB	03cH
	DB	040H
	DB	0ffH
	DB	040H
	DB	03cH
	DB	040H
	DB	0ffH
	DB	040H
	DB	03cH
	DB	040H
	DB	0ffH
	DB	040H
	DB	03cH
	DB	040H
	DB	0ffH
	DB	040H
	DB	03cH
	DB	040H
	DB	0ffH
	DB	040H
	DB	03cH
	DB	040H
	DB	0ffH
	DB	040H
	DB	03cH
	DB	040H
	DB	0ffH
	DB	040H
	DB	03cH
	DB	040H
	DB	0ffH
	DB	040H
	DB	03cH
	DB	040H
	DB	0ffH
	DB	040H
	DB	03cH
	DB	040H
	DB	0ffH
	DB	040H
	DB	03cH
	DB	040H
	DB	0ffH
	DB	040H
	DB	03cH
	DB	040H
	DB	0ffH
	DB	040H
	DB	03cH
	DB	040H
	DB	0ffH
	DB	040H
	DB	03cH
	DB	040H
	DB	0ffH
	DB	040H
	DB	03cH
	DB	040H
	DB	0ffH
	DB	040H
	DB	03cH
	DB	040H
	DB	0ffH
	DB	040H
	DB	03cH
	DB	040H
	DB	0ffH
	DB	040H
	DB	03cH
	DB	040H
	DB	0ffH
	DB	040H
	DB	03cH
	DB	040H
	DB	0ffH
	DB	040H
	DB	03cH
	DB	040H
	DB	0ffH
	DB	040H
	DB	03cH
	DB	040H
	DB	0ffH
	DB	040H
	DB	03cH
	DB	040H
	DB	0ffH
	DB	040H
	DB	03cH
	DB	040H
	DB	0ffH
	DB	040H
	DB	03cH
	DB	040H
	DB	0ffH
	DB	040H
	DB	03cH
	DB	040H
	DB	0ffH
	DB	040H
	DB	03cH
	DB	040H
	DB	0ffH
	DB	040H
	DB	03cH
	DB	040H
	DB	0ffH
	DB	040H
	DB	03cH
	DB	040H
	DB	0ffH
	DB	040H
	DB	03cH
	DB	040H
	DB	0ffH
	DB	040H
	DB	03cH
	DB	040H
	DB	0ffH
	DB	040H
	DB	03cH
	DB	040H
	DB	0ffH
	DB	040H
	DB	03cH
	DB	040H
	DB	0ffH
	DB	040H
	DB	03cH
	DB	040H
	DB	0ffH
	DB	040H
	DB	03cH
	DB	040H
	DB	0ffH
	DB	040H
	DB	03cH
	DB	038H
	DB	0ffH
	DB	040H
	DB	03cH
	DB	040H
	DB	0ffH
	DB	040H
	DB	03cH
	DB	040H
	DB	0ffH
	DB	040H
	DB	03cH
	DB	038H
	DB	0ffH
	DB	040H
	DB	03cH
	DB	040H
	DB	0ffH
	DB	040H
	DB	03cH
	DB	040H
	DB	0ffH
	DB	040H
	DB	03cH
	DB	040H
	DB	0ffH
	DB	040H
	DB	03cH
	DB	040H
	DB	0ffH
	DB	038H
	DB	03cH
	DB	040H
	DB	0ffH
	DB	040H
	DB	03cH
	DB	038H
	DB	0ffH
	DB	040H
	DB	03cH
	DB	040H
	DB	0ffH
	DB	038H
	DB	03cH
	DB	038H
	DB	0ffH
	DB	038H
	DB	03cH
	DB	040H
	DB	0ffH
	DB	040H
	DB	03cH
	DB	040H
	DB	0ffH
	DB	038H
	DB	03cH
	DB	038H
	DB	0ffH
	DB	038H
	DB	03cH
	DB	040H
	DB	0ffH
	DB	040H
	DB	03cH
	DB	038H
	DB	0ffH
	DB	038H
	DB	03cH
	DB	038H
	DB	0ffH
	DB	038H
	DB	03cH
	DB	040H
	DB	0ffH
	DB	038H
	DB	03cH
	DB	038H
	DB	0ffH
	DB	028H
	DB	024H
	DB	028H
	DB	0ffH
	DB	028H
	DB	024H
	DB	028H
	DB	0ffH
	DB	090H
	DB	094H
	DB	090H
	DB	092H
	DB	028H
	DB	024H
	DB	028H
	DB	0ffH
	DB	028H
	DB	024H
	DB	028H
	DB	0ffH
	DB	038H
	DB	03cH
	DB	038H
	DB	0ffH
	DB	038H
	DB	03cH
	DB	038H
	DB	0ffH
	DB	038H
	DB	03cH
	DB	038H
	DB	0ffH
	DB	038H
	DB	03cH
	DB	038H
	DB	0ffH
	DB	038H
	DB	03cH
	DB	038H
	DB	0ffH
	DB	038H
	DB	03cH
	DB	038H
	DB	0ffH
	DB	038H
	DB	03cH
	DB	038H
	DB	0ffH
	DB	040H
	DB	03cH
	DB	038H
	DB	0ffH
	DB	038H
	DB	03cH
	DB	038H
	DB	0ffH
	DB	038H
	DB	03cH
	DB	038H
	DB	0ffH
	DB	038H
	DB	03cH
	DB	038H
	DB	0ffH
	DB	038H
	DB	03cH
	DB	038H
	DB	0ffH
	DB	040H
	DB	03cH
	DB	040H
	DB	0ffH
	DB	038H
	DB	03cH
	DB	038H
	DB	0ffH
	DB	038H
	DB	03cH
	DB	038H
	DB	0ffH
	DB	038H
	DB	03cH
	DB	038H
	DB	0ffH
	DB	038H
	DB	03cH
	DB	038H
	DB	0ffH
	DB	038H
	DB	03cH
	DB	038H
	DB	0ffH
	DB	038H
	DB	03cH
	DB	038H
	DB	0ffH
	DB	038H
	DB	03cH
	DB	038H
	DB	0ffH
	DB	038H
	DB	03cH
	DB	038H
	DB	0ffH
	DB	038H
	DB	03cH
	DB	038H
	DB	0ffH
	DB	038H
	DB	03cH
	DB	038H
	DB	0ffH
	DB	038H
	DB	03cH
	DB	038H
	DB	0ffH
	DB	038H
	DB	03cH
	DB	038H
	DB	0ffH
	DB	038H
	DB	03cH
	DB	038H
	DB	0ffH
	DB	038H
	DB	03cH
	DB	038H
	DB	0ffH
	DB	038H
	DB	03cH
	DB	038H
	DB	0ffH
	DB	038H
	DB	03cH
	DB	038H
	DB	0ffH
	DB	040H
	DB	03cH
	DB	038H
	DB	0ffH
	DB	038H
	DB	03cH
	DB	038H
	DB	0ffH
	DB	038H
	DB	03cH
	DB	038H
	DB	0ffH
	DB	038H
	DB	03cH
	DB	038H
	DB	0ffH
	DB	038H
	DB	03cH
	DB	038H
	DB	0ffH
	DB	038H
	DB	03cH
	DB	038H
	DB	0ffH
	DB	038H
	DB	03cH
	DB	038H
	DB	0ffH
	DB	038H
	DB	03cH
	DB	038H
	DB	0ffH
	DB	038H
	DB	03cH
	DB	038H
	DB	0ffH
	DB	038H
	DB	03cH
	DB	038H
	DB	0ffH
	DB	038H
	DB	03cH
	DB	038H
	DB	0ffH
	DB	038H
	DB	03cH
	DB	038H
	DB	0ffH
	DB	038H
	DB	03cH
	DB	038H
	DB	0ffH
	DB	038H
	DB	03cH
	DB	038H
	DB	0ffH
	DB	038H
	DB	03cH
	DB	038H
	DB	0ffH
	DB	038H
	DB	03cH
	DB	038H
	DB	0ffH
	DB	038H
	DB	03cH
	DB	038H
	DB	0ffH
	DB	038H
	DB	03cH
	DB	038H
	DB	0ffH
	DB	038H
	DB	03cH
	DB	038H
	DB	0ffH
	DB	038H
	DB	03cH
	DB	038H
	DB	0ffH
	DB	038H
	DB	03cH
	DB	038H
	DB	0ffH
	DB	038H
	DB	03cH
	DB	038H
	DB	0ffH
	DB	038H
	DB	03cH
	DB	038H
	DB	0ffH
	DB	038H
	DB	03cH
	DB	038H
	DB	0ffH
	DB	038H
	DB	03cH
	DB	038H
	DB	0ffH
	DB	038H
	DB	03cH
	DB	038H
	DB	0ffH
	DB	038H
	DB	03cH
	DB	038H
	DB	0ffH
	DB	038H
	DB	03cH
	DB	038H
	DB	0ffH
	DB	038H
	DB	03cH
	DB	038H
	DB	0ffH
	DB	038H
	DB	03cH
	DB	038H
	DB	0ffH
	DB	038H
	DB	03cH
	DB	038H
	DB	0ffH
	DB	038H
	DB	03cH
	DB	038H
	DB	0ffH
	DB	038H
	DB	03cH
	DB	038H
	DB	0ffH
	DB	038H
	DB	03cH
	DB	038H
	DB	0ffH
	DB	038H
	DB	03cH
	DB	038H
	DB	0ffH
	DB	038H
	DB	03cH
	DB	038H
	DB	0ffH
	DB	038H
	DB	03cH
	DB	038H
	DB	0ffH
	DB	038H
	DB	03cH
	DB	038H
	DB	0ffH
	DB	038H
	DB	03cH
	DB	038H
	DB	0ffH
	DB	038H
	DB	03cH
	DB	038H
	DB	0ffH
	DB	038H
	DB	03cH
	DB	038H
	DB	0ffH
	DB	038H
	DB	03cH
	DB	038H
	DB	0ffH
	DB	038H
	DB	03cH
	DB	038H
	DB	0ffH
	DB	038H
	DB	03cH
	DB	038H
	DB	0ffH
	DB	038H
	DB	03cH
	DB	038H
	DB	0ffH
	DB	038H
	DB	03cH
	DB	038H
	DB	0ffH
	DB	038H
	DB	03cH
	DB	038H
	DB	0ffH
	DB	038H
	DB	03cH
	DB	038H
	DB	0ffH
	DB	038H
	DB	03cH
	DB	038H
	DB	0ffH
	DB	038H
	DB	03cH
	DB	038H
	DB	0ffH
	DB	038H
	DB	03cH
	DB	038H
	DB	0ffH
	DB	038H
	DB	03cH
	DB	038H
	DB	0ffH
	DB	038H
	DB	03cH
	DB	038H
	DB	0ffH
	DB	038H
	DB	03cH
	DB	038H
	DB	0ffH
	DB	038H
	DB	03cH
	DB	038H
	DB	0ffH
	DB	038H
	DB	03cH
	DB	038H
	DB	0ffH
	DB	038H
	DB	03cH
	DB	038H
	DB	0ffH
	DB	038H
	DB	03cH
	DB	038H
	DB	0ffH
	DB	038H
	DB	03cH
	DB	038H
	DB	0ffH
	DB	038H
	DB	03cH
	DB	038H
	DB	0ffH
	DB	038H
	DB	03cH
	DB	038H
	DB	0ffH
	DB	038H
	DB	03cH
	DB	038H
	DB	0ffH
	DB	038H
	DB	03cH
	DB	038H
	DB	0ffH
	DB	038H
	DB	03cH
	DB	038H
	DB	0ffH
	DB	038H
	DB	03cH
	DB	038H
	DB	0ffH
	DB	038H
	DB	03cH
	DB	038H
	DB	0ffH
	DB	038H
	DB	03cH
	DB	038H
	DB	0ffH
	DB	038H
	DB	03cH
	DB	038H
	DB	0ffH
	DB	038H
	DB	03cH
	DB	038H
	DB	0ffH
	DB	038H
	DB	03cH
	DB	038H
	DB	0ffH
	DB	038H
	DB	03cH
	DB	038H
	DB	0ffH
	DB	038H
	DB	03cH
	DB	038H
	DB	0ffH
	DB	038H
	DB	03cH
	DB	038H
	DB	0ffH
	DB	038H
	DB	03cH
	DB	038H
	DB	0ffH
	DB	038H
	DB	03cH
	DB	038H
	DB	0ffH
	DB	038H
	DB	03cH
	DB	038H
	DB	0ffH
	DB	038H
	DB	03cH
	DB	038H
	DB	0ffH
	DB	038H
	DB	03cH
	DB	038H
	DB	0ffH
	DB	038H
	DB	03cH
	DB	038H
	DB	0ffH
	DB	038H
	DB	03cH
	DB	038H
	DB	0ffH
	DB	038H
	DB	03cH
	DB	038H
	DB	0ffH
	DB	038H
	DB	03cH
	DB	038H
	DB	0ffH
	DB	038H
	DB	03cH
	DB	038H
	DB	0ffH
	DB	038H
	DB	03cH
	DB	038H
	DB	0ffH
	DB	038H
	DB	03cH
	DB	038H
	DB	0ffH
	DB	038H
	DB	03cH
	DB	038H
	DB	0ffH
	DB	038H
	DB	03cH
	DB	038H
	DB	0ffH
	DB	038H
	DB	03cH
	DB	038H
	DB	0ffH
	DB	038H
	DB	03cH
	DB	038H
	DB	0ffH
	DB	038H
	DB	03cH
	DB	038H
	DB	0ffH
	DB	038H
	DB	03cH
	DB	038H
	DB	0ffH
	DB	038H
	DB	03cH
	DB	038H
	DB	0ffH
	DB	038H
	DB	03cH
	DB	038H
	DB	0ffH
	DB	038H
	DB	03cH
	DB	038H
	DB	0ffH
	DB	038H
	DB	03cH
	DB	038H
	DB	0ffH
	DB	038H
	DB	03cH
	DB	038H
	DB	0ffH
	DB	038H
	DB	03cH
	DB	038H
	DB	0ffH
	DB	038H
	DB	03cH
	DB	038H
	DB	0ffH
	DB	038H
	DB	03cH
	DB	038H
	DB	0ffH
	DB	038H
	DB	03cH
	DB	038H
	DB	0ffH
	DB	038H
	DB	03cH
	DB	038H
	DB	0ffH
	DB	038H
	DB	03cH
	DB	038H
	DB	0ffH
	DB	038H
	DB	03cH
	DB	038H
	DB	0ffH
	DB	038H
	DB	03cH
	DB	038H
	DB	0ffH
	DB	038H
	DB	03cH
	DB	038H
	DB	0ffH
	DB	038H
	DB	03cH
	DB	038H
	DB	0ffH
	DB	038H
	DB	03cH
	DB	038H
	DB	0ffH
	DB	038H
	DB	03cH
	DB	038H
	DB	0ffH
	DB	038H
	DB	03cH
	DB	038H
	DB	0ffH
	DB	038H
	DB	03cH
	DB	038H
	DB	0ffH
	DB	038H
	DB	03cH
	DB	038H
	DB	0ffH
	DB	038H
	DB	03cH
	DB	038H
	DB	0ffH
	DB	038H
	DB	03cH
	DB	038H
	DB	0ffH
	DB	038H
	DB	03cH
	DB	038H
	DB	0ffH
	DB	038H
	DB	03cH
	DB	038H
	DB	0ffH
	DB	038H
	DB	03cH
	DB	038H
	DB	0ffH
	DB	038H
	DB	03cH
	DB	038H
	DB	0ffH
	DB	038H
	DB	03cH
	DB	038H
	DB	0ffH
	DB	038H
	DB	03cH
	DB	038H
	DB	0ffH
	DB	038H
	DB	03cH
	DB	038H
	DB	0ffH
	DB	038H
	DB	03cH
	DB	038H
	DB	0ffH
	DB	038H
	DB	03cH
	DB	038H
	DB	0ffH
	DB	038H
	DB	03cH
	DB	038H
	DB	0ffH
	DB	038H
	DB	03cH
	DB	038H
	DB	0ffH
	DB	038H
	DB	03cH
	DB	038H
	DB	0ffH
	DB	038H
	DB	03cH
	DB	038H
	DB	0ffH
	DB	038H
	DB	03cH
	DB	038H
	DB	0ffH
	DB	038H
	DB	03cH
	DB	038H
	DB	0ffH
	DB	038H
	DB	03cH
	DB	038H
	DB	0ffH
	DB	038H
	DB	03cH
	DB	038H
	DB	0ffH
	DB	038H
	DB	03cH
	DB	038H
	DB	0ffH
	DB	038H
	DB	03cH
	DB	038H
	DB	0ffH
	DB	038H
	DB	03cH
	DB	038H
	DB	0ffH
	DB	038H
	DB	03cH
	DB	038H
	DB	0ffH
	DB	038H
	DB	03cH
	DB	038H
	DB	0ffH
	DB	038H
	DB	03cH
	DB	038H
	DB	0ffH
	DB	038H
	DB	03cH
	DB	038H
	DB	0ffH
	DB	038H
	DB	03cH
	DB	038H
	DB	0ffH
	DB	038H
	DB	03cH
	DB	038H
	DB	0ffH
	DB	038H
	DB	03cH
	DB	038H
	DB	0ffH
	DB	038H
	DB	03cH
	DB	040H
	DB	0ffH
	DB	038H
	DB	03cH
	DB	038H
	DB	0ffH
	DB	038H
	DB	03cH
	DB	038H
	DB	0ffH
	DB	038H
	DB	03cH
	DB	038H
	DB	0ffH
	DB	038H
	DB	03cH
	DB	038H
	DB	0ffH
	DB	038H
	DB	03cH
	DB	038H
	DB	0ffH
	DB	038H
	DB	03cH
	DB	038H
	DB	0ffH
	DB	038H
	DB	03cH
	DB	038H
	DB	0ffH
	DB	040H
	DB	03cH
	DB	040H
	DB	0ffH
	DB	038H
	DB	03cH
	DB	038H
	DB	0ffH
	DB	038H
	DB	03cH
	DB	038H
	DB	0ffH
	DB	040H
	DB	03cH
	DB	038H
	DB	0ffH
	DB	038H
	DB	03cH
	DB	038H
	DB	0ffH
	DB	038H
	DB	03cH
	DB	038H
	DB	0ffH
	DB	040H
	DB	03cH
	DB	038H
	DB	0ffH
	DB	038H
	DB	03cH
	DB	040H
	DB	0ffH
	DB	040H
	DB	03cH
	DB	038H
	DB	0ffH
	DB	038H
	DB	03cH
	DB	038H
	DB	0ffH
	DB	038H
	DB	03cH
	DB	038H
	DB	0ffH
	DB	028H
	DB	024H
	DB	020H
	DB	0ffH
	DB	020H
	DB	024H
	DB	028H
	DB	0ffH
	DB	090H
	DB	094H
	DB	090H
	DB	096H
	DB	028H
	DB	024H
	DB	020H
	DB	0ffH
	DB	028H
	DB	024H
	DB	028H
	DB	0ffH
	DB	038H
	DB	03cH
	DB	038H
	DB	0ffH
	DB	038H
	DB	03cH
	DB	038H
	DB	0ffH
	DB	040H
	DB	03cH
	DB	040H
	DB	0ffH
	DB	040H
	DB	03cH
	DB	040H
	DB	0ffH
	DB	038H
	DB	03cH
	DB	040H
	DB	0ffH
	DB	040H
	DB	03cH
	DB	038H
	DB	0ffH
	DB	038H
	DB	03cH
	DB	040H
	DB	0ffH
	DB	038H
	DB	03cH
	DB	040H
	DB	0ffH
	DB	040H
	DB	03cH
	DB	038H
	DB	0ffH
	DB	038H
	DB	03cH
	DB	038H
	DB	0ffH
	DB	038H
	DB	03cH
	DB	040H
	DB	0ffH
	DB	040H
	DB	03cH
	DB	038H
	DB	0ffH
	DB	038H
	DB	03cH
	DB	038H
	DB	0ffH
	DB	038H
	DB	03cH
	DB	040H
	DB	0ffH
	DB	040H
	DB	03cH
	DB	038H
	DB	0ffH
	DB	040H
	DB	03cH
	DB	040H
	DB	0ffH
	DB	038H
	DB	03cH
	DB	040H
	DB	0ffH
	DB	040H
	DB	03cH
	DB	038H
	DB	0ffH
	DB	040H
	DB	03cH
	DB	040H
	DB	0ffH
	DB	038H
	DB	03cH
	DB	038H
	DB	0ffH
	DB	038H
	DB	03cH
	DB	038H
	DB	0ffH
	DB	040H
	DB	03cH
	DB	040H
	DB	0ffH
	DB	038H
	DB	03cH
	DB	038H
	DB	0ffH
	DB	038H
	DB	03cH
	DB	038H
	DB	0ffH
	DB	040H
	DB	03cH
	DB	040H
	DB	0ffH
	DB	040H
	DB	03cH
	DB	038H
	DB	0ffH
	DB	038H
	DB	03cH
	DB	038H
	DB	0ffH
	DB	038H
	DB	03cH
	DB	040H
	DB	0ffH
	DB	040H
	DB	03cH
	DB	038H
	DB	0ffH
	DB	038H
	DB	03cH
	DB	038H
	DB	0ffH
	DB	038H
	DB	03cH
	DB	040H
	DB	0ffH
	DB	038H
	DB	03cH
	DB	038H
	DB	0ffH
	DB	040H
	DB	03cH
	DB	038H
	DB	0ffH
	DB	038H
	DB	03cH
	DB	040H
	DB	0ffH
	DB	038H
	DB	03cH
	DB	038H
	DB	0ffH
	DB	040H
	DB	03cH
	DB	038H
	DB	0ffH
	DB	038H
	DB	03cH
	DB	040H
	DB	0ffH
	DB	038H
	DB	03cH
	DB	038H
	DB	0ffH
	DB	040H
	DB	03cH
	DB	038H
	DB	0ffH
	DB	038H
	DB	03cH
	DB	040H
	DB	0ffH
	DB	038H
	DB	03cH
	DB	038H
	DB	0ffH
	DB	040H
	DB	03cH
	DB	038H
	DB	0ffH
	DB	038H
	DB	03cH
	DB	040H
	DB	0ffH
	DB	038H
	DB	03cH
	DB	038H
	DB	0ffH
	DB	040H
	DB	03cH
	DB	038H
	DB	0ffH
	DB	038H
	DB	03cH
	DB	040H
	DB	0ffH
	DB	038H
	DB	03cH
	DB	038H
	DB	0ffH
	DB	040H
	DB	03cH
	DB	038H
	DB	0ffH
	DB	038H
	DB	03cH
	DB	040H
	DB	0ffH
	DB	038H
	DB	03cH
	DB	038H
	DB	0ffH
	DB	040H
	DB	03cH
	DB	038H
	DB	0ffH
	DB	038H
	DB	03cH
	DB	040H
	DB	0ffH
	DB	038H
	DB	03cH
	DB	038H
	DB	0ffH
	DB	040H
	DB	03cH
	DB	038H
	DB	0ffH
	DB	038H
	DB	03cH
	DB	040H
	DB	0ffH
	DB	038H
	DB	03cH
	DB	038H
	DB	0ffH
	DB	040H
	DB	03cH
	DB	038H
	DB	0ffH
	DB	038H
	DB	03cH
	DB	040H
	DB	0ffH
	DB	038H
	DB	03cH
	DB	038H
	DB	0ffH
	DB	040H
	DB	03cH
	DB	038H
	DB	0ffH
	DB	038H
	DB	03cH
	DB	040H
	DB	0ffH
	DB	038H
	DB	03cH
	DB	038H
	DB	0ffH
	DB	040H
	DB	03cH
	DB	038H
	DB	0ffH
	DB	038H
	DB	03cH
	DB	040H
	DB	0ffH
	DB	038H
	DB	03cH
	DB	038H
	DB	0ffH
	DB	040H
	DB	03cH
	DB	038H
	DB	0ffH
	DB	038H
	DB	03cH
	DB	040H
	DB	0ffH
	DB	038H
	DB	03cH
	DB	038H
	DB	0ffH
	DB	040H
	DB	03cH
	DB	038H
	DB	0ffH
	DB	038H
	DB	03cH
	DB	040H
	DB	0ffH
	DB	038H
	DB	03cH
	DB	038H
	DB	0ffH
	DB	040H
	DB	03cH
	DB	038H
	DB	0ffH
	DB	038H
	DB	03cH
	DB	040H
	DB	0ffH
	DB	038H
	DB	03cH
	DB	038H
	DB	0ffH
	DB	040H
	DB	03cH
	DB	038H
	DB	0ffH
	DB	038H
	DB	03cH
	DB	040H
	DB	0ffH
	DB	038H
	DB	03cH
	DB	038H
	DB	0ffH
	DB	040H
	DB	03cH
	DB	038H
	DB	0ffH
	DB	038H
	DB	03cH
	DB	040H
	DB	0ffH
	DB	038H
	DB	03cH
	DB	038H
	DB	0ffH
	DB	040H
	DB	03cH
	DB	038H
	DB	0ffH
	DB	038H
	DB	03cH
	DB	040H
	DB	0ffH
	DB	038H
	DB	03cH
	DB	038H
	DB	0ffH
	DB	040H
	DB	03cH
	DB	038H
	DB	0ffH
	DB	038H
	DB	03cH
	DB	040H
	DB	0ffH
	DB	038H
	DB	03cH
	DB	038H
	DB	0ffH
	DB	040H
	DB	03cH
	DB	038H
	DB	0ffH
	DB	038H
	DB	03cH
	DB	040H
	DB	0ffH
	DB	038H
	DB	03cH
	DB	038H
	DB	0ffH
	DB	040H
	DB	03cH
	DB	038H
	DB	0ffH
	DB	038H
	DB	03cH
	DB	040H
	DB	0ffH
	DB	038H
	DB	03cH
	DB	038H
	DB	0ffH
	DB	040H
	DB	03cH
	DB	038H
	DB	0ffH
	DB	038H
	DB	03cH
	DB	040H
	DB	0ffH
	DB	038H
	DB	03cH
	DB	038H
	DB	0ffH
	DB	040H
	DB	03cH
	DB	038H
	DB	0ffH
	DB	038H
	DB	03cH
	DB	040H
	DB	0ffH
	DB	038H
	DB	03cH
	DB	038H
	DB	0ffH
	DB	040H
	DB	03cH
	DB	038H
	DB	0ffH
	DB	038H
	DB	03cH
	DB	040H
	DB	0ffH
	DB	038H
	DB	03cH
	DB	038H
	DB	0ffH
	DB	040H
	DB	03cH
	DB	038H
	DB	0ffH
	DB	038H
	DB	03cH
	DB	040H
	DB	0ffH
	DB	038H
	DB	03cH
	DB	038H
	DB	0ffH
	DB	040H
	DB	03cH
	DB	038H
	DB	0ffH
	DB	038H
	DB	03cH
	DB	040H
	DB	0ffH
	DB	038H
	DB	03cH
	DB	038H
	DB	0ffH
	DB	040H
	DB	03cH
	DB	038H
	DB	0ffH
	DB	038H
	DB	03cH
	DB	040H
	DB	0ffH
	DB	038H
	DB	03cH
	DB	038H
	DB	0ffH
	DB	040H
	DB	03cH
	DB	038H
	DB	0ffH
	DB	038H
	DB	03cH
	DB	040H
	DB	0ffH
	DB	038H
	DB	03cH
	DB	038H
	DB	0ffH
	DB	040H
	DB	03cH
	DB	038H
	DB	0ffH
	DB	038H
	DB	03cH
	DB	040H
	DB	0ffH
	DB	038H
	DB	03cH
	DB	038H
	DB	0ffH
	DB	040H
	DB	03cH
	DB	038H
	DB	0ffH
	DB	038H
	DB	03cH
	DB	040H
	DB	0ffH
	DB	038H
	DB	03cH
	DB	038H
	DB	0ffH
	DB	040H
	DB	03cH
	DB	038H
	DB	0ffH
	DB	038H
	DB	03cH
	DB	040H
	DB	0ffH
	DB	038H
	DB	03cH
	DB	038H
	DB	0ffH
	DB	040H
	DB	03cH
	DB	038H
	DB	0ffH
	DB	038H
	DB	03cH
	DB	040H
	DB	0ffH
	DB	038H
	DB	03cH
	DB	038H
	DB	0ffH
	DB	040H
	DB	03cH
	DB	038H
	DB	0ffH
	DB	038H
	DB	03cH
	DB	040H
	DB	0ffH
	DB	038H
	DB	03cH
	DB	038H
	DB	0ffH
	DB	040H
	DB	03cH
	DB	038H
	DB	0ffH
	DB	038H
	DB	03cH
	DB	040H
	DB	0ffH
	DB	038H
	DB	03cH
	DB	038H
	DB	0ffH
	DB	040H
	DB	03cH
	DB	038H
	DB	0ffH
	DB	038H
	DB	03cH
	DB	040H
	DB	0ffH
	DB	038H
	DB	03cH
	DB	038H
	DB	0ffH
	DB	040H
	DB	03cH
	DB	038H
	DB	0ffH
	DB	038H
	DB	03cH
	DB	040H
	DB	0ffH
	DB	038H
	DB	03cH
	DB	038H
	DB	0ffH
	DB	040H
	DB	03cH
	DB	038H
	DB	0ffH
	DB	038H
	DB	03cH
	DB	040H
	DB	0ffH
	DB	038H
	DB	03cH
	DB	038H
	DB	0ffH
	DB	040H
	DB	03cH
	DB	038H
	DB	0ffH
	DB	038H
	DB	03cH
	DB	040H
	DB	0ffH
	DB	038H
	DB	03cH
	DB	038H
	DB	0ffH
	DB	040H
	DB	03cH
	DB	038H
	DB	0ffH
	DB	038H
	DB	03cH
	DB	040H
	DB	0ffH
	DB	038H
	DB	03cH
	DB	038H
	DB	0ffH
	DB	040H
	DB	03cH
	DB	038H
	DB	0ffH
	DB	038H
	DB	03cH
	DB	040H
	DB	0ffH
	DB	038H
	DB	03cH
	DB	038H
	DB	0ffH
	DB	040H
	DB	03cH
	DB	038H
	DB	0ffH
	DB	038H
	DB	03cH
	DB	040H
	DB	0ffH
	DB	038H
	DB	03cH
	DB	038H
	DB	0ffH
	DB	040H
	DB	03cH
	DB	038H
	DB	0ffH
	DB	038H
	DB	03cH
	DB	040H
	DB	0ffH
	DB	038H
	DB	03cH
	DB	038H
	DB	0ffH
	DB	040H
	DB	03cH
	DB	038H
	DB	0ffH
	DB	038H
	DB	03cH
	DB	040H
	DB	0ffH
	DB	038H
	DB	03cH
	DB	038H
	DB	0ffH
	DB	040H
	DB	03cH
	DB	038H
	DB	0ffH
	DB	038H
	DB	03cH
	DB	040H
	DB	0ffH
	DB	038H
	DB	03cH
	DB	038H
	DB	0ffH
	DB	040H
	DB	03cH
	DB	038H
	DB	0ffH
	DB	038H
	DB	03cH
	DB	040H
	DB	0ffH
	DB	038H
	DB	03cH
	DB	038H
	DB	0ffH
	DB	040H
	DB	03cH
	DB	038H
	DB	0ffH
	DB	038H
	DB	03cH
	DB	040H
	DB	0ffH
	DB	038H
	DB	03cH
	DB	038H
	DB	0ffH
	DB	040H
	DB	03cH
	DB	038H
	DB	0ffH
	DB	038H
	DB	03cH
	DB	040H
	DB	0ffH
	DB	038H
	DB	03cH
	DB	038H
	DB	0ffH
	DB	040H
	DB	03cH
	DB	038H
	DB	0ffH
	DB	038H
	DB	03cH
	DB	040H
	DB	0ffH
	DB	038H
	DB	03cH
	DB	038H
	DB	0ffH
	DB	040H
	DB	03cH
	DB	038H
	DB	0ffH
	DB	038H
	DB	03cH
	DB	040H
	DB	0ffH
	DB	038H
	DB	03cH
	DB	038H
	DB	0ffH
	DB	040H
	DB	03cH
	DB	038H
	DB	0ffH
	DB	038H
	DB	03cH
	DB	040H
	DB	0ffH
	DB	038H
	DB	03cH
	DB	038H
	DB	0ffH
	DB	040H
	DB	03cH
	DB	040H
	DB	0ffH
	DB	040H
	DB	03cH
	DB	040H
	DB	0ffH
	DB	038H
	DB	03cH
	DB	038H
	DB	0ffH
	DB	038H
	DB	03cH
	DB	040H
	DB	0ffH
	DB	040H
	DB	03cH
	DB	038H
	DB	0ffH
	DB	038H
	DB	03cH
	DB	038H
	DB	0ffH
	DB	038H
	DB	03cH
	DB	040H
	DB	0ffH
	DB	040H
	DB	03cH
	DB	038H
	DB	0ffH
	DB	038H
	DB	038H
	DB	038H
	DB	0ffH
	DB	028H
	DB	024H
	DB	028H
	DB	0ffH
	DB	028H
	DB	024H
	DB	028H
	DB	0ffH
	DB	090H
	DB	094H
	DB	090H
	DB	092H
	DB	028H
	DB	024H
	DB	020H
	DB	0ffH
	DB	028H
	DB	024H
	DB	028H
	DB	0ffH
	DB	038H
	DB	038H
	DB	038H
	DB	0ffH
	DB	038H
	DB	038H
	DB	038H
	DB	0ffH
	DB	038H
	DB	038H
	DB	038H
	DB	0ffH
	DB	038H
	DB	038H
	DB	038H
	DB	0ffH
	DB	038H
	DB	038H
	DB	038H
	DB	0ffH
	DB	038H
	DB	038H
	DB	038H
	DB	0ffH
	DB	038H
	DB	038H
	DB	038H
	DB	0ffH
	DB	038H
	DB	038H
	DB	038H
	DB	0ffH
	DB	038H
	DB	03cH
	DB	038H
	DB	0ffH
	DB	040H
	DB	038H
	DB	040H
	DB	0ffH
	DB	038H
	DB	038H
	DB	038H
	DB	0ffH
	DB	038H
	DB	03cH
	DB	038H
	DB	0ffH
	DB	038H
	DB	038H
	DB	038H
	DB	0ffH
	DB	038H
	DB	038H
	DB	038H
	DB	0ffH
	DB	038H
	DB	03cH
	DB	038H
	DB	0ffH
	DB	038H
	DB	038H
	DB	038H
	DB	0ffH
	DB	038H
	DB	038H
	DB	038H
	DB	0ffH
	DB	038H
	DB	03cH
	DB	038H
	DB	0ffH
	DB	038H
	DB	038H
	DB	038H
	DB	0ffH
	DB	038H
	DB	038H
	DB	040H
	DB	0ffH
	DB	040H
	DB	03cH
	DB	038H
	DB	0ffH
	DB	038H
	DB	038H
	DB	038H
	DB	0ffH
	DB	038H
	DB	038H
	DB	040H
	DB	0ffH
	DB	038H
	DB	03cH
	DB	038H
	DB	0ffH
	DB	038H
	DB	038H
	DB	038H
	DB	0ffH
	DB	038H
	DB	03cH
	DB	038H
	DB	0ffH
	DB	040H
	DB	038H
	DB	040H
	DB	0ffH
	DB	038H
	DB	03cH
	DB	038H
	DB	0ffH
	DB	038H
	DB	038H
	DB	038H
	DB	0ffH
	DB	038H
	DB	03cH
	DB	038H
	DB	0ffH
	DB	040H
	DB	038H
	DB	040H
	DB	0ffH
	DB	038H
	DB	03cH
	DB	038H
	DB	0ffH
	DB	038H
	DB	038H
	DB	038H
	DB	0ffH
	DB	040H
	DB	038H
	DB	040H
	DB	0ffH
	DB	038H
	DB	03cH
	DB	038H
	DB	0ffH
	DB	038H
	DB	038H
	DB	038H
	DB	0ffH
	DB	038H
	DB	03cH
	DB	040H
	DB	0ffH
	DB	040H
	DB	038H
	DB	038H
	DB	0ffH
	DB	038H
	DB	03cH
	DB	038H
	DB	0ffH
	DB	038H
	DB	038H
	DB	040H
	DB	0ffH
	DB	038H
	DB	038H
	DB	038H
	DB	0ffH
	DB	040H
	DB	03cH
	DB	038H
	DB	0ffH
	DB	038H
	DB	038H
	DB	040H
	DB	0ffH
	DB	038H
	DB	03cH
	DB	038H
	DB	0ffH
	DB	040H
	DB	038H
	DB	038H
	DB	0ffH
	DB	038H
	DB	03cH
	DB	040H
	DB	0ffH
	DB	038H
	DB	038H
	DB	038H
	DB	0ffH
	DB	040H
	DB	038H
	DB	038H
	DB	0ffH
	DB	038H
	DB	03cH
	DB	040H
	DB	0ffH
	DB	038H
	DB	038H
	DB	038H
	DB	0ffH
	DB	040H
	DB	038H
	DB	038H
	DB	0ffH
	DB	038H
	DB	03cH
	DB	040H
	DB	0ffH
	DB	038H
	DB	038H
	DB	038H
	DB	0ffH
	DB	040H
	DB	03cH
	DB	038H
	DB	0ffH
	DB	038H
	DB	038H
	DB	040H
	DB	0ffH
	DB	038H
	DB	038H
	DB	038H
	DB	0ffH
	DB	040H
	DB	03cH
	DB	038H
	DB	0ffH
	DB	038H
	DB	038H
	DB	040H
	DB	0ffH
	DB	038H
	DB	03cH
	DB	038H
	DB	0ffH
	DB	040H
	DB	038H
	DB	038H
	DB	0ffH
	DB	038H
	DB	03cH
	DB	040H
	DB	0ffH
	DB	038H
	DB	038H
	DB	038H
	DB	0ffH
	DB	040H
	DB	038H
	DB	038H
	DB	0ffH
	DB	038H
	DB	03cH
	DB	040H
	DB	0ffH
	DB	038H
	DB	038H
	DB	038H
	DB	0ffH
	DB	040H
	DB	038H
	DB	038H
	DB	0ffH
	DB	038H
	DB	03cH
	DB	040H
	DB	0ffH
	DB	038H
	DB	038H
	DB	038H
	DB	0ffH
	DB	040H
	DB	03cH
	DB	038H
	DB	0ffH
	DB	038H
	DB	038H
	DB	040H
	DB	0ffH
	DB	038H
	DB	03cH
	DB	038H
	DB	0ffH
	DB	040H
	DB	038H
	DB	038H
	DB	0ffH
	DB	038H
	DB	038H
	DB	040H
	DB	0ffH
	DB	038H
	DB	03cH
	DB	038H
	DB	0ffH
	DB	040H
	DB	038H
	DB	038H
	DB	0ffH
	DB	038H
	DB	03cH
	DB	040H
	DB	0ffH
	DB	038H
	DB	038H
	DB	038H
	DB	0ffH
	DB	040H
	DB	03cH
	DB	038H
	DB	0ffH
	DB	038H
	DB	038H
	DB	040H
	DB	0ffH
	DB	038H
	DB	038H
	DB	038H
	DB	0ffH
	DB	040H
	DB	03cH
	DB	038H
	DB	0ffH
	DB	038H
	DB	038H
	DB	040H
	DB	0ffH
	DB	038H
	DB	038H
	DB	038H
	DB	0ffH
	DB	040H
	DB	03cH
	DB	038H
	DB	0ffH
	DB	038H
	DB	038H
	DB	040H
	DB	0ffH
	DB	038H
	DB	03cH
	DB	038H
	DB	0ffH
	DB	040H
	DB	038H
	DB	038H
	DB	0ffH
	DB	038H
	DB	038H
	DB	040H
	DB	0ffH
	DB	038H
	DB	03cH
	DB	038H
	DB	0ffH
	DB	040H
	DB	038H
	DB	038H
	DB	0ffH
	DB	038H
	DB	03cH
	DB	040H
	DB	0ffH
	DB	038H
	DB	038H
	DB	038H
	DB	0ffH
	DB	040H
	DB	03cH
	DB	038H
	DB	0ffH
	DB	038H
	DB	038H
	DB	040H
	DB	0ffH
	DB	038H
	DB	038H
	DB	038H
	DB	0ffH
	DB	040H
	DB	03cH
	DB	038H
	DB	0ffH
	DB	038H
	DB	038H
	DB	040H
	DB	0ffH
	DB	038H
	DB	038H
	DB	038H
	DB	0ffH
	DB	040H
	DB	03cH
	DB	038H
	DB	0ffH
	DB	038H
	DB	038H
	DB	040H
	DB	0ffH
	DB	038H
	DB	03cH
	DB	038H
	DB	0ffH
	DB	040H
	DB	038H
	DB	038H
	DB	0ffH
	DB	038H
	DB	03cH
	DB	040H
	DB	0ffH
	DB	038H
	DB	038H
	DB	038H
	DB	0ffH
	DB	040H
	DB	038H
	DB	038H
	DB	0ffH
	DB	038H
	DB	03cH
	DB	040H
	DB	0ffH
	DB	038H
	DB	038H
	DB	038H
	DB	0ffH
	DB	040H
	DB	03cH
	DB	038H
	DB	0ffH
	DB	038H
	DB	038H
	DB	040H
	DB	0ffH
	DB	038H
	DB	03cH
	DB	038H
	DB	0ffH
	DB	040H
	DB	038H
	DB	038H
	DB	0ffH
	DB	038H
	DB	038H
	DB	040H
	DB	0ffH
	DB	038H
	DB	03cH
	DB	038H
	DB	0ffH
	DB	040H
	DB	038H
	DB	038H
	DB	0ffH
	DB	038H
	DB	038H
	DB	040H
	DB	0ffH
	DB	038H
	DB	03cH
	DB	038H
	DB	0ffH
	DB	040H
	DB	038H
	DB	038H
	DB	0ffH
	DB	038H
	DB	03cH
	DB	040H
	DB	0ffH
	DB	038H
	DB	038H
	DB	038H
	DB	0ffH
	DB	040H
	DB	038H
	DB	038H
	DB	0ffH
	DB	038H
	DB	03cH
	DB	040H
	DB	0ffH
	DB	038H
	DB	038H
	DB	038H
	DB	0ffH
	DB	040H
	DB	03cH
	DB	038H
	DB	0ffH
	DB	038H
	DB	038H
	DB	040H
	DB	0ffH
	DB	038H
	DB	03cH
	DB	038H
	DB	0ffH
	DB	040H
	DB	038H
	DB	038H
	DB	0ffH
	DB	038H
	DB	038H
	DB	040H
	DB	0ffH
	DB	038H
	DB	03cH
	DB	038H
	DB	0ffH
	DB	040H
	DB	038H
	DB	038H
	DB	0ffH
	DB	038H
	DB	038H
	DB	040H
	DB	0ffH
	DB	038H
	DB	03cH
	DB	038H
	DB	0ffH
	DB	040H
	DB	038H
	DB	038H
	DB	0ffH
	DB	038H
	DB	03cH
	DB	040H
	DB	0ffH
	DB	038H
	DB	038H
	DB	038H
	DB	0ffH
	DB	040H
	DB	03cH
	DB	038H
	DB	0ffH
	DB	038H
	DB	038H
	DB	040H
	DB	0ffH
	DB	038H
	DB	038H
	DB	038H
	DB	0ffH
	DB	040H
	DB	03cH
	DB	038H
	DB	0ffH
	DB	038H
	DB	038H
	DB	040H
	DB	0ffH
	DB	038H
	DB	03cH
	DB	038H
	DB	0ffH
	DB	040H
	DB	038H
	DB	038H
	DB	0ffH
	DB	038H
	DB	03cH
	DB	040H
	DB	0ffH
	DB	038H
	DB	038H
	DB	038H
	DB	0ffH
	DB	040H
	DB	038H
	DB	038H
	DB	0ffH
	DB	038H
	DB	03cH
	DB	040H
	DB	0ffH
	DB	038H
	DB	038H
	DB	038H
	DB	0ffH
	DB	040H
	DB	038H
	DB	038H
	DB	0ffH
	DB	038H
	DB	03cH
	DB	040H
	DB	0ffH
	DB	038H
	DB	038H
	DB	038H
	DB	0ffH
	DB	040H
	DB	03cH
	DB	038H
	DB	0ffH
	DB	038H
	DB	038H
	DB	040H
	DB	0ffH
	DB	038H
	DB	038H
	DB	038H
	DB	0ffH
	DB	040H
	DB	03cH
	DB	038H
	DB	0ffH
	DB	038H
	DB	038H
	DB	040H
	DB	0ffH
	DB	038H
	DB	03cH
	DB	038H
	DB	0ffH
	DB	040H
	DB	038H
	DB	038H
	DB	0ffH
	DB	038H
	DB	03cH
	DB	040H
	DB	0ffH
	DB	038H
	DB	038H
	DB	038H
	DB	0ffH
	DB	040H
	DB	038H
	DB	038H
	DB	0ffH
	DB	038H
	DB	03cH
	DB	040H
	DB	0ffH
	DB	038H
	DB	038H
	DB	038H
	DB	0ffH
	DB	040H
	DB	038H
	DB	038H
	DB	0ffH
	DB	038H
	DB	03cH
	DB	040H
	DB	0ffH
	DB	038H
	DB	038H
	DB	038H
	DB	0ffH
	DB	040H
	DB	03cH
	DB	038H
	DB	0ffH
	DB	038H
	DB	038H
	DB	040H
	DB	0ffH
	DB	038H
	DB	03cH
	DB	038H
	DB	0ffH
	DB	040H
	DB	038H
	DB	038H
	DB	0ffH
	DB	038H
	DB	038H
	DB	040H
	DB	0ffH
	DB	038H
	DB	03cH
	DB	038H
	DB	0ffH
	DB	040H
	DB	038H
	DB	038H
	DB	0ffH
	DB	038H
	DB	038H
	DB	040H
	DB	0ffH
	DB	038H
	DB	03cH
	DB	038H
	DB	0ffH
	DB	040H
	DB	038H
	DB	038H
	DB	0ffH
	DB	038H
	DB	038H
	DB	040H
	DB	0ffH
	DB	038H
	DB	038H
	DB	038H
	DB	0ffH
	DB	038H
	DB	038H
	DB	038H
	DB	0ffH
	DB	038H
	DB	038H
	DB	038H
	DB	0ffH
	DB	038H
	DB	038H
	DB	038H
	DB	0ffH
	DB	038H
	DB	03cH
	DB	038H
	DB	0ffH
	DB	038H
	DB	038H
	DB	038H
	DB	0ffH
	DB	038H
	DB	038H
	DB	038H
	DB	0ffH
	DB	038H
	DB	038H
	DB	038H
	DB	0ffH
	DB	038H
	DB	038H
	DB	038H
	DB	0ffH
	DB	038H
	DB	038H
	DB	038H
	DB	0ffH
	DB	038H
	DB	038H
	DB	038H
	DB	0ffH
	DB	038H
	DB	03cH
	DB	040H
	DB	0ffH
	DB	038H
	DB	038H
	DB	038H
	DB	0ffH
	DB	028H
	DB	024H
	DB	028H
	DB	0ffH
	DB	028H
	DB	028H
	DB	020H
	DB	0ffH
	DB	090H
	DB	094H
	DB	090H
	DB	092H
	DB	028H
	DB	024H
	DB	028H
	DB	0ffH
	DB	028H
	DB	024H
	DB	028H
	DB	0ffH
	DB	038H
	DB	038H
	DB	038H
	DB	0ffH
	DB	038H
	DB	03cH
	DB	038H
	DB	0ffH
	DB	038H
	DB	03cH
	DB	038H
	DB	0ffH
	DB	038H
	DB	038H
	DB	038H
	DB	0ffH
	DB	040H
	DB	03cH
	DB	038H
	DB	0ffH
	DB	038H
	DB	03cH
	DB	040H
	DB	0ffH
	DB	040H
	DB	038H
	DB	038H
	DB	0ffH
	DB	038H
	DB	03cH
	DB	038H
	DB	0ffH
	DB	038H
	DB	038H
	DB	038H
	DB	0ffH
	DB	038H
	DB	03cH
	DB	038H
	DB	0ffH
	DB	040H
	DB	038H
	DB	038H
	DB	0ffH
	DB	038H
	DB	03cH
	DB	040H
	DB	0ffH
	DB	038H
	DB	03cH
	DB	038H
	DB	0ffH
	DB	040H
	DB	038H
	DB	038H
	DB	0ffH
	DB	038H
	DB	03cH
	DB	040H
	DB	0ffH
	DB	038H
	DB	03cH
	DB	038H
	DB	0ffH
	DB	040H
	DB	038H
	DB	038H
	DB	0ffH
	DB	038H
	DB	03cH
	DB	038H
	DB	0ffH
	DB	038H
	DB	038H
	DB	038H
	DB	0ffH
	DB	038H
	DB	03cH
	DB	038H
	DB	0ffH
	DB	038H
	DB	03cH
	DB	038H
	DB	0ffH
	DB	040H
	DB	038H
	DB	038H
	DB	0ffH
	DB	038H
	DB	03cH
	DB	038H
	DB	0ffH
	DB	040H
	DB	038H
	DB	040H
	DB	0ffH
	DB	038H
	DB	03cH
	DB	038H
	DB	0ffH
	DB	038H
	DB	038H
	DB	038H
	DB	0ffH
	DB	038H
	DB	03cH
	DB	038H
	DB	0ffH
	DB	040H
	DB	038H
	DB	038H
	DB	0ffH
	DB	038H
	DB	038H
	DB	038H
	DB	0ffH
	DB	038H
	DB	03cH
	DB	040H
	DB	0ffH
	DB	040H
	DB	038H
	DB	038H
	DB	0ffH
	DB	038H
	DB	03cH
	DB	038H
	DB	0ffH
	DB	038H
	DB	03cH
	DB	038H
	DB	0ffH
	DB	038H
	DB	038H
	DB	038H
	DB	0ffH
	DB	038H
	DB	03cH
	DB	038H
	DB	0ffH
	DB	038H
	DB	038H
	DB	038H
	DB	0ffH
	DB	040H
	DB	038H
	DB	038H
	DB	0ffH
	DB	038H
	DB	03cH
	DB	038H
	DB	0ffH
	DB	038H
	DB	038H
	DB	038H
	DB	0ffH
	DB	038H
	DB	03cH
	DB	038H
	DB	0ffH
	DB	040H
	DB	03cH
	DB	038H
	DB	0ffH
	DB	038H
	DB	038H
	DB	038H
	DB	0ffH
	DB	038H
	DB	03cH
	DB	038H
	DB	0ffH
	DB	038H
	DB	038H
	DB	038H
	DB	0ffH
	DB	038H
	DB	038H
	DB	038H
	DB	0ffH
	DB	038H
	DB	03cH
	DB	038H
	DB	0ffH
	DB	038H
	DB	03cH
	DB	038H
	DB	0ffH
	DB	038H
	DB	038H
	DB	038H
	DB	0ffH
	DB	038H
	DB	03cH
	DB	038H
	DB	0ffH
	DB	038H
	DB	03cH
	DB	038H
	DB	0ffH
	DB	038H
	DB	038H
	DB	038H
	DB	0ffH
	DB	038H
	DB	03cH
	DB	038H
	DB	0ffH
	DB	038H
	DB	038H
	DB	038H
	DB	0ffH
	DB	038H
	DB	03cH
	DB	038H
	DB	0ffH
	DB	038H
	DB	03cH
	DB	038H
	DB	0ffH
	DB	038H
	DB	038H
	DB	038H
	DB	0ffH
	DB	038H
	DB	03cH
	DB	038H
	DB	0ffH
	DB	038H
	DB	038H
	DB	038H
	DB	0ffH
	DB	038H
	DB	038H
	DB	038H
	DB	0ffH
	DB	038H
	DB	03cH
	DB	038H
	DB	0ffH
	DB	038H
	DB	038H
	DB	038H
	DB	0ffH
	DB	038H
	DB	03cH
	DB	038H
	DB	0ffH
	DB	038H
	DB	03cH
	DB	038H
	DB	0ffH
	DB	038H
	DB	038H
	DB	038H
	DB	0ffH
	DB	038H
	DB	03cH
	DB	038H
	DB	0ffH
	DB	038H
	DB	03cH
	DB	038H
	DB	0ffH
	DB	038H
	DB	038H
	DB	038H
	DB	0ffH
	DB	038H
	DB	038H
	DB	038H
	DB	0ffH
	DB	038H
	DB	03cH
	DB	038H
	DB	0ffH
	DB	038H
	DB	038H
	DB	038H
	DB	0ffH
	DB	038H
	DB	03cH
	DB	038H
	DB	0ffH
	DB	038H
	DB	03cH
	DB	038H
	DB	0ffH
	DB	038H
	DB	038H
	DB	038H
	DB	0ffH
	DB	038H
	DB	03cH
	DB	038H
	DB	0ffH
	DB	038H
	DB	038H
	DB	038H
	DB	0ffH
	DB	038H
	DB	038H
	DB	038H
	DB	0ffH
	DB	038H
	DB	03cH
	DB	038H
	DB	0ffH
	DB	038H
	DB	038H
	DB	038H
	DB	0ffH
	DB	038H
	DB	03cH
	DB	038H
	DB	0ffH
	DB	038H
	DB	03cH
	DB	038H
	DB	0ffH
	DB	038H
	DB	038H
	DB	038H
	DB	0ffH
	DB	038H
	DB	03cH
	DB	038H
	DB	0ffH
	DB	038H
	DB	03cH
	DB	038H
	DB	0ffH
	DB	038H
	DB	038H
	DB	038H
	DB	0ffH
	DB	038H
	DB	038H
	DB	038H
	DB	0ffH
	DB	038H
	DB	03cH
	DB	038H
	DB	0ffH
	DB	038H
	DB	03cH
	DB	038H
	DB	0ffH
	DB	038H
	DB	038H
	DB	038H
	DB	0ffH
	DB	038H
	DB	03cH
	DB	038H
	DB	0ffH
	DB	038H
	DB	038H
	DB	038H
	DB	0ffH
	DB	038H
	DB	038H
	DB	038H
	DB	0ffH
	DB	038H
	DB	03cH
	DB	038H
	DB	0ffH
	DB	038H
	DB	038H
	DB	038H
	DB	0ffH
	DB	038H
	DB	03cH
	DB	038H
	DB	0ffH
	DB	038H
	DB	03cH
	DB	038H
	DB	0ffH
	DB	038H
	DB	038H
	DB	038H
	DB	0ffH
	DB	038H
	DB	03cH
	DB	038H
	DB	0ffH
	DB	038H
	DB	03cH
	DB	038H
	DB	0ffH
	DB	038H
	DB	038H
	DB	038H
	DB	0ffH
	DB	038H
	DB	038H
	DB	038H
	DB	0ffH
	DB	038H
	DB	03cH
	DB	038H
	DB	0ffH
	DB	038H
	DB	038H
	DB	038H
	DB	0ffH
	DB	038H
	DB	03cH
	DB	038H
	DB	0ffH
	DB	038H
	DB	03cH
	DB	038H
	DB	0ffH
	DB	038H
	DB	038H
	DB	038H
	DB	0ffH
	DB	038H
	DB	03cH
	DB	038H
	DB	0ffH
	DB	038H
	DB	038H
	DB	038H
	DB	0ffH
	DB	038H
	DB	038H
	DB	038H
	DB	0ffH
	DB	038H
	DB	03cH
	DB	038H
	DB	0ffH
	DB	038H
	DB	038H
	DB	038H
	DB	0ffH
	DB	038H
	DB	03cH
	DB	038H
	DB	0ffH
	DB	038H
	DB	03cH
	DB	038H
	DB	0ffH
	DB	038H
	DB	038H
	DB	038H
	DB	0ffH
	DB	038H
	DB	03cH
	DB	038H
	DB	0ffH
	DB	038H
	DB	03cH
	DB	038H
	DB	0ffH
	DB	038H
	DB	038H
	DB	038H
	DB	0ffH
	DB	038H
	DB	038H
	DB	038H
	DB	0ffH
	DB	038H
	DB	03cH
	DB	038H
	DB	0ffH
	DB	038H
	DB	03cH
	DB	038H
	DB	0ffH
	DB	038H
	DB	038H
	DB	038H
	DB	0ffH
	DB	038H
	DB	03cH
	DB	038H
	DB	0ffH
	DB	038H
	DB	038H
	DB	038H
	DB	0ffH
	DB	038H
	DB	038H
	DB	038H
	DB	0ffH
	DB	038H
	DB	03cH
	DB	038H
	DB	0ffH
	DB	038H
	DB	038H
	DB	038H
	DB	0ffH
	DB	038H
	DB	03cH
	DB	038H
	DB	0ffH
	DB	038H
	DB	03cH
	DB	038H
	DB	0ffH
	DB	038H
	DB	038H
	DB	038H
	DB	0ffH
	DB	038H
	DB	03cH
	DB	038H
	DB	0ffH
	DB	038H
	DB	03cH
	DB	038H
	DB	0ffH
	DB	038H
	DB	038H
	DB	038H
	DB	0ffH
	DB	038H
	DB	038H
	DB	038H
	DB	0ffH
	DB	038H
	DB	03cH
	DB	038H
	DB	0ffH
	DB	038H
	DB	038H
	DB	038H
	DB	0ffH
	DB	038H
	DB	03cH
	DB	038H
	DB	0ffH
	DB	038H
	DB	03cH
	DB	038H
	DB	0ffH
	DB	038H
	DB	038H
	DB	038H
	DB	0ffH
	DB	038H
	DB	03cH
	DB	038H
	DB	0ffH
	DB	038H
	DB	038H
	DB	038H
	DB	0ffH
	DB	038H
	DB	038H
	DB	038H
	DB	0ffH
	DB	038H
	DB	03cH
	DB	038H
	DB	0ffH
	DB	038H
	DB	038H
	DB	038H
	DB	0ffH
	DB	038H
	DB	03cH
	DB	038H
	DB	0ffH
	DB	038H
	DB	03cH
	DB	038H
	DB	0ffH
	DB	038H
	DB	038H
	DB	038H
	DB	0ffH
	DB	038H
	DB	03cH
	DB	038H
	DB	0ffH
	DB	038H
	DB	03cH
	DB	038H
	DB	0ffH
	DB	038H
	DB	038H
	DB	038H
	DB	0ffH
	DB	038H
	DB	038H
	DB	038H
	DB	0ffH
	DB	038H
	DB	03cH
	DB	038H
	DB	0ffH
	DB	038H
	DB	03cH
	DB	038H
	DB	0ffH
	DB	038H
	DB	038H
	DB	038H
	DB	0ffH
	DB	038H
	DB	03cH
	DB	038H
	DB	0ffH
	DB	038H
	DB	038H
	DB	038H
	DB	0ffH
	DB	038H
	DB	038H
	DB	038H
	DB	0ffH
	DB	038H
	DB	03cH
	DB	038H
	DB	0ffH
	DB	038H
	DB	038H
	DB	038H
	DB	0ffH
	DB	038H
	DB	03cH
	DB	038H
	DB	0ffH
	DB	038H
	DB	03cH
	DB	038H
	DB	0ffH
	DB	038H
	DB	038H
	DB	038H
	DB	0ffH
	DB	038H
	DB	03cH
	DB	038H
	DB	0ffH
	DB	038H
	DB	03cH
	DB	038H
	DB	0ffH
	DB	038H
	DB	038H
	DB	038H
	DB	0ffH
	DB	038H
	DB	038H
	DB	038H
	DB	0ffH
	DB	038H
	DB	03cH
	DB	038H
	DB	0ffH
	DB	038H
	DB	038H
	DB	038H
	DB	0ffH
	DB	038H
	DB	03cH
	DB	038H
	DB	0ffH
	DB	038H
	DB	03cH
	DB	038H
	DB	0ffH
	DB	038H
	DB	038H
	DB	038H
	DB	0ffH
	DB	038H
	DB	03cH
	DB	038H
	DB	0ffH
	DB	038H
	DB	03cH
	DB	038H
	DB	0ffH
	DB	038H
	DB	038H
	DB	038H
	DB	0ffH
	DB	038H
	DB	03cH
	DB	038H
	DB	0ffH
	DB	038H
	DB	03cH
	DB	038H
	DB	0ffH
	DB	040H
	DB	038H
	DB	038H
	DB	0ffH
	DB	038H
	DB	03cH
	DB	038H
	DB	0ffH
	DB	038H
	DB	03cH
	DB	040H
	DB	0ffH
	DB	040H
	DB	038H
	DB	038H
	DB	0ffH
	DB	038H
	DB	03cH
	DB	038H
	DB	0ffH
	DB	038H
	DB	038H
	DB	038H
	DB	0ffH
	DB	040H
	DB	03cH
	DB	040H
	DB	0ffH
	DB	038H
	DB	03cH
	DB	038H
	DB	0ffH
	DB	040H
	DB	03cH
	DB	038H
	DB	0ffH
	DB	038H
	DB	03cH
	DB	040H
	DB	0ffH
	DB	040H
	DB	038H
	DB	038H
	DB	0ffH
	DB	038H
	DB	03cH
	DB	038H
	DB	0ffH
	DB	038H
	DB	03cH
	DB	038H
	DB	0ffH
	DB	038H
	DB	038H
	DB	038H
	DB	0ffH
	DB	028H
	DB	024H
	DB	028H
	DB	0ffH
	DB	020H
	DB	024H
	DB	028H
	DB	0ffH
	DB	090H
	DB	094H
	DB	090H
	DB	096H
	DB	028H
	DB	024H
	DB	020H
	DB	0ffH
	DB	028H
	DB	024H
	DB	028H
	DB	0ffH
	DB	038H
	DB	038H
	DB	038H
	DB	0ffH
	DB	038H
	DB	038H
	DB	038H
	DB	0ffH
	DB	038H
	DB	038H
	DB	038H
	DB	0ffH
	DB	038H
	DB	038H
	DB	038H
	DB	0ffH
	DB	038H
	DB	038H
	DB	038H
	DB	0ffH
	DB	038H
	DB	038H
	DB	038H
	DB	0ffH
	DB	038H
	DB	038H
	DB	038H
	DB	0ffH
	DB	038H
	DB	038H
	DB	038H
	DB	0ffH
	DB	038H
	DB	038H
	DB	040H
	DB	0ffH
	DB	038H
	DB	038H
	DB	038H
	DB	0ffH
	DB	038H
	DB	038H
	DB	038H
	DB	0ffH
	DB	038H
	DB	038H
	DB	038H
	DB	0ffH
	DB	038H
	DB	038H
	DB	038H
	DB	0ffH
	DB	038H
	DB	038H
	DB	038H
	DB	0ffH
	DB	038H
	DB	038H
	DB	038H
	DB	0ffH
	DB	038H
	DB	038H
	DB	038H
	DB	0ffH
	DB	038H
	DB	038H
	DB	038H
	DB	0ffH
	DB	038H
	DB	038H
	DB	040H
	DB	0ffH
	DB	038H
	DB	038H
	DB	038H
	DB	0ffH
	DB	038H
	DB	038H
	DB	038H
	DB	0ffH
	DB	038H
	DB	038H
	DB	038H
	DB	0ffH
	DB	038H
	DB	038H
	DB	038H
	DB	0ffH
	DB	038H
	DB	038H
	DB	038H
	DB	0ffH
	DB	038H
	DB	038H
	DB	038H
	DB	0ffH
	DB	038H
	DB	038H
	DB	038H
	DB	0ffH
	DB	038H
	DB	038H
	DB	038H
	DB	0ffH
	DB	038H
	DB	038H
	DB	038H
	DB	0ffH
	DB	038H
	DB	038H
	DB	038H
	DB	0ffH
	DB	038H
	DB	038H
	DB	038H
	DB	0ffH
	DB	038H
	DB	038H
	DB	038H
	DB	0ffH
	DB	038H
	DB	038H
	DB	038H
	DB	0ffH
	DB	038H
	DB	038H
	DB	038H
	DB	0ffH
	DB	038H
	DB	038H
	DB	038H
	DB	0ffH
	DB	038H
	DB	038H
	DB	038H
	DB	0ffH
	DB	038H
	DB	038H
	DB	038H
	DB	0ffH
	DB	038H
	DB	038H
	DB	038H
	DB	0ffH
	DB	038H
	DB	038H
	DB	038H
	DB	0ffH
	DB	038H
	DB	038H
	DB	038H
	DB	0ffH
	DB	038H
	DB	038H
	DB	038H
	DB	0ffH
	DB	038H
	DB	038H
	DB	038H
	DB	0ffH
	DB	038H
	DB	038H
	DB	038H
	DB	0ffH
	DB	038H
	DB	038H
	DB	038H
	DB	0ffH
	DB	038H
	DB	038H
	DB	038H
	DB	0ffH
	DB	038H
	DB	038H
	DB	038H
	DB	0ffH
	DB	038H
	DB	038H
	DB	038H
	DB	0ffH
	DB	038H
	DB	038H
	DB	038H
	DB	0ffH
	DB	038H
	DB	038H
	DB	038H
	DB	0ffH
	DB	038H
	DB	038H
	DB	038H
	DB	0ffH
	DB	038H
	DB	038H
	DB	038H
	DB	0ffH
	DB	038H
	DB	038H
	DB	038H
	DB	0ffH
	DB	038H
	DB	038H
	DB	038H
	DB	0ffH
	DB	038H
	DB	038H
	DB	038H
	DB	0ffH
	DB	038H
	DB	038H
	DB	038H
	DB	0ffH
	DB	038H
	DB	038H
	DB	038H
	DB	0ffH
	DB	038H
	DB	038H
	DB	038H
	DB	0ffH
	DB	038H
	DB	038H
	DB	038H
	DB	0ffH
	DB	038H
	DB	038H
	DB	038H
	DB	0ffH
	DB	038H
	DB	038H
	DB	038H
	DB	0ffH
	DB	038H
	DB	038H
	DB	038H
	DB	0ffH
	DB	038H
	DB	038H
	DB	038H
	DB	0ffH
	DB	038H
	DB	038H
	DB	038H
	DB	0ffH
	DB	038H
	DB	038H
	DB	038H
	DB	0ffH
	DB	038H
	DB	038H
	DB	038H
	DB	0ffH
	DB	038H
	DB	038H
	DB	038H
	DB	0ffH
	DB	038H
	DB	038H
	DB	038H
	DB	0ffH
	DB	038H
	DB	038H
	DB	038H
	DB	0ffH
	DB	038H
	DB	038H
	DB	038H
	DB	0ffH
	DB	038H
	DB	038H
	DB	038H
	DB	0ffH
	DB	038H
	DB	038H
	DB	038H
	DB	0ffH
	DB	038H
	DB	038H
	DB	038H
	DB	0ffH
	DB	038H
	DB	038H
	DB	038H
	DB	0ffH
	DB	038H
	DB	038H
	DB	038H
	DB	0ffH
	DB	038H
	DB	038H
	DB	038H
	DB	0ffH
	DB	038H
	DB	038H
	DB	038H
	DB	0ffH
	DB	038H
	DB	038H
	DB	038H
	DB	0ffH
	DB	038H
	DB	038H
	DB	038H
	DB	0ffH
	DB	038H
	DB	038H
	DB	038H
	DB	0ffH
	DB	038H
	DB	038H
	DB	038H
	DB	0ffH
	DB	038H
	DB	038H
	DB	038H
	DB	0ffH
	DB	038H
	DB	038H
	DB	038H
	DB	0ffH
	DB	038H
	DB	038H
	DB	038H
	DB	0ffH
	DB	038H
	DB	038H
	DB	038H
	DB	0ffH
	DB	038H
	DB	038H
	DB	038H
	DB	0ffH
	DB	038H
	DB	038H
	DB	038H
	DB	0ffH
	DB	038H
	DB	038H
	DB	038H
	DB	0ffH
	DB	038H
	DB	038H
	DB	038H
	DB	0ffH
	DB	038H
	DB	038H
	DB	038H
	DB	0ffH
	DB	038H
	DB	038H
	DB	038H
	DB	0ffH
	DB	038H
	DB	038H
	DB	038H
	DB	0ffH
	DB	038H
	DB	038H
	DB	038H
	DB	0ffH
	DB	038H
	DB	038H
	DB	038H
	DB	0ffH
	DB	038H
	DB	038H
	DB	038H
	DB	0ffH
	DB	038H
	DB	038H
	DB	038H
	DB	0ffH
	DB	038H
	DB	038H
	DB	038H
	DB	0ffH
	DB	038H
	DB	038H
	DB	038H
	DB	0ffH
	DB	038H
	DB	038H
	DB	038H
	DB	0ffH
	DB	038H
	DB	038H
	DB	038H
	DB	0ffH
	DB	038H
	DB	038H
	DB	038H
	DB	0ffH
	DB	038H
	DB	038H
	DB	038H
	DB	0ffH
	DB	038H
	DB	038H
	DB	038H
	DB	0ffH
	DB	038H
	DB	038H
	DB	038H
	DB	0ffH
	DB	038H
	DB	038H
	DB	038H
	DB	0ffH
	DB	038H
	DB	038H
	DB	038H
	DB	0ffH
	DB	038H
	DB	038H
	DB	038H
	DB	0ffH
	DB	038H
	DB	038H
	DB	038H
	DB	0ffH
	DB	038H
	DB	038H
	DB	038H
	DB	0ffH
	DB	038H
	DB	038H
	DB	038H
	DB	0ffH
	DB	038H
	DB	038H
	DB	038H
	DB	0ffH
	DB	038H
	DB	038H
	DB	038H
	DB	0ffH
	DB	038H
	DB	038H
	DB	038H
	DB	0ffH
	DB	038H
	DB	038H
	DB	038H
	DB	0ffH
	DB	038H
	DB	038H
	DB	038H
	DB	0ffH
	DB	038H
	DB	038H
	DB	038H
	DB	0ffH
	DB	038H
	DB	038H
	DB	038H
	DB	0ffH
	DB	038H
	DB	038H
	DB	038H
	DB	0ffH
	DB	038H
	DB	038H
	DB	038H
	DB	0ffH
	DB	038H
	DB	038H
	DB	038H
	DB	0ffH
	DB	038H
	DB	038H
	DB	038H
	DB	0ffH
	DB	038H
	DB	038H
	DB	038H
	DB	0ffH
	DB	038H
	DB	038H
	DB	038H
	DB	0ffH
	DB	038H
	DB	038H
	DB	038H
	DB	0ffH
	DB	038H
	DB	038H
	DB	038H
	DB	0ffH
	DB	038H
	DB	038H
	DB	038H
	DB	0ffH
	DB	038H
	DB	038H
	DB	038H
	DB	0ffH
	DB	038H
	DB	038H
	DB	038H
	DB	0ffH
	DB	038H
	DB	038H
	DB	038H
	DB	0ffH
	DB	038H
	DB	038H
	DB	038H
	DB	0ffH
	DB	038H
	DB	038H
	DB	038H
	DB	0ffH
	DB	038H
	DB	038H
	DB	038H
	DB	0ffH
	DB	038H
	DB	038H
	DB	038H
	DB	0ffH
	DB	038H
	DB	038H
	DB	038H
	DB	0ffH
	DB	038H
	DB	038H
	DB	038H
	DB	0ffH
	DB	038H
	DB	038H
	DB	038H
	DB	0ffH
	DB	038H
	DB	038H
	DB	038H
	DB	0ffH
	DB	038H
	DB	038H
	DB	038H
	DB	0ffH
	DB	038H
	DB	038H
	DB	038H
	DB	0ffH
	DB	038H
	DB	038H
	DB	038H
	DB	0ffH
	DB	038H
	DB	038H
	DB	038H
	DB	0ffH
	DB	038H
	DB	038H
	DB	038H
	DB	0ffH
	DB	038H
	DB	038H
	DB	038H
	DB	0ffH
	DB	038H
	DB	038H
	DB	038H
	DB	0ffH
	DB	038H
	DB	038H
	DB	038H
	DB	0ffH
	DB	038H
	DB	038H
	DB	038H
	DB	0ffH
	DB	038H
	DB	038H
	DB	038H
	DB	0ffH
	DB	038H
	DB	038H
	DB	038H
	DB	0ffH
	DB	038H
	DB	038H
	DB	038H
	DB	0ffH
	DB	038H
	DB	038H
	DB	038H
	DB	0ffH
	DB	038H
	DB	038H
	DB	038H
	DB	0ffH
	DB	038H
	DB	038H
	DB	038H
	DB	0ffH
	DB	038H
	DB	038H
	DB	038H
	DB	0ffH
	DB	038H
	DB	038H
	DB	038H
	DB	0ffH
	DB	038H
	DB	038H
	DB	038H
	DB	0ffH
	DB	038H
	DB	038H
	DB	038H
	DB	0ffH
	DB	038H
	DB	038H
	DB	038H
	DB	0ffH
	DB	038H
	DB	038H
	DB	038H
	DB	0ffH
	DB	038H
	DB	038H
	DB	038H
	DB	0ffH
	DB	038H
	DB	038H
	DB	038H
	DB	0ffH
	DB	038H
	DB	038H
	DB	038H
	DB	0ffH
	DB	038H
	DB	038H
	DB	038H
	DB	0ffH
	DB	038H
	DB	038H
	DB	038H
	DB	0ffH
	DB	038H
	DB	038H
	DB	038H
	DB	0ffH
	DB	038H
	DB	038H
	DB	038H
	DB	0ffH
	DB	038H
	DB	038H
	DB	038H
	DB	0ffH
	DB	038H
	DB	038H
	DB	038H
	DB	0ffH
	DB	038H
	DB	038H
	DB	038H
	DB	0ffH
	DB	038H
	DB	038H
	DB	038H
	DB	0ffH
	DB	038H
	DB	038H
	DB	038H
	DB	0ffH
	DB	038H
	DB	038H
	DB	038H
	DB	0ffH
	DB	038H
	DB	038H
	DB	038H
