; Listing generated by Microsoft (R) Optimizing Compiler Version 19.27.29112.0 

	TITLE	D:\stm_gfx_hacktues_project\smart_home_v2\smart_home\TouchGFX\generated\images\src\__designer\image_Dark_Slider_Horizontal_Medium_Slider_Round_Edge_back.cpp
	.686P
	.XMM
	include listing.inc
	.model	flat

INCLUDELIB MSVCRTD
INCLUDELIB OLDNAMES

PUBLIC	?image_dark_slider_horizontal_medium_slider_round_edge_back@@3QBEB ; image_dark_slider_horizontal_medium_slider_round_edge_back
CONST	SEGMENT
?image_dark_slider_horizontal_medium_slider_round_edge_back@@3QBEB DB 028H ; image_dark_slider_horizontal_medium_slider_round_edge_back
	DB	028H
	DB	028H
	DB	04H
	DB	028H
	DB	028H
	DB	028H
	DB	092H
	DB	028H
	DB	028H
	DB	028H
	DB	0ebH
	DB	028H
	DB	028H
	DB	028H
	DB	0ffH
	DB	028H
	DB	028H
	DB	028H
	DB	0ffH
	DB	028H
	DB	02cH
	DB	028H
	DB	0ffH
	DB	028H
	DB	028H
	DB	028H
	DB	0ffH
	DB	028H
	DB	028H
	DB	028H
	DB	0ffH
	DB	028H
	DB	02cH
	DB	028H
	DB	0ffH
	DB	028H
	DB	028H
	DB	028H
	DB	0ffH
	DB	028H
	DB	028H
	DB	028H
	DB	0ffH
	DB	028H
	DB	02cH
	DB	028H
	DB	0ffH
	DB	028H
	DB	028H
	DB	028H
	DB	0ffH
	DB	028H
	DB	028H
	DB	028H
	DB	0ffH
	DB	028H
	DB	02cH
	DB	028H
	DB	0ffH
	DB	028H
	DB	028H
	DB	028H
	DB	0ffH
	DB	028H
	DB	028H
	DB	028H
	DB	0ffH
	DB	028H
	DB	02cH
	DB	028H
	DB	0ffH
	DB	028H
	DB	028H
	DB	028H
	DB	0ffH
	DB	028H
	DB	028H
	DB	028H
	DB	0ffH
	DB	028H
	DB	02cH
	DB	028H
	DB	0ffH
	DB	028H
	DB	028H
	DB	028H
	DB	0ffH
	DB	028H
	DB	028H
	DB	028H
	DB	0ffH
	DB	028H
	DB	02cH
	DB	028H
	DB	0ffH
	DB	028H
	DB	028H
	DB	028H
	DB	0ffH
	DB	028H
	DB	028H
	DB	028H
	DB	0ffH
	DB	028H
	DB	02cH
	DB	028H
	DB	0ffH
	DB	028H
	DB	028H
	DB	028H
	DB	0ffH
	DB	028H
	DB	028H
	DB	028H
	DB	0ffH
	DB	028H
	DB	02cH
	DB	028H
	DB	0ffH
	DB	028H
	DB	028H
	DB	028H
	DB	0ffH
	DB	028H
	DB	028H
	DB	028H
	DB	0ffH
	DB	028H
	DB	02cH
	DB	028H
	DB	0ffH
	DB	028H
	DB	028H
	DB	028H
	DB	0ffH
	DB	028H
	DB	028H
	DB	028H
	DB	0ffH
	DB	028H
	DB	02cH
	DB	028H
	DB	0ffH
	DB	028H
	DB	028H
	DB	028H
	DB	0ffH
	DB	028H
	DB	028H
	DB	028H
	DB	0ffH
	DB	028H
	DB	02cH
	DB	028H
	DB	0ffH
	DB	028H
	DB	028H
	DB	028H
	DB	0ffH
	DB	028H
	DB	028H
	DB	028H
	DB	0ffH
	DB	028H
	DB	02cH
	DB	028H
	DB	0ffH
	DB	028H
	DB	028H
	DB	028H
	DB	0ffH
	DB	028H
	DB	028H
	DB	028H
	DB	0ffH
	DB	028H
	DB	02cH
	DB	028H
	DB	0ffH
	DB	028H
	DB	028H
	DB	028H
	DB	0ffH
	DB	028H
	DB	028H
	DB	028H
	DB	0ffH
	DB	028H
	DB	02cH
	DB	028H
	DB	0ffH
	DB	028H
	DB	028H
	DB	028H
	DB	0ffH
	DB	028H
	DB	028H
	DB	028H
	DB	0ffH
	DB	028H
	DB	02cH
	DB	028H
	DB	0ffH
	DB	028H
	DB	028H
	DB	028H
	DB	0ffH
	DB	028H
	DB	028H
	DB	028H
	DB	0ffH
	DB	028H
	DB	02cH
	DB	028H
	DB	0ffH
	DB	028H
	DB	028H
	DB	028H
	DB	0ffH
	DB	028H
	DB	028H
	DB	028H
	DB	0ffH
	DB	028H
	DB	02cH
	DB	028H
	DB	0ffH
	DB	028H
	DB	028H
	DB	028H
	DB	0ffH
	DB	028H
	DB	028H
	DB	028H
	DB	0ffH
	DB	028H
	DB	02cH
	DB	028H
	DB	0ffH
	DB	028H
	DB	028H
	DB	028H
	DB	0ffH
	DB	028H
	DB	028H
	DB	028H
	DB	0ffH
	DB	028H
	DB	02cH
	DB	028H
	DB	0ffH
	DB	028H
	DB	028H
	DB	028H
	DB	0ffH
	DB	028H
	DB	028H
	DB	028H
	DB	0ffH
	DB	028H
	DB	02cH
	DB	028H
	DB	0ffH
	DB	028H
	DB	028H
	DB	028H
	DB	0ffH
	DB	028H
	DB	028H
	DB	028H
	DB	0ffH
	DB	028H
	DB	02cH
	DB	028H
	DB	0ffH
	DB	028H
	DB	028H
	DB	028H
	DB	0ffH
	DB	028H
	DB	028H
	DB	028H
	DB	0ffH
	DB	028H
	DB	02cH
	DB	028H
	DB	0ffH
	DB	028H
	DB	028H
	DB	028H
	DB	0ffH
	DB	028H
	DB	028H
	DB	028H
	DB	0ffH
	DB	028H
	DB	02cH
	DB	028H
	DB	0ffH
	DB	028H
	DB	028H
	DB	028H
	DB	0ffH
	DB	028H
	DB	028H
	DB	028H
	DB	0ffH
	DB	028H
	DB	02cH
	DB	028H
	DB	0ffH
	DB	028H
	DB	028H
	DB	028H
	DB	0ffH
	DB	028H
	DB	028H
	DB	028H
	DB	0ffH
	DB	028H
	DB	02cH
	DB	028H
	DB	0ffH
	DB	028H
	DB	028H
	DB	028H
	DB	0ffH
	DB	028H
	DB	028H
	DB	028H
	DB	0ffH
	DB	028H
	DB	02cH
	DB	028H
	DB	0ffH
	DB	028H
	DB	028H
	DB	028H
	DB	0ffH
	DB	028H
	DB	028H
	DB	028H
	DB	0ffH
	DB	028H
	DB	02cH
	DB	028H
	DB	0ffH
	DB	028H
	DB	028H
	DB	028H
	DB	0ffH
	DB	028H
	DB	028H
	DB	028H
	DB	0ffH
	DB	028H
	DB	02cH
	DB	028H
	DB	0ffH
	DB	028H
	DB	028H
	DB	028H
	DB	0ffH
	DB	028H
	DB	028H
	DB	028H
	DB	0ffH
	DB	028H
	DB	02cH
	DB	028H
	DB	0ffH
	DB	028H
	DB	028H
	DB	028H
	DB	0ffH
	DB	028H
	DB	028H
	DB	028H
	DB	0ffH
	DB	028H
	DB	02cH
	DB	028H
	DB	0ffH
	DB	028H
	DB	028H
	DB	028H
	DB	0ffH
	DB	028H
	DB	028H
	DB	028H
	DB	0ffH
	DB	028H
	DB	02cH
	DB	028H
	DB	0ffH
	DB	028H
	DB	028H
	DB	028H
	DB	0ffH
	DB	028H
	DB	028H
	DB	028H
	DB	0ffH
	DB	028H
	DB	02cH
	DB	028H
	DB	0ffH
	DB	028H
	DB	028H
	DB	028H
	DB	0ffH
	DB	028H
	DB	028H
	DB	028H
	DB	0ffH
	DB	028H
	DB	02cH
	DB	028H
	DB	0ffH
	DB	028H
	DB	028H
	DB	028H
	DB	0ffH
	DB	028H
	DB	028H
	DB	028H
	DB	0ffH
	DB	028H
	DB	02cH
	DB	028H
	DB	0ffH
	DB	028H
	DB	028H
	DB	028H
	DB	0ffH
	DB	028H
	DB	028H
	DB	028H
	DB	0ffH
	DB	028H
	DB	02cH
	DB	028H
	DB	0ffH
	DB	028H
	DB	028H
	DB	028H
	DB	0ffH
	DB	028H
	DB	028H
	DB	028H
	DB	0ffH
	DB	028H
	DB	02cH
	DB	028H
	DB	0ffH
	DB	028H
	DB	028H
	DB	028H
	DB	0ffH
	DB	028H
	DB	028H
	DB	028H
	DB	0ffH
	DB	028H
	DB	02cH
	DB	028H
	DB	0ffH
	DB	028H
	DB	028H
	DB	028H
	DB	0ffH
	DB	028H
	DB	028H
	DB	028H
	DB	0ffH
	DB	028H
	DB	02cH
	DB	028H
	DB	0ffH
	DB	028H
	DB	028H
	DB	028H
	DB	0ffH
	DB	028H
	DB	028H
	DB	028H
	DB	0ffH
	DB	028H
	DB	02cH
	DB	028H
	DB	0ffH
	DB	028H
	DB	028H
	DB	028H
	DB	0ffH
	DB	028H
	DB	028H
	DB	028H
	DB	0ffH
	DB	028H
	DB	02cH
	DB	028H
	DB	0ffH
	DB	028H
	DB	028H
	DB	028H
	DB	0ffH
	DB	028H
	DB	028H
	DB	028H
	DB	0ffH
	DB	028H
	DB	02cH
	DB	028H
	DB	0ffH
	DB	028H
	DB	028H
	DB	028H
	DB	0ffH
	DB	028H
	DB	028H
	DB	028H
	DB	0ffH
	DB	028H
	DB	02cH
	DB	028H
	DB	0ffH
	DB	028H
	DB	028H
	DB	028H
	DB	0ffH
	DB	028H
	DB	028H
	DB	028H
	DB	0ffH
	DB	028H
	DB	02cH
	DB	028H
	DB	0ffH
	DB	028H
	DB	028H
	DB	028H
	DB	0ffH
	DB	028H
	DB	028H
	DB	028H
	DB	0ffH
	DB	028H
	DB	02cH
	DB	028H
	DB	0ffH
	DB	028H
	DB	028H
	DB	028H
	DB	0ffH
	DB	028H
	DB	028H
	DB	028H
	DB	0ffH
	DB	028H
	DB	02cH
	DB	028H
	DB	0ffH
	DB	028H
	DB	028H
	DB	028H
	DB	0ffH
	DB	028H
	DB	028H
	DB	028H
	DB	0ffH
	DB	028H
	DB	02cH
	DB	028H
	DB	0ffH
	DB	028H
	DB	028H
	DB	028H
	DB	0ffH
	DB	028H
	DB	028H
	DB	028H
	DB	0ffH
	DB	028H
	DB	02cH
	DB	028H
	DB	0ffH
	DB	028H
	DB	028H
	DB	028H
	DB	0ffH
	DB	028H
	DB	028H
	DB	028H
	DB	0ffH
	DB	028H
	DB	02cH
	DB	028H
	DB	0ffH
	DB	028H
	DB	028H
	DB	028H
	DB	0ffH
	DB	028H
	DB	028H
	DB	028H
	DB	0ffH
	DB	028H
	DB	02cH
	DB	028H
	DB	0ffH
	DB	028H
	DB	028H
	DB	028H
	DB	0ffH
	DB	028H
	DB	028H
	DB	028H
	DB	0ffH
	DB	028H
	DB	02cH
	DB	028H
	DB	0ffH
	DB	028H
	DB	028H
	DB	028H
	DB	0ffH
	DB	028H
	DB	028H
	DB	028H
	DB	0ffH
	DB	028H
	DB	02cH
	DB	028H
	DB	0ffH
	DB	028H
	DB	028H
	DB	028H
	DB	0ffH
	DB	028H
	DB	028H
	DB	028H
	DB	0ffH
	DB	028H
	DB	02cH
	DB	028H
	DB	0ffH
	DB	028H
	DB	028H
	DB	028H
	DB	0ffH
	DB	028H
	DB	028H
	DB	028H
	DB	0ffH
	DB	028H
	DB	02cH
	DB	028H
	DB	0ffH
	DB	028H
	DB	028H
	DB	028H
	DB	0ffH
	DB	028H
	DB	028H
	DB	028H
	DB	0ffH
	DB	028H
	DB	02cH
	DB	028H
	DB	0ffH
	DB	028H
	DB	028H
	DB	028H
	DB	0ffH
	DB	028H
	DB	028H
	DB	028H
	DB	0ffH
	DB	028H
	DB	02cH
	DB	028H
	DB	0ffH
	DB	028H
	DB	028H
	DB	028H
	DB	0ffH
	DB	028H
	DB	028H
	DB	028H
	DB	0ffH
	DB	028H
	DB	02cH
	DB	028H
	DB	0ffH
	DB	028H
	DB	028H
	DB	028H
	DB	0ffH
	DB	028H
	DB	028H
	DB	028H
	DB	0ffH
	DB	028H
	DB	02cH
	DB	028H
	DB	0ffH
	DB	028H
	DB	028H
	DB	028H
	DB	0ffH
	DB	028H
	DB	028H
	DB	028H
	DB	0ffH
	DB	028H
	DB	02cH
	DB	028H
	DB	0ffH
	DB	028H
	DB	028H
	DB	028H
	DB	0ffH
	DB	028H
	DB	028H
	DB	028H
	DB	0ffH
	DB	028H
	DB	02cH
	DB	028H
	DB	0ffH
	DB	028H
	DB	028H
	DB	028H
	DB	0ffH
	DB	028H
	DB	028H
	DB	028H
	DB	0ffH
	DB	028H
	DB	02cH
	DB	028H
	DB	0ffH
	DB	028H
	DB	028H
	DB	028H
	DB	0ffH
	DB	028H
	DB	028H
	DB	028H
	DB	0ffH
	DB	028H
	DB	02cH
	DB	028H
	DB	0ffH
	DB	028H
	DB	028H
	DB	028H
	DB	0ffH
	DB	028H
	DB	028H
	DB	028H
	DB	0ffH
	DB	028H
	DB	02cH
	DB	028H
	DB	0ffH
	DB	028H
	DB	028H
	DB	028H
	DB	0ffH
	DB	028H
	DB	028H
	DB	028H
	DB	0ffH
	DB	028H
	DB	02cH
	DB	028H
	DB	0ffH
	DB	028H
	DB	028H
	DB	028H
	DB	0ffH
	DB	028H
	DB	028H
	DB	028H
	DB	0ffH
	DB	028H
	DB	02cH
	DB	028H
	DB	0ffH
	DB	028H
	DB	028H
	DB	028H
	DB	0ffH
	DB	028H
	DB	028H
	DB	028H
	DB	0ffH
	DB	028H
	DB	02cH
	DB	028H
	DB	0ffH
	DB	028H
	DB	028H
	DB	028H
	DB	0ffH
	DB	028H
	DB	028H
	DB	028H
	DB	0ffH
	DB	028H
	DB	02cH
	DB	028H
	DB	0ffH
	DB	028H
	DB	028H
	DB	028H
	DB	0ffH
	DB	028H
	DB	028H
	DB	028H
	DB	0ffH
	DB	028H
	DB	02cH
	DB	028H
	DB	0ffH
	DB	028H
	DB	028H
	DB	028H
	DB	0ffH
	DB	028H
	DB	028H
	DB	028H
	DB	0ffH
	DB	028H
	DB	02cH
	DB	028H
	DB	0ffH
	DB	028H
	DB	028H
	DB	028H
	DB	0ffH
	DB	028H
	DB	028H
	DB	028H
	DB	0ffH
	DB	028H
	DB	02cH
	DB	028H
	DB	0ffH
	DB	028H
	DB	028H
	DB	028H
	DB	0ffH
	DB	028H
	DB	028H
	DB	028H
	DB	0ffH
	DB	028H
	DB	02cH
	DB	028H
	DB	0ffH
	DB	028H
	DB	028H
	DB	028H
	DB	0ffH
	DB	028H
	DB	028H
	DB	028H
	DB	0ffH
	DB	028H
	DB	02cH
	DB	028H
	DB	0ffH
	DB	028H
	DB	028H
	DB	028H
	DB	0ffH
	DB	028H
	DB	028H
	DB	028H
	DB	0ffH
	DB	028H
	DB	02cH
	DB	028H
	DB	0ffH
	DB	028H
	DB	028H
	DB	028H
	DB	0ffH
	DB	028H
	DB	028H
	DB	028H
	DB	0ffH
	DB	028H
	DB	02cH
	DB	028H
	DB	0ffH
	DB	028H
	DB	028H
	DB	028H
	DB	0ffH
	DB	028H
	DB	028H
	DB	028H
	DB	0ffH
	DB	028H
	DB	02cH
	DB	028H
	DB	0ffH
	DB	028H
	DB	028H
	DB	028H
	DB	0ffH
	DB	028H
	DB	028H
	DB	028H
	DB	0ffH
	DB	028H
	DB	02cH
	DB	028H
	DB	0ffH
	DB	028H
	DB	028H
	DB	028H
	DB	0ffH
	DB	028H
	DB	028H
	DB	028H
	DB	0ffH
	DB	028H
	DB	02cH
	DB	028H
	DB	0ffH
	DB	028H
	DB	028H
	DB	028H
	DB	0ffH
	DB	028H
	DB	028H
	DB	028H
	DB	0ffH
	DB	028H
	DB	02cH
	DB	028H
	DB	0ffH
	DB	028H
	DB	028H
	DB	028H
	DB	0ffH
	DB	028H
	DB	028H
	DB	028H
	DB	0ffH
	DB	028H
	DB	02cH
	DB	028H
	DB	0ffH
	DB	028H
	DB	028H
	DB	028H
	DB	0ffH
	DB	028H
	DB	028H
	DB	028H
	DB	0ffH
	DB	028H
	DB	02cH
	DB	028H
	DB	0ffH
	DB	028H
	DB	028H
	DB	028H
	DB	0ffH
	DB	028H
	DB	028H
	DB	028H
	DB	0ffH
	DB	028H
	DB	02cH
	DB	028H
	DB	0ffH
	DB	028H
	DB	028H
	DB	028H
	DB	0ffH
	DB	028H
	DB	028H
	DB	028H
	DB	0ffH
	DB	028H
	DB	02cH
	DB	028H
	DB	0ffH
	DB	028H
	DB	028H
	DB	028H
	DB	0ffH
	DB	028H
	DB	028H
	DB	028H
	DB	0ffH
	DB	028H
	DB	02cH
	DB	028H
	DB	0ffH
	DB	028H
	DB	028H
	DB	028H
	DB	0ffH
	DB	028H
	DB	028H
	DB	028H
	DB	0ffH
	DB	028H
	DB	02cH
	DB	028H
	DB	0ffH
	DB	028H
	DB	028H
	DB	028H
	DB	0ffH
	DB	028H
	DB	028H
	DB	028H
	DB	0ffH
	DB	028H
	DB	02cH
	DB	028H
	DB	0ffH
	DB	028H
	DB	028H
	DB	028H
	DB	0ffH
	DB	028H
	DB	028H
	DB	028H
	DB	0ffH
	DB	028H
	DB	02cH
	DB	028H
	DB	0ffH
	DB	028H
	DB	028H
	DB	028H
	DB	0ffH
	DB	028H
	DB	028H
	DB	028H
	DB	0ffH
	DB	028H
	DB	02cH
	DB	028H
	DB	0ffH
	DB	028H
	DB	028H
	DB	028H
	DB	0ffH
	DB	028H
	DB	028H
	DB	028H
	DB	0ffH
	DB	028H
	DB	02cH
	DB	028H
	DB	0ffH
	DB	028H
	DB	028H
	DB	028H
	DB	0ffH
	DB	028H
	DB	028H
	DB	028H
	DB	0ffH
	DB	028H
	DB	02cH
	DB	028H
	DB	0ffH
	DB	028H
	DB	028H
	DB	028H
	DB	0ffH
	DB	028H
	DB	028H
	DB	028H
	DB	0ffH
	DB	028H
	DB	02cH
	DB	028H
	DB	0ffH
	DB	028H
	DB	028H
	DB	028H
	DB	0ffH
	DB	028H
	DB	028H
	DB	028H
	DB	0ffH
	DB	028H
	DB	02cH
	DB	028H
	DB	0ffH
	DB	028H
	DB	028H
	DB	028H
	DB	0ffH
	DB	028H
	DB	028H
	DB	028H
	DB	0ffH
	DB	028H
	DB	02cH
	DB	028H
	DB	0ffH
	DB	028H
	DB	028H
	DB	028H
	DB	0ffH
	DB	028H
	DB	028H
	DB	028H
	DB	0ffH
	DB	028H
	DB	02cH
	DB	028H
	DB	0ffH
	DB	028H
	DB	028H
	DB	028H
	DB	0ffH
	DB	028H
	DB	028H
	DB	028H
	DB	0ffH
	DB	028H
	DB	02cH
	DB	028H
	DB	0ffH
	DB	028H
	DB	028H
	DB	028H
	DB	0ffH
	DB	028H
	DB	028H
	DB	028H
	DB	0ffH
	DB	028H
	DB	02cH
	DB	028H
	DB	0ffH
	DB	028H
	DB	028H
	DB	028H
	DB	0ffH
	DB	028H
	DB	028H
	DB	028H
	DB	0ffH
	DB	028H
	DB	02cH
	DB	028H
	DB	0ffH
	DB	028H
	DB	028H
	DB	028H
	DB	0ffH
	DB	028H
	DB	028H
	DB	028H
	DB	0ffH
	DB	028H
	DB	02cH
	DB	028H
	DB	0ffH
	DB	028H
	DB	028H
	DB	028H
	DB	0ffH
	DB	028H
	DB	028H
	DB	028H
	DB	0ffH
	DB	028H
	DB	02cH
	DB	028H
	DB	0ffH
	DB	028H
	DB	028H
	DB	028H
	DB	0ffH
	DB	028H
	DB	028H
	DB	028H
	DB	0ffH
	DB	028H
	DB	02cH
	DB	028H
	DB	0ffH
	DB	028H
	DB	028H
	DB	028H
	DB	0ffH
	DB	028H
	DB	028H
	DB	028H
	DB	0ffH
	DB	028H
	DB	02cH
	DB	028H
	DB	0ffH
	DB	028H
	DB	028H
	DB	028H
	DB	0ffH
	DB	028H
	DB	028H
	DB	028H
	DB	0ffH
	DB	028H
	DB	02cH
	DB	028H
	DB	0ffH
	DB	028H
	DB	028H
	DB	028H
	DB	0ffH
	DB	028H
	DB	028H
	DB	028H
	DB	0ffH
	DB	028H
	DB	02cH
	DB	028H
	DB	0ffH
	DB	028H
	DB	028H
	DB	028H
	DB	0ffH
	DB	028H
	DB	028H
	DB	028H
	DB	0ffH
	DB	028H
	DB	02cH
	DB	028H
	DB	0ffH
	DB	028H
	DB	028H
	DB	028H
	DB	0ffH
	DB	028H
	DB	028H
	DB	028H
	DB	0ffH
	DB	028H
	DB	02cH
	DB	028H
	DB	0ffH
	DB	028H
	DB	028H
	DB	028H
	DB	0ffH
	DB	028H
	DB	028H
	DB	028H
	DB	0ffH
	DB	028H
	DB	02cH
	DB	028H
	DB	0ffH
	DB	028H
	DB	028H
	DB	028H
	DB	0ffH
	DB	028H
	DB	028H
	DB	028H
	DB	0ffH
	DB	028H
	DB	02cH
	DB	028H
	DB	0ffH
	DB	028H
	DB	028H
	DB	028H
	DB	0ffH
	DB	028H
	DB	028H
	DB	028H
	DB	0ffH
	DB	028H
	DB	02cH
	DB	028H
	DB	0ffH
	DB	028H
	DB	028H
	DB	028H
	DB	0ffH
	DB	028H
	DB	028H
	DB	028H
	DB	0ffH
	DB	028H
	DB	02cH
	DB	028H
	DB	0ffH
	DB	028H
	DB	028H
	DB	028H
	DB	0ffH
	DB	028H
	DB	028H
	DB	028H
	DB	0ffH
	DB	028H
	DB	02cH
	DB	028H
	DB	0ffH
	DB	028H
	DB	028H
	DB	028H
	DB	0ffH
	DB	028H
	DB	028H
	DB	028H
	DB	0ffH
	DB	028H
	DB	02cH
	DB	028H
	DB	0ffH
	DB	028H
	DB	028H
	DB	028H
	DB	0ffH
	DB	028H
	DB	028H
	DB	028H
	DB	0ffH
	DB	028H
	DB	02cH
	DB	028H
	DB	0ffH
	DB	028H
	DB	028H
	DB	028H
	DB	0ffH
	DB	028H
	DB	028H
	DB	028H
	DB	0ffH
	DB	028H
	DB	02cH
	DB	028H
	DB	0ffH
	DB	028H
	DB	028H
	DB	028H
	DB	0ffH
	DB	028H
	DB	028H
	DB	028H
	DB	0ffH
	DB	028H
	DB	02cH
	DB	028H
	DB	0ffH
	DB	028H
	DB	028H
	DB	028H
	DB	0ffH
	DB	028H
	DB	028H
	DB	028H
	DB	0ffH
	DB	028H
	DB	02cH
	DB	028H
	DB	0ffH
	DB	028H
	DB	028H
	DB	028H
	DB	0ffH
	DB	028H
	DB	028H
	DB	028H
	DB	0ffH
	DB	028H
	DB	02cH
	DB	028H
	DB	0ffH
	DB	028H
	DB	028H
	DB	028H
	DB	0ffH
	DB	028H
	DB	028H
	DB	028H
	DB	0efH
	DB	028H
	DB	028H
	DB	028H
	DB	092H
	DB	028H
	DB	028H
	DB	028H
	DB	04H
	DB	028H
	DB	02cH
	DB	028H
	DB	092H
	DB	028H
	DB	028H
	DB	028H
	DB	0ffH
	DB	030H
	DB	02cH
	DB	030H
	DB	0ffH
	DB	030H
	DB	02cH
	DB	030H
	DB	0ffH
	DB	028H
	DB	02cH
	DB	028H
	DB	0ffH
	DB	030H
	DB	02cH
	DB	030H
	DB	0ffH
	DB	030H
	DB	02cH
	DB	030H
	DB	0ffH
	DB	030H
	DB	02cH
	DB	030H
	DB	0ffH
	DB	030H
	DB	02cH
	DB	030H
	DB	0ffH
	DB	030H
	DB	02cH
	DB	030H
	DB	0ffH
	DB	030H
	DB	02cH
	DB	030H
	DB	0ffH
	DB	030H
	DB	02cH
	DB	030H
	DB	0ffH
	DB	030H
	DB	02cH
	DB	030H
	DB	0ffH
	DB	030H
	DB	02cH
	DB	030H
	DB	0ffH
	DB	030H
	DB	02cH
	DB	030H
	DB	0ffH
	DB	030H
	DB	02cH
	DB	030H
	DB	0ffH
	DB	030H
	DB	02cH
	DB	030H
	DB	0ffH
	DB	030H
	DB	02cH
	DB	030H
	DB	0ffH
	DB	030H
	DB	02cH
	DB	030H
	DB	0ffH
	DB	030H
	DB	02cH
	DB	030H
	DB	0ffH
	DB	030H
	DB	02cH
	DB	030H
	DB	0ffH
	DB	030H
	DB	02cH
	DB	030H
	DB	0ffH
	DB	030H
	DB	02cH
	DB	030H
	DB	0ffH
	DB	030H
	DB	02cH
	DB	030H
	DB	0ffH
	DB	030H
	DB	02cH
	DB	030H
	DB	0ffH
	DB	030H
	DB	02cH
	DB	030H
	DB	0ffH
	DB	030H
	DB	02cH
	DB	030H
	DB	0ffH
	DB	030H
	DB	02cH
	DB	030H
	DB	0ffH
	DB	030H
	DB	02cH
	DB	030H
	DB	0ffH
	DB	030H
	DB	02cH
	DB	030H
	DB	0ffH
	DB	030H
	DB	02cH
	DB	030H
	DB	0ffH
	DB	030H
	DB	02cH
	DB	030H
	DB	0ffH
	DB	030H
	DB	02cH
	DB	030H
	DB	0ffH
	DB	030H
	DB	02cH
	DB	030H
	DB	0ffH
	DB	030H
	DB	02cH
	DB	030H
	DB	0ffH
	DB	030H
	DB	02cH
	DB	030H
	DB	0ffH
	DB	030H
	DB	02cH
	DB	030H
	DB	0ffH
	DB	030H
	DB	02cH
	DB	030H
	DB	0ffH
	DB	030H
	DB	02cH
	DB	030H
	DB	0ffH
	DB	030H
	DB	02cH
	DB	030H
	DB	0ffH
	DB	030H
	DB	02cH
	DB	030H
	DB	0ffH
	DB	030H
	DB	02cH
	DB	030H
	DB	0ffH
	DB	030H
	DB	02cH
	DB	030H
	DB	0ffH
	DB	030H
	DB	02cH
	DB	030H
	DB	0ffH
	DB	030H
	DB	02cH
	DB	030H
	DB	0ffH
	DB	030H
	DB	02cH
	DB	030H
	DB	0ffH
	DB	030H
	DB	02cH
	DB	030H
	DB	0ffH
	DB	030H
	DB	02cH
	DB	030H
	DB	0ffH
	DB	030H
	DB	02cH
	DB	030H
	DB	0ffH
	DB	030H
	DB	02cH
	DB	030H
	DB	0ffH
	DB	030H
	DB	02cH
	DB	030H
	DB	0ffH
	DB	030H
	DB	02cH
	DB	030H
	DB	0ffH
	DB	030H
	DB	02cH
	DB	030H
	DB	0ffH
	DB	030H
	DB	02cH
	DB	030H
	DB	0ffH
	DB	030H
	DB	02cH
	DB	030H
	DB	0ffH
	DB	030H
	DB	02cH
	DB	030H
	DB	0ffH
	DB	030H
	DB	02cH
	DB	030H
	DB	0ffH
	DB	030H
	DB	02cH
	DB	030H
	DB	0ffH
	DB	030H
	DB	02cH
	DB	030H
	DB	0ffH
	DB	030H
	DB	02cH
	DB	030H
	DB	0ffH
	DB	030H
	DB	02cH
	DB	030H
	DB	0ffH
	DB	030H
	DB	02cH
	DB	030H
	DB	0ffH
	DB	030H
	DB	02cH
	DB	030H
	DB	0ffH
	DB	030H
	DB	02cH
	DB	030H
	DB	0ffH
	DB	030H
	DB	02cH
	DB	030H
	DB	0ffH
	DB	030H
	DB	02cH
	DB	030H
	DB	0ffH
	DB	030H
	DB	02cH
	DB	030H
	DB	0ffH
	DB	030H
	DB	02cH
	DB	030H
	DB	0ffH
	DB	030H
	DB	02cH
	DB	030H
	DB	0ffH
	DB	030H
	DB	02cH
	DB	030H
	DB	0ffH
	DB	030H
	DB	02cH
	DB	030H
	DB	0ffH
	DB	030H
	DB	02cH
	DB	030H
	DB	0ffH
	DB	030H
	DB	02cH
	DB	030H
	DB	0ffH
	DB	030H
	DB	02cH
	DB	030H
	DB	0ffH
	DB	030H
	DB	02cH
	DB	030H
	DB	0ffH
	DB	030H
	DB	02cH
	DB	030H
	DB	0ffH
	DB	030H
	DB	02cH
	DB	030H
	DB	0ffH
	DB	030H
	DB	02cH
	DB	030H
	DB	0ffH
	DB	030H
	DB	02cH
	DB	030H
	DB	0ffH
	DB	030H
	DB	02cH
	DB	030H
	DB	0ffH
	DB	030H
	DB	02cH
	DB	030H
	DB	0ffH
	DB	030H
	DB	02cH
	DB	030H
	DB	0ffH
	DB	030H
	DB	02cH
	DB	030H
	DB	0ffH
	DB	030H
	DB	02cH
	DB	030H
	DB	0ffH
	DB	030H
	DB	02cH
	DB	030H
	DB	0ffH
	DB	030H
	DB	02cH
	DB	030H
	DB	0ffH
	DB	030H
	DB	02cH
	DB	030H
	DB	0ffH
	DB	030H
	DB	02cH
	DB	030H
	DB	0ffH
	DB	030H
	DB	02cH
	DB	030H
	DB	0ffH
	DB	030H
	DB	02cH
	DB	030H
	DB	0ffH
	DB	030H
	DB	02cH
	DB	030H
	DB	0ffH
	DB	030H
	DB	02cH
	DB	030H
	DB	0ffH
	DB	030H
	DB	02cH
	DB	030H
	DB	0ffH
	DB	030H
	DB	02cH
	DB	030H
	DB	0ffH
	DB	030H
	DB	02cH
	DB	030H
	DB	0ffH
	DB	030H
	DB	02cH
	DB	030H
	DB	0ffH
	DB	030H
	DB	02cH
	DB	030H
	DB	0ffH
	DB	030H
	DB	02cH
	DB	030H
	DB	0ffH
	DB	030H
	DB	02cH
	DB	030H
	DB	0ffH
	DB	030H
	DB	02cH
	DB	030H
	DB	0ffH
	DB	030H
	DB	02cH
	DB	030H
	DB	0ffH
	DB	030H
	DB	02cH
	DB	030H
	DB	0ffH
	DB	030H
	DB	02cH
	DB	030H
	DB	0ffH
	DB	030H
	DB	02cH
	DB	030H
	DB	0ffH
	DB	030H
	DB	02cH
	DB	030H
	DB	0ffH
	DB	030H
	DB	02cH
	DB	030H
	DB	0ffH
	DB	030H
	DB	02cH
	DB	030H
	DB	0ffH
	DB	030H
	DB	02cH
	DB	030H
	DB	0ffH
	DB	030H
	DB	02cH
	DB	030H
	DB	0ffH
	DB	030H
	DB	02cH
	DB	030H
	DB	0ffH
	DB	030H
	DB	02cH
	DB	030H
	DB	0ffH
	DB	030H
	DB	02cH
	DB	030H
	DB	0ffH
	DB	030H
	DB	02cH
	DB	030H
	DB	0ffH
	DB	030H
	DB	02cH
	DB	030H
	DB	0ffH
	DB	030H
	DB	02cH
	DB	030H
	DB	0ffH
	DB	030H
	DB	02cH
	DB	030H
	DB	0ffH
	DB	030H
	DB	02cH
	DB	030H
	DB	0ffH
	DB	030H
	DB	02cH
	DB	030H
	DB	0ffH
	DB	030H
	DB	02cH
	DB	030H
	DB	0ffH
	DB	030H
	DB	02cH
	DB	030H
	DB	0ffH
	DB	030H
	DB	02cH
	DB	030H
	DB	0ffH
	DB	030H
	DB	02cH
	DB	030H
	DB	0ffH
	DB	030H
	DB	02cH
	DB	030H
	DB	0ffH
	DB	030H
	DB	02cH
	DB	030H
	DB	0ffH
	DB	030H
	DB	02cH
	DB	030H
	DB	0ffH
	DB	030H
	DB	02cH
	DB	030H
	DB	0ffH
	DB	030H
	DB	02cH
	DB	030H
	DB	0ffH
	DB	030H
	DB	02cH
	DB	030H
	DB	0ffH
	DB	030H
	DB	02cH
	DB	030H
	DB	0ffH
	DB	030H
	DB	02cH
	DB	030H
	DB	0ffH
	DB	030H
	DB	02cH
	DB	030H
	DB	0ffH
	DB	030H
	DB	02cH
	DB	030H
	DB	0ffH
	DB	030H
	DB	02cH
	DB	030H
	DB	0ffH
	DB	030H
	DB	02cH
	DB	030H
	DB	0ffH
	DB	030H
	DB	02cH
	DB	030H
	DB	0ffH
	DB	030H
	DB	02cH
	DB	030H
	DB	0ffH
	DB	030H
	DB	02cH
	DB	030H
	DB	0ffH
	DB	030H
	DB	02cH
	DB	030H
	DB	0ffH
	DB	030H
	DB	02cH
	DB	030H
	DB	0ffH
	DB	030H
	DB	02cH
	DB	030H
	DB	0ffH
	DB	030H
	DB	02cH
	DB	030H
	DB	0ffH
	DB	030H
	DB	02cH
	DB	030H
	DB	0ffH
	DB	030H
	DB	02cH
	DB	030H
	DB	0ffH
	DB	030H
	DB	02cH
	DB	030H
	DB	0ffH
	DB	030H
	DB	02cH
	DB	030H
	DB	0ffH
	DB	030H
	DB	02cH
	DB	030H
	DB	0ffH
	DB	030H
	DB	02cH
	DB	030H
	DB	0ffH
	DB	030H
	DB	02cH
	DB	030H
	DB	0ffH
	DB	030H
	DB	02cH
	DB	030H
	DB	0ffH
	DB	030H
	DB	02cH
	DB	030H
	DB	0ffH
	DB	030H
	DB	02cH
	DB	030H
	DB	0ffH
	DB	030H
	DB	02cH
	DB	030H
	DB	0ffH
	DB	030H
	DB	02cH
	DB	030H
	DB	0ffH
	DB	030H
	DB	02cH
	DB	030H
	DB	0ffH
	DB	030H
	DB	02cH
	DB	030H
	DB	0ffH
	DB	030H
	DB	02cH
	DB	030H
	DB	0ffH
	DB	030H
	DB	02cH
	DB	030H
	DB	0ffH
	DB	030H
	DB	02cH
	DB	030H
	DB	0ffH
	DB	030H
	DB	02cH
	DB	030H
	DB	0ffH
	DB	030H
	DB	02cH
	DB	030H
	DB	0ffH
	DB	030H
	DB	02cH
	DB	030H
	DB	0ffH
	DB	030H
	DB	02cH
	DB	030H
	DB	0ffH
	DB	030H
	DB	02cH
	DB	030H
	DB	0ffH
	DB	030H
	DB	02cH
	DB	030H
	DB	0ffH
	DB	030H
	DB	02cH
	DB	030H
	DB	0ffH
	DB	030H
	DB	02cH
	DB	030H
	DB	0ffH
	DB	030H
	DB	02cH
	DB	030H
	DB	0ffH
	DB	030H
	DB	02cH
	DB	030H
	DB	0ffH
	DB	030H
	DB	02cH
	DB	030H
	DB	0ffH
	DB	030H
	DB	02cH
	DB	030H
	DB	0ffH
	DB	030H
	DB	02cH
	DB	030H
	DB	0ffH
	DB	030H
	DB	02cH
	DB	030H
	DB	0ffH
	DB	030H
	DB	02cH
	DB	030H
	DB	0ffH
	DB	030H
	DB	02cH
	DB	030H
	DB	0ffH
	DB	030H
	DB	02cH
	DB	030H
	DB	0ffH
	DB	030H
	DB	02cH
	DB	030H
	DB	0ffH
	DB	030H
	DB	02cH
	DB	030H
	DB	0ffH
	DB	030H
	DB	02cH
	DB	030H
	DB	0ffH
	DB	030H
	DB	02cH
	DB	030H
	DB	0ffH
	DB	030H
	DB	02cH
	DB	030H
	DB	0ffH
	DB	030H
	DB	02cH
	DB	030H
	DB	0ffH
	DB	030H
	DB	02cH
	DB	030H
	DB	0ffH
	DB	030H
	DB	02cH
	DB	030H
	DB	0ffH
	DB	030H
	DB	02cH
	DB	030H
	DB	0ffH
	DB	030H
	DB	02cH
	DB	030H
	DB	0ffH
	DB	030H
	DB	02cH
	DB	030H
	DB	0ffH
	DB	030H
	DB	02cH
	DB	030H
	DB	0ffH
	DB	030H
	DB	02cH
	DB	030H
	DB	0ffH
	DB	030H
	DB	02cH
	DB	030H
	DB	0ffH
	DB	030H
	DB	02cH
	DB	030H
	DB	0ffH
	DB	030H
	DB	02cH
	DB	030H
	DB	0ffH
	DB	030H
	DB	02cH
	DB	030H
	DB	0ffH
	DB	030H
	DB	02cH
	DB	030H
	DB	0ffH
	DB	030H
	DB	02cH
	DB	030H
	DB	0ffH
	DB	030H
	DB	02cH
	DB	030H
	DB	0ffH
	DB	030H
	DB	02cH
	DB	030H
	DB	0ffH
	DB	030H
	DB	02cH
	DB	030H
	DB	0ffH
	DB	030H
	DB	02cH
	DB	030H
	DB	0ffH
	DB	030H
	DB	02cH
	DB	030H
	DB	0ffH
	DB	030H
	DB	02cH
	DB	030H
	DB	0ffH
	DB	030H
	DB	02cH
	DB	030H
	DB	0ffH
	DB	030H
	DB	02cH
	DB	030H
	DB	0ffH
	DB	030H
	DB	02cH
	DB	030H
	DB	0ffH
	DB	030H
	DB	02cH
	DB	030H
	DB	0ffH
	DB	030H
	DB	02cH
	DB	030H
	DB	0ffH
	DB	030H
	DB	02cH
	DB	030H
	DB	0ffH
	DB	030H
	DB	02cH
	DB	030H
	DB	0ffH
	DB	030H
	DB	02cH
	DB	030H
	DB	0ffH
	DB	030H
	DB	02cH
	DB	030H
	DB	0ffH
	DB	030H
	DB	02cH
	DB	030H
	DB	0ffH
	DB	030H
	DB	02cH
	DB	030H
	DB	0ffH
	DB	030H
	DB	02cH
	DB	030H
	DB	0ffH
	DB	030H
	DB	02cH
	DB	030H
	DB	0ffH
	DB	030H
	DB	02cH
	DB	030H
	DB	0ffH
	DB	030H
	DB	02cH
	DB	030H
	DB	0ffH
	DB	030H
	DB	02cH
	DB	030H
	DB	0ffH
	DB	030H
	DB	02cH
	DB	030H
	DB	0ffH
	DB	030H
	DB	02cH
	DB	030H
	DB	0ffH
	DB	030H
	DB	02cH
	DB	030H
	DB	0ffH
	DB	030H
	DB	02cH
	DB	030H
	DB	0ffH
	DB	030H
	DB	02cH
	DB	030H
	DB	0ffH
	DB	030H
	DB	02cH
	DB	030H
	DB	0ffH
	DB	030H
	DB	02cH
	DB	030H
	DB	0ffH
	DB	030H
	DB	02cH
	DB	030H
	DB	0ffH
	DB	030H
	DB	02cH
	DB	030H
	DB	0ffH
	DB	030H
	DB	02cH
	DB	030H
	DB	0ffH
	DB	030H
	DB	02cH
	DB	030H
	DB	0ffH
	DB	030H
	DB	02cH
	DB	030H
	DB	0ffH
	DB	030H
	DB	02cH
	DB	030H
	DB	0ffH
	DB	030H
	DB	02cH
	DB	030H
	DB	0ffH
	DB	030H
	DB	02cH
	DB	030H
	DB	0ffH
	DB	030H
	DB	02cH
	DB	030H
	DB	0ffH
	DB	030H
	DB	02cH
	DB	030H
	DB	0ffH
	DB	030H
	DB	02cH
	DB	030H
	DB	0ffH
	DB	030H
	DB	02cH
	DB	030H
	DB	0ffH
	DB	030H
	DB	02cH
	DB	030H
	DB	0ffH
	DB	030H
	DB	02cH
	DB	030H
	DB	0ffH
	DB	030H
	DB	02cH
	DB	030H
	DB	0ffH
	DB	030H
	DB	02cH
	DB	030H
	DB	0ffH
	DB	030H
	DB	02cH
	DB	030H
	DB	0ffH
	DB	030H
	DB	02cH
	DB	030H
	DB	0ffH
	DB	030H
	DB	02cH
	DB	030H
	DB	0ffH
	DB	030H
	DB	02cH
	DB	030H
	DB	0ffH
	DB	030H
	DB	02cH
	DB	030H
	DB	0ffH
	DB	030H
	DB	02cH
	DB	030H
	DB	0ffH
	DB	030H
	DB	02cH
	DB	030H
	DB	0ffH
	DB	030H
	DB	02cH
	DB	030H
	DB	0ffH
	DB	030H
	DB	02cH
	DB	030H
	DB	0ffH
	DB	030H
	DB	02cH
	DB	030H
	DB	0ffH
	DB	030H
	DB	02cH
	DB	030H
	DB	0ffH
	DB	030H
	DB	02cH
	DB	030H
	DB	0ffH
	DB	030H
	DB	02cH
	DB	030H
	DB	0ffH
	DB	030H
	DB	02cH
	DB	030H
	DB	0ffH
	DB	030H
	DB	02cH
	DB	030H
	DB	0ffH
	DB	030H
	DB	02cH
	DB	030H
	DB	0ffH
	DB	030H
	DB	02cH
	DB	030H
	DB	0ffH
	DB	030H
	DB	02cH
	DB	030H
	DB	0ffH
	DB	030H
	DB	02cH
	DB	030H
	DB	0ffH
	DB	030H
	DB	02cH
	DB	030H
	DB	0ffH
	DB	030H
	DB	02cH
	DB	030H
	DB	0ffH
	DB	030H
	DB	02cH
	DB	030H
	DB	0ffH
	DB	030H
	DB	02cH
	DB	030H
	DB	0ffH
	DB	030H
	DB	02cH
	DB	030H
	DB	0ffH
	DB	030H
	DB	02cH
	DB	030H
	DB	0ffH
	DB	030H
	DB	02cH
	DB	030H
	DB	0ffH
	DB	030H
	DB	02cH
	DB	030H
	DB	0ffH
	DB	030H
	DB	02cH
	DB	030H
	DB	0ffH
	DB	030H
	DB	02cH
	DB	030H
	DB	0ffH
	DB	030H
	DB	02cH
	DB	030H
	DB	0ffH
	DB	030H
	DB	02cH
	DB	030H
	DB	0ffH
	DB	030H
	DB	02cH
	DB	030H
	DB	0ffH
	DB	030H
	DB	02cH
	DB	030H
	DB	0ffH
	DB	030H
	DB	02cH
	DB	030H
	DB	0ffH
	DB	030H
	DB	02cH
	DB	030H
	DB	0ffH
	DB	030H
	DB	02cH
	DB	030H
	DB	0ffH
	DB	030H
	DB	02cH
	DB	030H
	DB	0ffH
	DB	030H
	DB	02cH
	DB	030H
	DB	0ffH
	DB	030H
	DB	02cH
	DB	030H
	DB	0ffH
	DB	030H
	DB	02cH
	DB	030H
	DB	0ffH
	DB	030H
	DB	02cH
	DB	030H
	DB	0ffH
	DB	030H
	DB	02cH
	DB	030H
	DB	0ffH
	DB	030H
	DB	02cH
	DB	030H
	DB	0ffH
	DB	030H
	DB	02cH
	DB	030H
	DB	0ffH
	DB	030H
	DB	02cH
	DB	030H
	DB	0ffH
	DB	030H
	DB	02cH
	DB	030H
	DB	0ffH
	DB	030H
	DB	02cH
	DB	030H
	DB	0ffH
	DB	030H
	DB	02cH
	DB	030H
	DB	0ffH
	DB	030H
	DB	02cH
	DB	030H
	DB	0ffH
	DB	030H
	DB	02cH
	DB	030H
	DB	0ffH
	DB	030H
	DB	02cH
	DB	030H
	DB	0ffH
	DB	030H
	DB	02cH
	DB	030H
	DB	0ffH
	DB	030H
	DB	02cH
	DB	030H
	DB	0ffH
	DB	030H
	DB	02cH
	DB	030H
	DB	0ffH
	DB	030H
	DB	02cH
	DB	030H
	DB	0ffH
	DB	030H
	DB	02cH
	DB	030H
	DB	0ffH
	DB	030H
	DB	02cH
	DB	030H
	DB	0ffH
	DB	030H
	DB	02cH
	DB	030H
	DB	0ffH
	DB	030H
	DB	02cH
	DB	030H
	DB	0ffH
	DB	030H
	DB	02cH
	DB	030H
	DB	0ffH
	DB	030H
	DB	02cH
	DB	030H
	DB	0ffH
	DB	030H
	DB	02cH
	DB	030H
	DB	0ffH
	DB	030H
	DB	02cH
	DB	030H
	DB	0ffH
	DB	030H
	DB	02cH
	DB	030H
	DB	0ffH
	DB	030H
	DB	02cH
	DB	030H
	DB	0ffH
	DB	030H
	DB	02cH
	DB	030H
	DB	0ffH
	DB	030H
	DB	02cH
	DB	030H
	DB	0ffH
	DB	030H
	DB	02cH
	DB	030H
	DB	0ffH
	DB	030H
	DB	02cH
	DB	030H
	DB	0ffH
	DB	030H
	DB	02cH
	DB	030H
	DB	0ffH
	DB	030H
	DB	02cH
	DB	030H
	DB	0ffH
	DB	030H
	DB	02cH
	DB	030H
	DB	0ffH
	DB	030H
	DB	02cH
	DB	030H
	DB	0ffH
	DB	030H
	DB	02cH
	DB	030H
	DB	0ffH
	DB	030H
	DB	02cH
	DB	030H
	DB	0ffH
	DB	030H
	DB	02cH
	DB	030H
	DB	0ffH
	DB	030H
	DB	02cH
	DB	030H
	DB	0ffH
	DB	030H
	DB	02cH
	DB	030H
	DB	0ffH
	DB	030H
	DB	02cH
	DB	030H
	DB	0ffH
	DB	030H
	DB	02cH
	DB	030H
	DB	0ffH
	DB	030H
	DB	02cH
	DB	030H
	DB	0ffH
	DB	030H
	DB	02cH
	DB	030H
	DB	0ffH
	DB	030H
	DB	02cH
	DB	030H
	DB	0ffH
	DB	030H
	DB	02cH
	DB	030H
	DB	0ffH
	DB	030H
	DB	02cH
	DB	030H
	DB	0ffH
	DB	030H
	DB	02cH
	DB	030H
	DB	0ffH
	DB	030H
	DB	02cH
	DB	030H
	DB	0ffH
	DB	030H
	DB	02cH
	DB	030H
	DB	0ffH
	DB	030H
	DB	02cH
	DB	030H
	DB	0ffH
	DB	030H
	DB	02cH
	DB	030H
	DB	0ffH
	DB	030H
	DB	02cH
	DB	030H
	DB	0ffH
	DB	030H
	DB	02cH
	DB	030H
	DB	0ffH
	DB	030H
	DB	02cH
	DB	030H
	DB	0ffH
	DB	030H
	DB	02cH
	DB	030H
	DB	0ffH
	DB	030H
	DB	02cH
	DB	030H
	DB	0ffH
	DB	030H
	DB	02cH
	DB	030H
	DB	0ffH
	DB	030H
	DB	02cH
	DB	030H
	DB	0ffH
	DB	030H
	DB	02cH
	DB	030H
	DB	0ffH
	DB	030H
	DB	02cH
	DB	030H
	DB	0ffH
	DB	030H
	DB	02cH
	DB	030H
	DB	0ffH
	DB	030H
	DB	02cH
	DB	030H
	DB	0ffH
	DB	030H
	DB	02cH
	DB	030H
	DB	0ffH
	DB	030H
	DB	02cH
	DB	030H
	DB	0ffH
	DB	030H
	DB	02cH
	DB	030H
	DB	0ffH
	DB	030H
	DB	02cH
	DB	030H
	DB	0ffH
	DB	030H
	DB	02cH
	DB	030H
	DB	0ffH
	DB	030H
	DB	02cH
	DB	030H
	DB	0ffH
	DB	030H
	DB	02cH
	DB	030H
	DB	0ffH
	DB	028H
	DB	02cH
	DB	028H
	DB	0ffH
	DB	030H
	DB	02cH
	DB	030H
	DB	0ffH
	DB	028H
	DB	02cH
	DB	028H
	DB	0ffH
	DB	028H
	DB	02cH
	DB	028H
	DB	0ffH
	DB	028H
	DB	02cH
	DB	028H
	DB	08aH
	DB	030H
	DB	02cH
	DB	030H
	DB	0f3H
	DB	030H
	DB	030H
	DB	030H
	DB	0ffH
	DB	030H
	DB	030H
	DB	030H
	DB	0ffH
	DB	030H
	DB	030H
	DB	030H
	DB	0ffH
	DB	030H
	DB	034H
	DB	030H
	DB	0ffH
	DB	030H
	DB	034H
	DB	030H
	DB	0ffH
	DB	030H
	DB	034H
	DB	030H
	DB	0ffH
	DB	030H
	DB	034H
	DB	030H
	DB	0ffH
	DB	030H
	DB	034H
	DB	030H
	DB	0ffH
	DB	030H
	DB	034H
	DB	030H
	DB	0ffH
	DB	030H
	DB	034H
	DB	030H
	DB	0ffH
	DB	030H
	DB	034H
	DB	030H
	DB	0ffH
	DB	030H
	DB	034H
	DB	030H
	DB	0ffH
	DB	030H
	DB	034H
	DB	030H
	DB	0ffH
	DB	030H
	DB	034H
	DB	030H
	DB	0ffH
	DB	030H
	DB	034H
	DB	030H
	DB	0ffH
	DB	030H
	DB	034H
	DB	030H
	DB	0ffH
	DB	030H
	DB	034H
	DB	030H
	DB	0ffH
	DB	030H
	DB	034H
	DB	030H
	DB	0ffH
	DB	030H
	DB	034H
	DB	030H
	DB	0ffH
	DB	030H
	DB	034H
	DB	030H
	DB	0ffH
	DB	030H
	DB	034H
	DB	030H
	DB	0ffH
	DB	030H
	DB	034H
	DB	030H
	DB	0ffH
	DB	030H
	DB	034H
	DB	030H
	DB	0ffH
	DB	030H
	DB	034H
	DB	030H
	DB	0ffH
	DB	030H
	DB	034H
	DB	030H
	DB	0ffH
	DB	030H
	DB	034H
	DB	030H
	DB	0ffH
	DB	030H
	DB	034H
	DB	030H
	DB	0ffH
	DB	030H
	DB	034H
	DB	030H
	DB	0ffH
	DB	030H
	DB	034H
	DB	030H
	DB	0ffH
	DB	030H
	DB	034H
	DB	030H
	DB	0ffH
	DB	030H
	DB	034H
	DB	030H
	DB	0ffH
	DB	030H
	DB	034H
	DB	030H
	DB	0ffH
	DB	030H
	DB	034H
	DB	030H
	DB	0ffH
	DB	030H
	DB	034H
	DB	030H
	DB	0ffH
	DB	030H
	DB	034H
	DB	030H
	DB	0ffH
	DB	030H
	DB	034H
	DB	030H
	DB	0ffH
	DB	030H
	DB	034H
	DB	030H
	DB	0ffH
	DB	030H
	DB	034H
	DB	030H
	DB	0ffH
	DB	030H
	DB	034H
	DB	030H
	DB	0ffH
	DB	030H
	DB	034H
	DB	030H
	DB	0ffH
	DB	030H
	DB	034H
	DB	030H
	DB	0ffH
	DB	030H
	DB	034H
	DB	030H
	DB	0ffH
	DB	030H
	DB	034H
	DB	030H
	DB	0ffH
	DB	030H
	DB	034H
	DB	030H
	DB	0ffH
	DB	030H
	DB	034H
	DB	030H
	DB	0ffH
	DB	030H
	DB	034H
	DB	030H
	DB	0ffH
	DB	030H
	DB	034H
	DB	030H
	DB	0ffH
	DB	030H
	DB	034H
	DB	030H
	DB	0ffH
	DB	030H
	DB	034H
	DB	030H
	DB	0ffH
	DB	030H
	DB	034H
	DB	030H
	DB	0ffH
	DB	030H
	DB	034H
	DB	030H
	DB	0ffH
	DB	030H
	DB	034H
	DB	030H
	DB	0ffH
	DB	030H
	DB	034H
	DB	030H
	DB	0ffH
	DB	030H
	DB	034H
	DB	030H
	DB	0ffH
	DB	030H
	DB	034H
	DB	030H
	DB	0ffH
	DB	030H
	DB	034H
	DB	030H
	DB	0ffH
	DB	030H
	DB	034H
	DB	030H
	DB	0ffH
	DB	030H
	DB	034H
	DB	030H
	DB	0ffH
	DB	030H
	DB	034H
	DB	030H
	DB	0ffH
	DB	030H
	DB	034H
	DB	030H
	DB	0ffH
	DB	030H
	DB	034H
	DB	030H
	DB	0ffH
	DB	030H
	DB	034H
	DB	030H
	DB	0ffH
	DB	030H
	DB	034H
	DB	030H
	DB	0ffH
	DB	030H
	DB	034H
	DB	030H
	DB	0ffH
	DB	030H
	DB	034H
	DB	030H
	DB	0ffH
	DB	030H
	DB	034H
	DB	030H
	DB	0ffH
	DB	030H
	DB	034H
	DB	030H
	DB	0ffH
	DB	030H
	DB	034H
	DB	030H
	DB	0ffH
	DB	030H
	DB	034H
	DB	030H
	DB	0ffH
	DB	030H
	DB	034H
	DB	030H
	DB	0ffH
	DB	030H
	DB	034H
	DB	030H
	DB	0ffH
	DB	030H
	DB	034H
	DB	030H
	DB	0ffH
	DB	030H
	DB	034H
	DB	030H
	DB	0ffH
	DB	030H
	DB	034H
	DB	030H
	DB	0ffH
	DB	030H
	DB	034H
	DB	030H
	DB	0ffH
	DB	030H
	DB	034H
	DB	030H
	DB	0ffH
	DB	030H
	DB	034H
	DB	030H
	DB	0ffH
	DB	030H
	DB	034H
	DB	030H
	DB	0ffH
	DB	030H
	DB	034H
	DB	030H
	DB	0ffH
	DB	030H
	DB	034H
	DB	030H
	DB	0ffH
	DB	030H
	DB	034H
	DB	030H
	DB	0ffH
	DB	030H
	DB	034H
	DB	030H
	DB	0ffH
	DB	030H
	DB	034H
	DB	030H
	DB	0ffH
	DB	030H
	DB	034H
	DB	030H
	DB	0ffH
	DB	030H
	DB	034H
	DB	030H
	DB	0ffH
	DB	030H
	DB	034H
	DB	030H
	DB	0ffH
	DB	030H
	DB	034H
	DB	030H
	DB	0ffH
	DB	030H
	DB	034H
	DB	030H
	DB	0ffH
	DB	030H
	DB	034H
	DB	030H
	DB	0ffH
	DB	030H
	DB	034H
	DB	030H
	DB	0ffH
	DB	030H
	DB	034H
	DB	030H
	DB	0ffH
	DB	030H
	DB	034H
	DB	030H
	DB	0ffH
	DB	030H
	DB	034H
	DB	030H
	DB	0ffH
	DB	030H
	DB	034H
	DB	030H
	DB	0ffH
	DB	030H
	DB	034H
	DB	030H
	DB	0ffH
	DB	030H
	DB	034H
	DB	030H
	DB	0ffH
	DB	030H
	DB	034H
	DB	030H
	DB	0ffH
	DB	030H
	DB	034H
	DB	030H
	DB	0ffH
	DB	030H
	DB	034H
	DB	030H
	DB	0ffH
	DB	030H
	DB	034H
	DB	030H
	DB	0ffH
	DB	030H
	DB	034H
	DB	030H
	DB	0ffH
	DB	030H
	DB	034H
	DB	030H
	DB	0ffH
	DB	030H
	DB	034H
	DB	030H
	DB	0ffH
	DB	030H
	DB	034H
	DB	030H
	DB	0ffH
	DB	030H
	DB	034H
	DB	030H
	DB	0ffH
	DB	030H
	DB	034H
	DB	030H
	DB	0ffH
	DB	030H
	DB	034H
	DB	030H
	DB	0ffH
	DB	030H
	DB	034H
	DB	030H
	DB	0ffH
	DB	030H
	DB	034H
	DB	030H
	DB	0ffH
	DB	030H
	DB	034H
	DB	030H
	DB	0ffH
	DB	030H
	DB	034H
	DB	030H
	DB	0ffH
	DB	030H
	DB	034H
	DB	030H
	DB	0ffH
	DB	030H
	DB	034H
	DB	030H
	DB	0ffH
	DB	030H
	DB	034H
	DB	030H
	DB	0ffH
	DB	030H
	DB	034H
	DB	030H
	DB	0ffH
	DB	030H
	DB	034H
	DB	030H
	DB	0ffH
	DB	030H
	DB	034H
	DB	030H
	DB	0ffH
	DB	030H
	DB	034H
	DB	030H
	DB	0ffH
	DB	030H
	DB	034H
	DB	030H
	DB	0ffH
	DB	030H
	DB	034H
	DB	030H
	DB	0ffH
	DB	030H
	DB	034H
	DB	030H
	DB	0ffH
	DB	030H
	DB	034H
	DB	030H
	DB	0ffH
	DB	030H
	DB	034H
	DB	030H
	DB	0ffH
	DB	030H
	DB	034H
	DB	030H
	DB	0ffH
	DB	030H
	DB	034H
	DB	030H
	DB	0ffH
	DB	030H
	DB	034H
	DB	030H
	DB	0ffH
	DB	030H
	DB	034H
	DB	030H
	DB	0ffH
	DB	030H
	DB	034H
	DB	030H
	DB	0ffH
	DB	030H
	DB	034H
	DB	030H
	DB	0ffH
	DB	030H
	DB	034H
	DB	030H
	DB	0ffH
	DB	030H
	DB	034H
	DB	030H
	DB	0ffH
	DB	030H
	DB	034H
	DB	030H
	DB	0ffH
	DB	030H
	DB	034H
	DB	030H
	DB	0ffH
	DB	030H
	DB	034H
	DB	030H
	DB	0ffH
	DB	030H
	DB	034H
	DB	030H
	DB	0ffH
	DB	030H
	DB	034H
	DB	030H
	DB	0ffH
	DB	030H
	DB	034H
	DB	030H
	DB	0ffH
	DB	030H
	DB	034H
	DB	030H
	DB	0ffH
	DB	030H
	DB	034H
	DB	030H
	DB	0ffH
	DB	030H
	DB	034H
	DB	030H
	DB	0ffH
	DB	030H
	DB	034H
	DB	030H
	DB	0ffH
	DB	030H
	DB	034H
	DB	030H
	DB	0ffH
	DB	030H
	DB	034H
	DB	030H
	DB	0ffH
	DB	030H
	DB	034H
	DB	030H
	DB	0ffH
	DB	030H
	DB	034H
	DB	030H
	DB	0ffH
	DB	030H
	DB	034H
	DB	030H
	DB	0ffH
	DB	030H
	DB	034H
	DB	030H
	DB	0ffH
	DB	030H
	DB	034H
	DB	030H
	DB	0ffH
	DB	030H
	DB	034H
	DB	030H
	DB	0ffH
	DB	030H
	DB	034H
	DB	030H
	DB	0ffH
	DB	030H
	DB	034H
	DB	030H
	DB	0ffH
	DB	030H
	DB	034H
	DB	030H
	DB	0ffH
	DB	030H
	DB	034H
	DB	030H
	DB	0ffH
	DB	030H
	DB	034H
	DB	030H
	DB	0ffH
	DB	030H
	DB	034H
	DB	030H
	DB	0ffH
	DB	030H
	DB	034H
	DB	030H
	DB	0ffH
	DB	030H
	DB	034H
	DB	030H
	DB	0ffH
	DB	030H
	DB	034H
	DB	030H
	DB	0ffH
	DB	030H
	DB	034H
	DB	030H
	DB	0ffH
	DB	030H
	DB	034H
	DB	030H
	DB	0ffH
	DB	030H
	DB	034H
	DB	030H
	DB	0ffH
	DB	030H
	DB	034H
	DB	030H
	DB	0ffH
	DB	030H
	DB	034H
	DB	030H
	DB	0ffH
	DB	030H
	DB	034H
	DB	030H
	DB	0ffH
	DB	030H
	DB	034H
	DB	030H
	DB	0ffH
	DB	030H
	DB	034H
	DB	030H
	DB	0ffH
	DB	030H
	DB	034H
	DB	030H
	DB	0ffH
	DB	030H
	DB	034H
	DB	030H
	DB	0ffH
	DB	030H
	DB	034H
	DB	030H
	DB	0ffH
	DB	030H
	DB	034H
	DB	030H
	DB	0ffH
	DB	030H
	DB	034H
	DB	030H
	DB	0ffH
	DB	030H
	DB	034H
	DB	030H
	DB	0ffH
	DB	030H
	DB	034H
	DB	030H
	DB	0ffH
	DB	030H
	DB	034H
	DB	030H
	DB	0ffH
	DB	030H
	DB	034H
	DB	030H
	DB	0ffH
	DB	030H
	DB	034H
	DB	030H
	DB	0ffH
	DB	030H
	DB	034H
	DB	030H
	DB	0ffH
	DB	030H
	DB	034H
	DB	030H
	DB	0ffH
	DB	030H
	DB	034H
	DB	030H
	DB	0ffH
	DB	030H
	DB	034H
	DB	030H
	DB	0ffH
	DB	030H
	DB	034H
	DB	030H
	DB	0ffH
	DB	030H
	DB	034H
	DB	030H
	DB	0ffH
	DB	030H
	DB	034H
	DB	030H
	DB	0ffH
	DB	030H
	DB	034H
	DB	030H
	DB	0ffH
	DB	030H
	DB	034H
	DB	030H
	DB	0ffH
	DB	030H
	DB	034H
	DB	030H
	DB	0ffH
	DB	030H
	DB	034H
	DB	030H
	DB	0ffH
	DB	030H
	DB	034H
	DB	030H
	DB	0ffH
	DB	030H
	DB	034H
	DB	030H
	DB	0ffH
	DB	030H
	DB	034H
	DB	030H
	DB	0ffH
	DB	030H
	DB	034H
	DB	030H
	DB	0ffH
	DB	030H
	DB	034H
	DB	030H
	DB	0ffH
	DB	030H
	DB	034H
	DB	030H
	DB	0ffH
	DB	030H
	DB	034H
	DB	030H
	DB	0ffH
	DB	030H
	DB	034H
	DB	030H
	DB	0ffH
	DB	030H
	DB	034H
	DB	030H
	DB	0ffH
	DB	030H
	DB	034H
	DB	030H
	DB	0ffH
	DB	030H
	DB	034H
	DB	030H
	DB	0ffH
	DB	030H
	DB	034H
	DB	030H
	DB	0ffH
	DB	030H
	DB	034H
	DB	030H
	DB	0ffH
	DB	030H
	DB	034H
	DB	030H
	DB	0ffH
	DB	030H
	DB	034H
	DB	030H
	DB	0ffH
	DB	030H
	DB	034H
	DB	030H
	DB	0ffH
	DB	030H
	DB	034H
	DB	030H
	DB	0ffH
	DB	030H
	DB	034H
	DB	030H
	DB	0ffH
	DB	030H
	DB	034H
	DB	030H
	DB	0ffH
	DB	030H
	DB	034H
	DB	030H
	DB	0ffH
	DB	030H
	DB	034H
	DB	030H
	DB	0ffH
	DB	030H
	DB	034H
	DB	030H
	DB	0ffH
	DB	030H
	DB	034H
	DB	030H
	DB	0ffH
	DB	030H
	DB	034H
	DB	030H
	DB	0ffH
	DB	030H
	DB	034H
	DB	030H
	DB	0ffH
	DB	030H
	DB	034H
	DB	030H
	DB	0ffH
	DB	030H
	DB	034H
	DB	030H
	DB	0ffH
	DB	030H
	DB	034H
	DB	030H
	DB	0ffH
	DB	030H
	DB	034H
	DB	030H
	DB	0ffH
	DB	030H
	DB	034H
	DB	030H
	DB	0ffH
	DB	030H
	DB	034H
	DB	030H
	DB	0ffH
	DB	030H
	DB	034H
	DB	030H
	DB	0ffH
	DB	030H
	DB	034H
	DB	030H
	DB	0ffH
	DB	030H
	DB	034H
	DB	030H
	DB	0ffH
	DB	030H
	DB	034H
	DB	030H
	DB	0ffH
	DB	030H
	DB	034H
	DB	030H
	DB	0ffH
	DB	030H
	DB	034H
	DB	030H
	DB	0ffH
	DB	030H
	DB	034H
	DB	030H
	DB	0ffH
	DB	030H
	DB	034H
	DB	030H
	DB	0ffH
	DB	030H
	DB	034H
	DB	030H
	DB	0ffH
	DB	030H
	DB	034H
	DB	030H
	DB	0ffH
	DB	030H
	DB	034H
	DB	030H
	DB	0ffH
	DB	030H
	DB	034H
	DB	030H
	DB	0ffH
	DB	030H
	DB	034H
	DB	030H
	DB	0ffH
	DB	030H
	DB	034H
	DB	030H
	DB	0ffH
	DB	030H
	DB	034H
	DB	030H
	DB	0ffH
	DB	030H
	DB	034H
	DB	030H
	DB	0ffH
	DB	030H
	DB	034H
	DB	030H
	DB	0ffH
	DB	030H
	DB	034H
	DB	030H
	DB	0ffH
	DB	030H
	DB	034H
	DB	030H
	DB	0ffH
	DB	030H
	DB	034H
	DB	030H
	DB	0ffH
	DB	030H
	DB	034H
	DB	030H
	DB	0ffH
	DB	030H
	DB	034H
	DB	030H
	DB	0ffH
	DB	030H
	DB	034H
	DB	030H
	DB	0ffH
	DB	030H
	DB	034H
	DB	030H
	DB	0ffH
	DB	030H
	DB	034H
	DB	030H
	DB	0ffH
	DB	030H
	DB	034H
	DB	030H
	DB	0ffH
	DB	030H
	DB	034H
	DB	030H
	DB	0ffH
	DB	030H
	DB	034H
	DB	030H
	DB	0ffH
	DB	030H
	DB	034H
	DB	030H
	DB	0ffH
	DB	030H
	DB	034H
	DB	030H
	DB	0ffH
	DB	030H
	DB	034H
	DB	030H
	DB	0ffH
	DB	030H
	DB	034H
	DB	030H
	DB	0ffH
	DB	030H
	DB	034H
	DB	030H
	DB	0ffH
	DB	030H
	DB	034H
	DB	030H
	DB	0ffH
	DB	030H
	DB	034H
	DB	030H
	DB	0ffH
	DB	030H
	DB	034H
	DB	030H
	DB	0ffH
	DB	030H
	DB	034H
	DB	030H
	DB	0ffH
	DB	030H
	DB	034H
	DB	030H
	DB	0ffH
	DB	030H
	DB	034H
	DB	030H
	DB	0ffH
	DB	030H
	DB	034H
	DB	030H
	DB	0ffH
	DB	030H
	DB	034H
	DB	030H
	DB	0ffH
	DB	030H
	DB	034H
	DB	030H
	DB	0ffH
	DB	030H
	DB	034H
	DB	030H
	DB	0ffH
	DB	030H
	DB	034H
	DB	030H
	DB	0ffH
	DB	030H
	DB	034H
	DB	030H
	DB	0ffH
	DB	030H
	DB	034H
	DB	030H
	DB	0ffH
	DB	030H
	DB	034H
	DB	030H
	DB	0ffH
	DB	030H
	DB	034H
	DB	030H
	DB	0ffH
	DB	030H
	DB	034H
	DB	030H
	DB	0ffH
	DB	030H
	DB	034H
	DB	030H
	DB	0ffH
	DB	030H
	DB	034H
	DB	030H
	DB	0ffH
	DB	030H
	DB	034H
	DB	030H
	DB	0ffH
	DB	030H
	DB	034H
	DB	030H
	DB	0ffH
	DB	030H
	DB	034H
	DB	030H
	DB	0ffH
	DB	030H
	DB	034H
	DB	030H
	DB	0ffH
	DB	030H
	DB	034H
	DB	030H
	DB	0ffH
	DB	030H
	DB	034H
	DB	030H
	DB	0ffH
	DB	030H
	DB	034H
	DB	030H
	DB	0ffH
	DB	030H
	DB	034H
	DB	030H
	DB	0ffH
	DB	030H
	DB	034H
	DB	030H
	DB	0ffH
	DB	030H
	DB	034H
	DB	030H
	DB	0ffH
	DB	030H
	DB	034H
	DB	030H
	DB	0ffH
	DB	030H
	DB	034H
	DB	030H
	DB	0ffH
	DB	030H
	DB	034H
	DB	030H
	DB	0ffH
	DB	030H
	DB	034H
	DB	030H
	DB	0ffH
	DB	030H
	DB	034H
	DB	030H
	DB	0ffH
	DB	030H
	DB	034H
	DB	030H
	DB	0ffH
	DB	030H
	DB	034H
	DB	030H
	DB	0ffH
	DB	030H
	DB	034H
	DB	030H
	DB	0ffH
	DB	030H
	DB	034H
	DB	030H
	DB	0ffH
	DB	030H
	DB	034H
	DB	030H
	DB	0ffH
	DB	030H
	DB	034H
	DB	030H
	DB	0ffH
	DB	030H
	DB	034H
	DB	030H
	DB	0ffH
	DB	030H
	DB	034H
	DB	030H
	DB	0ffH
	DB	030H
	DB	034H
	DB	030H
	DB	0ffH
	DB	030H
	DB	034H
	DB	030H
	DB	0ffH
	DB	030H
	DB	034H
	DB	030H
	DB	0ffH
	DB	030H
	DB	034H
	DB	030H
	DB	0ffH
	DB	030H
	DB	034H
	DB	030H
	DB	0ffH
	DB	030H
	DB	034H
	DB	030H
	DB	0ffH
	DB	030H
	DB	034H
	DB	030H
	DB	0ffH
	DB	030H
	DB	034H
	DB	030H
	DB	0ffH
	DB	030H
	DB	034H
	DB	030H
	DB	0ffH
	DB	030H
	DB	034H
	DB	030H
	DB	0ffH
	DB	030H
	DB	034H
	DB	030H
	DB	0ffH
	DB	030H
	DB	034H
	DB	030H
	DB	0ffH
	DB	030H
	DB	034H
	DB	030H
	DB	0ffH
	DB	030H
	DB	034H
	DB	030H
	DB	0ffH
	DB	030H
	DB	034H
	DB	030H
	DB	0ffH
	DB	030H
	DB	034H
	DB	030H
	DB	0ffH
	DB	030H
	DB	034H
	DB	030H
	DB	0ffH
	DB	030H
	DB	034H
	DB	030H
	DB	0ffH
	DB	030H
	DB	034H
	DB	030H
	DB	0ffH
	DB	030H
	DB	034H
	DB	030H
	DB	0ffH
	DB	030H
	DB	034H
	DB	030H
	DB	0ffH
	DB	030H
	DB	034H
	DB	030H
	DB	0ffH
	DB	030H
	DB	034H
	DB	030H
	DB	0ffH
	DB	030H
	DB	034H
	DB	030H
	DB	0ffH
	DB	030H
	DB	034H
	DB	030H
	DB	0ffH
	DB	030H
	DB	034H
	DB	030H
	DB	0ffH
	DB	030H
	DB	034H
	DB	030H
	DB	0ffH
	DB	030H
	DB	034H
	DB	030H
	DB	0ffH
	DB	030H
	DB	034H
	DB	030H
	DB	0ffH
	DB	030H
	DB	034H
	DB	030H
	DB	0ffH
	DB	030H
	DB	034H
	DB	030H
	DB	0ffH
	DB	030H
	DB	034H
	DB	030H
	DB	0ffH
	DB	030H
	DB	034H
	DB	030H
	DB	0ffH
	DB	030H
	DB	034H
	DB	030H
	DB	0ffH
	DB	030H
	DB	034H
	DB	030H
	DB	0ffH
	DB	030H
	DB	034H
	DB	030H
	DB	0ffH
	DB	030H
	DB	034H
	DB	030H
	DB	0ffH
	DB	030H
	DB	034H
	DB	030H
	DB	0ffH
	DB	030H
	DB	034H
	DB	030H
	DB	0ffH
	DB	030H
	DB	034H
	DB	030H
	DB	0ffH
	DB	030H
	DB	034H
	DB	030H
	DB	0ffH
	DB	030H
	DB	034H
	DB	030H
	DB	0ffH
	DB	030H
	DB	034H
	DB	030H
	DB	0ffH
	DB	030H
	DB	034H
	DB	030H
	DB	0ffH
	DB	030H
	DB	034H
	DB	030H
	DB	0ffH
	DB	030H
	DB	034H
	DB	030H
	DB	0ffH
	DB	030H
	DB	034H
	DB	030H
	DB	0ffH
	DB	030H
	DB	034H
	DB	030H
	DB	0ffH
	DB	030H
	DB	034H
	DB	030H
	DB	0ffH
	DB	030H
	DB	034H
	DB	030H
	DB	0ffH
	DB	030H
	DB	034H
	DB	030H
	DB	0ffH
	DB	030H
	DB	034H
	DB	030H
	DB	0ffH
	DB	030H
	DB	034H
	DB	030H
	DB	0ffH
	DB	030H
	DB	034H
	DB	030H
	DB	0ffH
	DB	030H
	DB	034H
	DB	030H
	DB	0ffH
	DB	030H
	DB	030H
	DB	030H
	DB	0ffH
	DB	030H
	DB	030H
	DB	030H
	DB	0ffH
	DB	030H
	DB	02cH
	DB	030H
	DB	0ffH
	DB	030H
	DB	02cH
	DB	030H
	DB	0f3H
	DB	030H
	DB	030H
	DB	030H
	DB	0ffH
	DB	030H
	DB	030H
	DB	030H
	DB	0ffH
	DB	030H
	DB	034H
	DB	030H
	DB	0ffH
	DB	038H
	DB	038H
	DB	038H
	DB	0ffH
	DB	038H
	DB	038H
	DB	038H
	DB	0ffH
	DB	038H
	DB	038H
	DB	038H
	DB	0ffH
	DB	038H
	DB	038H
	DB	038H
	DB	0ffH
	DB	038H
	DB	03cH
	DB	038H
	DB	0ffH
	DB	038H
	DB	03cH
	DB	038H
	DB	0ffH
	DB	038H
	DB	038H
	DB	038H
	DB	0ffH
	DB	038H
	DB	03cH
	DB	038H
	DB	0ffH
	DB	038H
	DB	03cH
	DB	038H
	DB	0ffH
	DB	038H
	DB	038H
	DB	038H
	DB	0ffH
	DB	038H
	DB	03cH
	DB	038H
	DB	0ffH
	DB	038H
	DB	03cH
	DB	038H
	DB	0ffH
	DB	038H
	DB	038H
	DB	038H
	DB	0ffH
	DB	038H
	DB	03cH
	DB	038H
	DB	0ffH
	DB	038H
	DB	03cH
	DB	038H
	DB	0ffH
	DB	038H
	DB	038H
	DB	038H
	DB	0ffH
	DB	038H
	DB	03cH
	DB	038H
	DB	0ffH
	DB	038H
	DB	03cH
	DB	038H
	DB	0ffH
	DB	038H
	DB	038H
	DB	038H
	DB	0ffH
	DB	038H
	DB	03cH
	DB	038H
	DB	0ffH
	DB	038H
	DB	03cH
	DB	038H
	DB	0ffH
	DB	038H
	DB	038H
	DB	038H
	DB	0ffH
	DB	038H
	DB	03cH
	DB	038H
	DB	0ffH
	DB	038H
	DB	03cH
	DB	038H
	DB	0ffH
	DB	038H
	DB	038H
	DB	038H
	DB	0ffH
	DB	038H
	DB	03cH
	DB	038H
	DB	0ffH
	DB	038H
	DB	03cH
	DB	038H
	DB	0ffH
	DB	038H
	DB	038H
	DB	038H
	DB	0ffH
	DB	038H
	DB	03cH
	DB	038H
	DB	0ffH
	DB	038H
	DB	03cH
	DB	038H
	DB	0ffH
	DB	038H
	DB	038H
	DB	038H
	DB	0ffH
	DB	038H
	DB	03cH
	DB	038H
	DB	0ffH
	DB	038H
	DB	03cH
	DB	038H
	DB	0ffH
	DB	038H
	DB	038H
	DB	038H
	DB	0ffH
	DB	038H
	DB	03cH
	DB	038H
	DB	0ffH
	DB	038H
	DB	03cH
	DB	038H
	DB	0ffH
	DB	038H
	DB	038H
	DB	038H
	DB	0ffH
	DB	038H
	DB	03cH
	DB	038H
	DB	0ffH
	DB	038H
	DB	03cH
	DB	038H
	DB	0ffH
	DB	038H
	DB	038H
	DB	038H
	DB	0ffH
	DB	038H
	DB	03cH
	DB	038H
	DB	0ffH
	DB	038H
	DB	03cH
	DB	038H
	DB	0ffH
	DB	038H
	DB	038H
	DB	038H
	DB	0ffH
	DB	038H
	DB	03cH
	DB	038H
	DB	0ffH
	DB	038H
	DB	03cH
	DB	038H
	DB	0ffH
	DB	038H
	DB	038H
	DB	038H
	DB	0ffH
	DB	038H
	DB	03cH
	DB	038H
	DB	0ffH
	DB	038H
	DB	03cH
	DB	038H
	DB	0ffH
	DB	038H
	DB	038H
	DB	038H
	DB	0ffH
	DB	038H
	DB	03cH
	DB	038H
	DB	0ffH
	DB	038H
	DB	03cH
	DB	038H
	DB	0ffH
	DB	038H
	DB	038H
	DB	038H
	DB	0ffH
	DB	038H
	DB	03cH
	DB	038H
	DB	0ffH
	DB	038H
	DB	03cH
	DB	038H
	DB	0ffH
	DB	038H
	DB	038H
	DB	038H
	DB	0ffH
	DB	038H
	DB	03cH
	DB	038H
	DB	0ffH
	DB	038H
	DB	03cH
	DB	038H
	DB	0ffH
	DB	038H
	DB	038H
	DB	038H
	DB	0ffH
	DB	038H
	DB	03cH
	DB	038H
	DB	0ffH
	DB	038H
	DB	03cH
	DB	038H
	DB	0ffH
	DB	038H
	DB	038H
	DB	038H
	DB	0ffH
	DB	038H
	DB	03cH
	DB	038H
	DB	0ffH
	DB	038H
	DB	03cH
	DB	038H
	DB	0ffH
	DB	038H
	DB	038H
	DB	038H
	DB	0ffH
	DB	038H
	DB	03cH
	DB	038H
	DB	0ffH
	DB	038H
	DB	03cH
	DB	038H
	DB	0ffH
	DB	038H
	DB	038H
	DB	038H
	DB	0ffH
	DB	038H
	DB	03cH
	DB	038H
	DB	0ffH
	DB	038H
	DB	03cH
	DB	038H
	DB	0ffH
	DB	038H
	DB	038H
	DB	038H
	DB	0ffH
	DB	038H
	DB	03cH
	DB	038H
	DB	0ffH
	DB	038H
	DB	03cH
	DB	038H
	DB	0ffH
	DB	038H
	DB	038H
	DB	038H
	DB	0ffH
	DB	038H
	DB	03cH
	DB	038H
	DB	0ffH
	DB	038H
	DB	03cH
	DB	038H
	DB	0ffH
	DB	038H
	DB	038H
	DB	038H
	DB	0ffH
	DB	038H
	DB	03cH
	DB	038H
	DB	0ffH
	DB	038H
	DB	03cH
	DB	038H
	DB	0ffH
	DB	038H
	DB	038H
	DB	038H
	DB	0ffH
	DB	038H
	DB	03cH
	DB	038H
	DB	0ffH
	DB	038H
	DB	03cH
	DB	038H
	DB	0ffH
	DB	038H
	DB	038H
	DB	038H
	DB	0ffH
	DB	038H
	DB	03cH
	DB	038H
	DB	0ffH
	DB	038H
	DB	03cH
	DB	038H
	DB	0ffH
	DB	038H
	DB	038H
	DB	038H
	DB	0ffH
	DB	038H
	DB	03cH
	DB	038H
	DB	0ffH
	DB	038H
	DB	03cH
	DB	038H
	DB	0ffH
	DB	038H
	DB	038H
	DB	038H
	DB	0ffH
	DB	038H
	DB	03cH
	DB	038H
	DB	0ffH
	DB	038H
	DB	03cH
	DB	038H
	DB	0ffH
	DB	038H
	DB	038H
	DB	038H
	DB	0ffH
	DB	038H
	DB	03cH
	DB	038H
	DB	0ffH
	DB	038H
	DB	03cH
	DB	038H
	DB	0ffH
	DB	038H
	DB	038H
	DB	038H
	DB	0ffH
	DB	038H
	DB	03cH
	DB	038H
	DB	0ffH
	DB	038H
	DB	03cH
	DB	038H
	DB	0ffH
	DB	038H
	DB	038H
	DB	038H
	DB	0ffH
	DB	038H
	DB	03cH
	DB	038H
	DB	0ffH
	DB	038H
	DB	03cH
	DB	038H
	DB	0ffH
	DB	038H
	DB	038H
	DB	038H
	DB	0ffH
	DB	038H
	DB	03cH
	DB	038H
	DB	0ffH
	DB	038H
	DB	03cH
	DB	038H
	DB	0ffH
	DB	038H
	DB	038H
	DB	038H
	DB	0ffH
	DB	038H
	DB	03cH
	DB	038H
	DB	0ffH
	DB	038H
	DB	03cH
	DB	038H
	DB	0ffH
	DB	038H
	DB	038H
	DB	038H
	DB	0ffH
	DB	038H
	DB	03cH
	DB	038H
	DB	0ffH
	DB	038H
	DB	03cH
	DB	038H
	DB	0ffH
	DB	038H
	DB	038H
	DB	038H
	DB	0ffH
	DB	038H
	DB	03cH
	DB	038H
	DB	0ffH
	DB	038H
	DB	03cH
	DB	038H
	DB	0ffH
	DB	038H
	DB	038H
	DB	038H
	DB	0ffH
	DB	038H
	DB	03cH
	DB	038H
	DB	0ffH
	DB	038H
	DB	03cH
	DB	038H
	DB	0ffH
	DB	038H
	DB	038H
	DB	038H
	DB	0ffH
	DB	038H
	DB	03cH
	DB	038H
	DB	0ffH
	DB	038H
	DB	03cH
	DB	038H
	DB	0ffH
	DB	038H
	DB	038H
	DB	038H
	DB	0ffH
	DB	038H
	DB	03cH
	DB	038H
	DB	0ffH
	DB	038H
	DB	03cH
	DB	038H
	DB	0ffH
	DB	038H
	DB	038H
	DB	038H
	DB	0ffH
	DB	038H
	DB	03cH
	DB	038H
	DB	0ffH
	DB	038H
	DB	03cH
	DB	038H
	DB	0ffH
	DB	038H
	DB	038H
	DB	038H
	DB	0ffH
	DB	038H
	DB	03cH
	DB	038H
	DB	0ffH
	DB	038H
	DB	03cH
	DB	038H
	DB	0ffH
	DB	038H
	DB	038H
	DB	038H
	DB	0ffH
	DB	038H
	DB	03cH
	DB	038H
	DB	0ffH
	DB	038H
	DB	03cH
	DB	038H
	DB	0ffH
	DB	038H
	DB	038H
	DB	038H
	DB	0ffH
	DB	038H
	DB	03cH
	DB	038H
	DB	0ffH
	DB	038H
	DB	03cH
	DB	038H
	DB	0ffH
	DB	038H
	DB	038H
	DB	038H
	DB	0ffH
	DB	038H
	DB	03cH
	DB	038H
	DB	0ffH
	DB	038H
	DB	03cH
	DB	038H
	DB	0ffH
	DB	038H
	DB	038H
	DB	038H
	DB	0ffH
	DB	038H
	DB	03cH
	DB	038H
	DB	0ffH
	DB	038H
	DB	03cH
	DB	038H
	DB	0ffH
	DB	038H
	DB	038H
	DB	038H
	DB	0ffH
	DB	038H
	DB	03cH
	DB	038H
	DB	0ffH
	DB	038H
	DB	03cH
	DB	038H
	DB	0ffH
	DB	038H
	DB	038H
	DB	038H
	DB	0ffH
	DB	038H
	DB	03cH
	DB	038H
	DB	0ffH
	DB	038H
	DB	03cH
	DB	038H
	DB	0ffH
	DB	038H
	DB	038H
	DB	038H
	DB	0ffH
	DB	038H
	DB	03cH
	DB	038H
	DB	0ffH
	DB	038H
	DB	03cH
	DB	038H
	DB	0ffH
	DB	038H
	DB	038H
	DB	038H
	DB	0ffH
	DB	038H
	DB	03cH
	DB	038H
	DB	0ffH
	DB	038H
	DB	03cH
	DB	038H
	DB	0ffH
	DB	038H
	DB	038H
	DB	038H
	DB	0ffH
	DB	038H
	DB	03cH
	DB	038H
	DB	0ffH
	DB	038H
	DB	03cH
	DB	038H
	DB	0ffH
	DB	038H
	DB	038H
	DB	038H
	DB	0ffH
	DB	038H
	DB	03cH
	DB	038H
	DB	0ffH
	DB	038H
	DB	03cH
	DB	038H
	DB	0ffH
	DB	038H
	DB	038H
	DB	038H
	DB	0ffH
	DB	038H
	DB	03cH
	DB	038H
	DB	0ffH
	DB	038H
	DB	03cH
	DB	038H
	DB	0ffH
	DB	038H
	DB	038H
	DB	038H
	DB	0ffH
	DB	038H
	DB	03cH
	DB	038H
	DB	0ffH
	DB	038H
	DB	03cH
	DB	038H
	DB	0ffH
	DB	038H
	DB	038H
	DB	038H
	DB	0ffH
	DB	038H
	DB	03cH
	DB	038H
	DB	0ffH
	DB	038H
	DB	03cH
	DB	038H
	DB	0ffH
	DB	038H
	DB	038H
	DB	038H
	DB	0ffH
	DB	038H
	DB	03cH
	DB	038H
	DB	0ffH
	DB	038H
	DB	03cH
	DB	038H
	DB	0ffH
	DB	038H
	DB	038H
	DB	038H
	DB	0ffH
	DB	038H
	DB	03cH
	DB	038H
	DB	0ffH
	DB	038H
	DB	03cH
	DB	038H
	DB	0ffH
	DB	038H
	DB	038H
	DB	038H
	DB	0ffH
	DB	038H
	DB	03cH
	DB	038H
	DB	0ffH
	DB	038H
	DB	03cH
	DB	038H
	DB	0ffH
	DB	038H
	DB	038H
	DB	038H
	DB	0ffH
	DB	038H
	DB	03cH
	DB	038H
	DB	0ffH
	DB	038H
	DB	03cH
	DB	038H
	DB	0ffH
	DB	038H
	DB	038H
	DB	038H
	DB	0ffH
	DB	038H
	DB	03cH
	DB	038H
	DB	0ffH
	DB	038H
	DB	03cH
	DB	038H
	DB	0ffH
	DB	038H
	DB	038H
	DB	038H
	DB	0ffH
	DB	038H
	DB	03cH
	DB	038H
	DB	0ffH
	DB	038H
	DB	03cH
	DB	038H
	DB	0ffH
	DB	038H
	DB	038H
	DB	038H
	DB	0ffH
	DB	038H
	DB	03cH
	DB	038H
	DB	0ffH
	DB	038H
	DB	03cH
	DB	038H
	DB	0ffH
	DB	038H
	DB	038H
	DB	038H
	DB	0ffH
	DB	038H
	DB	03cH
	DB	038H
	DB	0ffH
	DB	038H
	DB	03cH
	DB	038H
	DB	0ffH
	DB	038H
	DB	038H
	DB	038H
	DB	0ffH
	DB	038H
	DB	03cH
	DB	038H
	DB	0ffH
	DB	038H
	DB	03cH
	DB	038H
	DB	0ffH
	DB	038H
	DB	038H
	DB	038H
	DB	0ffH
	DB	038H
	DB	03cH
	DB	038H
	DB	0ffH
	DB	038H
	DB	03cH
	DB	038H
	DB	0ffH
	DB	038H
	DB	038H
	DB	038H
	DB	0ffH
	DB	038H
	DB	03cH
	DB	038H
	DB	0ffH
	DB	038H
	DB	03cH
	DB	038H
	DB	0ffH
	DB	038H
	DB	038H
	DB	038H
	DB	0ffH
	DB	038H
	DB	03cH
	DB	038H
	DB	0ffH
	DB	038H
	DB	03cH
	DB	038H
	DB	0ffH
	DB	038H
	DB	038H
	DB	038H
	DB	0ffH
	DB	038H
	DB	03cH
	DB	038H
	DB	0ffH
	DB	038H
	DB	03cH
	DB	038H
	DB	0ffH
	DB	038H
	DB	038H
	DB	038H
	DB	0ffH
	DB	038H
	DB	03cH
	DB	038H
	DB	0ffH
	DB	038H
	DB	03cH
	DB	038H
	DB	0ffH
	DB	038H
	DB	038H
	DB	038H
	DB	0ffH
	DB	038H
	DB	03cH
	DB	038H
	DB	0ffH
	DB	038H
	DB	03cH
	DB	038H
	DB	0ffH
	DB	038H
	DB	038H
	DB	038H
	DB	0ffH
	DB	038H
	DB	03cH
	DB	038H
	DB	0ffH
	DB	038H
	DB	03cH
	DB	038H
	DB	0ffH
	DB	038H
	DB	038H
	DB	038H
	DB	0ffH
	DB	038H
	DB	03cH
	DB	038H
	DB	0ffH
	DB	038H
	DB	03cH
	DB	038H
	DB	0ffH
	DB	038H
	DB	038H
	DB	038H
	DB	0ffH
	DB	038H
	DB	03cH
	DB	038H
	DB	0ffH
	DB	038H
	DB	03cH
	DB	038H
	DB	0ffH
	DB	038H
	DB	038H
	DB	038H
	DB	0ffH
	DB	038H
	DB	03cH
	DB	038H
	DB	0ffH
	DB	038H
	DB	03cH
	DB	038H
	DB	0ffH
	DB	038H
	DB	038H
	DB	038H
	DB	0ffH
	DB	038H
	DB	03cH
	DB	038H
	DB	0ffH
	DB	038H
	DB	03cH
	DB	038H
	DB	0ffH
	DB	038H
	DB	038H
	DB	038H
	DB	0ffH
	DB	038H
	DB	03cH
	DB	038H
	DB	0ffH
	DB	038H
	DB	03cH
	DB	038H
	DB	0ffH
	DB	038H
	DB	038H
	DB	038H
	DB	0ffH
	DB	038H
	DB	03cH
	DB	038H
	DB	0ffH
	DB	038H
	DB	03cH
	DB	038H
	DB	0ffH
	DB	038H
	DB	038H
	DB	038H
	DB	0ffH
	DB	038H
	DB	03cH
	DB	038H
	DB	0ffH
	DB	038H
	DB	03cH
	DB	038H
	DB	0ffH
	DB	038H
	DB	038H
	DB	038H
	DB	0ffH
	DB	038H
	DB	03cH
	DB	038H
	DB	0ffH
	DB	038H
	DB	03cH
	DB	038H
	DB	0ffH
	DB	038H
	DB	038H
	DB	038H
	DB	0ffH
	DB	038H
	DB	03cH
	DB	038H
	DB	0ffH
	DB	038H
	DB	03cH
	DB	038H
	DB	0ffH
	DB	038H
	DB	038H
	DB	038H
	DB	0ffH
	DB	038H
	DB	03cH
	DB	038H
	DB	0ffH
	DB	038H
	DB	03cH
	DB	038H
	DB	0ffH
	DB	038H
	DB	038H
	DB	038H
	DB	0ffH
	DB	038H
	DB	03cH
	DB	038H
	DB	0ffH
	DB	038H
	DB	03cH
	DB	038H
	DB	0ffH
	DB	038H
	DB	038H
	DB	038H
	DB	0ffH
	DB	038H
	DB	03cH
	DB	038H
	DB	0ffH
	DB	038H
	DB	03cH
	DB	038H
	DB	0ffH
	DB	038H
	DB	038H
	DB	038H
	DB	0ffH
	DB	038H
	DB	03cH
	DB	038H
	DB	0ffH
	DB	038H
	DB	03cH
	DB	038H
	DB	0ffH
	DB	038H
	DB	038H
	DB	038H
	DB	0ffH
	DB	038H
	DB	03cH
	DB	038H
	DB	0ffH
	DB	038H
	DB	03cH
	DB	038H
	DB	0ffH
	DB	038H
	DB	038H
	DB	038H
	DB	0ffH
	DB	038H
	DB	03cH
	DB	038H
	DB	0ffH
	DB	038H
	DB	03cH
	DB	038H
	DB	0ffH
	DB	038H
	DB	038H
	DB	038H
	DB	0ffH
	DB	038H
	DB	03cH
	DB	038H
	DB	0ffH
	DB	038H
	DB	03cH
	DB	038H
	DB	0ffH
	DB	038H
	DB	038H
	DB	038H
	DB	0ffH
	DB	038H
	DB	03cH
	DB	038H
	DB	0ffH
	DB	038H
	DB	03cH
	DB	038H
	DB	0ffH
	DB	038H
	DB	038H
	DB	038H
	DB	0ffH
	DB	038H
	DB	03cH
	DB	038H
	DB	0ffH
	DB	038H
	DB	03cH
	DB	038H
	DB	0ffH
	DB	038H
	DB	038H
	DB	038H
	DB	0ffH
	DB	038H
	DB	03cH
	DB	038H
	DB	0ffH
	DB	038H
	DB	03cH
	DB	038H
	DB	0ffH
	DB	038H
	DB	038H
	DB	038H
	DB	0ffH
	DB	038H
	DB	03cH
	DB	038H
	DB	0ffH
	DB	038H
	DB	03cH
	DB	038H
	DB	0ffH
	DB	038H
	DB	038H
	DB	038H
	DB	0ffH
	DB	038H
	DB	03cH
	DB	038H
	DB	0ffH
	DB	038H
	DB	03cH
	DB	038H
	DB	0ffH
	DB	038H
	DB	038H
	DB	038H
	DB	0ffH
	DB	038H
	DB	03cH
	DB	038H
	DB	0ffH
	DB	038H
	DB	03cH
	DB	038H
	DB	0ffH
	DB	038H
	DB	038H
	DB	038H
	DB	0ffH
	DB	038H
	DB	03cH
	DB	038H
	DB	0ffH
	DB	038H
	DB	03cH
	DB	038H
	DB	0ffH
	DB	038H
	DB	038H
	DB	038H
	DB	0ffH
	DB	038H
	DB	03cH
	DB	038H
	DB	0ffH
	DB	038H
	DB	03cH
	DB	038H
	DB	0ffH
	DB	038H
	DB	038H
	DB	038H
	DB	0ffH
	DB	038H
	DB	03cH
	DB	038H
	DB	0ffH
	DB	038H
	DB	03cH
	DB	038H
	DB	0ffH
	DB	038H
	DB	038H
	DB	038H
	DB	0ffH
	DB	038H
	DB	03cH
	DB	038H
	DB	0ffH
	DB	038H
	DB	03cH
	DB	038H
	DB	0ffH
	DB	038H
	DB	038H
	DB	038H
	DB	0ffH
	DB	038H
	DB	03cH
	DB	038H
	DB	0ffH
	DB	038H
	DB	03cH
	DB	038H
	DB	0ffH
	DB	038H
	DB	038H
	DB	038H
	DB	0ffH
	DB	038H
	DB	03cH
	DB	038H
	DB	0ffH
	DB	038H
	DB	03cH
	DB	038H
	DB	0ffH
	DB	038H
	DB	038H
	DB	038H
	DB	0ffH
	DB	038H
	DB	03cH
	DB	038H
	DB	0ffH
	DB	038H
	DB	03cH
	DB	038H
	DB	0ffH
	DB	038H
	DB	038H
	DB	038H
	DB	0ffH
	DB	038H
	DB	03cH
	DB	038H
	DB	0ffH
	DB	038H
	DB	03cH
	DB	038H
	DB	0ffH
	DB	038H
	DB	038H
	DB	038H
	DB	0ffH
	DB	038H
	DB	03cH
	DB	038H
	DB	0ffH
	DB	038H
	DB	03cH
	DB	038H
	DB	0ffH
	DB	038H
	DB	038H
	DB	038H
	DB	0ffH
	DB	038H
	DB	03cH
	DB	038H
	DB	0ffH
	DB	038H
	DB	03cH
	DB	038H
	DB	0ffH
	DB	038H
	DB	038H
	DB	038H
	DB	0ffH
	DB	038H
	DB	03cH
	DB	038H
	DB	0ffH
	DB	038H
	DB	03cH
	DB	038H
	DB	0ffH
	DB	038H
	DB	038H
	DB	038H
	DB	0ffH
	DB	038H
	DB	03cH
	DB	038H
	DB	0ffH
	DB	038H
	DB	03cH
	DB	038H
	DB	0ffH
	DB	038H
	DB	038H
	DB	038H
	DB	0ffH
	DB	038H
	DB	03cH
	DB	038H
	DB	0ffH
	DB	038H
	DB	03cH
	DB	038H
	DB	0ffH
	DB	038H
	DB	038H
	DB	038H
	DB	0ffH
	DB	038H
	DB	03cH
	DB	038H
	DB	0ffH
	DB	038H
	DB	03cH
	DB	038H
	DB	0ffH
	DB	038H
	DB	038H
	DB	038H
	DB	0ffH
	DB	038H
	DB	03cH
	DB	038H
	DB	0ffH
	DB	038H
	DB	03cH
	DB	038H
	DB	0ffH
	DB	038H
	DB	038H
	DB	038H
	DB	0ffH
	DB	038H
	DB	03cH
	DB	038H
	DB	0ffH
	DB	038H
	DB	03cH
	DB	038H
	DB	0ffH
	DB	038H
	DB	038H
	DB	038H
	DB	0ffH
	DB	038H
	DB	03cH
	DB	038H
	DB	0ffH
	DB	038H
	DB	03cH
	DB	038H
	DB	0ffH
	DB	038H
	DB	038H
	DB	038H
	DB	0ffH
	DB	038H
	DB	03cH
	DB	038H
	DB	0ffH
	DB	038H
	DB	03cH
	DB	038H
	DB	0ffH
	DB	038H
	DB	038H
	DB	038H
	DB	0ffH
	DB	038H
	DB	03cH
	DB	038H
	DB	0ffH
	DB	038H
	DB	03cH
	DB	038H
	DB	0ffH
	DB	038H
	DB	038H
	DB	038H
	DB	0ffH
	DB	038H
	DB	03cH
	DB	038H
	DB	0ffH
	DB	038H
	DB	03cH
	DB	038H
	DB	0ffH
	DB	038H
	DB	038H
	DB	038H
	DB	0ffH
	DB	038H
	DB	03cH
	DB	038H
	DB	0ffH
	DB	038H
	DB	03cH
	DB	038H
	DB	0ffH
	DB	038H
	DB	038H
	DB	038H
	DB	0ffH
	DB	038H
	DB	038H
	DB	038H
	DB	0ffH
	DB	038H
	DB	038H
	DB	038H
	DB	0ffH
	DB	038H
	DB	038H
	DB	038H
	DB	0ffH
	DB	038H
	DB	034H
	DB	038H
	DB	0ffH
	DB	030H
	DB	030H
	DB	030H
	DB	0ffH
	DB	030H
	DB	030H
	DB	030H
	DB	0ffH
	DB	030H
	DB	030H
	DB	030H
	DB	0ffH
	DB	038H
	DB	038H
	DB	038H
	DB	0ffH
	DB	038H
	DB	038H
	DB	038H
	DB	0ffH
	DB	040H
	DB	03cH
	DB	040H
	DB	0ffH
	DB	040H
	DB	040H
	DB	040H
	DB	0ffH
	DB	040H
	DB	03cH
	DB	040H
	DB	0ffH
	DB	040H
	DB	03cH
	DB	040H
	DB	0ffH
	DB	040H
	DB	040H
	DB	040H
	DB	0ffH
	DB	040H
	DB	03cH
	DB	040H
	DB	0ffH
	DB	040H
	DB	03cH
	DB	040H
	DB	0ffH
	DB	040H
	DB	040H
	DB	040H
	DB	0ffH
	DB	040H
	DB	03cH
	DB	040H
	DB	0ffH
	DB	040H
	DB	03cH
	DB	040H
	DB	0ffH
	DB	040H
	DB	040H
	DB	040H
	DB	0ffH
	DB	040H
	DB	03cH
	DB	040H
	DB	0ffH
	DB	040H
	DB	03cH
	DB	040H
	DB	0ffH
	DB	040H
	DB	040H
	DB	040H
	DB	0ffH
	DB	040H
	DB	03cH
	DB	040H
	DB	0ffH
	DB	040H
	DB	03cH
	DB	040H
	DB	0ffH
	DB	040H
	DB	040H
	DB	040H
	DB	0ffH
	DB	040H
	DB	03cH
	DB	040H
	DB	0ffH
	DB	040H
	DB	03cH
	DB	040H
	DB	0ffH
	DB	040H
	DB	040H
	DB	040H
	DB	0ffH
	DB	040H
	DB	03cH
	DB	040H
	DB	0ffH
	DB	040H
	DB	03cH
	DB	040H
	DB	0ffH
	DB	040H
	DB	040H
	DB	040H
	DB	0ffH
	DB	040H
	DB	03cH
	DB	040H
	DB	0ffH
	DB	040H
	DB	03cH
	DB	040H
	DB	0ffH
	DB	040H
	DB	040H
	DB	040H
	DB	0ffH
	DB	040H
	DB	03cH
	DB	040H
	DB	0ffH
	DB	040H
	DB	03cH
	DB	040H
	DB	0ffH
	DB	040H
	DB	040H
	DB	040H
	DB	0ffH
	DB	040H
	DB	03cH
	DB	040H
	DB	0ffH
	DB	040H
	DB	03cH
	DB	040H
	DB	0ffH
	DB	040H
	DB	040H
	DB	040H
	DB	0ffH
	DB	040H
	DB	03cH
	DB	040H
	DB	0ffH
	DB	040H
	DB	03cH
	DB	040H
	DB	0ffH
	DB	040H
	DB	040H
	DB	040H
	DB	0ffH
	DB	040H
	DB	03cH
	DB	040H
	DB	0ffH
	DB	040H
	DB	03cH
	DB	040H
	DB	0ffH
	DB	040H
	DB	040H
	DB	040H
	DB	0ffH
	DB	040H
	DB	03cH
	DB	040H
	DB	0ffH
	DB	040H
	DB	03cH
	DB	040H
	DB	0ffH
	DB	040H
	DB	040H
	DB	040H
	DB	0ffH
	DB	040H
	DB	03cH
	DB	040H
	DB	0ffH
	DB	040H
	DB	03cH
	DB	040H
	DB	0ffH
	DB	040H
	DB	040H
	DB	040H
	DB	0ffH
	DB	040H
	DB	03cH
	DB	040H
	DB	0ffH
	DB	040H
	DB	03cH
	DB	040H
	DB	0ffH
	DB	040H
	DB	040H
	DB	040H
	DB	0ffH
	DB	040H
	DB	03cH
	DB	040H
	DB	0ffH
	DB	040H
	DB	03cH
	DB	040H
	DB	0ffH
	DB	040H
	DB	040H
	DB	040H
	DB	0ffH
	DB	040H
	DB	03cH
	DB	040H
	DB	0ffH
	DB	040H
	DB	03cH
	DB	040H
	DB	0ffH
	DB	040H
	DB	040H
	DB	040H
	DB	0ffH
	DB	040H
	DB	03cH
	DB	040H
	DB	0ffH
	DB	040H
	DB	03cH
	DB	040H
	DB	0ffH
	DB	040H
	DB	040H
	DB	040H
	DB	0ffH
	DB	040H
	DB	03cH
	DB	040H
	DB	0ffH
	DB	040H
	DB	03cH
	DB	040H
	DB	0ffH
	DB	040H
	DB	040H
	DB	040H
	DB	0ffH
	DB	040H
	DB	03cH
	DB	040H
	DB	0ffH
	DB	040H
	DB	03cH
	DB	040H
	DB	0ffH
	DB	040H
	DB	040H
	DB	040H
	DB	0ffH
	DB	040H
	DB	03cH
	DB	040H
	DB	0ffH
	DB	040H
	DB	03cH
	DB	040H
	DB	0ffH
	DB	040H
	DB	040H
	DB	040H
	DB	0ffH
	DB	040H
	DB	03cH
	DB	040H
	DB	0ffH
	DB	040H
	DB	03cH
	DB	040H
	DB	0ffH
	DB	040H
	DB	040H
	DB	040H
	DB	0ffH
	DB	040H
	DB	03cH
	DB	040H
	DB	0ffH
	DB	040H
	DB	03cH
	DB	040H
	DB	0ffH
	DB	040H
	DB	040H
	DB	040H
	DB	0ffH
	DB	040H
	DB	03cH
	DB	040H
	DB	0ffH
	DB	040H
	DB	03cH
	DB	040H
	DB	0ffH
	DB	040H
	DB	040H
	DB	040H
	DB	0ffH
	DB	040H
	DB	03cH
	DB	040H
	DB	0ffH
	DB	040H
	DB	03cH
	DB	040H
	DB	0ffH
	DB	040H
	DB	040H
	DB	040H
	DB	0ffH
	DB	040H
	DB	03cH
	DB	040H
	DB	0ffH
	DB	040H
	DB	03cH
	DB	040H
	DB	0ffH
	DB	040H
	DB	040H
	DB	040H
	DB	0ffH
	DB	040H
	DB	03cH
	DB	040H
	DB	0ffH
	DB	040H
	DB	03cH
	DB	040H
	DB	0ffH
	DB	040H
	DB	040H
	DB	040H
	DB	0ffH
	DB	040H
	DB	03cH
	DB	040H
	DB	0ffH
	DB	040H
	DB	03cH
	DB	040H
	DB	0ffH
	DB	040H
	DB	040H
	DB	040H
	DB	0ffH
	DB	040H
	DB	03cH
	DB	040H
	DB	0ffH
	DB	040H
	DB	03cH
	DB	040H
	DB	0ffH
	DB	040H
	DB	040H
	DB	040H
	DB	0ffH
	DB	040H
	DB	03cH
	DB	040H
	DB	0ffH
	DB	040H
	DB	03cH
	DB	040H
	DB	0ffH
	DB	040H
	DB	040H
	DB	040H
	DB	0ffH
	DB	040H
	DB	03cH
	DB	040H
	DB	0ffH
	DB	040H
	DB	03cH
	DB	040H
	DB	0ffH
	DB	040H
	DB	040H
	DB	040H
	DB	0ffH
	DB	040H
	DB	03cH
	DB	040H
	DB	0ffH
	DB	040H
	DB	03cH
	DB	040H
	DB	0ffH
	DB	040H
	DB	040H
	DB	040H
	DB	0ffH
	DB	040H
	DB	03cH
	DB	040H
	DB	0ffH
	DB	040H
	DB	03cH
	DB	040H
	DB	0ffH
	DB	040H
	DB	040H
	DB	040H
	DB	0ffH
	DB	040H
	DB	03cH
	DB	040H
	DB	0ffH
	DB	040H
	DB	03cH
	DB	040H
	DB	0ffH
	DB	040H
	DB	040H
	DB	040H
	DB	0ffH
	DB	040H
	DB	03cH
	DB	040H
	DB	0ffH
	DB	040H
	DB	03cH
	DB	040H
	DB	0ffH
	DB	040H
	DB	040H
	DB	040H
	DB	0ffH
	DB	040H
	DB	03cH
	DB	040H
	DB	0ffH
	DB	040H
	DB	03cH
	DB	040H
	DB	0ffH
	DB	040H
	DB	040H
	DB	040H
	DB	0ffH
	DB	040H
	DB	03cH
	DB	040H
	DB	0ffH
	DB	040H
	DB	03cH
	DB	040H
	DB	0ffH
	DB	040H
	DB	040H
	DB	040H
	DB	0ffH
	DB	040H
	DB	03cH
	DB	040H
	DB	0ffH
	DB	040H
	DB	03cH
	DB	040H
	DB	0ffH
	DB	040H
	DB	040H
	DB	040H
	DB	0ffH
	DB	040H
	DB	03cH
	DB	040H
	DB	0ffH
	DB	040H
	DB	03cH
	DB	040H
	DB	0ffH
	DB	040H
	DB	040H
	DB	040H
	DB	0ffH
	DB	040H
	DB	03cH
	DB	040H
	DB	0ffH
	DB	040H
	DB	03cH
	DB	040H
	DB	0ffH
	DB	040H
	DB	040H
	DB	040H
	DB	0ffH
	DB	040H
	DB	03cH
	DB	040H
	DB	0ffH
	DB	040H
	DB	03cH
	DB	040H
	DB	0ffH
	DB	040H
	DB	040H
	DB	040H
	DB	0ffH
	DB	040H
	DB	03cH
	DB	040H
	DB	0ffH
	DB	040H
	DB	03cH
	DB	040H
	DB	0ffH
	DB	040H
	DB	040H
	DB	040H
	DB	0ffH
	DB	040H
	DB	03cH
	DB	040H
	DB	0ffH
	DB	040H
	DB	03cH
	DB	040H
	DB	0ffH
	DB	040H
	DB	040H
	DB	040H
	DB	0ffH
	DB	040H
	DB	03cH
	DB	040H
	DB	0ffH
	DB	040H
	DB	03cH
	DB	040H
	DB	0ffH
	DB	040H
	DB	040H
	DB	040H
	DB	0ffH
	DB	040H
	DB	03cH
	DB	040H
	DB	0ffH
	DB	040H
	DB	03cH
	DB	040H
	DB	0ffH
	DB	040H
	DB	040H
	DB	040H
	DB	0ffH
	DB	040H
	DB	03cH
	DB	040H
	DB	0ffH
	DB	040H
	DB	03cH
	DB	040H
	DB	0ffH
	DB	040H
	DB	040H
	DB	040H
	DB	0ffH
	DB	040H
	DB	03cH
	DB	040H
	DB	0ffH
	DB	040H
	DB	03cH
	DB	040H
	DB	0ffH
	DB	040H
	DB	040H
	DB	040H
	DB	0ffH
	DB	040H
	DB	03cH
	DB	040H
	DB	0ffH
	DB	040H
	DB	03cH
	DB	040H
	DB	0ffH
	DB	040H
	DB	040H
	DB	040H
	DB	0ffH
	DB	040H
	DB	03cH
	DB	040H
	DB	0ffH
	DB	040H
	DB	03cH
	DB	040H
	DB	0ffH
	DB	040H
	DB	040H
	DB	040H
	DB	0ffH
	DB	040H
	DB	03cH
	DB	040H
	DB	0ffH
	DB	040H
	DB	03cH
	DB	040H
	DB	0ffH
	DB	040H
	DB	040H
	DB	040H
	DB	0ffH
	DB	040H
	DB	03cH
	DB	040H
	DB	0ffH
	DB	040H
	DB	03cH
	DB	040H
	DB	0ffH
	DB	040H
	DB	040H
	DB	040H
	DB	0ffH
	DB	040H
	DB	03cH
	DB	040H
	DB	0ffH
	DB	040H
	DB	03cH
	DB	040H
	DB	0ffH
	DB	040H
	DB	040H
	DB	040H
	DB	0ffH
	DB	040H
	DB	03cH
	DB	040H
	DB	0ffH
	DB	040H
	DB	03cH
	DB	040H
	DB	0ffH
	DB	040H
	DB	040H
	DB	040H
	DB	0ffH
	DB	040H
	DB	03cH
	DB	040H
	DB	0ffH
	DB	040H
	DB	03cH
	DB	040H
	DB	0ffH
	DB	040H
	DB	040H
	DB	040H
	DB	0ffH
	DB	040H
	DB	03cH
	DB	040H
	DB	0ffH
	DB	040H
	DB	03cH
	DB	040H
	DB	0ffH
	DB	040H
	DB	040H
	DB	040H
	DB	0ffH
	DB	040H
	DB	03cH
	DB	040H
	DB	0ffH
	DB	040H
	DB	03cH
	DB	040H
	DB	0ffH
	DB	040H
	DB	040H
	DB	040H
	DB	0ffH
	DB	040H
	DB	03cH
	DB	040H
	DB	0ffH
	DB	040H
	DB	03cH
	DB	040H
	DB	0ffH
	DB	040H
	DB	040H
	DB	040H
	DB	0ffH
	DB	040H
	DB	03cH
	DB	040H
	DB	0ffH
	DB	040H
	DB	03cH
	DB	040H
	DB	0ffH
	DB	040H
	DB	040H
	DB	040H
	DB	0ffH
	DB	040H
	DB	03cH
	DB	040H
	DB	0ffH
	DB	040H
	DB	03cH
	DB	040H
	DB	0ffH
	DB	040H
	DB	040H
	DB	040H
	DB	0ffH
	DB	040H
	DB	03cH
	DB	040H
	DB	0ffH
	DB	040H
	DB	03cH
	DB	040H
	DB	0ffH
	DB	040H
	DB	040H
	DB	040H
	DB	0ffH
	DB	040H
	DB	03cH
	DB	040H
	DB	0ffH
	DB	040H
	DB	03cH
	DB	040H
	DB	0ffH
	DB	040H
	DB	040H
	DB	040H
	DB	0ffH
	DB	040H
	DB	03cH
	DB	040H
	DB	0ffH
	DB	040H
	DB	03cH
	DB	040H
	DB	0ffH
	DB	040H
	DB	040H
	DB	040H
	DB	0ffH
	DB	040H
	DB	03cH
	DB	040H
	DB	0ffH
	DB	040H
	DB	03cH
	DB	040H
	DB	0ffH
	DB	040H
	DB	040H
	DB	040H
	DB	0ffH
	DB	040H
	DB	03cH
	DB	040H
	DB	0ffH
	DB	040H
	DB	03cH
	DB	040H
	DB	0ffH
	DB	040H
	DB	040H
	DB	040H
	DB	0ffH
	DB	040H
	DB	03cH
	DB	040H
	DB	0ffH
	DB	040H
	DB	03cH
	DB	040H
	DB	0ffH
	DB	040H
	DB	040H
	DB	040H
	DB	0ffH
	DB	040H
	DB	03cH
	DB	040H
	DB	0ffH
	DB	040H
	DB	03cH
	DB	040H
	DB	0ffH
	DB	040H
	DB	040H
	DB	040H
	DB	0ffH
	DB	040H
	DB	03cH
	DB	040H
	DB	0ffH
	DB	040H
	DB	03cH
	DB	040H
	DB	0ffH
	DB	040H
	DB	040H
	DB	040H
	DB	0ffH
	DB	040H
	DB	03cH
	DB	040H
	DB	0ffH
	DB	040H
	DB	03cH
	DB	040H
	DB	0ffH
	DB	040H
	DB	040H
	DB	040H
	DB	0ffH
	DB	040H
	DB	03cH
	DB	040H
	DB	0ffH
	DB	040H
	DB	03cH
	DB	040H
	DB	0ffH
	DB	040H
	DB	040H
	DB	040H
	DB	0ffH
	DB	040H
	DB	03cH
	DB	040H
	DB	0ffH
	DB	040H
	DB	03cH
	DB	040H
	DB	0ffH
	DB	040H
	DB	040H
	DB	040H
	DB	0ffH
	DB	040H
	DB	03cH
	DB	040H
	DB	0ffH
	DB	040H
	DB	03cH
	DB	040H
	DB	0ffH
	DB	040H
	DB	040H
	DB	040H
	DB	0ffH
	DB	040H
	DB	03cH
	DB	040H
	DB	0ffH
	DB	040H
	DB	03cH
	DB	040H
	DB	0ffH
	DB	040H
	DB	040H
	DB	040H
	DB	0ffH
	DB	040H
	DB	03cH
	DB	040H
	DB	0ffH
	DB	040H
	DB	03cH
	DB	040H
	DB	0ffH
	DB	040H
	DB	040H
	DB	040H
	DB	0ffH
	DB	040H
	DB	03cH
	DB	040H
	DB	0ffH
	DB	040H
	DB	03cH
	DB	040H
	DB	0ffH
	DB	040H
	DB	040H
	DB	040H
	DB	0ffH
	DB	040H
	DB	03cH
	DB	040H
	DB	0ffH
	DB	040H
	DB	03cH
	DB	040H
	DB	0ffH
	DB	040H
	DB	040H
	DB	040H
	DB	0ffH
	DB	040H
	DB	03cH
	DB	040H
	DB	0ffH
	DB	040H
	DB	03cH
	DB	040H
	DB	0ffH
	DB	040H
	DB	040H
	DB	040H
	DB	0ffH
	DB	040H
	DB	03cH
	DB	040H
	DB	0ffH
	DB	040H
	DB	03cH
	DB	040H
	DB	0ffH
	DB	040H
	DB	040H
	DB	040H
	DB	0ffH
	DB	040H
	DB	03cH
	DB	040H
	DB	0ffH
	DB	040H
	DB	03cH
	DB	040H
	DB	0ffH
	DB	040H
	DB	040H
	DB	040H
	DB	0ffH
	DB	040H
	DB	03cH
	DB	040H
	DB	0ffH
	DB	040H
	DB	03cH
	DB	040H
	DB	0ffH
	DB	040H
	DB	040H
	DB	040H
	DB	0ffH
	DB	040H
	DB	03cH
	DB	040H
	DB	0ffH
	DB	040H
	DB	03cH
	DB	040H
	DB	0ffH
	DB	040H
	DB	040H
	DB	040H
	DB	0ffH
	DB	040H
	DB	03cH
	DB	040H
	DB	0ffH
	DB	040H
	DB	03cH
	DB	040H
	DB	0ffH
	DB	040H
	DB	040H
	DB	040H
	DB	0ffH
	DB	040H
	DB	03cH
	DB	040H
	DB	0ffH
	DB	040H
	DB	03cH
	DB	040H
	DB	0ffH
	DB	040H
	DB	040H
	DB	040H
	DB	0ffH
	DB	040H
	DB	03cH
	DB	040H
	DB	0ffH
	DB	040H
	DB	03cH
	DB	040H
	DB	0ffH
	DB	040H
	DB	040H
	DB	040H
	DB	0ffH
	DB	040H
	DB	03cH
	DB	040H
	DB	0ffH
	DB	040H
	DB	03cH
	DB	040H
	DB	0ffH
	DB	040H
	DB	040H
	DB	040H
	DB	0ffH
	DB	040H
	DB	03cH
	DB	040H
	DB	0ffH
	DB	040H
	DB	03cH
	DB	040H
	DB	0ffH
	DB	040H
	DB	040H
	DB	040H
	DB	0ffH
	DB	040H
	DB	03cH
	DB	040H
	DB	0ffH
	DB	040H
	DB	03cH
	DB	040H
	DB	0ffH
	DB	040H
	DB	040H
	DB	040H
	DB	0ffH
	DB	040H
	DB	03cH
	DB	040H
	DB	0ffH
	DB	040H
	DB	03cH
	DB	040H
	DB	0ffH
	DB	040H
	DB	040H
	DB	040H
	DB	0ffH
	DB	040H
	DB	03cH
	DB	040H
	DB	0ffH
	DB	040H
	DB	03cH
	DB	040H
	DB	0ffH
	DB	040H
	DB	040H
	DB	040H
	DB	0ffH
	DB	040H
	DB	03cH
	DB	040H
	DB	0ffH
	DB	040H
	DB	03cH
	DB	040H
	DB	0ffH
	DB	040H
	DB	040H
	DB	040H
	DB	0ffH
	DB	040H
	DB	03cH
	DB	040H
	DB	0ffH
	DB	040H
	DB	03cH
	DB	040H
	DB	0ffH
	DB	040H
	DB	040H
	DB	040H
	DB	0ffH
	DB	040H
	DB	03cH
	DB	040H
	DB	0ffH
	DB	040H
	DB	03cH
	DB	040H
	DB	0ffH
	DB	040H
	DB	040H
	DB	040H
	DB	0ffH
	DB	040H
	DB	03cH
	DB	040H
	DB	0ffH
	DB	040H
	DB	03cH
	DB	040H
	DB	0ffH
	DB	040H
	DB	040H
	DB	040H
	DB	0ffH
	DB	040H
	DB	03cH
	DB	040H
	DB	0ffH
	DB	040H
	DB	03cH
	DB	040H
	DB	0ffH
	DB	040H
	DB	040H
	DB	040H
	DB	0ffH
	DB	040H
	DB	03cH
	DB	040H
	DB	0ffH
	DB	040H
	DB	03cH
	DB	040H
	DB	0ffH
	DB	040H
	DB	040H
	DB	040H
	DB	0ffH
	DB	040H
	DB	03cH
	DB	040H
	DB	0ffH
	DB	040H
	DB	03cH
	DB	040H
	DB	0ffH
	DB	040H
	DB	040H
	DB	040H
	DB	0ffH
	DB	040H
	DB	03cH
	DB	040H
	DB	0ffH
	DB	040H
	DB	03cH
	DB	040H
	DB	0ffH
	DB	040H
	DB	040H
	DB	040H
	DB	0ffH
	DB	040H
	DB	03cH
	DB	040H
	DB	0ffH
	DB	040H
	DB	03cH
	DB	040H
	DB	0ffH
	DB	040H
	DB	040H
	DB	040H
	DB	0ffH
	DB	040H
	DB	03cH
	DB	040H
	DB	0ffH
	DB	040H
	DB	03cH
	DB	040H
	DB	0ffH
	DB	040H
	DB	040H
	DB	040H
	DB	0ffH
	DB	040H
	DB	03cH
	DB	040H
	DB	0ffH
	DB	040H
	DB	03cH
	DB	040H
	DB	0ffH
	DB	040H
	DB	040H
	DB	040H
	DB	0ffH
	DB	040H
	DB	03cH
	DB	040H
	DB	0ffH
	DB	040H
	DB	03cH
	DB	040H
	DB	0ffH
	DB	040H
	DB	040H
	DB	040H
	DB	0ffH
	DB	040H
	DB	03cH
	DB	040H
	DB	0ffH
	DB	040H
	DB	03cH
	DB	040H
	DB	0ffH
	DB	040H
	DB	040H
	DB	040H
	DB	0ffH
	DB	040H
	DB	03cH
	DB	040H
	DB	0ffH
	DB	040H
	DB	03cH
	DB	040H
	DB	0ffH
	DB	040H
	DB	040H
	DB	040H
	DB	0ffH
	DB	040H
	DB	03cH
	DB	040H
	DB	0ffH
	DB	040H
	DB	03cH
	DB	040H
	DB	0ffH
	DB	040H
	DB	040H
	DB	040H
	DB	0ffH
	DB	040H
	DB	03cH
	DB	040H
	DB	0ffH
	DB	040H
	DB	03cH
	DB	040H
	DB	0ffH
	DB	040H
	DB	040H
	DB	040H
	DB	0ffH
	DB	040H
	DB	03cH
	DB	040H
	DB	0ffH
	DB	040H
	DB	03cH
	DB	040H
	DB	0ffH
	DB	040H
	DB	040H
	DB	040H
	DB	0ffH
	DB	040H
	DB	03cH
	DB	040H
	DB	0ffH
	DB	040H
	DB	03cH
	DB	040H
	DB	0ffH
	DB	040H
	DB	040H
	DB	040H
	DB	0ffH
	DB	040H
	DB	03cH
	DB	040H
	DB	0ffH
	DB	040H
	DB	03cH
	DB	040H
	DB	0ffH
	DB	040H
	DB	040H
	DB	040H
	DB	0ffH
	DB	040H
	DB	03cH
	DB	040H
	DB	0ffH
	DB	040H
	DB	03cH
	DB	040H
	DB	0ffH
	DB	040H
	DB	040H
	DB	040H
	DB	0ffH
	DB	040H
	DB	03cH
	DB	040H
	DB	0ffH
	DB	040H
	DB	03cH
	DB	040H
	DB	0ffH
	DB	040H
	DB	040H
	DB	040H
	DB	0ffH
	DB	040H
	DB	03cH
	DB	040H
	DB	0ffH
	DB	040H
	DB	03cH
	DB	040H
	DB	0ffH
	DB	040H
	DB	040H
	DB	040H
	DB	0ffH
	DB	040H
	DB	03cH
	DB	040H
	DB	0ffH
	DB	040H
	DB	03cH
	DB	040H
	DB	0ffH
	DB	040H
	DB	040H
	DB	040H
	DB	0ffH
	DB	040H
	DB	03cH
	DB	040H
	DB	0ffH
	DB	040H
	DB	03cH
	DB	040H
	DB	0ffH
	DB	040H
	DB	040H
	DB	040H
	DB	0ffH
	DB	040H
	DB	03cH
	DB	040H
	DB	0ffH
	DB	040H
	DB	03cH
	DB	040H
	DB	0ffH
	DB	040H
	DB	040H
	DB	040H
	DB	0ffH
	DB	040H
	DB	03cH
	DB	040H
	DB	0ffH
	DB	040H
	DB	03cH
	DB	040H
	DB	0ffH
	DB	040H
	DB	040H
	DB	040H
	DB	0ffH
	DB	040H
	DB	03cH
	DB	040H
	DB	0ffH
	DB	040H
	DB	03cH
	DB	040H
	DB	0ffH
	DB	038H
	DB	03cH
	DB	038H
	DB	0ffH
	DB	038H
	DB	034H
	DB	038H
	DB	0ffH
	DB	030H
	DB	034H
	DB	030H
	DB	0ffH
	DB	038H
	DB	034H
	DB	038H
	DB	0ffH
	DB	038H
	DB	03cH
	DB	038H
	DB	0ffH
	DB	040H
	DB	040H
	DB	040H
	DB	0ffH
	DB	040H
	DB	040H
	DB	040H
	DB	0ffH
	DB	040H
	DB	040H
	DB	040H
	DB	0ffH
	DB	040H
	DB	040H
	DB	040H
	DB	0ffH
	DB	040H
	DB	040H
	DB	040H
	DB	0ffH
	DB	040H
	DB	040H
	DB	040H
	DB	0ffH
	DB	040H
	DB	040H
	DB	040H
	DB	0ffH
	DB	040H
	DB	040H
	DB	040H
	DB	0ffH
	DB	040H
	DB	040H
	DB	040H
	DB	0ffH
	DB	040H
	DB	040H
	DB	040H
	DB	0ffH
	DB	040H
	DB	040H
	DB	040H
	DB	0ffH
	DB	040H
	DB	040H
	DB	040H
	DB	0ffH
	DB	040H
	DB	040H
	DB	040H
	DB	0ffH
	DB	040H
	DB	040H
	DB	040H
	DB	0ffH
	DB	040H
	DB	040H
	DB	040H
	DB	0ffH
	DB	040H
	DB	040H
	DB	040H
	DB	0ffH
	DB	040H
	DB	040H
	DB	040H
	DB	0ffH
	DB	040H
	DB	040H
	DB	040H
	DB	0ffH
	DB	040H
	DB	040H
	DB	040H
	DB	0ffH
	DB	040H
	DB	040H
	DB	040H
	DB	0ffH
	DB	040H
	DB	040H
	DB	040H
	DB	0ffH
	DB	040H
	DB	040H
	DB	040H
	DB	0ffH
	DB	040H
	DB	040H
	DB	040H
	DB	0ffH
	DB	040H
	DB	040H
	DB	040H
	DB	0ffH
	DB	040H
	DB	040H
	DB	040H
	DB	0ffH
	DB	040H
	DB	040H
	DB	040H
	DB	0ffH
	DB	040H
	DB	040H
	DB	040H
	DB	0ffH
	DB	040H
	DB	040H
	DB	040H
	DB	0ffH
	DB	040H
	DB	040H
	DB	040H
	DB	0ffH
	DB	040H
	DB	040H
	DB	040H
	DB	0ffH
	DB	040H
	DB	040H
	DB	040H
	DB	0ffH
	DB	040H
	DB	040H
	DB	040H
	DB	0ffH
	DB	040H
	DB	040H
	DB	040H
	DB	0ffH
	DB	040H
	DB	040H
	DB	040H
	DB	0ffH
	DB	040H
	DB	040H
	DB	040H
	DB	0ffH
	DB	040H
	DB	040H
	DB	040H
	DB	0ffH
	DB	040H
	DB	040H
	DB	040H
	DB	0ffH
	DB	040H
	DB	040H
	DB	040H
	DB	0ffH
	DB	040H
	DB	040H
	DB	040H
	DB	0ffH
	DB	040H
	DB	040H
	DB	040H
	DB	0ffH
	DB	040H
	DB	040H
	DB	040H
	DB	0ffH
	DB	040H
	DB	040H
	DB	040H
	DB	0ffH
	DB	040H
	DB	040H
	DB	040H
	DB	0ffH
	DB	040H
	DB	040H
	DB	040H
	DB	0ffH
	DB	040H
	DB	040H
	DB	040H
	DB	0ffH
	DB	040H
	DB	040H
	DB	040H
	DB	0ffH
	DB	040H
	DB	040H
	DB	040H
	DB	0ffH
	DB	040H
	DB	040H
	DB	040H
	DB	0ffH
	DB	040H
	DB	040H
	DB	040H
	DB	0ffH
	DB	040H
	DB	040H
	DB	040H
	DB	0ffH
	DB	040H
	DB	040H
	DB	040H
	DB	0ffH
	DB	040H
	DB	040H
	DB	040H
	DB	0ffH
	DB	040H
	DB	040H
	DB	040H
	DB	0ffH
	DB	040H
	DB	040H
	DB	040H
	DB	0ffH
	DB	040H
	DB	040H
	DB	040H
	DB	0ffH
	DB	040H
	DB	040H
	DB	040H
	DB	0ffH
	DB	040H
	DB	040H
	DB	040H
	DB	0ffH
	DB	040H
	DB	040H
	DB	040H
	DB	0ffH
	DB	040H
	DB	040H
	DB	040H
	DB	0ffH
	DB	040H
	DB	040H
	DB	040H
	DB	0ffH
	DB	040H
	DB	040H
	DB	040H
	DB	0ffH
	DB	040H
	DB	040H
	DB	040H
	DB	0ffH
	DB	040H
	DB	040H
	DB	040H
	DB	0ffH
	DB	040H
	DB	040H
	DB	040H
	DB	0ffH
	DB	040H
	DB	040H
	DB	040H
	DB	0ffH
	DB	040H
	DB	040H
	DB	040H
	DB	0ffH
	DB	040H
	DB	040H
	DB	040H
	DB	0ffH
	DB	040H
	DB	040H
	DB	040H
	DB	0ffH
	DB	040H
	DB	040H
	DB	040H
	DB	0ffH
	DB	040H
	DB	040H
	DB	040H
	DB	0ffH
	DB	040H
	DB	040H
	DB	040H
	DB	0ffH
	DB	040H
	DB	040H
	DB	040H
	DB	0ffH
	DB	040H
	DB	040H
	DB	040H
	DB	0ffH
	DB	040H
	DB	040H
	DB	040H
	DB	0ffH
	DB	040H
	DB	040H
	DB	040H
	DB	0ffH
	DB	040H
	DB	040H
	DB	040H
	DB	0ffH
	DB	040H
	DB	040H
	DB	040H
	DB	0ffH
	DB	040H
	DB	040H
	DB	040H
	DB	0ffH
	DB	040H
	DB	040H
	DB	040H
	DB	0ffH
	DB	040H
	DB	040H
	DB	040H
	DB	0ffH
	DB	040H
	DB	040H
	DB	040H
	DB	0ffH
	DB	040H
	DB	040H
	DB	040H
	DB	0ffH
	DB	040H
	DB	040H
	DB	040H
	DB	0ffH
	DB	040H
	DB	040H
	DB	040H
	DB	0ffH
	DB	040H
	DB	040H
	DB	040H
	DB	0ffH
	DB	040H
	DB	040H
	DB	040H
	DB	0ffH
	DB	040H
	DB	040H
	DB	040H
	DB	0ffH
	DB	040H
	DB	040H
	DB	040H
	DB	0ffH
	DB	040H
	DB	040H
	DB	040H
	DB	0ffH
	DB	040H
	DB	040H
	DB	040H
	DB	0ffH
	DB	040H
	DB	040H
	DB	040H
	DB	0ffH
	DB	040H
	DB	040H
	DB	040H
	DB	0ffH
	DB	040H
	DB	040H
	DB	040H
	DB	0ffH
	DB	040H
	DB	040H
	DB	040H
	DB	0ffH
	DB	040H
	DB	040H
	DB	040H
	DB	0ffH
	DB	040H
	DB	040H
	DB	040H
	DB	0ffH
	DB	040H
	DB	040H
	DB	040H
	DB	0ffH
	DB	040H
	DB	040H
	DB	040H
	DB	0ffH
	DB	040H
	DB	040H
	DB	040H
	DB	0ffH
	DB	040H
	DB	040H
	DB	040H
	DB	0ffH
	DB	040H
	DB	040H
	DB	040H
	DB	0ffH
	DB	040H
	DB	040H
	DB	040H
	DB	0ffH
	DB	040H
	DB	040H
	DB	040H
	DB	0ffH
	DB	040H
	DB	040H
	DB	040H
	DB	0ffH
	DB	040H
	DB	040H
	DB	040H
	DB	0ffH
	DB	040H
	DB	040H
	DB	040H
	DB	0ffH
	DB	040H
	DB	040H
	DB	040H
	DB	0ffH
	DB	040H
	DB	040H
	DB	040H
	DB	0ffH
	DB	040H
	DB	040H
	DB	040H
	DB	0ffH
	DB	040H
	DB	040H
	DB	040H
	DB	0ffH
	DB	040H
	DB	040H
	DB	040H
	DB	0ffH
	DB	040H
	DB	040H
	DB	040H
	DB	0ffH
	DB	040H
	DB	040H
	DB	040H
	DB	0ffH
	DB	040H
	DB	040H
	DB	040H
	DB	0ffH
	DB	040H
	DB	040H
	DB	040H
	DB	0ffH
	DB	040H
	DB	040H
	DB	040H
	DB	0ffH
	DB	040H
	DB	040H
	DB	040H
	DB	0ffH
	DB	040H
	DB	040H
	DB	040H
	DB	0ffH
	DB	040H
	DB	040H
	DB	040H
	DB	0ffH
	DB	040H
	DB	040H
	DB	040H
	DB	0ffH
	DB	040H
	DB	040H
	DB	040H
	DB	0ffH
	DB	040H
	DB	040H
	DB	040H
	DB	0ffH
	DB	040H
	DB	040H
	DB	040H
	DB	0ffH
	DB	040H
	DB	040H
	DB	040H
	DB	0ffH
	DB	040H
	DB	040H
	DB	040H
	DB	0ffH
	DB	040H
	DB	040H
	DB	040H
	DB	0ffH
	DB	040H
	DB	040H
	DB	040H
	DB	0ffH
	DB	040H
	DB	040H
	DB	040H
	DB	0ffH
	DB	040H
	DB	040H
	DB	040H
	DB	0ffH
	DB	040H
	DB	040H
	DB	040H
	DB	0ffH
	DB	040H
	DB	040H
	DB	040H
	DB	0ffH
	DB	040H
	DB	040H
	DB	040H
	DB	0ffH
	DB	040H
	DB	040H
	DB	040H
	DB	0ffH
	DB	040H
	DB	040H
	DB	040H
	DB	0ffH
	DB	040H
	DB	040H
	DB	040H
	DB	0ffH
	DB	040H
	DB	040H
	DB	040H
	DB	0ffH
	DB	040H
	DB	040H
	DB	040H
	DB	0ffH
	DB	040H
	DB	040H
	DB	040H
	DB	0ffH
	DB	040H
	DB	040H
	DB	040H
	DB	0ffH
	DB	040H
	DB	040H
	DB	040H
	DB	0ffH
	DB	040H
	DB	040H
	DB	040H
	DB	0ffH
	DB	040H
	DB	040H
	DB	040H
	DB	0ffH
	DB	040H
	DB	040H
	DB	040H
	DB	0ffH
	DB	040H
	DB	040H
	DB	040H
	DB	0ffH
	DB	040H
	DB	040H
	DB	040H
	DB	0ffH
	DB	040H
	DB	040H
	DB	040H
	DB	0ffH
	DB	040H
	DB	040H
	DB	040H
	DB	0ffH
	DB	040H
	DB	040H
	DB	040H
	DB	0ffH
	DB	040H
	DB	040H
	DB	040H
	DB	0ffH
	DB	040H
	DB	040H
	DB	040H
	DB	0ffH
	DB	040H
	DB	040H
	DB	040H
	DB	0ffH
	DB	040H
	DB	040H
	DB	040H
	DB	0ffH
	DB	040H
	DB	040H
	DB	040H
	DB	0ffH
	DB	040H
	DB	040H
	DB	040H
	DB	0ffH
	DB	040H
	DB	040H
	DB	040H
	DB	0ffH
	DB	040H
	DB	040H
	DB	040H
	DB	0ffH
	DB	040H
	DB	040H
	DB	040H
	DB	0ffH
	DB	040H
	DB	040H
	DB	040H
	DB	0ffH
	DB	040H
	DB	040H
	DB	040H
	DB	0ffH
	DB	040H
	DB	040H
	DB	040H
	DB	0ffH
	DB	040H
	DB	040H
	DB	040H
	DB	0ffH
	DB	040H
	DB	040H
	DB	040H
	DB	0ffH
	DB	040H
	DB	040H
	DB	040H
	DB	0ffH
	DB	040H
	DB	040H
	DB	040H
	DB	0ffH
	DB	040H
	DB	040H
	DB	040H
	DB	0ffH
	DB	040H
	DB	040H
	DB	040H
	DB	0ffH
	DB	040H
	DB	040H
	DB	040H
	DB	0ffH
	DB	040H
	DB	040H
	DB	040H
	DB	0ffH
	DB	040H
	DB	040H
	DB	040H
	DB	0ffH
	DB	040H
	DB	040H
	DB	040H
	DB	0ffH
	DB	040H
	DB	040H
	DB	040H
	DB	0ffH
	DB	040H
	DB	040H
	DB	040H
	DB	0ffH
	DB	040H
	DB	040H
	DB	040H
	DB	0ffH
	DB	040H
	DB	040H
	DB	040H
	DB	0ffH
	DB	040H
	DB	040H
	DB	040H
	DB	0ffH
	DB	040H
	DB	040H
	DB	040H
	DB	0ffH
	DB	040H
	DB	040H
	DB	040H
	DB	0ffH
	DB	040H
	DB	040H
	DB	040H
	DB	0ffH
	DB	040H
	DB	040H
	DB	040H
	DB	0ffH
	DB	040H
	DB	040H
	DB	040H
	DB	0ffH
	DB	040H
	DB	040H
	DB	040H
	DB	0ffH
	DB	040H
	DB	040H
	DB	040H
	DB	0ffH
	DB	040H
	DB	040H
	DB	040H
	DB	0ffH
	DB	040H
	DB	040H
	DB	040H
	DB	0ffH
	DB	040H
	DB	040H
	DB	040H
	DB	0ffH
	DB	040H
	DB	040H
	DB	040H
	DB	0ffH
	DB	040H
	DB	040H
	DB	040H
	DB	0ffH
	DB	040H
	DB	040H
	DB	040H
	DB	0ffH
	DB	040H
	DB	040H
	DB	040H
	DB	0ffH
	DB	040H
	DB	040H
	DB	040H
	DB	0ffH
	DB	040H
	DB	040H
	DB	040H
	DB	0ffH
	DB	040H
	DB	040H
	DB	040H
	DB	0ffH
	DB	040H
	DB	040H
	DB	040H
	DB	0ffH
	DB	040H
	DB	040H
	DB	040H
	DB	0ffH
	DB	040H
	DB	040H
	DB	040H
	DB	0ffH
	DB	040H
	DB	040H
	DB	040H
	DB	0ffH
	DB	040H
	DB	040H
	DB	040H
	DB	0ffH
	DB	040H
	DB	040H
	DB	040H
	DB	0ffH
	DB	040H
	DB	040H
	DB	040H
	DB	0ffH
	DB	040H
	DB	040H
	DB	040H
	DB	0ffH
	DB	040H
	DB	040H
	DB	040H
	DB	0ffH
	DB	040H
	DB	040H
	DB	040H
	DB	0ffH
	DB	040H
	DB	040H
	DB	040H
	DB	0ffH
	DB	040H
	DB	040H
	DB	040H
	DB	0ffH
	DB	040H
	DB	040H
	DB	040H
	DB	0ffH
	DB	040H
	DB	040H
	DB	040H
	DB	0ffH
	DB	040H
	DB	040H
	DB	040H
	DB	0ffH
	DB	040H
	DB	040H
	DB	040H
	DB	0ffH
	DB	040H
	DB	040H
	DB	040H
	DB	0ffH
	DB	040H
	DB	040H
	DB	040H
	DB	0ffH
	DB	040H
	DB	040H
	DB	040H
	DB	0ffH
	DB	040H
	DB	040H
	DB	040H
	DB	0ffH
	DB	040H
	DB	040H
	DB	040H
	DB	0ffH
	DB	040H
	DB	040H
	DB	040H
	DB	0ffH
	DB	040H
	DB	040H
	DB	040H
	DB	0ffH
	DB	040H
	DB	040H
	DB	040H
	DB	0ffH
	DB	040H
	DB	040H
	DB	040H
	DB	0ffH
	DB	040H
	DB	040H
	DB	040H
	DB	0ffH
	DB	040H
	DB	040H
	DB	040H
	DB	0ffH
	DB	040H
	DB	040H
	DB	040H
	DB	0ffH
	DB	040H
	DB	040H
	DB	040H
	DB	0ffH
	DB	040H
	DB	040H
	DB	040H
	DB	0ffH
	DB	040H
	DB	040H
	DB	040H
	DB	0ffH
	DB	040H
	DB	040H
	DB	040H
	DB	0ffH
	DB	040H
	DB	040H
	DB	040H
	DB	0ffH
	DB	040H
	DB	040H
	DB	040H
	DB	0ffH
	DB	040H
	DB	040H
	DB	040H
	DB	0ffH
	DB	040H
	DB	040H
	DB	040H
	DB	0ffH
	DB	040H
	DB	040H
	DB	040H
	DB	0ffH
	DB	040H
	DB	040H
	DB	040H
	DB	0ffH
	DB	040H
	DB	040H
	DB	040H
	DB	0ffH
	DB	040H
	DB	040H
	DB	040H
	DB	0ffH
	DB	040H
	DB	040H
	DB	040H
	DB	0ffH
	DB	040H
	DB	040H
	DB	040H
	DB	0ffH
	DB	040H
	DB	040H
	DB	040H
	DB	0ffH
	DB	040H
	DB	040H
	DB	040H
	DB	0ffH
	DB	040H
	DB	040H
	DB	040H
	DB	0ffH
	DB	040H
	DB	040H
	DB	040H
	DB	0ffH
	DB	040H
	DB	040H
	DB	040H
	DB	0ffH
	DB	040H
	DB	040H
	DB	040H
	DB	0ffH
	DB	040H
	DB	040H
	DB	040H
	DB	0ffH
	DB	040H
	DB	040H
	DB	040H
	DB	0ffH
	DB	040H
	DB	040H
	DB	040H
	DB	0ffH
	DB	040H
	DB	040H
	DB	040H
	DB	0ffH
	DB	040H
	DB	040H
	DB	040H
	DB	0ffH
	DB	040H
	DB	040H
	DB	040H
	DB	0ffH
	DB	040H
	DB	040H
	DB	040H
	DB	0ffH
	DB	040H
	DB	040H
	DB	040H
	DB	0ffH
	DB	040H
	DB	040H
	DB	040H
	DB	0ffH
	DB	040H
	DB	040H
	DB	040H
	DB	0ffH
	DB	040H
	DB	040H
	DB	040H
	DB	0ffH
	DB	040H
	DB	040H
	DB	040H
	DB	0ffH
	DB	040H
	DB	040H
	DB	040H
	DB	0ffH
	DB	040H
	DB	040H
	DB	040H
	DB	0ffH
	DB	040H
	DB	040H
	DB	040H
	DB	0ffH
	DB	040H
	DB	040H
	DB	040H
	DB	0ffH
	DB	040H
	DB	040H
	DB	040H
	DB	0ffH
	DB	040H
	DB	040H
	DB	040H
	DB	0ffH
	DB	040H
	DB	040H
	DB	040H
	DB	0ffH
	DB	040H
	DB	040H
	DB	040H
	DB	0ffH
	DB	040H
	DB	040H
	DB	040H
	DB	0ffH
	DB	040H
	DB	040H
	DB	040H
	DB	0ffH
	DB	040H
	DB	040H
	DB	040H
	DB	0ffH
	DB	040H
	DB	040H
	DB	040H
	DB	0ffH
	DB	040H
	DB	040H
	DB	040H
	DB	0ffH
	DB	040H
	DB	040H
	DB	040H
	DB	0ffH
	DB	040H
	DB	040H
	DB	040H
	DB	0ffH
	DB	040H
	DB	040H
	DB	040H
	DB	0ffH
	DB	040H
	DB	040H
	DB	040H
	DB	0ffH
	DB	040H
	DB	040H
	DB	040H
	DB	0ffH
	DB	040H
	DB	040H
	DB	040H
	DB	0ffH
	DB	040H
	DB	040H
	DB	040H
	DB	0ffH
	DB	040H
	DB	040H
	DB	040H
	DB	0ffH
	DB	040H
	DB	040H
	DB	040H
	DB	0ffH
	DB	040H
	DB	040H
	DB	040H
	DB	0ffH
	DB	040H
	DB	040H
	DB	040H
	DB	0ffH
	DB	040H
	DB	040H
	DB	040H
	DB	0ffH
	DB	040H
	DB	040H
	DB	040H
	DB	0ffH
	DB	040H
	DB	040H
	DB	040H
	DB	0ffH
	DB	040H
	DB	040H
	DB	040H
	DB	0ffH
	DB	040H
	DB	040H
	DB	040H
	DB	0ffH
	DB	040H
	DB	040H
	DB	040H
	DB	0ffH
	DB	040H
	DB	040H
	DB	040H
	DB	0ffH
	DB	040H
	DB	040H
	DB	040H
	DB	0ffH
	DB	040H
	DB	040H
	DB	040H
	DB	0ffH
	DB	040H
	DB	040H
	DB	040H
	DB	0ffH
	DB	040H
	DB	040H
	DB	040H
	DB	0ffH
	DB	040H
	DB	040H
	DB	040H
	DB	0ffH
	DB	040H
	DB	040H
	DB	040H
	DB	0ffH
	DB	040H
	DB	040H
	DB	040H
	DB	0ffH
	DB	040H
	DB	040H
	DB	040H
	DB	0ffH
	DB	040H
	DB	040H
	DB	040H
	DB	0ffH
	DB	040H
	DB	040H
	DB	040H
	DB	0ffH
	DB	040H
	DB	040H
	DB	040H
	DB	0ffH
	DB	040H
	DB	040H
	DB	040H
	DB	0ffH
	DB	040H
	DB	040H
	DB	040H
	DB	0ffH
	DB	040H
	DB	040H
	DB	040H
	DB	0ffH
	DB	040H
	DB	040H
	DB	040H
	DB	0ffH
	DB	040H
	DB	040H
	DB	040H
	DB	0ffH
	DB	040H
	DB	040H
	DB	040H
	DB	0ffH
	DB	040H
	DB	040H
	DB	040H
	DB	0ffH
	DB	040H
	DB	040H
	DB	040H
	DB	0ffH
	DB	040H
	DB	040H
	DB	040H
	DB	0ffH
	DB	040H
	DB	040H
	DB	040H
	DB	0ffH
	DB	040H
	DB	040H
	DB	040H
	DB	0ffH
	DB	040H
	DB	040H
	DB	040H
	DB	0ffH
	DB	040H
	DB	040H
	DB	040H
	DB	0ffH
	DB	040H
	DB	040H
	DB	040H
	DB	0ffH
	DB	040H
	DB	040H
	DB	040H
	DB	0ffH
	DB	040H
	DB	040H
	DB	040H
	DB	0ffH
	DB	040H
	DB	040H
	DB	040H
	DB	0ffH
	DB	040H
	DB	040H
	DB	040H
	DB	0ffH
	DB	040H
	DB	040H
	DB	040H
	DB	0ffH
	DB	040H
	DB	040H
	DB	040H
	DB	0ffH
	DB	040H
	DB	040H
	DB	040H
	DB	0ffH
	DB	040H
	DB	040H
	DB	040H
	DB	0ffH
	DB	040H
	DB	040H
	DB	040H
	DB	0ffH
	DB	040H
	DB	040H
	DB	040H
	DB	0ffH
	DB	040H
	DB	040H
	DB	040H
	DB	0ffH
	DB	040H
	DB	040H
	DB	040H
	DB	0ffH
	DB	040H
	DB	040H
	DB	040H
	DB	0ffH
	DB	040H
	DB	040H
	DB	040H
	DB	0ffH
	DB	040H
	DB	040H
	DB	040H
	DB	0ffH
	DB	040H
	DB	040H
	DB	040H
	DB	0ffH
	DB	040H
	DB	040H
	DB	040H
	DB	0ffH
	DB	040H
	DB	040H
	DB	040H
	DB	0ffH
	DB	040H
	DB	040H
	DB	040H
	DB	0ffH
	DB	040H
	DB	040H
	DB	040H
	DB	0ffH
	DB	040H
	DB	040H
	DB	040H
	DB	0ffH
	DB	040H
	DB	040H
	DB	040H
	DB	0ffH
	DB	040H
	DB	040H
	DB	040H
	DB	0ffH
	DB	040H
	DB	040H
	DB	040H
	DB	0ffH
	DB	040H
	DB	040H
	DB	040H
	DB	0ffH
	DB	040H
	DB	040H
	DB	040H
	DB	0ffH
	DB	040H
	DB	040H
	DB	040H
	DB	0ffH
	DB	040H
	DB	040H
	DB	040H
	DB	0ffH
	DB	040H
	DB	040H
	DB	040H
	DB	0ffH
	DB	040H
	DB	040H
	DB	040H
	DB	0ffH
	DB	040H
	DB	040H
	DB	040H
	DB	0ffH
	DB	040H
	DB	040H
	DB	040H
	DB	0ffH
	DB	040H
	DB	040H
	DB	040H
	DB	0ffH
	DB	040H
	DB	040H
	DB	040H
	DB	0ffH
	DB	040H
	DB	040H
	DB	040H
	DB	0ffH
	DB	040H
	DB	040H
	DB	040H
	DB	0ffH
	DB	040H
	DB	040H
	DB	040H
	DB	0ffH
	DB	040H
	DB	040H
	DB	040H
	DB	0ffH
	DB	040H
	DB	040H
	DB	040H
	DB	0ffH
	DB	040H
	DB	03cH
	DB	040H
	DB	0ffH
	DB	038H
	DB	03cH
	DB	038H
	DB	0ffH
	DB	038H
	DB	034H
	DB	038H
	DB	0ffH
	DB	038H
	DB	038H
	DB	038H
	DB	0ffH
	DB	040H
	DB	03cH
	DB	040H
	DB	0ffH
	DB	040H
	DB	040H
	DB	040H
	DB	0ffH
	DB	040H
	DB	044H
	DB	040H
	DB	0ffH
	DB	040H
	DB	044H
	DB	040H
	DB	0ffH
	DB	040H
	DB	044H
	DB	040H
	DB	0ffH
	DB	048H
	DB	044H
	DB	048H
	DB	0ffH
	DB	048H
	DB	044H
	DB	048H
	DB	0ffH
	DB	040H
	DB	044H
	DB	040H
	DB	0ffH
	DB	048H
	DB	044H
	DB	048H
	DB	0ffH
	DB	048H
	DB	044H
	DB	048H
	DB	0ffH
	DB	040H
	DB	044H
	DB	040H
	DB	0ffH
	DB	048H
	DB	044H
	DB	048H
	DB	0ffH
	DB	048H
	DB	044H
	DB	048H
	DB	0ffH
	DB	040H
	DB	044H
	DB	040H
	DB	0ffH
	DB	048H
	DB	044H
	DB	048H
	DB	0ffH
	DB	048H
	DB	044H
	DB	048H
	DB	0ffH
	DB	040H
	DB	044H
	DB	040H
	DB	0ffH
	DB	048H
	DB	044H
	DB	048H
	DB	0ffH
	DB	048H
	DB	044H
	DB	048H
	DB	0ffH
	DB	040H
	DB	044H
	DB	040H
	DB	0ffH
	DB	048H
	DB	044H
	DB	048H
	DB	0ffH
	DB	048H
	DB	044H
	DB	048H
	DB	0ffH
	DB	040H
	DB	044H
	DB	040H
	DB	0ffH
	DB	048H
	DB	044H
	DB	048H
	DB	0ffH
	DB	048H
	DB	044H
	DB	048H
	DB	0ffH
	DB	040H
	DB	044H
	DB	040H
	DB	0ffH
	DB	048H
	DB	044H
	DB	048H
	DB	0ffH
	DB	048H
	DB	044H
	DB	048H
	DB	0ffH
	DB	040H
	DB	044H
	DB	040H
	DB	0ffH
	DB	048H
	DB	044H
	DB	048H
	DB	0ffH
	DB	048H
	DB	044H
	DB	048H
	DB	0ffH
	DB	040H
	DB	044H
	DB	040H
	DB	0ffH
	DB	048H
	DB	044H
	DB	048H
	DB	0ffH
	DB	048H
	DB	044H
	DB	048H
	DB	0ffH
	DB	040H
	DB	044H
	DB	040H
	DB	0ffH
	DB	048H
	DB	044H
	DB	048H
	DB	0ffH
	DB	048H
	DB	044H
	DB	048H
	DB	0ffH
	DB	040H
	DB	044H
	DB	040H
	DB	0ffH
	DB	048H
	DB	044H
	DB	048H
	DB	0ffH
	DB	048H
	DB	044H
	DB	048H
	DB	0ffH
	DB	040H
	DB	044H
	DB	040H
	DB	0ffH
	DB	048H
	DB	044H
	DB	048H
	DB	0ffH
	DB	048H
	DB	044H
	DB	048H
	DB	0ffH
	DB	040H
	DB	044H
	DB	040H
	DB	0ffH
	DB	048H
	DB	044H
	DB	048H
	DB	0ffH
	DB	048H
	DB	044H
	DB	048H
	DB	0ffH
	DB	040H
	DB	044H
	DB	040H
	DB	0ffH
	DB	048H
	DB	044H
	DB	048H
	DB	0ffH
	DB	048H
	DB	044H
	DB	048H
	DB	0ffH
	DB	040H
	DB	044H
	DB	040H
	DB	0ffH
	DB	048H
	DB	044H
	DB	048H
	DB	0ffH
	DB	048H
	DB	044H
	DB	048H
	DB	0ffH
	DB	040H
	DB	044H
	DB	040H
	DB	0ffH
	DB	048H
	DB	044H
	DB	048H
	DB	0ffH
	DB	048H
	DB	044H
	DB	048H
	DB	0ffH
	DB	040H
	DB	044H
	DB	040H
	DB	0ffH
	DB	048H
	DB	044H
	DB	048H
	DB	0ffH
	DB	048H
	DB	044H
	DB	048H
	DB	0ffH
	DB	040H
	DB	044H
	DB	040H
	DB	0ffH
	DB	048H
	DB	044H
	DB	048H
	DB	0ffH
	DB	048H
	DB	044H
	DB	048H
	DB	0ffH
	DB	040H
	DB	044H
	DB	040H
	DB	0ffH
	DB	048H
	DB	044H
	DB	048H
	DB	0ffH
	DB	048H
	DB	044H
	DB	048H
	DB	0ffH
	DB	040H
	DB	044H
	DB	040H
	DB	0ffH
	DB	048H
	DB	044H
	DB	048H
	DB	0ffH
	DB	048H
	DB	044H
	DB	048H
	DB	0ffH
	DB	040H
	DB	044H
	DB	040H
	DB	0ffH
	DB	048H
	DB	044H
	DB	048H
	DB	0ffH
	DB	048H
	DB	044H
	DB	048H
	DB	0ffH
	DB	040H
	DB	044H
	DB	040H
	DB	0ffH
	DB	048H
	DB	044H
	DB	048H
	DB	0ffH
	DB	048H
	DB	044H
	DB	048H
	DB	0ffH
	DB	040H
	DB	044H
	DB	040H
	DB	0ffH
	DB	048H
	DB	044H
	DB	048H
	DB	0ffH
	DB	048H
	DB	044H
	DB	048H
	DB	0ffH
	DB	040H
	DB	044H
	DB	040H
	DB	0ffH
	DB	048H
	DB	044H
	DB	048H
	DB	0ffH
	DB	048H
	DB	044H
	DB	048H
	DB	0ffH
	DB	040H
	DB	044H
	DB	040H
	DB	0ffH
	DB	048H
	DB	044H
	DB	048H
	DB	0ffH
	DB	048H
	DB	044H
	DB	048H
	DB	0ffH
	DB	040H
	DB	044H
	DB	040H
	DB	0ffH
	DB	048H
	DB	044H
	DB	048H
	DB	0ffH
	DB	048H
	DB	044H
	DB	048H
	DB	0ffH
	DB	040H
	DB	044H
	DB	040H
	DB	0ffH
	DB	048H
	DB	044H
	DB	048H
	DB	0ffH
	DB	048H
	DB	044H
	DB	048H
	DB	0ffH
	DB	040H
	DB	044H
	DB	040H
	DB	0ffH
	DB	048H
	DB	044H
	DB	048H
	DB	0ffH
	DB	048H
	DB	044H
	DB	048H
	DB	0ffH
	DB	040H
	DB	044H
	DB	040H
	DB	0ffH
	DB	048H
	DB	044H
	DB	048H
	DB	0ffH
	DB	048H
	DB	044H
	DB	048H
	DB	0ffH
	DB	040H
	DB	044H
	DB	040H
	DB	0ffH
	DB	048H
	DB	044H
	DB	048H
	DB	0ffH
	DB	048H
	DB	044H
	DB	048H
	DB	0ffH
	DB	040H
	DB	044H
	DB	040H
	DB	0ffH
	DB	048H
	DB	044H
	DB	048H
	DB	0ffH
	DB	048H
	DB	044H
	DB	048H
	DB	0ffH
	DB	040H
	DB	044H
	DB	040H
	DB	0ffH
	DB	048H
	DB	044H
	DB	048H
	DB	0ffH
	DB	048H
	DB	044H
	DB	048H
	DB	0ffH
	DB	040H
	DB	044H
	DB	040H
	DB	0ffH
	DB	048H
	DB	044H
	DB	048H
	DB	0ffH
	DB	048H
	DB	044H
	DB	048H
	DB	0ffH
	DB	040H
	DB	044H
	DB	040H
	DB	0ffH
	DB	048H
	DB	044H
	DB	048H
	DB	0ffH
	DB	048H
	DB	044H
	DB	048H
	DB	0ffH
	DB	040H
	DB	044H
	DB	040H
	DB	0ffH
	DB	048H
	DB	044H
	DB	048H
	DB	0ffH
	DB	048H
	DB	044H
	DB	048H
	DB	0ffH
	DB	040H
	DB	044H
	DB	040H
	DB	0ffH
	DB	048H
	DB	044H
	DB	048H
	DB	0ffH
	DB	048H
	DB	044H
	DB	048H
	DB	0ffH
	DB	040H
	DB	044H
	DB	040H
	DB	0ffH
	DB	048H
	DB	044H
	DB	048H
	DB	0ffH
	DB	048H
	DB	044H
	DB	048H
	DB	0ffH
	DB	040H
	DB	044H
	DB	040H
	DB	0ffH
	DB	048H
	DB	044H
	DB	048H
	DB	0ffH
	DB	048H
	DB	044H
	DB	048H
	DB	0ffH
	DB	040H
	DB	044H
	DB	040H
	DB	0ffH
	DB	048H
	DB	044H
	DB	048H
	DB	0ffH
	DB	048H
	DB	044H
	DB	048H
	DB	0ffH
	DB	040H
	DB	044H
	DB	040H
	DB	0ffH
	DB	048H
	DB	044H
	DB	048H
	DB	0ffH
	DB	048H
	DB	044H
	DB	048H
	DB	0ffH
	DB	040H
	DB	044H
	DB	040H
	DB	0ffH
	DB	048H
	DB	044H
	DB	048H
	DB	0ffH
	DB	048H
	DB	044H
	DB	048H
	DB	0ffH
	DB	040H
	DB	044H
	DB	040H
	DB	0ffH
	DB	048H
	DB	044H
	DB	048H
	DB	0ffH
	DB	048H
	DB	044H
	DB	048H
	DB	0ffH
	DB	040H
	DB	044H
	DB	040H
	DB	0ffH
	DB	048H
	DB	044H
	DB	048H
	DB	0ffH
	DB	048H
	DB	044H
	DB	048H
	DB	0ffH
	DB	040H
	DB	044H
	DB	040H
	DB	0ffH
	DB	048H
	DB	044H
	DB	048H
	DB	0ffH
	DB	048H
	DB	044H
	DB	048H
	DB	0ffH
	DB	040H
	DB	044H
	DB	040H
	DB	0ffH
	DB	048H
	DB	044H
	DB	048H
	DB	0ffH
	DB	048H
	DB	044H
	DB	048H
	DB	0ffH
	DB	040H
	DB	044H
	DB	040H
	DB	0ffH
	DB	048H
	DB	044H
	DB	048H
	DB	0ffH
	DB	048H
	DB	044H
	DB	048H
	DB	0ffH
	DB	040H
	DB	044H
	DB	040H
	DB	0ffH
	DB	048H
	DB	044H
	DB	048H
	DB	0ffH
	DB	048H
	DB	044H
	DB	048H
	DB	0ffH
	DB	040H
	DB	044H
	DB	040H
	DB	0ffH
	DB	048H
	DB	044H
	DB	048H
	DB	0ffH
	DB	048H
	DB	044H
	DB	048H
	DB	0ffH
	DB	040H
	DB	044H
	DB	040H
	DB	0ffH
	DB	048H
	DB	044H
	DB	048H
	DB	0ffH
	DB	048H
	DB	044H
	DB	048H
	DB	0ffH
	DB	040H
	DB	044H
	DB	040H
	DB	0ffH
	DB	048H
	DB	044H
	DB	048H
	DB	0ffH
	DB	048H
	DB	044H
	DB	048H
	DB	0ffH
	DB	040H
	DB	044H
	DB	040H
	DB	0ffH
	DB	048H
	DB	044H
	DB	048H
	DB	0ffH
	DB	048H
	DB	044H
	DB	048H
	DB	0ffH
	DB	040H
	DB	044H
	DB	040H
	DB	0ffH
	DB	048H
	DB	044H
	DB	048H
	DB	0ffH
	DB	048H
	DB	044H
	DB	048H
	DB	0ffH
	DB	040H
	DB	044H
	DB	040H
	DB	0ffH
	DB	048H
	DB	044H
	DB	048H
	DB	0ffH
	DB	048H
	DB	044H
	DB	048H
	DB	0ffH
	DB	040H
	DB	044H
	DB	040H
	DB	0ffH
	DB	048H
	DB	044H
	DB	048H
	DB	0ffH
	DB	048H
	DB	044H
	DB	048H
	DB	0ffH
	DB	040H
	DB	044H
	DB	040H
	DB	0ffH
	DB	048H
	DB	044H
	DB	048H
	DB	0ffH
	DB	048H
	DB	044H
	DB	048H
	DB	0ffH
	DB	040H
	DB	044H
	DB	040H
	DB	0ffH
	DB	048H
	DB	044H
	DB	048H
	DB	0ffH
	DB	048H
	DB	044H
	DB	048H
	DB	0ffH
	DB	040H
	DB	044H
	DB	040H
	DB	0ffH
	DB	048H
	DB	044H
	DB	048H
	DB	0ffH
	DB	048H
	DB	044H
	DB	048H
	DB	0ffH
	DB	040H
	DB	044H
	DB	040H
	DB	0ffH
	DB	048H
	DB	044H
	DB	048H
	DB	0ffH
	DB	048H
	DB	044H
	DB	048H
	DB	0ffH
	DB	040H
	DB	044H
	DB	040H
	DB	0ffH
	DB	048H
	DB	044H
	DB	048H
	DB	0ffH
	DB	048H
	DB	044H
	DB	048H
	DB	0ffH
	DB	040H
	DB	044H
	DB	040H
	DB	0ffH
	DB	048H
	DB	044H
	DB	048H
	DB	0ffH
	DB	048H
	DB	044H
	DB	048H
	DB	0ffH
	DB	040H
	DB	044H
	DB	040H
	DB	0ffH
	DB	048H
	DB	044H
	DB	048H
	DB	0ffH
	DB	048H
	DB	044H
	DB	048H
	DB	0ffH
	DB	040H
	DB	044H
	DB	040H
	DB	0ffH
	DB	048H
	DB	044H
	DB	048H
	DB	0ffH
	DB	048H
	DB	044H
	DB	048H
	DB	0ffH
	DB	040H
	DB	044H
	DB	040H
	DB	0ffH
	DB	048H
	DB	044H
	DB	048H
	DB	0ffH
	DB	048H
	DB	044H
	DB	048H
	DB	0ffH
	DB	040H
	DB	044H
	DB	040H
	DB	0ffH
	DB	048H
	DB	044H
	DB	048H
	DB	0ffH
	DB	048H
	DB	044H
	DB	048H
	DB	0ffH
	DB	040H
	DB	044H
	DB	040H
	DB	0ffH
	DB	048H
	DB	044H
	DB	048H
	DB	0ffH
	DB	048H
	DB	044H
	DB	048H
	DB	0ffH
	DB	040H
	DB	044H
	DB	040H
	DB	0ffH
	DB	048H
	DB	044H
	DB	048H
	DB	0ffH
	DB	048H
	DB	044H
	DB	048H
	DB	0ffH
	DB	040H
	DB	044H
	DB	040H
	DB	0ffH
	DB	048H
	DB	044H
	DB	048H
	DB	0ffH
	DB	048H
	DB	044H
	DB	048H
	DB	0ffH
	DB	040H
	DB	044H
	DB	040H
	DB	0ffH
	DB	048H
	DB	044H
	DB	048H
	DB	0ffH
	DB	048H
	DB	044H
	DB	048H
	DB	0ffH
	DB	040H
	DB	044H
	DB	040H
	DB	0ffH
	DB	048H
	DB	044H
	DB	048H
	DB	0ffH
	DB	048H
	DB	044H
	DB	048H
	DB	0ffH
	DB	040H
	DB	044H
	DB	040H
	DB	0ffH
	DB	048H
	DB	044H
	DB	048H
	DB	0ffH
	DB	048H
	DB	044H
	DB	048H
	DB	0ffH
	DB	040H
	DB	044H
	DB	040H
	DB	0ffH
	DB	048H
	DB	044H
	DB	048H
	DB	0ffH
	DB	048H
	DB	044H
	DB	048H
	DB	0ffH
	DB	040H
	DB	044H
	DB	040H
	DB	0ffH
	DB	048H
	DB	044H
	DB	048H
	DB	0ffH
	DB	048H
	DB	044H
	DB	048H
	DB	0ffH
	DB	040H
	DB	044H
	DB	040H
	DB	0ffH
	DB	048H
	DB	044H
	DB	048H
	DB	0ffH
	DB	048H
	DB	044H
	DB	048H
	DB	0ffH
	DB	040H
	DB	044H
	DB	040H
	DB	0ffH
	DB	048H
	DB	044H
	DB	048H
	DB	0ffH
	DB	048H
	DB	044H
	DB	048H
	DB	0ffH
	DB	040H
	DB	044H
	DB	040H
	DB	0ffH
	DB	048H
	DB	044H
	DB	048H
	DB	0ffH
	DB	048H
	DB	044H
	DB	048H
	DB	0ffH
	DB	040H
	DB	044H
	DB	040H
	DB	0ffH
	DB	048H
	DB	044H
	DB	048H
	DB	0ffH
	DB	048H
	DB	044H
	DB	048H
	DB	0ffH
	DB	040H
	DB	044H
	DB	040H
	DB	0ffH
	DB	048H
	DB	044H
	DB	048H
	DB	0ffH
	DB	048H
	DB	044H
	DB	048H
	DB	0ffH
	DB	040H
	DB	044H
	DB	040H
	DB	0ffH
	DB	048H
	DB	044H
	DB	048H
	DB	0ffH
	DB	048H
	DB	044H
	DB	048H
	DB	0ffH
	DB	040H
	DB	044H
	DB	040H
	DB	0ffH
	DB	048H
	DB	044H
	DB	048H
	DB	0ffH
	DB	048H
	DB	044H
	DB	048H
	DB	0ffH
	DB	040H
	DB	044H
	DB	040H
	DB	0ffH
	DB	048H
	DB	044H
	DB	048H
	DB	0ffH
	DB	048H
	DB	044H
	DB	048H
	DB	0ffH
	DB	040H
	DB	044H
	DB	040H
	DB	0ffH
	DB	048H
	DB	044H
	DB	048H
	DB	0ffH
	DB	048H
	DB	044H
	DB	048H
	DB	0ffH
	DB	040H
	DB	044H
	DB	040H
	DB	0ffH
	DB	048H
	DB	044H
	DB	048H
	DB	0ffH
	DB	048H
	DB	044H
	DB	048H
	DB	0ffH
	DB	040H
	DB	044H
	DB	040H
	DB	0ffH
	DB	048H
	DB	044H
	DB	048H
	DB	0ffH
	DB	048H
	DB	044H
	DB	048H
	DB	0ffH
	DB	040H
	DB	044H
	DB	040H
	DB	0ffH
	DB	048H
	DB	044H
	DB	048H
	DB	0ffH
	DB	048H
	DB	044H
	DB	048H
	DB	0ffH
	DB	040H
	DB	044H
	DB	040H
	DB	0ffH
	DB	048H
	DB	044H
	DB	048H
	DB	0ffH
	DB	048H
	DB	044H
	DB	048H
	DB	0ffH
	DB	040H
	DB	044H
	DB	040H
	DB	0ffH
	DB	048H
	DB	044H
	DB	048H
	DB	0ffH
	DB	048H
	DB	044H
	DB	048H
	DB	0ffH
	DB	040H
	DB	044H
	DB	040H
	DB	0ffH
	DB	048H
	DB	044H
	DB	048H
	DB	0ffH
	DB	048H
	DB	044H
	DB	048H
	DB	0ffH
	DB	040H
	DB	044H
	DB	040H
	DB	0ffH
	DB	048H
	DB	044H
	DB	048H
	DB	0ffH
	DB	048H
	DB	044H
	DB	048H
	DB	0ffH
	DB	040H
	DB	044H
	DB	040H
	DB	0ffH
	DB	048H
	DB	044H
	DB	048H
	DB	0ffH
	DB	048H
	DB	044H
	DB	048H
	DB	0ffH
	DB	040H
	DB	044H
	DB	040H
	DB	0ffH
	DB	048H
	DB	044H
	DB	048H
	DB	0ffH
	DB	048H
	DB	044H
	DB	048H
	DB	0ffH
	DB	040H
	DB	044H
	DB	040H
	DB	0ffH
	DB	048H
	DB	044H
	DB	048H
	DB	0ffH
	DB	048H
	DB	044H
	DB	048H
	DB	0ffH
	DB	040H
	DB	044H
	DB	040H
	DB	0ffH
	DB	048H
	DB	044H
	DB	048H
	DB	0ffH
	DB	048H
	DB	044H
	DB	048H
	DB	0ffH
	DB	040H
	DB	044H
	DB	040H
	DB	0ffH
	DB	048H
	DB	044H
	DB	048H
	DB	0ffH
	DB	048H
	DB	044H
	DB	048H
	DB	0ffH
	DB	040H
	DB	044H
	DB	040H
	DB	0ffH
	DB	048H
	DB	044H
	DB	048H
	DB	0ffH
	DB	048H
	DB	044H
	DB	048H
	DB	0ffH
	DB	040H
	DB	044H
	DB	040H
	DB	0ffH
	DB	048H
	DB	044H
	DB	048H
	DB	0ffH
	DB	048H
	DB	044H
	DB	048H
	DB	0ffH
	DB	040H
	DB	044H
	DB	040H
	DB	0ffH
	DB	048H
	DB	044H
	DB	048H
	DB	0ffH
	DB	048H
	DB	044H
	DB	048H
	DB	0ffH
	DB	040H
	DB	044H
	DB	040H
	DB	0ffH
	DB	048H
	DB	044H
	DB	048H
	DB	0ffH
	DB	048H
	DB	044H
	DB	048H
	DB	0ffH
	DB	040H
	DB	044H
	DB	040H
	DB	0ffH
	DB	048H
	DB	044H
	DB	048H
	DB	0ffH
	DB	048H
	DB	044H
	DB	048H
	DB	0ffH
	DB	040H
	DB	044H
	DB	040H
	DB	0ffH
	DB	048H
	DB	044H
	DB	048H
	DB	0ffH
	DB	048H
	DB	044H
	DB	048H
	DB	0ffH
	DB	040H
	DB	044H
	DB	040H
	DB	0ffH
	DB	048H
	DB	044H
	DB	048H
	DB	0ffH
	DB	048H
	DB	044H
	DB	048H
	DB	0ffH
	DB	040H
	DB	044H
	DB	040H
	DB	0ffH
	DB	048H
	DB	044H
	DB	048H
	DB	0ffH
	DB	048H
	DB	044H
	DB	048H
	DB	0ffH
	DB	040H
	DB	044H
	DB	040H
	DB	0ffH
	DB	048H
	DB	044H
	DB	048H
	DB	0ffH
	DB	048H
	DB	044H
	DB	048H
	DB	0ffH
	DB	040H
	DB	044H
	DB	040H
	DB	0ffH
	DB	048H
	DB	044H
	DB	048H
	DB	0ffH
	DB	048H
	DB	044H
	DB	048H
	DB	0ffH
	DB	040H
	DB	044H
	DB	040H
	DB	0ffH
	DB	048H
	DB	044H
	DB	048H
	DB	0ffH
	DB	048H
	DB	044H
	DB	048H
	DB	0ffH
	DB	040H
	DB	044H
	DB	040H
	DB	0ffH
	DB	048H
	DB	044H
	DB	048H
	DB	0ffH
	DB	048H
	DB	044H
	DB	048H
	DB	0ffH
	DB	040H
	DB	044H
	DB	040H
	DB	0ffH
	DB	048H
	DB	044H
	DB	048H
	DB	0ffH
	DB	048H
	DB	044H
	DB	048H
	DB	0ffH
	DB	040H
	DB	044H
	DB	040H
	DB	0ffH
	DB	048H
	DB	044H
	DB	048H
	DB	0ffH
	DB	048H
	DB	044H
	DB	048H
	DB	0ffH
	DB	040H
	DB	044H
	DB	040H
	DB	0ffH
	DB	048H
	DB	044H
	DB	048H
	DB	0ffH
	DB	048H
	DB	044H
	DB	048H
	DB	0ffH
	DB	040H
	DB	044H
	DB	040H
	DB	0ffH
	DB	048H
	DB	044H
	DB	048H
	DB	0ffH
	DB	048H
	DB	044H
	DB	048H
	DB	0ffH
	DB	040H
	DB	044H
	DB	040H
	DB	0ffH
	DB	048H
	DB	044H
	DB	048H
	DB	0ffH
	DB	048H
	DB	044H
	DB	048H
	DB	0ffH
	DB	040H
	DB	044H
	DB	040H
	DB	0ffH
	DB	048H
	DB	044H
	DB	048H
	DB	0ffH
	DB	048H
	DB	044H
	DB	048H
	DB	0ffH
	DB	040H
	DB	044H
	DB	040H
	DB	0ffH
	DB	048H
	DB	044H
	DB	048H
	DB	0ffH
	DB	048H
	DB	044H
	DB	048H
	DB	0ffH
	DB	040H
	DB	044H
	DB	040H
	DB	0ffH
	DB	048H
	DB	044H
	DB	048H
	DB	0ffH
	DB	040H
	DB	044H
	DB	040H
	DB	0ffH
	DB	040H
	DB	044H
	DB	040H
	DB	0ffH
	DB	040H
	DB	044H
	DB	040H
	DB	0ffH
	DB	040H
	DB	040H
	DB	040H
	DB	0ffH
	DB	040H
	DB	03cH
	DB	040H
	DB	0ffH
	DB	038H
	DB	038H
	DB	038H
	DB	0ffH
	DB	038H
	DB	03cH
	DB	038H
	DB	0ffH
	DB	040H
	DB	040H
	DB	040H
	DB	0ffH
	DB	048H
	DB	044H
	DB	048H
	DB	0ffH
	DB	048H
	DB	044H
	DB	048H
	DB	0ffH
	DB	048H
	DB	044H
	DB	048H
	DB	0ffH
	DB	048H
	DB	048H
	DB	048H
	DB	0ffH
	DB	048H
	DB	048H
	DB	048H
	DB	0ffH
	DB	048H
	DB	044H
	DB	048H
	DB	0ffH
	DB	048H
	DB	048H
	DB	048H
	DB	0ffH
	DB	048H
	DB	048H
	DB	048H
	DB	0ffH
	DB	048H
	DB	044H
	DB	048H
	DB	0ffH
	DB	048H
	DB	048H
	DB	048H
	DB	0ffH
	DB	048H
	DB	048H
	DB	048H
	DB	0ffH
	DB	048H
	DB	044H
	DB	048H
	DB	0ffH
	DB	048H
	DB	048H
	DB	048H
	DB	0ffH
	DB	048H
	DB	048H
	DB	048H
	DB	0ffH
	DB	048H
	DB	044H
	DB	048H
	DB	0ffH
	DB	048H
	DB	048H
	DB	048H
	DB	0ffH
	DB	048H
	DB	048H
	DB	048H
	DB	0ffH
	DB	048H
	DB	044H
	DB	048H
	DB	0ffH
	DB	048H
	DB	048H
	DB	048H
	DB	0ffH
	DB	048H
	DB	048H
	DB	048H
	DB	0ffH
	DB	048H
	DB	044H
	DB	048H
	DB	0ffH
	DB	048H
	DB	048H
	DB	048H
	DB	0ffH
	DB	048H
	DB	048H
	DB	048H
	DB	0ffH
	DB	048H
	DB	044H
	DB	048H
	DB	0ffH
	DB	048H
	DB	048H
	DB	048H
	DB	0ffH
	DB	048H
	DB	048H
	DB	048H
	DB	0ffH
	DB	048H
	DB	044H
	DB	048H
	DB	0ffH
	DB	048H
	DB	048H
	DB	048H
	DB	0ffH
	DB	048H
	DB	048H
	DB	048H
	DB	0ffH
	DB	048H
	DB	044H
	DB	048H
	DB	0ffH
	DB	048H
	DB	048H
	DB	048H
	DB	0ffH
	DB	048H
	DB	048H
	DB	048H
	DB	0ffH
	DB	048H
	DB	044H
	DB	048H
	DB	0ffH
	DB	048H
	DB	048H
	DB	048H
	DB	0ffH
	DB	048H
	DB	048H
	DB	048H
	DB	0ffH
	DB	048H
	DB	044H
	DB	048H
	DB	0ffH
	DB	048H
	DB	048H
	DB	048H
	DB	0ffH
	DB	048H
	DB	048H
	DB	048H
	DB	0ffH
	DB	048H
	DB	044H
	DB	048H
	DB	0ffH
	DB	048H
	DB	048H
	DB	048H
	DB	0ffH
	DB	048H
	DB	048H
	DB	048H
	DB	0ffH
	DB	048H
	DB	044H
	DB	048H
	DB	0ffH
	DB	048H
	DB	048H
	DB	048H
	DB	0ffH
	DB	048H
	DB	048H
	DB	048H
	DB	0ffH
	DB	048H
	DB	044H
	DB	048H
	DB	0ffH
	DB	048H
	DB	048H
	DB	048H
	DB	0ffH
	DB	048H
	DB	048H
	DB	048H
	DB	0ffH
	DB	048H
	DB	044H
	DB	048H
	DB	0ffH
	DB	048H
	DB	048H
	DB	048H
	DB	0ffH
	DB	048H
	DB	048H
	DB	048H
	DB	0ffH
	DB	048H
	DB	044H
	DB	048H
	DB	0ffH
	DB	048H
	DB	048H
	DB	048H
	DB	0ffH
	DB	048H
	DB	048H
	DB	048H
	DB	0ffH
	DB	048H
	DB	044H
	DB	048H
	DB	0ffH
	DB	048H
	DB	048H
	DB	048H
	DB	0ffH
	DB	048H
	DB	048H
	DB	048H
	DB	0ffH
	DB	048H
	DB	044H
	DB	048H
	DB	0ffH
	DB	048H
	DB	048H
	DB	048H
	DB	0ffH
	DB	048H
	DB	048H
	DB	048H
	DB	0ffH
	DB	048H
	DB	044H
	DB	048H
	DB	0ffH
	DB	048H
	DB	048H
	DB	048H
	DB	0ffH
	DB	048H
	DB	048H
	DB	048H
	DB	0ffH
	DB	048H
	DB	044H
	DB	048H
	DB	0ffH
	DB	048H
	DB	048H
	DB	048H
	DB	0ffH
	DB	048H
	DB	048H
	DB	048H
	DB	0ffH
	DB	048H
	DB	044H
	DB	048H
	DB	0ffH
	DB	048H
	DB	048H
	DB	048H
	DB	0ffH
	DB	048H
	DB	048H
	DB	048H
	DB	0ffH
	DB	048H
	DB	044H
	DB	048H
	DB	0ffH
	DB	048H
	DB	048H
	DB	048H
	DB	0ffH
	DB	048H
	DB	048H
	DB	048H
	DB	0ffH
	DB	048H
	DB	044H
	DB	048H
	DB	0ffH
	DB	048H
	DB	048H
	DB	048H
	DB	0ffH
	DB	048H
	DB	048H
	DB	048H
	DB	0ffH
	DB	048H
	DB	044H
	DB	048H
	DB	0ffH
	DB	048H
	DB	048H
	DB	048H
	DB	0ffH
	DB	048H
	DB	048H
	DB	048H
	DB	0ffH
	DB	048H
	DB	044H
	DB	048H
	DB	0ffH
	DB	048H
	DB	048H
	DB	048H
	DB	0ffH
	DB	048H
	DB	048H
	DB	048H
	DB	0ffH
	DB	048H
	DB	044H
	DB	048H
	DB	0ffH
	DB	048H
	DB	048H
	DB	048H
	DB	0ffH
	DB	048H
	DB	048H
	DB	048H
	DB	0ffH
	DB	048H
	DB	044H
	DB	048H
	DB	0ffH
	DB	048H
	DB	048H
	DB	048H
	DB	0ffH
	DB	048H
	DB	048H
	DB	048H
	DB	0ffH
	DB	048H
	DB	044H
	DB	048H
	DB	0ffH
	DB	048H
	DB	048H
	DB	048H
	DB	0ffH
	DB	048H
	DB	048H
	DB	048H
	DB	0ffH
	DB	048H
	DB	044H
	DB	048H
	DB	0ffH
	DB	048H
	DB	048H
	DB	048H
	DB	0ffH
	DB	048H
	DB	048H
	DB	048H
	DB	0ffH
	DB	048H
	DB	044H
	DB	048H
	DB	0ffH
	DB	048H
	DB	048H
	DB	048H
	DB	0ffH
	DB	048H
	DB	048H
	DB	048H
	DB	0ffH
	DB	048H
	DB	044H
	DB	048H
	DB	0ffH
	DB	048H
	DB	048H
	DB	048H
	DB	0ffH
	DB	048H
	DB	048H
	DB	048H
	DB	0ffH
	DB	048H
	DB	044H
	DB	048H
	DB	0ffH
	DB	048H
	DB	048H
	DB	048H
	DB	0ffH
	DB	048H
	DB	048H
	DB	048H
	DB	0ffH
	DB	048H
	DB	044H
	DB	048H
	DB	0ffH
	DB	048H
	DB	048H
	DB	048H
	DB	0ffH
	DB	048H
	DB	048H
	DB	048H
	DB	0ffH
	DB	048H
	DB	044H
	DB	048H
	DB	0ffH
	DB	048H
	DB	048H
	DB	048H
	DB	0ffH
	DB	048H
	DB	048H
	DB	048H
	DB	0ffH
	DB	048H
	DB	044H
	DB	048H
	DB	0ffH
	DB	048H
	DB	048H
	DB	048H
	DB	0ffH
	DB	048H
	DB	048H
	DB	048H
	DB	0ffH
	DB	048H
	DB	044H
	DB	048H
	DB	0ffH
	DB	048H
	DB	048H
	DB	048H
	DB	0ffH
	DB	048H
	DB	048H
	DB	048H
	DB	0ffH
	DB	048H
	DB	044H
	DB	048H
	DB	0ffH
	DB	048H
	DB	048H
	DB	048H
	DB	0ffH
	DB	048H
	DB	048H
	DB	048H
	DB	0ffH
	DB	048H
	DB	044H
	DB	048H
	DB	0ffH
	DB	048H
	DB	048H
	DB	048H
	DB	0ffH
	DB	048H
	DB	048H
	DB	048H
	DB	0ffH
	DB	048H
	DB	044H
	DB	048H
	DB	0ffH
	DB	048H
	DB	048H
	DB	048H
	DB	0ffH
	DB	048H
	DB	048H
	DB	048H
	DB	0ffH
	DB	048H
	DB	044H
	DB	048H
	DB	0ffH
	DB	048H
	DB	048H
	DB	048H
	DB	0ffH
	DB	048H
	DB	048H
	DB	048H
	DB	0ffH
	DB	048H
	DB	044H
	DB	048H
	DB	0ffH
	DB	048H
	DB	048H
	DB	048H
	DB	0ffH
	DB	048H
	DB	048H
	DB	048H
	DB	0ffH
	DB	048H
	DB	044H
	DB	048H
	DB	0ffH
	DB	048H
	DB	048H
	DB	048H
	DB	0ffH
	DB	048H
	DB	048H
	DB	048H
	DB	0ffH
	DB	048H
	DB	044H
	DB	048H
	DB	0ffH
	DB	048H
	DB	048H
	DB	048H
	DB	0ffH
	DB	048H
	DB	048H
	DB	048H
	DB	0ffH
	DB	048H
	DB	044H
	DB	048H
	DB	0ffH
	DB	048H
	DB	048H
	DB	048H
	DB	0ffH
	DB	048H
	DB	048H
	DB	048H
	DB	0ffH
	DB	048H
	DB	044H
	DB	048H
	DB	0ffH
	DB	048H
	DB	048H
	DB	048H
	DB	0ffH
	DB	048H
	DB	048H
	DB	048H
	DB	0ffH
	DB	048H
	DB	044H
	DB	048H
	DB	0ffH
	DB	048H
	DB	048H
	DB	048H
	DB	0ffH
	DB	048H
	DB	048H
	DB	048H
	DB	0ffH
	DB	048H
	DB	044H
	DB	048H
	DB	0ffH
	DB	048H
	DB	048H
	DB	048H
	DB	0ffH
	DB	048H
	DB	048H
	DB	048H
	DB	0ffH
	DB	048H
	DB	044H
	DB	048H
	DB	0ffH
	DB	048H
	DB	048H
	DB	048H
	DB	0ffH
	DB	048H
	DB	048H
	DB	048H
	DB	0ffH
	DB	048H
	DB	044H
	DB	048H
	DB	0ffH
	DB	048H
	DB	048H
	DB	048H
	DB	0ffH
	DB	048H
	DB	048H
	DB	048H
	DB	0ffH
	DB	048H
	DB	044H
	DB	048H
	DB	0ffH
	DB	048H
	DB	048H
	DB	048H
	DB	0ffH
	DB	048H
	DB	048H
	DB	048H
	DB	0ffH
	DB	048H
	DB	044H
	DB	048H
	DB	0ffH
	DB	048H
	DB	048H
	DB	048H
	DB	0ffH
	DB	048H
	DB	048H
	DB	048H
	DB	0ffH
	DB	048H
	DB	044H
	DB	048H
	DB	0ffH
	DB	048H
	DB	048H
	DB	048H
	DB	0ffH
	DB	048H
	DB	048H
	DB	048H
	DB	0ffH
	DB	048H
	DB	044H
	DB	048H
	DB	0ffH
	DB	048H
	DB	048H
	DB	048H
	DB	0ffH
	DB	048H
	DB	048H
	DB	048H
	DB	0ffH
	DB	048H
	DB	044H
	DB	048H
	DB	0ffH
	DB	048H
	DB	048H
	DB	048H
	DB	0ffH
	DB	048H
	DB	048H
	DB	048H
	DB	0ffH
	DB	048H
	DB	044H
	DB	048H
	DB	0ffH
	DB	048H
	DB	048H
	DB	048H
	DB	0ffH
	DB	048H
	DB	048H
	DB	048H
	DB	0ffH
	DB	048H
	DB	044H
	DB	048H
	DB	0ffH
	DB	048H
	DB	048H
	DB	048H
	DB	0ffH
	DB	048H
	DB	048H
	DB	048H
	DB	0ffH
	DB	048H
	DB	044H
	DB	048H
	DB	0ffH
	DB	048H
	DB	048H
	DB	048H
	DB	0ffH
	DB	048H
	DB	048H
	DB	048H
	DB	0ffH
	DB	048H
	DB	044H
	DB	048H
	DB	0ffH
	DB	048H
	DB	048H
	DB	048H
	DB	0ffH
	DB	048H
	DB	048H
	DB	048H
	DB	0ffH
	DB	048H
	DB	044H
	DB	048H
	DB	0ffH
	DB	048H
	DB	048H
	DB	048H
	DB	0ffH
	DB	048H
	DB	048H
	DB	048H
	DB	0ffH
	DB	048H
	DB	044H
	DB	048H
	DB	0ffH
	DB	048H
	DB	048H
	DB	048H
	DB	0ffH
	DB	048H
	DB	048H
	DB	048H
	DB	0ffH
	DB	048H
	DB	044H
	DB	048H
	DB	0ffH
	DB	048H
	DB	048H
	DB	048H
	DB	0ffH
	DB	048H
	DB	048H
	DB	048H
	DB	0ffH
	DB	048H
	DB	044H
	DB	048H
	DB	0ffH
	DB	048H
	DB	048H
	DB	048H
	DB	0ffH
	DB	048H
	DB	048H
	DB	048H
	DB	0ffH
	DB	048H
	DB	044H
	DB	048H
	DB	0ffH
	DB	048H
	DB	048H
	DB	048H
	DB	0ffH
	DB	048H
	DB	048H
	DB	048H
	DB	0ffH
	DB	048H
	DB	044H
	DB	048H
	DB	0ffH
	DB	048H
	DB	048H
	DB	048H
	DB	0ffH
	DB	048H
	DB	048H
	DB	048H
	DB	0ffH
	DB	048H
	DB	044H
	DB	048H
	DB	0ffH
	DB	048H
	DB	048H
	DB	048H
	DB	0ffH
	DB	048H
	DB	048H
	DB	048H
	DB	0ffH
	DB	048H
	DB	044H
	DB	048H
	DB	0ffH
	DB	048H
	DB	048H
	DB	048H
	DB	0ffH
	DB	048H
	DB	048H
	DB	048H
	DB	0ffH
	DB	048H
	DB	044H
	DB	048H
	DB	0ffH
	DB	048H
	DB	048H
	DB	048H
	DB	0ffH
	DB	048H
	DB	048H
	DB	048H
	DB	0ffH
	DB	048H
	DB	044H
	DB	048H
	DB	0ffH
	DB	048H
	DB	048H
	DB	048H
	DB	0ffH
	DB	048H
	DB	048H
	DB	048H
	DB	0ffH
	DB	048H
	DB	044H
	DB	048H
	DB	0ffH
	DB	048H
	DB	048H
	DB	048H
	DB	0ffH
	DB	048H
	DB	048H
	DB	048H
	DB	0ffH
	DB	048H
	DB	044H
	DB	048H
	DB	0ffH
	DB	048H
	DB	048H
	DB	048H
	DB	0ffH
	DB	048H
	DB	048H
	DB	048H
	DB	0ffH
	DB	048H
	DB	044H
	DB	048H
	DB	0ffH
	DB	048H
	DB	048H
	DB	048H
	DB	0ffH
	DB	048H
	DB	048H
	DB	048H
	DB	0ffH
	DB	048H
	DB	044H
	DB	048H
	DB	0ffH
	DB	048H
	DB	048H
	DB	048H
	DB	0ffH
	DB	048H
	DB	048H
	DB	048H
	DB	0ffH
	DB	048H
	DB	044H
	DB	048H
	DB	0ffH
	DB	048H
	DB	048H
	DB	048H
	DB	0ffH
	DB	048H
	DB	048H
	DB	048H
	DB	0ffH
	DB	048H
	DB	044H
	DB	048H
	DB	0ffH
	DB	048H
	DB	048H
	DB	048H
	DB	0ffH
	DB	048H
	DB	048H
	DB	048H
	DB	0ffH
	DB	048H
	DB	044H
	DB	048H
	DB	0ffH
	DB	048H
	DB	048H
	DB	048H
	DB	0ffH
	DB	048H
	DB	048H
	DB	048H
	DB	0ffH
	DB	048H
	DB	044H
	DB	048H
	DB	0ffH
	DB	048H
	DB	048H
	DB	048H
	DB	0ffH
	DB	048H
	DB	048H
	DB	048H
	DB	0ffH
	DB	048H
	DB	044H
	DB	048H
	DB	0ffH
	DB	048H
	DB	048H
	DB	048H
	DB	0ffH
	DB	048H
	DB	048H
	DB	048H
	DB	0ffH
	DB	048H
	DB	044H
	DB	048H
	DB	0ffH
	DB	048H
	DB	048H
	DB	048H
	DB	0ffH
	DB	048H
	DB	048H
	DB	048H
	DB	0ffH
	DB	048H
	DB	044H
	DB	048H
	DB	0ffH
	DB	048H
	DB	048H
	DB	048H
	DB	0ffH
	DB	048H
	DB	048H
	DB	048H
	DB	0ffH
	DB	048H
	DB	044H
	DB	048H
	DB	0ffH
	DB	048H
	DB	048H
	DB	048H
	DB	0ffH
	DB	048H
	DB	048H
	DB	048H
	DB	0ffH
	DB	048H
	DB	044H
	DB	048H
	DB	0ffH
	DB	048H
	DB	048H
	DB	048H
	DB	0ffH
	DB	048H
	DB	048H
	DB	048H
	DB	0ffH
	DB	048H
	DB	044H
	DB	048H
	DB	0ffH
	DB	048H
	DB	048H
	DB	048H
	DB	0ffH
	DB	048H
	DB	048H
	DB	048H
	DB	0ffH
	DB	048H
	DB	044H
	DB	048H
	DB	0ffH
	DB	048H
	DB	048H
	DB	048H
	DB	0ffH
	DB	048H
	DB	048H
	DB	048H
	DB	0ffH
	DB	048H
	DB	044H
	DB	048H
	DB	0ffH
	DB	048H
	DB	048H
	DB	048H
	DB	0ffH
	DB	048H
	DB	048H
	DB	048H
	DB	0ffH
	DB	048H
	DB	044H
	DB	048H
	DB	0ffH
	DB	048H
	DB	048H
	DB	048H
	DB	0ffH
	DB	048H
	DB	048H
	DB	048H
	DB	0ffH
	DB	048H
	DB	044H
	DB	048H
	DB	0ffH
	DB	048H
	DB	048H
	DB	048H
	DB	0ffH
	DB	048H
	DB	048H
	DB	048H
	DB	0ffH
	DB	048H
	DB	044H
	DB	048H
	DB	0ffH
	DB	048H
	DB	048H
	DB	048H
	DB	0ffH
	DB	048H
	DB	048H
	DB	048H
	DB	0ffH
	DB	048H
	DB	044H
	DB	048H
	DB	0ffH
	DB	048H
	DB	048H
	DB	048H
	DB	0ffH
	DB	048H
	DB	048H
	DB	048H
	DB	0ffH
	DB	048H
	DB	044H
	DB	048H
	DB	0ffH
	DB	048H
	DB	048H
	DB	048H
	DB	0ffH
	DB	048H
	DB	048H
	DB	048H
	DB	0ffH
	DB	048H
	DB	044H
	DB	048H
	DB	0ffH
	DB	048H
	DB	048H
	DB	048H
	DB	0ffH
	DB	048H
	DB	048H
	DB	048H
	DB	0ffH
	DB	048H
	DB	044H
	DB	048H
	DB	0ffH
	DB	048H
	DB	048H
	DB	048H
	DB	0ffH
	DB	048H
	DB	048H
	DB	048H
	DB	0ffH
	DB	048H
	DB	044H
	DB	048H
	DB	0ffH
	DB	048H
	DB	048H
	DB	048H
	DB	0ffH
	DB	048H
	DB	048H
	DB	048H
	DB	0ffH
	DB	048H
	DB	044H
	DB	048H
	DB	0ffH
	DB	048H
	DB	048H
	DB	048H
	DB	0ffH
	DB	048H
	DB	048H
	DB	048H
	DB	0ffH
	DB	048H
	DB	044H
	DB	048H
	DB	0ffH
	DB	048H
	DB	048H
	DB	048H
	DB	0ffH
	DB	048H
	DB	048H
	DB	048H
	DB	0ffH
	DB	048H
	DB	044H
	DB	048H
	DB	0ffH
	DB	048H
	DB	048H
	DB	048H
	DB	0ffH
	DB	048H
	DB	048H
	DB	048H
	DB	0ffH
	DB	048H
	DB	044H
	DB	048H
	DB	0ffH
	DB	048H
	DB	048H
	DB	048H
	DB	0ffH
	DB	048H
	DB	048H
	DB	048H
	DB	0ffH
	DB	048H
	DB	044H
	DB	048H
	DB	0ffH
	DB	048H
	DB	048H
	DB	048H
	DB	0ffH
	DB	048H
	DB	048H
	DB	048H
	DB	0ffH
	DB	048H
	DB	044H
	DB	048H
	DB	0ffH
	DB	048H
	DB	048H
	DB	048H
	DB	0ffH
	DB	048H
	DB	048H
	DB	048H
	DB	0ffH
	DB	048H
	DB	044H
	DB	048H
	DB	0ffH
	DB	048H
	DB	048H
	DB	048H
	DB	0ffH
	DB	048H
	DB	048H
	DB	048H
	DB	0ffH
	DB	048H
	DB	044H
	DB	048H
	DB	0ffH
	DB	048H
	DB	048H
	DB	048H
	DB	0ffH
	DB	048H
	DB	048H
	DB	048H
	DB	0ffH
	DB	048H
	DB	044H
	DB	048H
	DB	0ffH
	DB	048H
	DB	048H
	DB	048H
	DB	0ffH
	DB	048H
	DB	048H
	DB	048H
	DB	0ffH
	DB	048H
	DB	044H
	DB	048H
	DB	0ffH
	DB	048H
	DB	048H
	DB	048H
	DB	0ffH
	DB	048H
	DB	048H
	DB	048H
	DB	0ffH
	DB	048H
	DB	044H
	DB	048H
	DB	0ffH
	DB	048H
	DB	048H
	DB	048H
	DB	0ffH
	DB	048H
	DB	048H
	DB	048H
	DB	0ffH
	DB	048H
	DB	044H
	DB	048H
	DB	0ffH
	DB	048H
	DB	048H
	DB	048H
	DB	0ffH
	DB	048H
	DB	048H
	DB	048H
	DB	0ffH
	DB	048H
	DB	044H
	DB	048H
	DB	0ffH
	DB	048H
	DB	048H
	DB	048H
	DB	0ffH
	DB	048H
	DB	048H
	DB	048H
	DB	0ffH
	DB	048H
	DB	044H
	DB	048H
	DB	0ffH
	DB	048H
	DB	048H
	DB	048H
	DB	0ffH
	DB	048H
	DB	048H
	DB	048H
	DB	0ffH
	DB	048H
	DB	044H
	DB	048H
	DB	0ffH
	DB	048H
	DB	048H
	DB	048H
	DB	0ffH
	DB	048H
	DB	048H
	DB	048H
	DB	0ffH
	DB	048H
	DB	044H
	DB	048H
	DB	0ffH
	DB	048H
	DB	048H
	DB	048H
	DB	0ffH
	DB	048H
	DB	048H
	DB	048H
	DB	0ffH
	DB	048H
	DB	044H
	DB	048H
	DB	0ffH
	DB	048H
	DB	048H
	DB	048H
	DB	0ffH
	DB	048H
	DB	048H
	DB	048H
	DB	0ffH
	DB	048H
	DB	044H
	DB	048H
	DB	0ffH
	DB	048H
	DB	048H
	DB	048H
	DB	0ffH
	DB	048H
	DB	048H
	DB	048H
	DB	0ffH
	DB	048H
	DB	044H
	DB	048H
	DB	0ffH
	DB	048H
	DB	048H
	DB	048H
	DB	0ffH
	DB	048H
	DB	048H
	DB	048H
	DB	0ffH
	DB	048H
	DB	044H
	DB	048H
	DB	0ffH
	DB	048H
	DB	048H
	DB	048H
	DB	0ffH
	DB	048H
	DB	048H
	DB	048H
	DB	0ffH
	DB	048H
	DB	044H
	DB	048H
	DB	0ffH
	DB	048H
	DB	048H
	DB	048H
	DB	0ffH
	DB	048H
	DB	048H
	DB	048H
	DB	0ffH
	DB	048H
	DB	044H
	DB	048H
	DB	0ffH
	DB	048H
	DB	048H
	DB	048H
	DB	0ffH
	DB	048H
	DB	044H
	DB	048H
	DB	0ffH
	DB	048H
	DB	044H
	DB	048H
	DB	0ffH
	DB	040H
	DB	044H
	DB	040H
	DB	0ffH
	DB	038H
	DB	03cH
	DB	038H
	DB	0ffH
	DB	040H
	DB	040H
	DB	040H
	DB	0ffH
	DB	040H
	DB	044H
	DB	040H
	DB	0ffH
	DB	048H
	DB	048H
	DB	048H
	DB	0ffH
	DB	048H
	DB	048H
	DB	048H
	DB	0ffH
	DB	048H
	DB	048H
	DB	048H
	DB	0ffH
	DB	048H
	DB	048H
	DB	048H
	DB	0ffH
	DB	048H
	DB	048H
	DB	048H
	DB	0ffH
	DB	048H
	DB	048H
	DB	048H
	DB	0ffH
	DB	048H
	DB	048H
	DB	048H
	DB	0ffH
	DB	048H
	DB	048H
	DB	048H
	DB	0ffH
	DB	048H
	DB	048H
	DB	048H
	DB	0ffH
	DB	048H
	DB	048H
	DB	048H
	DB	0ffH
	DB	048H
	DB	048H
	DB	048H
	DB	0ffH
	DB	048H
	DB	048H
	DB	048H
	DB	0ffH
	DB	048H
	DB	048H
	DB	048H
	DB	0ffH
	DB	048H
	DB	048H
	DB	048H
	DB	0ffH
	DB	048H
	DB	048H
	DB	048H
	DB	0ffH
	DB	048H
	DB	048H
	DB	048H
	DB	0ffH
	DB	048H
	DB	048H
	DB	048H
	DB	0ffH
	DB	048H
	DB	048H
	DB	048H
	DB	0ffH
	DB	048H
	DB	048H
	DB	048H
	DB	0ffH
	DB	048H
	DB	048H
	DB	048H
	DB	0ffH
	DB	048H
	DB	048H
	DB	048H
	DB	0ffH
	DB	048H
	DB	048H
	DB	048H
	DB	0ffH
	DB	048H
	DB	048H
	DB	048H
	DB	0ffH
	DB	048H
	DB	048H
	DB	048H
	DB	0ffH
	DB	048H
	DB	048H
	DB	048H
	DB	0ffH
	DB	048H
	DB	048H
	DB	048H
	DB	0ffH
	DB	048H
	DB	048H
	DB	048H
	DB	0ffH
	DB	048H
	DB	048H
	DB	048H
	DB	0ffH
	DB	048H
	DB	048H
	DB	048H
	DB	0ffH
	DB	048H
	DB	048H
	DB	048H
	DB	0ffH
	DB	048H
	DB	048H
	DB	048H
	DB	0ffH
	DB	048H
	DB	048H
	DB	048H
	DB	0ffH
	DB	048H
	DB	048H
	DB	048H
	DB	0ffH
	DB	048H
	DB	048H
	DB	048H
	DB	0ffH
	DB	048H
	DB	048H
	DB	048H
	DB	0ffH
	DB	048H
	DB	048H
	DB	048H
	DB	0ffH
	DB	048H
	DB	048H
	DB	048H
	DB	0ffH
	DB	048H
	DB	048H
	DB	048H
	DB	0ffH
	DB	048H
	DB	048H
	DB	048H
	DB	0ffH
	DB	048H
	DB	048H
	DB	048H
	DB	0ffH
	DB	048H
	DB	048H
	DB	048H
	DB	0ffH
	DB	048H
	DB	048H
	DB	048H
	DB	0ffH
	DB	048H
	DB	048H
	DB	048H
	DB	0ffH
	DB	048H
	DB	048H
	DB	048H
	DB	0ffH
	DB	048H
	DB	048H
	DB	048H
	DB	0ffH
	DB	048H
	DB	048H
	DB	048H
	DB	0ffH
	DB	048H
	DB	048H
	DB	048H
	DB	0ffH
	DB	048H
	DB	048H
	DB	048H
	DB	0ffH
	DB	048H
	DB	048H
	DB	048H
	DB	0ffH
	DB	048H
	DB	048H
	DB	048H
	DB	0ffH
	DB	048H
	DB	048H
	DB	048H
	DB	0ffH
	DB	048H
	DB	048H
	DB	048H
	DB	0ffH
	DB	048H
	DB	048H
	DB	048H
	DB	0ffH
	DB	048H
	DB	048H
	DB	048H
	DB	0ffH
	DB	048H
	DB	048H
	DB	048H
	DB	0ffH
	DB	048H
	DB	048H
	DB	048H
	DB	0ffH
	DB	048H
	DB	048H
	DB	048H
	DB	0ffH
	DB	048H
	DB	048H
	DB	048H
	DB	0ffH
	DB	048H
	DB	048H
	DB	048H
	DB	0ffH
	DB	048H
	DB	048H
	DB	048H
	DB	0ffH
	DB	048H
	DB	048H
	DB	048H
	DB	0ffH
	DB	048H
	DB	048H
	DB	048H
	DB	0ffH
	DB	048H
	DB	048H
	DB	048H
	DB	0ffH
	DB	048H
	DB	048H
	DB	048H
	DB	0ffH
	DB	048H
	DB	048H
	DB	048H
	DB	0ffH
	DB	048H
	DB	048H
	DB	048H
	DB	0ffH
	DB	048H
	DB	048H
	DB	048H
	DB	0ffH
	DB	048H
	DB	048H
	DB	048H
	DB	0ffH
	DB	048H
	DB	048H
	DB	048H
	DB	0ffH
	DB	048H
	DB	048H
	DB	048H
	DB	0ffH
	DB	048H
	DB	048H
	DB	048H
	DB	0ffH
	DB	048H
	DB	048H
	DB	048H
	DB	0ffH
	DB	048H
	DB	048H
	DB	048H
	DB	0ffH
	DB	048H
	DB	048H
	DB	048H
	DB	0ffH
	DB	048H
	DB	048H
	DB	048H
	DB	0ffH
	DB	048H
	DB	048H
	DB	048H
	DB	0ffH
	DB	048H
	DB	048H
	DB	048H
	DB	0ffH
	DB	048H
	DB	048H
	DB	048H
	DB	0ffH
	DB	048H
	DB	048H
	DB	048H
	DB	0ffH
	DB	048H
	DB	048H
	DB	048H
	DB	0ffH
	DB	048H
	DB	048H
	DB	048H
	DB	0ffH
	DB	048H
	DB	048H
	DB	048H
	DB	0ffH
	DB	048H
	DB	048H
	DB	048H
	DB	0ffH
	DB	048H
	DB	048H
	DB	048H
	DB	0ffH
	DB	048H
	DB	048H
	DB	048H
	DB	0ffH
	DB	048H
	DB	048H
	DB	048H
	DB	0ffH
	DB	048H
	DB	048H
	DB	048H
	DB	0ffH
	DB	048H
	DB	048H
	DB	048H
	DB	0ffH
	DB	048H
	DB	048H
	DB	048H
	DB	0ffH
	DB	048H
	DB	048H
	DB	048H
	DB	0ffH
	DB	048H
	DB	048H
	DB	048H
	DB	0ffH
	DB	048H
	DB	048H
	DB	048H
	DB	0ffH
	DB	048H
	DB	048H
	DB	048H
	DB	0ffH
	DB	048H
	DB	048H
	DB	048H
	DB	0ffH
	DB	048H
	DB	048H
	DB	048H
	DB	0ffH
	DB	048H
	DB	048H
	DB	048H
	DB	0ffH
	DB	048H
	DB	048H
	DB	048H
	DB	0ffH
	DB	048H
	DB	048H
	DB	048H
	DB	0ffH
	DB	048H
	DB	048H
	DB	048H
	DB	0ffH
	DB	048H
	DB	048H
	DB	048H
	DB	0ffH
	DB	048H
	DB	048H
	DB	048H
	DB	0ffH
	DB	048H
	DB	048H
	DB	048H
	DB	0ffH
	DB	048H
	DB	048H
	DB	048H
	DB	0ffH
	DB	048H
	DB	048H
	DB	048H
	DB	0ffH
	DB	048H
	DB	048H
	DB	048H
	DB	0ffH
	DB	048H
	DB	048H
	DB	048H
	DB	0ffH
	DB	048H
	DB	048H
	DB	048H
	DB	0ffH
	DB	048H
	DB	048H
	DB	048H
	DB	0ffH
	DB	048H
	DB	048H
	DB	048H
	DB	0ffH
	DB	048H
	DB	048H
	DB	048H
	DB	0ffH
	DB	048H
	DB	048H
	DB	048H
	DB	0ffH
	DB	048H
	DB	048H
	DB	048H
	DB	0ffH
	DB	048H
	DB	048H
	DB	048H
	DB	0ffH
	DB	048H
	DB	048H
	DB	048H
	DB	0ffH
	DB	048H
	DB	048H
	DB	048H
	DB	0ffH
	DB	048H
	DB	048H
	DB	048H
	DB	0ffH
	DB	048H
	DB	048H
	DB	048H
	DB	0ffH
	DB	048H
	DB	048H
	DB	048H
	DB	0ffH
	DB	048H
	DB	048H
	DB	048H
	DB	0ffH
	DB	048H
	DB	048H
	DB	048H
	DB	0ffH
	DB	048H
	DB	048H
	DB	048H
	DB	0ffH
	DB	048H
	DB	048H
	DB	048H
	DB	0ffH
	DB	048H
	DB	048H
	DB	048H
	DB	0ffH
	DB	048H
	DB	048H
	DB	048H
	DB	0ffH
	DB	048H
	DB	048H
	DB	048H
	DB	0ffH
	DB	048H
	DB	048H
	DB	048H
	DB	0ffH
	DB	048H
	DB	048H
	DB	048H
	DB	0ffH
	DB	048H
	DB	048H
	DB	048H
	DB	0ffH
	DB	048H
	DB	048H
	DB	048H
	DB	0ffH
	DB	048H
	DB	048H
	DB	048H
	DB	0ffH
	DB	048H
	DB	048H
	DB	048H
	DB	0ffH
	DB	048H
	DB	048H
	DB	048H
	DB	0ffH
	DB	048H
	DB	048H
	DB	048H
	DB	0ffH
	DB	048H
	DB	048H
	DB	048H
	DB	0ffH
	DB	048H
	DB	048H
	DB	048H
	DB	0ffH
	DB	048H
	DB	048H
	DB	048H
	DB	0ffH
	DB	048H
	DB	048H
	DB	048H
	DB	0ffH
	DB	048H
	DB	048H
	DB	048H
	DB	0ffH
	DB	048H
	DB	048H
	DB	048H
	DB	0ffH
	DB	048H
	DB	048H
	DB	048H
	DB	0ffH
	DB	048H
	DB	048H
	DB	048H
	DB	0ffH
	DB	048H
	DB	048H
	DB	048H
	DB	0ffH
	DB	048H
	DB	048H
	DB	048H
	DB	0ffH
	DB	048H
	DB	048H
	DB	048H
	DB	0ffH
	DB	048H
	DB	048H
	DB	048H
	DB	0ffH
	DB	048H
	DB	048H
	DB	048H
	DB	0ffH
	DB	048H
	DB	048H
	DB	048H
	DB	0ffH
	DB	048H
	DB	048H
	DB	048H
	DB	0ffH
	DB	048H
	DB	048H
	DB	048H
	DB	0ffH
	DB	048H
	DB	048H
	DB	048H
	DB	0ffH
	DB	048H
	DB	048H
	DB	048H
	DB	0ffH
	DB	048H
	DB	048H
	DB	048H
	DB	0ffH
	DB	048H
	DB	048H
	DB	048H
	DB	0ffH
	DB	048H
	DB	048H
	DB	048H
	DB	0ffH
	DB	048H
	DB	048H
	DB	048H
	DB	0ffH
	DB	048H
	DB	048H
	DB	048H
	DB	0ffH
	DB	048H
	DB	048H
	DB	048H
	DB	0ffH
	DB	048H
	DB	048H
	DB	048H
	DB	0ffH
	DB	048H
	DB	048H
	DB	048H
	DB	0ffH
	DB	048H
	DB	048H
	DB	048H
	DB	0ffH
	DB	048H
	DB	048H
	DB	048H
	DB	0ffH
	DB	048H
	DB	048H
	DB	048H
	DB	0ffH
	DB	048H
	DB	048H
	DB	048H
	DB	0ffH
	DB	048H
	DB	048H
	DB	048H
	DB	0ffH
	DB	048H
	DB	048H
	DB	048H
	DB	0ffH
	DB	048H
	DB	048H
	DB	048H
	DB	0ffH
	DB	048H
	DB	048H
	DB	048H
	DB	0ffH
	DB	048H
	DB	048H
	DB	048H
	DB	0ffH
	DB	048H
	DB	048H
	DB	048H
	DB	0ffH
	DB	048H
	DB	048H
	DB	048H
	DB	0ffH
	DB	048H
	DB	048H
	DB	048H
	DB	0ffH
	DB	048H
	DB	048H
	DB	048H
	DB	0ffH
	DB	048H
	DB	048H
	DB	048H
	DB	0ffH
	DB	048H
	DB	048H
	DB	048H
	DB	0ffH
	DB	048H
	DB	048H
	DB	048H
	DB	0ffH
	DB	048H
	DB	048H
	DB	048H
	DB	0ffH
	DB	048H
	DB	048H
	DB	048H
	DB	0ffH
	DB	048H
	DB	048H
	DB	048H
	DB	0ffH
	DB	048H
	DB	048H
	DB	048H
	DB	0ffH
	DB	048H
	DB	048H
	DB	048H
	DB	0ffH
	DB	048H
	DB	048H
	DB	048H
	DB	0ffH
	DB	048H
	DB	048H
	DB	048H
	DB	0ffH
	DB	048H
	DB	048H
	DB	048H
	DB	0ffH
	DB	048H
	DB	048H
	DB	048H
	DB	0ffH
	DB	048H
	DB	048H
	DB	048H
	DB	0ffH
	DB	048H
	DB	048H
	DB	048H
	DB	0ffH
	DB	048H
	DB	048H
	DB	048H
	DB	0ffH
	DB	048H
	DB	048H
	DB	048H
	DB	0ffH
	DB	048H
	DB	048H
	DB	048H
	DB	0ffH
	DB	048H
	DB	048H
	DB	048H
	DB	0ffH
	DB	048H
	DB	048H
	DB	048H
	DB	0ffH
	DB	048H
	DB	048H
	DB	048H
	DB	0ffH
	DB	048H
	DB	048H
	DB	048H
	DB	0ffH
	DB	048H
	DB	048H
	DB	048H
	DB	0ffH
	DB	048H
	DB	048H
	DB	048H
	DB	0ffH
	DB	048H
	DB	048H
	DB	048H
	DB	0ffH
	DB	048H
	DB	048H
	DB	048H
	DB	0ffH
	DB	048H
	DB	048H
	DB	048H
	DB	0ffH
	DB	048H
	DB	048H
	DB	048H
	DB	0ffH
	DB	048H
	DB	048H
	DB	048H
	DB	0ffH
	DB	048H
	DB	048H
	DB	048H
	DB	0ffH
	DB	048H
	DB	048H
	DB	048H
	DB	0ffH
	DB	048H
	DB	048H
	DB	048H
	DB	0ffH
	DB	048H
	DB	048H
	DB	048H
	DB	0ffH
	DB	048H
	DB	048H
	DB	048H
	DB	0ffH
	DB	048H
	DB	048H
	DB	048H
	DB	0ffH
	DB	048H
	DB	048H
	DB	048H
	DB	0ffH
	DB	048H
	DB	048H
	DB	048H
	DB	0ffH
	DB	048H
	DB	048H
	DB	048H
	DB	0ffH
	DB	048H
	DB	048H
	DB	048H
	DB	0ffH
	DB	048H
	DB	048H
	DB	048H
	DB	0ffH
	DB	048H
	DB	048H
	DB	048H
	DB	0ffH
	DB	048H
	DB	048H
	DB	048H
	DB	0ffH
	DB	048H
	DB	048H
	DB	048H
	DB	0ffH
	DB	048H
	DB	048H
	DB	048H
	DB	0ffH
	DB	048H
	DB	048H
	DB	048H
	DB	0ffH
	DB	048H
	DB	048H
	DB	048H
	DB	0ffH
	DB	048H
	DB	048H
	DB	048H
	DB	0ffH
	DB	048H
	DB	048H
	DB	048H
	DB	0ffH
	DB	048H
	DB	048H
	DB	048H
	DB	0ffH
	DB	048H
	DB	048H
	DB	048H
	DB	0ffH
	DB	048H
	DB	048H
	DB	048H
	DB	0ffH
	DB	048H
	DB	048H
	DB	048H
	DB	0ffH
	DB	048H
	DB	048H
	DB	048H
	DB	0ffH
	DB	048H
	DB	048H
	DB	048H
	DB	0ffH
	DB	048H
	DB	048H
	DB	048H
	DB	0ffH
	DB	048H
	DB	048H
	DB	048H
	DB	0ffH
	DB	048H
	DB	048H
	DB	048H
	DB	0ffH
	DB	048H
	DB	048H
	DB	048H
	DB	0ffH
	DB	048H
	DB	048H
	DB	048H
	DB	0ffH
	DB	048H
	DB	048H
	DB	048H
	DB	0ffH
	DB	048H
	DB	048H
	DB	048H
	DB	0ffH
	DB	048H
	DB	048H
	DB	048H
	DB	0ffH
	DB	048H
	DB	048H
	DB	048H
	DB	0ffH
	DB	048H
	DB	048H
	DB	048H
	DB	0ffH
	DB	048H
	DB	048H
	DB	048H
	DB	0ffH
	DB	048H
	DB	048H
	DB	048H
	DB	0ffH
	DB	048H
	DB	048H
	DB	048H
	DB	0ffH
	DB	048H
	DB	048H
	DB	048H
	DB	0ffH
	DB	048H
	DB	048H
	DB	048H
	DB	0ffH
	DB	048H
	DB	048H
	DB	048H
	DB	0ffH
	DB	048H
	DB	048H
	DB	048H
	DB	0ffH
	DB	048H
	DB	048H
	DB	048H
	DB	0ffH
	DB	048H
	DB	048H
	DB	048H
	DB	0ffH
	DB	048H
	DB	048H
	DB	048H
	DB	0ffH
	DB	048H
	DB	048H
	DB	048H
	DB	0ffH
	DB	048H
	DB	048H
	DB	048H
	DB	0ffH
	DB	048H
	DB	048H
	DB	048H
	DB	0ffH
	DB	048H
	DB	048H
	DB	048H
	DB	0ffH
	DB	048H
	DB	048H
	DB	048H
	DB	0ffH
	DB	048H
	DB	048H
	DB	048H
	DB	0ffH
	DB	048H
	DB	048H
	DB	048H
	DB	0ffH
	DB	048H
	DB	048H
	DB	048H
	DB	0ffH
	DB	048H
	DB	048H
	DB	048H
	DB	0ffH
	DB	048H
	DB	048H
	DB	048H
	DB	0ffH
	DB	048H
	DB	048H
	DB	048H
	DB	0ffH
	DB	048H
	DB	048H
	DB	048H
	DB	0ffH
	DB	048H
	DB	048H
	DB	048H
	DB	0ffH
	DB	048H
	DB	048H
	DB	048H
	DB	0ffH
	DB	048H
	DB	048H
	DB	048H
	DB	0ffH
	DB	048H
	DB	048H
	DB	048H
	DB	0ffH
	DB	048H
	DB	048H
	DB	048H
	DB	0ffH
	DB	048H
	DB	048H
	DB	048H
	DB	0ffH
	DB	048H
	DB	048H
	DB	048H
	DB	0ffH
	DB	048H
	DB	048H
	DB	048H
	DB	0ffH
	DB	048H
	DB	048H
	DB	048H
	DB	0ffH
	DB	048H
	DB	048H
	DB	048H
	DB	0ffH
	DB	048H
	DB	048H
	DB	048H
	DB	0ffH
	DB	048H
	DB	048H
	DB	048H
	DB	0ffH
	DB	048H
	DB	048H
	DB	048H
	DB	0ffH
	DB	048H
	DB	048H
	DB	048H
	DB	0ffH
	DB	048H
	DB	048H
	DB	048H
	DB	0ffH
	DB	048H
	DB	048H
	DB	048H
	DB	0ffH
	DB	048H
	DB	048H
	DB	048H
	DB	0ffH
	DB	048H
	DB	048H
	DB	048H
	DB	0ffH
	DB	048H
	DB	048H
	DB	048H
	DB	0ffH
	DB	048H
	DB	048H
	DB	048H
	DB	0ffH
	DB	048H
	DB	048H
	DB	048H
	DB	0ffH
	DB	048H
	DB	048H
	DB	048H
	DB	0ffH
	DB	048H
	DB	048H
	DB	048H
	DB	0ffH
	DB	048H
	DB	048H
	DB	048H
	DB	0ffH
	DB	048H
	DB	048H
	DB	048H
	DB	0ffH
	DB	048H
	DB	048H
	DB	048H
	DB	0ffH
	DB	048H
	DB	048H
	DB	048H
	DB	0ffH
	DB	048H
	DB	048H
	DB	048H
	DB	0ffH
	DB	048H
	DB	048H
	DB	048H
	DB	0ffH
	DB	048H
	DB	048H
	DB	048H
	DB	0ffH
	DB	048H
	DB	048H
	DB	048H
	DB	0ffH
	DB	048H
	DB	048H
	DB	048H
	DB	0ffH
	DB	048H
	DB	048H
	DB	048H
	DB	0ffH
	DB	048H
	DB	048H
	DB	048H
	DB	0ffH
	DB	048H
	DB	048H
	DB	048H
	DB	0ffH
	DB	048H
	DB	048H
	DB	048H
	DB	0ffH
	DB	048H
	DB	048H
	DB	048H
	DB	0ffH
	DB	048H
	DB	048H
	DB	048H
	DB	0ffH
	DB	048H
	DB	048H
	DB	048H
	DB	0ffH
	DB	048H
	DB	048H
	DB	048H
	DB	0ffH
	DB	048H
	DB	048H
	DB	048H
	DB	0ffH
	DB	048H
	DB	048H
	DB	048H
	DB	0ffH
	DB	048H
	DB	048H
	DB	048H
	DB	0ffH
	DB	048H
	DB	048H
	DB	048H
	DB	0ffH
	DB	048H
	DB	048H
	DB	048H
	DB	0ffH
	DB	048H
	DB	048H
	DB	048H
	DB	0ffH
	DB	048H
	DB	048H
	DB	048H
	DB	0ffH
	DB	048H
	DB	048H
	DB	048H
	DB	0ffH
	DB	048H
	DB	048H
	DB	048H
	DB	0ffH
	DB	048H
	DB	048H
	DB	048H
	DB	0ffH
	DB	048H
	DB	048H
	DB	048H
	DB	0ffH
	DB	048H
	DB	048H
	DB	048H
	DB	0ffH
	DB	048H
	DB	048H
	DB	048H
	DB	0ffH
	DB	048H
	DB	048H
	DB	048H
	DB	0ffH
	DB	048H
	DB	048H
	DB	048H
	DB	0ffH
	DB	048H
	DB	048H
	DB	048H
	DB	0ffH
	DB	048H
	DB	048H
	DB	048H
	DB	0ffH
	DB	048H
	DB	048H
	DB	048H
	DB	0ffH
	DB	048H
	DB	048H
	DB	048H
	DB	0ffH
	DB	048H
	DB	048H
	DB	048H
	DB	0ffH
	DB	048H
	DB	048H
	DB	048H
	DB	0ffH
	DB	048H
	DB	048H
	DB	048H
	DB	0ffH
	DB	048H
	DB	048H
	DB	048H
	DB	0ffH
	DB	048H
	DB	048H
	DB	048H
	DB	0ffH
	DB	048H
	DB	048H
	DB	048H
	DB	0ffH
	DB	048H
	DB	048H
	DB	048H
	DB	0ffH
	DB	048H
	DB	048H
	DB	048H
	DB	0ffH
	DB	048H
	DB	048H
	DB	048H
	DB	0ffH
	DB	048H
	DB	048H
	DB	048H
	DB	0ffH
	DB	048H
	DB	048H
	DB	048H
	DB	0ffH
	DB	048H
	DB	048H
	DB	048H
	DB	0ffH
	DB	048H
	DB	048H
	DB	048H
	DB	0ffH
	DB	048H
	DB	048H
	DB	048H
	DB	0ffH
	DB	048H
	DB	048H
	DB	048H
	DB	0ffH
	DB	048H
	DB	048H
	DB	048H
	DB	0ffH
	DB	048H
	DB	048H
	DB	048H
	DB	0ffH
	DB	048H
	DB	048H
	DB	048H
	DB	0ffH
	DB	048H
	DB	048H
	DB	048H
	DB	0ffH
	DB	048H
	DB	048H
	DB	048H
	DB	0ffH
	DB	048H
	DB	048H
	DB	048H
	DB	0ffH
	DB	048H
	DB	048H
	DB	048H
	DB	0ffH
	DB	048H
	DB	048H
	DB	048H
	DB	0ffH
	DB	048H
	DB	048H
	DB	048H
	DB	0ffH
	DB	048H
	DB	048H
	DB	048H
	DB	0ffH
	DB	048H
	DB	048H
	DB	048H
	DB	0ffH
	DB	048H
	DB	048H
	DB	048H
	DB	0ffH
	DB	048H
	DB	048H
	DB	048H
	DB	0ffH
	DB	048H
	DB	048H
	DB	048H
	DB	0ffH
	DB	048H
	DB	048H
	DB	048H
	DB	0ffH
	DB	048H
	DB	048H
	DB	048H
	DB	0ffH
	DB	048H
	DB	048H
	DB	048H
	DB	0ffH
	DB	048H
	DB	044H
	DB	048H
	DB	0ffH
	DB	040H
	DB	03cH
	DB	040H
	DB	0ffH
	DB	040H
	DB	040H
	DB	040H
	DB	0ffH
	DB	048H
	DB	048H
	DB	048H
	DB	0ffH
	DB	048H
	DB	048H
	DB	048H
	DB	0ffH
	DB	048H
	DB	04cH
	DB	048H
	DB	0ffH
	DB	048H
	DB	04cH
	DB	048H
	DB	0ffH
	DB	048H
	DB	048H
	DB	048H
	DB	0ffH
	DB	048H
	DB	048H
	DB	048H
	DB	0ffH
	DB	048H
	DB	04cH
	DB	048H
	DB	0ffH
	DB	048H
	DB	048H
	DB	048H
	DB	0ffH
	DB	048H
	DB	048H
	DB	048H
	DB	0ffH
	DB	048H
	DB	04cH
	DB	048H
	DB	0ffH
	DB	048H
	DB	048H
	DB	048H
	DB	0ffH
	DB	048H
	DB	048H
	DB	048H
	DB	0ffH
	DB	048H
	DB	04cH
	DB	048H
	DB	0ffH
	DB	048H
	DB	048H
	DB	048H
	DB	0ffH
	DB	048H
	DB	048H
	DB	048H
	DB	0ffH
	DB	048H
	DB	04cH
	DB	048H
	DB	0ffH
	DB	048H
	DB	048H
	DB	048H
	DB	0ffH
	DB	048H
	DB	048H
	DB	048H
	DB	0ffH
	DB	048H
	DB	04cH
	DB	048H
	DB	0ffH
	DB	048H
	DB	048H
	DB	048H
	DB	0ffH
	DB	048H
	DB	048H
	DB	048H
	DB	0ffH
	DB	048H
	DB	04cH
	DB	048H
	DB	0ffH
	DB	048H
	DB	048H
	DB	048H
	DB	0ffH
	DB	048H
	DB	048H
	DB	048H
	DB	0ffH
	DB	048H
	DB	04cH
	DB	048H
	DB	0ffH
	DB	048H
	DB	048H
	DB	048H
	DB	0ffH
	DB	048H
	DB	048H
	DB	048H
	DB	0ffH
	DB	048H
	DB	04cH
	DB	048H
	DB	0ffH
	DB	048H
	DB	048H
	DB	048H
	DB	0ffH
	DB	048H
	DB	048H
	DB	048H
	DB	0ffH
	DB	048H
	DB	04cH
	DB	048H
	DB	0ffH
	DB	048H
	DB	048H
	DB	048H
	DB	0ffH
	DB	048H
	DB	048H
	DB	048H
	DB	0ffH
	DB	048H
	DB	04cH
	DB	048H
	DB	0ffH
	DB	048H
	DB	048H
	DB	048H
	DB	0ffH
	DB	048H
	DB	048H
	DB	048H
	DB	0ffH
	DB	048H
	DB	04cH
	DB	048H
	DB	0ffH
	DB	048H
	DB	048H
	DB	048H
	DB	0ffH
	DB	048H
	DB	048H
	DB	048H
	DB	0ffH
	DB	048H
	DB	04cH
	DB	048H
	DB	0ffH
	DB	048H
	DB	048H
	DB	048H
	DB	0ffH
	DB	048H
	DB	048H
	DB	048H
	DB	0ffH
	DB	048H
	DB	04cH
	DB	048H
	DB	0ffH
	DB	048H
	DB	048H
	DB	048H
	DB	0ffH
	DB	048H
	DB	048H
	DB	048H
	DB	0ffH
	DB	048H
	DB	04cH
	DB	048H
	DB	0ffH
	DB	048H
	DB	048H
	DB	048H
	DB	0ffH
	DB	048H
	DB	048H
	DB	048H
	DB	0ffH
	DB	048H
	DB	04cH
	DB	048H
	DB	0ffH
	DB	048H
	DB	048H
	DB	048H
	DB	0ffH
	DB	048H
	DB	048H
	DB	048H
	DB	0ffH
	DB	048H
	DB	04cH
	DB	048H
	DB	0ffH
	DB	048H
	DB	048H
	DB	048H
	DB	0ffH
	DB	048H
	DB	048H
	DB	048H
	DB	0ffH
	DB	048H
	DB	04cH
	DB	048H
	DB	0ffH
	DB	048H
	DB	048H
	DB	048H
	DB	0ffH
	DB	048H
	DB	048H
	DB	048H
	DB	0ffH
	DB	048H
	DB	04cH
	DB	048H
	DB	0ffH
	DB	048H
	DB	048H
	DB	048H
	DB	0ffH
	DB	048H
	DB	048H
	DB	048H
	DB	0ffH
	DB	048H
	DB	04cH
	DB	048H
	DB	0ffH
	DB	048H
	DB	048H
	DB	048H
	DB	0ffH
	DB	048H
	DB	048H
	DB	048H
	DB	0ffH
	DB	048H
	DB	04cH
	DB	048H
	DB	0ffH
	DB	048H
	DB	048H
	DB	048H
	DB	0ffH
	DB	048H
	DB	048H
	DB	048H
	DB	0ffH
	DB	048H
	DB	04cH
	DB	048H
	DB	0ffH
	DB	048H
	DB	048H
	DB	048H
	DB	0ffH
	DB	048H
	DB	048H
	DB	048H
	DB	0ffH
	DB	048H
	DB	04cH
	DB	048H
	DB	0ffH
	DB	048H
	DB	048H
	DB	048H
	DB	0ffH
	DB	048H
	DB	048H
	DB	048H
	DB	0ffH
	DB	048H
	DB	04cH
	DB	048H
	DB	0ffH
	DB	048H
	DB	048H
	DB	048H
	DB	0ffH
	DB	048H
	DB	048H
	DB	048H
	DB	0ffH
	DB	048H
	DB	04cH
	DB	048H
	DB	0ffH
	DB	048H
	DB	048H
	DB	048H
	DB	0ffH
	DB	048H
	DB	048H
	DB	048H
	DB	0ffH
	DB	048H
	DB	04cH
	DB	048H
	DB	0ffH
	DB	048H
	DB	048H
	DB	048H
	DB	0ffH
	DB	048H
	DB	048H
	DB	048H
	DB	0ffH
	DB	048H
	DB	04cH
	DB	048H
	DB	0ffH
	DB	048H
	DB	048H
	DB	048H
	DB	0ffH
	DB	048H
	DB	048H
	DB	048H
	DB	0ffH
	DB	048H
	DB	04cH
	DB	048H
	DB	0ffH
	DB	048H
	DB	048H
	DB	048H
	DB	0ffH
	DB	048H
	DB	048H
	DB	048H
	DB	0ffH
	DB	048H
	DB	04cH
	DB	048H
	DB	0ffH
	DB	048H
	DB	048H
	DB	048H
	DB	0ffH
	DB	048H
	DB	048H
	DB	048H
	DB	0ffH
	DB	048H
	DB	04cH
	DB	048H
	DB	0ffH
	DB	048H
	DB	048H
	DB	048H
	DB	0ffH
	DB	048H
	DB	048H
	DB	048H
	DB	0ffH
	DB	048H
	DB	04cH
	DB	048H
	DB	0ffH
	DB	048H
	DB	048H
	DB	048H
	DB	0ffH
	DB	048H
	DB	048H
	DB	048H
	DB	0ffH
	DB	048H
	DB	04cH
	DB	048H
	DB	0ffH
	DB	048H
	DB	048H
	DB	048H
	DB	0ffH
	DB	048H
	DB	048H
	DB	048H
	DB	0ffH
	DB	048H
	DB	04cH
	DB	048H
	DB	0ffH
	DB	048H
	DB	048H
	DB	048H
	DB	0ffH
	DB	048H
	DB	048H
	DB	048H
	DB	0ffH
	DB	048H
	DB	04cH
	DB	048H
	DB	0ffH
	DB	048H
	DB	048H
	DB	048H
	DB	0ffH
	DB	048H
	DB	048H
	DB	048H
	DB	0ffH
	DB	048H
	DB	04cH
	DB	048H
	DB	0ffH
	DB	048H
	DB	048H
	DB	048H
	DB	0ffH
	DB	048H
	DB	048H
	DB	048H
	DB	0ffH
	DB	048H
	DB	04cH
	DB	048H
	DB	0ffH
	DB	048H
	DB	048H
	DB	048H
	DB	0ffH
	DB	048H
	DB	048H
	DB	048H
	DB	0ffH
	DB	048H
	DB	04cH
	DB	048H
	DB	0ffH
	DB	048H
	DB	048H
	DB	048H
	DB	0ffH
	DB	048H
	DB	048H
	DB	048H
	DB	0ffH
	DB	048H
	DB	04cH
	DB	048H
	DB	0ffH
	DB	048H
	DB	048H
	DB	048H
	DB	0ffH
	DB	048H
	DB	048H
	DB	048H
	DB	0ffH
	DB	048H
	DB	04cH
	DB	048H
	DB	0ffH
	DB	048H
	DB	048H
	DB	048H
	DB	0ffH
	DB	048H
	DB	048H
	DB	048H
	DB	0ffH
	DB	048H
	DB	04cH
	DB	048H
	DB	0ffH
	DB	048H
	DB	048H
	DB	048H
	DB	0ffH
	DB	048H
	DB	048H
	DB	048H
	DB	0ffH
	DB	048H
	DB	04cH
	DB	048H
	DB	0ffH
	DB	048H
	DB	048H
	DB	048H
	DB	0ffH
	DB	048H
	DB	048H
	DB	048H
	DB	0ffH
	DB	048H
	DB	04cH
	DB	048H
	DB	0ffH
	DB	048H
	DB	048H
	DB	048H
	DB	0ffH
	DB	048H
	DB	048H
	DB	048H
	DB	0ffH
	DB	048H
	DB	04cH
	DB	048H
	DB	0ffH
	DB	048H
	DB	048H
	DB	048H
	DB	0ffH
	DB	048H
	DB	048H
	DB	048H
	DB	0ffH
	DB	048H
	DB	04cH
	DB	048H
	DB	0ffH
	DB	048H
	DB	048H
	DB	048H
	DB	0ffH
	DB	048H
	DB	048H
	DB	048H
	DB	0ffH
	DB	048H
	DB	04cH
	DB	048H
	DB	0ffH
	DB	048H
	DB	048H
	DB	048H
	DB	0ffH
	DB	048H
	DB	048H
	DB	048H
	DB	0ffH
	DB	048H
	DB	04cH
	DB	048H
	DB	0ffH
	DB	048H
	DB	048H
	DB	048H
	DB	0ffH
	DB	048H
	DB	048H
	DB	048H
	DB	0ffH
	DB	048H
	DB	04cH
	DB	048H
	DB	0ffH
	DB	048H
	DB	048H
	DB	048H
	DB	0ffH
	DB	048H
	DB	048H
	DB	048H
	DB	0ffH
	DB	048H
	DB	04cH
	DB	048H
	DB	0ffH
	DB	048H
	DB	048H
	DB	048H
	DB	0ffH
	DB	048H
	DB	048H
	DB	048H
	DB	0ffH
	DB	048H
	DB	04cH
	DB	048H
	DB	0ffH
	DB	048H
	DB	048H
	DB	048H
	DB	0ffH
	DB	048H
	DB	048H
	DB	048H
	DB	0ffH
	DB	048H
	DB	04cH
	DB	048H
	DB	0ffH
	DB	048H
	DB	048H
	DB	048H
	DB	0ffH
	DB	048H
	DB	048H
	DB	048H
	DB	0ffH
	DB	048H
	DB	04cH
	DB	048H
	DB	0ffH
	DB	048H
	DB	048H
	DB	048H
	DB	0ffH
	DB	048H
	DB	048H
	DB	048H
	DB	0ffH
	DB	048H
	DB	04cH
	DB	048H
	DB	0ffH
	DB	048H
	DB	048H
	DB	048H
	DB	0ffH
	DB	048H
	DB	048H
	DB	048H
	DB	0ffH
	DB	048H
	DB	04cH
	DB	048H
	DB	0ffH
	DB	048H
	DB	048H
	DB	048H
	DB	0ffH
	DB	048H
	DB	048H
	DB	048H
	DB	0ffH
	DB	048H
	DB	04cH
	DB	048H
	DB	0ffH
	DB	048H
	DB	048H
	DB	048H
	DB	0ffH
	DB	048H
	DB	048H
	DB	048H
	DB	0ffH
	DB	048H
	DB	04cH
	DB	048H
	DB	0ffH
	DB	048H
	DB	048H
	DB	048H
	DB	0ffH
	DB	048H
	DB	048H
	DB	048H
	DB	0ffH
	DB	048H
	DB	04cH
	DB	048H
	DB	0ffH
	DB	048H
	DB	048H
	DB	048H
	DB	0ffH
	DB	048H
	DB	048H
	DB	048H
	DB	0ffH
	DB	048H
	DB	04cH
	DB	048H
	DB	0ffH
	DB	048H
	DB	048H
	DB	048H
	DB	0ffH
	DB	048H
	DB	048H
	DB	048H
	DB	0ffH
	DB	048H
	DB	04cH
	DB	048H
	DB	0ffH
	DB	048H
	DB	048H
	DB	048H
	DB	0ffH
	DB	048H
	DB	048H
	DB	048H
	DB	0ffH
	DB	048H
	DB	04cH
	DB	048H
	DB	0ffH
	DB	048H
	DB	048H
	DB	048H
	DB	0ffH
	DB	048H
	DB	048H
	DB	048H
	DB	0ffH
	DB	048H
	DB	04cH
	DB	048H
	DB	0ffH
	DB	048H
	DB	048H
	DB	048H
	DB	0ffH
	DB	048H
	DB	048H
	DB	048H
	DB	0ffH
	DB	048H
	DB	04cH
	DB	048H
	DB	0ffH
	DB	048H
	DB	048H
	DB	048H
	DB	0ffH
	DB	048H
	DB	048H
	DB	048H
	DB	0ffH
	DB	048H
	DB	04cH
	DB	048H
	DB	0ffH
	DB	048H
	DB	048H
	DB	048H
	DB	0ffH
	DB	048H
	DB	048H
	DB	048H
	DB	0ffH
	DB	048H
	DB	04cH
	DB	048H
	DB	0ffH
	DB	048H
	DB	048H
	DB	048H
	DB	0ffH
	DB	048H
	DB	048H
	DB	048H
	DB	0ffH
	DB	048H
	DB	04cH
	DB	048H
	DB	0ffH
	DB	048H
	DB	048H
	DB	048H
	DB	0ffH
	DB	048H
	DB	048H
	DB	048H
	DB	0ffH
	DB	048H
	DB	04cH
	DB	048H
	DB	0ffH
	DB	048H
	DB	048H
	DB	048H
	DB	0ffH
	DB	048H
	DB	048H
	DB	048H
	DB	0ffH
	DB	048H
	DB	04cH
	DB	048H
	DB	0ffH
	DB	048H
	DB	048H
	DB	048H
	DB	0ffH
	DB	048H
	DB	048H
	DB	048H
	DB	0ffH
	DB	048H
	DB	04cH
	DB	048H
	DB	0ffH
	DB	048H
	DB	048H
	DB	048H
	DB	0ffH
	DB	048H
	DB	048H
	DB	048H
	DB	0ffH
	DB	048H
	DB	04cH
	DB	048H
	DB	0ffH
	DB	048H
	DB	048H
	DB	048H
	DB	0ffH
	DB	048H
	DB	048H
	DB	048H
	DB	0ffH
	DB	048H
	DB	04cH
	DB	048H
	DB	0ffH
	DB	048H
	DB	048H
	DB	048H
	DB	0ffH
	DB	048H
	DB	048H
	DB	048H
	DB	0ffH
	DB	048H
	DB	04cH
	DB	048H
	DB	0ffH
	DB	048H
	DB	048H
	DB	048H
	DB	0ffH
	DB	048H
	DB	048H
	DB	048H
	DB	0ffH
	DB	048H
	DB	04cH
	DB	048H
	DB	0ffH
	DB	048H
	DB	048H
	DB	048H
	DB	0ffH
	DB	048H
	DB	048H
	DB	048H
	DB	0ffH
	DB	048H
	DB	04cH
	DB	048H
	DB	0ffH
	DB	048H
	DB	048H
	DB	048H
	DB	0ffH
	DB	048H
	DB	048H
	DB	048H
	DB	0ffH
	DB	048H
	DB	04cH
	DB	048H
	DB	0ffH
	DB	048H
	DB	048H
	DB	048H
	DB	0ffH
	DB	048H
	DB	048H
	DB	048H
	DB	0ffH
	DB	048H
	DB	04cH
	DB	048H
	DB	0ffH
	DB	048H
	DB	048H
	DB	048H
	DB	0ffH
	DB	048H
	DB	048H
	DB	048H
	DB	0ffH
	DB	048H
	DB	04cH
	DB	048H
	DB	0ffH
	DB	048H
	DB	048H
	DB	048H
	DB	0ffH
	DB	048H
	DB	048H
	DB	048H
	DB	0ffH
	DB	048H
	DB	04cH
	DB	048H
	DB	0ffH
	DB	048H
	DB	048H
	DB	048H
	DB	0ffH
	DB	048H
	DB	048H
	DB	048H
	DB	0ffH
	DB	048H
	DB	04cH
	DB	048H
	DB	0ffH
	DB	048H
	DB	048H
	DB	048H
	DB	0ffH
	DB	048H
	DB	048H
	DB	048H
	DB	0ffH
	DB	048H
	DB	04cH
	DB	048H
	DB	0ffH
	DB	048H
	DB	048H
	DB	048H
	DB	0ffH
	DB	048H
	DB	048H
	DB	048H
	DB	0ffH
	DB	048H
	DB	04cH
	DB	048H
	DB	0ffH
	DB	048H
	DB	048H
	DB	048H
	DB	0ffH
	DB	048H
	DB	048H
	DB	048H
	DB	0ffH
	DB	048H
	DB	04cH
	DB	048H
	DB	0ffH
	DB	048H
	DB	048H
	DB	048H
	DB	0ffH
	DB	048H
	DB	048H
	DB	048H
	DB	0ffH
	DB	048H
	DB	04cH
	DB	048H
	DB	0ffH
	DB	048H
	DB	048H
	DB	048H
	DB	0ffH
	DB	048H
	DB	048H
	DB	048H
	DB	0ffH
	DB	048H
	DB	04cH
	DB	048H
	DB	0ffH
	DB	048H
	DB	048H
	DB	048H
	DB	0ffH
	DB	048H
	DB	048H
	DB	048H
	DB	0ffH
	DB	048H
	DB	04cH
	DB	048H
	DB	0ffH
	DB	048H
	DB	048H
	DB	048H
	DB	0ffH
	DB	048H
	DB	048H
	DB	048H
	DB	0ffH
	DB	048H
	DB	04cH
	DB	048H
	DB	0ffH
	DB	048H
	DB	048H
	DB	048H
	DB	0ffH
	DB	048H
	DB	048H
	DB	048H
	DB	0ffH
	DB	048H
	DB	04cH
	DB	048H
	DB	0ffH
	DB	048H
	DB	048H
	DB	048H
	DB	0ffH
	DB	048H
	DB	048H
	DB	048H
	DB	0ffH
	DB	048H
	DB	04cH
	DB	048H
	DB	0ffH
	DB	048H
	DB	048H
	DB	048H
	DB	0ffH
	DB	048H
	DB	048H
	DB	048H
	DB	0ffH
	DB	048H
	DB	04cH
	DB	048H
	DB	0ffH
	DB	048H
	DB	048H
	DB	048H
	DB	0ffH
	DB	048H
	DB	048H
	DB	048H
	DB	0ffH
	DB	048H
	DB	04cH
	DB	048H
	DB	0ffH
	DB	048H
	DB	048H
	DB	048H
	DB	0ffH
	DB	048H
	DB	048H
	DB	048H
	DB	0ffH
	DB	048H
	DB	04cH
	DB	048H
	DB	0ffH
	DB	048H
	DB	048H
	DB	048H
	DB	0ffH
	DB	048H
	DB	048H
	DB	048H
	DB	0ffH
	DB	048H
	DB	04cH
	DB	048H
	DB	0ffH
	DB	048H
	DB	048H
	DB	048H
	DB	0ffH
	DB	048H
	DB	048H
	DB	048H
	DB	0ffH
	DB	048H
	DB	04cH
	DB	048H
	DB	0ffH
	DB	048H
	DB	048H
	DB	048H
	DB	0ffH
	DB	048H
	DB	048H
	DB	048H
	DB	0ffH
	DB	048H
	DB	04cH
	DB	048H
	DB	0ffH
	DB	048H
	DB	048H
	DB	048H
	DB	0ffH
	DB	048H
	DB	048H
	DB	048H
	DB	0ffH
	DB	048H
	DB	04cH
	DB	048H
	DB	0ffH
	DB	048H
	DB	048H
	DB	048H
	DB	0ffH
	DB	048H
	DB	048H
	DB	048H
	DB	0ffH
	DB	048H
	DB	04cH
	DB	048H
	DB	0ffH
	DB	048H
	DB	048H
	DB	048H
	DB	0ffH
	DB	048H
	DB	048H
	DB	048H
	DB	0ffH
	DB	048H
	DB	04cH
	DB	048H
	DB	0ffH
	DB	048H
	DB	048H
	DB	048H
	DB	0ffH
	DB	048H
	DB	048H
	DB	048H
	DB	0ffH
	DB	048H
	DB	04cH
	DB	048H
	DB	0ffH
	DB	048H
	DB	048H
	DB	048H
	DB	0ffH
	DB	048H
	DB	048H
	DB	048H
	DB	0ffH
	DB	048H
	DB	04cH
	DB	048H
	DB	0ffH
	DB	048H
	DB	048H
	DB	048H
	DB	0ffH
	DB	048H
	DB	048H
	DB	048H
	DB	0ffH
	DB	048H
	DB	04cH
	DB	048H
	DB	0ffH
	DB	048H
	DB	048H
	DB	048H
	DB	0ffH
	DB	048H
	DB	048H
	DB	048H
	DB	0ffH
	DB	048H
	DB	04cH
	DB	048H
	DB	0ffH
	DB	048H
	DB	048H
	DB	048H
	DB	0ffH
	DB	048H
	DB	048H
	DB	048H
	DB	0ffH
	DB	048H
	DB	04cH
	DB	048H
	DB	0ffH
	DB	048H
	DB	048H
	DB	048H
	DB	0ffH
	DB	048H
	DB	048H
	DB	048H
	DB	0ffH
	DB	048H
	DB	04cH
	DB	048H
	DB	0ffH
	DB	048H
	DB	048H
	DB	048H
	DB	0ffH
	DB	048H
	DB	048H
	DB	048H
	DB	0ffH
	DB	048H
	DB	04cH
	DB	048H
	DB	0ffH
	DB	048H
	DB	048H
	DB	048H
	DB	0ffH
	DB	048H
	DB	048H
	DB	048H
	DB	0ffH
	DB	048H
	DB	04cH
	DB	048H
	DB	0ffH
	DB	048H
	DB	048H
	DB	048H
	DB	0ffH
	DB	048H
	DB	048H
	DB	048H
	DB	0ffH
	DB	048H
	DB	04cH
	DB	048H
	DB	0ffH
	DB	048H
	DB	048H
	DB	048H
	DB	0ffH
	DB	048H
	DB	048H
	DB	048H
	DB	0ffH
	DB	048H
	DB	04cH
	DB	048H
	DB	0ffH
	DB	048H
	DB	048H
	DB	048H
	DB	0ffH
	DB	048H
	DB	048H
	DB	048H
	DB	0ffH
	DB	048H
	DB	04cH
	DB	048H
	DB	0ffH
	DB	048H
	DB	048H
	DB	048H
	DB	0ffH
	DB	048H
	DB	048H
	DB	048H
	DB	0ffH
	DB	048H
	DB	04cH
	DB	048H
	DB	0ffH
	DB	048H
	DB	048H
	DB	048H
	DB	0ffH
	DB	048H
	DB	048H
	DB	048H
	DB	0ffH
	DB	048H
	DB	04cH
	DB	048H
	DB	0ffH
	DB	048H
	DB	048H
	DB	048H
	DB	0ffH
	DB	048H
	DB	048H
	DB	048H
	DB	0ffH
	DB	048H
	DB	04cH
	DB	048H
	DB	0ffH
	DB	048H
	DB	048H
	DB	048H
	DB	0ffH
	DB	048H
	DB	048H
	DB	048H
	DB	0ffH
	DB	048H
	DB	04cH
	DB	048H
	DB	0ffH
	DB	048H
	DB	048H
	DB	048H
	DB	0ffH
	DB	048H
	DB	048H
	DB	048H
	DB	0ffH
	DB	048H
	DB	04cH
	DB	048H
	DB	0ffH
	DB	048H
	DB	048H
	DB	048H
	DB	0ffH
	DB	048H
	DB	048H
	DB	048H
	DB	0ffH
	DB	048H
	DB	04cH
	DB	048H
	DB	0ffH
	DB	048H
	DB	048H
	DB	048H
	DB	0ffH
	DB	048H
	DB	048H
	DB	048H
	DB	0ffH
	DB	048H
	DB	04cH
	DB	048H
	DB	0ffH
	DB	048H
	DB	048H
	DB	048H
	DB	0ffH
	DB	048H
	DB	048H
	DB	048H
	DB	0ffH
	DB	048H
	DB	04cH
	DB	048H
	DB	0ffH
	DB	048H
	DB	048H
	DB	048H
	DB	0ffH
	DB	048H
	DB	048H
	DB	048H
	DB	0ffH
	DB	048H
	DB	04cH
	DB	048H
	DB	0ffH
	DB	048H
	DB	048H
	DB	048H
	DB	0ffH
	DB	048H
	DB	04cH
	DB	048H
	DB	0ffH
	DB	048H
	DB	048H
	DB	048H
	DB	0ffH
	DB	048H
	DB	048H
	DB	048H
	DB	0ffH
	DB	040H
	DB	040H
	DB	040H
	DB	0ffH
	DB	040H
	DB	040H
	DB	040H
	DB	0ffH
	DB	048H
	DB	048H
	DB	048H
	DB	0ffH
	DB	048H
	DB	04cH
	DB	048H
	DB	0ffH
	DB	050H
	DB	04cH
	DB	050H
	DB	0ffH
	DB	050H
	DB	04cH
	DB	050H
	DB	0ffH
	DB	048H
	DB	04cH
	DB	048H
	DB	0ffH
	DB	050H
	DB	04cH
	DB	050H
	DB	0ffH
	DB	048H
	DB	04cH
	DB	048H
	DB	0ffH
	DB	050H
	DB	04cH
	DB	050H
	DB	0ffH
	DB	048H
	DB	04cH
	DB	048H
	DB	0ffH
	DB	048H
	DB	04cH
	DB	048H
	DB	0ffH
	DB	050H
	DB	04cH
	DB	050H
	DB	0ffH
	DB	048H
	DB	04cH
	DB	048H
	DB	0ffH
	DB	050H
	DB	04cH
	DB	050H
	DB	0ffH
	DB	048H
	DB	04cH
	DB	048H
	DB	0ffH
	DB	050H
	DB	04cH
	DB	050H
	DB	0ffH
	DB	048H
	DB	04cH
	DB	048H
	DB	0ffH
	DB	050H
	DB	04cH
	DB	050H
	DB	0ffH
	DB	048H
	DB	04cH
	DB	048H
	DB	0ffH
	DB	050H
	DB	04cH
	DB	050H
	DB	0ffH
	DB	048H
	DB	04cH
	DB	048H
	DB	0ffH
	DB	050H
	DB	04cH
	DB	050H
	DB	0ffH
	DB	048H
	DB	04cH
	DB	048H
	DB	0ffH
	DB	050H
	DB	04cH
	DB	050H
	DB	0ffH
	DB	048H
	DB	04cH
	DB	048H
	DB	0ffH
	DB	050H
	DB	04cH
	DB	050H
	DB	0ffH
	DB	048H
	DB	04cH
	DB	048H
	DB	0ffH
	DB	050H
	DB	04cH
	DB	050H
	DB	0ffH
	DB	048H
	DB	04cH
	DB	048H
	DB	0ffH
	DB	050H
	DB	04cH
	DB	050H
	DB	0ffH
	DB	048H
	DB	04cH
	DB	048H
	DB	0ffH
	DB	050H
	DB	04cH
	DB	050H
	DB	0ffH
	DB	048H
	DB	04cH
	DB	048H
	DB	0ffH
	DB	050H
	DB	04cH
	DB	050H
	DB	0ffH
	DB	048H
	DB	04cH
	DB	048H
	DB	0ffH
	DB	050H
	DB	04cH
	DB	050H
	DB	0ffH
	DB	048H
	DB	04cH
	DB	048H
	DB	0ffH
	DB	050H
	DB	04cH
	DB	050H
	DB	0ffH
	DB	048H
	DB	04cH
	DB	048H
	DB	0ffH
	DB	050H
	DB	04cH
	DB	050H
	DB	0ffH
	DB	048H
	DB	04cH
	DB	048H
	DB	0ffH
	DB	050H
	DB	04cH
	DB	050H
	DB	0ffH
	DB	048H
	DB	04cH
	DB	048H
	DB	0ffH
	DB	050H
	DB	04cH
	DB	050H
	DB	0ffH
	DB	048H
	DB	04cH
	DB	048H
	DB	0ffH
	DB	050H
	DB	04cH
	DB	050H
	DB	0ffH
	DB	048H
	DB	04cH
	DB	048H
	DB	0ffH
	DB	050H
	DB	04cH
	DB	050H
	DB	0ffH
	DB	048H
	DB	04cH
	DB	048H
	DB	0ffH
	DB	050H
	DB	04cH
	DB	050H
	DB	0ffH
	DB	048H
	DB	04cH
	DB	048H
	DB	0ffH
	DB	050H
	DB	04cH
	DB	050H
	DB	0ffH
	DB	048H
	DB	04cH
	DB	048H
	DB	0ffH
	DB	050H
	DB	04cH
	DB	050H
	DB	0ffH
	DB	048H
	DB	04cH
	DB	048H
	DB	0ffH
	DB	050H
	DB	04cH
	DB	050H
	DB	0ffH
	DB	048H
	DB	04cH
	DB	048H
	DB	0ffH
	DB	050H
	DB	04cH
	DB	050H
	DB	0ffH
	DB	048H
	DB	04cH
	DB	048H
	DB	0ffH
	DB	050H
	DB	04cH
	DB	050H
	DB	0ffH
	DB	048H
	DB	04cH
	DB	048H
	DB	0ffH
	DB	050H
	DB	04cH
	DB	050H
	DB	0ffH
	DB	048H
	DB	04cH
	DB	048H
	DB	0ffH
	DB	050H
	DB	04cH
	DB	050H
	DB	0ffH
	DB	048H
	DB	04cH
	DB	048H
	DB	0ffH
	DB	050H
	DB	04cH
	DB	050H
	DB	0ffH
	DB	048H
	DB	04cH
	DB	048H
	DB	0ffH
	DB	050H
	DB	04cH
	DB	050H
	DB	0ffH
	DB	048H
	DB	04cH
	DB	048H
	DB	0ffH
	DB	050H
	DB	04cH
	DB	050H
	DB	0ffH
	DB	048H
	DB	04cH
	DB	048H
	DB	0ffH
	DB	050H
	DB	04cH
	DB	050H
	DB	0ffH
	DB	048H
	DB	04cH
	DB	048H
	DB	0ffH
	DB	050H
	DB	04cH
	DB	050H
	DB	0ffH
	DB	048H
	DB	04cH
	DB	048H
	DB	0ffH
	DB	050H
	DB	04cH
	DB	050H
	DB	0ffH
	DB	048H
	DB	04cH
	DB	048H
	DB	0ffH
	DB	050H
	DB	04cH
	DB	050H
	DB	0ffH
	DB	048H
	DB	04cH
	DB	048H
	DB	0ffH
	DB	050H
	DB	04cH
	DB	050H
	DB	0ffH
	DB	048H
	DB	04cH
	DB	048H
	DB	0ffH
	DB	050H
	DB	04cH
	DB	050H
	DB	0ffH
	DB	048H
	DB	04cH
	DB	048H
	DB	0ffH
	DB	050H
	DB	04cH
	DB	050H
	DB	0ffH
	DB	048H
	DB	04cH
	DB	048H
	DB	0ffH
	DB	050H
	DB	04cH
	DB	050H
	DB	0ffH
	DB	048H
	DB	04cH
	DB	048H
	DB	0ffH
	DB	050H
	DB	04cH
	DB	050H
	DB	0ffH
	DB	048H
	DB	04cH
	DB	048H
	DB	0ffH
	DB	050H
	DB	04cH
	DB	050H
	DB	0ffH
	DB	048H
	DB	04cH
	DB	048H
	DB	0ffH
	DB	050H
	DB	04cH
	DB	050H
	DB	0ffH
	DB	048H
	DB	04cH
	DB	048H
	DB	0ffH
	DB	050H
	DB	04cH
	DB	050H
	DB	0ffH
	DB	048H
	DB	04cH
	DB	048H
	DB	0ffH
	DB	050H
	DB	04cH
	DB	050H
	DB	0ffH
	DB	048H
	DB	04cH
	DB	048H
	DB	0ffH
	DB	050H
	DB	04cH
	DB	050H
	DB	0ffH
	DB	048H
	DB	04cH
	DB	048H
	DB	0ffH
	DB	050H
	DB	04cH
	DB	050H
	DB	0ffH
	DB	048H
	DB	04cH
	DB	048H
	DB	0ffH
	DB	050H
	DB	04cH
	DB	050H
	DB	0ffH
	DB	048H
	DB	04cH
	DB	048H
	DB	0ffH
	DB	050H
	DB	04cH
	DB	050H
	DB	0ffH
	DB	048H
	DB	04cH
	DB	048H
	DB	0ffH
	DB	050H
	DB	04cH
	DB	050H
	DB	0ffH
	DB	048H
	DB	04cH
	DB	048H
	DB	0ffH
	DB	050H
	DB	04cH
	DB	050H
	DB	0ffH
	DB	048H
	DB	04cH
	DB	048H
	DB	0ffH
	DB	050H
	DB	04cH
	DB	050H
	DB	0ffH
	DB	048H
	DB	04cH
	DB	048H
	DB	0ffH
	DB	050H
	DB	04cH
	DB	050H
	DB	0ffH
	DB	048H
	DB	04cH
	DB	048H
	DB	0ffH
	DB	050H
	DB	04cH
	DB	050H
	DB	0ffH
	DB	048H
	DB	04cH
	DB	048H
	DB	0ffH
	DB	050H
	DB	04cH
	DB	050H
	DB	0ffH
	DB	048H
	DB	04cH
	DB	048H
	DB	0ffH
	DB	050H
	DB	04cH
	DB	050H
	DB	0ffH
	DB	048H
	DB	04cH
	DB	048H
	DB	0ffH
	DB	050H
	DB	04cH
	DB	050H
	DB	0ffH
	DB	048H
	DB	04cH
	DB	048H
	DB	0ffH
	DB	050H
	DB	04cH
	DB	050H
	DB	0ffH
	DB	048H
	DB	04cH
	DB	048H
	DB	0ffH
	DB	050H
	DB	04cH
	DB	050H
	DB	0ffH
	DB	048H
	DB	04cH
	DB	048H
	DB	0ffH
	DB	050H
	DB	04cH
	DB	050H
	DB	0ffH
	DB	048H
	DB	04cH
	DB	048H
	DB	0ffH
	DB	050H
	DB	04cH
	DB	050H
	DB	0ffH
	DB	048H
	DB	04cH
	DB	048H
	DB	0ffH
	DB	050H
	DB	04cH
	DB	050H
	DB	0ffH
	DB	048H
	DB	04cH
	DB	048H
	DB	0ffH
	DB	050H
	DB	04cH
	DB	050H
	DB	0ffH
	DB	048H
	DB	04cH
	DB	048H
	DB	0ffH
	DB	050H
	DB	04cH
	DB	050H
	DB	0ffH
	DB	048H
	DB	04cH
	DB	048H
	DB	0ffH
	DB	050H
	DB	04cH
	DB	050H
	DB	0ffH
	DB	048H
	DB	04cH
	DB	048H
	DB	0ffH
	DB	050H
	DB	04cH
	DB	050H
	DB	0ffH
	DB	048H
	DB	04cH
	DB	048H
	DB	0ffH
	DB	050H
	DB	04cH
	DB	050H
	DB	0ffH
	DB	048H
	DB	04cH
	DB	048H
	DB	0ffH
	DB	050H
	DB	04cH
	DB	050H
	DB	0ffH
	DB	048H
	DB	04cH
	DB	048H
	DB	0ffH
	DB	050H
	DB	04cH
	DB	050H
	DB	0ffH
	DB	048H
	DB	04cH
	DB	048H
	DB	0ffH
	DB	050H
	DB	04cH
	DB	050H
	DB	0ffH
	DB	048H
	DB	04cH
	DB	048H
	DB	0ffH
	DB	050H
	DB	04cH
	DB	050H
	DB	0ffH
	DB	048H
	DB	04cH
	DB	048H
	DB	0ffH
	DB	050H
	DB	04cH
	DB	050H
	DB	0ffH
	DB	048H
	DB	04cH
	DB	048H
	DB	0ffH
	DB	050H
	DB	04cH
	DB	050H
	DB	0ffH
	DB	048H
	DB	04cH
	DB	048H
	DB	0ffH
	DB	050H
	DB	04cH
	DB	050H
	DB	0ffH
	DB	048H
	DB	04cH
	DB	048H
	DB	0ffH
	DB	050H
	DB	04cH
	DB	050H
	DB	0ffH
	DB	048H
	DB	04cH
	DB	048H
	DB	0ffH
	DB	050H
	DB	04cH
	DB	050H
	DB	0ffH
	DB	048H
	DB	04cH
	DB	048H
	DB	0ffH
	DB	050H
	DB	04cH
	DB	050H
	DB	0ffH
	DB	048H
	DB	04cH
	DB	048H
	DB	0ffH
	DB	050H
	DB	04cH
	DB	050H
	DB	0ffH
	DB	048H
	DB	04cH
	DB	048H
	DB	0ffH
	DB	050H
	DB	04cH
	DB	050H
	DB	0ffH
	DB	048H
	DB	04cH
	DB	048H
	DB	0ffH
	DB	050H
	DB	04cH
	DB	050H
	DB	0ffH
	DB	048H
	DB	04cH
	DB	048H
	DB	0ffH
	DB	050H
	DB	04cH
	DB	050H
	DB	0ffH
	DB	048H
	DB	04cH
	DB	048H
	DB	0ffH
	DB	050H
	DB	04cH
	DB	050H
	DB	0ffH
	DB	048H
	DB	04cH
	DB	048H
	DB	0ffH
	DB	050H
	DB	04cH
	DB	050H
	DB	0ffH
	DB	048H
	DB	04cH
	DB	048H
	DB	0ffH
	DB	050H
	DB	04cH
	DB	050H
	DB	0ffH
	DB	048H
	DB	04cH
	DB	048H
	DB	0ffH
	DB	050H
	DB	04cH
	DB	050H
	DB	0ffH
	DB	048H
	DB	04cH
	DB	048H
	DB	0ffH
	DB	050H
	DB	04cH
	DB	050H
	DB	0ffH
	DB	048H
	DB	04cH
	DB	048H
	DB	0ffH
	DB	050H
	DB	04cH
	DB	050H
	DB	0ffH
	DB	048H
	DB	04cH
	DB	048H
	DB	0ffH
	DB	050H
	DB	04cH
	DB	050H
	DB	0ffH
	DB	048H
	DB	04cH
	DB	048H
	DB	0ffH
	DB	050H
	DB	04cH
	DB	050H
	DB	0ffH
	DB	048H
	DB	04cH
	DB	048H
	DB	0ffH
	DB	050H
	DB	04cH
	DB	050H
	DB	0ffH
	DB	048H
	DB	04cH
	DB	048H
	DB	0ffH
	DB	050H
	DB	04cH
	DB	050H
	DB	0ffH
	DB	048H
	DB	04cH
	DB	048H
	DB	0ffH
	DB	050H
	DB	04cH
	DB	050H
	DB	0ffH
	DB	048H
	DB	04cH
	DB	048H
	DB	0ffH
	DB	050H
	DB	04cH
	DB	050H
	DB	0ffH
	DB	048H
	DB	04cH
	DB	048H
	DB	0ffH
	DB	050H
	DB	04cH
	DB	050H
	DB	0ffH
	DB	048H
	DB	04cH
	DB	048H
	DB	0ffH
	DB	050H
	DB	04cH
	DB	050H
	DB	0ffH
	DB	048H
	DB	04cH
	DB	048H
	DB	0ffH
	DB	050H
	DB	04cH
	DB	050H
	DB	0ffH
	DB	048H
	DB	04cH
	DB	048H
	DB	0ffH
	DB	050H
	DB	04cH
	DB	050H
	DB	0ffH
	DB	048H
	DB	04cH
	DB	048H
	DB	0ffH
	DB	050H
	DB	04cH
	DB	050H
	DB	0ffH
	DB	048H
	DB	04cH
	DB	048H
	DB	0ffH
	DB	050H
	DB	04cH
	DB	050H
	DB	0ffH
	DB	048H
	DB	04cH
	DB	048H
	DB	0ffH
	DB	050H
	DB	04cH
	DB	050H
	DB	0ffH
	DB	048H
	DB	04cH
	DB	048H
	DB	0ffH
	DB	050H
	DB	04cH
	DB	050H
	DB	0ffH
	DB	048H
	DB	04cH
	DB	048H
	DB	0ffH
	DB	050H
	DB	04cH
	DB	050H
	DB	0ffH
	DB	048H
	DB	04cH
	DB	048H
	DB	0ffH
	DB	050H
	DB	04cH
	DB	050H
	DB	0ffH
	DB	048H
	DB	04cH
	DB	048H
	DB	0ffH
	DB	050H
	DB	04cH
	DB	050H
	DB	0ffH
	DB	048H
	DB	04cH
	DB	048H
	DB	0ffH
	DB	050H
	DB	04cH
	DB	050H
	DB	0ffH
	DB	048H
	DB	04cH
	DB	048H
	DB	0ffH
	DB	050H
	DB	04cH
	DB	050H
	DB	0ffH
	DB	048H
	DB	04cH
	DB	048H
	DB	0ffH
	DB	050H
	DB	04cH
	DB	050H
	DB	0ffH
	DB	048H
	DB	04cH
	DB	048H
	DB	0ffH
	DB	050H
	DB	04cH
	DB	050H
	DB	0ffH
	DB	048H
	DB	04cH
	DB	048H
	DB	0ffH
	DB	050H
	DB	04cH
	DB	050H
	DB	0ffH
	DB	048H
	DB	04cH
	DB	048H
	DB	0ffH
	DB	050H
	DB	04cH
	DB	050H
	DB	0ffH
	DB	048H
	DB	04cH
	DB	048H
	DB	0ffH
	DB	050H
	DB	04cH
	DB	050H
	DB	0ffH
	DB	048H
	DB	04cH
	DB	048H
	DB	0ffH
	DB	050H
	DB	04cH
	DB	050H
	DB	0ffH
	DB	048H
	DB	04cH
	DB	048H
	DB	0ffH
	DB	050H
	DB	04cH
	DB	050H
	DB	0ffH
	DB	048H
	DB	04cH
	DB	048H
	DB	0ffH
	DB	050H
	DB	04cH
	DB	050H
	DB	0ffH
	DB	048H
	DB	04cH
	DB	048H
	DB	0ffH
	DB	050H
	DB	04cH
	DB	050H
	DB	0ffH
	DB	048H
	DB	04cH
	DB	048H
	DB	0ffH
	DB	050H
	DB	04cH
	DB	050H
	DB	0ffH
	DB	048H
	DB	04cH
	DB	048H
	DB	0ffH
	DB	050H
	DB	04cH
	DB	050H
	DB	0ffH
	DB	048H
	DB	04cH
	DB	048H
	DB	0ffH
	DB	050H
	DB	04cH
	DB	050H
	DB	0ffH
	DB	048H
	DB	04cH
	DB	048H
	DB	0ffH
	DB	050H
	DB	04cH
	DB	050H
	DB	0ffH
	DB	048H
	DB	04cH
	DB	048H
	DB	0ffH
	DB	050H
	DB	04cH
	DB	050H
	DB	0ffH
	DB	048H
	DB	04cH
	DB	048H
	DB	0ffH
	DB	050H
	DB	04cH
	DB	050H
	DB	0ffH
	DB	048H
	DB	04cH
	DB	048H
	DB	0ffH
	DB	050H
	DB	04cH
	DB	050H
	DB	0ffH
	DB	048H
	DB	04cH
	DB	048H
	DB	0ffH
	DB	050H
	DB	04cH
	DB	050H
	DB	0ffH
	DB	048H
	DB	04cH
	DB	048H
	DB	0ffH
	DB	050H
	DB	04cH
	DB	050H
	DB	0ffH
	DB	048H
	DB	04cH
	DB	048H
	DB	0ffH
	DB	050H
	DB	04cH
	DB	050H
	DB	0ffH
	DB	048H
	DB	04cH
	DB	048H
	DB	0ffH
	DB	050H
	DB	04cH
	DB	050H
	DB	0ffH
	DB	048H
	DB	04cH
	DB	048H
	DB	0ffH
	DB	050H
	DB	04cH
	DB	050H
	DB	0ffH
	DB	048H
	DB	04cH
	DB	048H
	DB	0ffH
	DB	050H
	DB	04cH
	DB	050H
	DB	0ffH
	DB	048H
	DB	04cH
	DB	048H
	DB	0ffH
	DB	050H
	DB	04cH
	DB	050H
	DB	0ffH
	DB	048H
	DB	04cH
	DB	048H
	DB	0ffH
	DB	050H
	DB	04cH
	DB	050H
	DB	0ffH
	DB	048H
	DB	04cH
	DB	048H
	DB	0ffH
	DB	050H
	DB	04cH
	DB	050H
	DB	0ffH
	DB	048H
	DB	04cH
	DB	048H
	DB	0ffH
	DB	050H
	DB	04cH
	DB	050H
	DB	0ffH
	DB	048H
	DB	04cH
	DB	048H
	DB	0ffH
	DB	050H
	DB	04cH
	DB	050H
	DB	0ffH
	DB	048H
	DB	04cH
	DB	048H
	DB	0ffH
	DB	050H
	DB	04cH
	DB	050H
	DB	0ffH
	DB	048H
	DB	04cH
	DB	048H
	DB	0ffH
	DB	050H
	DB	04cH
	DB	050H
	DB	0ffH
	DB	048H
	DB	04cH
	DB	048H
	DB	0ffH
	DB	050H
	DB	04cH
	DB	050H
	DB	0ffH
	DB	048H
	DB	04cH
	DB	048H
	DB	0ffH
	DB	050H
	DB	04cH
	DB	050H
	DB	0ffH
	DB	048H
	DB	04cH
	DB	048H
	DB	0ffH
	DB	050H
	DB	04cH
	DB	050H
	DB	0ffH
	DB	048H
	DB	04cH
	DB	048H
	DB	0ffH
	DB	050H
	DB	04cH
	DB	050H
	DB	0ffH
	DB	048H
	DB	04cH
	DB	048H
	DB	0ffH
	DB	050H
	DB	04cH
	DB	050H
	DB	0ffH
	DB	048H
	DB	04cH
	DB	048H
	DB	0ffH
	DB	050H
	DB	04cH
	DB	050H
	DB	0ffH
	DB	048H
	DB	04cH
	DB	048H
	DB	0ffH
	DB	050H
	DB	04cH
	DB	050H
	DB	0ffH
	DB	048H
	DB	04cH
	DB	048H
	DB	0ffH
	DB	050H
	DB	04cH
	DB	050H
	DB	0ffH
	DB	048H
	DB	04cH
	DB	048H
	DB	0ffH
	DB	050H
	DB	04cH
	DB	050H
	DB	0ffH
	DB	048H
	DB	04cH
	DB	048H
	DB	0ffH
	DB	050H
	DB	04cH
	DB	050H
	DB	0ffH
	DB	048H
	DB	04cH
	DB	048H
	DB	0ffH
	DB	050H
	DB	04cH
	DB	050H
	DB	0ffH
	DB	048H
	DB	04cH
	DB	048H
	DB	0ffH
	DB	050H
	DB	04cH
	DB	050H
	DB	0ffH
	DB	048H
	DB	04cH
	DB	048H
	DB	0ffH
	DB	050H
	DB	04cH
	DB	050H
	DB	0ffH
	DB	048H
	DB	04cH
	DB	048H
	DB	0ffH
	DB	050H
	DB	04cH
	DB	050H
	DB	0ffH
	DB	048H
	DB	04cH
	DB	048H
	DB	0ffH
	DB	050H
	DB	04cH
	DB	050H
	DB	0ffH
	DB	048H
	DB	04cH
	DB	048H
	DB	0ffH
	DB	050H
	DB	04cH
	DB	050H
	DB	0ffH
	DB	048H
	DB	04cH
	DB	048H
	DB	0ffH
	DB	050H
	DB	04cH
	DB	050H
	DB	0ffH
	DB	048H
	DB	04cH
	DB	048H
	DB	0ffH
	DB	050H
	DB	04cH
	DB	050H
	DB	0ffH
	DB	048H
	DB	04cH
	DB	048H
	DB	0ffH
	DB	050H
	DB	04cH
	DB	050H
	DB	0ffH
	DB	048H
	DB	04cH
	DB	048H
	DB	0ffH
	DB	050H
	DB	04cH
	DB	050H
	DB	0ffH
	DB	048H
	DB	04cH
	DB	048H
	DB	0ffH
	DB	050H
	DB	04cH
	DB	050H
	DB	0ffH
	DB	048H
	DB	04cH
	DB	048H
	DB	0ffH
	DB	050H
	DB	04cH
	DB	050H
	DB	0ffH
	DB	048H
	DB	04cH
	DB	048H
	DB	0ffH
	DB	050H
	DB	04cH
	DB	050H
	DB	0ffH
	DB	048H
	DB	04cH
	DB	048H
	DB	0ffH
	DB	050H
	DB	04cH
	DB	050H
	DB	0ffH
	DB	048H
	DB	04cH
	DB	048H
	DB	0ffH
	DB	050H
	DB	04cH
	DB	050H
	DB	0ffH
	DB	048H
	DB	04cH
	DB	048H
	DB	0ffH
	DB	050H
	DB	04cH
	DB	050H
	DB	0ffH
	DB	048H
	DB	04cH
	DB	048H
	DB	0ffH
	DB	050H
	DB	04cH
	DB	050H
	DB	0ffH
	DB	048H
	DB	04cH
	DB	048H
	DB	0ffH
	DB	050H
	DB	04cH
	DB	050H
	DB	0ffH
	DB	048H
	DB	04cH
	DB	048H
	DB	0ffH
	DB	050H
	DB	04cH
	DB	050H
	DB	0ffH
	DB	048H
	DB	04cH
	DB	048H
	DB	0ffH
	DB	050H
	DB	04cH
	DB	050H
	DB	0ffH
	DB	048H
	DB	04cH
	DB	048H
	DB	0ffH
	DB	050H
	DB	04cH
	DB	050H
	DB	0ffH
	DB	048H
	DB	04cH
	DB	048H
	DB	0ffH
	DB	050H
	DB	04cH
	DB	050H
	DB	0ffH
	DB	048H
	DB	04cH
	DB	048H
	DB	0ffH
	DB	050H
	DB	04cH
	DB	050H
	DB	0ffH
	DB	048H
	DB	04cH
	DB	048H
	DB	0ffH
	DB	050H
	DB	04cH
	DB	050H
	DB	0ffH
	DB	050H
	DB	04cH
	DB	050H
	DB	0ffH
	DB	048H
	DB	04cH
	DB	048H
	DB	0ffH
	DB	050H
	DB	04cH
	DB	050H
	DB	0ffH
	DB	050H
	DB	04cH
	DB	050H
	DB	0ffH
	DB	048H
	DB	04cH
	DB	048H
	DB	0ffH
	DB	048H
	DB	04cH
	DB	048H
	DB	0ffH
	DB	048H
	DB	048H
	DB	048H
	DB	0ffH
	DB	040H
	DB	040H
	DB	040H
	DB	0ffH
	DB	048H
	DB	044H
	DB	048H
	DB	0f7H
	DB	048H
	DB	048H
	DB	048H
	DB	0ffH
	DB	048H
	DB	04cH
	DB	048H
	DB	0ffH
	DB	050H
	DB	04cH
	DB	050H
	DB	0ffH
	DB	050H
	DB	04cH
	DB	050H
	DB	0ffH
	DB	050H
	DB	050H
	DB	050H
	DB	0ffH
	DB	050H
	DB	04cH
	DB	050H
	DB	0ffH
	DB	050H
	DB	050H
	DB	050H
	DB	0ffH
	DB	050H
	DB	050H
	DB	050H
	DB	0ffH
	DB	050H
	DB	04cH
	DB	050H
	DB	0ffH
	DB	050H
	DB	050H
	DB	050H
	DB	0ffH
	DB	050H
	DB	050H
	DB	050H
	DB	0ffH
	DB	050H
	DB	04cH
	DB	050H
	DB	0ffH
	DB	050H
	DB	050H
	DB	050H
	DB	0ffH
	DB	050H
	DB	050H
	DB	050H
	DB	0ffH
	DB	050H
	DB	04cH
	DB	050H
	DB	0ffH
	DB	050H
	DB	050H
	DB	050H
	DB	0ffH
	DB	050H
	DB	050H
	DB	050H
	DB	0ffH
	DB	050H
	DB	04cH
	DB	050H
	DB	0ffH
	DB	050H
	DB	050H
	DB	050H
	DB	0ffH
	DB	050H
	DB	050H
	DB	050H
	DB	0ffH
	DB	050H
	DB	04cH
	DB	050H
	DB	0ffH
	DB	050H
	DB	050H
	DB	050H
	DB	0ffH
	DB	050H
	DB	050H
	DB	050H
	DB	0ffH
	DB	050H
	DB	04cH
	DB	050H
	DB	0ffH
	DB	050H
	DB	050H
	DB	050H
	DB	0ffH
	DB	050H
	DB	050H
	DB	050H
	DB	0ffH
	DB	050H
	DB	04cH
	DB	050H
	DB	0ffH
	DB	050H
	DB	050H
	DB	050H
	DB	0ffH
	DB	050H
	DB	050H
	DB	050H
	DB	0ffH
	DB	050H
	DB	04cH
	DB	050H
	DB	0ffH
	DB	050H
	DB	050H
	DB	050H
	DB	0ffH
	DB	050H
	DB	050H
	DB	050H
	DB	0ffH
	DB	050H
	DB	04cH
	DB	050H
	DB	0ffH
	DB	050H
	DB	050H
	DB	050H
	DB	0ffH
	DB	050H
	DB	050H
	DB	050H
	DB	0ffH
	DB	050H
	DB	04cH
	DB	050H
	DB	0ffH
	DB	050H
	DB	050H
	DB	050H
	DB	0ffH
	DB	050H
	DB	050H
	DB	050H
	DB	0ffH
	DB	050H
	DB	04cH
	DB	050H
	DB	0ffH
	DB	050H
	DB	050H
	DB	050H
	DB	0ffH
	DB	050H
	DB	050H
	DB	050H
	DB	0ffH
	DB	050H
	DB	04cH
	DB	050H
	DB	0ffH
	DB	050H
	DB	050H
	DB	050H
	DB	0ffH
	DB	050H
	DB	050H
	DB	050H
	DB	0ffH
	DB	050H
	DB	04cH
	DB	050H
	DB	0ffH
	DB	050H
	DB	050H
	DB	050H
	DB	0ffH
	DB	050H
	DB	050H
	DB	050H
	DB	0ffH
	DB	050H
	DB	04cH
	DB	050H
	DB	0ffH
	DB	050H
	DB	050H
	DB	050H
	DB	0ffH
	DB	050H
	DB	050H
	DB	050H
	DB	0ffH
	DB	050H
	DB	04cH
	DB	050H
	DB	0ffH
	DB	050H
	DB	050H
	DB	050H
	DB	0ffH
	DB	050H
	DB	050H
	DB	050H
	DB	0ffH
	DB	050H
	DB	04cH
	DB	050H
	DB	0ffH
	DB	050H
	DB	050H
	DB	050H
	DB	0ffH
	DB	050H
	DB	050H
	DB	050H
	DB	0ffH
	DB	050H
	DB	04cH
	DB	050H
	DB	0ffH
	DB	050H
	DB	050H
	DB	050H
	DB	0ffH
	DB	050H
	DB	050H
	DB	050H
	DB	0ffH
	DB	050H
	DB	04cH
	DB	050H
	DB	0ffH
	DB	050H
	DB	050H
	DB	050H
	DB	0ffH
	DB	050H
	DB	050H
	DB	050H
	DB	0ffH
	DB	050H
	DB	04cH
	DB	050H
	DB	0ffH
	DB	050H
	DB	050H
	DB	050H
	DB	0ffH
	DB	050H
	DB	050H
	DB	050H
	DB	0ffH
	DB	050H
	DB	04cH
	DB	050H
	DB	0ffH
	DB	050H
	DB	050H
	DB	050H
	DB	0ffH
	DB	050H
	DB	050H
	DB	050H
	DB	0ffH
	DB	050H
	DB	04cH
	DB	050H
	DB	0ffH
	DB	050H
	DB	050H
	DB	050H
	DB	0ffH
	DB	050H
	DB	050H
	DB	050H
	DB	0ffH
	DB	050H
	DB	04cH
	DB	050H
	DB	0ffH
	DB	050H
	DB	050H
	DB	050H
	DB	0ffH
	DB	050H
	DB	050H
	DB	050H
	DB	0ffH
	DB	050H
	DB	04cH
	DB	050H
	DB	0ffH
	DB	050H
	DB	050H
	DB	050H
	DB	0ffH
	DB	050H
	DB	050H
	DB	050H
	DB	0ffH
	DB	050H
	DB	04cH
	DB	050H
	DB	0ffH
	DB	050H
	DB	050H
	DB	050H
	DB	0ffH
	DB	050H
	DB	050H
	DB	050H
	DB	0ffH
	DB	050H
	DB	04cH
	DB	050H
	DB	0ffH
	DB	050H
	DB	050H
	DB	050H
	DB	0ffH
	DB	050H
	DB	050H
	DB	050H
	DB	0ffH
	DB	050H
	DB	04cH
	DB	050H
	DB	0ffH
	DB	050H
	DB	050H
	DB	050H
	DB	0ffH
	DB	050H
	DB	050H
	DB	050H
	DB	0ffH
	DB	050H
	DB	04cH
	DB	050H
	DB	0ffH
	DB	050H
	DB	050H
	DB	050H
	DB	0ffH
	DB	050H
	DB	050H
	DB	050H
	DB	0ffH
	DB	050H
	DB	04cH
	DB	050H
	DB	0ffH
	DB	050H
	DB	050H
	DB	050H
	DB	0ffH
	DB	050H
	DB	050H
	DB	050H
	DB	0ffH
	DB	050H
	DB	04cH
	DB	050H
	DB	0ffH
	DB	050H
	DB	050H
	DB	050H
	DB	0ffH
	DB	050H
	DB	050H
	DB	050H
	DB	0ffH
	DB	050H
	DB	04cH
	DB	050H
	DB	0ffH
	DB	050H
	DB	050H
	DB	050H
	DB	0ffH
	DB	050H
	DB	050H
	DB	050H
	DB	0ffH
	DB	050H
	DB	04cH
	DB	050H
	DB	0ffH
	DB	050H
	DB	050H
	DB	050H
	DB	0ffH
	DB	050H
	DB	050H
	DB	050H
	DB	0ffH
	DB	050H
	DB	04cH
	DB	050H
	DB	0ffH
	DB	050H
	DB	050H
	DB	050H
	DB	0ffH
	DB	050H
	DB	050H
	DB	050H
	DB	0ffH
	DB	050H
	DB	04cH
	DB	050H
	DB	0ffH
	DB	050H
	DB	050H
	DB	050H
	DB	0ffH
	DB	050H
	DB	050H
	DB	050H
	DB	0ffH
	DB	050H
	DB	04cH
	DB	050H
	DB	0ffH
	DB	050H
	DB	050H
	DB	050H
	DB	0ffH
	DB	050H
	DB	050H
	DB	050H
	DB	0ffH
	DB	050H
	DB	04cH
	DB	050H
	DB	0ffH
	DB	050H
	DB	050H
	DB	050H
	DB	0ffH
	DB	050H
	DB	050H
	DB	050H
	DB	0ffH
	DB	050H
	DB	04cH
	DB	050H
	DB	0ffH
	DB	050H
	DB	050H
	DB	050H
	DB	0ffH
	DB	050H
	DB	050H
	DB	050H
	DB	0ffH
	DB	050H
	DB	04cH
	DB	050H
	DB	0ffH
	DB	050H
	DB	050H
	DB	050H
	DB	0ffH
	DB	050H
	DB	050H
	DB	050H
	DB	0ffH
	DB	050H
	DB	04cH
	DB	050H
	DB	0ffH
	DB	050H
	DB	050H
	DB	050H
	DB	0ffH
	DB	050H
	DB	050H
	DB	050H
	DB	0ffH
	DB	050H
	DB	04cH
	DB	050H
	DB	0ffH
	DB	050H
	DB	050H
	DB	050H
	DB	0ffH
	DB	050H
	DB	050H
	DB	050H
	DB	0ffH
	DB	050H
	DB	04cH
	DB	050H
	DB	0ffH
	DB	050H
	DB	050H
	DB	050H
	DB	0ffH
	DB	050H
	DB	050H
	DB	050H
	DB	0ffH
	DB	050H
	DB	04cH
	DB	050H
	DB	0ffH
	DB	050H
	DB	050H
	DB	050H
	DB	0ffH
	DB	050H
	DB	050H
	DB	050H
	DB	0ffH
	DB	050H
	DB	04cH
	DB	050H
	DB	0ffH
	DB	050H
	DB	050H
	DB	050H
	DB	0ffH
	DB	050H
	DB	050H
	DB	050H
	DB	0ffH
	DB	050H
	DB	04cH
	DB	050H
	DB	0ffH
	DB	050H
	DB	050H
	DB	050H
	DB	0ffH
	DB	050H
	DB	050H
	DB	050H
	DB	0ffH
	DB	050H
	DB	04cH
	DB	050H
	DB	0ffH
	DB	050H
	DB	050H
	DB	050H
	DB	0ffH
	DB	050H
	DB	050H
	DB	050H
	DB	0ffH
	DB	050H
	DB	04cH
	DB	050H
	DB	0ffH
	DB	050H
	DB	050H
	DB	050H
	DB	0ffH
	DB	050H
	DB	050H
	DB	050H
	DB	0ffH
	DB	050H
	DB	04cH
	DB	050H
	DB	0ffH
	DB	050H
	DB	050H
	DB	050H
	DB	0ffH
	DB	050H
	DB	050H
	DB	050H
	DB	0ffH
	DB	050H
	DB	04cH
	DB	050H
	DB	0ffH
	DB	050H
	DB	050H
	DB	050H
	DB	0ffH
	DB	050H
	DB	050H
	DB	050H
	DB	0ffH
	DB	050H
	DB	04cH
	DB	050H
	DB	0ffH
	DB	050H
	DB	050H
	DB	050H
	DB	0ffH
	DB	050H
	DB	050H
	DB	050H
	DB	0ffH
	DB	050H
	DB	04cH
	DB	050H
	DB	0ffH
	DB	050H
	DB	050H
	DB	050H
	DB	0ffH
	DB	050H
	DB	050H
	DB	050H
	DB	0ffH
	DB	050H
	DB	04cH
	DB	050H
	DB	0ffH
	DB	050H
	DB	050H
	DB	050H
	DB	0ffH
	DB	050H
	DB	050H
	DB	050H
	DB	0ffH
	DB	050H
	DB	04cH
	DB	050H
	DB	0ffH
	DB	050H
	DB	050H
	DB	050H
	DB	0ffH
	DB	050H
	DB	050H
	DB	050H
	DB	0ffH
	DB	050H
	DB	04cH
	DB	050H
	DB	0ffH
	DB	050H
	DB	050H
	DB	050H
	DB	0ffH
	DB	050H
	DB	050H
	DB	050H
	DB	0ffH
	DB	050H
	DB	04cH
	DB	050H
	DB	0ffH
	DB	050H
	DB	050H
	DB	050H
	DB	0ffH
	DB	050H
	DB	050H
	DB	050H
	DB	0ffH
	DB	050H
	DB	04cH
	DB	050H
	DB	0ffH
	DB	050H
	DB	050H
	DB	050H
	DB	0ffH
	DB	050H
	DB	050H
	DB	050H
	DB	0ffH
	DB	050H
	DB	04cH
	DB	050H
	DB	0ffH
	DB	050H
	DB	050H
	DB	050H
	DB	0ffH
	DB	050H
	DB	050H
	DB	050H
	DB	0ffH
	DB	050H
	DB	04cH
	DB	050H
	DB	0ffH
	DB	050H
	DB	050H
	DB	050H
	DB	0ffH
	DB	050H
	DB	050H
	DB	050H
	DB	0ffH
	DB	050H
	DB	04cH
	DB	050H
	DB	0ffH
	DB	050H
	DB	050H
	DB	050H
	DB	0ffH
	DB	050H
	DB	050H
	DB	050H
	DB	0ffH
	DB	050H
	DB	04cH
	DB	050H
	DB	0ffH
	DB	050H
	DB	050H
	DB	050H
	DB	0ffH
	DB	050H
	DB	050H
	DB	050H
	DB	0ffH
	DB	050H
	DB	04cH
	DB	050H
	DB	0ffH
	DB	050H
	DB	050H
	DB	050H
	DB	0ffH
	DB	050H
	DB	050H
	DB	050H
	DB	0ffH
	DB	050H
	DB	04cH
	DB	050H
	DB	0ffH
	DB	050H
	DB	050H
	DB	050H
	DB	0ffH
	DB	050H
	DB	050H
	DB	050H
	DB	0ffH
	DB	050H
	DB	04cH
	DB	050H
	DB	0ffH
	DB	050H
	DB	050H
	DB	050H
	DB	0ffH
	DB	050H
	DB	050H
	DB	050H
	DB	0ffH
	DB	050H
	DB	04cH
	DB	050H
	DB	0ffH
	DB	050H
	DB	050H
	DB	050H
	DB	0ffH
	DB	050H
	DB	050H
	DB	050H
	DB	0ffH
	DB	050H
	DB	04cH
	DB	050H
	DB	0ffH
	DB	050H
	DB	050H
	DB	050H
	DB	0ffH
	DB	050H
	DB	050H
	DB	050H
	DB	0ffH
	DB	050H
	DB	04cH
	DB	050H
	DB	0ffH
	DB	050H
	DB	050H
	DB	050H
	DB	0ffH
	DB	050H
	DB	050H
	DB	050H
	DB	0ffH
	DB	050H
	DB	04cH
	DB	050H
	DB	0ffH
	DB	050H
	DB	050H
	DB	050H
	DB	0ffH
	DB	050H
	DB	050H
	DB	050H
	DB	0ffH
	DB	050H
	DB	04cH
	DB	050H
	DB	0ffH
	DB	050H
	DB	050H
	DB	050H
	DB	0ffH
	DB	050H
	DB	050H
	DB	050H
	DB	0ffH
	DB	050H
	DB	04cH
	DB	050H
	DB	0ffH
	DB	050H
	DB	050H
	DB	050H
	DB	0ffH
	DB	050H
	DB	050H
	DB	050H
	DB	0ffH
	DB	050H
	DB	04cH
	DB	050H
	DB	0ffH
	DB	050H
	DB	050H
	DB	050H
	DB	0ffH
	DB	050H
	DB	050H
	DB	050H
	DB	0ffH
	DB	050H
	DB	04cH
	DB	050H
	DB	0ffH
	DB	050H
	DB	050H
	DB	050H
	DB	0ffH
	DB	050H
	DB	050H
	DB	050H
	DB	0ffH
	DB	050H
	DB	04cH
	DB	050H
	DB	0ffH
	DB	050H
	DB	050H
	DB	050H
	DB	0ffH
	DB	050H
	DB	050H
	DB	050H
	DB	0ffH
	DB	050H
	DB	04cH
	DB	050H
	DB	0ffH
	DB	050H
	DB	050H
	DB	050H
	DB	0ffH
	DB	050H
	DB	050H
	DB	050H
	DB	0ffH
	DB	050H
	DB	04cH
	DB	050H
	DB	0ffH
	DB	050H
	DB	050H
	DB	050H
	DB	0ffH
	DB	050H
	DB	050H
	DB	050H
	DB	0ffH
	DB	050H
	DB	04cH
	DB	050H
	DB	0ffH
	DB	050H
	DB	050H
	DB	050H
	DB	0ffH
	DB	050H
	DB	050H
	DB	050H
	DB	0ffH
	DB	050H
	DB	04cH
	DB	050H
	DB	0ffH
	DB	050H
	DB	050H
	DB	050H
	DB	0ffH
	DB	050H
	DB	050H
	DB	050H
	DB	0ffH
	DB	050H
	DB	04cH
	DB	050H
	DB	0ffH
	DB	050H
	DB	050H
	DB	050H
	DB	0ffH
	DB	050H
	DB	050H
	DB	050H
	DB	0ffH
	DB	050H
	DB	04cH
	DB	050H
	DB	0ffH
	DB	050H
	DB	050H
	DB	050H
	DB	0ffH
	DB	050H
	DB	050H
	DB	050H
	DB	0ffH
	DB	050H
	DB	04cH
	DB	050H
	DB	0ffH
	DB	050H
	DB	050H
	DB	050H
	DB	0ffH
	DB	050H
	DB	050H
	DB	050H
	DB	0ffH
	DB	050H
	DB	04cH
	DB	050H
	DB	0ffH
	DB	050H
	DB	050H
	DB	050H
	DB	0ffH
	DB	050H
	DB	050H
	DB	050H
	DB	0ffH
	DB	050H
	DB	04cH
	DB	050H
	DB	0ffH
	DB	050H
	DB	050H
	DB	050H
	DB	0ffH
	DB	050H
	DB	050H
	DB	050H
	DB	0ffH
	DB	050H
	DB	04cH
	DB	050H
	DB	0ffH
	DB	050H
	DB	050H
	DB	050H
	DB	0ffH
	DB	050H
	DB	050H
	DB	050H
	DB	0ffH
	DB	050H
	DB	04cH
	DB	050H
	DB	0ffH
	DB	050H
	DB	050H
	DB	050H
	DB	0ffH
	DB	050H
	DB	050H
	DB	050H
	DB	0ffH
	DB	050H
	DB	04cH
	DB	050H
	DB	0ffH
	DB	050H
	DB	050H
	DB	050H
	DB	0ffH
	DB	050H
	DB	050H
	DB	050H
	DB	0ffH
	DB	050H
	DB	04cH
	DB	050H
	DB	0ffH
	DB	050H
	DB	050H
	DB	050H
	DB	0ffH
	DB	050H
	DB	050H
	DB	050H
	DB	0ffH
	DB	050H
	DB	04cH
	DB	050H
	DB	0ffH
	DB	050H
	DB	050H
	DB	050H
	DB	0ffH
	DB	050H
	DB	050H
	DB	050H
	DB	0ffH
	DB	050H
	DB	04cH
	DB	050H
	DB	0ffH
	DB	050H
	DB	050H
	DB	050H
	DB	0ffH
	DB	050H
	DB	050H
	DB	050H
	DB	0ffH
	DB	050H
	DB	04cH
	DB	050H
	DB	0ffH
	DB	050H
	DB	050H
	DB	050H
	DB	0ffH
	DB	050H
	DB	050H
	DB	050H
	DB	0ffH
	DB	050H
	DB	04cH
	DB	050H
	DB	0ffH
	DB	050H
	DB	050H
	DB	050H
	DB	0ffH
	DB	050H
	DB	050H
	DB	050H
	DB	0ffH
	DB	050H
	DB	04cH
	DB	050H
	DB	0ffH
	DB	050H
	DB	050H
	DB	050H
	DB	0ffH
	DB	050H
	DB	050H
	DB	050H
	DB	0ffH
	DB	050H
	DB	04cH
	DB	050H
	DB	0ffH
	DB	050H
	DB	050H
	DB	050H
	DB	0ffH
	DB	050H
	DB	050H
	DB	050H
	DB	0ffH
	DB	050H
	DB	04cH
	DB	050H
	DB	0ffH
	DB	050H
	DB	050H
	DB	050H
	DB	0ffH
	DB	050H
	DB	050H
	DB	050H
	DB	0ffH
	DB	050H
	DB	04cH
	DB	050H
	DB	0ffH
	DB	050H
	DB	050H
	DB	050H
	DB	0ffH
	DB	050H
	DB	050H
	DB	050H
	DB	0ffH
	DB	050H
	DB	04cH
	DB	050H
	DB	0ffH
	DB	050H
	DB	050H
	DB	050H
	DB	0ffH
	DB	050H
	DB	050H
	DB	050H
	DB	0ffH
	DB	050H
	DB	04cH
	DB	050H
	DB	0ffH
	DB	050H
	DB	050H
	DB	050H
	DB	0ffH
	DB	050H
	DB	050H
	DB	050H
	DB	0ffH
	DB	050H
	DB	04cH
	DB	050H
	DB	0ffH
	DB	050H
	DB	050H
	DB	050H
	DB	0ffH
	DB	050H
	DB	050H
	DB	050H
	DB	0ffH
	DB	050H
	DB	04cH
	DB	050H
	DB	0ffH
	DB	050H
	DB	050H
	DB	050H
	DB	0ffH
	DB	050H
	DB	050H
	DB	050H
	DB	0ffH
	DB	050H
	DB	04cH
	DB	050H
	DB	0ffH
	DB	050H
	DB	050H
	DB	050H
	DB	0ffH
	DB	050H
	DB	050H
	DB	050H
	DB	0ffH
	DB	050H
	DB	04cH
	DB	050H
	DB	0ffH
	DB	050H
	DB	050H
	DB	050H
	DB	0ffH
	DB	050H
	DB	050H
	DB	050H
	DB	0ffH
	DB	050H
	DB	04cH
	DB	050H
	DB	0ffH
	DB	050H
	DB	050H
	DB	050H
	DB	0ffH
	DB	050H
	DB	050H
	DB	050H
	DB	0ffH
	DB	050H
	DB	04cH
	DB	050H
	DB	0ffH
	DB	050H
	DB	050H
	DB	050H
	DB	0ffH
	DB	050H
	DB	050H
	DB	050H
	DB	0ffH
	DB	050H
	DB	04cH
	DB	050H
	DB	0ffH
	DB	050H
	DB	050H
	DB	050H
	DB	0ffH
	DB	050H
	DB	050H
	DB	050H
	DB	0ffH
	DB	050H
	DB	04cH
	DB	050H
	DB	0ffH
	DB	050H
	DB	050H
	DB	050H
	DB	0ffH
	DB	050H
	DB	050H
	DB	050H
	DB	0ffH
	DB	050H
	DB	04cH
	DB	050H
	DB	0ffH
	DB	050H
	DB	050H
	DB	050H
	DB	0ffH
	DB	050H
	DB	050H
	DB	050H
	DB	0ffH
	DB	050H
	DB	04cH
	DB	050H
	DB	0ffH
	DB	050H
	DB	050H
	DB	050H
	DB	0ffH
	DB	050H
	DB	050H
	DB	050H
	DB	0ffH
	DB	050H
	DB	04cH
	DB	050H
	DB	0ffH
	DB	050H
	DB	050H
	DB	050H
	DB	0ffH
	DB	050H
	DB	050H
	DB	050H
	DB	0ffH
	DB	050H
	DB	04cH
	DB	050H
	DB	0ffH
	DB	050H
	DB	050H
	DB	050H
	DB	0ffH
	DB	050H
	DB	050H
	DB	050H
	DB	0ffH
	DB	050H
	DB	04cH
	DB	050H
	DB	0ffH
	DB	050H
	DB	050H
	DB	050H
	DB	0ffH
	DB	050H
	DB	050H
	DB	050H
	DB	0ffH
	DB	050H
	DB	04cH
	DB	050H
	DB	0ffH
	DB	050H
	DB	050H
	DB	050H
	DB	0ffH
	DB	050H
	DB	050H
	DB	050H
	DB	0ffH
	DB	050H
	DB	04cH
	DB	050H
	DB	0ffH
	DB	050H
	DB	050H
	DB	050H
	DB	0ffH
	DB	050H
	DB	050H
	DB	050H
	DB	0ffH
	DB	050H
	DB	04cH
	DB	050H
	DB	0ffH
	DB	050H
	DB	050H
	DB	050H
	DB	0ffH
	DB	050H
	DB	050H
	DB	050H
	DB	0ffH
	DB	050H
	DB	04cH
	DB	050H
	DB	0ffH
	DB	050H
	DB	050H
	DB	050H
	DB	0ffH
	DB	050H
	DB	050H
	DB	050H
	DB	0ffH
	DB	050H
	DB	04cH
	DB	050H
	DB	0ffH
	DB	050H
	DB	050H
	DB	050H
	DB	0ffH
	DB	050H
	DB	050H
	DB	050H
	DB	0ffH
	DB	050H
	DB	04cH
	DB	050H
	DB	0ffH
	DB	050H
	DB	050H
	DB	050H
	DB	0ffH
	DB	050H
	DB	050H
	DB	050H
	DB	0ffH
	DB	050H
	DB	04cH
	DB	050H
	DB	0ffH
	DB	050H
	DB	050H
	DB	050H
	DB	0ffH
	DB	050H
	DB	04cH
	DB	050H
	DB	0ffH
	DB	050H
	DB	04cH
	DB	050H
	DB	0ffH
	DB	048H
	DB	04cH
	DB	048H
	DB	0ffH
	DB	048H
	DB	048H
	DB	048H
	DB	0ffH
	DB	048H
	DB	044H
	DB	048H
	DB	0f7H
	DB	058H
	DB	058H
	DB	058H
	DB	0cbH
	DB	048H
	DB	048H
	DB	048H
	DB	0ffH
	DB	048H
	DB	04cH
	DB	048H
	DB	0ffH
	DB	050H
	DB	04cH
	DB	050H
	DB	0ffH
	DB	050H
	DB	050H
	DB	050H
	DB	0ffH
	DB	050H
	DB	050H
	DB	050H
	DB	0ffH
	DB	050H
	DB	050H
	DB	050H
	DB	0ffH
	DB	050H
	DB	050H
	DB	050H
	DB	0ffH
	DB	050H
	DB	050H
	DB	050H
	DB	0ffH
	DB	050H
	DB	050H
	DB	050H
	DB	0ffH
	DB	050H
	DB	050H
	DB	050H
	DB	0ffH
	DB	050H
	DB	050H
	DB	050H
	DB	0ffH
	DB	050H
	DB	050H
	DB	050H
	DB	0ffH
	DB	050H
	DB	050H
	DB	050H
	DB	0ffH
	DB	050H
	DB	050H
	DB	050H
	DB	0ffH
	DB	050H
	DB	050H
	DB	050H
	DB	0ffH
	DB	050H
	DB	050H
	DB	050H
	DB	0ffH
	DB	050H
	DB	050H
	DB	050H
	DB	0ffH
	DB	050H
	DB	050H
	DB	050H
	DB	0ffH
	DB	050H
	DB	050H
	DB	050H
	DB	0ffH
	DB	050H
	DB	050H
	DB	050H
	DB	0ffH
	DB	050H
	DB	050H
	DB	050H
	DB	0ffH
	DB	050H
	DB	050H
	DB	050H
	DB	0ffH
	DB	050H
	DB	050H
	DB	050H
	DB	0ffH
	DB	050H
	DB	050H
	DB	050H
	DB	0ffH
	DB	050H
	DB	050H
	DB	050H
	DB	0ffH
	DB	050H
	DB	050H
	DB	050H
	DB	0ffH
	DB	050H
	DB	050H
	DB	050H
	DB	0ffH
	DB	050H
	DB	050H
	DB	050H
	DB	0ffH
	DB	050H
	DB	050H
	DB	050H
	DB	0ffH
	DB	050H
	DB	050H
	DB	050H
	DB	0ffH
	DB	050H
	DB	050H
	DB	050H
	DB	0ffH
	DB	050H
	DB	050H
	DB	050H
	DB	0ffH
	DB	050H
	DB	050H
	DB	050H
	DB	0ffH
	DB	050H
	DB	050H
	DB	050H
	DB	0ffH
	DB	050H
	DB	050H
	DB	050H
	DB	0ffH
	DB	050H
	DB	050H
	DB	050H
	DB	0ffH
	DB	050H
	DB	050H
	DB	050H
	DB	0ffH
	DB	050H
	DB	050H
	DB	050H
	DB	0ffH
	DB	050H
	DB	050H
	DB	050H
	DB	0ffH
	DB	050H
	DB	050H
	DB	050H
	DB	0ffH
	DB	050H
	DB	050H
	DB	050H
	DB	0ffH
	DB	050H
	DB	050H
	DB	050H
	DB	0ffH
	DB	050H
	DB	050H
	DB	050H
	DB	0ffH
	DB	050H
	DB	050H
	DB	050H
	DB	0ffH
	DB	050H
	DB	050H
	DB	050H
	DB	0ffH
	DB	050H
	DB	050H
	DB	050H
	DB	0ffH
	DB	050H
	DB	050H
	DB	050H
	DB	0ffH
	DB	050H
	DB	050H
	DB	050H
	DB	0ffH
	DB	050H
	DB	050H
	DB	050H
	DB	0ffH
	DB	050H
	DB	050H
	DB	050H
	DB	0ffH
	DB	050H
	DB	050H
	DB	050H
	DB	0ffH
	DB	050H
	DB	050H
	DB	050H
	DB	0ffH
	DB	050H
	DB	050H
	DB	050H
	DB	0ffH
	DB	050H
	DB	050H
	DB	050H
	DB	0ffH
	DB	050H
	DB	050H
	DB	050H
	DB	0ffH
	DB	050H
	DB	050H
	DB	050H
	DB	0ffH
	DB	050H
	DB	050H
	DB	050H
	DB	0ffH
	DB	050H
	DB	050H
	DB	050H
	DB	0ffH
	DB	050H
	DB	050H
	DB	050H
	DB	0ffH
	DB	050H
	DB	050H
	DB	050H
	DB	0ffH
	DB	050H
	DB	050H
	DB	050H
	DB	0ffH
	DB	050H
	DB	050H
	DB	050H
	DB	0ffH
	DB	050H
	DB	050H
	DB	050H
	DB	0ffH
	DB	050H
	DB	050H
	DB	050H
	DB	0ffH
	DB	050H
	DB	050H
	DB	050H
	DB	0ffH
	DB	050H
	DB	050H
	DB	050H
	DB	0ffH
	DB	050H
	DB	050H
	DB	050H
	DB	0ffH
	DB	050H
	DB	050H
	DB	050H
	DB	0ffH
	DB	050H
	DB	050H
	DB	050H
	DB	0ffH
	DB	050H
	DB	050H
	DB	050H
	DB	0ffH
	DB	050H
	DB	050H
	DB	050H
	DB	0ffH
	DB	050H
	DB	050H
	DB	050H
	DB	0ffH
	DB	050H
	DB	050H
	DB	050H
	DB	0ffH
	DB	050H
	DB	050H
	DB	050H
	DB	0ffH
	DB	050H
	DB	050H
	DB	050H
	DB	0ffH
	DB	050H
	DB	050H
	DB	050H
	DB	0ffH
	DB	050H
	DB	050H
	DB	050H
	DB	0ffH
	DB	050H
	DB	050H
	DB	050H
	DB	0ffH
	DB	050H
	DB	050H
	DB	050H
	DB	0ffH
	DB	050H
	DB	050H
	DB	050H
	DB	0ffH
	DB	050H
	DB	050H
	DB	050H
	DB	0ffH
	DB	050H
	DB	050H
	DB	050H
	DB	0ffH
	DB	050H
	DB	050H
	DB	050H
	DB	0ffH
	DB	050H
	DB	050H
	DB	050H
	DB	0ffH
	DB	050H
	DB	050H
	DB	050H
	DB	0ffH
	DB	050H
	DB	050H
	DB	050H
	DB	0ffH
	DB	050H
	DB	050H
	DB	050H
	DB	0ffH
	DB	050H
	DB	050H
	DB	050H
	DB	0ffH
	DB	050H
	DB	050H
	DB	050H
	DB	0ffH
	DB	050H
	DB	050H
	DB	050H
	DB	0ffH
	DB	050H
	DB	050H
	DB	050H
	DB	0ffH
	DB	050H
	DB	050H
	DB	050H
	DB	0ffH
	DB	050H
	DB	050H
	DB	050H
	DB	0ffH
	DB	050H
	DB	050H
	DB	050H
	DB	0ffH
	DB	050H
	DB	050H
	DB	050H
	DB	0ffH
	DB	050H
	DB	050H
	DB	050H
	DB	0ffH
	DB	050H
	DB	050H
	DB	050H
	DB	0ffH
	DB	050H
	DB	050H
	DB	050H
	DB	0ffH
	DB	050H
	DB	050H
	DB	050H
	DB	0ffH
	DB	050H
	DB	050H
	DB	050H
	DB	0ffH
	DB	050H
	DB	050H
	DB	050H
	DB	0ffH
	DB	050H
	DB	050H
	DB	050H
	DB	0ffH
	DB	050H
	DB	050H
	DB	050H
	DB	0ffH
	DB	050H
	DB	050H
	DB	050H
	DB	0ffH
	DB	050H
	DB	050H
	DB	050H
	DB	0ffH
	DB	050H
	DB	050H
	DB	050H
	DB	0ffH
	DB	050H
	DB	050H
	DB	050H
	DB	0ffH
	DB	050H
	DB	050H
	DB	050H
	DB	0ffH
	DB	050H
	DB	050H
	DB	050H
	DB	0ffH
	DB	050H
	DB	050H
	DB	050H
	DB	0ffH
	DB	050H
	DB	050H
	DB	050H
	DB	0ffH
	DB	050H
	DB	050H
	DB	050H
	DB	0ffH
	DB	050H
	DB	050H
	DB	050H
	DB	0ffH
	DB	050H
	DB	050H
	DB	050H
	DB	0ffH
	DB	050H
	DB	050H
	DB	050H
	DB	0ffH
	DB	050H
	DB	050H
	DB	050H
	DB	0ffH
	DB	050H
	DB	050H
	DB	050H
	DB	0ffH
	DB	050H
	DB	050H
	DB	050H
	DB	0ffH
	DB	050H
	DB	050H
	DB	050H
	DB	0ffH
	DB	050H
	DB	050H
	DB	050H
	DB	0ffH
	DB	050H
	DB	050H
	DB	050H
	DB	0ffH
	DB	050H
	DB	050H
	DB	050H
	DB	0ffH
	DB	050H
	DB	050H
	DB	050H
	DB	0ffH
	DB	050H
	DB	050H
	DB	050H
	DB	0ffH
	DB	050H
	DB	050H
	DB	050H
	DB	0ffH
	DB	050H
	DB	050H
	DB	050H
	DB	0ffH
	DB	050H
	DB	050H
	DB	050H
	DB	0ffH
	DB	050H
	DB	050H
	DB	050H
	DB	0ffH
	DB	050H
	DB	050H
	DB	050H
	DB	0ffH
	DB	050H
	DB	050H
	DB	050H
	DB	0ffH
	DB	050H
	DB	050H
	DB	050H
	DB	0ffH
	DB	050H
	DB	050H
	DB	050H
	DB	0ffH
	DB	050H
	DB	050H
	DB	050H
	DB	0ffH
	DB	050H
	DB	050H
	DB	050H
	DB	0ffH
	DB	050H
	DB	050H
	DB	050H
	DB	0ffH
	DB	050H
	DB	050H
	DB	050H
	DB	0ffH
	DB	050H
	DB	050H
	DB	050H
	DB	0ffH
	DB	050H
	DB	050H
	DB	050H
	DB	0ffH
	DB	050H
	DB	050H
	DB	050H
	DB	0ffH
	DB	050H
	DB	050H
	DB	050H
	DB	0ffH
	DB	050H
	DB	050H
	DB	050H
	DB	0ffH
	DB	050H
	DB	050H
	DB	050H
	DB	0ffH
	DB	050H
	DB	050H
	DB	050H
	DB	0ffH
	DB	050H
	DB	050H
	DB	050H
	DB	0ffH
	DB	050H
	DB	050H
	DB	050H
	DB	0ffH
	DB	050H
	DB	050H
	DB	050H
	DB	0ffH
	DB	050H
	DB	050H
	DB	050H
	DB	0ffH
	DB	050H
	DB	050H
	DB	050H
	DB	0ffH
	DB	050H
	DB	050H
	DB	050H
	DB	0ffH
	DB	050H
	DB	050H
	DB	050H
	DB	0ffH
	DB	050H
	DB	050H
	DB	050H
	DB	0ffH
	DB	050H
	DB	050H
	DB	050H
	DB	0ffH
	DB	050H
	DB	050H
	DB	050H
	DB	0ffH
	DB	050H
	DB	050H
	DB	050H
	DB	0ffH
	DB	050H
	DB	050H
	DB	050H
	DB	0ffH
	DB	050H
	DB	050H
	DB	050H
	DB	0ffH
	DB	050H
	DB	050H
	DB	050H
	DB	0ffH
	DB	050H
	DB	050H
	DB	050H
	DB	0ffH
	DB	050H
	DB	050H
	DB	050H
	DB	0ffH
	DB	050H
	DB	050H
	DB	050H
	DB	0ffH
	DB	050H
	DB	050H
	DB	050H
	DB	0ffH
	DB	050H
	DB	050H
	DB	050H
	DB	0ffH
	DB	050H
	DB	050H
	DB	050H
	DB	0ffH
	DB	050H
	DB	050H
	DB	050H
	DB	0ffH
	DB	050H
	DB	050H
	DB	050H
	DB	0ffH
	DB	050H
	DB	050H
	DB	050H
	DB	0ffH
	DB	050H
	DB	050H
	DB	050H
	DB	0ffH
	DB	050H
	DB	050H
	DB	050H
	DB	0ffH
	DB	050H
	DB	050H
	DB	050H
	DB	0ffH
	DB	050H
	DB	050H
	DB	050H
	DB	0ffH
	DB	050H
	DB	050H
	DB	050H
	DB	0ffH
	DB	050H
	DB	050H
	DB	050H
	DB	0ffH
	DB	050H
	DB	050H
	DB	050H
	DB	0ffH
	DB	050H
	DB	050H
	DB	050H
	DB	0ffH
	DB	050H
	DB	050H
	DB	050H
	DB	0ffH
	DB	050H
	DB	050H
	DB	050H
	DB	0ffH
	DB	050H
	DB	050H
	DB	050H
	DB	0ffH
	DB	050H
	DB	050H
	DB	050H
	DB	0ffH
	DB	050H
	DB	050H
	DB	050H
	DB	0ffH
	DB	050H
	DB	050H
	DB	050H
	DB	0ffH
	DB	050H
	DB	050H
	DB	050H
	DB	0ffH
	DB	050H
	DB	050H
	DB	050H
	DB	0ffH
	DB	050H
	DB	050H
	DB	050H
	DB	0ffH
	DB	050H
	DB	050H
	DB	050H
	DB	0ffH
	DB	050H
	DB	050H
	DB	050H
	DB	0ffH
	DB	050H
	DB	050H
	DB	050H
	DB	0ffH
	DB	050H
	DB	050H
	DB	050H
	DB	0ffH
	DB	050H
	DB	050H
	DB	050H
	DB	0ffH
	DB	050H
	DB	050H
	DB	050H
	DB	0ffH
	DB	050H
	DB	050H
	DB	050H
	DB	0ffH
	DB	050H
	DB	050H
	DB	050H
	DB	0ffH
	DB	050H
	DB	050H
	DB	050H
	DB	0ffH
	DB	050H
	DB	050H
	DB	050H
	DB	0ffH
	DB	050H
	DB	050H
	DB	050H
	DB	0ffH
	DB	050H
	DB	050H
	DB	050H
	DB	0ffH
	DB	050H
	DB	050H
	DB	050H
	DB	0ffH
	DB	050H
	DB	050H
	DB	050H
	DB	0ffH
	DB	050H
	DB	050H
	DB	050H
	DB	0ffH
	DB	050H
	DB	050H
	DB	050H
	DB	0ffH
	DB	050H
	DB	050H
	DB	050H
	DB	0ffH
	DB	050H
	DB	050H
	DB	050H
	DB	0ffH
	DB	050H
	DB	050H
	DB	050H
	DB	0ffH
	DB	050H
	DB	050H
	DB	050H
	DB	0ffH
	DB	050H
	DB	050H
	DB	050H
	DB	0ffH
	DB	050H
	DB	050H
	DB	050H
	DB	0ffH
	DB	050H
	DB	050H
	DB	050H
	DB	0ffH
	DB	050H
	DB	050H
	DB	050H
	DB	0ffH
	DB	050H
	DB	050H
	DB	050H
	DB	0ffH
	DB	050H
	DB	050H
	DB	050H
	DB	0ffH
	DB	050H
	DB	050H
	DB	050H
	DB	0ffH
	DB	050H
	DB	050H
	DB	050H
	DB	0ffH
	DB	050H
	DB	050H
	DB	050H
	DB	0ffH
	DB	050H
	DB	050H
	DB	050H
	DB	0ffH
	DB	050H
	DB	050H
	DB	050H
	DB	0ffH
	DB	050H
	DB	050H
	DB	050H
	DB	0ffH
	DB	050H
	DB	050H
	DB	050H
	DB	0ffH
	DB	050H
	DB	050H
	DB	050H
	DB	0ffH
	DB	050H
	DB	050H
	DB	050H
	DB	0ffH
	DB	050H
	DB	050H
	DB	050H
	DB	0ffH
	DB	050H
	DB	050H
	DB	050H
	DB	0ffH
	DB	050H
	DB	050H
	DB	050H
	DB	0ffH
	DB	050H
	DB	050H
	DB	050H
	DB	0ffH
	DB	050H
	DB	050H
	DB	050H
	DB	0ffH
	DB	050H
	DB	050H
	DB	050H
	DB	0ffH
	DB	050H
	DB	050H
	DB	050H
	DB	0ffH
	DB	050H
	DB	050H
	DB	050H
	DB	0ffH
	DB	050H
	DB	050H
	DB	050H
	DB	0ffH
	DB	050H
	DB	050H
	DB	050H
	DB	0ffH
	DB	050H
	DB	050H
	DB	050H
	DB	0ffH
	DB	050H
	DB	050H
	DB	050H
	DB	0ffH
	DB	050H
	DB	050H
	DB	050H
	DB	0ffH
	DB	050H
	DB	050H
	DB	050H
	DB	0ffH
	DB	050H
	DB	050H
	DB	050H
	DB	0ffH
	DB	050H
	DB	050H
	DB	050H
	DB	0ffH
	DB	050H
	DB	050H
	DB	050H
	DB	0ffH
	DB	050H
	DB	050H
	DB	050H
	DB	0ffH
	DB	050H
	DB	050H
	DB	050H
	DB	0ffH
	DB	050H
	DB	050H
	DB	050H
	DB	0ffH
	DB	050H
	DB	050H
	DB	050H
	DB	0ffH
	DB	050H
	DB	050H
	DB	050H
	DB	0ffH
	DB	050H
	DB	050H
	DB	050H
	DB	0ffH
	DB	050H
	DB	050H
	DB	050H
	DB	0ffH
	DB	050H
	DB	050H
	DB	050H
	DB	0ffH
	DB	050H
	DB	050H
	DB	050H
	DB	0ffH
	DB	050H
	DB	050H
	DB	050H
	DB	0ffH
	DB	050H
	DB	050H
	DB	050H
	DB	0ffH
	DB	050H
	DB	050H
	DB	050H
	DB	0ffH
	DB	050H
	DB	050H
	DB	050H
	DB	0ffH
	DB	050H
	DB	050H
	DB	050H
	DB	0ffH
	DB	050H
	DB	050H
	DB	050H
	DB	0ffH
	DB	050H
	DB	050H
	DB	050H
	DB	0ffH
	DB	050H
	DB	050H
	DB	050H
	DB	0ffH
	DB	050H
	DB	050H
	DB	050H
	DB	0ffH
	DB	050H
	DB	050H
	DB	050H
	DB	0ffH
	DB	050H
	DB	050H
	DB	050H
	DB	0ffH
	DB	050H
	DB	050H
	DB	050H
	DB	0ffH
	DB	050H
	DB	050H
	DB	050H
	DB	0ffH
	DB	050H
	DB	050H
	DB	050H
	DB	0ffH
	DB	050H
	DB	050H
	DB	050H
	DB	0ffH
	DB	050H
	DB	050H
	DB	050H
	DB	0ffH
	DB	050H
	DB	050H
	DB	050H
	DB	0ffH
	DB	050H
	DB	050H
	DB	050H
	DB	0ffH
	DB	050H
	DB	050H
	DB	050H
	DB	0ffH
	DB	050H
	DB	050H
	DB	050H
	DB	0ffH
	DB	050H
	DB	050H
	DB	050H
	DB	0ffH
	DB	050H
	DB	050H
	DB	050H
	DB	0ffH
	DB	050H
	DB	050H
	DB	050H
	DB	0ffH
	DB	050H
	DB	050H
	DB	050H
	DB	0ffH
	DB	050H
	DB	050H
	DB	050H
	DB	0ffH
	DB	050H
	DB	050H
	DB	050H
	DB	0ffH
	DB	050H
	DB	050H
	DB	050H
	DB	0ffH
	DB	050H
	DB	050H
	DB	050H
	DB	0ffH
	DB	050H
	DB	050H
	DB	050H
	DB	0ffH
	DB	050H
	DB	050H
	DB	050H
	DB	0ffH
	DB	050H
	DB	050H
	DB	050H
	DB	0ffH
	DB	050H
	DB	050H
	DB	050H
	DB	0ffH
	DB	050H
	DB	050H
	DB	050H
	DB	0ffH
	DB	050H
	DB	050H
	DB	050H
	DB	0ffH
	DB	050H
	DB	050H
	DB	050H
	DB	0ffH
	DB	050H
	DB	050H
	DB	050H
	DB	0ffH
	DB	050H
	DB	050H
	DB	050H
	DB	0ffH
	DB	050H
	DB	050H
	DB	050H
	DB	0ffH
	DB	050H
	DB	050H
	DB	050H
	DB	0ffH
	DB	050H
	DB	050H
	DB	050H
	DB	0ffH
	DB	050H
	DB	050H
	DB	050H
	DB	0ffH
	DB	050H
	DB	050H
	DB	050H
	DB	0ffH
	DB	050H
	DB	050H
	DB	050H
	DB	0ffH
	DB	050H
	DB	050H
	DB	050H
	DB	0ffH
	DB	050H
	DB	050H
	DB	050H
	DB	0ffH
	DB	050H
	DB	050H
	DB	050H
	DB	0ffH
	DB	050H
	DB	050H
	DB	050H
	DB	0ffH
	DB	050H
	DB	050H
	DB	050H
	DB	0ffH
	DB	050H
	DB	050H
	DB	050H
	DB	0ffH
	DB	050H
	DB	050H
	DB	050H
	DB	0ffH
	DB	050H
	DB	050H
	DB	050H
	DB	0ffH
	DB	050H
	DB	050H
	DB	050H
	DB	0ffH
	DB	050H
	DB	050H
	DB	050H
	DB	0ffH
	DB	050H
	DB	050H
	DB	050H
	DB	0ffH
	DB	050H
	DB	050H
	DB	050H
	DB	0ffH
	DB	050H
	DB	050H
	DB	050H
	DB	0ffH
	DB	050H
	DB	050H
	DB	050H
	DB	0ffH
	DB	050H
	DB	050H
	DB	050H
	DB	0ffH
	DB	050H
	DB	050H
	DB	050H
	DB	0ffH
	DB	050H
	DB	050H
	DB	050H
	DB	0ffH
	DB	050H
	DB	050H
	DB	050H
	DB	0ffH
	DB	050H
	DB	050H
	DB	050H
	DB	0ffH
	DB	050H
	DB	050H
	DB	050H
	DB	0ffH
	DB	050H
	DB	050H
	DB	050H
	DB	0ffH
	DB	050H
	DB	050H
	DB	050H
	DB	0ffH
	DB	050H
	DB	050H
	DB	050H
	DB	0ffH
	DB	050H
	DB	050H
	DB	050H
	DB	0ffH
	DB	050H
	DB	050H
	DB	050H
	DB	0ffH
	DB	050H
	DB	050H
	DB	050H
	DB	0ffH
	DB	050H
	DB	050H
	DB	050H
	DB	0ffH
	DB	050H
	DB	050H
	DB	050H
	DB	0ffH
	DB	050H
	DB	050H
	DB	050H
	DB	0ffH
	DB	050H
	DB	050H
	DB	050H
	DB	0ffH
	DB	050H
	DB	050H
	DB	050H
	DB	0ffH
	DB	050H
	DB	050H
	DB	050H
	DB	0ffH
	DB	050H
	DB	050H
	DB	050H
	DB	0ffH
	DB	050H
	DB	050H
	DB	050H
	DB	0ffH
	DB	050H
	DB	050H
	DB	050H
	DB	0ffH
	DB	050H
	DB	050H
	DB	050H
	DB	0ffH
	DB	050H
	DB	050H
	DB	050H
	DB	0ffH
	DB	050H
	DB	050H
	DB	050H
	DB	0ffH
	DB	050H
	DB	050H
	DB	050H
	DB	0ffH
	DB	050H
	DB	050H
	DB	050H
	DB	0ffH
	DB	050H
	DB	050H
	DB	050H
	DB	0ffH
	DB	050H
	DB	050H
	DB	050H
	DB	0ffH
	DB	050H
	DB	050H
	DB	050H
	DB	0ffH
	DB	050H
	DB	050H
	DB	050H
	DB	0ffH
	DB	050H
	DB	050H
	DB	050H
	DB	0ffH
	DB	050H
	DB	050H
	DB	050H
	DB	0ffH
	DB	050H
	DB	050H
	DB	050H
	DB	0ffH
	DB	050H
	DB	050H
	DB	050H
	DB	0ffH
	DB	050H
	DB	050H
	DB	050H
	DB	0ffH
	DB	050H
	DB	050H
	DB	050H
	DB	0ffH
	DB	050H
	DB	050H
	DB	050H
	DB	0ffH
	DB	050H
	DB	050H
	DB	050H
	DB	0ffH
	DB	050H
	DB	050H
	DB	050H
	DB	0ffH
	DB	050H
	DB	050H
	DB	050H
	DB	0ffH
	DB	050H
	DB	050H
	DB	050H
	DB	0ffH
	DB	050H
	DB	050H
	DB	050H
	DB	0ffH
	DB	050H
	DB	050H
	DB	050H
	DB	0ffH
	DB	050H
	DB	050H
	DB	050H
	DB	0ffH
	DB	050H
	DB	050H
	DB	050H
	DB	0ffH
	DB	050H
	DB	04cH
	DB	050H
	DB	0ffH
	DB	050H
	DB	050H
	DB	050H
	DB	0ffH
	DB	048H
	DB	04cH
	DB	048H
	DB	0ffH
	DB	048H
	DB	048H
	DB	048H
	DB	0ffH
	DB	058H
	DB	058H
	DB	058H
	DB	0c7H
	DB	088H
	DB	084H
	DB	080H
	DB	05dH
	DB	058H
	DB	05cH
	DB	058H
	DB	0d3H
	DB	050H
	DB	04cH
	DB	050H
	DB	0f7H
	DB	050H
	DB	04cH
	DB	050H
	DB	0ffH
	DB	048H
	DB	04cH
	DB	048H
	DB	0ffH
	DB	050H
	DB	050H
	DB	050H
	DB	0ffH
	DB	050H
	DB	050H
	DB	050H
	DB	0ffH
	DB	050H
	DB	04cH
	DB	050H
	DB	0ffH
	DB	050H
	DB	050H
	DB	050H
	DB	0ffH
	DB	050H
	DB	04cH
	DB	050H
	DB	0ffH
	DB	050H
	DB	050H
	DB	050H
	DB	0ffH
	DB	050H
	DB	04cH
	DB	050H
	DB	0ffH
	DB	050H
	DB	050H
	DB	050H
	DB	0ffH
	DB	050H
	DB	04cH
	DB	050H
	DB	0ffH
	DB	050H
	DB	050H
	DB	050H
	DB	0ffH
	DB	050H
	DB	04cH
	DB	050H
	DB	0ffH
	DB	048H
	DB	050H
	DB	048H
	DB	0ffH
	DB	050H
	DB	04cH
	DB	050H
	DB	0ffH
	DB	050H
	DB	050H
	DB	050H
	DB	0ffH
	DB	050H
	DB	04cH
	DB	050H
	DB	0ffH
	DB	050H
	DB	050H
	DB	050H
	DB	0ffH
	DB	048H
	DB	04cH
	DB	048H
	DB	0ffH
	DB	050H
	DB	050H
	DB	050H
	DB	0ffH
	DB	050H
	DB	04cH
	DB	050H
	DB	0ffH
	DB	050H
	DB	050H
	DB	050H
	DB	0ffH
	DB	050H
	DB	04cH
	DB	050H
	DB	0ffH
	DB	048H
	DB	050H
	DB	048H
	DB	0ffH
	DB	050H
	DB	04cH
	DB	050H
	DB	0ffH
	DB	050H
	DB	050H
	DB	050H
	DB	0ffH
	DB	050H
	DB	04cH
	DB	050H
	DB	0ffH
	DB	050H
	DB	050H
	DB	050H
	DB	0ffH
	DB	048H
	DB	04cH
	DB	048H
	DB	0ffH
	DB	050H
	DB	050H
	DB	050H
	DB	0ffH
	DB	050H
	DB	04cH
	DB	050H
	DB	0ffH
	DB	050H
	DB	050H
	DB	050H
	DB	0ffH
	DB	050H
	DB	04cH
	DB	050H
	DB	0ffH
	DB	048H
	DB	050H
	DB	048H
	DB	0ffH
	DB	050H
	DB	04cH
	DB	050H
	DB	0ffH
	DB	050H
	DB	050H
	DB	050H
	DB	0ffH
	DB	050H
	DB	04cH
	DB	050H
	DB	0ffH
	DB	050H
	DB	050H
	DB	050H
	DB	0ffH
	DB	048H
	DB	04cH
	DB	048H
	DB	0ffH
	DB	050H
	DB	050H
	DB	050H
	DB	0ffH
	DB	050H
	DB	04cH
	DB	050H
	DB	0ffH
	DB	050H
	DB	050H
	DB	050H
	DB	0ffH
	DB	050H
	DB	04cH
	DB	050H
	DB	0ffH
	DB	048H
	DB	050H
	DB	048H
	DB	0ffH
	DB	050H
	DB	04cH
	DB	050H
	DB	0ffH
	DB	050H
	DB	050H
	DB	050H
	DB	0ffH
	DB	050H
	DB	04cH
	DB	050H
	DB	0ffH
	DB	050H
	DB	050H
	DB	050H
	DB	0ffH
	DB	048H
	DB	04cH
	DB	048H
	DB	0ffH
	DB	050H
	DB	050H
	DB	050H
	DB	0ffH
	DB	050H
	DB	04cH
	DB	050H
	DB	0ffH
	DB	050H
	DB	050H
	DB	050H
	DB	0ffH
	DB	050H
	DB	04cH
	DB	050H
	DB	0ffH
	DB	048H
	DB	050H
	DB	048H
	DB	0ffH
	DB	050H
	DB	04cH
	DB	050H
	DB	0ffH
	DB	050H
	DB	050H
	DB	050H
	DB	0ffH
	DB	050H
	DB	04cH
	DB	050H
	DB	0ffH
	DB	050H
	DB	050H
	DB	050H
	DB	0ffH
	DB	048H
	DB	04cH
	DB	048H
	DB	0ffH
	DB	050H
	DB	050H
	DB	050H
	DB	0ffH
	DB	050H
	DB	04cH
	DB	050H
	DB	0ffH
	DB	050H
	DB	050H
	DB	050H
	DB	0ffH
	DB	050H
	DB	04cH
	DB	050H
	DB	0ffH
	DB	048H
	DB	050H
	DB	048H
	DB	0ffH
	DB	050H
	DB	04cH
	DB	050H
	DB	0ffH
	DB	050H
	DB	050H
	DB	050H
	DB	0ffH
	DB	050H
	DB	04cH
	DB	050H
	DB	0ffH
	DB	050H
	DB	050H
	DB	050H
	DB	0ffH
	DB	048H
	DB	04cH
	DB	048H
	DB	0ffH
	DB	050H
	DB	050H
	DB	050H
	DB	0ffH
	DB	050H
	DB	04cH
	DB	050H
	DB	0ffH
	DB	050H
	DB	050H
	DB	050H
	DB	0ffH
	DB	050H
	DB	04cH
	DB	050H
	DB	0ffH
	DB	048H
	DB	050H
	DB	048H
	DB	0ffH
	DB	050H
	DB	04cH
	DB	050H
	DB	0ffH
	DB	050H
	DB	050H
	DB	050H
	DB	0ffH
	DB	050H
	DB	04cH
	DB	050H
	DB	0ffH
	DB	050H
	DB	050H
	DB	050H
	DB	0ffH
	DB	048H
	DB	04cH
	DB	048H
	DB	0ffH
	DB	050H
	DB	050H
	DB	050H
	DB	0ffH
	DB	050H
	DB	04cH
	DB	050H
	DB	0ffH
	DB	050H
	DB	050H
	DB	050H
	DB	0ffH
	DB	050H
	DB	04cH
	DB	050H
	DB	0ffH
	DB	048H
	DB	050H
	DB	048H
	DB	0ffH
	DB	050H
	DB	04cH
	DB	050H
	DB	0ffH
	DB	050H
	DB	050H
	DB	050H
	DB	0ffH
	DB	050H
	DB	04cH
	DB	050H
	DB	0ffH
	DB	050H
	DB	050H
	DB	050H
	DB	0ffH
	DB	048H
	DB	04cH
	DB	048H
	DB	0ffH
	DB	050H
	DB	050H
	DB	050H
	DB	0ffH
	DB	050H
	DB	04cH
	DB	050H
	DB	0ffH
	DB	050H
	DB	050H
	DB	050H
	DB	0ffH
	DB	050H
	DB	04cH
	DB	050H
	DB	0ffH
	DB	048H
	DB	050H
	DB	048H
	DB	0ffH
	DB	050H
	DB	04cH
	DB	050H
	DB	0ffH
	DB	050H
	DB	050H
	DB	050H
	DB	0ffH
	DB	050H
	DB	04cH
	DB	050H
	DB	0ffH
	DB	050H
	DB	050H
	DB	050H
	DB	0ffH
	DB	048H
	DB	04cH
	DB	048H
	DB	0ffH
	DB	050H
	DB	050H
	DB	050H
	DB	0ffH
	DB	050H
	DB	04cH
	DB	050H
	DB	0ffH
	DB	050H
	DB	050H
	DB	050H
	DB	0ffH
	DB	050H
	DB	04cH
	DB	050H
	DB	0ffH
	DB	048H
	DB	050H
	DB	048H
	DB	0ffH
	DB	050H
	DB	04cH
	DB	050H
	DB	0ffH
	DB	050H
	DB	050H
	DB	050H
	DB	0ffH
	DB	050H
	DB	04cH
	DB	050H
	DB	0ffH
	DB	050H
	DB	050H
	DB	050H
	DB	0ffH
	DB	048H
	DB	04cH
	DB	048H
	DB	0ffH
	DB	050H
	DB	050H
	DB	050H
	DB	0ffH
	DB	050H
	DB	04cH
	DB	050H
	DB	0ffH
	DB	050H
	DB	050H
	DB	050H
	DB	0ffH
	DB	050H
	DB	04cH
	DB	050H
	DB	0ffH
	DB	048H
	DB	050H
	DB	048H
	DB	0ffH
	DB	050H
	DB	04cH
	DB	050H
	DB	0ffH
	DB	050H
	DB	050H
	DB	050H
	DB	0ffH
	DB	050H
	DB	04cH
	DB	050H
	DB	0ffH
	DB	050H
	DB	050H
	DB	050H
	DB	0ffH
	DB	048H
	DB	04cH
	DB	048H
	DB	0ffH
	DB	050H
	DB	050H
	DB	050H
	DB	0ffH
	DB	050H
	DB	04cH
	DB	050H
	DB	0ffH
	DB	050H
	DB	050H
	DB	050H
	DB	0ffH
	DB	050H
	DB	04cH
	DB	050H
	DB	0ffH
	DB	048H
	DB	050H
	DB	048H
	DB	0ffH
	DB	050H
	DB	04cH
	DB	050H
	DB	0ffH
	DB	050H
	DB	050H
	DB	050H
	DB	0ffH
	DB	050H
	DB	04cH
	DB	050H
	DB	0ffH
	DB	050H
	DB	050H
	DB	050H
	DB	0ffH
	DB	048H
	DB	04cH
	DB	048H
	DB	0ffH
	DB	050H
	DB	050H
	DB	050H
	DB	0ffH
	DB	050H
	DB	04cH
	DB	050H
	DB	0ffH
	DB	050H
	DB	050H
	DB	050H
	DB	0ffH
	DB	050H
	DB	04cH
	DB	050H
	DB	0ffH
	DB	048H
	DB	050H
	DB	048H
	DB	0ffH
	DB	050H
	DB	04cH
	DB	050H
	DB	0ffH
	DB	050H
	DB	050H
	DB	050H
	DB	0ffH
	DB	050H
	DB	04cH
	DB	050H
	DB	0ffH
	DB	050H
	DB	050H
	DB	050H
	DB	0ffH
	DB	048H
	DB	04cH
	DB	048H
	DB	0ffH
	DB	050H
	DB	050H
	DB	050H
	DB	0ffH
	DB	050H
	DB	04cH
	DB	050H
	DB	0ffH
	DB	050H
	DB	050H
	DB	050H
	DB	0ffH
	DB	050H
	DB	04cH
	DB	050H
	DB	0ffH
	DB	048H
	DB	050H
	DB	048H
	DB	0ffH
	DB	050H
	DB	04cH
	DB	050H
	DB	0ffH
	DB	050H
	DB	050H
	DB	050H
	DB	0ffH
	DB	050H
	DB	04cH
	DB	050H
	DB	0ffH
	DB	050H
	DB	050H
	DB	050H
	DB	0ffH
	DB	048H
	DB	04cH
	DB	048H
	DB	0ffH
	DB	050H
	DB	050H
	DB	050H
	DB	0ffH
	DB	050H
	DB	04cH
	DB	050H
	DB	0ffH
	DB	050H
	DB	050H
	DB	050H
	DB	0ffH
	DB	050H
	DB	04cH
	DB	050H
	DB	0ffH
	DB	048H
	DB	050H
	DB	048H
	DB	0ffH
	DB	050H
	DB	04cH
	DB	050H
	DB	0ffH
	DB	050H
	DB	050H
	DB	050H
	DB	0ffH
	DB	050H
	DB	04cH
	DB	050H
	DB	0ffH
	DB	050H
	DB	050H
	DB	050H
	DB	0ffH
	DB	048H
	DB	04cH
	DB	048H
	DB	0ffH
	DB	050H
	DB	050H
	DB	050H
	DB	0ffH
	DB	050H
	DB	04cH
	DB	050H
	DB	0ffH
	DB	050H
	DB	050H
	DB	050H
	DB	0ffH
	DB	050H
	DB	04cH
	DB	050H
	DB	0ffH
	DB	048H
	DB	050H
	DB	048H
	DB	0ffH
	DB	050H
	DB	04cH
	DB	050H
	DB	0ffH
	DB	050H
	DB	050H
	DB	050H
	DB	0ffH
	DB	050H
	DB	04cH
	DB	050H
	DB	0ffH
	DB	050H
	DB	050H
	DB	050H
	DB	0ffH
	DB	048H
	DB	04cH
	DB	048H
	DB	0ffH
	DB	050H
	DB	050H
	DB	050H
	DB	0ffH
	DB	050H
	DB	04cH
	DB	050H
	DB	0ffH
	DB	050H
	DB	050H
	DB	050H
	DB	0ffH
	DB	050H
	DB	04cH
	DB	050H
	DB	0ffH
	DB	048H
	DB	050H
	DB	048H
	DB	0ffH
	DB	050H
	DB	04cH
	DB	050H
	DB	0ffH
	DB	050H
	DB	050H
	DB	050H
	DB	0ffH
	DB	050H
	DB	04cH
	DB	050H
	DB	0ffH
	DB	050H
	DB	050H
	DB	050H
	DB	0ffH
	DB	048H
	DB	04cH
	DB	048H
	DB	0ffH
	DB	050H
	DB	050H
	DB	050H
	DB	0ffH
	DB	050H
	DB	04cH
	DB	050H
	DB	0ffH
	DB	050H
	DB	050H
	DB	050H
	DB	0ffH
	DB	050H
	DB	04cH
	DB	050H
	DB	0ffH
	DB	048H
	DB	050H
	DB	048H
	DB	0ffH
	DB	050H
	DB	04cH
	DB	050H
	DB	0ffH
	DB	050H
	DB	050H
	DB	050H
	DB	0ffH
	DB	050H
	DB	04cH
	DB	050H
	DB	0ffH
	DB	050H
	DB	050H
	DB	050H
	DB	0ffH
	DB	048H
	DB	04cH
	DB	048H
	DB	0ffH
	DB	050H
	DB	050H
	DB	050H
	DB	0ffH
	DB	050H
	DB	04cH
	DB	050H
	DB	0ffH
	DB	050H
	DB	050H
	DB	050H
	DB	0ffH
	DB	050H
	DB	04cH
	DB	050H
	DB	0ffH
	DB	048H
	DB	050H
	DB	048H
	DB	0ffH
	DB	050H
	DB	04cH
	DB	050H
	DB	0ffH
	DB	050H
	DB	050H
	DB	050H
	DB	0ffH
	DB	050H
	DB	04cH
	DB	050H
	DB	0ffH
	DB	050H
	DB	050H
	DB	050H
	DB	0ffH
	DB	048H
	DB	04cH
	DB	048H
	DB	0ffH
	DB	050H
	DB	050H
	DB	050H
	DB	0ffH
	DB	050H
	DB	04cH
	DB	050H
	DB	0ffH
	DB	050H
	DB	050H
	DB	050H
	DB	0ffH
	DB	050H
	DB	04cH
	DB	050H
	DB	0ffH
	DB	048H
	DB	050H
	DB	048H
	DB	0ffH
	DB	050H
	DB	04cH
	DB	050H
	DB	0ffH
	DB	050H
	DB	050H
	DB	050H
	DB	0ffH
	DB	050H
	DB	04cH
	DB	050H
	DB	0ffH
	DB	050H
	DB	050H
	DB	050H
	DB	0ffH
	DB	048H
	DB	04cH
	DB	048H
	DB	0ffH
	DB	050H
	DB	050H
	DB	050H
	DB	0ffH
	DB	050H
	DB	04cH
	DB	050H
	DB	0ffH
	DB	050H
	DB	050H
	DB	050H
	DB	0ffH
	DB	050H
	DB	04cH
	DB	050H
	DB	0ffH
	DB	048H
	DB	050H
	DB	048H
	DB	0ffH
	DB	050H
	DB	04cH
	DB	050H
	DB	0ffH
	DB	050H
	DB	050H
	DB	050H
	DB	0ffH
	DB	050H
	DB	04cH
	DB	050H
	DB	0ffH
	DB	050H
	DB	050H
	DB	050H
	DB	0ffH
	DB	048H
	DB	04cH
	DB	048H
	DB	0ffH
	DB	050H
	DB	050H
	DB	050H
	DB	0ffH
	DB	050H
	DB	04cH
	DB	050H
	DB	0ffH
	DB	050H
	DB	050H
	DB	050H
	DB	0ffH
	DB	050H
	DB	04cH
	DB	050H
	DB	0ffH
	DB	048H
	DB	050H
	DB	048H
	DB	0ffH
	DB	050H
	DB	04cH
	DB	050H
	DB	0ffH
	DB	050H
	DB	050H
	DB	050H
	DB	0ffH
	DB	050H
	DB	04cH
	DB	050H
	DB	0ffH
	DB	050H
	DB	050H
	DB	050H
	DB	0ffH
	DB	048H
	DB	04cH
	DB	048H
	DB	0ffH
	DB	050H
	DB	050H
	DB	050H
	DB	0ffH
	DB	050H
	DB	04cH
	DB	050H
	DB	0ffH
	DB	050H
	DB	050H
	DB	050H
	DB	0ffH
	DB	050H
	DB	04cH
	DB	050H
	DB	0ffH
	DB	048H
	DB	050H
	DB	048H
	DB	0ffH
	DB	050H
	DB	04cH
	DB	050H
	DB	0ffH
	DB	050H
	DB	050H
	DB	050H
	DB	0ffH
	DB	050H
	DB	04cH
	DB	050H
	DB	0ffH
	DB	050H
	DB	050H
	DB	050H
	DB	0ffH
	DB	048H
	DB	04cH
	DB	048H
	DB	0ffH
	DB	050H
	DB	050H
	DB	050H
	DB	0ffH
	DB	050H
	DB	04cH
	DB	050H
	DB	0ffH
	DB	050H
	DB	050H
	DB	050H
	DB	0ffH
	DB	050H
	DB	04cH
	DB	050H
	DB	0ffH
	DB	048H
	DB	050H
	DB	048H
	DB	0ffH
	DB	050H
	DB	04cH
	DB	050H
	DB	0ffH
	DB	050H
	DB	050H
	DB	050H
	DB	0ffH
	DB	050H
	DB	04cH
	DB	050H
	DB	0ffH
	DB	050H
	DB	050H
	DB	050H
	DB	0ffH
	DB	048H
	DB	04cH
	DB	048H
	DB	0ffH
	DB	050H
	DB	050H
	DB	050H
	DB	0ffH
	DB	050H
	DB	04cH
	DB	050H
	DB	0ffH
	DB	050H
	DB	050H
	DB	050H
	DB	0ffH
	DB	050H
	DB	04cH
	DB	050H
	DB	0ffH
	DB	048H
	DB	050H
	DB	048H
	DB	0ffH
	DB	050H
	DB	04cH
	DB	050H
	DB	0ffH
	DB	050H
	DB	050H
	DB	050H
	DB	0ffH
	DB	050H
	DB	04cH
	DB	050H
	DB	0ffH
	DB	050H
	DB	050H
	DB	050H
	DB	0ffH
	DB	048H
	DB	04cH
	DB	048H
	DB	0ffH
	DB	050H
	DB	050H
	DB	050H
	DB	0ffH
	DB	050H
	DB	04cH
	DB	050H
	DB	0ffH
	DB	050H
	DB	050H
	DB	050H
	DB	0ffH
	DB	050H
	DB	04cH
	DB	050H
	DB	0ffH
	DB	048H
	DB	050H
	DB	048H
	DB	0ffH
	DB	050H
	DB	04cH
	DB	050H
	DB	0ffH
	DB	050H
	DB	050H
	DB	050H
	DB	0ffH
	DB	050H
	DB	04cH
	DB	050H
	DB	0ffH
	DB	050H
	DB	050H
	DB	050H
	DB	0ffH
	DB	048H
	DB	04cH
	DB	048H
	DB	0ffH
	DB	050H
	DB	050H
	DB	050H
	DB	0ffH
	DB	050H
	DB	04cH
	DB	050H
	DB	0ffH
	DB	050H
	DB	050H
	DB	050H
	DB	0ffH
	DB	050H
	DB	04cH
	DB	050H
	DB	0ffH
	DB	048H
	DB	050H
	DB	048H
	DB	0ffH
	DB	050H
	DB	04cH
	DB	050H
	DB	0ffH
	DB	050H
	DB	050H
	DB	050H
	DB	0ffH
	DB	050H
	DB	04cH
	DB	050H
	DB	0ffH
	DB	050H
	DB	050H
	DB	050H
	DB	0ffH
	DB	048H
	DB	04cH
	DB	048H
	DB	0ffH
	DB	050H
	DB	050H
	DB	050H
	DB	0ffH
	DB	050H
	DB	04cH
	DB	050H
	DB	0ffH
	DB	050H
	DB	050H
	DB	050H
	DB	0ffH
	DB	050H
	DB	04cH
	DB	050H
	DB	0ffH
	DB	048H
	DB	050H
	DB	048H
	DB	0ffH
	DB	050H
	DB	04cH
	DB	050H
	DB	0ffH
	DB	050H
	DB	050H
	DB	050H
	DB	0ffH
	DB	050H
	DB	04cH
	DB	050H
	DB	0ffH
	DB	050H
	DB	050H
	DB	050H
	DB	0ffH
	DB	048H
	DB	04cH
	DB	048H
	DB	0ffH
	DB	050H
	DB	050H
	DB	050H
	DB	0ffH
	DB	050H
	DB	04cH
	DB	050H
	DB	0ffH
	DB	050H
	DB	050H
	DB	050H
	DB	0ffH
	DB	050H
	DB	04cH
	DB	050H
	DB	0ffH
	DB	048H
	DB	050H
	DB	048H
	DB	0ffH
	DB	050H
	DB	04cH
	DB	050H
	DB	0ffH
	DB	050H
	DB	050H
	DB	050H
	DB	0ffH
	DB	050H
	DB	04cH
	DB	050H
	DB	0ffH
	DB	050H
	DB	050H
	DB	050H
	DB	0ffH
	DB	048H
	DB	04cH
	DB	048H
	DB	0ffH
	DB	050H
	DB	050H
	DB	050H
	DB	0ffH
	DB	050H
	DB	04cH
	DB	050H
	DB	0ffH
	DB	050H
	DB	050H
	DB	050H
	DB	0ffH
	DB	050H
	DB	04cH
	DB	050H
	DB	0ffH
	DB	048H
	DB	050H
	DB	048H
	DB	0ffH
	DB	050H
	DB	04cH
	DB	050H
	DB	0ffH
	DB	050H
	DB	050H
	DB	050H
	DB	0ffH
	DB	050H
	DB	04cH
	DB	050H
	DB	0ffH
	DB	050H
	DB	050H
	DB	050H
	DB	0ffH
	DB	048H
	DB	04cH
	DB	048H
	DB	0ffH
	DB	050H
	DB	050H
	DB	050H
	DB	0ffH
	DB	050H
	DB	04cH
	DB	050H
	DB	0ffH
	DB	050H
	DB	050H
	DB	050H
	DB	0ffH
	DB	050H
	DB	04cH
	DB	050H
	DB	0ffH
	DB	048H
	DB	050H
	DB	048H
	DB	0ffH
	DB	050H
	DB	04cH
	DB	050H
	DB	0ffH
	DB	050H
	DB	050H
	DB	050H
	DB	0ffH
	DB	050H
	DB	04cH
	DB	050H
	DB	0ffH
	DB	050H
	DB	050H
	DB	050H
	DB	0ffH
	DB	048H
	DB	04cH
	DB	048H
	DB	0ffH
	DB	050H
	DB	050H
	DB	050H
	DB	0ffH
	DB	050H
	DB	04cH
	DB	050H
	DB	0ffH
	DB	050H
	DB	050H
	DB	050H
	DB	0ffH
	DB	050H
	DB	04cH
	DB	050H
	DB	0ffH
	DB	048H
	DB	050H
	DB	048H
	DB	0ffH
	DB	050H
	DB	04cH
	DB	050H
	DB	0ffH
	DB	050H
	DB	050H
	DB	050H
	DB	0ffH
	DB	050H
	DB	04cH
	DB	050H
	DB	0ffH
	DB	050H
	DB	050H
	DB	050H
	DB	0ffH
	DB	048H
	DB	04cH
	DB	048H
	DB	0ffH
	DB	050H
	DB	050H
	DB	050H
	DB	0ffH
	DB	050H
	DB	04cH
	DB	050H
	DB	0ffH
	DB	050H
	DB	050H
	DB	050H
	DB	0ffH
	DB	050H
	DB	04cH
	DB	050H
	DB	0ffH
	DB	048H
	DB	050H
	DB	048H
	DB	0ffH
	DB	050H
	DB	04cH
	DB	050H
	DB	0ffH
	DB	050H
	DB	050H
	DB	050H
	DB	0ffH
	DB	050H
	DB	04cH
	DB	050H
	DB	0ffH
	DB	050H
	DB	050H
	DB	050H
	DB	0ffH
	DB	048H
	DB	04cH
	DB	048H
	DB	0ffH
	DB	050H
	DB	050H
	DB	050H
	DB	0ffH
	DB	050H
	DB	04cH
	DB	050H
	DB	0ffH
	DB	048H
	DB	050H
	DB	048H
	DB	0ffH
	DB	050H
	DB	050H
	DB	050H
	DB	0ffH
	DB	050H
	DB	050H
	DB	050H
	DB	0ffH
	DB	048H
	DB	04cH
	DB	048H
	DB	0ffH
	DB	050H
	DB	04cH
	DB	050H
	DB	0ffH
	DB	050H
	DB	04cH
	DB	048H
	DB	0f7H
	DB	058H
	DB	05cH
	DB	058H
	DB	0cfH
	DB	088H
	DB	084H
	DB	080H
	DB	05dH
	DB	080H
	DB	07cH
	DB	078H
	DB	04H
	DB	088H
	DB	088H
	DB	088H
	DB	05dH
	DB	090H
	DB	090H
	DB	090H
	DB	08aH
	DB	098H
	DB	094H
	DB	090H
	DB	092H
	DB	090H
	DB	094H
	DB	090H
	DB	096H
	DB	090H
	DB	094H
	DB	090H
	DB	092H
	DB	090H
	DB	094H
	DB	090H
	DB	092H
	DB	090H
	DB	094H
	DB	088H
	DB	096H
	DB	090H
	DB	090H
	DB	090H
	DB	092H
	DB	090H
	DB	094H
	DB	090H
	DB	092H
	DB	090H
	DB	094H
	DB	088H
	DB	096H
	DB	090H
	DB	094H
	DB	090H
	DB	092H
	DB	090H
	DB	090H
	DB	090H
	DB	092H
	DB	090H
	DB	094H
	DB	088H
	DB	096H
	DB	090H
	DB	094H
	DB	090H
	DB	092H
	DB	090H
	DB	094H
	DB	090H
	DB	092H
	DB	090H
	DB	090H
	DB	090H
	DB	096H
	DB	090H
	DB	094H
	DB	090H
	DB	092H
	DB	090H
	DB	094H
	DB	090H
	DB	092H
	DB	090H
	DB	094H
	DB	090H
	DB	096H
	DB	090H
	DB	090H
	DB	090H
	DB	092H
	DB	090H
	DB	094H
	DB	090H
	DB	092H
	DB	090H
	DB	094H
	DB	090H
	DB	096H
	DB	090H
	DB	094H
	DB	090H
	DB	092H
	DB	090H
	DB	090H
	DB	090H
	DB	092H
	DB	090H
	DB	094H
	DB	090H
	DB	096H
	DB	090H
	DB	094H
	DB	090H
	DB	092H
	DB	090H
	DB	094H
	DB	090H
	DB	092H
	DB	090H
	DB	090H
	DB	090H
	DB	096H
	DB	090H
	DB	094H
	DB	090H
	DB	092H
	DB	090H
	DB	094H
	DB	090H
	DB	092H
	DB	090H
	DB	094H
	DB	090H
	DB	096H
	DB	090H
	DB	090H
	DB	090H
	DB	092H
	DB	090H
	DB	094H
	DB	090H
	DB	092H
	DB	090H
	DB	094H
	DB	090H
	DB	096H
	DB	090H
	DB	094H
	DB	090H
	DB	092H
	DB	090H
	DB	090H
	DB	090H
	DB	092H
	DB	090H
	DB	094H
	DB	090H
	DB	096H
	DB	090H
	DB	094H
	DB	090H
	DB	092H
	DB	090H
	DB	094H
	DB	090H
	DB	092H
	DB	090H
	DB	090H
	DB	090H
	DB	096H
	DB	090H
	DB	094H
	DB	090H
	DB	092H
	DB	090H
	DB	094H
	DB	090H
	DB	092H
	DB	090H
	DB	094H
	DB	090H
	DB	096H
	DB	090H
	DB	090H
	DB	090H
	DB	092H
	DB	090H
	DB	094H
	DB	090H
	DB	092H
	DB	090H
	DB	094H
	DB	090H
	DB	096H
	DB	090H
	DB	094H
	DB	090H
	DB	092H
	DB	090H
	DB	090H
	DB	090H
	DB	092H
	DB	090H
	DB	094H
	DB	090H
	DB	096H
	DB	090H
	DB	094H
	DB	090H
	DB	092H
	DB	090H
	DB	094H
	DB	090H
	DB	092H
	DB	090H
	DB	090H
	DB	090H
	DB	096H
	DB	090H
	DB	094H
	DB	090H
	DB	092H
	DB	090H
	DB	094H
	DB	090H
	DB	092H
	DB	090H
	DB	094H
	DB	090H
	DB	096H
	DB	090H
	DB	090H
	DB	090H
	DB	092H
	DB	090H
	DB	094H
	DB	090H
	DB	092H
	DB	090H
	DB	094H
	DB	090H
	DB	096H
	DB	090H
	DB	094H
	DB	090H
	DB	092H
	DB	090H
	DB	090H
	DB	090H
	DB	092H
	DB	090H
	DB	094H
	DB	090H
	DB	096H
	DB	090H
	DB	094H
	DB	090H
	DB	092H
	DB	090H
	DB	094H
	DB	090H
	DB	092H
	DB	090H
	DB	090H
	DB	090H
	DB	096H
	DB	090H
	DB	094H
	DB	090H
	DB	092H
	DB	090H
	DB	094H
	DB	090H
	DB	092H
	DB	090H
	DB	094H
	DB	090H
	DB	096H
	DB	090H
	DB	090H
	DB	090H
	DB	092H
	DB	090H
	DB	094H
	DB	090H
	DB	092H
	DB	090H
	DB	094H
	DB	090H
	DB	096H
	DB	090H
	DB	094H
	DB	090H
	DB	092H
	DB	090H
	DB	090H
	DB	090H
	DB	092H
	DB	090H
	DB	094H
	DB	090H
	DB	096H
	DB	090H
	DB	094H
	DB	090H
	DB	092H
	DB	090H
	DB	094H
	DB	090H
	DB	092H
	DB	090H
	DB	090H
	DB	090H
	DB	096H
	DB	090H
	DB	094H
	DB	090H
	DB	092H
	DB	090H
	DB	094H
	DB	090H
	DB	092H
	DB	090H
	DB	094H
	DB	090H
	DB	096H
	DB	090H
	DB	090H
	DB	090H
	DB	092H
	DB	090H
	DB	094H
	DB	090H
	DB	092H
	DB	090H
	DB	094H
	DB	090H
	DB	096H
	DB	090H
	DB	094H
	DB	090H
	DB	092H
	DB	090H
	DB	090H
	DB	090H
	DB	092H
	DB	090H
	DB	094H
	DB	090H
	DB	096H
	DB	090H
	DB	094H
	DB	090H
	DB	092H
	DB	090H
	DB	094H
	DB	090H
	DB	092H
	DB	090H
	DB	090H
	DB	090H
	DB	096H
	DB	090H
	DB	094H
	DB	090H
	DB	092H
	DB	090H
	DB	094H
	DB	090H
	DB	092H
	DB	090H
	DB	094H
	DB	090H
	DB	096H
	DB	090H
	DB	090H
	DB	090H
	DB	092H
	DB	090H
	DB	094H
	DB	090H
	DB	092H
	DB	090H
	DB	094H
	DB	090H
	DB	096H
	DB	090H
	DB	094H
	DB	090H
	DB	092H
	DB	090H
	DB	090H
	DB	090H
	DB	092H
	DB	090H
	DB	094H
	DB	090H
	DB	096H
	DB	090H
	DB	094H
	DB	090H
	DB	092H
	DB	090H
	DB	094H
	DB	090H
	DB	092H
	DB	090H
	DB	090H
	DB	090H
	DB	096H
	DB	090H
	DB	094H
	DB	090H
	DB	092H
	DB	090H
	DB	094H
	DB	090H
	DB	092H
	DB	090H
	DB	094H
	DB	090H
	DB	096H
	DB	090H
	DB	090H
	DB	090H
	DB	092H
	DB	090H
	DB	094H
	DB	090H
	DB	092H
	DB	090H
	DB	094H
	DB	090H
	DB	096H
	DB	090H
	DB	094H
	DB	090H
	DB	092H
	DB	090H
	DB	090H
	DB	090H
	DB	092H
	DB	090H
	DB	094H
	DB	090H
	DB	096H
	DB	090H
	DB	094H
	DB	090H
	DB	092H
	DB	090H
	DB	094H
	DB	090H
	DB	092H
	DB	090H
	DB	090H
	DB	090H
	DB	096H
	DB	090H
	DB	094H
	DB	090H
	DB	092H
	DB	090H
	DB	094H
	DB	090H
	DB	092H
	DB	090H
	DB	094H
	DB	090H
	DB	096H
	DB	090H
	DB	090H
	DB	090H
	DB	092H
	DB	090H
	DB	094H
	DB	090H
	DB	092H
	DB	090H
	DB	094H
	DB	090H
	DB	096H
	DB	090H
	DB	094H
	DB	090H
	DB	092H
	DB	090H
	DB	090H
	DB	090H
	DB	092H
	DB	090H
	DB	094H
	DB	090H
	DB	096H
	DB	090H
	DB	094H
	DB	090H
	DB	092H
	DB	090H
	DB	094H
	DB	090H
	DB	092H
	DB	090H
	DB	090H
	DB	090H
	DB	096H
	DB	090H
	DB	094H
	DB	090H
	DB	092H
	DB	090H
	DB	094H
	DB	090H
	DB	092H
	DB	090H
	DB	094H
	DB	090H
	DB	096H
	DB	090H
	DB	090H
	DB	090H
	DB	092H
	DB	090H
	DB	094H
	DB	090H
	DB	092H
	DB	090H
	DB	094H
	DB	090H
	DB	096H
	DB	090H
	DB	094H
	DB	090H
	DB	092H
	DB	090H
	DB	090H
	DB	090H
	DB	092H
	DB	090H
	DB	094H
	DB	090H
	DB	096H
	DB	090H
	DB	094H
	DB	090H
	DB	092H
	DB	090H
	DB	094H
	DB	090H
	DB	092H
	DB	090H
	DB	090H
	DB	090H
	DB	096H
	DB	090H
	DB	094H
	DB	090H
	DB	092H
	DB	090H
	DB	094H
	DB	090H
	DB	092H
	DB	090H
	DB	094H
	DB	090H
	DB	096H
	DB	090H
	DB	090H
	DB	090H
	DB	092H
	DB	090H
	DB	094H
	DB	090H
	DB	092H
	DB	090H
	DB	094H
	DB	090H
	DB	096H
	DB	090H
	DB	094H
	DB	090H
	DB	092H
	DB	090H
	DB	090H
	DB	090H
	DB	092H
	DB	090H
	DB	094H
	DB	090H
	DB	096H
	DB	090H
	DB	094H
	DB	090H
	DB	092H
	DB	090H
	DB	094H
	DB	090H
	DB	092H
	DB	090H
	DB	090H
	DB	090H
	DB	096H
	DB	090H
	DB	094H
	DB	090H
	DB	092H
	DB	090H
	DB	094H
	DB	090H
	DB	092H
	DB	090H
	DB	094H
	DB	090H
	DB	096H
	DB	090H
	DB	090H
	DB	090H
	DB	092H
	DB	090H
	DB	094H
	DB	090H
	DB	092H
	DB	090H
	DB	094H
	DB	090H
	DB	096H
	DB	090H
	DB	094H
	DB	090H
	DB	092H
	DB	090H
	DB	090H
	DB	090H
	DB	092H
	DB	090H
	DB	094H
	DB	090H
	DB	096H
	DB	090H
	DB	094H
	DB	090H
	DB	092H
	DB	090H
	DB	094H
	DB	090H
	DB	092H
	DB	090H
	DB	090H
	DB	090H
	DB	096H
	DB	090H
	DB	094H
	DB	090H
	DB	092H
	DB	090H
	DB	094H
	DB	090H
	DB	092H
	DB	090H
	DB	094H
	DB	090H
	DB	096H
	DB	090H
	DB	090H
	DB	090H
	DB	092H
	DB	090H
	DB	094H
	DB	090H
	DB	092H
	DB	090H
	DB	094H
	DB	090H
	DB	096H
	DB	090H
	DB	094H
	DB	090H
	DB	092H
	DB	090H
	DB	090H
	DB	090H
	DB	092H
	DB	090H
	DB	094H
	DB	090H
	DB	096H
	DB	090H
	DB	094H
	DB	090H
	DB	092H
	DB	090H
	DB	094H
	DB	090H
	DB	092H
	DB	090H
	DB	090H
	DB	090H
	DB	096H
	DB	090H
	DB	094H
	DB	090H
	DB	092H
	DB	090H
	DB	094H
	DB	090H
	DB	092H
	DB	090H
	DB	094H
	DB	090H
	DB	096H
	DB	090H
	DB	090H
	DB	090H
	DB	092H
	DB	090H
	DB	094H
	DB	090H
	DB	092H
	DB	090H
	DB	094H
	DB	090H
	DB	096H
	DB	090H
	DB	094H
	DB	090H
	DB	092H
	DB	090H
	DB	090H
	DB	090H
	DB	092H
	DB	090H
	DB	094H
	DB	090H
	DB	096H
	DB	090H
	DB	094H
	DB	090H
	DB	092H
	DB	090H
	DB	094H
	DB	090H
	DB	092H
	DB	090H
	DB	090H
	DB	090H
	DB	096H
	DB	090H
	DB	094H
	DB	090H
	DB	092H
	DB	090H
	DB	094H
	DB	090H
	DB	092H
	DB	090H
	DB	094H
	DB	090H
	DB	096H
	DB	090H
	DB	090H
	DB	090H
	DB	092H
	DB	090H
	DB	094H
	DB	090H
	DB	092H
	DB	090H
	DB	094H
	DB	090H
	DB	096H
	DB	090H
	DB	094H
	DB	090H
	DB	092H
	DB	090H
	DB	090H
	DB	090H
	DB	092H
	DB	090H
	DB	094H
	DB	090H
	DB	096H
	DB	090H
	DB	094H
	DB	090H
	DB	092H
	DB	090H
	DB	094H
	DB	090H
	DB	092H
	DB	090H
	DB	090H
	DB	090H
	DB	096H
	DB	090H
	DB	094H
	DB	090H
	DB	092H
	DB	090H
	DB	094H
	DB	090H
	DB	092H
	DB	090H
	DB	094H
	DB	090H
	DB	096H
	DB	090H
	DB	090H
	DB	090H
	DB	092H
	DB	090H
	DB	094H
	DB	090H
	DB	092H
	DB	090H
	DB	094H
	DB	090H
	DB	096H
	DB	090H
	DB	094H
	DB	090H
	DB	092H
	DB	090H
	DB	090H
	DB	090H
	DB	092H
	DB	090H
	DB	094H
	DB	090H
	DB	096H
	DB	090H
	DB	094H
	DB	090H
	DB	092H
	DB	090H
	DB	094H
	DB	090H
	DB	092H
	DB	090H
	DB	090H
	DB	090H
	DB	096H
	DB	090H
	DB	094H
	DB	090H
	DB	092H
	DB	090H
	DB	094H
	DB	090H
	DB	092H
	DB	090H
	DB	094H
	DB	090H
	DB	096H
	DB	090H
	DB	090H
	DB	090H
	DB	092H
	DB	090H
	DB	094H
	DB	090H
	DB	092H
	DB	090H
	DB	094H
	DB	090H
	DB	096H
	DB	090H
	DB	094H
	DB	090H
	DB	092H
	DB	090H
	DB	090H
	DB	090H
	DB	092H
	DB	090H
	DB	094H
	DB	090H
	DB	096H
	DB	090H
	DB	094H
	DB	090H
	DB	092H
	DB	090H
	DB	094H
	DB	090H
	DB	092H
	DB	090H
	DB	090H
	DB	090H
	DB	096H
	DB	090H
	DB	094H
	DB	090H
	DB	092H
	DB	090H
	DB	094H
	DB	090H
	DB	092H
	DB	090H
	DB	094H
	DB	090H
	DB	096H
	DB	090H
	DB	090H
	DB	090H
	DB	092H
	DB	090H
	DB	094H
	DB	090H
	DB	092H
	DB	090H
	DB	094H
	DB	090H
	DB	096H
	DB	090H
	DB	094H
	DB	090H
	DB	092H
	DB	090H
	DB	090H
	DB	090H
	DB	092H
	DB	090H
	DB	094H
	DB	090H
	DB	096H
	DB	090H
	DB	094H
	DB	090H
	DB	092H
	DB	090H
	DB	094H
	DB	090H
	DB	092H
	DB	090H
	DB	090H
	DB	090H
	DB	096H
	DB	090H
	DB	094H
	DB	090H
	DB	092H
	DB	090H
	DB	094H
	DB	090H
	DB	092H
	DB	090H
	DB	094H
	DB	090H
	DB	096H
	DB	090H
	DB	090H
	DB	090H
	DB	092H
	DB	090H
	DB	094H
	DB	090H
	DB	092H
	DB	090H
	DB	094H
	DB	090H
	DB	096H
	DB	090H
	DB	094H
	DB	090H
	DB	092H
	DB	090H
	DB	090H
	DB	090H
	DB	092H
	DB	090H
	DB	094H
	DB	090H
	DB	096H
	DB	090H
	DB	094H
	DB	090H
	DB	092H
	DB	090H
	DB	094H
	DB	090H
	DB	092H
	DB	090H
	DB	090H
	DB	090H
	DB	096H
	DB	090H
	DB	094H
	DB	090H
	DB	092H
	DB	090H
	DB	094H
	DB	090H
	DB	092H
	DB	090H
	DB	094H
	DB	090H
	DB	096H
	DB	090H
	DB	090H
	DB	090H
	DB	092H
	DB	090H
	DB	094H
	DB	090H
	DB	092H
	DB	090H
	DB	094H
	DB	090H
	DB	096H
	DB	090H
	DB	094H
	DB	090H
	DB	092H
	DB	090H
	DB	090H
	DB	090H
	DB	092H
	DB	090H
	DB	094H
	DB	090H
	DB	096H
	DB	090H
	DB	094H
	DB	090H
	DB	092H
	DB	090H
	DB	094H
	DB	090H
	DB	092H
	DB	090H
	DB	090H
	DB	090H
	DB	096H
	DB	090H
	DB	094H
	DB	090H
	DB	092H
	DB	090H
	DB	094H
	DB	090H
	DB	092H
	DB	090H
	DB	094H
	DB	090H
	DB	096H
	DB	090H
	DB	090H
	DB	090H
	DB	092H
	DB	090H
	DB	094H
	DB	090H
	DB	092H
	DB	090H
	DB	094H
	DB	090H
	DB	096H
	DB	090H
	DB	094H
	DB	090H
	DB	092H
	DB	090H
	DB	090H
	DB	090H
	DB	092H
	DB	090H
	DB	094H
	DB	090H
	DB	096H
	DB	090H
	DB	094H
	DB	090H
	DB	092H
	DB	090H
	DB	094H
	DB	090H
	DB	092H
	DB	090H
	DB	090H
	DB	090H
	DB	096H
	DB	090H
	DB	094H
	DB	090H
	DB	092H
	DB	090H
	DB	094H
	DB	090H
	DB	092H
	DB	090H
	DB	094H
	DB	090H
	DB	096H
	DB	090H
	DB	090H
	DB	090H
	DB	092H
	DB	090H
	DB	094H
	DB	090H
	DB	092H
	DB	090H
	DB	094H
	DB	090H
	DB	096H
	DB	090H
	DB	094H
	DB	090H
	DB	092H
	DB	090H
	DB	090H
	DB	090H
	DB	092H
	DB	090H
	DB	094H
	DB	090H
	DB	096H
	DB	090H
	DB	094H
	DB	090H
	DB	092H
	DB	090H
	DB	094H
	DB	090H
	DB	092H
	DB	090H
	DB	090H
	DB	090H
	DB	096H
	DB	090H
	DB	094H
	DB	090H
	DB	092H
	DB	090H
	DB	094H
	DB	090H
	DB	092H
	DB	090H
	DB	094H
	DB	090H
	DB	096H
	DB	090H
	DB	090H
	DB	090H
	DB	092H
	DB	090H
	DB	094H
	DB	090H
	DB	092H
	DB	090H
	DB	094H
	DB	090H
	DB	096H
	DB	090H
	DB	094H
	DB	090H
	DB	092H
	DB	090H
	DB	090H
	DB	090H
	DB	092H
	DB	090H
	DB	094H
	DB	090H
	DB	096H
	DB	090H
	DB	094H
	DB	090H
	DB	092H
	DB	090H
	DB	094H
	DB	090H
	DB	092H
	DB	090H
	DB	090H
	DB	090H
	DB	096H
	DB	090H
	DB	094H
	DB	090H
	DB	092H
	DB	090H
	DB	094H
	DB	090H
	DB	092H
	DB	090H
	DB	094H
	DB	090H
	DB	096H
	DB	090H
	DB	090H
	DB	090H
	DB	092H
	DB	090H
	DB	094H
	DB	090H
	DB	092H
	DB	090H
	DB	094H
	DB	090H
	DB	096H
	DB	090H
	DB	094H
	DB	090H
	DB	092H
	DB	090H
	DB	090H
	DB	090H
	DB	092H
	DB	090H
	DB	094H
	DB	090H
	DB	096H
	DB	090H
	DB	094H
	DB	090H
	DB	092H
	DB	090H
	DB	094H
	DB	090H
	DB	092H
	DB	090H
	DB	090H
	DB	090H
	DB	096H
	DB	090H
	DB	094H
	DB	090H
	DB	092H
	DB	090H
	DB	094H
	DB	090H
	DB	092H
	DB	090H
	DB	094H
	DB	090H
	DB	096H
	DB	090H
	DB	090H
	DB	090H
	DB	092H
	DB	090H
	DB	094H
	DB	090H
	DB	092H
	DB	090H
	DB	094H
	DB	090H
	DB	096H
	DB	090H
	DB	094H
	DB	090H
	DB	092H
	DB	090H
	DB	090H
	DB	090H
	DB	092H
	DB	090H
	DB	094H
	DB	090H
	DB	096H
	DB	090H
	DB	094H
	DB	090H
	DB	092H
	DB	090H
	DB	094H
	DB	090H
	DB	092H
	DB	090H
	DB	090H
	DB	090H
	DB	096H
	DB	090H
	DB	094H
	DB	090H
	DB	092H
	DB	090H
	DB	094H
	DB	090H
	DB	092H
	DB	090H
	DB	094H
	DB	090H
	DB	096H
	DB	090H
	DB	090H
	DB	090H
	DB	092H
	DB	090H
	DB	094H
	DB	090H
	DB	092H
	DB	090H
	DB	094H
	DB	090H
	DB	096H
	DB	090H
	DB	094H
	DB	090H
	DB	092H
	DB	090H
	DB	090H
	DB	090H
	DB	092H
	DB	090H
	DB	094H
	DB	090H
	DB	096H
	DB	090H
	DB	094H
	DB	090H
	DB	092H
	DB	090H
	DB	094H
	DB	090H
	DB	092H
	DB	090H
	DB	090H
	DB	090H
	DB	096H
	DB	090H
	DB	094H
	DB	090H
	DB	092H
	DB	090H
	DB	094H
	DB	090H
	DB	092H
	DB	090H
	DB	094H
	DB	090H
	DB	096H
	DB	090H
	DB	090H
	DB	090H
	DB	092H
	DB	090H
	DB	094H
	DB	090H
	DB	092H
	DB	090H
	DB	094H
	DB	090H
	DB	096H
	DB	090H
	DB	094H
	DB	090H
	DB	092H
	DB	090H
	DB	090H
	DB	090H
	DB	092H
	DB	090H
	DB	094H
	DB	090H
	DB	096H
	DB	090H
	DB	094H
	DB	090H
	DB	092H
	DB	090H
	DB	094H
	DB	090H
	DB	092H
	DB	090H
	DB	090H
	DB	090H
	DB	096H
	DB	090H
	DB	094H
	DB	090H
	DB	092H
	DB	090H
	DB	094H
	DB	090H
	DB	092H
	DB	090H
	DB	094H
	DB	090H
	DB	096H
	DB	090H
	DB	090H
	DB	090H
	DB	092H
	DB	090H
	DB	094H
	DB	090H
	DB	092H
	DB	090H
	DB	094H
	DB	090H
	DB	096H
	DB	090H
	DB	094H
	DB	090H
	DB	092H
	DB	090H
	DB	094H
	DB	090H
	DB	092H
	DB	090H
	DB	090H
	DB	090H
	DB	08eH
	DB	090H
	DB	088H
	DB	088H
	DB	05dH
	DB	080H
	DB	07cH
	DB	078H
	DB	04H
CONST	ENDS
END
