; Listing generated by Microsoft (R) Optimizing Compiler Version 19.27.29112.0 

	TITLE	D:\stm_gfx_hacktues_project\smart_home_v2\smart_home\TouchGFX\generated\images\src\__designer\image_Dark_Slider_Horizontal_Medium_Slider_Round_Edge_fill.cpp
	.686P
	.XMM
	include listing.inc
	.model	flat

INCLUDELIB MSVCRTD
INCLUDELIB OLDNAMES

PUBLIC	?image_dark_slider_horizontal_medium_slider_round_edge_fill@@3QBEB ; image_dark_slider_horizontal_medium_slider_round_edge_fill
CONST	SEGMENT
?image_dark_slider_horizontal_medium_slider_round_edge_fill@@3QBEB DB 00H ; image_dark_slider_horizontal_medium_slider_round_edge_fill
	DB	00H
	DB	00H
	DB	00H
	DB	00H
	DB	00H
	DB	00H
	DB	00H
	DB	00H
	DB	00H
	DB	00H
	DB	00H
	DB	00H
	DB	00H
	DB	00H
	DB	00H
	DB	00H
	DB	00H
	DB	00H
	DB	00H
	DB	00H
	DB	00H
	DB	00H
	DB	00H
	DB	00H
	DB	00H
	DB	00H
	DB	00H
	DB	00H
	DB	00H
	DB	00H
	DB	00H
	DB	00H
	DB	00H
	DB	00H
	DB	00H
	DB	00H
	DB	00H
	DB	00H
	DB	00H
	DB	00H
	DB	00H
	DB	00H
	DB	00H
	DB	00H
	DB	00H
	DB	00H
	DB	00H
	DB	00H
	DB	00H
	DB	00H
	DB	00H
	DB	00H
	DB	00H
	DB	00H
	DB	00H
	DB	00H
	DB	00H
	DB	00H
	DB	00H
	DB	00H
	DB	00H
	DB	00H
	DB	00H
	DB	00H
	DB	00H
	DB	00H
	DB	00H
	DB	00H
	DB	00H
	DB	00H
	DB	00H
	DB	00H
	DB	00H
	DB	00H
	DB	00H
	DB	00H
	DB	00H
	DB	00H
	DB	00H
	DB	00H
	DB	00H
	DB	00H
	DB	00H
	DB	00H
	DB	00H
	DB	00H
	DB	00H
	DB	00H
	DB	00H
	DB	00H
	DB	00H
	DB	00H
	DB	00H
	DB	00H
	DB	00H
	DB	00H
	DB	00H
	DB	00H
	DB	00H
	DB	00H
	DB	00H
	DB	00H
	DB	00H
	DB	00H
	DB	00H
	DB	00H
	DB	00H
	DB	00H
	DB	00H
	DB	00H
	DB	00H
	DB	00H
	DB	00H
	DB	00H
	DB	00H
	DB	00H
	DB	00H
	DB	00H
	DB	00H
	DB	00H
	DB	00H
	DB	00H
	DB	00H
	DB	00H
	DB	00H
	DB	00H
	DB	00H
	DB	00H
	DB	00H
	DB	00H
	DB	00H
	DB	00H
	DB	00H
	DB	00H
	DB	00H
	DB	00H
	DB	00H
	DB	00H
	DB	00H
	DB	00H
	DB	00H
	DB	00H
	DB	00H
	DB	00H
	DB	00H
	DB	00H
	DB	00H
	DB	00H
	DB	00H
	DB	00H
	DB	00H
	DB	00H
	DB	00H
	DB	00H
	DB	00H
	DB	00H
	DB	00H
	DB	00H
	DB	00H
	DB	00H
	DB	00H
	DB	00H
	DB	00H
	DB	00H
	DB	00H
	DB	00H
	DB	00H
	DB	00H
	DB	00H
	DB	00H
	DB	00H
	DB	00H
	DB	00H
	DB	00H
	DB	00H
	DB	00H
	DB	00H
	DB	00H
	DB	00H
	DB	00H
	DB	00H
	DB	00H
	DB	00H
	DB	00H
	DB	00H
	DB	00H
	DB	00H
	DB	00H
	DB	00H
	DB	00H
	DB	00H
	DB	00H
	DB	00H
	DB	00H
	DB	00H
	DB	00H
	DB	00H
	DB	00H
	DB	00H
	DB	00H
	DB	00H
	DB	00H
	DB	00H
	DB	00H
	DB	00H
	DB	00H
	DB	00H
	DB	00H
	DB	00H
	DB	00H
	DB	00H
	DB	00H
	DB	00H
	DB	00H
	DB	00H
	DB	00H
	DB	00H
	DB	00H
	DB	00H
	DB	00H
	DB	00H
	DB	00H
	DB	00H
	DB	00H
	DB	00H
	DB	00H
	DB	00H
	DB	00H
	DB	00H
	DB	00H
	DB	00H
	DB	00H
	DB	00H
	DB	00H
	DB	00H
	DB	00H
	DB	00H
	DB	00H
	DB	00H
	DB	00H
	DB	00H
	DB	00H
	DB	00H
	DB	00H
	DB	00H
	DB	00H
	DB	00H
	DB	00H
	DB	00H
	DB	00H
	DB	00H
	DB	00H
	DB	00H
	DB	00H
	DB	00H
	DB	00H
	DB	00H
	DB	00H
	DB	00H
	DB	00H
	DB	00H
	DB	00H
	DB	00H
	DB	00H
	DB	00H
	DB	00H
	DB	00H
	DB	00H
	DB	00H
	DB	00H
	DB	00H
	DB	00H
	DB	00H
	DB	00H
	DB	00H
	DB	00H
	DB	00H
	DB	00H
	DB	00H
	DB	00H
	DB	00H
	DB	00H
	DB	00H
	DB	00H
	DB	00H
	DB	00H
	DB	00H
	DB	00H
	DB	00H
	DB	00H
	DB	00H
	DB	00H
	DB	00H
	DB	00H
	DB	00H
	DB	00H
	DB	00H
	DB	00H
	DB	00H
	DB	00H
	DB	00H
	DB	00H
	DB	00H
	DB	00H
	DB	00H
	DB	00H
	DB	00H
	DB	00H
	DB	00H
	DB	00H
	DB	00H
	DB	00H
	DB	00H
	DB	00H
	DB	00H
	DB	00H
	DB	00H
	DB	00H
	DB	00H
	DB	00H
	DB	00H
	DB	00H
	DB	00H
	DB	00H
	DB	00H
	DB	00H
	DB	00H
	DB	00H
	DB	00H
	DB	00H
	DB	00H
	DB	00H
	DB	00H
	DB	00H
	DB	00H
	DB	00H
	DB	00H
	DB	00H
	DB	00H
	DB	00H
	DB	00H
	DB	00H
	DB	00H
	DB	00H
	DB	00H
	DB	00H
	DB	00H
	DB	00H
	DB	00H
	DB	00H
	DB	00H
	DB	00H
	DB	00H
	DB	00H
	DB	00H
	DB	00H
	DB	00H
	DB	00H
	DB	00H
	DB	00H
	DB	00H
	DB	00H
	DB	00H
	DB	00H
	DB	00H
	DB	00H
	DB	00H
	DB	00H
	DB	00H
	DB	00H
	DB	00H
	DB	00H
	DB	00H
	DB	00H
	DB	00H
	DB	00H
	DB	00H
	DB	00H
	DB	00H
	DB	00H
	DB	00H
	DB	00H
	DB	00H
	DB	00H
	DB	00H
	DB	00H
	DB	00H
	DB	00H
	DB	00H
	DB	00H
	DB	00H
	DB	00H
	DB	00H
	DB	00H
	DB	00H
	DB	00H
	DB	00H
	DB	00H
	DB	00H
	DB	00H
	DB	00H
	DB	00H
	DB	00H
	DB	00H
	DB	00H
	DB	00H
	DB	00H
	DB	00H
	DB	00H
	DB	00H
	DB	00H
	DB	00H
	DB	00H
	DB	00H
	DB	00H
	DB	00H
	DB	00H
	DB	00H
	DB	00H
	DB	00H
	DB	00H
	DB	00H
	DB	00H
	DB	00H
	DB	00H
	DB	00H
	DB	00H
	DB	00H
	DB	00H
	DB	00H
	DB	00H
	DB	00H
	DB	00H
	DB	00H
	DB	00H
	DB	00H
	DB	00H
	DB	00H
	DB	00H
	DB	00H
	DB	00H
	DB	00H
	DB	00H
	DB	00H
	DB	00H
	DB	00H
	DB	00H
	DB	00H
	DB	00H
	DB	00H
	DB	00H
	DB	00H
	DB	00H
	DB	00H
	DB	00H
	DB	00H
	DB	00H
	DB	00H
	DB	00H
	DB	00H
	DB	00H
	DB	00H
	DB	00H
	DB	00H
	DB	00H
	DB	00H
	DB	00H
	DB	00H
	DB	00H
	DB	00H
	DB	00H
	DB	00H
	DB	00H
	DB	00H
	DB	00H
	DB	00H
	DB	00H
	DB	00H
	DB	00H
	DB	00H
	DB	00H
	DB	00H
	DB	00H
	DB	00H
	DB	00H
	DB	00H
	DB	00H
	DB	00H
	DB	00H
	DB	00H
	DB	00H
	DB	00H
	DB	00H
	DB	00H
	DB	00H
	DB	00H
	DB	00H
	DB	00H
	DB	00H
	DB	00H
	DB	00H
	DB	00H
	DB	00H
	DB	00H
	DB	00H
	DB	00H
	DB	00H
	DB	00H
	DB	00H
	DB	00H
	DB	00H
	DB	00H
	DB	00H
	DB	00H
	DB	00H
	DB	00H
	DB	00H
	DB	00H
	DB	00H
	DB	00H
	DB	00H
	DB	00H
	DB	00H
	DB	00H
	DB	00H
	DB	00H
	DB	00H
	DB	00H
	DB	00H
	DB	00H
	DB	00H
	DB	00H
	DB	00H
	DB	00H
	DB	00H
	DB	00H
	DB	00H
	DB	00H
	DB	00H
	DB	00H
	DB	00H
	DB	00H
	DB	00H
	DB	00H
	DB	00H
	DB	00H
	DB	00H
	DB	00H
	DB	00H
	DB	00H
	DB	00H
	DB	00H
	DB	00H
	DB	00H
	DB	00H
	DB	00H
	DB	00H
	DB	00H
	DB	00H
	DB	00H
	DB	00H
	DB	00H
	DB	00H
	DB	00H
	DB	00H
	DB	00H
	DB	00H
	DB	00H
	DB	00H
	DB	00H
	DB	00H
	DB	00H
	DB	00H
	DB	00H
	DB	00H
	DB	00H
	DB	00H
	DB	00H
	DB	00H
	DB	00H
	DB	00H
	DB	00H
	DB	00H
	DB	00H
	DB	00H
	DB	00H
	DB	00H
	DB	00H
	DB	00H
	DB	00H
	DB	00H
	DB	00H
	DB	00H
	DB	00H
	DB	00H
	DB	00H
	DB	00H
	DB	00H
	DB	00H
	DB	00H
	DB	00H
	DB	00H
	DB	00H
	DB	00H
	DB	00H
	DB	00H
	DB	00H
	DB	00H
	DB	00H
	DB	00H
	DB	00H
	DB	00H
	DB	00H
	DB	00H
	DB	00H
	DB	00H
	DB	00H
	DB	00H
	DB	00H
	DB	00H
	DB	00H
	DB	00H
	DB	00H
	DB	00H
	DB	00H
	DB	00H
	DB	00H
	DB	00H
	DB	00H
	DB	00H
	DB	00H
	DB	00H
	DB	00H
	DB	00H
	DB	00H
	DB	00H
	DB	00H
	DB	00H
	DB	00H
	DB	00H
	DB	00H
	DB	00H
	DB	00H
	DB	00H
	DB	00H
	DB	00H
	DB	00H
	DB	00H
	DB	00H
	DB	00H
	DB	00H
	DB	00H
	DB	00H
	DB	00H
	DB	00H
	DB	00H
	DB	00H
	DB	00H
	DB	00H
	DB	00H
	DB	00H
	DB	00H
	DB	00H
	DB	00H
	DB	00H
	DB	00H
	DB	00H
	DB	00H
	DB	00H
	DB	00H
	DB	00H
	DB	00H
	DB	00H
	DB	00H
	DB	00H
	DB	00H
	DB	00H
	DB	00H
	DB	00H
	DB	00H
	DB	00H
	DB	00H
	DB	00H
	DB	00H
	DB	00H
	DB	00H
	DB	00H
	DB	00H
	DB	00H
	DB	00H
	DB	00H
	DB	00H
	DB	00H
	DB	00H
	DB	00H
	DB	00H
	DB	00H
	DB	00H
	DB	00H
	DB	00H
	DB	00H
	DB	00H
	DB	00H
	DB	00H
	DB	00H
	DB	00H
	DB	00H
	DB	00H
	DB	00H
	DB	00H
	DB	00H
	DB	00H
	DB	00H
	DB	00H
	DB	00H
	DB	00H
	DB	00H
	DB	00H
	DB	00H
	DB	00H
	DB	00H
	DB	00H
	DB	00H
	DB	00H
	DB	00H
	DB	00H
	DB	00H
	DB	00H
	DB	00H
	DB	00H
	DB	00H
	DB	00H
	DB	00H
	DB	00H
	DB	00H
	DB	00H
	DB	00H
	DB	00H
	DB	00H
	DB	00H
	DB	00H
	DB	00H
	DB	00H
	DB	00H
	DB	00H
	DB	00H
	DB	00H
	DB	00H
	DB	00H
	DB	00H
	DB	00H
	DB	00H
	DB	00H
	DB	00H
	DB	00H
	DB	00H
	DB	00H
	DB	00H
	DB	00H
	DB	00H
	DB	00H
	DB	00H
	DB	00H
	DB	00H
	DB	00H
	DB	00H
	DB	00H
	DB	00H
	DB	00H
	DB	00H
	DB	00H
	DB	00H
	DB	00H
	DB	00H
	DB	00H
	DB	00H
	DB	00H
	DB	00H
	DB	00H
	DB	00H
	DB	00H
	DB	00H
	DB	00H
	DB	00H
	DB	00H
	DB	00H
	DB	00H
	DB	00H
	DB	00H
	DB	00H
	DB	00H
	DB	00H
	DB	00H
	DB	00H
	DB	00H
	DB	00H
	DB	00H
	DB	00H
	DB	00H
	DB	00H
	DB	00H
	DB	00H
	DB	00H
	DB	00H
	DB	00H
	DB	00H
	DB	00H
	DB	00H
	DB	00H
	DB	00H
	DB	00H
	DB	00H
	DB	00H
	DB	00H
	DB	00H
	DB	00H
	DB	00H
	DB	00H
	DB	00H
	DB	00H
	DB	00H
	DB	00H
	DB	00H
	DB	00H
	DB	00H
	DB	00H
	DB	00H
	DB	00H
	DB	00H
	DB	00H
	DB	00H
	DB	00H
	DB	00H
	DB	00H
	DB	00H
	DB	00H
	DB	00H
	DB	00H
	DB	00H
	DB	00H
	DB	00H
	DB	00H
	DB	00H
	DB	00H
	DB	00H
	DB	00H
	DB	00H
	DB	00H
	DB	00H
	DB	00H
	DB	00H
	DB	00H
	DB	00H
	DB	00H
	DB	00H
	DB	00H
	DB	00H
	DB	00H
	DB	00H
	DB	00H
	DB	00H
	DB	00H
	DB	00H
	DB	00H
	DB	00H
	DB	00H
	DB	00H
	DB	00H
	DB	00H
	DB	00H
	DB	00H
	DB	00H
	DB	00H
	DB	00H
	DB	00H
	DB	00H
	DB	00H
	DB	00H
	DB	00H
	DB	00H
	DB	00H
	DB	00H
	DB	00H
	DB	00H
	DB	00H
	DB	00H
	DB	00H
	DB	00H
	DB	00H
	DB	00H
	DB	00H
	DB	00H
	DB	00H
	DB	00H
	DB	00H
	DB	00H
	DB	00H
	DB	00H
	DB	00H
	DB	00H
	DB	00H
	DB	00H
	DB	00H
	DB	00H
	DB	00H
	DB	00H
	DB	00H
	DB	00H
	DB	00H
	DB	00H
	DB	00H
	DB	00H
	DB	00H
	DB	00H
	DB	00H
	DB	00H
	DB	00H
	DB	00H
	DB	00H
	DB	00H
	DB	00H
	DB	00H
	DB	00H
	DB	00H
	DB	00H
	DB	00H
	DB	00H
	DB	00H
	DB	00H
	DB	00H
	DB	00H
	DB	00H
	DB	00H
	DB	00H
	DB	00H
	DB	00H
	DB	00H
	DB	00H
	DB	00H
	DB	00H
	DB	00H
	DB	00H
	DB	00H
	DB	00H
	DB	00H
	DB	00H
	DB	00H
	DB	00H
	DB	00H
	DB	00H
	DB	00H
	DB	00H
	DB	00H
	DB	00H
	DB	00H
	DB	00H
	DB	00H
	DB	00H
	DB	00H
	DB	00H
	DB	00H
	DB	00H
	DB	00H
	DB	00H
	DB	00H
	DB	00H
	DB	00H
	DB	00H
	DB	00H
	DB	00H
	DB	00H
	DB	00H
	DB	00H
	DB	00H
	DB	00H
	DB	00H
	DB	00H
	DB	00H
	DB	00H
	DB	00H
	DB	00H
	DB	00H
	DB	00H
	DB	00H
	DB	00H
	DB	00H
	DB	00H
	DB	00H
	DB	00H
	DB	00H
	DB	00H
	DB	00H
	DB	00H
	DB	00H
	DB	00H
	DB	00H
	DB	00H
	DB	00H
	DB	00H
	DB	00H
	DB	00H
	DB	00H
	DB	00H
	DB	00H
	DB	00H
	DB	00H
	DB	00H
	DB	00H
	DB	00H
	DB	00H
	DB	00H
	DB	00H
	DB	00H
	DB	00H
	DB	00H
	DB	00H
	DB	00H
	DB	00H
	DB	00H
	DB	00H
	DB	00H
	DB	00H
	DB	00H
	DB	00H
	DB	00H
	DB	00H
	DB	00H
	DB	00H
	DB	00H
	DB	00H
	DB	00H
	DB	00H
	DB	00H
	DB	00H
	DB	00H
	DB	00H
	DB	00H
	DB	00H
	DB	00H
	DB	00H
	DB	00H
	DB	00H
	DB	00H
	DB	00H
	DB	00H
	DB	00H
	DB	00H
	DB	00H
	DB	00H
	DB	00H
	DB	00H
	DB	00H
	DB	00H
	DB	00H
	DB	00H
	DB	00H
	DB	00H
	DB	00H
	DB	00H
	DB	00H
	DB	00H
	DB	00H
	DB	00H
	DB	00H
	DB	00H
	DB	00H
	DB	00H
	DB	00H
	DB	00H
	DB	00H
	DB	00H
	DB	00H
	DB	00H
	DB	00H
	DB	00H
	DB	00H
	DB	00H
	DB	00H
	DB	00H
	DB	00H
	DB	00H
	DB	00H
	DB	00H
	DB	00H
	DB	00H
	DB	00H
	DB	00H
	DB	00H
	DB	00H
	DB	00H
	DB	00H
	DB	00H
	DB	00H
	DB	00H
	DB	00H
	DB	00H
	DB	00H
	DB	00H
	DB	00H
	DB	00H
	DB	00H
	DB	00H
	DB	00H
	DB	00H
	DB	00H
	DB	00H
	DB	00H
	DB	00H
	DB	00H
	DB	00H
	DB	00H
	DB	00H
	DB	00H
	DB	00H
	DB	00H
	DB	00H
	DB	00H
	DB	00H
	DB	00H
	DB	00H
	DB	00H
	DB	00H
	DB	00H
	DB	00H
	DB	00H
	DB	00H
	DB	00H
	DB	00H
	DB	00H
	DB	00H
	DB	00H
	DB	00H
	DB	00H
	DB	00H
	DB	00H
	DB	00H
	DB	00H
	DB	00H
	DB	00H
	DB	00H
	DB	00H
	DB	00H
	DB	00H
	DB	00H
	DB	00H
	DB	00H
	DB	00H
	DB	00H
	DB	00H
	DB	00H
	DB	00H
	DB	00H
	DB	00H
	DB	00H
	DB	00H
	DB	00H
	DB	00H
	DB	00H
	DB	00H
	DB	00H
	DB	00H
	DB	00H
	DB	00H
	DB	00H
	DB	00H
	DB	00H
	DB	00H
	DB	00H
	DB	00H
	DB	00H
	DB	00H
	DB	00H
	DB	00H
	DB	00H
	DB	00H
	DB	00H
	DB	00H
	DB	00H
	DB	00H
	DB	00H
	DB	00H
	DB	00H
	DB	00H
	DB	00H
	DB	00H
	DB	00H
	DB	00H
	DB	00H
	DB	00H
	DB	00H
	DB	00H
	DB	00H
	DB	00H
	DB	00H
	DB	00H
	DB	00H
	DB	00H
	DB	00H
	DB	00H
	DB	00H
	DB	00H
	DB	00H
	DB	00H
	DB	00H
	DB	00H
	DB	00H
	DB	00H
	DB	00H
	DB	00H
	DB	00H
	DB	00H
	DB	00H
	DB	00H
	DB	00H
	DB	00H
	DB	00H
	DB	00H
	DB	00H
	DB	00H
	DB	00H
	DB	00H
	DB	00H
	DB	00H
	DB	00H
	DB	00H
	DB	00H
	DB	00H
	DB	00H
	DB	00H
	DB	00H
	DB	00H
	DB	00H
	DB	00H
	DB	00H
	DB	00H
	DB	00H
	DB	00H
	DB	00H
	DB	00H
	DB	00H
	DB	00H
	DB	00H
	DB	00H
	DB	00H
	DB	00H
	DB	00H
	DB	00H
	DB	00H
	DB	00H
	DB	00H
	DB	00H
	DB	00H
	DB	00H
	DB	00H
	DB	00H
	DB	00H
	DB	00H
	DB	00H
	DB	00H
	DB	00H
	DB	00H
	DB	00H
	DB	00H
	DB	00H
	DB	00H
	DB	00H
	DB	00H
	DB	00H
	DB	00H
	DB	00H
	DB	00H
	DB	00H
	DB	00H
	DB	00H
	DB	00H
	DB	00H
	DB	00H
	DB	00H
	DB	00H
	DB	00H
	DB	00H
	DB	00H
	DB	00H
	DB	00H
	DB	00H
	DB	00H
	DB	00H
	DB	00H
	DB	00H
	DB	00H
	DB	00H
	DB	00H
	DB	00H
	DB	00H
	DB	00H
	DB	00H
	DB	00H
	DB	00H
	DB	00H
	DB	00H
	DB	00H
	DB	00H
	DB	00H
	DB	00H
	DB	00H
	DB	00H
	DB	00H
	DB	00H
	DB	00H
	DB	00H
	DB	00H
	DB	00H
	DB	00H
	DB	00H
	DB	00H
	DB	00H
	DB	00H
	DB	00H
	DB	00H
	DB	00H
	DB	00H
	DB	00H
	DB	00H
	DB	00H
	DB	00H
	DB	00H
	DB	00H
	DB	00H
	DB	00H
	DB	00H
	DB	00H
	DB	00H
	DB	00H
	DB	00H
	DB	00H
	DB	00H
	DB	00H
	DB	00H
	DB	00H
	DB	00H
	DB	00H
	DB	00H
	DB	00H
	DB	00H
	DB	00H
	DB	00H
	DB	00H
	DB	00H
	DB	00H
	DB	00H
	DB	00H
	DB	00H
	DB	00H
	DB	00H
	DB	00H
	DB	00H
	DB	00H
	DB	00H
	DB	00H
	DB	00H
	DB	00H
	DB	00H
	DB	00H
	DB	00H
	DB	00H
	DB	00H
	DB	00H
	DB	00H
	DB	00H
	DB	00H
	DB	00H
	DB	00H
	DB	00H
	DB	00H
	DB	00H
	DB	00H
	DB	00H
	DB	00H
	DB	00H
	DB	00H
	DB	00H
	DB	00H
	DB	00H
	DB	00H
	DB	00H
	DB	00H
	DB	00H
	DB	00H
	DB	00H
	DB	00H
	DB	00H
	DB	00H
	DB	00H
	DB	00H
	DB	00H
	DB	00H
	DB	00H
	DB	00H
	DB	00H
	DB	00H
	DB	00H
	DB	00H
	DB	00H
	DB	00H
	DB	00H
	DB	00H
	DB	00H
	DB	00H
	DB	00H
	DB	00H
	DB	00H
	DB	078H
	DB	078H
	DB	078H
	DB	049H
	DB	078H
	DB	078H
	DB	078H
	DB	0e7H
	DB	078H
	DB	07cH
	DB	078H
	DB	0ffH
	DB	078H
	DB	078H
	DB	078H
	DB	0ffH
	DB	078H
	DB	078H
	DB	078H
	DB	0ffH
	DB	078H
	DB	07cH
	DB	078H
	DB	0ffH
	DB	078H
	DB	078H
	DB	078H
	DB	0ffH
	DB	078H
	DB	078H
	DB	078H
	DB	0ffH
	DB	078H
	DB	07cH
	DB	078H
	DB	0ffH
	DB	078H
	DB	078H
	DB	078H
	DB	0ffH
	DB	078H
	DB	078H
	DB	078H
	DB	0ffH
	DB	078H
	DB	07cH
	DB	078H
	DB	0ffH
	DB	078H
	DB	078H
	DB	078H
	DB	0ffH
	DB	078H
	DB	078H
	DB	078H
	DB	0ffH
	DB	078H
	DB	07cH
	DB	078H
	DB	0ffH
	DB	078H
	DB	078H
	DB	078H
	DB	0ffH
	DB	078H
	DB	078H
	DB	078H
	DB	0ffH
	DB	078H
	DB	07cH
	DB	078H
	DB	0ffH
	DB	078H
	DB	078H
	DB	078H
	DB	0ffH
	DB	078H
	DB	078H
	DB	078H
	DB	0ffH
	DB	078H
	DB	07cH
	DB	078H
	DB	0ffH
	DB	078H
	DB	078H
	DB	078H
	DB	0ffH
	DB	078H
	DB	078H
	DB	078H
	DB	0ffH
	DB	078H
	DB	07cH
	DB	078H
	DB	0ffH
	DB	078H
	DB	078H
	DB	078H
	DB	0ffH
	DB	078H
	DB	078H
	DB	078H
	DB	0ffH
	DB	078H
	DB	07cH
	DB	078H
	DB	0ffH
	DB	078H
	DB	078H
	DB	078H
	DB	0ffH
	DB	078H
	DB	078H
	DB	078H
	DB	0ffH
	DB	078H
	DB	07cH
	DB	078H
	DB	0ffH
	DB	078H
	DB	078H
	DB	078H
	DB	0ffH
	DB	078H
	DB	078H
	DB	078H
	DB	0ffH
	DB	078H
	DB	07cH
	DB	078H
	DB	0ffH
	DB	078H
	DB	078H
	DB	078H
	DB	0ffH
	DB	078H
	DB	078H
	DB	078H
	DB	0ffH
	DB	078H
	DB	07cH
	DB	078H
	DB	0ffH
	DB	078H
	DB	078H
	DB	078H
	DB	0ffH
	DB	078H
	DB	078H
	DB	078H
	DB	0ffH
	DB	078H
	DB	07cH
	DB	078H
	DB	0ffH
	DB	078H
	DB	078H
	DB	078H
	DB	0ffH
	DB	078H
	DB	078H
	DB	078H
	DB	0ffH
	DB	078H
	DB	07cH
	DB	078H
	DB	0ffH
	DB	078H
	DB	078H
	DB	078H
	DB	0ffH
	DB	078H
	DB	078H
	DB	078H
	DB	0ffH
	DB	078H
	DB	07cH
	DB	078H
	DB	0ffH
	DB	078H
	DB	078H
	DB	078H
	DB	0ffH
	DB	078H
	DB	078H
	DB	078H
	DB	0ffH
	DB	078H
	DB	07cH
	DB	078H
	DB	0ffH
	DB	078H
	DB	078H
	DB	078H
	DB	0ffH
	DB	078H
	DB	078H
	DB	078H
	DB	0ffH
	DB	078H
	DB	07cH
	DB	078H
	DB	0ffH
	DB	078H
	DB	078H
	DB	078H
	DB	0ffH
	DB	078H
	DB	078H
	DB	078H
	DB	0ffH
	DB	078H
	DB	07cH
	DB	078H
	DB	0ffH
	DB	078H
	DB	078H
	DB	078H
	DB	0ffH
	DB	078H
	DB	078H
	DB	078H
	DB	0ffH
	DB	078H
	DB	07cH
	DB	078H
	DB	0ffH
	DB	078H
	DB	078H
	DB	078H
	DB	0ffH
	DB	078H
	DB	078H
	DB	078H
	DB	0ffH
	DB	078H
	DB	07cH
	DB	078H
	DB	0ffH
	DB	078H
	DB	078H
	DB	078H
	DB	0ffH
	DB	078H
	DB	078H
	DB	078H
	DB	0ffH
	DB	078H
	DB	07cH
	DB	078H
	DB	0ffH
	DB	078H
	DB	078H
	DB	078H
	DB	0ffH
	DB	078H
	DB	078H
	DB	078H
	DB	0ffH
	DB	078H
	DB	07cH
	DB	078H
	DB	0ffH
	DB	078H
	DB	078H
	DB	078H
	DB	0ffH
	DB	078H
	DB	078H
	DB	078H
	DB	0ffH
	DB	078H
	DB	07cH
	DB	078H
	DB	0ffH
	DB	078H
	DB	078H
	DB	078H
	DB	0ffH
	DB	078H
	DB	078H
	DB	078H
	DB	0ffH
	DB	078H
	DB	07cH
	DB	078H
	DB	0ffH
	DB	078H
	DB	078H
	DB	078H
	DB	0ffH
	DB	078H
	DB	078H
	DB	078H
	DB	0ffH
	DB	078H
	DB	07cH
	DB	078H
	DB	0ffH
	DB	078H
	DB	078H
	DB	078H
	DB	0ffH
	DB	078H
	DB	078H
	DB	078H
	DB	0ffH
	DB	078H
	DB	07cH
	DB	078H
	DB	0ffH
	DB	078H
	DB	078H
	DB	078H
	DB	0ffH
	DB	078H
	DB	078H
	DB	078H
	DB	0ffH
	DB	078H
	DB	07cH
	DB	078H
	DB	0ffH
	DB	078H
	DB	078H
	DB	078H
	DB	0ffH
	DB	078H
	DB	078H
	DB	078H
	DB	0ffH
	DB	078H
	DB	07cH
	DB	078H
	DB	0ffH
	DB	078H
	DB	078H
	DB	078H
	DB	0ffH
	DB	078H
	DB	078H
	DB	078H
	DB	0ffH
	DB	078H
	DB	07cH
	DB	078H
	DB	0ffH
	DB	078H
	DB	078H
	DB	078H
	DB	0ffH
	DB	078H
	DB	078H
	DB	078H
	DB	0ffH
	DB	078H
	DB	07cH
	DB	078H
	DB	0ffH
	DB	078H
	DB	078H
	DB	078H
	DB	0ffH
	DB	078H
	DB	078H
	DB	078H
	DB	0ffH
	DB	078H
	DB	07cH
	DB	078H
	DB	0ffH
	DB	078H
	DB	078H
	DB	078H
	DB	0ffH
	DB	078H
	DB	078H
	DB	078H
	DB	0ffH
	DB	078H
	DB	07cH
	DB	078H
	DB	0ffH
	DB	078H
	DB	078H
	DB	078H
	DB	0ffH
	DB	078H
	DB	078H
	DB	078H
	DB	0ffH
	DB	078H
	DB	07cH
	DB	078H
	DB	0ffH
	DB	078H
	DB	078H
	DB	078H
	DB	0ffH
	DB	078H
	DB	078H
	DB	078H
	DB	0ffH
	DB	078H
	DB	07cH
	DB	078H
	DB	0ffH
	DB	078H
	DB	078H
	DB	078H
	DB	0ffH
	DB	078H
	DB	078H
	DB	078H
	DB	0ffH
	DB	078H
	DB	07cH
	DB	078H
	DB	0ffH
	DB	078H
	DB	078H
	DB	078H
	DB	0ffH
	DB	078H
	DB	078H
	DB	078H
	DB	0ffH
	DB	078H
	DB	07cH
	DB	078H
	DB	0ffH
	DB	078H
	DB	078H
	DB	078H
	DB	0ffH
	DB	078H
	DB	078H
	DB	078H
	DB	0ffH
	DB	078H
	DB	07cH
	DB	078H
	DB	0ffH
	DB	078H
	DB	078H
	DB	078H
	DB	0ffH
	DB	078H
	DB	078H
	DB	078H
	DB	0ffH
	DB	078H
	DB	07cH
	DB	078H
	DB	0ffH
	DB	078H
	DB	078H
	DB	078H
	DB	0ffH
	DB	078H
	DB	078H
	DB	078H
	DB	0ffH
	DB	078H
	DB	07cH
	DB	078H
	DB	0ffH
	DB	078H
	DB	078H
	DB	078H
	DB	0ffH
	DB	078H
	DB	078H
	DB	078H
	DB	0ffH
	DB	078H
	DB	07cH
	DB	078H
	DB	0ffH
	DB	078H
	DB	078H
	DB	078H
	DB	0ffH
	DB	078H
	DB	078H
	DB	078H
	DB	0ffH
	DB	078H
	DB	07cH
	DB	078H
	DB	0ffH
	DB	078H
	DB	078H
	DB	078H
	DB	0ffH
	DB	078H
	DB	078H
	DB	078H
	DB	0ffH
	DB	078H
	DB	07cH
	DB	078H
	DB	0ffH
	DB	078H
	DB	078H
	DB	078H
	DB	0ffH
	DB	078H
	DB	078H
	DB	078H
	DB	0ffH
	DB	078H
	DB	07cH
	DB	078H
	DB	0ffH
	DB	078H
	DB	078H
	DB	078H
	DB	0ffH
	DB	078H
	DB	078H
	DB	078H
	DB	0ffH
	DB	078H
	DB	07cH
	DB	078H
	DB	0ffH
	DB	078H
	DB	078H
	DB	078H
	DB	0ffH
	DB	078H
	DB	078H
	DB	078H
	DB	0ffH
	DB	078H
	DB	07cH
	DB	078H
	DB	0ffH
	DB	078H
	DB	078H
	DB	078H
	DB	0ffH
	DB	078H
	DB	078H
	DB	078H
	DB	0ffH
	DB	078H
	DB	07cH
	DB	078H
	DB	0ffH
	DB	078H
	DB	078H
	DB	078H
	DB	0ffH
	DB	078H
	DB	078H
	DB	078H
	DB	0ffH
	DB	078H
	DB	07cH
	DB	078H
	DB	0ffH
	DB	078H
	DB	078H
	DB	078H
	DB	0ffH
	DB	078H
	DB	078H
	DB	078H
	DB	0ffH
	DB	078H
	DB	07cH
	DB	078H
	DB	0ffH
	DB	078H
	DB	078H
	DB	078H
	DB	0ffH
	DB	078H
	DB	078H
	DB	078H
	DB	0ffH
	DB	078H
	DB	07cH
	DB	078H
	DB	0ffH
	DB	078H
	DB	078H
	DB	078H
	DB	0ffH
	DB	078H
	DB	078H
	DB	078H
	DB	0ffH
	DB	078H
	DB	07cH
	DB	078H
	DB	0ffH
	DB	078H
	DB	078H
	DB	078H
	DB	0ffH
	DB	078H
	DB	078H
	DB	078H
	DB	0ffH
	DB	078H
	DB	07cH
	DB	078H
	DB	0ffH
	DB	078H
	DB	078H
	DB	078H
	DB	0ffH
	DB	078H
	DB	078H
	DB	078H
	DB	0ffH
	DB	078H
	DB	07cH
	DB	078H
	DB	0ffH
	DB	078H
	DB	078H
	DB	078H
	DB	0ffH
	DB	078H
	DB	078H
	DB	078H
	DB	0ffH
	DB	078H
	DB	07cH
	DB	078H
	DB	0ffH
	DB	078H
	DB	078H
	DB	078H
	DB	0ffH
	DB	078H
	DB	078H
	DB	078H
	DB	0ffH
	DB	078H
	DB	07cH
	DB	078H
	DB	0ffH
	DB	078H
	DB	078H
	DB	078H
	DB	0ffH
	DB	078H
	DB	078H
	DB	078H
	DB	0ffH
	DB	078H
	DB	07cH
	DB	078H
	DB	0ffH
	DB	078H
	DB	078H
	DB	078H
	DB	0ffH
	DB	078H
	DB	078H
	DB	078H
	DB	0ffH
	DB	078H
	DB	07cH
	DB	078H
	DB	0ffH
	DB	078H
	DB	078H
	DB	078H
	DB	0ffH
	DB	078H
	DB	078H
	DB	078H
	DB	0ffH
	DB	078H
	DB	07cH
	DB	078H
	DB	0ffH
	DB	078H
	DB	078H
	DB	078H
	DB	0ffH
	DB	078H
	DB	078H
	DB	078H
	DB	0ffH
	DB	078H
	DB	07cH
	DB	078H
	DB	0ffH
	DB	078H
	DB	078H
	DB	078H
	DB	0ffH
	DB	078H
	DB	078H
	DB	078H
	DB	0ffH
	DB	078H
	DB	07cH
	DB	078H
	DB	0ffH
	DB	078H
	DB	078H
	DB	078H
	DB	0ffH
	DB	078H
	DB	078H
	DB	078H
	DB	0ffH
	DB	078H
	DB	07cH
	DB	078H
	DB	0ffH
	DB	078H
	DB	078H
	DB	078H
	DB	0ffH
	DB	078H
	DB	078H
	DB	078H
	DB	0ffH
	DB	078H
	DB	07cH
	DB	078H
	DB	0ffH
	DB	078H
	DB	078H
	DB	078H
	DB	0ffH
	DB	078H
	DB	078H
	DB	078H
	DB	0ffH
	DB	078H
	DB	07cH
	DB	078H
	DB	0ffH
	DB	078H
	DB	078H
	DB	078H
	DB	0ffH
	DB	078H
	DB	078H
	DB	078H
	DB	0ffH
	DB	078H
	DB	07cH
	DB	078H
	DB	0ffH
	DB	078H
	DB	078H
	DB	078H
	DB	0ffH
	DB	078H
	DB	078H
	DB	078H
	DB	0ffH
	DB	078H
	DB	07cH
	DB	078H
	DB	0ffH
	DB	078H
	DB	078H
	DB	078H
	DB	0ffH
	DB	078H
	DB	078H
	DB	078H
	DB	0ffH
	DB	078H
	DB	07cH
	DB	078H
	DB	0ffH
	DB	078H
	DB	078H
	DB	078H
	DB	0ffH
	DB	078H
	DB	078H
	DB	078H
	DB	0ffH
	DB	078H
	DB	07cH
	DB	078H
	DB	0ffH
	DB	078H
	DB	078H
	DB	078H
	DB	0ffH
	DB	078H
	DB	078H
	DB	078H
	DB	0ffH
	DB	078H
	DB	07cH
	DB	078H
	DB	0ffH
	DB	078H
	DB	078H
	DB	078H
	DB	0ffH
	DB	078H
	DB	078H
	DB	078H
	DB	0ffH
	DB	078H
	DB	07cH
	DB	078H
	DB	0ffH
	DB	078H
	DB	078H
	DB	078H
	DB	0ffH
	DB	078H
	DB	078H
	DB	078H
	DB	0ffH
	DB	078H
	DB	07cH
	DB	078H
	DB	0ffH
	DB	078H
	DB	078H
	DB	078H
	DB	0ffH
	DB	078H
	DB	078H
	DB	078H
	DB	0ffH
	DB	078H
	DB	07cH
	DB	078H
	DB	0ffH
	DB	078H
	DB	078H
	DB	078H
	DB	0ffH
	DB	078H
	DB	078H
	DB	078H
	DB	0ffH
	DB	078H
	DB	07cH
	DB	078H
	DB	0ffH
	DB	078H
	DB	078H
	DB	078H
	DB	0ffH
	DB	078H
	DB	078H
	DB	078H
	DB	0ffH
	DB	078H
	DB	07cH
	DB	078H
	DB	0ffH
	DB	078H
	DB	078H
	DB	078H
	DB	0ffH
	DB	078H
	DB	078H
	DB	078H
	DB	0ffH
	DB	078H
	DB	07cH
	DB	078H
	DB	0ffH
	DB	078H
	DB	078H
	DB	078H
	DB	0ffH
	DB	078H
	DB	078H
	DB	078H
	DB	0ffH
	DB	078H
	DB	07cH
	DB	078H
	DB	0ffH
	DB	078H
	DB	078H
	DB	078H
	DB	0ffH
	DB	078H
	DB	078H
	DB	078H
	DB	0ffH
	DB	078H
	DB	07cH
	DB	078H
	DB	0ffH
	DB	078H
	DB	078H
	DB	078H
	DB	0ffH
	DB	078H
	DB	078H
	DB	078H
	DB	0ffH
	DB	078H
	DB	07cH
	DB	078H
	DB	0ffH
	DB	078H
	DB	078H
	DB	078H
	DB	0ffH
	DB	078H
	DB	078H
	DB	078H
	DB	0ffH
	DB	078H
	DB	07cH
	DB	078H
	DB	0ffH
	DB	078H
	DB	078H
	DB	078H
	DB	0ffH
	DB	078H
	DB	078H
	DB	078H
	DB	0ffH
	DB	078H
	DB	07cH
	DB	078H
	DB	0ffH
	DB	078H
	DB	078H
	DB	078H
	DB	0ffH
	DB	078H
	DB	078H
	DB	078H
	DB	0ffH
	DB	078H
	DB	07cH
	DB	078H
	DB	0ffH
	DB	078H
	DB	078H
	DB	078H
	DB	0ffH
	DB	078H
	DB	078H
	DB	078H
	DB	0ffH
	DB	078H
	DB	07cH
	DB	078H
	DB	0ffH
	DB	078H
	DB	078H
	DB	078H
	DB	0ffH
	DB	078H
	DB	078H
	DB	078H
	DB	0ffH
	DB	078H
	DB	07cH
	DB	078H
	DB	0ffH
	DB	078H
	DB	078H
	DB	078H
	DB	0ffH
	DB	078H
	DB	078H
	DB	078H
	DB	0ffH
	DB	078H
	DB	07cH
	DB	078H
	DB	0ffH
	DB	078H
	DB	078H
	DB	078H
	DB	0ffH
	DB	078H
	DB	078H
	DB	078H
	DB	0ffH
	DB	078H
	DB	07cH
	DB	078H
	DB	0ffH
	DB	078H
	DB	078H
	DB	078H
	DB	0ffH
	DB	078H
	DB	078H
	DB	078H
	DB	0ffH
	DB	078H
	DB	07cH
	DB	078H
	DB	0ffH
	DB	078H
	DB	078H
	DB	078H
	DB	0ffH
	DB	078H
	DB	078H
	DB	078H
	DB	0ffH
	DB	078H
	DB	07cH
	DB	078H
	DB	0ffH
	DB	078H
	DB	078H
	DB	078H
	DB	0ffH
	DB	078H
	DB	078H
	DB	078H
	DB	0ffH
	DB	078H
	DB	07cH
	DB	078H
	DB	0ffH
	DB	078H
	DB	078H
	DB	078H
	DB	0ffH
	DB	078H
	DB	078H
	DB	078H
	DB	0ffH
	DB	078H
	DB	07cH
	DB	078H
	DB	0ffH
	DB	078H
	DB	078H
	DB	078H
	DB	0ffH
	DB	078H
	DB	078H
	DB	078H
	DB	0ffH
	DB	078H
	DB	07cH
	DB	078H
	DB	0ffH
	DB	078H
	DB	078H
	DB	078H
	DB	0ffH
	DB	078H
	DB	078H
	DB	078H
	DB	0ffH
	DB	078H
	DB	07cH
	DB	078H
	DB	0ffH
	DB	078H
	DB	078H
	DB	078H
	DB	0ffH
	DB	078H
	DB	078H
	DB	078H
	DB	0ffH
	DB	078H
	DB	07cH
	DB	078H
	DB	0ffH
	DB	078H
	DB	078H
	DB	078H
	DB	0ffH
	DB	078H
	DB	078H
	DB	078H
	DB	0ffH
	DB	078H
	DB	07cH
	DB	078H
	DB	0ffH
	DB	078H
	DB	078H
	DB	078H
	DB	0ffH
	DB	078H
	DB	078H
	DB	078H
	DB	0ffH
	DB	078H
	DB	07cH
	DB	078H
	DB	0ffH
	DB	078H
	DB	078H
	DB	078H
	DB	0ffH
	DB	078H
	DB	078H
	DB	078H
	DB	0ffH
	DB	078H
	DB	07cH
	DB	078H
	DB	0ffH
	DB	078H
	DB	078H
	DB	078H
	DB	0ffH
	DB	078H
	DB	078H
	DB	078H
	DB	0ffH
	DB	078H
	DB	07cH
	DB	078H
	DB	0ffH
	DB	078H
	DB	078H
	DB	078H
	DB	0ffH
	DB	078H
	DB	078H
	DB	078H
	DB	0ffH
	DB	078H
	DB	07cH
	DB	078H
	DB	0ffH
	DB	078H
	DB	078H
	DB	078H
	DB	0ffH
	DB	078H
	DB	078H
	DB	078H
	DB	0ffH
	DB	078H
	DB	07cH
	DB	078H
	DB	0ffH
	DB	078H
	DB	078H
	DB	078H
	DB	0ffH
	DB	078H
	DB	078H
	DB	078H
	DB	0ffH
	DB	078H
	DB	07cH
	DB	078H
	DB	0ffH
	DB	078H
	DB	078H
	DB	078H
	DB	0ffH
	DB	078H
	DB	078H
	DB	078H
	DB	0ffH
	DB	078H
	DB	07cH
	DB	078H
	DB	0ffH
	DB	078H
	DB	078H
	DB	078H
	DB	0ffH
	DB	078H
	DB	078H
	DB	078H
	DB	0ffH
	DB	078H
	DB	07cH
	DB	078H
	DB	0ffH
	DB	078H
	DB	078H
	DB	078H
	DB	0ffH
	DB	078H
	DB	078H
	DB	078H
	DB	0ffH
	DB	078H
	DB	07cH
	DB	078H
	DB	0ffH
	DB	078H
	DB	078H
	DB	078H
	DB	0ffH
	DB	078H
	DB	078H
	DB	078H
	DB	0ffH
	DB	078H
	DB	07cH
	DB	078H
	DB	0ffH
	DB	078H
	DB	078H
	DB	078H
	DB	0ffH
	DB	078H
	DB	078H
	DB	078H
	DB	0ffH
	DB	078H
	DB	07cH
	DB	078H
	DB	0ffH
	DB	078H
	DB	078H
	DB	078H
	DB	0ffH
	DB	078H
	DB	078H
	DB	078H
	DB	0ffH
	DB	078H
	DB	07cH
	DB	078H
	DB	0ffH
	DB	078H
	DB	078H
	DB	078H
	DB	0ffH
	DB	078H
	DB	078H
	DB	078H
	DB	0ffH
	DB	078H
	DB	07cH
	DB	078H
	DB	0ffH
	DB	078H
	DB	078H
	DB	078H
	DB	0ffH
	DB	078H
	DB	078H
	DB	078H
	DB	0ffH
	DB	078H
	DB	07cH
	DB	078H
	DB	0ffH
	DB	078H
	DB	078H
	DB	078H
	DB	0ffH
	DB	078H
	DB	078H
	DB	078H
	DB	0ffH
	DB	078H
	DB	07cH
	DB	078H
	DB	0ffH
	DB	078H
	DB	078H
	DB	078H
	DB	0ffH
	DB	078H
	DB	078H
	DB	078H
	DB	0ffH
	DB	078H
	DB	07cH
	DB	078H
	DB	0ffH
	DB	078H
	DB	078H
	DB	078H
	DB	0ffH
	DB	078H
	DB	078H
	DB	078H
	DB	0ffH
	DB	078H
	DB	07cH
	DB	078H
	DB	0ffH
	DB	078H
	DB	078H
	DB	078H
	DB	0ffH
	DB	078H
	DB	078H
	DB	078H
	DB	0ffH
	DB	078H
	DB	07cH
	DB	078H
	DB	0ffH
	DB	078H
	DB	078H
	DB	078H
	DB	0ffH
	DB	078H
	DB	078H
	DB	078H
	DB	0ffH
	DB	078H
	DB	07cH
	DB	078H
	DB	0ffH
	DB	078H
	DB	078H
	DB	078H
	DB	0ffH
	DB	078H
	DB	078H
	DB	078H
	DB	0ffH
	DB	078H
	DB	07cH
	DB	078H
	DB	0ffH
	DB	078H
	DB	078H
	DB	078H
	DB	0ffH
	DB	078H
	DB	078H
	DB	078H
	DB	0ffH
	DB	078H
	DB	07cH
	DB	078H
	DB	0ffH
	DB	078H
	DB	078H
	DB	078H
	DB	0ffH
	DB	078H
	DB	078H
	DB	078H
	DB	0ffH
	DB	078H
	DB	07cH
	DB	078H
	DB	0ffH
	DB	078H
	DB	078H
	DB	078H
	DB	0ffH
	DB	078H
	DB	078H
	DB	078H
	DB	0ffH
	DB	078H
	DB	07cH
	DB	078H
	DB	0ffH
	DB	078H
	DB	078H
	DB	078H
	DB	0ffH
	DB	078H
	DB	078H
	DB	078H
	DB	0ffH
	DB	078H
	DB	07cH
	DB	078H
	DB	0ffH
	DB	078H
	DB	078H
	DB	078H
	DB	0ffH
	DB	078H
	DB	078H
	DB	078H
	DB	0ffH
	DB	078H
	DB	07cH
	DB	078H
	DB	0ffH
	DB	078H
	DB	078H
	DB	078H
	DB	0e7H
	DB	078H
	DB	078H
	DB	078H
	DB	049H
	DB	00H
	DB	00H
	DB	00H
	DB	00H
	DB	00H
	DB	00H
	DB	00H
	DB	00H
	DB	088H
	DB	088H
	DB	088H
	DB	0e7H
	DB	088H
	DB	088H
	DB	088H
	DB	0ffH
	DB	088H
	DB	088H
	DB	088H
	DB	0ffH
	DB	088H
	DB	088H
	DB	088H
	DB	0ffH
	DB	088H
	DB	088H
	DB	088H
	DB	0ffH
	DB	088H
	DB	088H
	DB	088H
	DB	0ffH
	DB	088H
	DB	088H
	DB	088H
	DB	0ffH
	DB	088H
	DB	088H
	DB	088H
	DB	0ffH
	DB	088H
	DB	088H
	DB	088H
	DB	0ffH
	DB	088H
	DB	088H
	DB	088H
	DB	0ffH
	DB	088H
	DB	088H
	DB	088H
	DB	0ffH
	DB	088H
	DB	088H
	DB	088H
	DB	0ffH
	DB	088H
	DB	088H
	DB	088H
	DB	0ffH
	DB	088H
	DB	088H
	DB	088H
	DB	0ffH
	DB	088H
	DB	088H
	DB	088H
	DB	0ffH
	DB	088H
	DB	088H
	DB	088H
	DB	0ffH
	DB	088H
	DB	088H
	DB	088H
	DB	0ffH
	DB	088H
	DB	088H
	DB	088H
	DB	0ffH
	DB	088H
	DB	088H
	DB	088H
	DB	0ffH
	DB	088H
	DB	088H
	DB	088H
	DB	0ffH
	DB	088H
	DB	088H
	DB	088H
	DB	0ffH
	DB	088H
	DB	088H
	DB	088H
	DB	0ffH
	DB	088H
	DB	088H
	DB	088H
	DB	0ffH
	DB	088H
	DB	088H
	DB	088H
	DB	0ffH
	DB	088H
	DB	088H
	DB	088H
	DB	0ffH
	DB	088H
	DB	088H
	DB	088H
	DB	0ffH
	DB	088H
	DB	088H
	DB	088H
	DB	0ffH
	DB	088H
	DB	088H
	DB	088H
	DB	0ffH
	DB	088H
	DB	088H
	DB	088H
	DB	0ffH
	DB	088H
	DB	088H
	DB	088H
	DB	0ffH
	DB	088H
	DB	088H
	DB	088H
	DB	0ffH
	DB	088H
	DB	088H
	DB	088H
	DB	0ffH
	DB	088H
	DB	088H
	DB	088H
	DB	0ffH
	DB	088H
	DB	088H
	DB	088H
	DB	0ffH
	DB	088H
	DB	088H
	DB	088H
	DB	0ffH
	DB	088H
	DB	088H
	DB	088H
	DB	0ffH
	DB	088H
	DB	088H
	DB	088H
	DB	0ffH
	DB	088H
	DB	088H
	DB	088H
	DB	0ffH
	DB	088H
	DB	088H
	DB	088H
	DB	0ffH
	DB	088H
	DB	088H
	DB	088H
	DB	0ffH
	DB	088H
	DB	088H
	DB	088H
	DB	0ffH
	DB	088H
	DB	088H
	DB	088H
	DB	0ffH
	DB	088H
	DB	088H
	DB	088H
	DB	0ffH
	DB	088H
	DB	088H
	DB	088H
	DB	0ffH
	DB	088H
	DB	088H
	DB	088H
	DB	0ffH
	DB	088H
	DB	088H
	DB	088H
	DB	0ffH
	DB	088H
	DB	088H
	DB	088H
	DB	0ffH
	DB	088H
	DB	088H
	DB	088H
	DB	0ffH
	DB	088H
	DB	088H
	DB	088H
	DB	0ffH
	DB	088H
	DB	088H
	DB	088H
	DB	0ffH
	DB	088H
	DB	088H
	DB	088H
	DB	0ffH
	DB	088H
	DB	088H
	DB	088H
	DB	0ffH
	DB	088H
	DB	088H
	DB	088H
	DB	0ffH
	DB	088H
	DB	088H
	DB	088H
	DB	0ffH
	DB	088H
	DB	088H
	DB	088H
	DB	0ffH
	DB	088H
	DB	088H
	DB	088H
	DB	0ffH
	DB	088H
	DB	088H
	DB	088H
	DB	0ffH
	DB	088H
	DB	088H
	DB	088H
	DB	0ffH
	DB	088H
	DB	088H
	DB	088H
	DB	0ffH
	DB	088H
	DB	088H
	DB	088H
	DB	0ffH
	DB	088H
	DB	088H
	DB	088H
	DB	0ffH
	DB	088H
	DB	088H
	DB	088H
	DB	0ffH
	DB	088H
	DB	088H
	DB	088H
	DB	0ffH
	DB	088H
	DB	088H
	DB	088H
	DB	0ffH
	DB	088H
	DB	088H
	DB	088H
	DB	0ffH
	DB	088H
	DB	088H
	DB	088H
	DB	0ffH
	DB	088H
	DB	088H
	DB	088H
	DB	0ffH
	DB	088H
	DB	088H
	DB	088H
	DB	0ffH
	DB	088H
	DB	088H
	DB	088H
	DB	0ffH
	DB	088H
	DB	088H
	DB	088H
	DB	0ffH
	DB	088H
	DB	088H
	DB	088H
	DB	0ffH
	DB	088H
	DB	088H
	DB	088H
	DB	0ffH
	DB	088H
	DB	088H
	DB	088H
	DB	0ffH
	DB	088H
	DB	088H
	DB	088H
	DB	0ffH
	DB	088H
	DB	088H
	DB	088H
	DB	0ffH
	DB	088H
	DB	088H
	DB	088H
	DB	0ffH
	DB	088H
	DB	088H
	DB	088H
	DB	0ffH
	DB	088H
	DB	088H
	DB	088H
	DB	0ffH
	DB	088H
	DB	088H
	DB	088H
	DB	0ffH
	DB	088H
	DB	088H
	DB	088H
	DB	0ffH
	DB	088H
	DB	088H
	DB	088H
	DB	0ffH
	DB	088H
	DB	088H
	DB	088H
	DB	0ffH
	DB	088H
	DB	088H
	DB	088H
	DB	0ffH
	DB	088H
	DB	088H
	DB	088H
	DB	0ffH
	DB	088H
	DB	088H
	DB	088H
	DB	0ffH
	DB	088H
	DB	088H
	DB	088H
	DB	0ffH
	DB	088H
	DB	088H
	DB	088H
	DB	0ffH
	DB	088H
	DB	088H
	DB	088H
	DB	0ffH
	DB	088H
	DB	088H
	DB	088H
	DB	0ffH
	DB	088H
	DB	088H
	DB	088H
	DB	0ffH
	DB	088H
	DB	088H
	DB	088H
	DB	0ffH
	DB	088H
	DB	088H
	DB	088H
	DB	0ffH
	DB	088H
	DB	088H
	DB	088H
	DB	0ffH
	DB	088H
	DB	088H
	DB	088H
	DB	0ffH
	DB	088H
	DB	088H
	DB	088H
	DB	0ffH
	DB	088H
	DB	088H
	DB	088H
	DB	0ffH
	DB	088H
	DB	088H
	DB	088H
	DB	0ffH
	DB	088H
	DB	088H
	DB	088H
	DB	0ffH
	DB	088H
	DB	088H
	DB	088H
	DB	0ffH
	DB	088H
	DB	088H
	DB	088H
	DB	0ffH
	DB	088H
	DB	088H
	DB	088H
	DB	0ffH
	DB	088H
	DB	088H
	DB	088H
	DB	0ffH
	DB	088H
	DB	088H
	DB	088H
	DB	0ffH
	DB	088H
	DB	088H
	DB	088H
	DB	0ffH
	DB	088H
	DB	088H
	DB	088H
	DB	0ffH
	DB	088H
	DB	088H
	DB	088H
	DB	0ffH
	DB	088H
	DB	088H
	DB	088H
	DB	0ffH
	DB	088H
	DB	088H
	DB	088H
	DB	0ffH
	DB	088H
	DB	088H
	DB	088H
	DB	0ffH
	DB	088H
	DB	088H
	DB	088H
	DB	0ffH
	DB	088H
	DB	088H
	DB	088H
	DB	0ffH
	DB	088H
	DB	088H
	DB	088H
	DB	0ffH
	DB	088H
	DB	088H
	DB	088H
	DB	0ffH
	DB	088H
	DB	088H
	DB	088H
	DB	0ffH
	DB	088H
	DB	088H
	DB	088H
	DB	0ffH
	DB	088H
	DB	088H
	DB	088H
	DB	0ffH
	DB	088H
	DB	088H
	DB	088H
	DB	0ffH
	DB	088H
	DB	088H
	DB	088H
	DB	0ffH
	DB	088H
	DB	088H
	DB	088H
	DB	0ffH
	DB	088H
	DB	088H
	DB	088H
	DB	0ffH
	DB	088H
	DB	088H
	DB	088H
	DB	0ffH
	DB	088H
	DB	088H
	DB	088H
	DB	0ffH
	DB	088H
	DB	088H
	DB	088H
	DB	0ffH
	DB	088H
	DB	088H
	DB	088H
	DB	0ffH
	DB	088H
	DB	088H
	DB	088H
	DB	0ffH
	DB	088H
	DB	088H
	DB	088H
	DB	0ffH
	DB	088H
	DB	088H
	DB	088H
	DB	0ffH
	DB	088H
	DB	088H
	DB	088H
	DB	0ffH
	DB	088H
	DB	088H
	DB	088H
	DB	0ffH
	DB	088H
	DB	088H
	DB	088H
	DB	0ffH
	DB	088H
	DB	088H
	DB	088H
	DB	0ffH
	DB	088H
	DB	088H
	DB	088H
	DB	0ffH
	DB	088H
	DB	088H
	DB	088H
	DB	0ffH
	DB	088H
	DB	088H
	DB	088H
	DB	0ffH
	DB	088H
	DB	088H
	DB	088H
	DB	0ffH
	DB	088H
	DB	088H
	DB	088H
	DB	0ffH
	DB	088H
	DB	088H
	DB	088H
	DB	0ffH
	DB	088H
	DB	088H
	DB	088H
	DB	0ffH
	DB	088H
	DB	088H
	DB	088H
	DB	0ffH
	DB	088H
	DB	088H
	DB	088H
	DB	0ffH
	DB	088H
	DB	088H
	DB	088H
	DB	0ffH
	DB	088H
	DB	088H
	DB	088H
	DB	0ffH
	DB	088H
	DB	088H
	DB	088H
	DB	0ffH
	DB	088H
	DB	088H
	DB	088H
	DB	0ffH
	DB	088H
	DB	088H
	DB	088H
	DB	0ffH
	DB	088H
	DB	088H
	DB	088H
	DB	0ffH
	DB	088H
	DB	088H
	DB	088H
	DB	0ffH
	DB	088H
	DB	088H
	DB	088H
	DB	0ffH
	DB	088H
	DB	088H
	DB	088H
	DB	0ffH
	DB	088H
	DB	088H
	DB	088H
	DB	0ffH
	DB	088H
	DB	088H
	DB	088H
	DB	0ffH
	DB	088H
	DB	088H
	DB	088H
	DB	0ffH
	DB	088H
	DB	088H
	DB	088H
	DB	0ffH
	DB	088H
	DB	088H
	DB	088H
	DB	0ffH
	DB	088H
	DB	088H
	DB	088H
	DB	0ffH
	DB	088H
	DB	088H
	DB	088H
	DB	0ffH
	DB	088H
	DB	088H
	DB	088H
	DB	0ffH
	DB	088H
	DB	088H
	DB	088H
	DB	0ffH
	DB	088H
	DB	088H
	DB	088H
	DB	0ffH
	DB	088H
	DB	088H
	DB	088H
	DB	0ffH
	DB	088H
	DB	088H
	DB	088H
	DB	0ffH
	DB	088H
	DB	088H
	DB	088H
	DB	0ffH
	DB	088H
	DB	088H
	DB	088H
	DB	0ffH
	DB	088H
	DB	088H
	DB	088H
	DB	0ffH
	DB	088H
	DB	088H
	DB	088H
	DB	0ffH
	DB	088H
	DB	088H
	DB	088H
	DB	0ffH
	DB	088H
	DB	088H
	DB	088H
	DB	0ffH
	DB	088H
	DB	088H
	DB	088H
	DB	0ffH
	DB	088H
	DB	088H
	DB	088H
	DB	0ffH
	DB	088H
	DB	088H
	DB	088H
	DB	0ffH
	DB	088H
	DB	088H
	DB	088H
	DB	0ffH
	DB	088H
	DB	088H
	DB	088H
	DB	0ffH
	DB	088H
	DB	088H
	DB	088H
	DB	0ffH
	DB	088H
	DB	088H
	DB	088H
	DB	0ffH
	DB	088H
	DB	088H
	DB	088H
	DB	0ffH
	DB	088H
	DB	088H
	DB	088H
	DB	0ffH
	DB	088H
	DB	088H
	DB	088H
	DB	0ffH
	DB	088H
	DB	088H
	DB	088H
	DB	0ffH
	DB	088H
	DB	088H
	DB	088H
	DB	0ffH
	DB	088H
	DB	088H
	DB	088H
	DB	0ffH
	DB	088H
	DB	088H
	DB	088H
	DB	0ffH
	DB	088H
	DB	088H
	DB	088H
	DB	0ffH
	DB	088H
	DB	088H
	DB	088H
	DB	0ffH
	DB	088H
	DB	088H
	DB	088H
	DB	0ffH
	DB	088H
	DB	088H
	DB	088H
	DB	0ffH
	DB	088H
	DB	088H
	DB	088H
	DB	0ffH
	DB	088H
	DB	088H
	DB	088H
	DB	0ffH
	DB	088H
	DB	088H
	DB	088H
	DB	0ffH
	DB	088H
	DB	088H
	DB	088H
	DB	0ffH
	DB	088H
	DB	088H
	DB	088H
	DB	0ffH
	DB	088H
	DB	088H
	DB	088H
	DB	0ffH
	DB	088H
	DB	088H
	DB	088H
	DB	0ffH
	DB	088H
	DB	088H
	DB	088H
	DB	0ffH
	DB	088H
	DB	088H
	DB	088H
	DB	0ffH
	DB	088H
	DB	088H
	DB	088H
	DB	0ffH
	DB	088H
	DB	088H
	DB	088H
	DB	0ffH
	DB	088H
	DB	088H
	DB	088H
	DB	0ffH
	DB	088H
	DB	088H
	DB	088H
	DB	0ffH
	DB	088H
	DB	088H
	DB	088H
	DB	0ffH
	DB	088H
	DB	088H
	DB	088H
	DB	0ffH
	DB	088H
	DB	088H
	DB	088H
	DB	0ffH
	DB	088H
	DB	088H
	DB	088H
	DB	0ffH
	DB	088H
	DB	088H
	DB	088H
	DB	0ffH
	DB	088H
	DB	088H
	DB	088H
	DB	0ffH
	DB	088H
	DB	088H
	DB	088H
	DB	0ffH
	DB	088H
	DB	088H
	DB	088H
	DB	0ffH
	DB	088H
	DB	088H
	DB	088H
	DB	0ffH
	DB	088H
	DB	088H
	DB	088H
	DB	0ffH
	DB	088H
	DB	088H
	DB	088H
	DB	0ffH
	DB	088H
	DB	088H
	DB	088H
	DB	0ffH
	DB	088H
	DB	088H
	DB	088H
	DB	0ffH
	DB	088H
	DB	088H
	DB	088H
	DB	0ffH
	DB	088H
	DB	088H
	DB	088H
	DB	0ffH
	DB	088H
	DB	088H
	DB	088H
	DB	0ffH
	DB	088H
	DB	088H
	DB	088H
	DB	0ffH
	DB	088H
	DB	088H
	DB	088H
	DB	0ffH
	DB	088H
	DB	088H
	DB	088H
	DB	0ffH
	DB	088H
	DB	088H
	DB	088H
	DB	0ffH
	DB	088H
	DB	088H
	DB	088H
	DB	0ffH
	DB	088H
	DB	088H
	DB	088H
	DB	0ffH
	DB	088H
	DB	088H
	DB	088H
	DB	0ffH
	DB	088H
	DB	088H
	DB	088H
	DB	0ffH
	DB	088H
	DB	088H
	DB	088H
	DB	0ffH
	DB	088H
	DB	088H
	DB	088H
	DB	0ffH
	DB	088H
	DB	088H
	DB	088H
	DB	0ffH
	DB	088H
	DB	088H
	DB	088H
	DB	0ffH
	DB	088H
	DB	088H
	DB	088H
	DB	0ffH
	DB	088H
	DB	088H
	DB	088H
	DB	0ffH
	DB	088H
	DB	088H
	DB	088H
	DB	0ffH
	DB	088H
	DB	088H
	DB	088H
	DB	0ffH
	DB	088H
	DB	088H
	DB	088H
	DB	0ffH
	DB	088H
	DB	088H
	DB	088H
	DB	0ffH
	DB	088H
	DB	088H
	DB	088H
	DB	0ffH
	DB	088H
	DB	088H
	DB	088H
	DB	0ffH
	DB	088H
	DB	088H
	DB	088H
	DB	0ffH
	DB	088H
	DB	088H
	DB	088H
	DB	0ffH
	DB	088H
	DB	088H
	DB	088H
	DB	0ffH
	DB	088H
	DB	088H
	DB	088H
	DB	0ffH
	DB	088H
	DB	088H
	DB	088H
	DB	0ffH
	DB	088H
	DB	088H
	DB	088H
	DB	0ffH
	DB	088H
	DB	088H
	DB	088H
	DB	0ffH
	DB	088H
	DB	088H
	DB	088H
	DB	0ffH
	DB	088H
	DB	088H
	DB	088H
	DB	0ffH
	DB	088H
	DB	088H
	DB	088H
	DB	0ffH
	DB	088H
	DB	088H
	DB	088H
	DB	0ffH
	DB	088H
	DB	088H
	DB	088H
	DB	0ffH
	DB	088H
	DB	088H
	DB	088H
	DB	0ffH
	DB	088H
	DB	088H
	DB	088H
	DB	0ffH
	DB	088H
	DB	088H
	DB	088H
	DB	0ffH
	DB	088H
	DB	088H
	DB	088H
	DB	0ffH
	DB	088H
	DB	088H
	DB	088H
	DB	0ffH
	DB	088H
	DB	088H
	DB	088H
	DB	0ffH
	DB	088H
	DB	088H
	DB	088H
	DB	0ffH
	DB	088H
	DB	088H
	DB	088H
	DB	0ffH
	DB	088H
	DB	088H
	DB	088H
	DB	0ffH
	DB	088H
	DB	088H
	DB	088H
	DB	0ffH
	DB	088H
	DB	088H
	DB	088H
	DB	0ffH
	DB	088H
	DB	088H
	DB	088H
	DB	0ffH
	DB	088H
	DB	088H
	DB	088H
	DB	0ffH
	DB	088H
	DB	088H
	DB	088H
	DB	0ffH
	DB	088H
	DB	088H
	DB	088H
	DB	0ffH
	DB	088H
	DB	088H
	DB	088H
	DB	0ffH
	DB	088H
	DB	088H
	DB	088H
	DB	0ffH
	DB	088H
	DB	088H
	DB	088H
	DB	0ffH
	DB	088H
	DB	088H
	DB	088H
	DB	0ffH
	DB	088H
	DB	088H
	DB	088H
	DB	0ffH
	DB	088H
	DB	088H
	DB	088H
	DB	0ffH
	DB	088H
	DB	088H
	DB	088H
	DB	0ffH
	DB	088H
	DB	088H
	DB	088H
	DB	0ffH
	DB	088H
	DB	088H
	DB	088H
	DB	0ffH
	DB	088H
	DB	088H
	DB	088H
	DB	0ffH
	DB	088H
	DB	088H
	DB	088H
	DB	0ffH
	DB	088H
	DB	088H
	DB	088H
	DB	0ffH
	DB	088H
	DB	088H
	DB	088H
	DB	0ffH
	DB	088H
	DB	088H
	DB	088H
	DB	0ffH
	DB	088H
	DB	088H
	DB	088H
	DB	0ffH
	DB	088H
	DB	088H
	DB	088H
	DB	0ffH
	DB	088H
	DB	088H
	DB	088H
	DB	0ffH
	DB	088H
	DB	088H
	DB	088H
	DB	0ffH
	DB	088H
	DB	088H
	DB	088H
	DB	0ffH
	DB	088H
	DB	088H
	DB	088H
	DB	0ffH
	DB	088H
	DB	088H
	DB	088H
	DB	0ffH
	DB	088H
	DB	088H
	DB	088H
	DB	0ffH
	DB	088H
	DB	088H
	DB	088H
	DB	0ffH
	DB	088H
	DB	088H
	DB	088H
	DB	0ffH
	DB	088H
	DB	088H
	DB	088H
	DB	0ffH
	DB	088H
	DB	088H
	DB	088H
	DB	0ffH
	DB	088H
	DB	088H
	DB	088H
	DB	0ffH
	DB	088H
	DB	088H
	DB	088H
	DB	0ffH
	DB	088H
	DB	088H
	DB	088H
	DB	0ffH
	DB	088H
	DB	088H
	DB	088H
	DB	0ffH
	DB	088H
	DB	088H
	DB	088H
	DB	0ffH
	DB	088H
	DB	088H
	DB	088H
	DB	0ffH
	DB	088H
	DB	088H
	DB	088H
	DB	0ffH
	DB	088H
	DB	088H
	DB	088H
	DB	0ffH
	DB	088H
	DB	088H
	DB	088H
	DB	0ffH
	DB	088H
	DB	088H
	DB	088H
	DB	0ffH
	DB	088H
	DB	088H
	DB	088H
	DB	0ffH
	DB	088H
	DB	088H
	DB	088H
	DB	0ffH
	DB	088H
	DB	088H
	DB	088H
	DB	0ffH
	DB	088H
	DB	088H
	DB	088H
	DB	0ffH
	DB	088H
	DB	088H
	DB	088H
	DB	0ffH
	DB	088H
	DB	088H
	DB	088H
	DB	0ffH
	DB	088H
	DB	088H
	DB	088H
	DB	0ffH
	DB	088H
	DB	088H
	DB	088H
	DB	0ffH
	DB	088H
	DB	088H
	DB	088H
	DB	0ffH
	DB	088H
	DB	088H
	DB	088H
	DB	0ffH
	DB	088H
	DB	088H
	DB	088H
	DB	0ffH
	DB	088H
	DB	088H
	DB	088H
	DB	0ffH
	DB	088H
	DB	088H
	DB	088H
	DB	0ffH
	DB	088H
	DB	088H
	DB	088H
	DB	0ffH
	DB	088H
	DB	088H
	DB	088H
	DB	0ffH
	DB	088H
	DB	088H
	DB	088H
	DB	0ffH
	DB	088H
	DB	088H
	DB	088H
	DB	0ffH
	DB	088H
	DB	088H
	DB	088H
	DB	0ffH
	DB	088H
	DB	088H
	DB	088H
	DB	0ffH
	DB	088H
	DB	088H
	DB	088H
	DB	0ffH
	DB	088H
	DB	088H
	DB	088H
	DB	0ffH
	DB	088H
	DB	088H
	DB	088H
	DB	0ffH
	DB	088H
	DB	088H
	DB	088H
	DB	0ffH
	DB	088H
	DB	088H
	DB	088H
	DB	0ffH
	DB	088H
	DB	088H
	DB	088H
	DB	0ffH
	DB	088H
	DB	088H
	DB	088H
	DB	0ffH
	DB	088H
	DB	088H
	DB	088H
	DB	0ffH
	DB	088H
	DB	088H
	DB	088H
	DB	0ffH
	DB	088H
	DB	088H
	DB	088H
	DB	0ffH
	DB	088H
	DB	088H
	DB	088H
	DB	0ffH
	DB	088H
	DB	088H
	DB	088H
	DB	0ffH
	DB	088H
	DB	088H
	DB	088H
	DB	0ffH
	DB	088H
	DB	088H
	DB	088H
	DB	0ffH
	DB	088H
	DB	088H
	DB	088H
	DB	0ffH
	DB	088H
	DB	088H
	DB	088H
	DB	0ffH
	DB	088H
	DB	088H
	DB	088H
	DB	0ffH
	DB	088H
	DB	088H
	DB	088H
	DB	0ffH
	DB	088H
	DB	088H
	DB	088H
	DB	0ffH
	DB	088H
	DB	088H
	DB	088H
	DB	0ffH
	DB	088H
	DB	088H
	DB	088H
	DB	0ffH
	DB	088H
	DB	088H
	DB	088H
	DB	0ffH
	DB	088H
	DB	088H
	DB	088H
	DB	0ffH
	DB	088H
	DB	088H
	DB	088H
	DB	0ffH
	DB	088H
	DB	088H
	DB	088H
	DB	0ffH
	DB	088H
	DB	088H
	DB	088H
	DB	0ffH
	DB	088H
	DB	088H
	DB	088H
	DB	0ffH
	DB	088H
	DB	088H
	DB	088H
	DB	0ffH
	DB	088H
	DB	088H
	DB	088H
	DB	0ffH
	DB	088H
	DB	088H
	DB	088H
	DB	0ffH
	DB	088H
	DB	088H
	DB	088H
	DB	0ffH
	DB	088H
	DB	088H
	DB	088H
	DB	0ffH
	DB	088H
	DB	088H
	DB	088H
	DB	0ffH
	DB	088H
	DB	088H
	DB	088H
	DB	0e7H
	DB	00H
	DB	00H
	DB	00H
	DB	00H
	DB	00H
	DB	00H
	DB	00H
	DB	00H
	DB	088H
	DB	088H
	DB	088H
	DB	0ffH
	DB	088H
	DB	088H
	DB	088H
	DB	0ffH
	DB	088H
	DB	088H
	DB	088H
	DB	0ffH
	DB	088H
	DB	088H
	DB	088H
	DB	0ffH
	DB	088H
	DB	088H
	DB	088H
	DB	0ffH
	DB	088H
	DB	088H
	DB	088H
	DB	0ffH
	DB	088H
	DB	088H
	DB	088H
	DB	0ffH
	DB	088H
	DB	088H
	DB	088H
	DB	0ffH
	DB	088H
	DB	088H
	DB	088H
	DB	0ffH
	DB	088H
	DB	088H
	DB	088H
	DB	0ffH
	DB	088H
	DB	088H
	DB	088H
	DB	0ffH
	DB	088H
	DB	088H
	DB	088H
	DB	0ffH
	DB	088H
	DB	088H
	DB	088H
	DB	0ffH
	DB	088H
	DB	088H
	DB	088H
	DB	0ffH
	DB	088H
	DB	088H
	DB	088H
	DB	0ffH
	DB	088H
	DB	088H
	DB	088H
	DB	0ffH
	DB	088H
	DB	088H
	DB	088H
	DB	0ffH
	DB	088H
	DB	088H
	DB	088H
	DB	0ffH
	DB	088H
	DB	088H
	DB	088H
	DB	0ffH
	DB	088H
	DB	088H
	DB	088H
	DB	0ffH
	DB	088H
	DB	088H
	DB	088H
	DB	0ffH
	DB	088H
	DB	088H
	DB	088H
	DB	0ffH
	DB	088H
	DB	088H
	DB	088H
	DB	0ffH
	DB	088H
	DB	088H
	DB	088H
	DB	0ffH
	DB	088H
	DB	088H
	DB	088H
	DB	0ffH
	DB	088H
	DB	088H
	DB	088H
	DB	0ffH
	DB	088H
	DB	088H
	DB	088H
	DB	0ffH
	DB	088H
	DB	088H
	DB	088H
	DB	0ffH
	DB	088H
	DB	088H
	DB	088H
	DB	0ffH
	DB	088H
	DB	088H
	DB	088H
	DB	0ffH
	DB	088H
	DB	088H
	DB	088H
	DB	0ffH
	DB	088H
	DB	088H
	DB	088H
	DB	0ffH
	DB	088H
	DB	088H
	DB	088H
	DB	0ffH
	DB	088H
	DB	088H
	DB	088H
	DB	0ffH
	DB	088H
	DB	088H
	DB	088H
	DB	0ffH
	DB	088H
	DB	088H
	DB	088H
	DB	0ffH
	DB	088H
	DB	088H
	DB	088H
	DB	0ffH
	DB	088H
	DB	088H
	DB	088H
	DB	0ffH
	DB	088H
	DB	088H
	DB	088H
	DB	0ffH
	DB	088H
	DB	088H
	DB	088H
	DB	0ffH
	DB	088H
	DB	088H
	DB	088H
	DB	0ffH
	DB	088H
	DB	088H
	DB	088H
	DB	0ffH
	DB	088H
	DB	088H
	DB	088H
	DB	0ffH
	DB	088H
	DB	088H
	DB	088H
	DB	0ffH
	DB	088H
	DB	088H
	DB	088H
	DB	0ffH
	DB	088H
	DB	088H
	DB	088H
	DB	0ffH
	DB	088H
	DB	088H
	DB	088H
	DB	0ffH
	DB	088H
	DB	088H
	DB	088H
	DB	0ffH
	DB	088H
	DB	088H
	DB	088H
	DB	0ffH
	DB	088H
	DB	088H
	DB	088H
	DB	0ffH
	DB	088H
	DB	088H
	DB	088H
	DB	0ffH
	DB	088H
	DB	088H
	DB	088H
	DB	0ffH
	DB	088H
	DB	088H
	DB	088H
	DB	0ffH
	DB	088H
	DB	088H
	DB	088H
	DB	0ffH
	DB	088H
	DB	088H
	DB	088H
	DB	0ffH
	DB	088H
	DB	088H
	DB	088H
	DB	0ffH
	DB	088H
	DB	088H
	DB	088H
	DB	0ffH
	DB	088H
	DB	088H
	DB	088H
	DB	0ffH
	DB	088H
	DB	088H
	DB	088H
	DB	0ffH
	DB	088H
	DB	088H
	DB	088H
	DB	0ffH
	DB	088H
	DB	088H
	DB	088H
	DB	0ffH
	DB	088H
	DB	088H
	DB	088H
	DB	0ffH
	DB	088H
	DB	088H
	DB	088H
	DB	0ffH
	DB	088H
	DB	088H
	DB	088H
	DB	0ffH
	DB	088H
	DB	088H
	DB	088H
	DB	0ffH
	DB	088H
	DB	088H
	DB	088H
	DB	0ffH
	DB	088H
	DB	088H
	DB	088H
	DB	0ffH
	DB	088H
	DB	088H
	DB	088H
	DB	0ffH
	DB	088H
	DB	088H
	DB	088H
	DB	0ffH
	DB	088H
	DB	088H
	DB	088H
	DB	0ffH
	DB	088H
	DB	088H
	DB	088H
	DB	0ffH
	DB	088H
	DB	088H
	DB	088H
	DB	0ffH
	DB	088H
	DB	088H
	DB	088H
	DB	0ffH
	DB	088H
	DB	088H
	DB	088H
	DB	0ffH
	DB	088H
	DB	088H
	DB	088H
	DB	0ffH
	DB	088H
	DB	088H
	DB	088H
	DB	0ffH
	DB	088H
	DB	088H
	DB	088H
	DB	0ffH
	DB	088H
	DB	088H
	DB	088H
	DB	0ffH
	DB	088H
	DB	088H
	DB	088H
	DB	0ffH
	DB	088H
	DB	088H
	DB	088H
	DB	0ffH
	DB	088H
	DB	088H
	DB	088H
	DB	0ffH
	DB	088H
	DB	088H
	DB	088H
	DB	0ffH
	DB	088H
	DB	088H
	DB	088H
	DB	0ffH
	DB	088H
	DB	088H
	DB	088H
	DB	0ffH
	DB	088H
	DB	088H
	DB	088H
	DB	0ffH
	DB	088H
	DB	088H
	DB	088H
	DB	0ffH
	DB	088H
	DB	088H
	DB	088H
	DB	0ffH
	DB	088H
	DB	088H
	DB	088H
	DB	0ffH
	DB	088H
	DB	088H
	DB	088H
	DB	0ffH
	DB	088H
	DB	088H
	DB	088H
	DB	0ffH
	DB	088H
	DB	088H
	DB	088H
	DB	0ffH
	DB	088H
	DB	088H
	DB	088H
	DB	0ffH
	DB	088H
	DB	088H
	DB	088H
	DB	0ffH
	DB	088H
	DB	088H
	DB	088H
	DB	0ffH
	DB	088H
	DB	088H
	DB	088H
	DB	0ffH
	DB	088H
	DB	088H
	DB	088H
	DB	0ffH
	DB	088H
	DB	088H
	DB	088H
	DB	0ffH
	DB	088H
	DB	088H
	DB	088H
	DB	0ffH
	DB	088H
	DB	088H
	DB	088H
	DB	0ffH
	DB	088H
	DB	088H
	DB	088H
	DB	0ffH
	DB	088H
	DB	088H
	DB	088H
	DB	0ffH
	DB	088H
	DB	088H
	DB	088H
	DB	0ffH
	DB	088H
	DB	088H
	DB	088H
	DB	0ffH
	DB	088H
	DB	088H
	DB	088H
	DB	0ffH
	DB	088H
	DB	088H
	DB	088H
	DB	0ffH
	DB	088H
	DB	088H
	DB	088H
	DB	0ffH
	DB	088H
	DB	088H
	DB	088H
	DB	0ffH
	DB	088H
	DB	088H
	DB	088H
	DB	0ffH
	DB	088H
	DB	088H
	DB	088H
	DB	0ffH
	DB	088H
	DB	088H
	DB	088H
	DB	0ffH
	DB	088H
	DB	088H
	DB	088H
	DB	0ffH
	DB	088H
	DB	088H
	DB	088H
	DB	0ffH
	DB	088H
	DB	088H
	DB	088H
	DB	0ffH
	DB	088H
	DB	088H
	DB	088H
	DB	0ffH
	DB	088H
	DB	088H
	DB	088H
	DB	0ffH
	DB	088H
	DB	088H
	DB	088H
	DB	0ffH
	DB	088H
	DB	088H
	DB	088H
	DB	0ffH
	DB	088H
	DB	088H
	DB	088H
	DB	0ffH
	DB	088H
	DB	088H
	DB	088H
	DB	0ffH
	DB	088H
	DB	088H
	DB	088H
	DB	0ffH
	DB	088H
	DB	088H
	DB	088H
	DB	0ffH
	DB	088H
	DB	088H
	DB	088H
	DB	0ffH
	DB	088H
	DB	088H
	DB	088H
	DB	0ffH
	DB	088H
	DB	088H
	DB	088H
	DB	0ffH
	DB	088H
	DB	088H
	DB	088H
	DB	0ffH
	DB	088H
	DB	088H
	DB	088H
	DB	0ffH
	DB	088H
	DB	088H
	DB	088H
	DB	0ffH
	DB	088H
	DB	088H
	DB	088H
	DB	0ffH
	DB	088H
	DB	088H
	DB	088H
	DB	0ffH
	DB	088H
	DB	088H
	DB	088H
	DB	0ffH
	DB	088H
	DB	088H
	DB	088H
	DB	0ffH
	DB	088H
	DB	088H
	DB	088H
	DB	0ffH
	DB	088H
	DB	088H
	DB	088H
	DB	0ffH
	DB	088H
	DB	088H
	DB	088H
	DB	0ffH
	DB	088H
	DB	088H
	DB	088H
	DB	0ffH
	DB	088H
	DB	088H
	DB	088H
	DB	0ffH
	DB	088H
	DB	088H
	DB	088H
	DB	0ffH
	DB	088H
	DB	088H
	DB	088H
	DB	0ffH
	DB	088H
	DB	088H
	DB	088H
	DB	0ffH
	DB	088H
	DB	088H
	DB	088H
	DB	0ffH
	DB	088H
	DB	088H
	DB	088H
	DB	0ffH
	DB	088H
	DB	088H
	DB	088H
	DB	0ffH
	DB	088H
	DB	088H
	DB	088H
	DB	0ffH
	DB	088H
	DB	088H
	DB	088H
	DB	0ffH
	DB	088H
	DB	088H
	DB	088H
	DB	0ffH
	DB	088H
	DB	088H
	DB	088H
	DB	0ffH
	DB	088H
	DB	088H
	DB	088H
	DB	0ffH
	DB	088H
	DB	088H
	DB	088H
	DB	0ffH
	DB	088H
	DB	088H
	DB	088H
	DB	0ffH
	DB	088H
	DB	088H
	DB	088H
	DB	0ffH
	DB	088H
	DB	088H
	DB	088H
	DB	0ffH
	DB	088H
	DB	088H
	DB	088H
	DB	0ffH
	DB	088H
	DB	088H
	DB	088H
	DB	0ffH
	DB	088H
	DB	088H
	DB	088H
	DB	0ffH
	DB	088H
	DB	088H
	DB	088H
	DB	0ffH
	DB	088H
	DB	088H
	DB	088H
	DB	0ffH
	DB	088H
	DB	088H
	DB	088H
	DB	0ffH
	DB	088H
	DB	088H
	DB	088H
	DB	0ffH
	DB	088H
	DB	088H
	DB	088H
	DB	0ffH
	DB	088H
	DB	088H
	DB	088H
	DB	0ffH
	DB	088H
	DB	088H
	DB	088H
	DB	0ffH
	DB	088H
	DB	088H
	DB	088H
	DB	0ffH
	DB	088H
	DB	088H
	DB	088H
	DB	0ffH
	DB	088H
	DB	088H
	DB	088H
	DB	0ffH
	DB	088H
	DB	088H
	DB	088H
	DB	0ffH
	DB	088H
	DB	088H
	DB	088H
	DB	0ffH
	DB	088H
	DB	088H
	DB	088H
	DB	0ffH
	DB	088H
	DB	088H
	DB	088H
	DB	0ffH
	DB	088H
	DB	088H
	DB	088H
	DB	0ffH
	DB	088H
	DB	088H
	DB	088H
	DB	0ffH
	DB	088H
	DB	088H
	DB	088H
	DB	0ffH
	DB	088H
	DB	088H
	DB	088H
	DB	0ffH
	DB	088H
	DB	088H
	DB	088H
	DB	0ffH
	DB	088H
	DB	088H
	DB	088H
	DB	0ffH
	DB	088H
	DB	088H
	DB	088H
	DB	0ffH
	DB	088H
	DB	088H
	DB	088H
	DB	0ffH
	DB	088H
	DB	088H
	DB	088H
	DB	0ffH
	DB	088H
	DB	088H
	DB	088H
	DB	0ffH
	DB	088H
	DB	088H
	DB	088H
	DB	0ffH
	DB	088H
	DB	088H
	DB	088H
	DB	0ffH
	DB	088H
	DB	088H
	DB	088H
	DB	0ffH
	DB	088H
	DB	088H
	DB	088H
	DB	0ffH
	DB	088H
	DB	088H
	DB	088H
	DB	0ffH
	DB	088H
	DB	088H
	DB	088H
	DB	0ffH
	DB	088H
	DB	088H
	DB	088H
	DB	0ffH
	DB	088H
	DB	088H
	DB	088H
	DB	0ffH
	DB	088H
	DB	088H
	DB	088H
	DB	0ffH
	DB	088H
	DB	088H
	DB	088H
	DB	0ffH
	DB	088H
	DB	088H
	DB	088H
	DB	0ffH
	DB	088H
	DB	088H
	DB	088H
	DB	0ffH
	DB	088H
	DB	088H
	DB	088H
	DB	0ffH
	DB	088H
	DB	088H
	DB	088H
	DB	0ffH
	DB	088H
	DB	088H
	DB	088H
	DB	0ffH
	DB	088H
	DB	088H
	DB	088H
	DB	0ffH
	DB	088H
	DB	088H
	DB	088H
	DB	0ffH
	DB	088H
	DB	088H
	DB	088H
	DB	0ffH
	DB	088H
	DB	088H
	DB	088H
	DB	0ffH
	DB	088H
	DB	088H
	DB	088H
	DB	0ffH
	DB	088H
	DB	088H
	DB	088H
	DB	0ffH
	DB	088H
	DB	088H
	DB	088H
	DB	0ffH
	DB	088H
	DB	088H
	DB	088H
	DB	0ffH
	DB	088H
	DB	088H
	DB	088H
	DB	0ffH
	DB	088H
	DB	088H
	DB	088H
	DB	0ffH
	DB	088H
	DB	088H
	DB	088H
	DB	0ffH
	DB	088H
	DB	088H
	DB	088H
	DB	0ffH
	DB	088H
	DB	088H
	DB	088H
	DB	0ffH
	DB	088H
	DB	088H
	DB	088H
	DB	0ffH
	DB	088H
	DB	088H
	DB	088H
	DB	0ffH
	DB	088H
	DB	088H
	DB	088H
	DB	0ffH
	DB	088H
	DB	088H
	DB	088H
	DB	0ffH
	DB	088H
	DB	088H
	DB	088H
	DB	0ffH
	DB	088H
	DB	088H
	DB	088H
	DB	0ffH
	DB	088H
	DB	088H
	DB	088H
	DB	0ffH
	DB	088H
	DB	088H
	DB	088H
	DB	0ffH
	DB	088H
	DB	088H
	DB	088H
	DB	0ffH
	DB	088H
	DB	088H
	DB	088H
	DB	0ffH
	DB	088H
	DB	088H
	DB	088H
	DB	0ffH
	DB	088H
	DB	088H
	DB	088H
	DB	0ffH
	DB	088H
	DB	088H
	DB	088H
	DB	0ffH
	DB	088H
	DB	088H
	DB	088H
	DB	0ffH
	DB	088H
	DB	088H
	DB	088H
	DB	0ffH
	DB	088H
	DB	088H
	DB	088H
	DB	0ffH
	DB	088H
	DB	088H
	DB	088H
	DB	0ffH
	DB	088H
	DB	088H
	DB	088H
	DB	0ffH
	DB	088H
	DB	088H
	DB	088H
	DB	0ffH
	DB	088H
	DB	088H
	DB	088H
	DB	0ffH
	DB	088H
	DB	088H
	DB	088H
	DB	0ffH
	DB	088H
	DB	088H
	DB	088H
	DB	0ffH
	DB	088H
	DB	088H
	DB	088H
	DB	0ffH
	DB	088H
	DB	088H
	DB	088H
	DB	0ffH
	DB	088H
	DB	088H
	DB	088H
	DB	0ffH
	DB	088H
	DB	088H
	DB	088H
	DB	0ffH
	DB	088H
	DB	088H
	DB	088H
	DB	0ffH
	DB	088H
	DB	088H
	DB	088H
	DB	0ffH
	DB	088H
	DB	088H
	DB	088H
	DB	0ffH
	DB	088H
	DB	088H
	DB	088H
	DB	0ffH
	DB	088H
	DB	088H
	DB	088H
	DB	0ffH
	DB	088H
	DB	088H
	DB	088H
	DB	0ffH
	DB	088H
	DB	088H
	DB	088H
	DB	0ffH
	DB	088H
	DB	088H
	DB	088H
	DB	0ffH
	DB	088H
	DB	088H
	DB	088H
	DB	0ffH
	DB	088H
	DB	088H
	DB	088H
	DB	0ffH
	DB	088H
	DB	088H
	DB	088H
	DB	0ffH
	DB	088H
	DB	088H
	DB	088H
	DB	0ffH
	DB	088H
	DB	088H
	DB	088H
	DB	0ffH
	DB	088H
	DB	088H
	DB	088H
	DB	0ffH
	DB	088H
	DB	088H
	DB	088H
	DB	0ffH
	DB	088H
	DB	088H
	DB	088H
	DB	0ffH
	DB	088H
	DB	088H
	DB	088H
	DB	0ffH
	DB	088H
	DB	088H
	DB	088H
	DB	0ffH
	DB	088H
	DB	088H
	DB	088H
	DB	0ffH
	DB	088H
	DB	088H
	DB	088H
	DB	0ffH
	DB	088H
	DB	088H
	DB	088H
	DB	0ffH
	DB	088H
	DB	088H
	DB	088H
	DB	0ffH
	DB	088H
	DB	088H
	DB	088H
	DB	0ffH
	DB	088H
	DB	088H
	DB	088H
	DB	0ffH
	DB	088H
	DB	088H
	DB	088H
	DB	0ffH
	DB	088H
	DB	088H
	DB	088H
	DB	0ffH
	DB	088H
	DB	088H
	DB	088H
	DB	0ffH
	DB	088H
	DB	088H
	DB	088H
	DB	0ffH
	DB	088H
	DB	088H
	DB	088H
	DB	0ffH
	DB	088H
	DB	088H
	DB	088H
	DB	0ffH
	DB	088H
	DB	088H
	DB	088H
	DB	0ffH
	DB	088H
	DB	088H
	DB	088H
	DB	0ffH
	DB	088H
	DB	088H
	DB	088H
	DB	0ffH
	DB	088H
	DB	088H
	DB	088H
	DB	0ffH
	DB	088H
	DB	088H
	DB	088H
	DB	0ffH
	DB	088H
	DB	088H
	DB	088H
	DB	0ffH
	DB	088H
	DB	088H
	DB	088H
	DB	0ffH
	DB	088H
	DB	088H
	DB	088H
	DB	0ffH
	DB	088H
	DB	088H
	DB	088H
	DB	0ffH
	DB	088H
	DB	088H
	DB	088H
	DB	0ffH
	DB	088H
	DB	088H
	DB	088H
	DB	0ffH
	DB	088H
	DB	088H
	DB	088H
	DB	0ffH
	DB	088H
	DB	088H
	DB	088H
	DB	0ffH
	DB	088H
	DB	088H
	DB	088H
	DB	0ffH
	DB	088H
	DB	088H
	DB	088H
	DB	0ffH
	DB	088H
	DB	088H
	DB	088H
	DB	0ffH
	DB	088H
	DB	088H
	DB	088H
	DB	0ffH
	DB	088H
	DB	088H
	DB	088H
	DB	0ffH
	DB	088H
	DB	088H
	DB	088H
	DB	0ffH
	DB	088H
	DB	088H
	DB	088H
	DB	0ffH
	DB	088H
	DB	088H
	DB	088H
	DB	0ffH
	DB	088H
	DB	088H
	DB	088H
	DB	0ffH
	DB	088H
	DB	088H
	DB	088H
	DB	0ffH
	DB	088H
	DB	088H
	DB	088H
	DB	0ffH
	DB	088H
	DB	088H
	DB	088H
	DB	0ffH
	DB	088H
	DB	088H
	DB	088H
	DB	0ffH
	DB	088H
	DB	088H
	DB	088H
	DB	0ffH
	DB	088H
	DB	088H
	DB	088H
	DB	0ffH
	DB	088H
	DB	088H
	DB	088H
	DB	0ffH
	DB	088H
	DB	088H
	DB	088H
	DB	0ffH
	DB	088H
	DB	088H
	DB	088H
	DB	0ffH
	DB	088H
	DB	088H
	DB	088H
	DB	0ffH
	DB	088H
	DB	088H
	DB	088H
	DB	0ffH
	DB	088H
	DB	088H
	DB	088H
	DB	0ffH
	DB	088H
	DB	088H
	DB	088H
	DB	0ffH
	DB	088H
	DB	088H
	DB	088H
	DB	0ffH
	DB	088H
	DB	088H
	DB	088H
	DB	0ffH
	DB	088H
	DB	088H
	DB	088H
	DB	0ffH
	DB	088H
	DB	088H
	DB	088H
	DB	0ffH
	DB	088H
	DB	088H
	DB	088H
	DB	0ffH
	DB	088H
	DB	088H
	DB	088H
	DB	0ffH
	DB	088H
	DB	088H
	DB	088H
	DB	0ffH
	DB	088H
	DB	088H
	DB	088H
	DB	0ffH
	DB	088H
	DB	088H
	DB	088H
	DB	0ffH
	DB	088H
	DB	088H
	DB	088H
	DB	0ffH
	DB	088H
	DB	088H
	DB	088H
	DB	0ffH
	DB	088H
	DB	088H
	DB	088H
	DB	0ffH
	DB	088H
	DB	088H
	DB	088H
	DB	0ffH
	DB	088H
	DB	088H
	DB	088H
	DB	0ffH
	DB	088H
	DB	088H
	DB	088H
	DB	0ffH
	DB	088H
	DB	088H
	DB	088H
	DB	0ffH
	DB	088H
	DB	088H
	DB	088H
	DB	0ffH
	DB	088H
	DB	088H
	DB	088H
	DB	0ffH
	DB	088H
	DB	088H
	DB	088H
	DB	0ffH
	DB	088H
	DB	088H
	DB	088H
	DB	0ffH
	DB	088H
	DB	088H
	DB	088H
	DB	0ffH
	DB	088H
	DB	088H
	DB	088H
	DB	0ffH
	DB	088H
	DB	088H
	DB	088H
	DB	0ffH
	DB	088H
	DB	088H
	DB	088H
	DB	0ffH
	DB	088H
	DB	088H
	DB	088H
	DB	0ffH
	DB	088H
	DB	088H
	DB	088H
	DB	0ffH
	DB	088H
	DB	088H
	DB	088H
	DB	0ffH
	DB	088H
	DB	088H
	DB	088H
	DB	0ffH
	DB	088H
	DB	088H
	DB	088H
	DB	0ffH
	DB	088H
	DB	088H
	DB	088H
	DB	0ffH
	DB	088H
	DB	088H
	DB	088H
	DB	0ffH
	DB	088H
	DB	088H
	DB	088H
	DB	0ffH
	DB	088H
	DB	088H
	DB	088H
	DB	0ffH
	DB	088H
	DB	088H
	DB	088H
	DB	0ffH
	DB	088H
	DB	088H
	DB	088H
	DB	0ffH
	DB	088H
	DB	088H
	DB	088H
	DB	0ffH
	DB	088H
	DB	088H
	DB	088H
	DB	0ffH
	DB	088H
	DB	088H
	DB	088H
	DB	0ffH
	DB	088H
	DB	088H
	DB	088H
	DB	0ffH
	DB	088H
	DB	088H
	DB	088H
	DB	0ffH
	DB	088H
	DB	088H
	DB	088H
	DB	0ffH
	DB	088H
	DB	088H
	DB	088H
	DB	0ffH
	DB	088H
	DB	088H
	DB	088H
	DB	0ffH
	DB	088H
	DB	088H
	DB	088H
	DB	0ffH
	DB	088H
	DB	088H
	DB	088H
	DB	0ffH
	DB	088H
	DB	088H
	DB	088H
	DB	0ffH
	DB	088H
	DB	088H
	DB	088H
	DB	0ffH
	DB	088H
	DB	088H
	DB	088H
	DB	0ffH
	DB	088H
	DB	088H
	DB	088H
	DB	0ffH
	DB	088H
	DB	088H
	DB	088H
	DB	0ffH
	DB	088H
	DB	088H
	DB	088H
	DB	0ffH
	DB	088H
	DB	088H
	DB	088H
	DB	0ffH
	DB	088H
	DB	088H
	DB	088H
	DB	0ffH
	DB	00H
	DB	00H
	DB	00H
	DB	00H
	DB	00H
	DB	00H
	DB	00H
	DB	00H
	DB	088H
	DB	088H
	DB	088H
	DB	0ffH
	DB	088H
	DB	088H
	DB	088H
	DB	0ffH
	DB	088H
	DB	088H
	DB	088H
	DB	0ffH
	DB	088H
	DB	088H
	DB	088H
	DB	0ffH
	DB	088H
	DB	088H
	DB	088H
	DB	0ffH
	DB	088H
	DB	088H
	DB	088H
	DB	0ffH
	DB	088H
	DB	088H
	DB	088H
	DB	0ffH
	DB	088H
	DB	088H
	DB	088H
	DB	0ffH
	DB	088H
	DB	088H
	DB	088H
	DB	0ffH
	DB	088H
	DB	088H
	DB	088H
	DB	0ffH
	DB	088H
	DB	088H
	DB	088H
	DB	0ffH
	DB	088H
	DB	088H
	DB	088H
	DB	0ffH
	DB	088H
	DB	088H
	DB	088H
	DB	0ffH
	DB	088H
	DB	088H
	DB	088H
	DB	0ffH
	DB	088H
	DB	088H
	DB	088H
	DB	0ffH
	DB	088H
	DB	088H
	DB	088H
	DB	0ffH
	DB	088H
	DB	088H
	DB	088H
	DB	0ffH
	DB	088H
	DB	088H
	DB	088H
	DB	0ffH
	DB	088H
	DB	088H
	DB	088H
	DB	0ffH
	DB	088H
	DB	088H
	DB	088H
	DB	0ffH
	DB	088H
	DB	088H
	DB	088H
	DB	0ffH
	DB	088H
	DB	088H
	DB	088H
	DB	0ffH
	DB	088H
	DB	088H
	DB	088H
	DB	0ffH
	DB	088H
	DB	088H
	DB	088H
	DB	0ffH
	DB	088H
	DB	088H
	DB	088H
	DB	0ffH
	DB	088H
	DB	088H
	DB	088H
	DB	0ffH
	DB	088H
	DB	088H
	DB	088H
	DB	0ffH
	DB	088H
	DB	088H
	DB	088H
	DB	0ffH
	DB	088H
	DB	088H
	DB	088H
	DB	0ffH
	DB	088H
	DB	088H
	DB	088H
	DB	0ffH
	DB	088H
	DB	088H
	DB	088H
	DB	0ffH
	DB	088H
	DB	088H
	DB	088H
	DB	0ffH
	DB	088H
	DB	088H
	DB	088H
	DB	0ffH
	DB	088H
	DB	088H
	DB	088H
	DB	0ffH
	DB	088H
	DB	088H
	DB	088H
	DB	0ffH
	DB	088H
	DB	088H
	DB	088H
	DB	0ffH
	DB	088H
	DB	088H
	DB	088H
	DB	0ffH
	DB	088H
	DB	088H
	DB	088H
	DB	0ffH
	DB	088H
	DB	088H
	DB	088H
	DB	0ffH
	DB	088H
	DB	088H
	DB	088H
	DB	0ffH
	DB	088H
	DB	088H
	DB	088H
	DB	0ffH
	DB	088H
	DB	088H
	DB	088H
	DB	0ffH
	DB	088H
	DB	088H
	DB	088H
	DB	0ffH
	DB	088H
	DB	088H
	DB	088H
	DB	0ffH
	DB	088H
	DB	088H
	DB	088H
	DB	0ffH
	DB	088H
	DB	088H
	DB	088H
	DB	0ffH
	DB	088H
	DB	088H
	DB	088H
	DB	0ffH
	DB	088H
	DB	088H
	DB	088H
	DB	0ffH
	DB	088H
	DB	088H
	DB	088H
	DB	0ffH
	DB	088H
	DB	088H
	DB	088H
	DB	0ffH
	DB	088H
	DB	088H
	DB	088H
	DB	0ffH
	DB	088H
	DB	088H
	DB	088H
	DB	0ffH
	DB	088H
	DB	088H
	DB	088H
	DB	0ffH
	DB	088H
	DB	088H
	DB	088H
	DB	0ffH
	DB	088H
	DB	088H
	DB	088H
	DB	0ffH
	DB	088H
	DB	088H
	DB	088H
	DB	0ffH
	DB	088H
	DB	088H
	DB	088H
	DB	0ffH
	DB	088H
	DB	088H
	DB	088H
	DB	0ffH
	DB	088H
	DB	088H
	DB	088H
	DB	0ffH
	DB	088H
	DB	088H
	DB	088H
	DB	0ffH
	DB	088H
	DB	088H
	DB	088H
	DB	0ffH
	DB	088H
	DB	088H
	DB	088H
	DB	0ffH
	DB	088H
	DB	088H
	DB	088H
	DB	0ffH
	DB	088H
	DB	088H
	DB	088H
	DB	0ffH
	DB	088H
	DB	088H
	DB	088H
	DB	0ffH
	DB	088H
	DB	088H
	DB	088H
	DB	0ffH
	DB	088H
	DB	088H
	DB	088H
	DB	0ffH
	DB	088H
	DB	088H
	DB	088H
	DB	0ffH
	DB	088H
	DB	088H
	DB	088H
	DB	0ffH
	DB	088H
	DB	088H
	DB	088H
	DB	0ffH
	DB	088H
	DB	088H
	DB	088H
	DB	0ffH
	DB	088H
	DB	088H
	DB	088H
	DB	0ffH
	DB	088H
	DB	088H
	DB	088H
	DB	0ffH
	DB	088H
	DB	088H
	DB	088H
	DB	0ffH
	DB	088H
	DB	088H
	DB	088H
	DB	0ffH
	DB	088H
	DB	088H
	DB	088H
	DB	0ffH
	DB	088H
	DB	088H
	DB	088H
	DB	0ffH
	DB	088H
	DB	088H
	DB	088H
	DB	0ffH
	DB	088H
	DB	088H
	DB	088H
	DB	0ffH
	DB	088H
	DB	088H
	DB	088H
	DB	0ffH
	DB	088H
	DB	088H
	DB	088H
	DB	0ffH
	DB	088H
	DB	088H
	DB	088H
	DB	0ffH
	DB	088H
	DB	088H
	DB	088H
	DB	0ffH
	DB	088H
	DB	088H
	DB	088H
	DB	0ffH
	DB	088H
	DB	088H
	DB	088H
	DB	0ffH
	DB	088H
	DB	088H
	DB	088H
	DB	0ffH
	DB	088H
	DB	088H
	DB	088H
	DB	0ffH
	DB	088H
	DB	088H
	DB	088H
	DB	0ffH
	DB	088H
	DB	088H
	DB	088H
	DB	0ffH
	DB	088H
	DB	088H
	DB	088H
	DB	0ffH
	DB	088H
	DB	088H
	DB	088H
	DB	0ffH
	DB	088H
	DB	088H
	DB	088H
	DB	0ffH
	DB	088H
	DB	088H
	DB	088H
	DB	0ffH
	DB	088H
	DB	088H
	DB	088H
	DB	0ffH
	DB	088H
	DB	088H
	DB	088H
	DB	0ffH
	DB	088H
	DB	088H
	DB	088H
	DB	0ffH
	DB	088H
	DB	088H
	DB	088H
	DB	0ffH
	DB	088H
	DB	088H
	DB	088H
	DB	0ffH
	DB	088H
	DB	088H
	DB	088H
	DB	0ffH
	DB	088H
	DB	088H
	DB	088H
	DB	0ffH
	DB	088H
	DB	088H
	DB	088H
	DB	0ffH
	DB	088H
	DB	088H
	DB	088H
	DB	0ffH
	DB	088H
	DB	088H
	DB	088H
	DB	0ffH
	DB	088H
	DB	088H
	DB	088H
	DB	0ffH
	DB	088H
	DB	088H
	DB	088H
	DB	0ffH
	DB	088H
	DB	088H
	DB	088H
	DB	0ffH
	DB	088H
	DB	088H
	DB	088H
	DB	0ffH
	DB	088H
	DB	088H
	DB	088H
	DB	0ffH
	DB	088H
	DB	088H
	DB	088H
	DB	0ffH
	DB	088H
	DB	088H
	DB	088H
	DB	0ffH
	DB	088H
	DB	088H
	DB	088H
	DB	0ffH
	DB	088H
	DB	088H
	DB	088H
	DB	0ffH
	DB	088H
	DB	088H
	DB	088H
	DB	0ffH
	DB	088H
	DB	088H
	DB	088H
	DB	0ffH
	DB	088H
	DB	088H
	DB	088H
	DB	0ffH
	DB	088H
	DB	088H
	DB	088H
	DB	0ffH
	DB	088H
	DB	088H
	DB	088H
	DB	0ffH
	DB	088H
	DB	088H
	DB	088H
	DB	0ffH
	DB	088H
	DB	088H
	DB	088H
	DB	0ffH
	DB	088H
	DB	088H
	DB	088H
	DB	0ffH
	DB	088H
	DB	088H
	DB	088H
	DB	0ffH
	DB	088H
	DB	088H
	DB	088H
	DB	0ffH
	DB	088H
	DB	088H
	DB	088H
	DB	0ffH
	DB	088H
	DB	088H
	DB	088H
	DB	0ffH
	DB	088H
	DB	088H
	DB	088H
	DB	0ffH
	DB	088H
	DB	088H
	DB	088H
	DB	0ffH
	DB	088H
	DB	088H
	DB	088H
	DB	0ffH
	DB	088H
	DB	088H
	DB	088H
	DB	0ffH
	DB	088H
	DB	088H
	DB	088H
	DB	0ffH
	DB	088H
	DB	088H
	DB	088H
	DB	0ffH
	DB	088H
	DB	088H
	DB	088H
	DB	0ffH
	DB	088H
	DB	088H
	DB	088H
	DB	0ffH
	DB	088H
	DB	088H
	DB	088H
	DB	0ffH
	DB	088H
	DB	088H
	DB	088H
	DB	0ffH
	DB	088H
	DB	088H
	DB	088H
	DB	0ffH
	DB	088H
	DB	088H
	DB	088H
	DB	0ffH
	DB	088H
	DB	088H
	DB	088H
	DB	0ffH
	DB	088H
	DB	088H
	DB	088H
	DB	0ffH
	DB	088H
	DB	088H
	DB	088H
	DB	0ffH
	DB	088H
	DB	088H
	DB	088H
	DB	0ffH
	DB	088H
	DB	088H
	DB	088H
	DB	0ffH
	DB	088H
	DB	088H
	DB	088H
	DB	0ffH
	DB	088H
	DB	088H
	DB	088H
	DB	0ffH
	DB	088H
	DB	088H
	DB	088H
	DB	0ffH
	DB	088H
	DB	088H
	DB	088H
	DB	0ffH
	DB	088H
	DB	088H
	DB	088H
	DB	0ffH
	DB	088H
	DB	088H
	DB	088H
	DB	0ffH
	DB	088H
	DB	088H
	DB	088H
	DB	0ffH
	DB	088H
	DB	088H
	DB	088H
	DB	0ffH
	DB	088H
	DB	088H
	DB	088H
	DB	0ffH
	DB	088H
	DB	088H
	DB	088H
	DB	0ffH
	DB	088H
	DB	088H
	DB	088H
	DB	0ffH
	DB	088H
	DB	088H
	DB	088H
	DB	0ffH
	DB	088H
	DB	088H
	DB	088H
	DB	0ffH
	DB	088H
	DB	088H
	DB	088H
	DB	0ffH
	DB	088H
	DB	088H
	DB	088H
	DB	0ffH
	DB	088H
	DB	088H
	DB	088H
	DB	0ffH
	DB	088H
	DB	088H
	DB	088H
	DB	0ffH
	DB	088H
	DB	088H
	DB	088H
	DB	0ffH
	DB	088H
	DB	088H
	DB	088H
	DB	0ffH
	DB	088H
	DB	088H
	DB	088H
	DB	0ffH
	DB	088H
	DB	088H
	DB	088H
	DB	0ffH
	DB	088H
	DB	088H
	DB	088H
	DB	0ffH
	DB	088H
	DB	088H
	DB	088H
	DB	0ffH
	DB	088H
	DB	088H
	DB	088H
	DB	0ffH
	DB	088H
	DB	088H
	DB	088H
	DB	0ffH
	DB	088H
	DB	088H
	DB	088H
	DB	0ffH
	DB	088H
	DB	088H
	DB	088H
	DB	0ffH
	DB	088H
	DB	088H
	DB	088H
	DB	0ffH
	DB	088H
	DB	088H
	DB	088H
	DB	0ffH
	DB	088H
	DB	088H
	DB	088H
	DB	0ffH
	DB	088H
	DB	088H
	DB	088H
	DB	0ffH
	DB	088H
	DB	088H
	DB	088H
	DB	0ffH
	DB	088H
	DB	088H
	DB	088H
	DB	0ffH
	DB	088H
	DB	088H
	DB	088H
	DB	0ffH
	DB	088H
	DB	088H
	DB	088H
	DB	0ffH
	DB	088H
	DB	088H
	DB	088H
	DB	0ffH
	DB	088H
	DB	088H
	DB	088H
	DB	0ffH
	DB	088H
	DB	088H
	DB	088H
	DB	0ffH
	DB	088H
	DB	088H
	DB	088H
	DB	0ffH
	DB	088H
	DB	088H
	DB	088H
	DB	0ffH
	DB	088H
	DB	088H
	DB	088H
	DB	0ffH
	DB	088H
	DB	088H
	DB	088H
	DB	0ffH
	DB	088H
	DB	088H
	DB	088H
	DB	0ffH
	DB	088H
	DB	088H
	DB	088H
	DB	0ffH
	DB	088H
	DB	088H
	DB	088H
	DB	0ffH
	DB	088H
	DB	088H
	DB	088H
	DB	0ffH
	DB	088H
	DB	088H
	DB	088H
	DB	0ffH
	DB	088H
	DB	088H
	DB	088H
	DB	0ffH
	DB	088H
	DB	088H
	DB	088H
	DB	0ffH
	DB	088H
	DB	088H
	DB	088H
	DB	0ffH
	DB	088H
	DB	088H
	DB	088H
	DB	0ffH
	DB	088H
	DB	088H
	DB	088H
	DB	0ffH
	DB	088H
	DB	088H
	DB	088H
	DB	0ffH
	DB	088H
	DB	088H
	DB	088H
	DB	0ffH
	DB	088H
	DB	088H
	DB	088H
	DB	0ffH
	DB	088H
	DB	088H
	DB	088H
	DB	0ffH
	DB	088H
	DB	088H
	DB	088H
	DB	0ffH
	DB	088H
	DB	088H
	DB	088H
	DB	0ffH
	DB	088H
	DB	088H
	DB	088H
	DB	0ffH
	DB	088H
	DB	088H
	DB	088H
	DB	0ffH
	DB	088H
	DB	088H
	DB	088H
	DB	0ffH
	DB	088H
	DB	088H
	DB	088H
	DB	0ffH
	DB	088H
	DB	088H
	DB	088H
	DB	0ffH
	DB	088H
	DB	088H
	DB	088H
	DB	0ffH
	DB	088H
	DB	088H
	DB	088H
	DB	0ffH
	DB	088H
	DB	088H
	DB	088H
	DB	0ffH
	DB	088H
	DB	088H
	DB	088H
	DB	0ffH
	DB	088H
	DB	088H
	DB	088H
	DB	0ffH
	DB	088H
	DB	088H
	DB	088H
	DB	0ffH
	DB	088H
	DB	088H
	DB	088H
	DB	0ffH
	DB	088H
	DB	088H
	DB	088H
	DB	0ffH
	DB	088H
	DB	088H
	DB	088H
	DB	0ffH
	DB	088H
	DB	088H
	DB	088H
	DB	0ffH
	DB	088H
	DB	088H
	DB	088H
	DB	0ffH
	DB	088H
	DB	088H
	DB	088H
	DB	0ffH
	DB	088H
	DB	088H
	DB	088H
	DB	0ffH
	DB	088H
	DB	088H
	DB	088H
	DB	0ffH
	DB	088H
	DB	088H
	DB	088H
	DB	0ffH
	DB	088H
	DB	088H
	DB	088H
	DB	0ffH
	DB	088H
	DB	088H
	DB	088H
	DB	0ffH
	DB	088H
	DB	088H
	DB	088H
	DB	0ffH
	DB	088H
	DB	088H
	DB	088H
	DB	0ffH
	DB	088H
	DB	088H
	DB	088H
	DB	0ffH
	DB	088H
	DB	088H
	DB	088H
	DB	0ffH
	DB	088H
	DB	088H
	DB	088H
	DB	0ffH
	DB	088H
	DB	088H
	DB	088H
	DB	0ffH
	DB	088H
	DB	088H
	DB	088H
	DB	0ffH
	DB	088H
	DB	088H
	DB	088H
	DB	0ffH
	DB	088H
	DB	088H
	DB	088H
	DB	0ffH
	DB	088H
	DB	088H
	DB	088H
	DB	0ffH
	DB	088H
	DB	088H
	DB	088H
	DB	0ffH
	DB	088H
	DB	088H
	DB	088H
	DB	0ffH
	DB	088H
	DB	088H
	DB	088H
	DB	0ffH
	DB	088H
	DB	088H
	DB	088H
	DB	0ffH
	DB	088H
	DB	088H
	DB	088H
	DB	0ffH
	DB	088H
	DB	088H
	DB	088H
	DB	0ffH
	DB	088H
	DB	088H
	DB	088H
	DB	0ffH
	DB	088H
	DB	088H
	DB	088H
	DB	0ffH
	DB	088H
	DB	088H
	DB	088H
	DB	0ffH
	DB	088H
	DB	088H
	DB	088H
	DB	0ffH
	DB	088H
	DB	088H
	DB	088H
	DB	0ffH
	DB	088H
	DB	088H
	DB	088H
	DB	0ffH
	DB	088H
	DB	088H
	DB	088H
	DB	0ffH
	DB	088H
	DB	088H
	DB	088H
	DB	0ffH
	DB	088H
	DB	088H
	DB	088H
	DB	0ffH
	DB	088H
	DB	088H
	DB	088H
	DB	0ffH
	DB	088H
	DB	088H
	DB	088H
	DB	0ffH
	DB	088H
	DB	088H
	DB	088H
	DB	0ffH
	DB	088H
	DB	088H
	DB	088H
	DB	0ffH
	DB	088H
	DB	088H
	DB	088H
	DB	0ffH
	DB	088H
	DB	088H
	DB	088H
	DB	0ffH
	DB	088H
	DB	088H
	DB	088H
	DB	0ffH
	DB	088H
	DB	088H
	DB	088H
	DB	0ffH
	DB	088H
	DB	088H
	DB	088H
	DB	0ffH
	DB	088H
	DB	088H
	DB	088H
	DB	0ffH
	DB	088H
	DB	088H
	DB	088H
	DB	0ffH
	DB	088H
	DB	088H
	DB	088H
	DB	0ffH
	DB	088H
	DB	088H
	DB	088H
	DB	0ffH
	DB	088H
	DB	088H
	DB	088H
	DB	0ffH
	DB	088H
	DB	088H
	DB	088H
	DB	0ffH
	DB	088H
	DB	088H
	DB	088H
	DB	0ffH
	DB	088H
	DB	088H
	DB	088H
	DB	0ffH
	DB	088H
	DB	088H
	DB	088H
	DB	0ffH
	DB	088H
	DB	088H
	DB	088H
	DB	0ffH
	DB	088H
	DB	088H
	DB	088H
	DB	0ffH
	DB	088H
	DB	088H
	DB	088H
	DB	0ffH
	DB	088H
	DB	088H
	DB	088H
	DB	0ffH
	DB	088H
	DB	088H
	DB	088H
	DB	0ffH
	DB	088H
	DB	088H
	DB	088H
	DB	0ffH
	DB	088H
	DB	088H
	DB	088H
	DB	0ffH
	DB	088H
	DB	088H
	DB	088H
	DB	0ffH
	DB	088H
	DB	088H
	DB	088H
	DB	0ffH
	DB	088H
	DB	088H
	DB	088H
	DB	0ffH
	DB	088H
	DB	088H
	DB	088H
	DB	0ffH
	DB	088H
	DB	088H
	DB	088H
	DB	0ffH
	DB	088H
	DB	088H
	DB	088H
	DB	0ffH
	DB	088H
	DB	088H
	DB	088H
	DB	0ffH
	DB	088H
	DB	088H
	DB	088H
	DB	0ffH
	DB	088H
	DB	088H
	DB	088H
	DB	0ffH
	DB	088H
	DB	088H
	DB	088H
	DB	0ffH
	DB	088H
	DB	088H
	DB	088H
	DB	0ffH
	DB	088H
	DB	088H
	DB	088H
	DB	0ffH
	DB	088H
	DB	088H
	DB	088H
	DB	0ffH
	DB	088H
	DB	088H
	DB	088H
	DB	0ffH
	DB	088H
	DB	088H
	DB	088H
	DB	0ffH
	DB	088H
	DB	088H
	DB	088H
	DB	0ffH
	DB	088H
	DB	088H
	DB	088H
	DB	0ffH
	DB	088H
	DB	088H
	DB	088H
	DB	0ffH
	DB	088H
	DB	088H
	DB	088H
	DB	0ffH
	DB	088H
	DB	088H
	DB	088H
	DB	0ffH
	DB	088H
	DB	088H
	DB	088H
	DB	0ffH
	DB	088H
	DB	088H
	DB	088H
	DB	0ffH
	DB	088H
	DB	088H
	DB	088H
	DB	0ffH
	DB	088H
	DB	088H
	DB	088H
	DB	0ffH
	DB	088H
	DB	088H
	DB	088H
	DB	0ffH
	DB	088H
	DB	088H
	DB	088H
	DB	0ffH
	DB	088H
	DB	088H
	DB	088H
	DB	0ffH
	DB	088H
	DB	088H
	DB	088H
	DB	0ffH
	DB	088H
	DB	088H
	DB	088H
	DB	0ffH
	DB	088H
	DB	088H
	DB	088H
	DB	0ffH
	DB	088H
	DB	088H
	DB	088H
	DB	0ffH
	DB	088H
	DB	088H
	DB	088H
	DB	0ffH
	DB	088H
	DB	088H
	DB	088H
	DB	0ffH
	DB	088H
	DB	088H
	DB	088H
	DB	0ffH
	DB	088H
	DB	088H
	DB	088H
	DB	0ffH
	DB	088H
	DB	088H
	DB	088H
	DB	0ffH
	DB	088H
	DB	088H
	DB	088H
	DB	0ffH
	DB	088H
	DB	088H
	DB	088H
	DB	0ffH
	DB	088H
	DB	088H
	DB	088H
	DB	0ffH
	DB	088H
	DB	088H
	DB	088H
	DB	0ffH
	DB	088H
	DB	088H
	DB	088H
	DB	0ffH
	DB	088H
	DB	088H
	DB	088H
	DB	0ffH
	DB	088H
	DB	088H
	DB	088H
	DB	0ffH
	DB	088H
	DB	088H
	DB	088H
	DB	0ffH
	DB	088H
	DB	088H
	DB	088H
	DB	0ffH
	DB	088H
	DB	088H
	DB	088H
	DB	0ffH
	DB	088H
	DB	088H
	DB	088H
	DB	0ffH
	DB	088H
	DB	088H
	DB	088H
	DB	0ffH
	DB	088H
	DB	088H
	DB	088H
	DB	0ffH
	DB	088H
	DB	088H
	DB	088H
	DB	0ffH
	DB	088H
	DB	088H
	DB	088H
	DB	0ffH
	DB	088H
	DB	088H
	DB	088H
	DB	0ffH
	DB	088H
	DB	088H
	DB	088H
	DB	0ffH
	DB	088H
	DB	088H
	DB	088H
	DB	0ffH
	DB	088H
	DB	088H
	DB	088H
	DB	0ffH
	DB	088H
	DB	088H
	DB	088H
	DB	0ffH
	DB	088H
	DB	088H
	DB	088H
	DB	0ffH
	DB	088H
	DB	088H
	DB	088H
	DB	0ffH
	DB	088H
	DB	088H
	DB	088H
	DB	0ffH
	DB	088H
	DB	088H
	DB	088H
	DB	0ffH
	DB	088H
	DB	088H
	DB	088H
	DB	0ffH
	DB	088H
	DB	088H
	DB	088H
	DB	0ffH
	DB	088H
	DB	088H
	DB	088H
	DB	0ffH
	DB	088H
	DB	088H
	DB	088H
	DB	0ffH
	DB	088H
	DB	088H
	DB	088H
	DB	0ffH
	DB	088H
	DB	088H
	DB	088H
	DB	0ffH
	DB	088H
	DB	088H
	DB	088H
	DB	0ffH
	DB	088H
	DB	088H
	DB	088H
	DB	0ffH
	DB	088H
	DB	088H
	DB	088H
	DB	0ffH
	DB	088H
	DB	088H
	DB	088H
	DB	0ffH
	DB	088H
	DB	088H
	DB	088H
	DB	0ffH
	DB	088H
	DB	088H
	DB	088H
	DB	0ffH
	DB	088H
	DB	088H
	DB	088H
	DB	0ffH
	DB	088H
	DB	088H
	DB	088H
	DB	0ffH
	DB	088H
	DB	088H
	DB	088H
	DB	0ffH
	DB	088H
	DB	088H
	DB	088H
	DB	0ffH
	DB	088H
	DB	088H
	DB	088H
	DB	0ffH
	DB	088H
	DB	088H
	DB	088H
	DB	0ffH
	DB	088H
	DB	088H
	DB	088H
	DB	0ffH
	DB	00H
	DB	00H
	DB	00H
	DB	00H
	DB	00H
	DB	00H
	DB	00H
	DB	00H
	DB	080H
	DB	080H
	DB	080H
	DB	0ffH
	DB	080H
	DB	080H
	DB	080H
	DB	0ffH
	DB	080H
	DB	080H
	DB	080H
	DB	0ffH
	DB	080H
	DB	080H
	DB	080H
	DB	0ffH
	DB	080H
	DB	080H
	DB	080H
	DB	0ffH
	DB	080H
	DB	084H
	DB	080H
	DB	0ffH
	DB	080H
	DB	080H
	DB	080H
	DB	0ffH
	DB	080H
	DB	080H
	DB	080H
	DB	0ffH
	DB	080H
	DB	080H
	DB	080H
	DB	0ffH
	DB	080H
	DB	084H
	DB	080H
	DB	0ffH
	DB	080H
	DB	080H
	DB	080H
	DB	0ffH
	DB	080H
	DB	080H
	DB	080H
	DB	0ffH
	DB	080H
	DB	080H
	DB	080H
	DB	0ffH
	DB	080H
	DB	084H
	DB	080H
	DB	0ffH
	DB	080H
	DB	080H
	DB	080H
	DB	0ffH
	DB	080H
	DB	080H
	DB	080H
	DB	0ffH
	DB	080H
	DB	080H
	DB	080H
	DB	0ffH
	DB	080H
	DB	084H
	DB	080H
	DB	0ffH
	DB	080H
	DB	080H
	DB	080H
	DB	0ffH
	DB	080H
	DB	080H
	DB	080H
	DB	0ffH
	DB	080H
	DB	080H
	DB	080H
	DB	0ffH
	DB	080H
	DB	084H
	DB	080H
	DB	0ffH
	DB	080H
	DB	080H
	DB	080H
	DB	0ffH
	DB	080H
	DB	080H
	DB	080H
	DB	0ffH
	DB	080H
	DB	080H
	DB	080H
	DB	0ffH
	DB	080H
	DB	084H
	DB	080H
	DB	0ffH
	DB	080H
	DB	080H
	DB	080H
	DB	0ffH
	DB	080H
	DB	080H
	DB	080H
	DB	0ffH
	DB	080H
	DB	080H
	DB	080H
	DB	0ffH
	DB	080H
	DB	084H
	DB	080H
	DB	0ffH
	DB	080H
	DB	080H
	DB	080H
	DB	0ffH
	DB	080H
	DB	080H
	DB	080H
	DB	0ffH
	DB	080H
	DB	080H
	DB	080H
	DB	0ffH
	DB	080H
	DB	084H
	DB	080H
	DB	0ffH
	DB	080H
	DB	080H
	DB	080H
	DB	0ffH
	DB	080H
	DB	080H
	DB	080H
	DB	0ffH
	DB	080H
	DB	080H
	DB	080H
	DB	0ffH
	DB	080H
	DB	084H
	DB	080H
	DB	0ffH
	DB	080H
	DB	080H
	DB	080H
	DB	0ffH
	DB	080H
	DB	080H
	DB	080H
	DB	0ffH
	DB	080H
	DB	080H
	DB	080H
	DB	0ffH
	DB	080H
	DB	084H
	DB	080H
	DB	0ffH
	DB	080H
	DB	080H
	DB	080H
	DB	0ffH
	DB	080H
	DB	080H
	DB	080H
	DB	0ffH
	DB	080H
	DB	080H
	DB	080H
	DB	0ffH
	DB	080H
	DB	084H
	DB	080H
	DB	0ffH
	DB	080H
	DB	080H
	DB	080H
	DB	0ffH
	DB	080H
	DB	080H
	DB	080H
	DB	0ffH
	DB	080H
	DB	080H
	DB	080H
	DB	0ffH
	DB	080H
	DB	084H
	DB	080H
	DB	0ffH
	DB	080H
	DB	080H
	DB	080H
	DB	0ffH
	DB	080H
	DB	080H
	DB	080H
	DB	0ffH
	DB	080H
	DB	080H
	DB	080H
	DB	0ffH
	DB	080H
	DB	084H
	DB	080H
	DB	0ffH
	DB	080H
	DB	080H
	DB	080H
	DB	0ffH
	DB	080H
	DB	080H
	DB	080H
	DB	0ffH
	DB	080H
	DB	080H
	DB	080H
	DB	0ffH
	DB	080H
	DB	084H
	DB	080H
	DB	0ffH
	DB	080H
	DB	080H
	DB	080H
	DB	0ffH
	DB	080H
	DB	080H
	DB	080H
	DB	0ffH
	DB	080H
	DB	080H
	DB	080H
	DB	0ffH
	DB	080H
	DB	084H
	DB	080H
	DB	0ffH
	DB	080H
	DB	080H
	DB	080H
	DB	0ffH
	DB	080H
	DB	080H
	DB	080H
	DB	0ffH
	DB	080H
	DB	080H
	DB	080H
	DB	0ffH
	DB	080H
	DB	084H
	DB	080H
	DB	0ffH
	DB	080H
	DB	080H
	DB	080H
	DB	0ffH
	DB	080H
	DB	080H
	DB	080H
	DB	0ffH
	DB	080H
	DB	080H
	DB	080H
	DB	0ffH
	DB	080H
	DB	084H
	DB	080H
	DB	0ffH
	DB	080H
	DB	080H
	DB	080H
	DB	0ffH
	DB	080H
	DB	080H
	DB	080H
	DB	0ffH
	DB	080H
	DB	080H
	DB	080H
	DB	0ffH
	DB	080H
	DB	084H
	DB	080H
	DB	0ffH
	DB	080H
	DB	080H
	DB	080H
	DB	0ffH
	DB	080H
	DB	080H
	DB	080H
	DB	0ffH
	DB	080H
	DB	080H
	DB	080H
	DB	0ffH
	DB	080H
	DB	084H
	DB	080H
	DB	0ffH
	DB	080H
	DB	080H
	DB	080H
	DB	0ffH
	DB	080H
	DB	080H
	DB	080H
	DB	0ffH
	DB	080H
	DB	080H
	DB	080H
	DB	0ffH
	DB	080H
	DB	084H
	DB	080H
	DB	0ffH
	DB	080H
	DB	080H
	DB	080H
	DB	0ffH
	DB	080H
	DB	080H
	DB	080H
	DB	0ffH
	DB	080H
	DB	080H
	DB	080H
	DB	0ffH
	DB	080H
	DB	084H
	DB	080H
	DB	0ffH
	DB	080H
	DB	080H
	DB	080H
	DB	0ffH
	DB	080H
	DB	080H
	DB	080H
	DB	0ffH
	DB	080H
	DB	080H
	DB	080H
	DB	0ffH
	DB	080H
	DB	084H
	DB	080H
	DB	0ffH
	DB	080H
	DB	080H
	DB	080H
	DB	0ffH
	DB	080H
	DB	080H
	DB	080H
	DB	0ffH
	DB	080H
	DB	080H
	DB	080H
	DB	0ffH
	DB	080H
	DB	084H
	DB	080H
	DB	0ffH
	DB	080H
	DB	080H
	DB	080H
	DB	0ffH
	DB	080H
	DB	080H
	DB	080H
	DB	0ffH
	DB	080H
	DB	080H
	DB	080H
	DB	0ffH
	DB	080H
	DB	084H
	DB	080H
	DB	0ffH
	DB	080H
	DB	080H
	DB	080H
	DB	0ffH
	DB	080H
	DB	080H
	DB	080H
	DB	0ffH
	DB	080H
	DB	080H
	DB	080H
	DB	0ffH
	DB	080H
	DB	084H
	DB	080H
	DB	0ffH
	DB	080H
	DB	080H
	DB	080H
	DB	0ffH
	DB	080H
	DB	080H
	DB	080H
	DB	0ffH
	DB	080H
	DB	080H
	DB	080H
	DB	0ffH
	DB	080H
	DB	084H
	DB	080H
	DB	0ffH
	DB	080H
	DB	080H
	DB	080H
	DB	0ffH
	DB	080H
	DB	080H
	DB	080H
	DB	0ffH
	DB	080H
	DB	080H
	DB	080H
	DB	0ffH
	DB	080H
	DB	084H
	DB	080H
	DB	0ffH
	DB	080H
	DB	080H
	DB	080H
	DB	0ffH
	DB	080H
	DB	080H
	DB	080H
	DB	0ffH
	DB	080H
	DB	080H
	DB	080H
	DB	0ffH
	DB	080H
	DB	084H
	DB	080H
	DB	0ffH
	DB	080H
	DB	080H
	DB	080H
	DB	0ffH
	DB	080H
	DB	080H
	DB	080H
	DB	0ffH
	DB	080H
	DB	080H
	DB	080H
	DB	0ffH
	DB	080H
	DB	084H
	DB	080H
	DB	0ffH
	DB	080H
	DB	080H
	DB	080H
	DB	0ffH
	DB	080H
	DB	080H
	DB	080H
	DB	0ffH
	DB	080H
	DB	080H
	DB	080H
	DB	0ffH
	DB	080H
	DB	084H
	DB	080H
	DB	0ffH
	DB	080H
	DB	080H
	DB	080H
	DB	0ffH
	DB	080H
	DB	080H
	DB	080H
	DB	0ffH
	DB	080H
	DB	080H
	DB	080H
	DB	0ffH
	DB	080H
	DB	084H
	DB	080H
	DB	0ffH
	DB	080H
	DB	080H
	DB	080H
	DB	0ffH
	DB	080H
	DB	080H
	DB	080H
	DB	0ffH
	DB	080H
	DB	080H
	DB	080H
	DB	0ffH
	DB	080H
	DB	084H
	DB	080H
	DB	0ffH
	DB	080H
	DB	080H
	DB	080H
	DB	0ffH
	DB	080H
	DB	080H
	DB	080H
	DB	0ffH
	DB	080H
	DB	080H
	DB	080H
	DB	0ffH
	DB	080H
	DB	084H
	DB	080H
	DB	0ffH
	DB	080H
	DB	080H
	DB	080H
	DB	0ffH
	DB	080H
	DB	080H
	DB	080H
	DB	0ffH
	DB	080H
	DB	080H
	DB	080H
	DB	0ffH
	DB	080H
	DB	084H
	DB	080H
	DB	0ffH
	DB	080H
	DB	080H
	DB	080H
	DB	0ffH
	DB	080H
	DB	080H
	DB	080H
	DB	0ffH
	DB	080H
	DB	080H
	DB	080H
	DB	0ffH
	DB	080H
	DB	084H
	DB	080H
	DB	0ffH
	DB	080H
	DB	080H
	DB	080H
	DB	0ffH
	DB	080H
	DB	080H
	DB	080H
	DB	0ffH
	DB	080H
	DB	080H
	DB	080H
	DB	0ffH
	DB	080H
	DB	084H
	DB	080H
	DB	0ffH
	DB	080H
	DB	080H
	DB	080H
	DB	0ffH
	DB	080H
	DB	080H
	DB	080H
	DB	0ffH
	DB	080H
	DB	080H
	DB	080H
	DB	0ffH
	DB	080H
	DB	084H
	DB	080H
	DB	0ffH
	DB	080H
	DB	080H
	DB	080H
	DB	0ffH
	DB	080H
	DB	080H
	DB	080H
	DB	0ffH
	DB	080H
	DB	080H
	DB	080H
	DB	0ffH
	DB	080H
	DB	084H
	DB	080H
	DB	0ffH
	DB	080H
	DB	080H
	DB	080H
	DB	0ffH
	DB	080H
	DB	080H
	DB	080H
	DB	0ffH
	DB	080H
	DB	080H
	DB	080H
	DB	0ffH
	DB	080H
	DB	084H
	DB	080H
	DB	0ffH
	DB	080H
	DB	080H
	DB	080H
	DB	0ffH
	DB	080H
	DB	080H
	DB	080H
	DB	0ffH
	DB	080H
	DB	080H
	DB	080H
	DB	0ffH
	DB	080H
	DB	084H
	DB	080H
	DB	0ffH
	DB	080H
	DB	080H
	DB	080H
	DB	0ffH
	DB	080H
	DB	080H
	DB	080H
	DB	0ffH
	DB	080H
	DB	080H
	DB	080H
	DB	0ffH
	DB	080H
	DB	084H
	DB	080H
	DB	0ffH
	DB	080H
	DB	080H
	DB	080H
	DB	0ffH
	DB	080H
	DB	080H
	DB	080H
	DB	0ffH
	DB	080H
	DB	080H
	DB	080H
	DB	0ffH
	DB	080H
	DB	084H
	DB	080H
	DB	0ffH
	DB	080H
	DB	080H
	DB	080H
	DB	0ffH
	DB	080H
	DB	080H
	DB	080H
	DB	0ffH
	DB	080H
	DB	080H
	DB	080H
	DB	0ffH
	DB	080H
	DB	084H
	DB	080H
	DB	0ffH
	DB	080H
	DB	080H
	DB	080H
	DB	0ffH
	DB	080H
	DB	080H
	DB	080H
	DB	0ffH
	DB	080H
	DB	080H
	DB	080H
	DB	0ffH
	DB	080H
	DB	084H
	DB	080H
	DB	0ffH
	DB	080H
	DB	080H
	DB	080H
	DB	0ffH
	DB	080H
	DB	080H
	DB	080H
	DB	0ffH
	DB	080H
	DB	080H
	DB	080H
	DB	0ffH
	DB	080H
	DB	084H
	DB	080H
	DB	0ffH
	DB	080H
	DB	080H
	DB	080H
	DB	0ffH
	DB	080H
	DB	080H
	DB	080H
	DB	0ffH
	DB	080H
	DB	080H
	DB	080H
	DB	0ffH
	DB	080H
	DB	084H
	DB	080H
	DB	0ffH
	DB	080H
	DB	080H
	DB	080H
	DB	0ffH
	DB	080H
	DB	080H
	DB	080H
	DB	0ffH
	DB	080H
	DB	080H
	DB	080H
	DB	0ffH
	DB	080H
	DB	084H
	DB	080H
	DB	0ffH
	DB	080H
	DB	080H
	DB	080H
	DB	0ffH
	DB	080H
	DB	080H
	DB	080H
	DB	0ffH
	DB	080H
	DB	080H
	DB	080H
	DB	0ffH
	DB	080H
	DB	084H
	DB	080H
	DB	0ffH
	DB	080H
	DB	080H
	DB	080H
	DB	0ffH
	DB	080H
	DB	080H
	DB	080H
	DB	0ffH
	DB	080H
	DB	080H
	DB	080H
	DB	0ffH
	DB	080H
	DB	084H
	DB	080H
	DB	0ffH
	DB	080H
	DB	080H
	DB	080H
	DB	0ffH
	DB	080H
	DB	080H
	DB	080H
	DB	0ffH
	DB	080H
	DB	080H
	DB	080H
	DB	0ffH
	DB	080H
	DB	084H
	DB	080H
	DB	0ffH
	DB	080H
	DB	080H
	DB	080H
	DB	0ffH
	DB	080H
	DB	080H
	DB	080H
	DB	0ffH
	DB	080H
	DB	080H
	DB	080H
	DB	0ffH
	DB	080H
	DB	084H
	DB	080H
	DB	0ffH
	DB	080H
	DB	080H
	DB	080H
	DB	0ffH
	DB	080H
	DB	080H
	DB	080H
	DB	0ffH
	DB	080H
	DB	080H
	DB	080H
	DB	0ffH
	DB	080H
	DB	084H
	DB	080H
	DB	0ffH
	DB	080H
	DB	080H
	DB	080H
	DB	0ffH
	DB	080H
	DB	080H
	DB	080H
	DB	0ffH
	DB	080H
	DB	080H
	DB	080H
	DB	0ffH
	DB	080H
	DB	084H
	DB	080H
	DB	0ffH
	DB	080H
	DB	080H
	DB	080H
	DB	0ffH
	DB	080H
	DB	080H
	DB	080H
	DB	0ffH
	DB	080H
	DB	080H
	DB	080H
	DB	0ffH
	DB	080H
	DB	084H
	DB	080H
	DB	0ffH
	DB	080H
	DB	080H
	DB	080H
	DB	0ffH
	DB	080H
	DB	080H
	DB	080H
	DB	0ffH
	DB	080H
	DB	080H
	DB	080H
	DB	0ffH
	DB	080H
	DB	084H
	DB	080H
	DB	0ffH
	DB	080H
	DB	080H
	DB	080H
	DB	0ffH
	DB	080H
	DB	080H
	DB	080H
	DB	0ffH
	DB	080H
	DB	080H
	DB	080H
	DB	0ffH
	DB	080H
	DB	084H
	DB	080H
	DB	0ffH
	DB	080H
	DB	080H
	DB	080H
	DB	0ffH
	DB	080H
	DB	080H
	DB	080H
	DB	0ffH
	DB	080H
	DB	080H
	DB	080H
	DB	0ffH
	DB	080H
	DB	084H
	DB	080H
	DB	0ffH
	DB	080H
	DB	080H
	DB	080H
	DB	0ffH
	DB	080H
	DB	080H
	DB	080H
	DB	0ffH
	DB	080H
	DB	080H
	DB	080H
	DB	0ffH
	DB	080H
	DB	084H
	DB	080H
	DB	0ffH
	DB	080H
	DB	080H
	DB	080H
	DB	0ffH
	DB	080H
	DB	080H
	DB	080H
	DB	0ffH
	DB	080H
	DB	080H
	DB	080H
	DB	0ffH
	DB	080H
	DB	084H
	DB	080H
	DB	0ffH
	DB	080H
	DB	080H
	DB	080H
	DB	0ffH
	DB	080H
	DB	080H
	DB	080H
	DB	0ffH
	DB	080H
	DB	080H
	DB	080H
	DB	0ffH
	DB	080H
	DB	084H
	DB	080H
	DB	0ffH
	DB	080H
	DB	080H
	DB	080H
	DB	0ffH
	DB	080H
	DB	080H
	DB	080H
	DB	0ffH
	DB	080H
	DB	080H
	DB	080H
	DB	0ffH
	DB	080H
	DB	084H
	DB	080H
	DB	0ffH
	DB	080H
	DB	080H
	DB	080H
	DB	0ffH
	DB	080H
	DB	080H
	DB	080H
	DB	0ffH
	DB	080H
	DB	080H
	DB	080H
	DB	0ffH
	DB	080H
	DB	084H
	DB	080H
	DB	0ffH
	DB	080H
	DB	080H
	DB	080H
	DB	0ffH
	DB	080H
	DB	080H
	DB	080H
	DB	0ffH
	DB	080H
	DB	080H
	DB	080H
	DB	0ffH
	DB	080H
	DB	084H
	DB	080H
	DB	0ffH
	DB	080H
	DB	080H
	DB	080H
	DB	0ffH
	DB	080H
	DB	080H
	DB	080H
	DB	0ffH
	DB	080H
	DB	080H
	DB	080H
	DB	0ffH
	DB	080H
	DB	084H
	DB	080H
	DB	0ffH
	DB	080H
	DB	080H
	DB	080H
	DB	0ffH
	DB	080H
	DB	080H
	DB	080H
	DB	0ffH
	DB	080H
	DB	080H
	DB	080H
	DB	0ffH
	DB	080H
	DB	084H
	DB	080H
	DB	0ffH
	DB	080H
	DB	080H
	DB	080H
	DB	0ffH
	DB	080H
	DB	080H
	DB	080H
	DB	0ffH
	DB	080H
	DB	080H
	DB	080H
	DB	0ffH
	DB	080H
	DB	084H
	DB	080H
	DB	0ffH
	DB	080H
	DB	080H
	DB	080H
	DB	0ffH
	DB	080H
	DB	080H
	DB	080H
	DB	0ffH
	DB	080H
	DB	080H
	DB	080H
	DB	0ffH
	DB	080H
	DB	084H
	DB	080H
	DB	0ffH
	DB	080H
	DB	080H
	DB	080H
	DB	0ffH
	DB	080H
	DB	080H
	DB	080H
	DB	0ffH
	DB	080H
	DB	080H
	DB	080H
	DB	0ffH
	DB	080H
	DB	084H
	DB	080H
	DB	0ffH
	DB	080H
	DB	080H
	DB	080H
	DB	0ffH
	DB	080H
	DB	080H
	DB	080H
	DB	0ffH
	DB	080H
	DB	080H
	DB	080H
	DB	0ffH
	DB	080H
	DB	084H
	DB	080H
	DB	0ffH
	DB	080H
	DB	080H
	DB	080H
	DB	0ffH
	DB	080H
	DB	080H
	DB	080H
	DB	0ffH
	DB	080H
	DB	080H
	DB	080H
	DB	0ffH
	DB	080H
	DB	084H
	DB	080H
	DB	0ffH
	DB	080H
	DB	080H
	DB	080H
	DB	0ffH
	DB	080H
	DB	080H
	DB	080H
	DB	0ffH
	DB	080H
	DB	080H
	DB	080H
	DB	0ffH
	DB	080H
	DB	084H
	DB	080H
	DB	0ffH
	DB	080H
	DB	080H
	DB	080H
	DB	0ffH
	DB	080H
	DB	080H
	DB	080H
	DB	0ffH
	DB	080H
	DB	080H
	DB	080H
	DB	0ffH
	DB	080H
	DB	084H
	DB	080H
	DB	0ffH
	DB	080H
	DB	080H
	DB	080H
	DB	0ffH
	DB	080H
	DB	080H
	DB	080H
	DB	0ffH
	DB	080H
	DB	080H
	DB	080H
	DB	0ffH
	DB	080H
	DB	084H
	DB	080H
	DB	0ffH
	DB	080H
	DB	080H
	DB	080H
	DB	0ffH
	DB	080H
	DB	080H
	DB	080H
	DB	0ffH
	DB	080H
	DB	080H
	DB	080H
	DB	0ffH
	DB	080H
	DB	084H
	DB	080H
	DB	0ffH
	DB	080H
	DB	080H
	DB	080H
	DB	0ffH
	DB	080H
	DB	080H
	DB	080H
	DB	0ffH
	DB	080H
	DB	080H
	DB	080H
	DB	0ffH
	DB	080H
	DB	084H
	DB	080H
	DB	0ffH
	DB	080H
	DB	080H
	DB	080H
	DB	0ffH
	DB	080H
	DB	080H
	DB	080H
	DB	0ffH
	DB	080H
	DB	080H
	DB	080H
	DB	0ffH
	DB	080H
	DB	084H
	DB	080H
	DB	0ffH
	DB	080H
	DB	080H
	DB	080H
	DB	0ffH
	DB	080H
	DB	080H
	DB	080H
	DB	0ffH
	DB	080H
	DB	080H
	DB	080H
	DB	0ffH
	DB	080H
	DB	084H
	DB	080H
	DB	0ffH
	DB	080H
	DB	080H
	DB	080H
	DB	0ffH
	DB	080H
	DB	080H
	DB	080H
	DB	0ffH
	DB	080H
	DB	080H
	DB	080H
	DB	0ffH
	DB	080H
	DB	084H
	DB	080H
	DB	0ffH
	DB	080H
	DB	080H
	DB	080H
	DB	0ffH
	DB	080H
	DB	080H
	DB	080H
	DB	0ffH
	DB	080H
	DB	080H
	DB	080H
	DB	0ffH
	DB	080H
	DB	084H
	DB	080H
	DB	0ffH
	DB	080H
	DB	080H
	DB	080H
	DB	0ffH
	DB	080H
	DB	080H
	DB	080H
	DB	0ffH
	DB	080H
	DB	080H
	DB	080H
	DB	0ffH
	DB	080H
	DB	084H
	DB	080H
	DB	0ffH
	DB	080H
	DB	080H
	DB	080H
	DB	0ffH
	DB	080H
	DB	080H
	DB	080H
	DB	0ffH
	DB	080H
	DB	080H
	DB	080H
	DB	0ffH
	DB	080H
	DB	084H
	DB	080H
	DB	0ffH
	DB	080H
	DB	080H
	DB	080H
	DB	0ffH
	DB	080H
	DB	080H
	DB	080H
	DB	0ffH
	DB	080H
	DB	080H
	DB	080H
	DB	0ffH
	DB	080H
	DB	084H
	DB	080H
	DB	0ffH
	DB	080H
	DB	080H
	DB	080H
	DB	0ffH
	DB	080H
	DB	080H
	DB	080H
	DB	0ffH
	DB	080H
	DB	080H
	DB	080H
	DB	0ffH
	DB	080H
	DB	084H
	DB	080H
	DB	0ffH
	DB	080H
	DB	080H
	DB	080H
	DB	0ffH
	DB	080H
	DB	080H
	DB	080H
	DB	0ffH
	DB	080H
	DB	080H
	DB	080H
	DB	0ffH
	DB	080H
	DB	084H
	DB	080H
	DB	0ffH
	DB	080H
	DB	080H
	DB	080H
	DB	0ffH
	DB	080H
	DB	080H
	DB	080H
	DB	0ffH
	DB	080H
	DB	080H
	DB	080H
	DB	0ffH
	DB	080H
	DB	084H
	DB	080H
	DB	0ffH
	DB	080H
	DB	080H
	DB	080H
	DB	0ffH
	DB	080H
	DB	080H
	DB	080H
	DB	0ffH
	DB	080H
	DB	080H
	DB	080H
	DB	0ffH
	DB	080H
	DB	084H
	DB	080H
	DB	0ffH
	DB	080H
	DB	080H
	DB	080H
	DB	0ffH
	DB	080H
	DB	080H
	DB	080H
	DB	0ffH
	DB	080H
	DB	080H
	DB	080H
	DB	0ffH
	DB	080H
	DB	084H
	DB	080H
	DB	0ffH
	DB	00H
	DB	00H
	DB	00H
	DB	00H
	DB	00H
	DB	00H
	DB	00H
	DB	00H
	DB	080H
	DB	07cH
	DB	080H
	DB	0ffH
	DB	080H
	DB	080H
	DB	080H
	DB	0ffH
	DB	080H
	DB	080H
	DB	080H
	DB	0ffH
	DB	080H
	DB	07cH
	DB	080H
	DB	0ffH
	DB	080H
	DB	080H
	DB	080H
	DB	0ffH
	DB	080H
	DB	07cH
	DB	080H
	DB	0ffH
	DB	080H
	DB	080H
	DB	080H
	DB	0ffH
	DB	080H
	DB	07cH
	DB	080H
	DB	0ffH
	DB	080H
	DB	080H
	DB	080H
	DB	0ffH
	DB	080H
	DB	07cH
	DB	080H
	DB	0ffH
	DB	080H
	DB	080H
	DB	080H
	DB	0ffH
	DB	080H
	DB	07cH
	DB	080H
	DB	0ffH
	DB	080H
	DB	080H
	DB	080H
	DB	0ffH
	DB	080H
	DB	07cH
	DB	080H
	DB	0ffH
	DB	080H
	DB	080H
	DB	080H
	DB	0ffH
	DB	080H
	DB	07cH
	DB	080H
	DB	0ffH
	DB	080H
	DB	080H
	DB	080H
	DB	0ffH
	DB	080H
	DB	07cH
	DB	080H
	DB	0ffH
	DB	080H
	DB	080H
	DB	080H
	DB	0ffH
	DB	080H
	DB	07cH
	DB	080H
	DB	0ffH
	DB	080H
	DB	080H
	DB	080H
	DB	0ffH
	DB	080H
	DB	07cH
	DB	080H
	DB	0ffH
	DB	080H
	DB	080H
	DB	080H
	DB	0ffH
	DB	080H
	DB	07cH
	DB	080H
	DB	0ffH
	DB	080H
	DB	080H
	DB	080H
	DB	0ffH
	DB	080H
	DB	07cH
	DB	080H
	DB	0ffH
	DB	080H
	DB	080H
	DB	080H
	DB	0ffH
	DB	080H
	DB	07cH
	DB	080H
	DB	0ffH
	DB	080H
	DB	080H
	DB	080H
	DB	0ffH
	DB	080H
	DB	07cH
	DB	080H
	DB	0ffH
	DB	080H
	DB	080H
	DB	080H
	DB	0ffH
	DB	080H
	DB	07cH
	DB	080H
	DB	0ffH
	DB	080H
	DB	080H
	DB	080H
	DB	0ffH
	DB	080H
	DB	07cH
	DB	080H
	DB	0ffH
	DB	080H
	DB	080H
	DB	080H
	DB	0ffH
	DB	080H
	DB	07cH
	DB	080H
	DB	0ffH
	DB	080H
	DB	080H
	DB	080H
	DB	0ffH
	DB	080H
	DB	07cH
	DB	080H
	DB	0ffH
	DB	080H
	DB	080H
	DB	080H
	DB	0ffH
	DB	080H
	DB	07cH
	DB	080H
	DB	0ffH
	DB	080H
	DB	080H
	DB	080H
	DB	0ffH
	DB	080H
	DB	07cH
	DB	080H
	DB	0ffH
	DB	080H
	DB	080H
	DB	080H
	DB	0ffH
	DB	080H
	DB	07cH
	DB	080H
	DB	0ffH
	DB	080H
	DB	080H
	DB	080H
	DB	0ffH
	DB	080H
	DB	07cH
	DB	080H
	DB	0ffH
	DB	080H
	DB	080H
	DB	080H
	DB	0ffH
	DB	080H
	DB	07cH
	DB	080H
	DB	0ffH
	DB	080H
	DB	080H
	DB	080H
	DB	0ffH
	DB	080H
	DB	07cH
	DB	080H
	DB	0ffH
	DB	080H
	DB	080H
	DB	080H
	DB	0ffH
	DB	080H
	DB	07cH
	DB	080H
	DB	0ffH
	DB	080H
	DB	080H
	DB	080H
	DB	0ffH
	DB	080H
	DB	07cH
	DB	080H
	DB	0ffH
	DB	080H
	DB	080H
	DB	080H
	DB	0ffH
	DB	080H
	DB	07cH
	DB	080H
	DB	0ffH
	DB	080H
	DB	080H
	DB	080H
	DB	0ffH
	DB	080H
	DB	07cH
	DB	080H
	DB	0ffH
	DB	080H
	DB	080H
	DB	080H
	DB	0ffH
	DB	080H
	DB	07cH
	DB	080H
	DB	0ffH
	DB	080H
	DB	080H
	DB	080H
	DB	0ffH
	DB	080H
	DB	07cH
	DB	080H
	DB	0ffH
	DB	080H
	DB	080H
	DB	080H
	DB	0ffH
	DB	080H
	DB	07cH
	DB	080H
	DB	0ffH
	DB	080H
	DB	080H
	DB	080H
	DB	0ffH
	DB	080H
	DB	07cH
	DB	080H
	DB	0ffH
	DB	080H
	DB	080H
	DB	080H
	DB	0ffH
	DB	080H
	DB	07cH
	DB	080H
	DB	0ffH
	DB	080H
	DB	080H
	DB	080H
	DB	0ffH
	DB	080H
	DB	07cH
	DB	080H
	DB	0ffH
	DB	080H
	DB	080H
	DB	080H
	DB	0ffH
	DB	080H
	DB	07cH
	DB	080H
	DB	0ffH
	DB	080H
	DB	080H
	DB	080H
	DB	0ffH
	DB	080H
	DB	07cH
	DB	080H
	DB	0ffH
	DB	080H
	DB	080H
	DB	080H
	DB	0ffH
	DB	080H
	DB	07cH
	DB	080H
	DB	0ffH
	DB	080H
	DB	080H
	DB	080H
	DB	0ffH
	DB	080H
	DB	07cH
	DB	080H
	DB	0ffH
	DB	080H
	DB	080H
	DB	080H
	DB	0ffH
	DB	080H
	DB	07cH
	DB	080H
	DB	0ffH
	DB	080H
	DB	080H
	DB	080H
	DB	0ffH
	DB	080H
	DB	07cH
	DB	080H
	DB	0ffH
	DB	080H
	DB	080H
	DB	080H
	DB	0ffH
	DB	080H
	DB	07cH
	DB	080H
	DB	0ffH
	DB	080H
	DB	080H
	DB	080H
	DB	0ffH
	DB	080H
	DB	07cH
	DB	080H
	DB	0ffH
	DB	080H
	DB	080H
	DB	080H
	DB	0ffH
	DB	080H
	DB	07cH
	DB	080H
	DB	0ffH
	DB	080H
	DB	080H
	DB	080H
	DB	0ffH
	DB	080H
	DB	07cH
	DB	080H
	DB	0ffH
	DB	080H
	DB	080H
	DB	080H
	DB	0ffH
	DB	080H
	DB	07cH
	DB	080H
	DB	0ffH
	DB	080H
	DB	080H
	DB	080H
	DB	0ffH
	DB	080H
	DB	07cH
	DB	080H
	DB	0ffH
	DB	080H
	DB	080H
	DB	080H
	DB	0ffH
	DB	080H
	DB	07cH
	DB	080H
	DB	0ffH
	DB	080H
	DB	080H
	DB	080H
	DB	0ffH
	DB	080H
	DB	07cH
	DB	080H
	DB	0ffH
	DB	080H
	DB	080H
	DB	080H
	DB	0ffH
	DB	080H
	DB	07cH
	DB	080H
	DB	0ffH
	DB	080H
	DB	080H
	DB	080H
	DB	0ffH
	DB	080H
	DB	07cH
	DB	080H
	DB	0ffH
	DB	080H
	DB	080H
	DB	080H
	DB	0ffH
	DB	080H
	DB	07cH
	DB	080H
	DB	0ffH
	DB	080H
	DB	080H
	DB	080H
	DB	0ffH
	DB	080H
	DB	07cH
	DB	080H
	DB	0ffH
	DB	080H
	DB	080H
	DB	080H
	DB	0ffH
	DB	080H
	DB	07cH
	DB	080H
	DB	0ffH
	DB	080H
	DB	080H
	DB	080H
	DB	0ffH
	DB	080H
	DB	07cH
	DB	080H
	DB	0ffH
	DB	080H
	DB	080H
	DB	080H
	DB	0ffH
	DB	080H
	DB	07cH
	DB	080H
	DB	0ffH
	DB	080H
	DB	080H
	DB	080H
	DB	0ffH
	DB	080H
	DB	07cH
	DB	080H
	DB	0ffH
	DB	080H
	DB	080H
	DB	080H
	DB	0ffH
	DB	080H
	DB	07cH
	DB	080H
	DB	0ffH
	DB	080H
	DB	080H
	DB	080H
	DB	0ffH
	DB	080H
	DB	07cH
	DB	080H
	DB	0ffH
	DB	080H
	DB	080H
	DB	080H
	DB	0ffH
	DB	080H
	DB	07cH
	DB	080H
	DB	0ffH
	DB	080H
	DB	080H
	DB	080H
	DB	0ffH
	DB	080H
	DB	07cH
	DB	080H
	DB	0ffH
	DB	080H
	DB	080H
	DB	080H
	DB	0ffH
	DB	080H
	DB	07cH
	DB	080H
	DB	0ffH
	DB	080H
	DB	080H
	DB	080H
	DB	0ffH
	DB	080H
	DB	07cH
	DB	080H
	DB	0ffH
	DB	080H
	DB	080H
	DB	080H
	DB	0ffH
	DB	080H
	DB	07cH
	DB	080H
	DB	0ffH
	DB	080H
	DB	080H
	DB	080H
	DB	0ffH
	DB	080H
	DB	07cH
	DB	080H
	DB	0ffH
	DB	080H
	DB	080H
	DB	080H
	DB	0ffH
	DB	080H
	DB	07cH
	DB	080H
	DB	0ffH
	DB	080H
	DB	080H
	DB	080H
	DB	0ffH
	DB	080H
	DB	07cH
	DB	080H
	DB	0ffH
	DB	080H
	DB	080H
	DB	080H
	DB	0ffH
	DB	080H
	DB	07cH
	DB	080H
	DB	0ffH
	DB	080H
	DB	080H
	DB	080H
	DB	0ffH
	DB	080H
	DB	07cH
	DB	080H
	DB	0ffH
	DB	080H
	DB	080H
	DB	080H
	DB	0ffH
	DB	080H
	DB	07cH
	DB	080H
	DB	0ffH
	DB	080H
	DB	080H
	DB	080H
	DB	0ffH
	DB	080H
	DB	07cH
	DB	080H
	DB	0ffH
	DB	080H
	DB	080H
	DB	080H
	DB	0ffH
	DB	080H
	DB	07cH
	DB	080H
	DB	0ffH
	DB	080H
	DB	080H
	DB	080H
	DB	0ffH
	DB	080H
	DB	07cH
	DB	080H
	DB	0ffH
	DB	080H
	DB	080H
	DB	080H
	DB	0ffH
	DB	080H
	DB	07cH
	DB	080H
	DB	0ffH
	DB	080H
	DB	080H
	DB	080H
	DB	0ffH
	DB	080H
	DB	07cH
	DB	080H
	DB	0ffH
	DB	080H
	DB	080H
	DB	080H
	DB	0ffH
	DB	080H
	DB	07cH
	DB	080H
	DB	0ffH
	DB	080H
	DB	080H
	DB	080H
	DB	0ffH
	DB	080H
	DB	07cH
	DB	080H
	DB	0ffH
	DB	080H
	DB	080H
	DB	080H
	DB	0ffH
	DB	080H
	DB	07cH
	DB	080H
	DB	0ffH
	DB	080H
	DB	080H
	DB	080H
	DB	0ffH
	DB	080H
	DB	07cH
	DB	080H
	DB	0ffH
	DB	080H
	DB	080H
	DB	080H
	DB	0ffH
	DB	080H
	DB	07cH
	DB	080H
	DB	0ffH
	DB	080H
	DB	080H
	DB	080H
	DB	0ffH
	DB	080H
	DB	07cH
	DB	080H
	DB	0ffH
	DB	080H
	DB	080H
	DB	080H
	DB	0ffH
	DB	080H
	DB	07cH
	DB	080H
	DB	0ffH
	DB	080H
	DB	080H
	DB	080H
	DB	0ffH
	DB	080H
	DB	07cH
	DB	080H
	DB	0ffH
	DB	080H
	DB	080H
	DB	080H
	DB	0ffH
	DB	080H
	DB	07cH
	DB	080H
	DB	0ffH
	DB	080H
	DB	080H
	DB	080H
	DB	0ffH
	DB	080H
	DB	07cH
	DB	080H
	DB	0ffH
	DB	080H
	DB	080H
	DB	080H
	DB	0ffH
	DB	080H
	DB	07cH
	DB	080H
	DB	0ffH
	DB	080H
	DB	080H
	DB	080H
	DB	0ffH
	DB	080H
	DB	07cH
	DB	080H
	DB	0ffH
	DB	080H
	DB	080H
	DB	080H
	DB	0ffH
	DB	080H
	DB	07cH
	DB	080H
	DB	0ffH
	DB	080H
	DB	080H
	DB	080H
	DB	0ffH
	DB	080H
	DB	07cH
	DB	080H
	DB	0ffH
	DB	080H
	DB	080H
	DB	080H
	DB	0ffH
	DB	080H
	DB	07cH
	DB	080H
	DB	0ffH
	DB	080H
	DB	080H
	DB	080H
	DB	0ffH
	DB	080H
	DB	07cH
	DB	080H
	DB	0ffH
	DB	080H
	DB	080H
	DB	080H
	DB	0ffH
	DB	080H
	DB	07cH
	DB	080H
	DB	0ffH
	DB	080H
	DB	080H
	DB	080H
	DB	0ffH
	DB	080H
	DB	07cH
	DB	080H
	DB	0ffH
	DB	080H
	DB	080H
	DB	080H
	DB	0ffH
	DB	080H
	DB	07cH
	DB	080H
	DB	0ffH
	DB	080H
	DB	080H
	DB	080H
	DB	0ffH
	DB	080H
	DB	07cH
	DB	080H
	DB	0ffH
	DB	080H
	DB	080H
	DB	080H
	DB	0ffH
	DB	080H
	DB	07cH
	DB	080H
	DB	0ffH
	DB	080H
	DB	080H
	DB	080H
	DB	0ffH
	DB	080H
	DB	07cH
	DB	080H
	DB	0ffH
	DB	080H
	DB	080H
	DB	080H
	DB	0ffH
	DB	080H
	DB	07cH
	DB	080H
	DB	0ffH
	DB	080H
	DB	080H
	DB	080H
	DB	0ffH
	DB	080H
	DB	07cH
	DB	080H
	DB	0ffH
	DB	080H
	DB	080H
	DB	080H
	DB	0ffH
	DB	080H
	DB	07cH
	DB	080H
	DB	0ffH
	DB	080H
	DB	080H
	DB	080H
	DB	0ffH
	DB	080H
	DB	07cH
	DB	080H
	DB	0ffH
	DB	080H
	DB	080H
	DB	080H
	DB	0ffH
	DB	080H
	DB	07cH
	DB	080H
	DB	0ffH
	DB	080H
	DB	080H
	DB	080H
	DB	0ffH
	DB	080H
	DB	07cH
	DB	080H
	DB	0ffH
	DB	080H
	DB	080H
	DB	080H
	DB	0ffH
	DB	080H
	DB	07cH
	DB	080H
	DB	0ffH
	DB	080H
	DB	080H
	DB	080H
	DB	0ffH
	DB	080H
	DB	07cH
	DB	080H
	DB	0ffH
	DB	080H
	DB	080H
	DB	080H
	DB	0ffH
	DB	080H
	DB	07cH
	DB	080H
	DB	0ffH
	DB	080H
	DB	080H
	DB	080H
	DB	0ffH
	DB	080H
	DB	07cH
	DB	080H
	DB	0ffH
	DB	080H
	DB	080H
	DB	080H
	DB	0ffH
	DB	080H
	DB	07cH
	DB	080H
	DB	0ffH
	DB	080H
	DB	080H
	DB	080H
	DB	0ffH
	DB	080H
	DB	07cH
	DB	080H
	DB	0ffH
	DB	080H
	DB	080H
	DB	080H
	DB	0ffH
	DB	080H
	DB	07cH
	DB	080H
	DB	0ffH
	DB	080H
	DB	080H
	DB	080H
	DB	0ffH
	DB	080H
	DB	07cH
	DB	080H
	DB	0ffH
	DB	080H
	DB	080H
	DB	080H
	DB	0ffH
	DB	080H
	DB	07cH
	DB	080H
	DB	0ffH
	DB	080H
	DB	080H
	DB	080H
	DB	0ffH
	DB	080H
	DB	07cH
	DB	080H
	DB	0ffH
	DB	080H
	DB	080H
	DB	080H
	DB	0ffH
	DB	080H
	DB	07cH
	DB	080H
	DB	0ffH
	DB	080H
	DB	080H
	DB	080H
	DB	0ffH
	DB	080H
	DB	07cH
	DB	080H
	DB	0ffH
	DB	080H
	DB	080H
	DB	080H
	DB	0ffH
	DB	080H
	DB	07cH
	DB	080H
	DB	0ffH
	DB	080H
	DB	080H
	DB	080H
	DB	0ffH
	DB	080H
	DB	07cH
	DB	080H
	DB	0ffH
	DB	080H
	DB	080H
	DB	080H
	DB	0ffH
	DB	080H
	DB	07cH
	DB	080H
	DB	0ffH
	DB	080H
	DB	080H
	DB	080H
	DB	0ffH
	DB	080H
	DB	07cH
	DB	080H
	DB	0ffH
	DB	080H
	DB	080H
	DB	080H
	DB	0ffH
	DB	080H
	DB	07cH
	DB	080H
	DB	0ffH
	DB	080H
	DB	080H
	DB	080H
	DB	0ffH
	DB	080H
	DB	07cH
	DB	080H
	DB	0ffH
	DB	080H
	DB	080H
	DB	080H
	DB	0ffH
	DB	080H
	DB	07cH
	DB	080H
	DB	0ffH
	DB	080H
	DB	080H
	DB	080H
	DB	0ffH
	DB	080H
	DB	07cH
	DB	080H
	DB	0ffH
	DB	080H
	DB	080H
	DB	080H
	DB	0ffH
	DB	080H
	DB	07cH
	DB	080H
	DB	0ffH
	DB	080H
	DB	080H
	DB	080H
	DB	0ffH
	DB	080H
	DB	07cH
	DB	080H
	DB	0ffH
	DB	080H
	DB	080H
	DB	080H
	DB	0ffH
	DB	080H
	DB	07cH
	DB	080H
	DB	0ffH
	DB	080H
	DB	080H
	DB	080H
	DB	0ffH
	DB	080H
	DB	07cH
	DB	080H
	DB	0ffH
	DB	080H
	DB	080H
	DB	080H
	DB	0ffH
	DB	080H
	DB	07cH
	DB	080H
	DB	0ffH
	DB	080H
	DB	080H
	DB	080H
	DB	0ffH
	DB	080H
	DB	07cH
	DB	080H
	DB	0ffH
	DB	080H
	DB	080H
	DB	080H
	DB	0ffH
	DB	080H
	DB	07cH
	DB	080H
	DB	0ffH
	DB	080H
	DB	080H
	DB	080H
	DB	0ffH
	DB	080H
	DB	07cH
	DB	080H
	DB	0ffH
	DB	080H
	DB	080H
	DB	080H
	DB	0ffH
	DB	080H
	DB	07cH
	DB	080H
	DB	0ffH
	DB	080H
	DB	080H
	DB	080H
	DB	0ffH
	DB	080H
	DB	07cH
	DB	080H
	DB	0ffH
	DB	080H
	DB	080H
	DB	080H
	DB	0ffH
	DB	080H
	DB	07cH
	DB	080H
	DB	0ffH
	DB	080H
	DB	080H
	DB	080H
	DB	0ffH
	DB	080H
	DB	07cH
	DB	080H
	DB	0ffH
	DB	080H
	DB	080H
	DB	080H
	DB	0ffH
	DB	080H
	DB	07cH
	DB	080H
	DB	0ffH
	DB	080H
	DB	080H
	DB	080H
	DB	0ffH
	DB	080H
	DB	07cH
	DB	080H
	DB	0ffH
	DB	080H
	DB	080H
	DB	080H
	DB	0ffH
	DB	080H
	DB	07cH
	DB	080H
	DB	0ffH
	DB	080H
	DB	080H
	DB	080H
	DB	0ffH
	DB	080H
	DB	07cH
	DB	080H
	DB	0ffH
	DB	080H
	DB	080H
	DB	080H
	DB	0ffH
	DB	080H
	DB	07cH
	DB	080H
	DB	0ffH
	DB	080H
	DB	080H
	DB	080H
	DB	0ffH
	DB	080H
	DB	07cH
	DB	080H
	DB	0ffH
	DB	080H
	DB	080H
	DB	080H
	DB	0ffH
	DB	080H
	DB	07cH
	DB	080H
	DB	0ffH
	DB	080H
	DB	080H
	DB	080H
	DB	0ffH
	DB	080H
	DB	07cH
	DB	080H
	DB	0ffH
	DB	080H
	DB	080H
	DB	080H
	DB	0ffH
	DB	080H
	DB	07cH
	DB	080H
	DB	0ffH
	DB	080H
	DB	080H
	DB	080H
	DB	0ffH
	DB	080H
	DB	07cH
	DB	080H
	DB	0ffH
	DB	080H
	DB	080H
	DB	080H
	DB	0ffH
	DB	080H
	DB	07cH
	DB	080H
	DB	0ffH
	DB	080H
	DB	080H
	DB	080H
	DB	0ffH
	DB	080H
	DB	07cH
	DB	080H
	DB	0ffH
	DB	080H
	DB	080H
	DB	080H
	DB	0ffH
	DB	080H
	DB	07cH
	DB	080H
	DB	0ffH
	DB	080H
	DB	080H
	DB	080H
	DB	0ffH
	DB	080H
	DB	07cH
	DB	080H
	DB	0ffH
	DB	080H
	DB	080H
	DB	080H
	DB	0ffH
	DB	080H
	DB	07cH
	DB	080H
	DB	0ffH
	DB	080H
	DB	080H
	DB	080H
	DB	0ffH
	DB	080H
	DB	07cH
	DB	080H
	DB	0ffH
	DB	080H
	DB	080H
	DB	080H
	DB	0ffH
	DB	080H
	DB	07cH
	DB	080H
	DB	0ffH
	DB	080H
	DB	080H
	DB	080H
	DB	0ffH
	DB	080H
	DB	07cH
	DB	080H
	DB	0ffH
	DB	080H
	DB	080H
	DB	080H
	DB	0ffH
	DB	080H
	DB	07cH
	DB	080H
	DB	0ffH
	DB	080H
	DB	080H
	DB	080H
	DB	0ffH
	DB	080H
	DB	07cH
	DB	080H
	DB	0ffH
	DB	080H
	DB	080H
	DB	080H
	DB	0ffH
	DB	080H
	DB	07cH
	DB	080H
	DB	0ffH
	DB	080H
	DB	080H
	DB	080H
	DB	0ffH
	DB	080H
	DB	07cH
	DB	080H
	DB	0ffH
	DB	080H
	DB	080H
	DB	080H
	DB	0ffH
	DB	080H
	DB	07cH
	DB	080H
	DB	0ffH
	DB	080H
	DB	080H
	DB	080H
	DB	0ffH
	DB	080H
	DB	07cH
	DB	080H
	DB	0ffH
	DB	080H
	DB	080H
	DB	080H
	DB	0ffH
	DB	080H
	DB	07cH
	DB	080H
	DB	0ffH
	DB	080H
	DB	080H
	DB	080H
	DB	0ffH
	DB	080H
	DB	07cH
	DB	080H
	DB	0ffH
	DB	080H
	DB	080H
	DB	080H
	DB	0ffH
	DB	080H
	DB	07cH
	DB	080H
	DB	0ffH
	DB	080H
	DB	080H
	DB	080H
	DB	0ffH
	DB	080H
	DB	07cH
	DB	080H
	DB	0ffH
	DB	080H
	DB	080H
	DB	080H
	DB	0ffH
	DB	080H
	DB	07cH
	DB	080H
	DB	0ffH
	DB	080H
	DB	080H
	DB	080H
	DB	0ffH
	DB	080H
	DB	07cH
	DB	080H
	DB	0ffH
	DB	080H
	DB	080H
	DB	080H
	DB	0ffH
	DB	080H
	DB	07cH
	DB	080H
	DB	0ffH
	DB	080H
	DB	080H
	DB	080H
	DB	0ffH
	DB	080H
	DB	07cH
	DB	080H
	DB	0ffH
	DB	080H
	DB	080H
	DB	080H
	DB	0ffH
	DB	080H
	DB	07cH
	DB	080H
	DB	0ffH
	DB	080H
	DB	080H
	DB	080H
	DB	0ffH
	DB	080H
	DB	07cH
	DB	080H
	DB	0ffH
	DB	080H
	DB	080H
	DB	080H
	DB	0ffH
	DB	080H
	DB	07cH
	DB	080H
	DB	0ffH
	DB	080H
	DB	080H
	DB	080H
	DB	0ffH
	DB	080H
	DB	07cH
	DB	080H
	DB	0ffH
	DB	080H
	DB	080H
	DB	080H
	DB	0ffH
	DB	080H
	DB	07cH
	DB	080H
	DB	0ffH
	DB	080H
	DB	080H
	DB	080H
	DB	0ffH
	DB	080H
	DB	07cH
	DB	080H
	DB	0ffH
	DB	080H
	DB	080H
	DB	080H
	DB	0ffH
	DB	080H
	DB	07cH
	DB	080H
	DB	0ffH
	DB	080H
	DB	07cH
	DB	080H
	DB	0ffH
	DB	080H
	DB	080H
	DB	080H
	DB	0ffH
	DB	00H
	DB	00H
	DB	00H
	DB	00H
	DB	00H
	DB	00H
	DB	00H
	DB	00H
	DB	078H
	DB	078H
	DB	078H
	DB	0ffH
	DB	078H
	DB	078H
	DB	078H
	DB	0ffH
	DB	078H
	DB	078H
	DB	078H
	DB	0ffH
	DB	078H
	DB	078H
	DB	078H
	DB	0ffH
	DB	078H
	DB	078H
	DB	078H
	DB	0ffH
	DB	078H
	DB	078H
	DB	078H
	DB	0ffH
	DB	078H
	DB	078H
	DB	078H
	DB	0ffH
	DB	078H
	DB	078H
	DB	078H
	DB	0ffH
	DB	078H
	DB	078H
	DB	078H
	DB	0ffH
	DB	078H
	DB	078H
	DB	078H
	DB	0ffH
	DB	078H
	DB	078H
	DB	078H
	DB	0ffH
	DB	078H
	DB	078H
	DB	078H
	DB	0ffH
	DB	078H
	DB	078H
	DB	078H
	DB	0ffH
	DB	078H
	DB	078H
	DB	078H
	DB	0ffH
	DB	078H
	DB	078H
	DB	078H
	DB	0ffH
	DB	078H
	DB	078H
	DB	078H
	DB	0ffH
	DB	078H
	DB	078H
	DB	078H
	DB	0ffH
	DB	078H
	DB	078H
	DB	078H
	DB	0ffH
	DB	078H
	DB	078H
	DB	078H
	DB	0ffH
	DB	078H
	DB	078H
	DB	078H
	DB	0ffH
	DB	078H
	DB	078H
	DB	078H
	DB	0ffH
	DB	078H
	DB	078H
	DB	078H
	DB	0ffH
	DB	078H
	DB	078H
	DB	078H
	DB	0ffH
	DB	078H
	DB	078H
	DB	078H
	DB	0ffH
	DB	078H
	DB	078H
	DB	078H
	DB	0ffH
	DB	078H
	DB	078H
	DB	078H
	DB	0ffH
	DB	078H
	DB	078H
	DB	078H
	DB	0ffH
	DB	078H
	DB	078H
	DB	078H
	DB	0ffH
	DB	078H
	DB	078H
	DB	078H
	DB	0ffH
	DB	078H
	DB	078H
	DB	078H
	DB	0ffH
	DB	078H
	DB	078H
	DB	078H
	DB	0ffH
	DB	078H
	DB	078H
	DB	078H
	DB	0ffH
	DB	078H
	DB	078H
	DB	078H
	DB	0ffH
	DB	078H
	DB	078H
	DB	078H
	DB	0ffH
	DB	078H
	DB	078H
	DB	078H
	DB	0ffH
	DB	078H
	DB	078H
	DB	078H
	DB	0ffH
	DB	078H
	DB	078H
	DB	078H
	DB	0ffH
	DB	078H
	DB	078H
	DB	078H
	DB	0ffH
	DB	078H
	DB	078H
	DB	078H
	DB	0ffH
	DB	078H
	DB	078H
	DB	078H
	DB	0ffH
	DB	078H
	DB	078H
	DB	078H
	DB	0ffH
	DB	078H
	DB	078H
	DB	078H
	DB	0ffH
	DB	078H
	DB	078H
	DB	078H
	DB	0ffH
	DB	078H
	DB	078H
	DB	078H
	DB	0ffH
	DB	078H
	DB	078H
	DB	078H
	DB	0ffH
	DB	078H
	DB	078H
	DB	078H
	DB	0ffH
	DB	078H
	DB	078H
	DB	078H
	DB	0ffH
	DB	078H
	DB	078H
	DB	078H
	DB	0ffH
	DB	078H
	DB	078H
	DB	078H
	DB	0ffH
	DB	078H
	DB	078H
	DB	078H
	DB	0ffH
	DB	078H
	DB	078H
	DB	078H
	DB	0ffH
	DB	078H
	DB	078H
	DB	078H
	DB	0ffH
	DB	078H
	DB	078H
	DB	078H
	DB	0ffH
	DB	078H
	DB	078H
	DB	078H
	DB	0ffH
	DB	078H
	DB	078H
	DB	078H
	DB	0ffH
	DB	078H
	DB	078H
	DB	078H
	DB	0ffH
	DB	078H
	DB	078H
	DB	078H
	DB	0ffH
	DB	078H
	DB	078H
	DB	078H
	DB	0ffH
	DB	078H
	DB	078H
	DB	078H
	DB	0ffH
	DB	078H
	DB	078H
	DB	078H
	DB	0ffH
	DB	078H
	DB	078H
	DB	078H
	DB	0ffH
	DB	078H
	DB	078H
	DB	078H
	DB	0ffH
	DB	078H
	DB	078H
	DB	078H
	DB	0ffH
	DB	078H
	DB	078H
	DB	078H
	DB	0ffH
	DB	078H
	DB	078H
	DB	078H
	DB	0ffH
	DB	078H
	DB	078H
	DB	078H
	DB	0ffH
	DB	078H
	DB	078H
	DB	078H
	DB	0ffH
	DB	078H
	DB	078H
	DB	078H
	DB	0ffH
	DB	078H
	DB	078H
	DB	078H
	DB	0ffH
	DB	078H
	DB	078H
	DB	078H
	DB	0ffH
	DB	078H
	DB	078H
	DB	078H
	DB	0ffH
	DB	078H
	DB	078H
	DB	078H
	DB	0ffH
	DB	078H
	DB	078H
	DB	078H
	DB	0ffH
	DB	078H
	DB	078H
	DB	078H
	DB	0ffH
	DB	078H
	DB	078H
	DB	078H
	DB	0ffH
	DB	078H
	DB	078H
	DB	078H
	DB	0ffH
	DB	078H
	DB	078H
	DB	078H
	DB	0ffH
	DB	078H
	DB	078H
	DB	078H
	DB	0ffH
	DB	078H
	DB	078H
	DB	078H
	DB	0ffH
	DB	078H
	DB	078H
	DB	078H
	DB	0ffH
	DB	078H
	DB	078H
	DB	078H
	DB	0ffH
	DB	078H
	DB	078H
	DB	078H
	DB	0ffH
	DB	078H
	DB	078H
	DB	078H
	DB	0ffH
	DB	078H
	DB	078H
	DB	078H
	DB	0ffH
	DB	078H
	DB	078H
	DB	078H
	DB	0ffH
	DB	078H
	DB	078H
	DB	078H
	DB	0ffH
	DB	078H
	DB	078H
	DB	078H
	DB	0ffH
	DB	078H
	DB	078H
	DB	078H
	DB	0ffH
	DB	078H
	DB	078H
	DB	078H
	DB	0ffH
	DB	078H
	DB	078H
	DB	078H
	DB	0ffH
	DB	078H
	DB	078H
	DB	078H
	DB	0ffH
	DB	078H
	DB	078H
	DB	078H
	DB	0ffH
	DB	078H
	DB	078H
	DB	078H
	DB	0ffH
	DB	078H
	DB	078H
	DB	078H
	DB	0ffH
	DB	078H
	DB	078H
	DB	078H
	DB	0ffH
	DB	078H
	DB	078H
	DB	078H
	DB	0ffH
	DB	078H
	DB	078H
	DB	078H
	DB	0ffH
	DB	078H
	DB	078H
	DB	078H
	DB	0ffH
	DB	078H
	DB	078H
	DB	078H
	DB	0ffH
	DB	078H
	DB	078H
	DB	078H
	DB	0ffH
	DB	078H
	DB	078H
	DB	078H
	DB	0ffH
	DB	078H
	DB	078H
	DB	078H
	DB	0ffH
	DB	078H
	DB	078H
	DB	078H
	DB	0ffH
	DB	078H
	DB	078H
	DB	078H
	DB	0ffH
	DB	078H
	DB	078H
	DB	078H
	DB	0ffH
	DB	078H
	DB	078H
	DB	078H
	DB	0ffH
	DB	078H
	DB	078H
	DB	078H
	DB	0ffH
	DB	078H
	DB	078H
	DB	078H
	DB	0ffH
	DB	078H
	DB	078H
	DB	078H
	DB	0ffH
	DB	078H
	DB	078H
	DB	078H
	DB	0ffH
	DB	078H
	DB	078H
	DB	078H
	DB	0ffH
	DB	078H
	DB	078H
	DB	078H
	DB	0ffH
	DB	078H
	DB	078H
	DB	078H
	DB	0ffH
	DB	078H
	DB	078H
	DB	078H
	DB	0ffH
	DB	078H
	DB	078H
	DB	078H
	DB	0ffH
	DB	078H
	DB	078H
	DB	078H
	DB	0ffH
	DB	078H
	DB	078H
	DB	078H
	DB	0ffH
	DB	078H
	DB	078H
	DB	078H
	DB	0ffH
	DB	078H
	DB	078H
	DB	078H
	DB	0ffH
	DB	078H
	DB	078H
	DB	078H
	DB	0ffH
	DB	078H
	DB	078H
	DB	078H
	DB	0ffH
	DB	078H
	DB	078H
	DB	078H
	DB	0ffH
	DB	078H
	DB	078H
	DB	078H
	DB	0ffH
	DB	078H
	DB	078H
	DB	078H
	DB	0ffH
	DB	078H
	DB	078H
	DB	078H
	DB	0ffH
	DB	078H
	DB	078H
	DB	078H
	DB	0ffH
	DB	078H
	DB	078H
	DB	078H
	DB	0ffH
	DB	078H
	DB	078H
	DB	078H
	DB	0ffH
	DB	078H
	DB	078H
	DB	078H
	DB	0ffH
	DB	078H
	DB	078H
	DB	078H
	DB	0ffH
	DB	078H
	DB	078H
	DB	078H
	DB	0ffH
	DB	078H
	DB	078H
	DB	078H
	DB	0ffH
	DB	078H
	DB	078H
	DB	078H
	DB	0ffH
	DB	078H
	DB	078H
	DB	078H
	DB	0ffH
	DB	078H
	DB	078H
	DB	078H
	DB	0ffH
	DB	078H
	DB	078H
	DB	078H
	DB	0ffH
	DB	078H
	DB	078H
	DB	078H
	DB	0ffH
	DB	078H
	DB	078H
	DB	078H
	DB	0ffH
	DB	078H
	DB	078H
	DB	078H
	DB	0ffH
	DB	078H
	DB	078H
	DB	078H
	DB	0ffH
	DB	078H
	DB	078H
	DB	078H
	DB	0ffH
	DB	078H
	DB	078H
	DB	078H
	DB	0ffH
	DB	078H
	DB	078H
	DB	078H
	DB	0ffH
	DB	078H
	DB	078H
	DB	078H
	DB	0ffH
	DB	078H
	DB	078H
	DB	078H
	DB	0ffH
	DB	078H
	DB	078H
	DB	078H
	DB	0ffH
	DB	078H
	DB	078H
	DB	078H
	DB	0ffH
	DB	078H
	DB	078H
	DB	078H
	DB	0ffH
	DB	078H
	DB	078H
	DB	078H
	DB	0ffH
	DB	078H
	DB	078H
	DB	078H
	DB	0ffH
	DB	078H
	DB	078H
	DB	078H
	DB	0ffH
	DB	078H
	DB	078H
	DB	078H
	DB	0ffH
	DB	078H
	DB	078H
	DB	078H
	DB	0ffH
	DB	078H
	DB	078H
	DB	078H
	DB	0ffH
	DB	078H
	DB	078H
	DB	078H
	DB	0ffH
	DB	078H
	DB	078H
	DB	078H
	DB	0ffH
	DB	078H
	DB	078H
	DB	078H
	DB	0ffH
	DB	078H
	DB	078H
	DB	078H
	DB	0ffH
	DB	078H
	DB	078H
	DB	078H
	DB	0ffH
	DB	078H
	DB	078H
	DB	078H
	DB	0ffH
	DB	078H
	DB	078H
	DB	078H
	DB	0ffH
	DB	078H
	DB	078H
	DB	078H
	DB	0ffH
	DB	078H
	DB	078H
	DB	078H
	DB	0ffH
	DB	078H
	DB	078H
	DB	078H
	DB	0ffH
	DB	078H
	DB	078H
	DB	078H
	DB	0ffH
	DB	078H
	DB	078H
	DB	078H
	DB	0ffH
	DB	078H
	DB	078H
	DB	078H
	DB	0ffH
	DB	078H
	DB	078H
	DB	078H
	DB	0ffH
	DB	078H
	DB	078H
	DB	078H
	DB	0ffH
	DB	078H
	DB	078H
	DB	078H
	DB	0ffH
	DB	078H
	DB	078H
	DB	078H
	DB	0ffH
	DB	078H
	DB	078H
	DB	078H
	DB	0ffH
	DB	078H
	DB	078H
	DB	078H
	DB	0ffH
	DB	078H
	DB	078H
	DB	078H
	DB	0ffH
	DB	078H
	DB	078H
	DB	078H
	DB	0ffH
	DB	078H
	DB	078H
	DB	078H
	DB	0ffH
	DB	078H
	DB	078H
	DB	078H
	DB	0ffH
	DB	078H
	DB	078H
	DB	078H
	DB	0ffH
	DB	078H
	DB	078H
	DB	078H
	DB	0ffH
	DB	078H
	DB	078H
	DB	078H
	DB	0ffH
	DB	078H
	DB	078H
	DB	078H
	DB	0ffH
	DB	078H
	DB	078H
	DB	078H
	DB	0ffH
	DB	078H
	DB	078H
	DB	078H
	DB	0ffH
	DB	078H
	DB	078H
	DB	078H
	DB	0ffH
	DB	078H
	DB	078H
	DB	078H
	DB	0ffH
	DB	078H
	DB	078H
	DB	078H
	DB	0ffH
	DB	078H
	DB	078H
	DB	078H
	DB	0ffH
	DB	078H
	DB	078H
	DB	078H
	DB	0ffH
	DB	078H
	DB	078H
	DB	078H
	DB	0ffH
	DB	078H
	DB	078H
	DB	078H
	DB	0ffH
	DB	078H
	DB	078H
	DB	078H
	DB	0ffH
	DB	078H
	DB	078H
	DB	078H
	DB	0ffH
	DB	078H
	DB	078H
	DB	078H
	DB	0ffH
	DB	078H
	DB	078H
	DB	078H
	DB	0ffH
	DB	078H
	DB	078H
	DB	078H
	DB	0ffH
	DB	078H
	DB	078H
	DB	078H
	DB	0ffH
	DB	078H
	DB	078H
	DB	078H
	DB	0ffH
	DB	078H
	DB	078H
	DB	078H
	DB	0ffH
	DB	078H
	DB	078H
	DB	078H
	DB	0ffH
	DB	078H
	DB	078H
	DB	078H
	DB	0ffH
	DB	078H
	DB	078H
	DB	078H
	DB	0ffH
	DB	078H
	DB	078H
	DB	078H
	DB	0ffH
	DB	078H
	DB	078H
	DB	078H
	DB	0ffH
	DB	078H
	DB	078H
	DB	078H
	DB	0ffH
	DB	078H
	DB	078H
	DB	078H
	DB	0ffH
	DB	078H
	DB	078H
	DB	078H
	DB	0ffH
	DB	078H
	DB	078H
	DB	078H
	DB	0ffH
	DB	078H
	DB	078H
	DB	078H
	DB	0ffH
	DB	078H
	DB	078H
	DB	078H
	DB	0ffH
	DB	078H
	DB	078H
	DB	078H
	DB	0ffH
	DB	078H
	DB	078H
	DB	078H
	DB	0ffH
	DB	078H
	DB	078H
	DB	078H
	DB	0ffH
	DB	078H
	DB	078H
	DB	078H
	DB	0ffH
	DB	078H
	DB	078H
	DB	078H
	DB	0ffH
	DB	078H
	DB	078H
	DB	078H
	DB	0ffH
	DB	078H
	DB	078H
	DB	078H
	DB	0ffH
	DB	078H
	DB	078H
	DB	078H
	DB	0ffH
	DB	078H
	DB	078H
	DB	078H
	DB	0ffH
	DB	078H
	DB	078H
	DB	078H
	DB	0ffH
	DB	078H
	DB	078H
	DB	078H
	DB	0ffH
	DB	078H
	DB	078H
	DB	078H
	DB	0ffH
	DB	078H
	DB	078H
	DB	078H
	DB	0ffH
	DB	078H
	DB	078H
	DB	078H
	DB	0ffH
	DB	078H
	DB	078H
	DB	078H
	DB	0ffH
	DB	078H
	DB	078H
	DB	078H
	DB	0ffH
	DB	078H
	DB	078H
	DB	078H
	DB	0ffH
	DB	078H
	DB	078H
	DB	078H
	DB	0ffH
	DB	078H
	DB	078H
	DB	078H
	DB	0ffH
	DB	078H
	DB	078H
	DB	078H
	DB	0ffH
	DB	078H
	DB	078H
	DB	078H
	DB	0ffH
	DB	078H
	DB	078H
	DB	078H
	DB	0ffH
	DB	078H
	DB	078H
	DB	078H
	DB	0ffH
	DB	078H
	DB	078H
	DB	078H
	DB	0ffH
	DB	078H
	DB	078H
	DB	078H
	DB	0ffH
	DB	078H
	DB	078H
	DB	078H
	DB	0ffH
	DB	078H
	DB	078H
	DB	078H
	DB	0ffH
	DB	078H
	DB	078H
	DB	078H
	DB	0ffH
	DB	078H
	DB	078H
	DB	078H
	DB	0ffH
	DB	078H
	DB	078H
	DB	078H
	DB	0ffH
	DB	078H
	DB	078H
	DB	078H
	DB	0ffH
	DB	078H
	DB	078H
	DB	078H
	DB	0ffH
	DB	078H
	DB	078H
	DB	078H
	DB	0ffH
	DB	078H
	DB	078H
	DB	078H
	DB	0ffH
	DB	078H
	DB	078H
	DB	078H
	DB	0ffH
	DB	078H
	DB	078H
	DB	078H
	DB	0ffH
	DB	078H
	DB	078H
	DB	078H
	DB	0ffH
	DB	078H
	DB	078H
	DB	078H
	DB	0ffH
	DB	078H
	DB	078H
	DB	078H
	DB	0ffH
	DB	078H
	DB	078H
	DB	078H
	DB	0ffH
	DB	078H
	DB	078H
	DB	078H
	DB	0ffH
	DB	078H
	DB	078H
	DB	078H
	DB	0ffH
	DB	078H
	DB	078H
	DB	078H
	DB	0ffH
	DB	078H
	DB	078H
	DB	078H
	DB	0ffH
	DB	078H
	DB	078H
	DB	078H
	DB	0ffH
	DB	078H
	DB	078H
	DB	078H
	DB	0ffH
	DB	078H
	DB	078H
	DB	078H
	DB	0ffH
	DB	078H
	DB	078H
	DB	078H
	DB	0ffH
	DB	078H
	DB	078H
	DB	078H
	DB	0ffH
	DB	078H
	DB	078H
	DB	078H
	DB	0ffH
	DB	078H
	DB	078H
	DB	078H
	DB	0ffH
	DB	078H
	DB	078H
	DB	078H
	DB	0ffH
	DB	078H
	DB	078H
	DB	078H
	DB	0ffH
	DB	078H
	DB	078H
	DB	078H
	DB	0ffH
	DB	078H
	DB	078H
	DB	078H
	DB	0ffH
	DB	078H
	DB	078H
	DB	078H
	DB	0ffH
	DB	078H
	DB	078H
	DB	078H
	DB	0ffH
	DB	078H
	DB	078H
	DB	078H
	DB	0ffH
	DB	078H
	DB	078H
	DB	078H
	DB	0ffH
	DB	078H
	DB	078H
	DB	078H
	DB	0ffH
	DB	078H
	DB	078H
	DB	078H
	DB	0ffH
	DB	078H
	DB	078H
	DB	078H
	DB	0ffH
	DB	078H
	DB	078H
	DB	078H
	DB	0ffH
	DB	078H
	DB	078H
	DB	078H
	DB	0ffH
	DB	078H
	DB	078H
	DB	078H
	DB	0ffH
	DB	078H
	DB	078H
	DB	078H
	DB	0ffH
	DB	078H
	DB	078H
	DB	078H
	DB	0ffH
	DB	078H
	DB	078H
	DB	078H
	DB	0ffH
	DB	078H
	DB	078H
	DB	078H
	DB	0ffH
	DB	078H
	DB	078H
	DB	078H
	DB	0ffH
	DB	078H
	DB	078H
	DB	078H
	DB	0ffH
	DB	078H
	DB	078H
	DB	078H
	DB	0ffH
	DB	078H
	DB	078H
	DB	078H
	DB	0ffH
	DB	078H
	DB	078H
	DB	078H
	DB	0ffH
	DB	078H
	DB	078H
	DB	078H
	DB	0ffH
	DB	078H
	DB	078H
	DB	078H
	DB	0ffH
	DB	078H
	DB	078H
	DB	078H
	DB	0ffH
	DB	078H
	DB	078H
	DB	078H
	DB	0ffH
	DB	078H
	DB	078H
	DB	078H
	DB	0ffH
	DB	078H
	DB	078H
	DB	078H
	DB	0ffH
	DB	078H
	DB	078H
	DB	078H
	DB	0ffH
	DB	078H
	DB	078H
	DB	078H
	DB	0ffH
	DB	078H
	DB	078H
	DB	078H
	DB	0ffH
	DB	078H
	DB	078H
	DB	078H
	DB	0ffH
	DB	078H
	DB	078H
	DB	078H
	DB	0ffH
	DB	078H
	DB	078H
	DB	078H
	DB	0ffH
	DB	078H
	DB	078H
	DB	078H
	DB	0ffH
	DB	078H
	DB	078H
	DB	078H
	DB	0ffH
	DB	078H
	DB	078H
	DB	078H
	DB	0ffH
	DB	078H
	DB	078H
	DB	078H
	DB	0ffH
	DB	078H
	DB	078H
	DB	078H
	DB	0ffH
	DB	078H
	DB	078H
	DB	078H
	DB	0ffH
	DB	078H
	DB	078H
	DB	078H
	DB	0ffH
	DB	078H
	DB	078H
	DB	078H
	DB	0ffH
	DB	078H
	DB	078H
	DB	078H
	DB	0ffH
	DB	078H
	DB	078H
	DB	078H
	DB	0ffH
	DB	078H
	DB	078H
	DB	078H
	DB	0ffH
	DB	078H
	DB	078H
	DB	078H
	DB	0ffH
	DB	078H
	DB	078H
	DB	078H
	DB	0ffH
	DB	078H
	DB	078H
	DB	078H
	DB	0ffH
	DB	078H
	DB	078H
	DB	078H
	DB	0ffH
	DB	078H
	DB	078H
	DB	078H
	DB	0ffH
	DB	078H
	DB	078H
	DB	078H
	DB	0ffH
	DB	078H
	DB	078H
	DB	078H
	DB	0ffH
	DB	078H
	DB	078H
	DB	078H
	DB	0ffH
	DB	078H
	DB	078H
	DB	078H
	DB	0ffH
	DB	078H
	DB	078H
	DB	078H
	DB	0ffH
	DB	078H
	DB	078H
	DB	078H
	DB	0ffH
	DB	078H
	DB	078H
	DB	078H
	DB	0ffH
	DB	078H
	DB	078H
	DB	078H
	DB	0ffH
	DB	078H
	DB	078H
	DB	078H
	DB	0ffH
	DB	078H
	DB	078H
	DB	078H
	DB	0ffH
	DB	078H
	DB	078H
	DB	078H
	DB	0ffH
	DB	078H
	DB	078H
	DB	078H
	DB	0ffH
	DB	078H
	DB	078H
	DB	078H
	DB	0ffH
	DB	078H
	DB	078H
	DB	078H
	DB	0ffH
	DB	078H
	DB	078H
	DB	078H
	DB	0ffH
	DB	078H
	DB	078H
	DB	078H
	DB	0ffH
	DB	078H
	DB	078H
	DB	078H
	DB	0ffH
	DB	078H
	DB	078H
	DB	078H
	DB	0ffH
	DB	078H
	DB	078H
	DB	078H
	DB	0ffH
	DB	078H
	DB	078H
	DB	078H
	DB	0ffH
	DB	078H
	DB	078H
	DB	078H
	DB	0ffH
	DB	078H
	DB	078H
	DB	078H
	DB	0ffH
	DB	078H
	DB	078H
	DB	078H
	DB	0ffH
	DB	078H
	DB	078H
	DB	078H
	DB	0ffH
	DB	078H
	DB	078H
	DB	078H
	DB	0ffH
	DB	078H
	DB	078H
	DB	078H
	DB	0ffH
	DB	078H
	DB	078H
	DB	078H
	DB	0ffH
	DB	078H
	DB	078H
	DB	078H
	DB	0ffH
	DB	078H
	DB	078H
	DB	078H
	DB	0ffH
	DB	078H
	DB	078H
	DB	078H
	DB	0ffH
	DB	078H
	DB	078H
	DB	078H
	DB	0ffH
	DB	078H
	DB	078H
	DB	078H
	DB	0ffH
	DB	078H
	DB	078H
	DB	078H
	DB	0ffH
	DB	078H
	DB	078H
	DB	078H
	DB	0ffH
	DB	078H
	DB	078H
	DB	078H
	DB	0ffH
	DB	078H
	DB	078H
	DB	078H
	DB	0ffH
	DB	078H
	DB	078H
	DB	078H
	DB	0ffH
	DB	078H
	DB	078H
	DB	078H
	DB	0ffH
	DB	078H
	DB	078H
	DB	078H
	DB	0ffH
	DB	00H
	DB	00H
	DB	00H
	DB	00H
	DB	00H
	DB	00H
	DB	00H
	DB	00H
	DB	070H
	DB	074H
	DB	070H
	DB	0ffH
	DB	070H
	DB	074H
	DB	070H
	DB	0ffH
	DB	070H
	DB	074H
	DB	070H
	DB	0ffH
	DB	070H
	DB	074H
	DB	070H
	DB	0ffH
	DB	070H
	DB	074H
	DB	070H
	DB	0ffH
	DB	070H
	DB	074H
	DB	070H
	DB	0ffH
	DB	070H
	DB	074H
	DB	070H
	DB	0ffH
	DB	078H
	DB	074H
	DB	078H
	DB	0ffH
	DB	070H
	DB	074H
	DB	070H
	DB	0ffH
	DB	070H
	DB	074H
	DB	070H
	DB	0ffH
	DB	078H
	DB	074H
	DB	078H
	DB	0ffH
	DB	070H
	DB	074H
	DB	070H
	DB	0ffH
	DB	070H
	DB	074H
	DB	070H
	DB	0ffH
	DB	078H
	DB	074H
	DB	078H
	DB	0ffH
	DB	070H
	DB	074H
	DB	070H
	DB	0ffH
	DB	070H
	DB	074H
	DB	070H
	DB	0ffH
	DB	078H
	DB	074H
	DB	078H
	DB	0ffH
	DB	070H
	DB	074H
	DB	070H
	DB	0ffH
	DB	070H
	DB	074H
	DB	070H
	DB	0ffH
	DB	078H
	DB	074H
	DB	078H
	DB	0ffH
	DB	070H
	DB	074H
	DB	070H
	DB	0ffH
	DB	070H
	DB	074H
	DB	070H
	DB	0ffH
	DB	078H
	DB	074H
	DB	078H
	DB	0ffH
	DB	070H
	DB	074H
	DB	070H
	DB	0ffH
	DB	070H
	DB	074H
	DB	070H
	DB	0ffH
	DB	078H
	DB	074H
	DB	078H
	DB	0ffH
	DB	070H
	DB	074H
	DB	070H
	DB	0ffH
	DB	070H
	DB	074H
	DB	070H
	DB	0ffH
	DB	078H
	DB	074H
	DB	078H
	DB	0ffH
	DB	070H
	DB	074H
	DB	070H
	DB	0ffH
	DB	070H
	DB	074H
	DB	070H
	DB	0ffH
	DB	078H
	DB	074H
	DB	078H
	DB	0ffH
	DB	070H
	DB	074H
	DB	070H
	DB	0ffH
	DB	070H
	DB	074H
	DB	070H
	DB	0ffH
	DB	078H
	DB	074H
	DB	078H
	DB	0ffH
	DB	070H
	DB	074H
	DB	070H
	DB	0ffH
	DB	070H
	DB	074H
	DB	070H
	DB	0ffH
	DB	078H
	DB	074H
	DB	078H
	DB	0ffH
	DB	070H
	DB	074H
	DB	070H
	DB	0ffH
	DB	070H
	DB	074H
	DB	070H
	DB	0ffH
	DB	078H
	DB	074H
	DB	078H
	DB	0ffH
	DB	070H
	DB	074H
	DB	070H
	DB	0ffH
	DB	070H
	DB	074H
	DB	070H
	DB	0ffH
	DB	078H
	DB	074H
	DB	078H
	DB	0ffH
	DB	070H
	DB	074H
	DB	070H
	DB	0ffH
	DB	070H
	DB	074H
	DB	070H
	DB	0ffH
	DB	078H
	DB	074H
	DB	078H
	DB	0ffH
	DB	070H
	DB	074H
	DB	070H
	DB	0ffH
	DB	070H
	DB	074H
	DB	070H
	DB	0ffH
	DB	078H
	DB	074H
	DB	078H
	DB	0ffH
	DB	070H
	DB	074H
	DB	070H
	DB	0ffH
	DB	070H
	DB	074H
	DB	070H
	DB	0ffH
	DB	078H
	DB	074H
	DB	078H
	DB	0ffH
	DB	070H
	DB	074H
	DB	070H
	DB	0ffH
	DB	070H
	DB	074H
	DB	070H
	DB	0ffH
	DB	078H
	DB	074H
	DB	078H
	DB	0ffH
	DB	070H
	DB	074H
	DB	070H
	DB	0ffH
	DB	070H
	DB	074H
	DB	070H
	DB	0ffH
	DB	078H
	DB	074H
	DB	078H
	DB	0ffH
	DB	070H
	DB	074H
	DB	070H
	DB	0ffH
	DB	070H
	DB	074H
	DB	070H
	DB	0ffH
	DB	078H
	DB	074H
	DB	078H
	DB	0ffH
	DB	070H
	DB	074H
	DB	070H
	DB	0ffH
	DB	070H
	DB	074H
	DB	070H
	DB	0ffH
	DB	078H
	DB	074H
	DB	078H
	DB	0ffH
	DB	070H
	DB	074H
	DB	070H
	DB	0ffH
	DB	070H
	DB	074H
	DB	070H
	DB	0ffH
	DB	078H
	DB	074H
	DB	078H
	DB	0ffH
	DB	070H
	DB	074H
	DB	070H
	DB	0ffH
	DB	070H
	DB	074H
	DB	070H
	DB	0ffH
	DB	078H
	DB	074H
	DB	078H
	DB	0ffH
	DB	070H
	DB	074H
	DB	070H
	DB	0ffH
	DB	070H
	DB	074H
	DB	070H
	DB	0ffH
	DB	078H
	DB	074H
	DB	078H
	DB	0ffH
	DB	070H
	DB	074H
	DB	070H
	DB	0ffH
	DB	070H
	DB	074H
	DB	070H
	DB	0ffH
	DB	078H
	DB	074H
	DB	078H
	DB	0ffH
	DB	070H
	DB	074H
	DB	070H
	DB	0ffH
	DB	070H
	DB	074H
	DB	070H
	DB	0ffH
	DB	078H
	DB	074H
	DB	078H
	DB	0ffH
	DB	070H
	DB	074H
	DB	070H
	DB	0ffH
	DB	070H
	DB	074H
	DB	070H
	DB	0ffH
	DB	078H
	DB	074H
	DB	078H
	DB	0ffH
	DB	070H
	DB	074H
	DB	070H
	DB	0ffH
	DB	070H
	DB	074H
	DB	070H
	DB	0ffH
	DB	078H
	DB	074H
	DB	078H
	DB	0ffH
	DB	070H
	DB	074H
	DB	070H
	DB	0ffH
	DB	070H
	DB	074H
	DB	070H
	DB	0ffH
	DB	078H
	DB	074H
	DB	078H
	DB	0ffH
	DB	070H
	DB	074H
	DB	070H
	DB	0ffH
	DB	070H
	DB	074H
	DB	070H
	DB	0ffH
	DB	078H
	DB	074H
	DB	078H
	DB	0ffH
	DB	070H
	DB	074H
	DB	070H
	DB	0ffH
	DB	070H
	DB	074H
	DB	070H
	DB	0ffH
	DB	078H
	DB	074H
	DB	078H
	DB	0ffH
	DB	070H
	DB	074H
	DB	070H
	DB	0ffH
	DB	070H
	DB	074H
	DB	070H
	DB	0ffH
	DB	078H
	DB	074H
	DB	078H
	DB	0ffH
	DB	070H
	DB	074H
	DB	070H
	DB	0ffH
	DB	070H
	DB	074H
	DB	070H
	DB	0ffH
	DB	078H
	DB	074H
	DB	078H
	DB	0ffH
	DB	070H
	DB	074H
	DB	070H
	DB	0ffH
	DB	070H
	DB	074H
	DB	070H
	DB	0ffH
	DB	078H
	DB	074H
	DB	078H
	DB	0ffH
	DB	070H
	DB	074H
	DB	070H
	DB	0ffH
	DB	070H
	DB	074H
	DB	070H
	DB	0ffH
	DB	078H
	DB	074H
	DB	078H
	DB	0ffH
	DB	070H
	DB	074H
	DB	070H
	DB	0ffH
	DB	070H
	DB	074H
	DB	070H
	DB	0ffH
	DB	078H
	DB	074H
	DB	078H
	DB	0ffH
	DB	070H
	DB	074H
	DB	070H
	DB	0ffH
	DB	070H
	DB	074H
	DB	070H
	DB	0ffH
	DB	078H
	DB	074H
	DB	078H
	DB	0ffH
	DB	070H
	DB	074H
	DB	070H
	DB	0ffH
	DB	070H
	DB	074H
	DB	070H
	DB	0ffH
	DB	078H
	DB	074H
	DB	078H
	DB	0ffH
	DB	070H
	DB	074H
	DB	070H
	DB	0ffH
	DB	070H
	DB	074H
	DB	070H
	DB	0ffH
	DB	078H
	DB	074H
	DB	078H
	DB	0ffH
	DB	070H
	DB	074H
	DB	070H
	DB	0ffH
	DB	070H
	DB	074H
	DB	070H
	DB	0ffH
	DB	078H
	DB	074H
	DB	078H
	DB	0ffH
	DB	070H
	DB	074H
	DB	070H
	DB	0ffH
	DB	070H
	DB	074H
	DB	070H
	DB	0ffH
	DB	078H
	DB	074H
	DB	078H
	DB	0ffH
	DB	070H
	DB	074H
	DB	070H
	DB	0ffH
	DB	070H
	DB	074H
	DB	070H
	DB	0ffH
	DB	078H
	DB	074H
	DB	078H
	DB	0ffH
	DB	070H
	DB	074H
	DB	070H
	DB	0ffH
	DB	070H
	DB	074H
	DB	070H
	DB	0ffH
	DB	078H
	DB	074H
	DB	078H
	DB	0ffH
	DB	070H
	DB	074H
	DB	070H
	DB	0ffH
	DB	070H
	DB	074H
	DB	070H
	DB	0ffH
	DB	078H
	DB	074H
	DB	078H
	DB	0ffH
	DB	070H
	DB	074H
	DB	070H
	DB	0ffH
	DB	070H
	DB	074H
	DB	070H
	DB	0ffH
	DB	078H
	DB	074H
	DB	078H
	DB	0ffH
	DB	070H
	DB	074H
	DB	070H
	DB	0ffH
	DB	070H
	DB	074H
	DB	070H
	DB	0ffH
	DB	078H
	DB	074H
	DB	078H
	DB	0ffH
	DB	070H
	DB	074H
	DB	070H
	DB	0ffH
	DB	070H
	DB	074H
	DB	070H
	DB	0ffH
	DB	078H
	DB	074H
	DB	078H
	DB	0ffH
	DB	070H
	DB	074H
	DB	070H
	DB	0ffH
	DB	070H
	DB	074H
	DB	070H
	DB	0ffH
	DB	078H
	DB	074H
	DB	078H
	DB	0ffH
	DB	070H
	DB	074H
	DB	070H
	DB	0ffH
	DB	070H
	DB	074H
	DB	070H
	DB	0ffH
	DB	078H
	DB	074H
	DB	078H
	DB	0ffH
	DB	070H
	DB	074H
	DB	070H
	DB	0ffH
	DB	070H
	DB	074H
	DB	070H
	DB	0ffH
	DB	078H
	DB	074H
	DB	078H
	DB	0ffH
	DB	070H
	DB	074H
	DB	070H
	DB	0ffH
	DB	070H
	DB	074H
	DB	070H
	DB	0ffH
	DB	078H
	DB	074H
	DB	078H
	DB	0ffH
	DB	070H
	DB	074H
	DB	070H
	DB	0ffH
	DB	070H
	DB	074H
	DB	070H
	DB	0ffH
	DB	078H
	DB	074H
	DB	078H
	DB	0ffH
	DB	070H
	DB	074H
	DB	070H
	DB	0ffH
	DB	070H
	DB	074H
	DB	070H
	DB	0ffH
	DB	078H
	DB	074H
	DB	078H
	DB	0ffH
	DB	070H
	DB	074H
	DB	070H
	DB	0ffH
	DB	070H
	DB	074H
	DB	070H
	DB	0ffH
	DB	078H
	DB	074H
	DB	078H
	DB	0ffH
	DB	070H
	DB	074H
	DB	070H
	DB	0ffH
	DB	070H
	DB	074H
	DB	070H
	DB	0ffH
	DB	078H
	DB	074H
	DB	078H
	DB	0ffH
	DB	070H
	DB	074H
	DB	070H
	DB	0ffH
	DB	070H
	DB	074H
	DB	070H
	DB	0ffH
	DB	078H
	DB	074H
	DB	078H
	DB	0ffH
	DB	070H
	DB	074H
	DB	070H
	DB	0ffH
	DB	070H
	DB	074H
	DB	070H
	DB	0ffH
	DB	078H
	DB	074H
	DB	078H
	DB	0ffH
	DB	070H
	DB	074H
	DB	070H
	DB	0ffH
	DB	070H
	DB	074H
	DB	070H
	DB	0ffH
	DB	078H
	DB	074H
	DB	078H
	DB	0ffH
	DB	070H
	DB	074H
	DB	070H
	DB	0ffH
	DB	070H
	DB	074H
	DB	070H
	DB	0ffH
	DB	078H
	DB	074H
	DB	078H
	DB	0ffH
	DB	070H
	DB	074H
	DB	070H
	DB	0ffH
	DB	070H
	DB	074H
	DB	070H
	DB	0ffH
	DB	078H
	DB	074H
	DB	078H
	DB	0ffH
	DB	070H
	DB	074H
	DB	070H
	DB	0ffH
	DB	070H
	DB	074H
	DB	070H
	DB	0ffH
	DB	078H
	DB	074H
	DB	078H
	DB	0ffH
	DB	070H
	DB	074H
	DB	070H
	DB	0ffH
	DB	070H
	DB	074H
	DB	070H
	DB	0ffH
	DB	078H
	DB	074H
	DB	078H
	DB	0ffH
	DB	070H
	DB	074H
	DB	070H
	DB	0ffH
	DB	070H
	DB	074H
	DB	070H
	DB	0ffH
	DB	078H
	DB	074H
	DB	078H
	DB	0ffH
	DB	070H
	DB	074H
	DB	070H
	DB	0ffH
	DB	070H
	DB	074H
	DB	070H
	DB	0ffH
	DB	078H
	DB	074H
	DB	078H
	DB	0ffH
	DB	070H
	DB	074H
	DB	070H
	DB	0ffH
	DB	070H
	DB	074H
	DB	070H
	DB	0ffH
	DB	078H
	DB	074H
	DB	078H
	DB	0ffH
	DB	070H
	DB	074H
	DB	070H
	DB	0ffH
	DB	070H
	DB	074H
	DB	070H
	DB	0ffH
	DB	078H
	DB	074H
	DB	078H
	DB	0ffH
	DB	070H
	DB	074H
	DB	070H
	DB	0ffH
	DB	070H
	DB	074H
	DB	070H
	DB	0ffH
	DB	078H
	DB	074H
	DB	078H
	DB	0ffH
	DB	070H
	DB	074H
	DB	070H
	DB	0ffH
	DB	070H
	DB	074H
	DB	070H
	DB	0ffH
	DB	078H
	DB	074H
	DB	078H
	DB	0ffH
	DB	070H
	DB	074H
	DB	070H
	DB	0ffH
	DB	070H
	DB	074H
	DB	070H
	DB	0ffH
	DB	078H
	DB	074H
	DB	078H
	DB	0ffH
	DB	070H
	DB	074H
	DB	070H
	DB	0ffH
	DB	070H
	DB	074H
	DB	070H
	DB	0ffH
	DB	078H
	DB	074H
	DB	078H
	DB	0ffH
	DB	070H
	DB	074H
	DB	070H
	DB	0ffH
	DB	070H
	DB	074H
	DB	070H
	DB	0ffH
	DB	078H
	DB	074H
	DB	078H
	DB	0ffH
	DB	070H
	DB	074H
	DB	070H
	DB	0ffH
	DB	070H
	DB	074H
	DB	070H
	DB	0ffH
	DB	078H
	DB	074H
	DB	078H
	DB	0ffH
	DB	070H
	DB	074H
	DB	070H
	DB	0ffH
	DB	070H
	DB	074H
	DB	070H
	DB	0ffH
	DB	078H
	DB	074H
	DB	078H
	DB	0ffH
	DB	070H
	DB	074H
	DB	070H
	DB	0ffH
	DB	070H
	DB	074H
	DB	070H
	DB	0ffH
	DB	078H
	DB	074H
	DB	078H
	DB	0ffH
	DB	070H
	DB	074H
	DB	070H
	DB	0ffH
	DB	070H
	DB	074H
	DB	070H
	DB	0ffH
	DB	078H
	DB	074H
	DB	078H
	DB	0ffH
	DB	070H
	DB	074H
	DB	070H
	DB	0ffH
	DB	070H
	DB	074H
	DB	070H
	DB	0ffH
	DB	078H
	DB	074H
	DB	078H
	DB	0ffH
	DB	070H
	DB	074H
	DB	070H
	DB	0ffH
	DB	070H
	DB	074H
	DB	070H
	DB	0ffH
	DB	078H
	DB	074H
	DB	078H
	DB	0ffH
	DB	070H
	DB	074H
	DB	070H
	DB	0ffH
	DB	070H
	DB	074H
	DB	070H
	DB	0ffH
	DB	078H
	DB	074H
	DB	078H
	DB	0ffH
	DB	070H
	DB	074H
	DB	070H
	DB	0ffH
	DB	070H
	DB	074H
	DB	070H
	DB	0ffH
	DB	078H
	DB	074H
	DB	078H
	DB	0ffH
	DB	070H
	DB	074H
	DB	070H
	DB	0ffH
	DB	070H
	DB	074H
	DB	070H
	DB	0ffH
	DB	078H
	DB	074H
	DB	078H
	DB	0ffH
	DB	070H
	DB	074H
	DB	070H
	DB	0ffH
	DB	070H
	DB	074H
	DB	070H
	DB	0ffH
	DB	078H
	DB	074H
	DB	078H
	DB	0ffH
	DB	070H
	DB	074H
	DB	070H
	DB	0ffH
	DB	070H
	DB	074H
	DB	070H
	DB	0ffH
	DB	078H
	DB	074H
	DB	078H
	DB	0ffH
	DB	070H
	DB	074H
	DB	070H
	DB	0ffH
	DB	070H
	DB	074H
	DB	070H
	DB	0ffH
	DB	078H
	DB	074H
	DB	078H
	DB	0ffH
	DB	070H
	DB	074H
	DB	070H
	DB	0ffH
	DB	070H
	DB	074H
	DB	070H
	DB	0ffH
	DB	078H
	DB	074H
	DB	078H
	DB	0ffH
	DB	070H
	DB	074H
	DB	070H
	DB	0ffH
	DB	070H
	DB	074H
	DB	070H
	DB	0ffH
	DB	078H
	DB	074H
	DB	078H
	DB	0ffH
	DB	070H
	DB	074H
	DB	070H
	DB	0ffH
	DB	070H
	DB	074H
	DB	070H
	DB	0ffH
	DB	078H
	DB	074H
	DB	078H
	DB	0ffH
	DB	070H
	DB	074H
	DB	070H
	DB	0ffH
	DB	070H
	DB	074H
	DB	070H
	DB	0ffH
	DB	078H
	DB	074H
	DB	078H
	DB	0ffH
	DB	070H
	DB	074H
	DB	070H
	DB	0ffH
	DB	070H
	DB	074H
	DB	070H
	DB	0ffH
	DB	078H
	DB	074H
	DB	078H
	DB	0ffH
	DB	070H
	DB	074H
	DB	070H
	DB	0ffH
	DB	070H
	DB	074H
	DB	070H
	DB	0ffH
	DB	078H
	DB	074H
	DB	078H
	DB	0ffH
	DB	070H
	DB	074H
	DB	070H
	DB	0ffH
	DB	070H
	DB	074H
	DB	070H
	DB	0ffH
	DB	078H
	DB	074H
	DB	078H
	DB	0ffH
	DB	070H
	DB	074H
	DB	070H
	DB	0ffH
	DB	070H
	DB	074H
	DB	070H
	DB	0ffH
	DB	078H
	DB	074H
	DB	078H
	DB	0ffH
	DB	070H
	DB	074H
	DB	070H
	DB	0ffH
	DB	070H
	DB	074H
	DB	070H
	DB	0ffH
	DB	078H
	DB	074H
	DB	078H
	DB	0ffH
	DB	070H
	DB	074H
	DB	070H
	DB	0ffH
	DB	070H
	DB	074H
	DB	070H
	DB	0ffH
	DB	078H
	DB	074H
	DB	078H
	DB	0ffH
	DB	070H
	DB	074H
	DB	070H
	DB	0ffH
	DB	070H
	DB	074H
	DB	070H
	DB	0ffH
	DB	078H
	DB	074H
	DB	078H
	DB	0ffH
	DB	070H
	DB	074H
	DB	070H
	DB	0ffH
	DB	070H
	DB	074H
	DB	070H
	DB	0ffH
	DB	078H
	DB	074H
	DB	078H
	DB	0ffH
	DB	070H
	DB	074H
	DB	070H
	DB	0ffH
	DB	070H
	DB	074H
	DB	070H
	DB	0ffH
	DB	078H
	DB	074H
	DB	078H
	DB	0ffH
	DB	070H
	DB	074H
	DB	070H
	DB	0ffH
	DB	070H
	DB	074H
	DB	070H
	DB	0ffH
	DB	078H
	DB	074H
	DB	078H
	DB	0ffH
	DB	070H
	DB	074H
	DB	070H
	DB	0ffH
	DB	070H
	DB	074H
	DB	070H
	DB	0ffH
	DB	078H
	DB	074H
	DB	078H
	DB	0ffH
	DB	070H
	DB	074H
	DB	070H
	DB	0ffH
	DB	070H
	DB	074H
	DB	070H
	DB	0ffH
	DB	078H
	DB	074H
	DB	078H
	DB	0ffH
	DB	070H
	DB	074H
	DB	070H
	DB	0ffH
	DB	070H
	DB	074H
	DB	070H
	DB	0ffH
	DB	078H
	DB	074H
	DB	078H
	DB	0ffH
	DB	070H
	DB	074H
	DB	070H
	DB	0ffH
	DB	070H
	DB	074H
	DB	070H
	DB	0ffH
	DB	078H
	DB	074H
	DB	078H
	DB	0ffH
	DB	070H
	DB	074H
	DB	070H
	DB	0ffH
	DB	070H
	DB	074H
	DB	070H
	DB	0ffH
	DB	078H
	DB	074H
	DB	078H
	DB	0ffH
	DB	070H
	DB	074H
	DB	070H
	DB	0ffH
	DB	070H
	DB	074H
	DB	070H
	DB	0ffH
	DB	078H
	DB	074H
	DB	078H
	DB	0ffH
	DB	070H
	DB	074H
	DB	070H
	DB	0ffH
	DB	070H
	DB	074H
	DB	070H
	DB	0ffH
	DB	078H
	DB	074H
	DB	078H
	DB	0ffH
	DB	070H
	DB	074H
	DB	070H
	DB	0ffH
	DB	070H
	DB	074H
	DB	070H
	DB	0ffH
	DB	078H
	DB	074H
	DB	078H
	DB	0ffH
	DB	070H
	DB	074H
	DB	070H
	DB	0ffH
	DB	070H
	DB	074H
	DB	070H
	DB	0ffH
	DB	078H
	DB	074H
	DB	078H
	DB	0ffH
	DB	070H
	DB	074H
	DB	070H
	DB	0ffH
	DB	070H
	DB	074H
	DB	070H
	DB	0ffH
	DB	078H
	DB	074H
	DB	078H
	DB	0ffH
	DB	070H
	DB	074H
	DB	070H
	DB	0ffH
	DB	070H
	DB	074H
	DB	070H
	DB	0ffH
	DB	078H
	DB	074H
	DB	078H
	DB	0ffH
	DB	070H
	DB	074H
	DB	070H
	DB	0ffH
	DB	070H
	DB	074H
	DB	070H
	DB	0ffH
	DB	078H
	DB	074H
	DB	078H
	DB	0ffH
	DB	070H
	DB	074H
	DB	070H
	DB	0ffH
	DB	070H
	DB	074H
	DB	070H
	DB	0ffH
	DB	078H
	DB	074H
	DB	078H
	DB	0ffH
	DB	070H
	DB	074H
	DB	070H
	DB	0ffH
	DB	070H
	DB	074H
	DB	070H
	DB	0ffH
	DB	078H
	DB	074H
	DB	078H
	DB	0ffH
	DB	070H
	DB	074H
	DB	070H
	DB	0ffH
	DB	070H
	DB	074H
	DB	070H
	DB	0ffH
	DB	078H
	DB	074H
	DB	078H
	DB	0ffH
	DB	070H
	DB	074H
	DB	070H
	DB	0ffH
	DB	070H
	DB	074H
	DB	070H
	DB	0ffH
	DB	078H
	DB	074H
	DB	078H
	DB	0ffH
	DB	070H
	DB	074H
	DB	070H
	DB	0ffH
	DB	070H
	DB	074H
	DB	070H
	DB	0ffH
	DB	078H
	DB	074H
	DB	078H
	DB	0ffH
	DB	070H
	DB	074H
	DB	070H
	DB	0ffH
	DB	070H
	DB	074H
	DB	070H
	DB	0ffH
	DB	070H
	DB	074H
	DB	070H
	DB	0ffH
	DB	078H
	DB	074H
	DB	078H
	DB	0ffH
	DB	070H
	DB	074H
	DB	070H
	DB	0ffH
	DB	070H
	DB	074H
	DB	070H
	DB	0ffH
	DB	00H
	DB	00H
	DB	00H
	DB	00H
	DB	00H
	DB	00H
	DB	00H
	DB	00H
	DB	070H
	DB	06cH
	DB	070H
	DB	0ffH
	DB	070H
	DB	06cH
	DB	070H
	DB	0ffH
	DB	070H
	DB	06cH
	DB	070H
	DB	0ffH
	DB	070H
	DB	070H
	DB	070H
	DB	0ffH
	DB	070H
	DB	06cH
	DB	070H
	DB	0ffH
	DB	070H
	DB	06cH
	DB	070H
	DB	0ffH
	DB	070H
	DB	06cH
	DB	070H
	DB	0ffH
	DB	070H
	DB	06cH
	DB	070H
	DB	0ffH
	DB	070H
	DB	06cH
	DB	070H
	DB	0ffH
	DB	070H
	DB	06cH
	DB	070H
	DB	0ffH
	DB	070H
	DB	06cH
	DB	070H
	DB	0ffH
	DB	070H
	DB	06cH
	DB	070H
	DB	0ffH
	DB	070H
	DB	06cH
	DB	070H
	DB	0ffH
	DB	070H
	DB	06cH
	DB	070H
	DB	0ffH
	DB	070H
	DB	06cH
	DB	070H
	DB	0ffH
	DB	070H
	DB	06cH
	DB	070H
	DB	0ffH
	DB	070H
	DB	06cH
	DB	070H
	DB	0ffH
	DB	070H
	DB	06cH
	DB	070H
	DB	0ffH
	DB	070H
	DB	06cH
	DB	070H
	DB	0ffH
	DB	070H
	DB	06cH
	DB	070H
	DB	0ffH
	DB	070H
	DB	06cH
	DB	070H
	DB	0ffH
	DB	070H
	DB	06cH
	DB	070H
	DB	0ffH
	DB	070H
	DB	06cH
	DB	070H
	DB	0ffH
	DB	070H
	DB	06cH
	DB	070H
	DB	0ffH
	DB	070H
	DB	06cH
	DB	070H
	DB	0ffH
	DB	070H
	DB	06cH
	DB	070H
	DB	0ffH
	DB	070H
	DB	06cH
	DB	070H
	DB	0ffH
	DB	070H
	DB	06cH
	DB	070H
	DB	0ffH
	DB	070H
	DB	06cH
	DB	070H
	DB	0ffH
	DB	070H
	DB	06cH
	DB	070H
	DB	0ffH
	DB	070H
	DB	06cH
	DB	070H
	DB	0ffH
	DB	070H
	DB	06cH
	DB	070H
	DB	0ffH
	DB	070H
	DB	06cH
	DB	070H
	DB	0ffH
	DB	070H
	DB	06cH
	DB	070H
	DB	0ffH
	DB	070H
	DB	06cH
	DB	070H
	DB	0ffH
	DB	070H
	DB	06cH
	DB	070H
	DB	0ffH
	DB	070H
	DB	06cH
	DB	070H
	DB	0ffH
	DB	070H
	DB	06cH
	DB	070H
	DB	0ffH
	DB	070H
	DB	06cH
	DB	070H
	DB	0ffH
	DB	070H
	DB	06cH
	DB	070H
	DB	0ffH
	DB	070H
	DB	06cH
	DB	070H
	DB	0ffH
	DB	070H
	DB	06cH
	DB	070H
	DB	0ffH
	DB	070H
	DB	06cH
	DB	070H
	DB	0ffH
	DB	070H
	DB	06cH
	DB	070H
	DB	0ffH
	DB	070H
	DB	06cH
	DB	070H
	DB	0ffH
	DB	070H
	DB	06cH
	DB	070H
	DB	0ffH
	DB	070H
	DB	06cH
	DB	070H
	DB	0ffH
	DB	070H
	DB	06cH
	DB	070H
	DB	0ffH
	DB	070H
	DB	06cH
	DB	070H
	DB	0ffH
	DB	070H
	DB	06cH
	DB	070H
	DB	0ffH
	DB	070H
	DB	06cH
	DB	070H
	DB	0ffH
	DB	070H
	DB	06cH
	DB	070H
	DB	0ffH
	DB	070H
	DB	06cH
	DB	070H
	DB	0ffH
	DB	070H
	DB	06cH
	DB	070H
	DB	0ffH
	DB	070H
	DB	06cH
	DB	070H
	DB	0ffH
	DB	070H
	DB	06cH
	DB	070H
	DB	0ffH
	DB	070H
	DB	06cH
	DB	070H
	DB	0ffH
	DB	070H
	DB	06cH
	DB	070H
	DB	0ffH
	DB	070H
	DB	06cH
	DB	070H
	DB	0ffH
	DB	070H
	DB	06cH
	DB	070H
	DB	0ffH
	DB	070H
	DB	06cH
	DB	070H
	DB	0ffH
	DB	070H
	DB	06cH
	DB	070H
	DB	0ffH
	DB	070H
	DB	06cH
	DB	070H
	DB	0ffH
	DB	070H
	DB	06cH
	DB	070H
	DB	0ffH
	DB	070H
	DB	06cH
	DB	070H
	DB	0ffH
	DB	070H
	DB	06cH
	DB	070H
	DB	0ffH
	DB	070H
	DB	06cH
	DB	070H
	DB	0ffH
	DB	070H
	DB	06cH
	DB	070H
	DB	0ffH
	DB	070H
	DB	06cH
	DB	070H
	DB	0ffH
	DB	070H
	DB	06cH
	DB	070H
	DB	0ffH
	DB	070H
	DB	06cH
	DB	070H
	DB	0ffH
	DB	070H
	DB	06cH
	DB	070H
	DB	0ffH
	DB	070H
	DB	06cH
	DB	070H
	DB	0ffH
	DB	070H
	DB	06cH
	DB	070H
	DB	0ffH
	DB	070H
	DB	06cH
	DB	070H
	DB	0ffH
	DB	070H
	DB	06cH
	DB	070H
	DB	0ffH
	DB	070H
	DB	06cH
	DB	070H
	DB	0ffH
	DB	070H
	DB	06cH
	DB	070H
	DB	0ffH
	DB	070H
	DB	06cH
	DB	070H
	DB	0ffH
	DB	070H
	DB	06cH
	DB	070H
	DB	0ffH
	DB	070H
	DB	06cH
	DB	070H
	DB	0ffH
	DB	070H
	DB	06cH
	DB	070H
	DB	0ffH
	DB	070H
	DB	06cH
	DB	070H
	DB	0ffH
	DB	070H
	DB	06cH
	DB	070H
	DB	0ffH
	DB	070H
	DB	06cH
	DB	070H
	DB	0ffH
	DB	070H
	DB	06cH
	DB	070H
	DB	0ffH
	DB	070H
	DB	06cH
	DB	070H
	DB	0ffH
	DB	070H
	DB	06cH
	DB	070H
	DB	0ffH
	DB	070H
	DB	06cH
	DB	070H
	DB	0ffH
	DB	070H
	DB	06cH
	DB	070H
	DB	0ffH
	DB	070H
	DB	06cH
	DB	070H
	DB	0ffH
	DB	070H
	DB	06cH
	DB	070H
	DB	0ffH
	DB	070H
	DB	06cH
	DB	070H
	DB	0ffH
	DB	070H
	DB	06cH
	DB	070H
	DB	0ffH
	DB	070H
	DB	06cH
	DB	070H
	DB	0ffH
	DB	070H
	DB	06cH
	DB	070H
	DB	0ffH
	DB	070H
	DB	06cH
	DB	070H
	DB	0ffH
	DB	070H
	DB	06cH
	DB	070H
	DB	0ffH
	DB	070H
	DB	06cH
	DB	070H
	DB	0ffH
	DB	070H
	DB	06cH
	DB	070H
	DB	0ffH
	DB	070H
	DB	06cH
	DB	070H
	DB	0ffH
	DB	070H
	DB	06cH
	DB	070H
	DB	0ffH
	DB	070H
	DB	06cH
	DB	070H
	DB	0ffH
	DB	070H
	DB	06cH
	DB	070H
	DB	0ffH
	DB	070H
	DB	06cH
	DB	070H
	DB	0ffH
	DB	070H
	DB	06cH
	DB	070H
	DB	0ffH
	DB	070H
	DB	06cH
	DB	070H
	DB	0ffH
	DB	070H
	DB	06cH
	DB	070H
	DB	0ffH
	DB	070H
	DB	06cH
	DB	070H
	DB	0ffH
	DB	070H
	DB	06cH
	DB	070H
	DB	0ffH
	DB	070H
	DB	06cH
	DB	070H
	DB	0ffH
	DB	070H
	DB	06cH
	DB	070H
	DB	0ffH
	DB	070H
	DB	06cH
	DB	070H
	DB	0ffH
	DB	070H
	DB	06cH
	DB	070H
	DB	0ffH
	DB	070H
	DB	06cH
	DB	070H
	DB	0ffH
	DB	070H
	DB	06cH
	DB	070H
	DB	0ffH
	DB	070H
	DB	06cH
	DB	070H
	DB	0ffH
	DB	070H
	DB	06cH
	DB	070H
	DB	0ffH
	DB	070H
	DB	06cH
	DB	070H
	DB	0ffH
	DB	070H
	DB	06cH
	DB	070H
	DB	0ffH
	DB	070H
	DB	06cH
	DB	070H
	DB	0ffH
	DB	070H
	DB	06cH
	DB	070H
	DB	0ffH
	DB	070H
	DB	06cH
	DB	070H
	DB	0ffH
	DB	070H
	DB	06cH
	DB	070H
	DB	0ffH
	DB	070H
	DB	06cH
	DB	070H
	DB	0ffH
	DB	070H
	DB	06cH
	DB	070H
	DB	0ffH
	DB	070H
	DB	06cH
	DB	070H
	DB	0ffH
	DB	070H
	DB	06cH
	DB	070H
	DB	0ffH
	DB	070H
	DB	06cH
	DB	070H
	DB	0ffH
	DB	070H
	DB	06cH
	DB	070H
	DB	0ffH
	DB	070H
	DB	06cH
	DB	070H
	DB	0ffH
	DB	070H
	DB	06cH
	DB	070H
	DB	0ffH
	DB	070H
	DB	06cH
	DB	070H
	DB	0ffH
	DB	070H
	DB	06cH
	DB	070H
	DB	0ffH
	DB	070H
	DB	06cH
	DB	070H
	DB	0ffH
	DB	070H
	DB	06cH
	DB	070H
	DB	0ffH
	DB	070H
	DB	06cH
	DB	070H
	DB	0ffH
	DB	070H
	DB	06cH
	DB	070H
	DB	0ffH
	DB	070H
	DB	06cH
	DB	070H
	DB	0ffH
	DB	070H
	DB	06cH
	DB	070H
	DB	0ffH
	DB	070H
	DB	06cH
	DB	070H
	DB	0ffH
	DB	070H
	DB	06cH
	DB	070H
	DB	0ffH
	DB	070H
	DB	06cH
	DB	070H
	DB	0ffH
	DB	070H
	DB	06cH
	DB	070H
	DB	0ffH
	DB	070H
	DB	06cH
	DB	070H
	DB	0ffH
	DB	070H
	DB	06cH
	DB	070H
	DB	0ffH
	DB	070H
	DB	06cH
	DB	070H
	DB	0ffH
	DB	070H
	DB	06cH
	DB	070H
	DB	0ffH
	DB	070H
	DB	06cH
	DB	070H
	DB	0ffH
	DB	070H
	DB	06cH
	DB	070H
	DB	0ffH
	DB	070H
	DB	06cH
	DB	070H
	DB	0ffH
	DB	070H
	DB	06cH
	DB	070H
	DB	0ffH
	DB	070H
	DB	06cH
	DB	070H
	DB	0ffH
	DB	070H
	DB	06cH
	DB	070H
	DB	0ffH
	DB	070H
	DB	06cH
	DB	070H
	DB	0ffH
	DB	070H
	DB	06cH
	DB	070H
	DB	0ffH
	DB	070H
	DB	06cH
	DB	070H
	DB	0ffH
	DB	070H
	DB	06cH
	DB	070H
	DB	0ffH
	DB	070H
	DB	06cH
	DB	070H
	DB	0ffH
	DB	070H
	DB	06cH
	DB	070H
	DB	0ffH
	DB	070H
	DB	06cH
	DB	070H
	DB	0ffH
	DB	070H
	DB	06cH
	DB	070H
	DB	0ffH
	DB	070H
	DB	06cH
	DB	070H
	DB	0ffH
	DB	070H
	DB	06cH
	DB	070H
	DB	0ffH
	DB	070H
	DB	06cH
	DB	070H
	DB	0ffH
	DB	070H
	DB	06cH
	DB	070H
	DB	0ffH
	DB	070H
	DB	06cH
	DB	070H
	DB	0ffH
	DB	070H
	DB	06cH
	DB	070H
	DB	0ffH
	DB	070H
	DB	06cH
	DB	070H
	DB	0ffH
	DB	070H
	DB	06cH
	DB	070H
	DB	0ffH
	DB	070H
	DB	06cH
	DB	070H
	DB	0ffH
	DB	070H
	DB	06cH
	DB	070H
	DB	0ffH
	DB	070H
	DB	06cH
	DB	070H
	DB	0ffH
	DB	070H
	DB	06cH
	DB	070H
	DB	0ffH
	DB	070H
	DB	06cH
	DB	070H
	DB	0ffH
	DB	070H
	DB	06cH
	DB	070H
	DB	0ffH
	DB	070H
	DB	06cH
	DB	070H
	DB	0ffH
	DB	070H
	DB	06cH
	DB	070H
	DB	0ffH
	DB	070H
	DB	06cH
	DB	070H
	DB	0ffH
	DB	070H
	DB	06cH
	DB	070H
	DB	0ffH
	DB	070H
	DB	06cH
	DB	070H
	DB	0ffH
	DB	070H
	DB	06cH
	DB	070H
	DB	0ffH
	DB	070H
	DB	06cH
	DB	070H
	DB	0ffH
	DB	070H
	DB	06cH
	DB	070H
	DB	0ffH
	DB	070H
	DB	06cH
	DB	070H
	DB	0ffH
	DB	070H
	DB	06cH
	DB	070H
	DB	0ffH
	DB	070H
	DB	06cH
	DB	070H
	DB	0ffH
	DB	070H
	DB	06cH
	DB	070H
	DB	0ffH
	DB	070H
	DB	06cH
	DB	070H
	DB	0ffH
	DB	070H
	DB	06cH
	DB	070H
	DB	0ffH
	DB	070H
	DB	06cH
	DB	070H
	DB	0ffH
	DB	070H
	DB	06cH
	DB	070H
	DB	0ffH
	DB	070H
	DB	06cH
	DB	070H
	DB	0ffH
	DB	070H
	DB	06cH
	DB	070H
	DB	0ffH
	DB	070H
	DB	06cH
	DB	070H
	DB	0ffH
	DB	070H
	DB	06cH
	DB	070H
	DB	0ffH
	DB	070H
	DB	06cH
	DB	070H
	DB	0ffH
	DB	070H
	DB	06cH
	DB	070H
	DB	0ffH
	DB	070H
	DB	06cH
	DB	070H
	DB	0ffH
	DB	070H
	DB	06cH
	DB	070H
	DB	0ffH
	DB	070H
	DB	06cH
	DB	070H
	DB	0ffH
	DB	070H
	DB	06cH
	DB	070H
	DB	0ffH
	DB	070H
	DB	06cH
	DB	070H
	DB	0ffH
	DB	070H
	DB	06cH
	DB	070H
	DB	0ffH
	DB	070H
	DB	06cH
	DB	070H
	DB	0ffH
	DB	070H
	DB	06cH
	DB	070H
	DB	0ffH
	DB	070H
	DB	06cH
	DB	070H
	DB	0ffH
	DB	070H
	DB	06cH
	DB	070H
	DB	0ffH
	DB	070H
	DB	06cH
	DB	070H
	DB	0ffH
	DB	070H
	DB	06cH
	DB	070H
	DB	0ffH
	DB	070H
	DB	06cH
	DB	070H
	DB	0ffH
	DB	070H
	DB	06cH
	DB	070H
	DB	0ffH
	DB	070H
	DB	06cH
	DB	070H
	DB	0ffH
	DB	070H
	DB	06cH
	DB	070H
	DB	0ffH
	DB	070H
	DB	06cH
	DB	070H
	DB	0ffH
	DB	070H
	DB	06cH
	DB	070H
	DB	0ffH
	DB	070H
	DB	06cH
	DB	070H
	DB	0ffH
	DB	070H
	DB	06cH
	DB	070H
	DB	0ffH
	DB	070H
	DB	06cH
	DB	070H
	DB	0ffH
	DB	070H
	DB	06cH
	DB	070H
	DB	0ffH
	DB	070H
	DB	06cH
	DB	070H
	DB	0ffH
	DB	070H
	DB	06cH
	DB	070H
	DB	0ffH
	DB	070H
	DB	06cH
	DB	070H
	DB	0ffH
	DB	070H
	DB	06cH
	DB	070H
	DB	0ffH
	DB	070H
	DB	06cH
	DB	070H
	DB	0ffH
	DB	070H
	DB	06cH
	DB	070H
	DB	0ffH
	DB	070H
	DB	06cH
	DB	070H
	DB	0ffH
	DB	070H
	DB	06cH
	DB	070H
	DB	0ffH
	DB	070H
	DB	06cH
	DB	070H
	DB	0ffH
	DB	070H
	DB	06cH
	DB	070H
	DB	0ffH
	DB	070H
	DB	06cH
	DB	070H
	DB	0ffH
	DB	070H
	DB	06cH
	DB	070H
	DB	0ffH
	DB	070H
	DB	06cH
	DB	070H
	DB	0ffH
	DB	070H
	DB	06cH
	DB	070H
	DB	0ffH
	DB	070H
	DB	06cH
	DB	070H
	DB	0ffH
	DB	070H
	DB	06cH
	DB	070H
	DB	0ffH
	DB	070H
	DB	06cH
	DB	070H
	DB	0ffH
	DB	070H
	DB	06cH
	DB	070H
	DB	0ffH
	DB	070H
	DB	06cH
	DB	070H
	DB	0ffH
	DB	070H
	DB	06cH
	DB	070H
	DB	0ffH
	DB	070H
	DB	06cH
	DB	070H
	DB	0ffH
	DB	070H
	DB	06cH
	DB	070H
	DB	0ffH
	DB	070H
	DB	06cH
	DB	070H
	DB	0ffH
	DB	070H
	DB	06cH
	DB	070H
	DB	0ffH
	DB	070H
	DB	06cH
	DB	070H
	DB	0ffH
	DB	070H
	DB	06cH
	DB	070H
	DB	0ffH
	DB	070H
	DB	06cH
	DB	070H
	DB	0ffH
	DB	070H
	DB	06cH
	DB	070H
	DB	0ffH
	DB	070H
	DB	06cH
	DB	070H
	DB	0ffH
	DB	070H
	DB	06cH
	DB	070H
	DB	0ffH
	DB	070H
	DB	06cH
	DB	070H
	DB	0ffH
	DB	070H
	DB	06cH
	DB	070H
	DB	0ffH
	DB	070H
	DB	06cH
	DB	070H
	DB	0ffH
	DB	070H
	DB	06cH
	DB	070H
	DB	0ffH
	DB	070H
	DB	06cH
	DB	070H
	DB	0ffH
	DB	070H
	DB	06cH
	DB	070H
	DB	0ffH
	DB	070H
	DB	06cH
	DB	070H
	DB	0ffH
	DB	070H
	DB	06cH
	DB	070H
	DB	0ffH
	DB	070H
	DB	06cH
	DB	070H
	DB	0ffH
	DB	070H
	DB	06cH
	DB	070H
	DB	0ffH
	DB	070H
	DB	06cH
	DB	070H
	DB	0ffH
	DB	070H
	DB	06cH
	DB	070H
	DB	0ffH
	DB	070H
	DB	06cH
	DB	070H
	DB	0ffH
	DB	070H
	DB	06cH
	DB	070H
	DB	0ffH
	DB	070H
	DB	06cH
	DB	070H
	DB	0ffH
	DB	070H
	DB	06cH
	DB	070H
	DB	0ffH
	DB	070H
	DB	06cH
	DB	070H
	DB	0ffH
	DB	070H
	DB	06cH
	DB	070H
	DB	0ffH
	DB	070H
	DB	06cH
	DB	070H
	DB	0ffH
	DB	070H
	DB	06cH
	DB	070H
	DB	0ffH
	DB	070H
	DB	06cH
	DB	070H
	DB	0ffH
	DB	070H
	DB	06cH
	DB	070H
	DB	0ffH
	DB	070H
	DB	06cH
	DB	070H
	DB	0ffH
	DB	070H
	DB	06cH
	DB	070H
	DB	0ffH
	DB	070H
	DB	06cH
	DB	070H
	DB	0ffH
	DB	070H
	DB	06cH
	DB	070H
	DB	0ffH
	DB	070H
	DB	06cH
	DB	070H
	DB	0ffH
	DB	070H
	DB	06cH
	DB	070H
	DB	0ffH
	DB	070H
	DB	06cH
	DB	070H
	DB	0ffH
	DB	070H
	DB	06cH
	DB	070H
	DB	0ffH
	DB	070H
	DB	06cH
	DB	070H
	DB	0ffH
	DB	070H
	DB	06cH
	DB	070H
	DB	0ffH
	DB	070H
	DB	06cH
	DB	070H
	DB	0ffH
	DB	070H
	DB	06cH
	DB	070H
	DB	0ffH
	DB	070H
	DB	06cH
	DB	070H
	DB	0ffH
	DB	070H
	DB	06cH
	DB	070H
	DB	0ffH
	DB	070H
	DB	06cH
	DB	070H
	DB	0ffH
	DB	070H
	DB	06cH
	DB	070H
	DB	0ffH
	DB	070H
	DB	06cH
	DB	070H
	DB	0ffH
	DB	070H
	DB	06cH
	DB	070H
	DB	0ffH
	DB	070H
	DB	06cH
	DB	070H
	DB	0ffH
	DB	070H
	DB	06cH
	DB	070H
	DB	0ffH
	DB	070H
	DB	06cH
	DB	070H
	DB	0ffH
	DB	070H
	DB	06cH
	DB	070H
	DB	0ffH
	DB	070H
	DB	06cH
	DB	070H
	DB	0ffH
	DB	070H
	DB	06cH
	DB	070H
	DB	0ffH
	DB	070H
	DB	06cH
	DB	070H
	DB	0ffH
	DB	070H
	DB	06cH
	DB	070H
	DB	0ffH
	DB	070H
	DB	06cH
	DB	070H
	DB	0ffH
	DB	070H
	DB	06cH
	DB	070H
	DB	0ffH
	DB	070H
	DB	06cH
	DB	070H
	DB	0ffH
	DB	070H
	DB	06cH
	DB	070H
	DB	0ffH
	DB	070H
	DB	06cH
	DB	070H
	DB	0ffH
	DB	070H
	DB	06cH
	DB	070H
	DB	0ffH
	DB	070H
	DB	06cH
	DB	070H
	DB	0ffH
	DB	070H
	DB	06cH
	DB	070H
	DB	0ffH
	DB	070H
	DB	06cH
	DB	070H
	DB	0ffH
	DB	070H
	DB	06cH
	DB	070H
	DB	0ffH
	DB	070H
	DB	06cH
	DB	070H
	DB	0ffH
	DB	070H
	DB	06cH
	DB	070H
	DB	0ffH
	DB	070H
	DB	06cH
	DB	070H
	DB	0ffH
	DB	070H
	DB	06cH
	DB	070H
	DB	0ffH
	DB	070H
	DB	06cH
	DB	070H
	DB	0ffH
	DB	070H
	DB	06cH
	DB	070H
	DB	0ffH
	DB	070H
	DB	06cH
	DB	070H
	DB	0ffH
	DB	070H
	DB	06cH
	DB	070H
	DB	0ffH
	DB	070H
	DB	06cH
	DB	070H
	DB	0ffH
	DB	070H
	DB	06cH
	DB	070H
	DB	0ffH
	DB	070H
	DB	06cH
	DB	070H
	DB	0ffH
	DB	070H
	DB	06cH
	DB	070H
	DB	0ffH
	DB	070H
	DB	06cH
	DB	070H
	DB	0ffH
	DB	070H
	DB	06cH
	DB	070H
	DB	0ffH
	DB	070H
	DB	06cH
	DB	070H
	DB	0ffH
	DB	070H
	DB	06cH
	DB	070H
	DB	0ffH
	DB	070H
	DB	06cH
	DB	070H
	DB	0ffH
	DB	070H
	DB	06cH
	DB	070H
	DB	0ffH
	DB	070H
	DB	06cH
	DB	070H
	DB	0ffH
	DB	070H
	DB	06cH
	DB	070H
	DB	0ffH
	DB	070H
	DB	06cH
	DB	070H
	DB	0ffH
	DB	070H
	DB	06cH
	DB	070H
	DB	0ffH
	DB	070H
	DB	06cH
	DB	070H
	DB	0ffH
	DB	070H
	DB	06cH
	DB	070H
	DB	0ffH
	DB	070H
	DB	06cH
	DB	070H
	DB	0ffH
	DB	070H
	DB	06cH
	DB	070H
	DB	0ffH
	DB	070H
	DB	06cH
	DB	070H
	DB	0ffH
	DB	070H
	DB	06cH
	DB	070H
	DB	0ffH
	DB	070H
	DB	06cH
	DB	070H
	DB	0ffH
	DB	070H
	DB	06cH
	DB	070H
	DB	0ffH
	DB	070H
	DB	06cH
	DB	070H
	DB	0ffH
	DB	070H
	DB	06cH
	DB	070H
	DB	0ffH
	DB	070H
	DB	06cH
	DB	070H
	DB	0ffH
	DB	070H
	DB	06cH
	DB	070H
	DB	0ffH
	DB	070H
	DB	06cH
	DB	070H
	DB	0ffH
	DB	070H
	DB	06cH
	DB	070H
	DB	0ffH
	DB	070H
	DB	06cH
	DB	070H
	DB	0ffH
	DB	070H
	DB	070H
	DB	070H
	DB	0ffH
	DB	070H
	DB	06cH
	DB	070H
	DB	0ffH
	DB	070H
	DB	06cH
	DB	070H
	DB	0ffH
	DB	070H
	DB	070H
	DB	070H
	DB	0ffH
	DB	070H
	DB	06cH
	DB	070H
	DB	0ffH
	DB	00H
	DB	00H
	DB	00H
	DB	00H
	DB	00H
	DB	00H
	DB	00H
	DB	00H
	DB	068H
	DB	068H
	DB	068H
	DB	0ffH
	DB	068H
	DB	068H
	DB	068H
	DB	0ffH
	DB	068H
	DB	068H
	DB	068H
	DB	0ffH
	DB	068H
	DB	068H
	DB	068H
	DB	0ffH
	DB	068H
	DB	068H
	DB	068H
	DB	0ffH
	DB	068H
	DB	068H
	DB	068H
	DB	0ffH
	DB	068H
	DB	068H
	DB	068H
	DB	0ffH
	DB	068H
	DB	06cH
	DB	068H
	DB	0ffH
	DB	068H
	DB	068H
	DB	068H
	DB	0ffH
	DB	068H
	DB	068H
	DB	068H
	DB	0ffH
	DB	068H
	DB	06cH
	DB	068H
	DB	0ffH
	DB	068H
	DB	068H
	DB	068H
	DB	0ffH
	DB	068H
	DB	068H
	DB	068H
	DB	0ffH
	DB	068H
	DB	06cH
	DB	068H
	DB	0ffH
	DB	068H
	DB	068H
	DB	068H
	DB	0ffH
	DB	068H
	DB	068H
	DB	068H
	DB	0ffH
	DB	068H
	DB	06cH
	DB	068H
	DB	0ffH
	DB	068H
	DB	068H
	DB	068H
	DB	0ffH
	DB	068H
	DB	068H
	DB	068H
	DB	0ffH
	DB	068H
	DB	06cH
	DB	068H
	DB	0ffH
	DB	068H
	DB	068H
	DB	068H
	DB	0ffH
	DB	068H
	DB	068H
	DB	068H
	DB	0ffH
	DB	068H
	DB	06cH
	DB	068H
	DB	0ffH
	DB	068H
	DB	068H
	DB	068H
	DB	0ffH
	DB	068H
	DB	068H
	DB	068H
	DB	0ffH
	DB	068H
	DB	06cH
	DB	068H
	DB	0ffH
	DB	068H
	DB	068H
	DB	068H
	DB	0ffH
	DB	068H
	DB	068H
	DB	068H
	DB	0ffH
	DB	068H
	DB	06cH
	DB	068H
	DB	0ffH
	DB	068H
	DB	068H
	DB	068H
	DB	0ffH
	DB	068H
	DB	068H
	DB	068H
	DB	0ffH
	DB	068H
	DB	06cH
	DB	068H
	DB	0ffH
	DB	068H
	DB	068H
	DB	068H
	DB	0ffH
	DB	068H
	DB	068H
	DB	068H
	DB	0ffH
	DB	068H
	DB	06cH
	DB	068H
	DB	0ffH
	DB	068H
	DB	068H
	DB	068H
	DB	0ffH
	DB	068H
	DB	068H
	DB	068H
	DB	0ffH
	DB	068H
	DB	06cH
	DB	068H
	DB	0ffH
	DB	068H
	DB	068H
	DB	068H
	DB	0ffH
	DB	068H
	DB	068H
	DB	068H
	DB	0ffH
	DB	068H
	DB	06cH
	DB	068H
	DB	0ffH
	DB	068H
	DB	068H
	DB	068H
	DB	0ffH
	DB	068H
	DB	068H
	DB	068H
	DB	0ffH
	DB	068H
	DB	06cH
	DB	068H
	DB	0ffH
	DB	068H
	DB	068H
	DB	068H
	DB	0ffH
	DB	068H
	DB	068H
	DB	068H
	DB	0ffH
	DB	068H
	DB	06cH
	DB	068H
	DB	0ffH
	DB	068H
	DB	068H
	DB	068H
	DB	0ffH
	DB	068H
	DB	068H
	DB	068H
	DB	0ffH
	DB	068H
	DB	06cH
	DB	068H
	DB	0ffH
	DB	068H
	DB	068H
	DB	068H
	DB	0ffH
	DB	068H
	DB	068H
	DB	068H
	DB	0ffH
	DB	068H
	DB	06cH
	DB	068H
	DB	0ffH
	DB	068H
	DB	068H
	DB	068H
	DB	0ffH
	DB	068H
	DB	068H
	DB	068H
	DB	0ffH
	DB	068H
	DB	06cH
	DB	068H
	DB	0ffH
	DB	068H
	DB	068H
	DB	068H
	DB	0ffH
	DB	068H
	DB	068H
	DB	068H
	DB	0ffH
	DB	068H
	DB	06cH
	DB	068H
	DB	0ffH
	DB	068H
	DB	068H
	DB	068H
	DB	0ffH
	DB	068H
	DB	068H
	DB	068H
	DB	0ffH
	DB	068H
	DB	06cH
	DB	068H
	DB	0ffH
	DB	068H
	DB	068H
	DB	068H
	DB	0ffH
	DB	068H
	DB	068H
	DB	068H
	DB	0ffH
	DB	068H
	DB	06cH
	DB	068H
	DB	0ffH
	DB	068H
	DB	068H
	DB	068H
	DB	0ffH
	DB	068H
	DB	068H
	DB	068H
	DB	0ffH
	DB	068H
	DB	06cH
	DB	068H
	DB	0ffH
	DB	068H
	DB	068H
	DB	068H
	DB	0ffH
	DB	068H
	DB	068H
	DB	068H
	DB	0ffH
	DB	068H
	DB	06cH
	DB	068H
	DB	0ffH
	DB	068H
	DB	068H
	DB	068H
	DB	0ffH
	DB	068H
	DB	068H
	DB	068H
	DB	0ffH
	DB	068H
	DB	06cH
	DB	068H
	DB	0ffH
	DB	068H
	DB	068H
	DB	068H
	DB	0ffH
	DB	068H
	DB	068H
	DB	068H
	DB	0ffH
	DB	068H
	DB	06cH
	DB	068H
	DB	0ffH
	DB	068H
	DB	068H
	DB	068H
	DB	0ffH
	DB	068H
	DB	068H
	DB	068H
	DB	0ffH
	DB	068H
	DB	06cH
	DB	068H
	DB	0ffH
	DB	068H
	DB	068H
	DB	068H
	DB	0ffH
	DB	068H
	DB	068H
	DB	068H
	DB	0ffH
	DB	068H
	DB	06cH
	DB	068H
	DB	0ffH
	DB	068H
	DB	068H
	DB	068H
	DB	0ffH
	DB	068H
	DB	068H
	DB	068H
	DB	0ffH
	DB	068H
	DB	06cH
	DB	068H
	DB	0ffH
	DB	068H
	DB	068H
	DB	068H
	DB	0ffH
	DB	068H
	DB	068H
	DB	068H
	DB	0ffH
	DB	068H
	DB	06cH
	DB	068H
	DB	0ffH
	DB	068H
	DB	068H
	DB	068H
	DB	0ffH
	DB	068H
	DB	068H
	DB	068H
	DB	0ffH
	DB	068H
	DB	06cH
	DB	068H
	DB	0ffH
	DB	068H
	DB	068H
	DB	068H
	DB	0ffH
	DB	068H
	DB	068H
	DB	068H
	DB	0ffH
	DB	068H
	DB	06cH
	DB	068H
	DB	0ffH
	DB	068H
	DB	068H
	DB	068H
	DB	0ffH
	DB	068H
	DB	068H
	DB	068H
	DB	0ffH
	DB	068H
	DB	06cH
	DB	068H
	DB	0ffH
	DB	068H
	DB	068H
	DB	068H
	DB	0ffH
	DB	068H
	DB	068H
	DB	068H
	DB	0ffH
	DB	068H
	DB	06cH
	DB	068H
	DB	0ffH
	DB	068H
	DB	068H
	DB	068H
	DB	0ffH
	DB	068H
	DB	068H
	DB	068H
	DB	0ffH
	DB	068H
	DB	06cH
	DB	068H
	DB	0ffH
	DB	068H
	DB	068H
	DB	068H
	DB	0ffH
	DB	068H
	DB	068H
	DB	068H
	DB	0ffH
	DB	068H
	DB	06cH
	DB	068H
	DB	0ffH
	DB	068H
	DB	068H
	DB	068H
	DB	0ffH
	DB	068H
	DB	068H
	DB	068H
	DB	0ffH
	DB	068H
	DB	06cH
	DB	068H
	DB	0ffH
	DB	068H
	DB	068H
	DB	068H
	DB	0ffH
	DB	068H
	DB	068H
	DB	068H
	DB	0ffH
	DB	068H
	DB	06cH
	DB	068H
	DB	0ffH
	DB	068H
	DB	068H
	DB	068H
	DB	0ffH
	DB	068H
	DB	068H
	DB	068H
	DB	0ffH
	DB	068H
	DB	06cH
	DB	068H
	DB	0ffH
	DB	068H
	DB	068H
	DB	068H
	DB	0ffH
	DB	068H
	DB	068H
	DB	068H
	DB	0ffH
	DB	068H
	DB	06cH
	DB	068H
	DB	0ffH
	DB	068H
	DB	068H
	DB	068H
	DB	0ffH
	DB	068H
	DB	068H
	DB	068H
	DB	0ffH
	DB	068H
	DB	06cH
	DB	068H
	DB	0ffH
	DB	068H
	DB	068H
	DB	068H
	DB	0ffH
	DB	068H
	DB	068H
	DB	068H
	DB	0ffH
	DB	068H
	DB	06cH
	DB	068H
	DB	0ffH
	DB	068H
	DB	068H
	DB	068H
	DB	0ffH
	DB	068H
	DB	068H
	DB	068H
	DB	0ffH
	DB	068H
	DB	06cH
	DB	068H
	DB	0ffH
	DB	068H
	DB	068H
	DB	068H
	DB	0ffH
	DB	068H
	DB	068H
	DB	068H
	DB	0ffH
	DB	068H
	DB	06cH
	DB	068H
	DB	0ffH
	DB	068H
	DB	068H
	DB	068H
	DB	0ffH
	DB	068H
	DB	068H
	DB	068H
	DB	0ffH
	DB	068H
	DB	06cH
	DB	068H
	DB	0ffH
	DB	068H
	DB	068H
	DB	068H
	DB	0ffH
	DB	068H
	DB	068H
	DB	068H
	DB	0ffH
	DB	068H
	DB	06cH
	DB	068H
	DB	0ffH
	DB	068H
	DB	068H
	DB	068H
	DB	0ffH
	DB	068H
	DB	068H
	DB	068H
	DB	0ffH
	DB	068H
	DB	06cH
	DB	068H
	DB	0ffH
	DB	068H
	DB	068H
	DB	068H
	DB	0ffH
	DB	068H
	DB	068H
	DB	068H
	DB	0ffH
	DB	068H
	DB	06cH
	DB	068H
	DB	0ffH
	DB	068H
	DB	068H
	DB	068H
	DB	0ffH
	DB	068H
	DB	068H
	DB	068H
	DB	0ffH
	DB	068H
	DB	06cH
	DB	068H
	DB	0ffH
	DB	068H
	DB	068H
	DB	068H
	DB	0ffH
	DB	068H
	DB	068H
	DB	068H
	DB	0ffH
	DB	068H
	DB	06cH
	DB	068H
	DB	0ffH
	DB	068H
	DB	068H
	DB	068H
	DB	0ffH
	DB	068H
	DB	068H
	DB	068H
	DB	0ffH
	DB	068H
	DB	06cH
	DB	068H
	DB	0ffH
	DB	068H
	DB	068H
	DB	068H
	DB	0ffH
	DB	068H
	DB	068H
	DB	068H
	DB	0ffH
	DB	068H
	DB	06cH
	DB	068H
	DB	0ffH
	DB	068H
	DB	068H
	DB	068H
	DB	0ffH
	DB	068H
	DB	068H
	DB	068H
	DB	0ffH
	DB	068H
	DB	06cH
	DB	068H
	DB	0ffH
	DB	068H
	DB	068H
	DB	068H
	DB	0ffH
	DB	068H
	DB	068H
	DB	068H
	DB	0ffH
	DB	068H
	DB	06cH
	DB	068H
	DB	0ffH
	DB	068H
	DB	068H
	DB	068H
	DB	0ffH
	DB	068H
	DB	068H
	DB	068H
	DB	0ffH
	DB	068H
	DB	06cH
	DB	068H
	DB	0ffH
	DB	068H
	DB	068H
	DB	068H
	DB	0ffH
	DB	068H
	DB	068H
	DB	068H
	DB	0ffH
	DB	068H
	DB	06cH
	DB	068H
	DB	0ffH
	DB	068H
	DB	068H
	DB	068H
	DB	0ffH
	DB	068H
	DB	068H
	DB	068H
	DB	0ffH
	DB	068H
	DB	06cH
	DB	068H
	DB	0ffH
	DB	068H
	DB	068H
	DB	068H
	DB	0ffH
	DB	068H
	DB	068H
	DB	068H
	DB	0ffH
	DB	068H
	DB	06cH
	DB	068H
	DB	0ffH
	DB	068H
	DB	068H
	DB	068H
	DB	0ffH
	DB	068H
	DB	068H
	DB	068H
	DB	0ffH
	DB	068H
	DB	06cH
	DB	068H
	DB	0ffH
	DB	068H
	DB	068H
	DB	068H
	DB	0ffH
	DB	068H
	DB	068H
	DB	068H
	DB	0ffH
	DB	068H
	DB	06cH
	DB	068H
	DB	0ffH
	DB	068H
	DB	068H
	DB	068H
	DB	0ffH
	DB	068H
	DB	068H
	DB	068H
	DB	0ffH
	DB	068H
	DB	06cH
	DB	068H
	DB	0ffH
	DB	068H
	DB	068H
	DB	068H
	DB	0ffH
	DB	068H
	DB	068H
	DB	068H
	DB	0ffH
	DB	068H
	DB	06cH
	DB	068H
	DB	0ffH
	DB	068H
	DB	068H
	DB	068H
	DB	0ffH
	DB	068H
	DB	068H
	DB	068H
	DB	0ffH
	DB	068H
	DB	06cH
	DB	068H
	DB	0ffH
	DB	068H
	DB	068H
	DB	068H
	DB	0ffH
	DB	068H
	DB	068H
	DB	068H
	DB	0ffH
	DB	068H
	DB	06cH
	DB	068H
	DB	0ffH
	DB	068H
	DB	068H
	DB	068H
	DB	0ffH
	DB	068H
	DB	068H
	DB	068H
	DB	0ffH
	DB	068H
	DB	06cH
	DB	068H
	DB	0ffH
	DB	068H
	DB	068H
	DB	068H
	DB	0ffH
	DB	068H
	DB	068H
	DB	068H
	DB	0ffH
	DB	068H
	DB	06cH
	DB	068H
	DB	0ffH
	DB	068H
	DB	068H
	DB	068H
	DB	0ffH
	DB	068H
	DB	068H
	DB	068H
	DB	0ffH
	DB	068H
	DB	06cH
	DB	068H
	DB	0ffH
	DB	068H
	DB	068H
	DB	068H
	DB	0ffH
	DB	068H
	DB	068H
	DB	068H
	DB	0ffH
	DB	068H
	DB	06cH
	DB	068H
	DB	0ffH
	DB	068H
	DB	068H
	DB	068H
	DB	0ffH
	DB	068H
	DB	068H
	DB	068H
	DB	0ffH
	DB	068H
	DB	06cH
	DB	068H
	DB	0ffH
	DB	068H
	DB	068H
	DB	068H
	DB	0ffH
	DB	068H
	DB	068H
	DB	068H
	DB	0ffH
	DB	068H
	DB	06cH
	DB	068H
	DB	0ffH
	DB	068H
	DB	068H
	DB	068H
	DB	0ffH
	DB	068H
	DB	068H
	DB	068H
	DB	0ffH
	DB	068H
	DB	06cH
	DB	068H
	DB	0ffH
	DB	068H
	DB	068H
	DB	068H
	DB	0ffH
	DB	068H
	DB	068H
	DB	068H
	DB	0ffH
	DB	068H
	DB	06cH
	DB	068H
	DB	0ffH
	DB	068H
	DB	068H
	DB	068H
	DB	0ffH
	DB	068H
	DB	068H
	DB	068H
	DB	0ffH
	DB	068H
	DB	06cH
	DB	068H
	DB	0ffH
	DB	068H
	DB	068H
	DB	068H
	DB	0ffH
	DB	068H
	DB	068H
	DB	068H
	DB	0ffH
	DB	068H
	DB	06cH
	DB	068H
	DB	0ffH
	DB	068H
	DB	068H
	DB	068H
	DB	0ffH
	DB	068H
	DB	068H
	DB	068H
	DB	0ffH
	DB	068H
	DB	06cH
	DB	068H
	DB	0ffH
	DB	068H
	DB	068H
	DB	068H
	DB	0ffH
	DB	068H
	DB	068H
	DB	068H
	DB	0ffH
	DB	068H
	DB	06cH
	DB	068H
	DB	0ffH
	DB	068H
	DB	068H
	DB	068H
	DB	0ffH
	DB	068H
	DB	068H
	DB	068H
	DB	0ffH
	DB	068H
	DB	06cH
	DB	068H
	DB	0ffH
	DB	068H
	DB	068H
	DB	068H
	DB	0ffH
	DB	068H
	DB	068H
	DB	068H
	DB	0ffH
	DB	068H
	DB	06cH
	DB	068H
	DB	0ffH
	DB	068H
	DB	068H
	DB	068H
	DB	0ffH
	DB	068H
	DB	068H
	DB	068H
	DB	0ffH
	DB	068H
	DB	06cH
	DB	068H
	DB	0ffH
	DB	068H
	DB	068H
	DB	068H
	DB	0ffH
	DB	068H
	DB	068H
	DB	068H
	DB	0ffH
	DB	068H
	DB	06cH
	DB	068H
	DB	0ffH
	DB	068H
	DB	068H
	DB	068H
	DB	0ffH
	DB	068H
	DB	068H
	DB	068H
	DB	0ffH
	DB	068H
	DB	06cH
	DB	068H
	DB	0ffH
	DB	068H
	DB	068H
	DB	068H
	DB	0ffH
	DB	068H
	DB	068H
	DB	068H
	DB	0ffH
	DB	068H
	DB	06cH
	DB	068H
	DB	0ffH
	DB	068H
	DB	068H
	DB	068H
	DB	0ffH
	DB	068H
	DB	068H
	DB	068H
	DB	0ffH
	DB	068H
	DB	06cH
	DB	068H
	DB	0ffH
	DB	068H
	DB	068H
	DB	068H
	DB	0ffH
	DB	068H
	DB	068H
	DB	068H
	DB	0ffH
	DB	068H
	DB	06cH
	DB	068H
	DB	0ffH
	DB	068H
	DB	068H
	DB	068H
	DB	0ffH
	DB	068H
	DB	068H
	DB	068H
	DB	0ffH
	DB	068H
	DB	06cH
	DB	068H
	DB	0ffH
	DB	068H
	DB	068H
	DB	068H
	DB	0ffH
	DB	068H
	DB	068H
	DB	068H
	DB	0ffH
	DB	068H
	DB	06cH
	DB	068H
	DB	0ffH
	DB	068H
	DB	068H
	DB	068H
	DB	0ffH
	DB	068H
	DB	068H
	DB	068H
	DB	0ffH
	DB	068H
	DB	06cH
	DB	068H
	DB	0ffH
	DB	068H
	DB	068H
	DB	068H
	DB	0ffH
	DB	068H
	DB	068H
	DB	068H
	DB	0ffH
	DB	068H
	DB	06cH
	DB	068H
	DB	0ffH
	DB	068H
	DB	068H
	DB	068H
	DB	0ffH
	DB	068H
	DB	068H
	DB	068H
	DB	0ffH
	DB	068H
	DB	06cH
	DB	068H
	DB	0ffH
	DB	068H
	DB	068H
	DB	068H
	DB	0ffH
	DB	068H
	DB	068H
	DB	068H
	DB	0ffH
	DB	068H
	DB	06cH
	DB	068H
	DB	0ffH
	DB	068H
	DB	068H
	DB	068H
	DB	0ffH
	DB	068H
	DB	068H
	DB	068H
	DB	0ffH
	DB	068H
	DB	06cH
	DB	068H
	DB	0ffH
	DB	068H
	DB	068H
	DB	068H
	DB	0ffH
	DB	068H
	DB	068H
	DB	068H
	DB	0ffH
	DB	068H
	DB	06cH
	DB	068H
	DB	0ffH
	DB	068H
	DB	068H
	DB	068H
	DB	0ffH
	DB	068H
	DB	068H
	DB	068H
	DB	0ffH
	DB	068H
	DB	06cH
	DB	068H
	DB	0ffH
	DB	068H
	DB	068H
	DB	068H
	DB	0ffH
	DB	068H
	DB	068H
	DB	068H
	DB	0ffH
	DB	068H
	DB	06cH
	DB	068H
	DB	0ffH
	DB	068H
	DB	068H
	DB	068H
	DB	0ffH
	DB	068H
	DB	068H
	DB	068H
	DB	0ffH
	DB	068H
	DB	06cH
	DB	068H
	DB	0ffH
	DB	068H
	DB	068H
	DB	068H
	DB	0ffH
	DB	068H
	DB	068H
	DB	068H
	DB	0ffH
	DB	068H
	DB	06cH
	DB	068H
	DB	0ffH
	DB	068H
	DB	068H
	DB	068H
	DB	0ffH
	DB	068H
	DB	068H
	DB	068H
	DB	0ffH
	DB	068H
	DB	06cH
	DB	068H
	DB	0ffH
	DB	068H
	DB	068H
	DB	068H
	DB	0ffH
	DB	068H
	DB	068H
	DB	068H
	DB	0ffH
	DB	068H
	DB	06cH
	DB	068H
	DB	0ffH
	DB	068H
	DB	068H
	DB	068H
	DB	0ffH
	DB	068H
	DB	068H
	DB	068H
	DB	0ffH
	DB	068H
	DB	06cH
	DB	068H
	DB	0ffH
	DB	068H
	DB	068H
	DB	068H
	DB	0ffH
	DB	068H
	DB	068H
	DB	068H
	DB	0ffH
	DB	068H
	DB	06cH
	DB	068H
	DB	0ffH
	DB	068H
	DB	068H
	DB	068H
	DB	0ffH
	DB	068H
	DB	068H
	DB	068H
	DB	0ffH
	DB	068H
	DB	06cH
	DB	068H
	DB	0ffH
	DB	068H
	DB	068H
	DB	068H
	DB	0ffH
	DB	068H
	DB	068H
	DB	068H
	DB	0ffH
	DB	068H
	DB	06cH
	DB	068H
	DB	0ffH
	DB	068H
	DB	068H
	DB	068H
	DB	0ffH
	DB	068H
	DB	068H
	DB	068H
	DB	0ffH
	DB	068H
	DB	06cH
	DB	068H
	DB	0ffH
	DB	068H
	DB	068H
	DB	068H
	DB	0ffH
	DB	068H
	DB	068H
	DB	068H
	DB	0ffH
	DB	068H
	DB	06cH
	DB	068H
	DB	0ffH
	DB	068H
	DB	068H
	DB	068H
	DB	0ffH
	DB	068H
	DB	068H
	DB	068H
	DB	0ffH
	DB	068H
	DB	06cH
	DB	068H
	DB	0ffH
	DB	068H
	DB	068H
	DB	068H
	DB	0ffH
	DB	068H
	DB	068H
	DB	068H
	DB	0ffH
	DB	068H
	DB	06cH
	DB	068H
	DB	0ffH
	DB	068H
	DB	068H
	DB	068H
	DB	0ffH
	DB	068H
	DB	068H
	DB	068H
	DB	0ffH
	DB	068H
	DB	06cH
	DB	068H
	DB	0ffH
	DB	068H
	DB	068H
	DB	068H
	DB	0ffH
	DB	068H
	DB	068H
	DB	068H
	DB	0ffH
	DB	068H
	DB	06cH
	DB	068H
	DB	0ffH
	DB	068H
	DB	068H
	DB	068H
	DB	0ffH
	DB	068H
	DB	068H
	DB	068H
	DB	0ffH
	DB	068H
	DB	06cH
	DB	068H
	DB	0ffH
	DB	068H
	DB	068H
	DB	068H
	DB	0ffH
	DB	068H
	DB	068H
	DB	068H
	DB	0ffH
	DB	068H
	DB	06cH
	DB	068H
	DB	0ffH
	DB	068H
	DB	068H
	DB	068H
	DB	0ffH
	DB	068H
	DB	068H
	DB	068H
	DB	0ffH
	DB	068H
	DB	06cH
	DB	068H
	DB	0ffH
	DB	068H
	DB	068H
	DB	068H
	DB	0ffH
	DB	068H
	DB	068H
	DB	068H
	DB	0ffH
	DB	068H
	DB	06cH
	DB	068H
	DB	0ffH
	DB	068H
	DB	068H
	DB	068H
	DB	0ffH
	DB	068H
	DB	068H
	DB	068H
	DB	0ffH
	DB	068H
	DB	06cH
	DB	068H
	DB	0ffH
	DB	068H
	DB	068H
	DB	068H
	DB	0ffH
	DB	068H
	DB	068H
	DB	068H
	DB	0ffH
	DB	068H
	DB	06cH
	DB	068H
	DB	0ffH
	DB	068H
	DB	068H
	DB	068H
	DB	0ffH
	DB	068H
	DB	068H
	DB	068H
	DB	0ffH
	DB	068H
	DB	068H
	DB	068H
	DB	0ffH
	DB	068H
	DB	068H
	DB	068H
	DB	0ffH
	DB	068H
	DB	068H
	DB	068H
	DB	0ffH
	DB	068H
	DB	068H
	DB	068H
	DB	0ffH
	DB	068H
	DB	068H
	DB	068H
	DB	0ffH
	DB	068H
	DB	068H
	DB	068H
	DB	0ffH
	DB	068H
	DB	068H
	DB	068H
	DB	0ffH
	DB	00H
	DB	00H
	DB	00H
	DB	00H
	DB	00H
	DB	00H
	DB	00H
	DB	00H
	DB	068H
	DB	068H
	DB	068H
	DB	0e7H
	DB	068H
	DB	068H
	DB	068H
	DB	0ffH
	DB	068H
	DB	068H
	DB	068H
	DB	0ffH
	DB	068H
	DB	068H
	DB	068H
	DB	0ffH
	DB	068H
	DB	068H
	DB	068H
	DB	0ffH
	DB	068H
	DB	068H
	DB	068H
	DB	0ffH
	DB	068H
	DB	068H
	DB	068H
	DB	0ffH
	DB	068H
	DB	068H
	DB	068H
	DB	0ffH
	DB	068H
	DB	068H
	DB	068H
	DB	0ffH
	DB	068H
	DB	068H
	DB	068H
	DB	0ffH
	DB	068H
	DB	068H
	DB	068H
	DB	0ffH
	DB	068H
	DB	068H
	DB	068H
	DB	0ffH
	DB	068H
	DB	068H
	DB	068H
	DB	0ffH
	DB	068H
	DB	068H
	DB	068H
	DB	0ffH
	DB	068H
	DB	068H
	DB	068H
	DB	0ffH
	DB	068H
	DB	068H
	DB	068H
	DB	0ffH
	DB	068H
	DB	068H
	DB	068H
	DB	0ffH
	DB	068H
	DB	068H
	DB	068H
	DB	0ffH
	DB	068H
	DB	068H
	DB	068H
	DB	0ffH
	DB	068H
	DB	068H
	DB	068H
	DB	0ffH
	DB	068H
	DB	068H
	DB	068H
	DB	0ffH
	DB	068H
	DB	068H
	DB	068H
	DB	0ffH
	DB	068H
	DB	068H
	DB	068H
	DB	0ffH
	DB	068H
	DB	068H
	DB	068H
	DB	0ffH
	DB	068H
	DB	068H
	DB	068H
	DB	0ffH
	DB	068H
	DB	068H
	DB	068H
	DB	0ffH
	DB	068H
	DB	068H
	DB	068H
	DB	0ffH
	DB	068H
	DB	068H
	DB	068H
	DB	0ffH
	DB	068H
	DB	068H
	DB	068H
	DB	0ffH
	DB	068H
	DB	068H
	DB	068H
	DB	0ffH
	DB	068H
	DB	068H
	DB	068H
	DB	0ffH
	DB	068H
	DB	068H
	DB	068H
	DB	0ffH
	DB	068H
	DB	068H
	DB	068H
	DB	0ffH
	DB	068H
	DB	068H
	DB	068H
	DB	0ffH
	DB	068H
	DB	068H
	DB	068H
	DB	0ffH
	DB	068H
	DB	068H
	DB	068H
	DB	0ffH
	DB	068H
	DB	068H
	DB	068H
	DB	0ffH
	DB	068H
	DB	068H
	DB	068H
	DB	0ffH
	DB	068H
	DB	068H
	DB	068H
	DB	0ffH
	DB	068H
	DB	068H
	DB	068H
	DB	0ffH
	DB	068H
	DB	068H
	DB	068H
	DB	0ffH
	DB	068H
	DB	068H
	DB	068H
	DB	0ffH
	DB	068H
	DB	068H
	DB	068H
	DB	0ffH
	DB	068H
	DB	068H
	DB	068H
	DB	0ffH
	DB	068H
	DB	068H
	DB	068H
	DB	0ffH
	DB	068H
	DB	068H
	DB	068H
	DB	0ffH
	DB	068H
	DB	068H
	DB	068H
	DB	0ffH
	DB	068H
	DB	068H
	DB	068H
	DB	0ffH
	DB	068H
	DB	068H
	DB	068H
	DB	0ffH
	DB	068H
	DB	068H
	DB	068H
	DB	0ffH
	DB	068H
	DB	068H
	DB	068H
	DB	0ffH
	DB	068H
	DB	068H
	DB	068H
	DB	0ffH
	DB	068H
	DB	068H
	DB	068H
	DB	0ffH
	DB	068H
	DB	068H
	DB	068H
	DB	0ffH
	DB	068H
	DB	068H
	DB	068H
	DB	0ffH
	DB	068H
	DB	068H
	DB	068H
	DB	0ffH
	DB	068H
	DB	068H
	DB	068H
	DB	0ffH
	DB	068H
	DB	068H
	DB	068H
	DB	0ffH
	DB	068H
	DB	068H
	DB	068H
	DB	0ffH
	DB	068H
	DB	068H
	DB	068H
	DB	0ffH
	DB	068H
	DB	068H
	DB	068H
	DB	0ffH
	DB	068H
	DB	068H
	DB	068H
	DB	0ffH
	DB	068H
	DB	068H
	DB	068H
	DB	0ffH
	DB	068H
	DB	068H
	DB	068H
	DB	0ffH
	DB	068H
	DB	068H
	DB	068H
	DB	0ffH
	DB	068H
	DB	068H
	DB	068H
	DB	0ffH
	DB	068H
	DB	068H
	DB	068H
	DB	0ffH
	DB	068H
	DB	068H
	DB	068H
	DB	0ffH
	DB	068H
	DB	068H
	DB	068H
	DB	0ffH
	DB	068H
	DB	068H
	DB	068H
	DB	0ffH
	DB	068H
	DB	068H
	DB	068H
	DB	0ffH
	DB	068H
	DB	068H
	DB	068H
	DB	0ffH
	DB	068H
	DB	068H
	DB	068H
	DB	0ffH
	DB	068H
	DB	068H
	DB	068H
	DB	0ffH
	DB	068H
	DB	068H
	DB	068H
	DB	0ffH
	DB	068H
	DB	068H
	DB	068H
	DB	0ffH
	DB	068H
	DB	068H
	DB	068H
	DB	0ffH
	DB	068H
	DB	068H
	DB	068H
	DB	0ffH
	DB	068H
	DB	068H
	DB	068H
	DB	0ffH
	DB	068H
	DB	068H
	DB	068H
	DB	0ffH
	DB	068H
	DB	068H
	DB	068H
	DB	0ffH
	DB	068H
	DB	068H
	DB	068H
	DB	0ffH
	DB	068H
	DB	068H
	DB	068H
	DB	0ffH
	DB	068H
	DB	068H
	DB	068H
	DB	0ffH
	DB	068H
	DB	068H
	DB	068H
	DB	0ffH
	DB	068H
	DB	068H
	DB	068H
	DB	0ffH
	DB	068H
	DB	068H
	DB	068H
	DB	0ffH
	DB	068H
	DB	068H
	DB	068H
	DB	0ffH
	DB	068H
	DB	068H
	DB	068H
	DB	0ffH
	DB	068H
	DB	068H
	DB	068H
	DB	0ffH
	DB	068H
	DB	068H
	DB	068H
	DB	0ffH
	DB	068H
	DB	068H
	DB	068H
	DB	0ffH
	DB	068H
	DB	068H
	DB	068H
	DB	0ffH
	DB	068H
	DB	068H
	DB	068H
	DB	0ffH
	DB	068H
	DB	068H
	DB	068H
	DB	0ffH
	DB	068H
	DB	068H
	DB	068H
	DB	0ffH
	DB	068H
	DB	068H
	DB	068H
	DB	0ffH
	DB	068H
	DB	068H
	DB	068H
	DB	0ffH
	DB	068H
	DB	068H
	DB	068H
	DB	0ffH
	DB	068H
	DB	068H
	DB	068H
	DB	0ffH
	DB	068H
	DB	068H
	DB	068H
	DB	0ffH
	DB	068H
	DB	068H
	DB	068H
	DB	0ffH
	DB	068H
	DB	068H
	DB	068H
	DB	0ffH
	DB	068H
	DB	068H
	DB	068H
	DB	0ffH
	DB	068H
	DB	068H
	DB	068H
	DB	0ffH
	DB	068H
	DB	068H
	DB	068H
	DB	0ffH
	DB	068H
	DB	068H
	DB	068H
	DB	0ffH
	DB	068H
	DB	068H
	DB	068H
	DB	0ffH
	DB	068H
	DB	068H
	DB	068H
	DB	0ffH
	DB	068H
	DB	068H
	DB	068H
	DB	0ffH
	DB	068H
	DB	068H
	DB	068H
	DB	0ffH
	DB	068H
	DB	068H
	DB	068H
	DB	0ffH
	DB	068H
	DB	068H
	DB	068H
	DB	0ffH
	DB	068H
	DB	068H
	DB	068H
	DB	0ffH
	DB	068H
	DB	068H
	DB	068H
	DB	0ffH
	DB	068H
	DB	068H
	DB	068H
	DB	0ffH
	DB	068H
	DB	068H
	DB	068H
	DB	0ffH
	DB	068H
	DB	068H
	DB	068H
	DB	0ffH
	DB	068H
	DB	068H
	DB	068H
	DB	0ffH
	DB	068H
	DB	068H
	DB	068H
	DB	0ffH
	DB	068H
	DB	068H
	DB	068H
	DB	0ffH
	DB	068H
	DB	068H
	DB	068H
	DB	0ffH
	DB	068H
	DB	068H
	DB	068H
	DB	0ffH
	DB	068H
	DB	068H
	DB	068H
	DB	0ffH
	DB	068H
	DB	068H
	DB	068H
	DB	0ffH
	DB	068H
	DB	068H
	DB	068H
	DB	0ffH
	DB	068H
	DB	068H
	DB	068H
	DB	0ffH
	DB	068H
	DB	068H
	DB	068H
	DB	0ffH
	DB	068H
	DB	068H
	DB	068H
	DB	0ffH
	DB	068H
	DB	068H
	DB	068H
	DB	0ffH
	DB	068H
	DB	068H
	DB	068H
	DB	0ffH
	DB	068H
	DB	068H
	DB	068H
	DB	0ffH
	DB	068H
	DB	068H
	DB	068H
	DB	0ffH
	DB	068H
	DB	068H
	DB	068H
	DB	0ffH
	DB	068H
	DB	068H
	DB	068H
	DB	0ffH
	DB	068H
	DB	068H
	DB	068H
	DB	0ffH
	DB	068H
	DB	068H
	DB	068H
	DB	0ffH
	DB	068H
	DB	068H
	DB	068H
	DB	0ffH
	DB	068H
	DB	068H
	DB	068H
	DB	0ffH
	DB	068H
	DB	068H
	DB	068H
	DB	0ffH
	DB	068H
	DB	068H
	DB	068H
	DB	0ffH
	DB	068H
	DB	068H
	DB	068H
	DB	0ffH
	DB	068H
	DB	068H
	DB	068H
	DB	0ffH
	DB	068H
	DB	068H
	DB	068H
	DB	0ffH
	DB	068H
	DB	068H
	DB	068H
	DB	0ffH
	DB	068H
	DB	068H
	DB	068H
	DB	0ffH
	DB	068H
	DB	068H
	DB	068H
	DB	0ffH
	DB	068H
	DB	068H
	DB	068H
	DB	0ffH
	DB	068H
	DB	068H
	DB	068H
	DB	0ffH
	DB	068H
	DB	068H
	DB	068H
	DB	0ffH
	DB	068H
	DB	068H
	DB	068H
	DB	0ffH
	DB	068H
	DB	068H
	DB	068H
	DB	0ffH
	DB	068H
	DB	068H
	DB	068H
	DB	0ffH
	DB	068H
	DB	068H
	DB	068H
	DB	0ffH
	DB	068H
	DB	068H
	DB	068H
	DB	0ffH
	DB	068H
	DB	068H
	DB	068H
	DB	0ffH
	DB	068H
	DB	068H
	DB	068H
	DB	0ffH
	DB	068H
	DB	068H
	DB	068H
	DB	0ffH
	DB	068H
	DB	068H
	DB	068H
	DB	0ffH
	DB	068H
	DB	068H
	DB	068H
	DB	0ffH
	DB	068H
	DB	068H
	DB	068H
	DB	0ffH
	DB	068H
	DB	068H
	DB	068H
	DB	0ffH
	DB	068H
	DB	068H
	DB	068H
	DB	0ffH
	DB	068H
	DB	068H
	DB	068H
	DB	0ffH
	DB	068H
	DB	068H
	DB	068H
	DB	0ffH
	DB	068H
	DB	068H
	DB	068H
	DB	0ffH
	DB	068H
	DB	068H
	DB	068H
	DB	0ffH
	DB	068H
	DB	068H
	DB	068H
	DB	0ffH
	DB	068H
	DB	068H
	DB	068H
	DB	0ffH
	DB	068H
	DB	068H
	DB	068H
	DB	0ffH
	DB	068H
	DB	068H
	DB	068H
	DB	0ffH
	DB	068H
	DB	068H
	DB	068H
	DB	0ffH
	DB	068H
	DB	068H
	DB	068H
	DB	0ffH
	DB	068H
	DB	068H
	DB	068H
	DB	0ffH
	DB	068H
	DB	068H
	DB	068H
	DB	0ffH
	DB	068H
	DB	068H
	DB	068H
	DB	0ffH
	DB	068H
	DB	068H
	DB	068H
	DB	0ffH
	DB	068H
	DB	068H
	DB	068H
	DB	0ffH
	DB	068H
	DB	068H
	DB	068H
	DB	0ffH
	DB	068H
	DB	068H
	DB	068H
	DB	0ffH
	DB	068H
	DB	068H
	DB	068H
	DB	0ffH
	DB	068H
	DB	068H
	DB	068H
	DB	0ffH
	DB	068H
	DB	068H
	DB	068H
	DB	0ffH
	DB	068H
	DB	068H
	DB	068H
	DB	0ffH
	DB	068H
	DB	068H
	DB	068H
	DB	0ffH
	DB	068H
	DB	068H
	DB	068H
	DB	0ffH
	DB	068H
	DB	068H
	DB	068H
	DB	0ffH
	DB	068H
	DB	068H
	DB	068H
	DB	0ffH
	DB	068H
	DB	068H
	DB	068H
	DB	0ffH
	DB	068H
	DB	068H
	DB	068H
	DB	0ffH
	DB	068H
	DB	068H
	DB	068H
	DB	0ffH
	DB	068H
	DB	068H
	DB	068H
	DB	0ffH
	DB	068H
	DB	068H
	DB	068H
	DB	0ffH
	DB	068H
	DB	068H
	DB	068H
	DB	0ffH
	DB	068H
	DB	068H
	DB	068H
	DB	0ffH
	DB	068H
	DB	068H
	DB	068H
	DB	0ffH
	DB	068H
	DB	068H
	DB	068H
	DB	0ffH
	DB	068H
	DB	068H
	DB	068H
	DB	0ffH
	DB	068H
	DB	068H
	DB	068H
	DB	0ffH
	DB	068H
	DB	068H
	DB	068H
	DB	0ffH
	DB	068H
	DB	068H
	DB	068H
	DB	0ffH
	DB	068H
	DB	068H
	DB	068H
	DB	0ffH
	DB	068H
	DB	068H
	DB	068H
	DB	0ffH
	DB	068H
	DB	068H
	DB	068H
	DB	0ffH
	DB	068H
	DB	068H
	DB	068H
	DB	0ffH
	DB	068H
	DB	068H
	DB	068H
	DB	0ffH
	DB	068H
	DB	068H
	DB	068H
	DB	0ffH
	DB	068H
	DB	068H
	DB	068H
	DB	0ffH
	DB	068H
	DB	068H
	DB	068H
	DB	0ffH
	DB	068H
	DB	068H
	DB	068H
	DB	0ffH
	DB	068H
	DB	068H
	DB	068H
	DB	0ffH
	DB	068H
	DB	068H
	DB	068H
	DB	0ffH
	DB	068H
	DB	068H
	DB	068H
	DB	0ffH
	DB	068H
	DB	068H
	DB	068H
	DB	0ffH
	DB	068H
	DB	068H
	DB	068H
	DB	0ffH
	DB	068H
	DB	068H
	DB	068H
	DB	0ffH
	DB	068H
	DB	068H
	DB	068H
	DB	0ffH
	DB	068H
	DB	068H
	DB	068H
	DB	0ffH
	DB	068H
	DB	068H
	DB	068H
	DB	0ffH
	DB	068H
	DB	068H
	DB	068H
	DB	0ffH
	DB	068H
	DB	068H
	DB	068H
	DB	0ffH
	DB	068H
	DB	068H
	DB	068H
	DB	0ffH
	DB	068H
	DB	068H
	DB	068H
	DB	0ffH
	DB	068H
	DB	068H
	DB	068H
	DB	0ffH
	DB	068H
	DB	068H
	DB	068H
	DB	0ffH
	DB	068H
	DB	068H
	DB	068H
	DB	0ffH
	DB	068H
	DB	068H
	DB	068H
	DB	0ffH
	DB	068H
	DB	068H
	DB	068H
	DB	0ffH
	DB	068H
	DB	068H
	DB	068H
	DB	0ffH
	DB	068H
	DB	068H
	DB	068H
	DB	0ffH
	DB	068H
	DB	068H
	DB	068H
	DB	0ffH
	DB	068H
	DB	068H
	DB	068H
	DB	0ffH
	DB	068H
	DB	068H
	DB	068H
	DB	0ffH
	DB	068H
	DB	068H
	DB	068H
	DB	0ffH
	DB	068H
	DB	068H
	DB	068H
	DB	0ffH
	DB	068H
	DB	068H
	DB	068H
	DB	0ffH
	DB	068H
	DB	068H
	DB	068H
	DB	0ffH
	DB	068H
	DB	068H
	DB	068H
	DB	0ffH
	DB	068H
	DB	068H
	DB	068H
	DB	0ffH
	DB	068H
	DB	068H
	DB	068H
	DB	0ffH
	DB	068H
	DB	068H
	DB	068H
	DB	0ffH
	DB	068H
	DB	068H
	DB	068H
	DB	0ffH
	DB	068H
	DB	068H
	DB	068H
	DB	0ffH
	DB	068H
	DB	068H
	DB	068H
	DB	0ffH
	DB	068H
	DB	068H
	DB	068H
	DB	0ffH
	DB	068H
	DB	068H
	DB	068H
	DB	0ffH
	DB	068H
	DB	068H
	DB	068H
	DB	0ffH
	DB	068H
	DB	068H
	DB	068H
	DB	0ffH
	DB	068H
	DB	068H
	DB	068H
	DB	0ffH
	DB	068H
	DB	068H
	DB	068H
	DB	0ffH
	DB	068H
	DB	068H
	DB	068H
	DB	0ffH
	DB	068H
	DB	068H
	DB	068H
	DB	0ffH
	DB	068H
	DB	068H
	DB	068H
	DB	0ffH
	DB	068H
	DB	068H
	DB	068H
	DB	0ffH
	DB	068H
	DB	068H
	DB	068H
	DB	0ffH
	DB	068H
	DB	068H
	DB	068H
	DB	0ffH
	DB	068H
	DB	068H
	DB	068H
	DB	0ffH
	DB	068H
	DB	068H
	DB	068H
	DB	0ffH
	DB	068H
	DB	068H
	DB	068H
	DB	0ffH
	DB	068H
	DB	068H
	DB	068H
	DB	0ffH
	DB	068H
	DB	068H
	DB	068H
	DB	0ffH
	DB	068H
	DB	068H
	DB	068H
	DB	0ffH
	DB	068H
	DB	068H
	DB	068H
	DB	0ffH
	DB	068H
	DB	068H
	DB	068H
	DB	0ffH
	DB	068H
	DB	068H
	DB	068H
	DB	0ffH
	DB	068H
	DB	068H
	DB	068H
	DB	0ffH
	DB	068H
	DB	068H
	DB	068H
	DB	0ffH
	DB	068H
	DB	068H
	DB	068H
	DB	0ffH
	DB	068H
	DB	068H
	DB	068H
	DB	0ffH
	DB	068H
	DB	068H
	DB	068H
	DB	0ffH
	DB	068H
	DB	068H
	DB	068H
	DB	0ffH
	DB	068H
	DB	068H
	DB	068H
	DB	0ffH
	DB	068H
	DB	068H
	DB	068H
	DB	0ffH
	DB	068H
	DB	068H
	DB	068H
	DB	0ffH
	DB	068H
	DB	068H
	DB	068H
	DB	0ffH
	DB	068H
	DB	068H
	DB	068H
	DB	0ffH
	DB	068H
	DB	068H
	DB	068H
	DB	0ffH
	DB	068H
	DB	068H
	DB	068H
	DB	0ffH
	DB	068H
	DB	068H
	DB	068H
	DB	0ffH
	DB	068H
	DB	068H
	DB	068H
	DB	0ffH
	DB	068H
	DB	068H
	DB	068H
	DB	0ffH
	DB	068H
	DB	068H
	DB	068H
	DB	0ffH
	DB	068H
	DB	068H
	DB	068H
	DB	0ffH
	DB	068H
	DB	068H
	DB	068H
	DB	0ffH
	DB	068H
	DB	068H
	DB	068H
	DB	0ffH
	DB	068H
	DB	068H
	DB	068H
	DB	0ffH
	DB	068H
	DB	068H
	DB	068H
	DB	0ffH
	DB	068H
	DB	068H
	DB	068H
	DB	0ffH
	DB	068H
	DB	068H
	DB	068H
	DB	0ffH
	DB	068H
	DB	068H
	DB	068H
	DB	0ffH
	DB	068H
	DB	068H
	DB	068H
	DB	0ffH
	DB	068H
	DB	068H
	DB	068H
	DB	0ffH
	DB	068H
	DB	068H
	DB	068H
	DB	0ffH
	DB	068H
	DB	068H
	DB	068H
	DB	0ffH
	DB	068H
	DB	068H
	DB	068H
	DB	0ffH
	DB	068H
	DB	068H
	DB	068H
	DB	0ffH
	DB	068H
	DB	068H
	DB	068H
	DB	0ffH
	DB	068H
	DB	068H
	DB	068H
	DB	0ffH
	DB	068H
	DB	068H
	DB	068H
	DB	0ffH
	DB	068H
	DB	068H
	DB	068H
	DB	0ffH
	DB	068H
	DB	068H
	DB	068H
	DB	0ffH
	DB	068H
	DB	068H
	DB	068H
	DB	0ffH
	DB	068H
	DB	068H
	DB	068H
	DB	0ffH
	DB	068H
	DB	068H
	DB	068H
	DB	0ffH
	DB	068H
	DB	068H
	DB	068H
	DB	0ffH
	DB	068H
	DB	068H
	DB	068H
	DB	0ffH
	DB	068H
	DB	068H
	DB	068H
	DB	0ffH
	DB	068H
	DB	068H
	DB	068H
	DB	0ffH
	DB	068H
	DB	068H
	DB	068H
	DB	0ffH
	DB	068H
	DB	068H
	DB	068H
	DB	0ffH
	DB	068H
	DB	068H
	DB	068H
	DB	0ffH
	DB	068H
	DB	068H
	DB	068H
	DB	0ffH
	DB	068H
	DB	068H
	DB	068H
	DB	0ffH
	DB	068H
	DB	068H
	DB	068H
	DB	0ffH
	DB	068H
	DB	068H
	DB	068H
	DB	0ffH
	DB	068H
	DB	068H
	DB	068H
	DB	0ffH
	DB	068H
	DB	068H
	DB	068H
	DB	0ffH
	DB	068H
	DB	068H
	DB	068H
	DB	0ffH
	DB	068H
	DB	068H
	DB	068H
	DB	0ffH
	DB	068H
	DB	068H
	DB	068H
	DB	0ffH
	DB	068H
	DB	068H
	DB	068H
	DB	0ffH
	DB	068H
	DB	068H
	DB	068H
	DB	0ffH
	DB	068H
	DB	068H
	DB	068H
	DB	0ffH
	DB	068H
	DB	068H
	DB	068H
	DB	0ffH
	DB	068H
	DB	068H
	DB	068H
	DB	0ffH
	DB	068H
	DB	068H
	DB	068H
	DB	0ffH
	DB	068H
	DB	068H
	DB	068H
	DB	0ffH
	DB	068H
	DB	068H
	DB	068H
	DB	0ffH
	DB	068H
	DB	068H
	DB	068H
	DB	0ffH
	DB	068H
	DB	068H
	DB	068H
	DB	0ffH
	DB	068H
	DB	068H
	DB	068H
	DB	0ffH
	DB	068H
	DB	068H
	DB	068H
	DB	0ffH
	DB	068H
	DB	068H
	DB	068H
	DB	0ffH
	DB	068H
	DB	068H
	DB	068H
	DB	0ffH
	DB	068H
	DB	068H
	DB	068H
	DB	0ffH
	DB	068H
	DB	068H
	DB	068H
	DB	0ffH
	DB	068H
	DB	068H
	DB	068H
	DB	0ffH
	DB	068H
	DB	068H
	DB	068H
	DB	0ffH
	DB	068H
	DB	068H
	DB	068H
	DB	0ffH
	DB	068H
	DB	068H
	DB	068H
	DB	0ffH
	DB	068H
	DB	068H
	DB	068H
	DB	0ffH
	DB	068H
	DB	068H
	DB	068H
	DB	0ffH
	DB	068H
	DB	068H
	DB	068H
	DB	0ffH
	DB	068H
	DB	068H
	DB	068H
	DB	0ffH
	DB	068H
	DB	068H
	DB	068H
	DB	0ffH
	DB	068H
	DB	068H
	DB	068H
	DB	0ffH
	DB	068H
	DB	068H
	DB	068H
	DB	0ffH
	DB	068H
	DB	068H
	DB	068H
	DB	0ffH
	DB	068H
	DB	068H
	DB	068H
	DB	0ffH
	DB	068H
	DB	064H
	DB	068H
	DB	0e7H
	DB	00H
	DB	00H
	DB	00H
	DB	00H
	DB	00H
	DB	00H
	DB	00H
	DB	00H
	DB	060H
	DB	064H
	DB	060H
	DB	049H
	DB	060H
	DB	064H
	DB	060H
	DB	0e7H
	DB	060H
	DB	064H
	DB	060H
	DB	0ffH
	DB	060H
	DB	064H
	DB	060H
	DB	0ffH
	DB	060H
	DB	064H
	DB	060H
	DB	0ffH
	DB	060H
	DB	064H
	DB	060H
	DB	0ffH
	DB	060H
	DB	064H
	DB	060H
	DB	0ffH
	DB	060H
	DB	060H
	DB	060H
	DB	0ffH
	DB	060H
	DB	064H
	DB	060H
	DB	0ffH
	DB	060H
	DB	064H
	DB	060H
	DB	0ffH
	DB	060H
	DB	060H
	DB	060H
	DB	0ffH
	DB	060H
	DB	064H
	DB	060H
	DB	0ffH
	DB	060H
	DB	064H
	DB	060H
	DB	0ffH
	DB	060H
	DB	060H
	DB	060H
	DB	0ffH
	DB	060H
	DB	064H
	DB	060H
	DB	0ffH
	DB	060H
	DB	064H
	DB	060H
	DB	0ffH
	DB	060H
	DB	060H
	DB	060H
	DB	0ffH
	DB	060H
	DB	064H
	DB	060H
	DB	0ffH
	DB	060H
	DB	064H
	DB	060H
	DB	0ffH
	DB	060H
	DB	060H
	DB	060H
	DB	0ffH
	DB	060H
	DB	064H
	DB	060H
	DB	0ffH
	DB	060H
	DB	064H
	DB	060H
	DB	0ffH
	DB	060H
	DB	060H
	DB	060H
	DB	0ffH
	DB	060H
	DB	064H
	DB	060H
	DB	0ffH
	DB	060H
	DB	064H
	DB	060H
	DB	0ffH
	DB	060H
	DB	060H
	DB	060H
	DB	0ffH
	DB	060H
	DB	064H
	DB	060H
	DB	0ffH
	DB	060H
	DB	064H
	DB	060H
	DB	0ffH
	DB	060H
	DB	060H
	DB	060H
	DB	0ffH
	DB	060H
	DB	064H
	DB	060H
	DB	0ffH
	DB	060H
	DB	064H
	DB	060H
	DB	0ffH
	DB	060H
	DB	060H
	DB	060H
	DB	0ffH
	DB	060H
	DB	064H
	DB	060H
	DB	0ffH
	DB	060H
	DB	064H
	DB	060H
	DB	0ffH
	DB	060H
	DB	060H
	DB	060H
	DB	0ffH
	DB	060H
	DB	064H
	DB	060H
	DB	0ffH
	DB	060H
	DB	064H
	DB	060H
	DB	0ffH
	DB	060H
	DB	060H
	DB	060H
	DB	0ffH
	DB	060H
	DB	064H
	DB	060H
	DB	0ffH
	DB	060H
	DB	064H
	DB	060H
	DB	0ffH
	DB	060H
	DB	060H
	DB	060H
	DB	0ffH
	DB	060H
	DB	064H
	DB	060H
	DB	0ffH
	DB	060H
	DB	064H
	DB	060H
	DB	0ffH
	DB	060H
	DB	060H
	DB	060H
	DB	0ffH
	DB	060H
	DB	064H
	DB	060H
	DB	0ffH
	DB	060H
	DB	064H
	DB	060H
	DB	0ffH
	DB	060H
	DB	060H
	DB	060H
	DB	0ffH
	DB	060H
	DB	064H
	DB	060H
	DB	0ffH
	DB	060H
	DB	064H
	DB	060H
	DB	0ffH
	DB	060H
	DB	060H
	DB	060H
	DB	0ffH
	DB	060H
	DB	064H
	DB	060H
	DB	0ffH
	DB	060H
	DB	064H
	DB	060H
	DB	0ffH
	DB	060H
	DB	060H
	DB	060H
	DB	0ffH
	DB	060H
	DB	064H
	DB	060H
	DB	0ffH
	DB	060H
	DB	064H
	DB	060H
	DB	0ffH
	DB	060H
	DB	060H
	DB	060H
	DB	0ffH
	DB	060H
	DB	064H
	DB	060H
	DB	0ffH
	DB	060H
	DB	064H
	DB	060H
	DB	0ffH
	DB	060H
	DB	060H
	DB	060H
	DB	0ffH
	DB	060H
	DB	064H
	DB	060H
	DB	0ffH
	DB	060H
	DB	064H
	DB	060H
	DB	0ffH
	DB	060H
	DB	060H
	DB	060H
	DB	0ffH
	DB	060H
	DB	064H
	DB	060H
	DB	0ffH
	DB	060H
	DB	064H
	DB	060H
	DB	0ffH
	DB	060H
	DB	060H
	DB	060H
	DB	0ffH
	DB	060H
	DB	064H
	DB	060H
	DB	0ffH
	DB	060H
	DB	064H
	DB	060H
	DB	0ffH
	DB	060H
	DB	060H
	DB	060H
	DB	0ffH
	DB	060H
	DB	064H
	DB	060H
	DB	0ffH
	DB	060H
	DB	064H
	DB	060H
	DB	0ffH
	DB	060H
	DB	060H
	DB	060H
	DB	0ffH
	DB	060H
	DB	064H
	DB	060H
	DB	0ffH
	DB	060H
	DB	064H
	DB	060H
	DB	0ffH
	DB	060H
	DB	060H
	DB	060H
	DB	0ffH
	DB	060H
	DB	064H
	DB	060H
	DB	0ffH
	DB	060H
	DB	064H
	DB	060H
	DB	0ffH
	DB	060H
	DB	060H
	DB	060H
	DB	0ffH
	DB	060H
	DB	064H
	DB	060H
	DB	0ffH
	DB	060H
	DB	064H
	DB	060H
	DB	0ffH
	DB	060H
	DB	060H
	DB	060H
	DB	0ffH
	DB	060H
	DB	064H
	DB	060H
	DB	0ffH
	DB	060H
	DB	064H
	DB	060H
	DB	0ffH
	DB	060H
	DB	060H
	DB	060H
	DB	0ffH
	DB	060H
	DB	064H
	DB	060H
	DB	0ffH
	DB	060H
	DB	064H
	DB	060H
	DB	0ffH
	DB	060H
	DB	060H
	DB	060H
	DB	0ffH
	DB	060H
	DB	064H
	DB	060H
	DB	0ffH
	DB	060H
	DB	064H
	DB	060H
	DB	0ffH
	DB	060H
	DB	060H
	DB	060H
	DB	0ffH
	DB	060H
	DB	064H
	DB	060H
	DB	0ffH
	DB	060H
	DB	064H
	DB	060H
	DB	0ffH
	DB	060H
	DB	060H
	DB	060H
	DB	0ffH
	DB	060H
	DB	064H
	DB	060H
	DB	0ffH
	DB	060H
	DB	064H
	DB	060H
	DB	0ffH
	DB	060H
	DB	060H
	DB	060H
	DB	0ffH
	DB	060H
	DB	064H
	DB	060H
	DB	0ffH
	DB	060H
	DB	064H
	DB	060H
	DB	0ffH
	DB	060H
	DB	060H
	DB	060H
	DB	0ffH
	DB	060H
	DB	064H
	DB	060H
	DB	0ffH
	DB	060H
	DB	064H
	DB	060H
	DB	0ffH
	DB	060H
	DB	060H
	DB	060H
	DB	0ffH
	DB	060H
	DB	064H
	DB	060H
	DB	0ffH
	DB	060H
	DB	064H
	DB	060H
	DB	0ffH
	DB	060H
	DB	060H
	DB	060H
	DB	0ffH
	DB	060H
	DB	064H
	DB	060H
	DB	0ffH
	DB	060H
	DB	064H
	DB	060H
	DB	0ffH
	DB	060H
	DB	060H
	DB	060H
	DB	0ffH
	DB	060H
	DB	064H
	DB	060H
	DB	0ffH
	DB	060H
	DB	064H
	DB	060H
	DB	0ffH
	DB	060H
	DB	060H
	DB	060H
	DB	0ffH
	DB	060H
	DB	064H
	DB	060H
	DB	0ffH
	DB	060H
	DB	064H
	DB	060H
	DB	0ffH
	DB	060H
	DB	060H
	DB	060H
	DB	0ffH
	DB	060H
	DB	064H
	DB	060H
	DB	0ffH
	DB	060H
	DB	064H
	DB	060H
	DB	0ffH
	DB	060H
	DB	060H
	DB	060H
	DB	0ffH
	DB	060H
	DB	064H
	DB	060H
	DB	0ffH
	DB	060H
	DB	064H
	DB	060H
	DB	0ffH
	DB	060H
	DB	060H
	DB	060H
	DB	0ffH
	DB	060H
	DB	064H
	DB	060H
	DB	0ffH
	DB	060H
	DB	064H
	DB	060H
	DB	0ffH
	DB	060H
	DB	060H
	DB	060H
	DB	0ffH
	DB	060H
	DB	064H
	DB	060H
	DB	0ffH
	DB	060H
	DB	064H
	DB	060H
	DB	0ffH
	DB	060H
	DB	060H
	DB	060H
	DB	0ffH
	DB	060H
	DB	064H
	DB	060H
	DB	0ffH
	DB	060H
	DB	064H
	DB	060H
	DB	0ffH
	DB	060H
	DB	060H
	DB	060H
	DB	0ffH
	DB	060H
	DB	064H
	DB	060H
	DB	0ffH
	DB	060H
	DB	064H
	DB	060H
	DB	0ffH
	DB	060H
	DB	060H
	DB	060H
	DB	0ffH
	DB	060H
	DB	064H
	DB	060H
	DB	0ffH
	DB	060H
	DB	064H
	DB	060H
	DB	0ffH
	DB	060H
	DB	060H
	DB	060H
	DB	0ffH
	DB	060H
	DB	064H
	DB	060H
	DB	0ffH
	DB	060H
	DB	064H
	DB	060H
	DB	0ffH
	DB	060H
	DB	060H
	DB	060H
	DB	0ffH
	DB	060H
	DB	064H
	DB	060H
	DB	0ffH
	DB	060H
	DB	064H
	DB	060H
	DB	0ffH
	DB	060H
	DB	060H
	DB	060H
	DB	0ffH
	DB	060H
	DB	064H
	DB	060H
	DB	0ffH
	DB	060H
	DB	064H
	DB	060H
	DB	0ffH
	DB	060H
	DB	060H
	DB	060H
	DB	0ffH
	DB	060H
	DB	064H
	DB	060H
	DB	0ffH
	DB	060H
	DB	064H
	DB	060H
	DB	0ffH
	DB	060H
	DB	060H
	DB	060H
	DB	0ffH
	DB	060H
	DB	064H
	DB	060H
	DB	0ffH
	DB	060H
	DB	064H
	DB	060H
	DB	0ffH
	DB	060H
	DB	060H
	DB	060H
	DB	0ffH
	DB	060H
	DB	064H
	DB	060H
	DB	0ffH
	DB	060H
	DB	064H
	DB	060H
	DB	0ffH
	DB	060H
	DB	060H
	DB	060H
	DB	0ffH
	DB	060H
	DB	064H
	DB	060H
	DB	0ffH
	DB	060H
	DB	064H
	DB	060H
	DB	0ffH
	DB	060H
	DB	060H
	DB	060H
	DB	0ffH
	DB	060H
	DB	064H
	DB	060H
	DB	0ffH
	DB	060H
	DB	064H
	DB	060H
	DB	0ffH
	DB	060H
	DB	060H
	DB	060H
	DB	0ffH
	DB	060H
	DB	064H
	DB	060H
	DB	0ffH
	DB	060H
	DB	064H
	DB	060H
	DB	0ffH
	DB	060H
	DB	060H
	DB	060H
	DB	0ffH
	DB	060H
	DB	064H
	DB	060H
	DB	0ffH
	DB	060H
	DB	064H
	DB	060H
	DB	0ffH
	DB	060H
	DB	060H
	DB	060H
	DB	0ffH
	DB	060H
	DB	064H
	DB	060H
	DB	0ffH
	DB	060H
	DB	064H
	DB	060H
	DB	0ffH
	DB	060H
	DB	060H
	DB	060H
	DB	0ffH
	DB	060H
	DB	064H
	DB	060H
	DB	0ffH
	DB	060H
	DB	064H
	DB	060H
	DB	0ffH
	DB	060H
	DB	060H
	DB	060H
	DB	0ffH
	DB	060H
	DB	064H
	DB	060H
	DB	0ffH
	DB	060H
	DB	064H
	DB	060H
	DB	0ffH
	DB	060H
	DB	060H
	DB	060H
	DB	0ffH
	DB	060H
	DB	064H
	DB	060H
	DB	0ffH
	DB	060H
	DB	064H
	DB	060H
	DB	0ffH
	DB	060H
	DB	060H
	DB	060H
	DB	0ffH
	DB	060H
	DB	064H
	DB	060H
	DB	0ffH
	DB	060H
	DB	064H
	DB	060H
	DB	0ffH
	DB	060H
	DB	060H
	DB	060H
	DB	0ffH
	DB	060H
	DB	064H
	DB	060H
	DB	0ffH
	DB	060H
	DB	064H
	DB	060H
	DB	0ffH
	DB	060H
	DB	060H
	DB	060H
	DB	0ffH
	DB	060H
	DB	064H
	DB	060H
	DB	0ffH
	DB	060H
	DB	064H
	DB	060H
	DB	0ffH
	DB	060H
	DB	060H
	DB	060H
	DB	0ffH
	DB	060H
	DB	064H
	DB	060H
	DB	0ffH
	DB	060H
	DB	064H
	DB	060H
	DB	0ffH
	DB	060H
	DB	060H
	DB	060H
	DB	0ffH
	DB	060H
	DB	064H
	DB	060H
	DB	0ffH
	DB	060H
	DB	064H
	DB	060H
	DB	0ffH
	DB	060H
	DB	060H
	DB	060H
	DB	0ffH
	DB	060H
	DB	064H
	DB	060H
	DB	0ffH
	DB	060H
	DB	064H
	DB	060H
	DB	0ffH
	DB	060H
	DB	060H
	DB	060H
	DB	0ffH
	DB	060H
	DB	064H
	DB	060H
	DB	0ffH
	DB	060H
	DB	064H
	DB	060H
	DB	0ffH
	DB	060H
	DB	060H
	DB	060H
	DB	0ffH
	DB	060H
	DB	064H
	DB	060H
	DB	0ffH
	DB	060H
	DB	064H
	DB	060H
	DB	0ffH
	DB	060H
	DB	060H
	DB	060H
	DB	0ffH
	DB	060H
	DB	064H
	DB	060H
	DB	0ffH
	DB	060H
	DB	064H
	DB	060H
	DB	0ffH
	DB	060H
	DB	060H
	DB	060H
	DB	0ffH
	DB	060H
	DB	064H
	DB	060H
	DB	0ffH
	DB	060H
	DB	064H
	DB	060H
	DB	0ffH
	DB	060H
	DB	060H
	DB	060H
	DB	0ffH
	DB	060H
	DB	064H
	DB	060H
	DB	0ffH
	DB	060H
	DB	064H
	DB	060H
	DB	0ffH
	DB	060H
	DB	060H
	DB	060H
	DB	0ffH
	DB	060H
	DB	064H
	DB	060H
	DB	0ffH
	DB	060H
	DB	064H
	DB	060H
	DB	0ffH
	DB	060H
	DB	060H
	DB	060H
	DB	0ffH
	DB	060H
	DB	064H
	DB	060H
	DB	0ffH
	DB	060H
	DB	064H
	DB	060H
	DB	0ffH
	DB	060H
	DB	060H
	DB	060H
	DB	0ffH
	DB	060H
	DB	064H
	DB	060H
	DB	0ffH
	DB	060H
	DB	064H
	DB	060H
	DB	0ffH
	DB	060H
	DB	060H
	DB	060H
	DB	0ffH
	DB	060H
	DB	064H
	DB	060H
	DB	0ffH
	DB	060H
	DB	064H
	DB	060H
	DB	0ffH
	DB	060H
	DB	060H
	DB	060H
	DB	0ffH
	DB	060H
	DB	064H
	DB	060H
	DB	0ffH
	DB	060H
	DB	064H
	DB	060H
	DB	0ffH
	DB	060H
	DB	060H
	DB	060H
	DB	0ffH
	DB	060H
	DB	064H
	DB	060H
	DB	0ffH
	DB	060H
	DB	064H
	DB	060H
	DB	0ffH
	DB	060H
	DB	060H
	DB	060H
	DB	0ffH
	DB	060H
	DB	064H
	DB	060H
	DB	0ffH
	DB	060H
	DB	064H
	DB	060H
	DB	0ffH
	DB	060H
	DB	060H
	DB	060H
	DB	0ffH
	DB	060H
	DB	064H
	DB	060H
	DB	0ffH
	DB	060H
	DB	064H
	DB	060H
	DB	0ffH
	DB	060H
	DB	060H
	DB	060H
	DB	0ffH
	DB	060H
	DB	064H
	DB	060H
	DB	0ffH
	DB	060H
	DB	064H
	DB	060H
	DB	0ffH
	DB	060H
	DB	060H
	DB	060H
	DB	0ffH
	DB	060H
	DB	064H
	DB	060H
	DB	0ffH
	DB	060H
	DB	064H
	DB	060H
	DB	0ffH
	DB	060H
	DB	060H
	DB	060H
	DB	0ffH
	DB	060H
	DB	064H
	DB	060H
	DB	0ffH
	DB	060H
	DB	064H
	DB	060H
	DB	0ffH
	DB	060H
	DB	060H
	DB	060H
	DB	0ffH
	DB	060H
	DB	064H
	DB	060H
	DB	0ffH
	DB	060H
	DB	064H
	DB	060H
	DB	0ffH
	DB	060H
	DB	060H
	DB	060H
	DB	0ffH
	DB	060H
	DB	064H
	DB	060H
	DB	0ffH
	DB	060H
	DB	064H
	DB	060H
	DB	0ffH
	DB	060H
	DB	060H
	DB	060H
	DB	0ffH
	DB	060H
	DB	064H
	DB	060H
	DB	0ffH
	DB	060H
	DB	064H
	DB	060H
	DB	0ffH
	DB	060H
	DB	060H
	DB	060H
	DB	0ffH
	DB	060H
	DB	064H
	DB	060H
	DB	0ffH
	DB	060H
	DB	064H
	DB	060H
	DB	0ffH
	DB	060H
	DB	060H
	DB	060H
	DB	0ffH
	DB	060H
	DB	064H
	DB	060H
	DB	0ffH
	DB	060H
	DB	064H
	DB	060H
	DB	0ffH
	DB	060H
	DB	060H
	DB	060H
	DB	0ffH
	DB	060H
	DB	064H
	DB	060H
	DB	0ffH
	DB	060H
	DB	064H
	DB	060H
	DB	0ffH
	DB	060H
	DB	060H
	DB	060H
	DB	0ffH
	DB	060H
	DB	064H
	DB	060H
	DB	0ffH
	DB	060H
	DB	064H
	DB	060H
	DB	0ffH
	DB	060H
	DB	060H
	DB	060H
	DB	0ffH
	DB	060H
	DB	064H
	DB	060H
	DB	0ffH
	DB	060H
	DB	064H
	DB	060H
	DB	0ffH
	DB	060H
	DB	060H
	DB	060H
	DB	0ffH
	DB	060H
	DB	064H
	DB	060H
	DB	0ffH
	DB	060H
	DB	064H
	DB	060H
	DB	0ffH
	DB	060H
	DB	060H
	DB	060H
	DB	0ffH
	DB	060H
	DB	064H
	DB	060H
	DB	0ffH
	DB	060H
	DB	064H
	DB	060H
	DB	0ffH
	DB	060H
	DB	060H
	DB	060H
	DB	0ffH
	DB	060H
	DB	064H
	DB	060H
	DB	0ffH
	DB	060H
	DB	064H
	DB	060H
	DB	0ffH
	DB	060H
	DB	060H
	DB	060H
	DB	0ffH
	DB	060H
	DB	064H
	DB	060H
	DB	0ffH
	DB	060H
	DB	064H
	DB	060H
	DB	0ffH
	DB	060H
	DB	060H
	DB	060H
	DB	0ffH
	DB	060H
	DB	064H
	DB	060H
	DB	0ffH
	DB	060H
	DB	064H
	DB	060H
	DB	0ffH
	DB	060H
	DB	060H
	DB	060H
	DB	0ffH
	DB	060H
	DB	064H
	DB	060H
	DB	0ffH
	DB	060H
	DB	064H
	DB	060H
	DB	0ffH
	DB	060H
	DB	060H
	DB	060H
	DB	0ffH
	DB	060H
	DB	064H
	DB	060H
	DB	0ffH
	DB	060H
	DB	064H
	DB	060H
	DB	0ffH
	DB	060H
	DB	060H
	DB	060H
	DB	0ffH
	DB	060H
	DB	064H
	DB	060H
	DB	0ffH
	DB	060H
	DB	064H
	DB	060H
	DB	0ffH
	DB	060H
	DB	060H
	DB	060H
	DB	0ffH
	DB	060H
	DB	064H
	DB	060H
	DB	0ffH
	DB	060H
	DB	064H
	DB	060H
	DB	0ffH
	DB	060H
	DB	060H
	DB	060H
	DB	0ffH
	DB	060H
	DB	064H
	DB	060H
	DB	0ffH
	DB	060H
	DB	064H
	DB	060H
	DB	0ffH
	DB	060H
	DB	060H
	DB	060H
	DB	0ffH
	DB	060H
	DB	064H
	DB	060H
	DB	0ffH
	DB	060H
	DB	064H
	DB	060H
	DB	0ffH
	DB	060H
	DB	060H
	DB	060H
	DB	0ffH
	DB	060H
	DB	064H
	DB	060H
	DB	0ffH
	DB	060H
	DB	064H
	DB	060H
	DB	0ffH
	DB	060H
	DB	060H
	DB	060H
	DB	0ffH
	DB	060H
	DB	064H
	DB	060H
	DB	0ffH
	DB	060H
	DB	064H
	DB	060H
	DB	0ffH
	DB	060H
	DB	060H
	DB	060H
	DB	0ffH
	DB	060H
	DB	064H
	DB	060H
	DB	0ffH
	DB	060H
	DB	064H
	DB	060H
	DB	0ffH
	DB	060H
	DB	060H
	DB	060H
	DB	0ffH
	DB	060H
	DB	064H
	DB	060H
	DB	0ffH
	DB	060H
	DB	064H
	DB	060H
	DB	0ffH
	DB	060H
	DB	060H
	DB	060H
	DB	0ffH
	DB	060H
	DB	064H
	DB	060H
	DB	0ffH
	DB	060H
	DB	064H
	DB	060H
	DB	0ffH
	DB	060H
	DB	060H
	DB	060H
	DB	0ffH
	DB	060H
	DB	064H
	DB	060H
	DB	0ffH
	DB	060H
	DB	064H
	DB	060H
	DB	0ffH
	DB	060H
	DB	060H
	DB	060H
	DB	0ffH
	DB	060H
	DB	064H
	DB	060H
	DB	0ffH
	DB	060H
	DB	064H
	DB	060H
	DB	0ffH
	DB	060H
	DB	060H
	DB	060H
	DB	0ffH
	DB	060H
	DB	064H
	DB	060H
	DB	0ffH
	DB	060H
	DB	064H
	DB	060H
	DB	0ffH
	DB	060H
	DB	060H
	DB	060H
	DB	0ffH
	DB	060H
	DB	064H
	DB	060H
	DB	0ffH
	DB	060H
	DB	064H
	DB	060H
	DB	0ffH
	DB	060H
	DB	060H
	DB	060H
	DB	0ffH
	DB	060H
	DB	064H
	DB	060H
	DB	0ffH
	DB	060H
	DB	064H
	DB	060H
	DB	0ffH
	DB	060H
	DB	060H
	DB	060H
	DB	0ffH
	DB	060H
	DB	064H
	DB	060H
	DB	0ffH
	DB	060H
	DB	064H
	DB	060H
	DB	0ffH
	DB	060H
	DB	060H
	DB	060H
	DB	0ffH
	DB	060H
	DB	064H
	DB	060H
	DB	0ffH
	DB	060H
	DB	064H
	DB	060H
	DB	0ffH
	DB	060H
	DB	060H
	DB	060H
	DB	0ffH
	DB	060H
	DB	064H
	DB	060H
	DB	0ffH
	DB	060H
	DB	064H
	DB	060H
	DB	0ffH
	DB	060H
	DB	060H
	DB	060H
	DB	0ffH
	DB	060H
	DB	064H
	DB	060H
	DB	0ffH
	DB	060H
	DB	064H
	DB	060H
	DB	0ffH
	DB	060H
	DB	060H
	DB	060H
	DB	0ffH
	DB	060H
	DB	064H
	DB	060H
	DB	0ffH
	DB	060H
	DB	064H
	DB	060H
	DB	0ffH
	DB	060H
	DB	064H
	DB	060H
	DB	0ffH
	DB	060H
	DB	064H
	DB	060H
	DB	0ffH
	DB	060H
	DB	064H
	DB	060H
	DB	0ffH
	DB	060H
	DB	064H
	DB	060H
	DB	0ffH
	DB	060H
	DB	064H
	DB	060H
	DB	0ffH
	DB	060H
	DB	064H
	DB	060H
	DB	0e3H
	DB	060H
	DB	064H
	DB	060H
	DB	049H
	DB	00H
	DB	00H
	DB	00H
	DB	00H
	DB	00H
	DB	00H
	DB	00H
	DB	00H
	DB	00H
	DB	00H
	DB	00H
	DB	00H
	DB	00H
	DB	00H
	DB	00H
	DB	00H
	DB	00H
	DB	00H
	DB	00H
	DB	00H
	DB	00H
	DB	00H
	DB	00H
	DB	00H
	DB	00H
	DB	00H
	DB	00H
	DB	00H
	DB	00H
	DB	00H
	DB	00H
	DB	00H
	DB	00H
	DB	00H
	DB	00H
	DB	00H
	DB	00H
	DB	00H
	DB	00H
	DB	00H
	DB	00H
	DB	00H
	DB	00H
	DB	00H
	DB	00H
	DB	00H
	DB	00H
	DB	00H
	DB	00H
	DB	00H
	DB	00H
	DB	00H
	DB	00H
	DB	00H
	DB	00H
	DB	00H
	DB	00H
	DB	00H
	DB	00H
	DB	00H
	DB	00H
	DB	00H
	DB	00H
	DB	00H
	DB	00H
	DB	00H
	DB	00H
	DB	00H
	DB	00H
	DB	00H
	DB	00H
	DB	00H
	DB	00H
	DB	00H
	DB	00H
	DB	00H
	DB	00H
	DB	00H
	DB	00H
	DB	00H
	DB	00H
	DB	00H
	DB	00H
	DB	00H
	DB	00H
	DB	00H
	DB	00H
	DB	00H
	DB	00H
	DB	00H
	DB	00H
	DB	00H
	DB	00H
	DB	00H
	DB	00H
	DB	00H
	DB	00H
	DB	00H
	DB	00H
	DB	00H
	DB	00H
	DB	00H
	DB	00H
	DB	00H
	DB	00H
	DB	00H
	DB	00H
	DB	00H
	DB	00H
	DB	00H
	DB	00H
	DB	00H
	DB	00H
	DB	00H
	DB	00H
	DB	00H
	DB	00H
	DB	00H
	DB	00H
	DB	00H
	DB	00H
	DB	00H
	DB	00H
	DB	00H
	DB	00H
	DB	00H
	DB	00H
	DB	00H
	DB	00H
	DB	00H
	DB	00H
	DB	00H
	DB	00H
	DB	00H
	DB	00H
	DB	00H
	DB	00H
	DB	00H
	DB	00H
	DB	00H
	DB	00H
	DB	00H
	DB	00H
	DB	00H
	DB	00H
	DB	00H
	DB	00H
	DB	00H
	DB	00H
	DB	00H
	DB	00H
	DB	00H
	DB	00H
	DB	00H
	DB	00H
	DB	00H
	DB	00H
	DB	00H
	DB	00H
	DB	00H
	DB	00H
	DB	00H
	DB	00H
	DB	00H
	DB	00H
	DB	00H
	DB	00H
	DB	00H
	DB	00H
	DB	00H
	DB	00H
	DB	00H
	DB	00H
	DB	00H
	DB	00H
	DB	00H
	DB	00H
	DB	00H
	DB	00H
	DB	00H
	DB	00H
	DB	00H
	DB	00H
	DB	00H
	DB	00H
	DB	00H
	DB	00H
	DB	00H
	DB	00H
	DB	00H
	DB	00H
	DB	00H
	DB	00H
	DB	00H
	DB	00H
	DB	00H
	DB	00H
	DB	00H
	DB	00H
	DB	00H
	DB	00H
	DB	00H
	DB	00H
	DB	00H
	DB	00H
	DB	00H
	DB	00H
	DB	00H
	DB	00H
	DB	00H
	DB	00H
	DB	00H
	DB	00H
	DB	00H
	DB	00H
	DB	00H
	DB	00H
	DB	00H
	DB	00H
	DB	00H
	DB	00H
	DB	00H
	DB	00H
	DB	00H
	DB	00H
	DB	00H
	DB	00H
	DB	00H
	DB	00H
	DB	00H
	DB	00H
	DB	00H
	DB	00H
	DB	00H
	DB	00H
	DB	00H
	DB	00H
	DB	00H
	DB	00H
	DB	00H
	DB	00H
	DB	00H
	DB	00H
	DB	00H
	DB	00H
	DB	00H
	DB	00H
	DB	00H
	DB	00H
	DB	00H
	DB	00H
	DB	00H
	DB	00H
	DB	00H
	DB	00H
	DB	00H
	DB	00H
	DB	00H
	DB	00H
	DB	00H
	DB	00H
	DB	00H
	DB	00H
	DB	00H
	DB	00H
	DB	00H
	DB	00H
	DB	00H
	DB	00H
	DB	00H
	DB	00H
	DB	00H
	DB	00H
	DB	00H
	DB	00H
	DB	00H
	DB	00H
	DB	00H
	DB	00H
	DB	00H
	DB	00H
	DB	00H
	DB	00H
	DB	00H
	DB	00H
	DB	00H
	DB	00H
	DB	00H
	DB	00H
	DB	00H
	DB	00H
	DB	00H
	DB	00H
	DB	00H
	DB	00H
	DB	00H
	DB	00H
	DB	00H
	DB	00H
	DB	00H
	DB	00H
	DB	00H
	DB	00H
	DB	00H
	DB	00H
	DB	00H
	DB	00H
	DB	00H
	DB	00H
	DB	00H
	DB	00H
	DB	00H
	DB	00H
	DB	00H
	DB	00H
	DB	00H
	DB	00H
	DB	00H
	DB	00H
	DB	00H
	DB	00H
	DB	00H
	DB	00H
	DB	00H
	DB	00H
	DB	00H
	DB	00H
	DB	00H
	DB	00H
	DB	00H
	DB	00H
	DB	00H
	DB	00H
	DB	00H
	DB	00H
	DB	00H
	DB	00H
	DB	00H
	DB	00H
	DB	00H
	DB	00H
	DB	00H
	DB	00H
	DB	00H
	DB	00H
	DB	00H
	DB	00H
	DB	00H
	DB	00H
	DB	00H
	DB	00H
	DB	00H
	DB	00H
	DB	00H
	DB	00H
	DB	00H
	DB	00H
	DB	00H
	DB	00H
	DB	00H
	DB	00H
	DB	00H
	DB	00H
	DB	00H
	DB	00H
	DB	00H
	DB	00H
	DB	00H
	DB	00H
	DB	00H
	DB	00H
	DB	00H
	DB	00H
	DB	00H
	DB	00H
	DB	00H
	DB	00H
	DB	00H
	DB	00H
	DB	00H
	DB	00H
	DB	00H
	DB	00H
	DB	00H
	DB	00H
	DB	00H
	DB	00H
	DB	00H
	DB	00H
	DB	00H
	DB	00H
	DB	00H
	DB	00H
	DB	00H
	DB	00H
	DB	00H
	DB	00H
	DB	00H
	DB	00H
	DB	00H
	DB	00H
	DB	00H
	DB	00H
	DB	00H
	DB	00H
	DB	00H
	DB	00H
	DB	00H
	DB	00H
	DB	00H
	DB	00H
	DB	00H
	DB	00H
	DB	00H
	DB	00H
	DB	00H
	DB	00H
	DB	00H
	DB	00H
	DB	00H
	DB	00H
	DB	00H
	DB	00H
	DB	00H
	DB	00H
	DB	00H
	DB	00H
	DB	00H
	DB	00H
	DB	00H
	DB	00H
	DB	00H
	DB	00H
	DB	00H
	DB	00H
	DB	00H
	DB	00H
	DB	00H
	DB	00H
	DB	00H
	DB	00H
	DB	00H
	DB	00H
	DB	00H
	DB	00H
	DB	00H
	DB	00H
	DB	00H
	DB	00H
	DB	00H
	DB	00H
	DB	00H
	DB	00H
	DB	00H
	DB	00H
	DB	00H
	DB	00H
	DB	00H
	DB	00H
	DB	00H
	DB	00H
	DB	00H
	DB	00H
	DB	00H
	DB	00H
	DB	00H
	DB	00H
	DB	00H
	DB	00H
	DB	00H
	DB	00H
	DB	00H
	DB	00H
	DB	00H
	DB	00H
	DB	00H
	DB	00H
	DB	00H
	DB	00H
	DB	00H
	DB	00H
	DB	00H
	DB	00H
	DB	00H
	DB	00H
	DB	00H
	DB	00H
	DB	00H
	DB	00H
	DB	00H
	DB	00H
	DB	00H
	DB	00H
	DB	00H
	DB	00H
	DB	00H
	DB	00H
	DB	00H
	DB	00H
	DB	00H
	DB	00H
	DB	00H
	DB	00H
	DB	00H
	DB	00H
	DB	00H
	DB	00H
	DB	00H
	DB	00H
	DB	00H
	DB	00H
	DB	00H
	DB	00H
	DB	00H
	DB	00H
	DB	00H
	DB	00H
	DB	00H
	DB	00H
	DB	00H
	DB	00H
	DB	00H
	DB	00H
	DB	00H
	DB	00H
	DB	00H
	DB	00H
	DB	00H
	DB	00H
	DB	00H
	DB	00H
	DB	00H
	DB	00H
	DB	00H
	DB	00H
	DB	00H
	DB	00H
	DB	00H
	DB	00H
	DB	00H
	DB	00H
	DB	00H
	DB	00H
	DB	00H
	DB	00H
	DB	00H
	DB	00H
	DB	00H
	DB	00H
	DB	00H
	DB	00H
	DB	00H
	DB	00H
	DB	00H
	DB	00H
	DB	00H
	DB	00H
	DB	00H
	DB	00H
	DB	00H
	DB	00H
	DB	00H
	DB	00H
	DB	00H
	DB	00H
	DB	00H
	DB	00H
	DB	00H
	DB	00H
	DB	00H
	DB	00H
	DB	00H
	DB	00H
	DB	00H
	DB	00H
	DB	00H
	DB	00H
	DB	00H
	DB	00H
	DB	00H
	DB	00H
	DB	00H
	DB	00H
	DB	00H
	DB	00H
	DB	00H
	DB	00H
	DB	00H
	DB	00H
	DB	00H
	DB	00H
	DB	00H
	DB	00H
	DB	00H
	DB	00H
	DB	00H
	DB	00H
	DB	00H
	DB	00H
	DB	00H
	DB	00H
	DB	00H
	DB	00H
	DB	00H
	DB	00H
	DB	00H
	DB	00H
	DB	00H
	DB	00H
	DB	00H
	DB	00H
	DB	00H
	DB	00H
	DB	00H
	DB	00H
	DB	00H
	DB	00H
	DB	00H
	DB	00H
	DB	00H
	DB	00H
	DB	00H
	DB	00H
	DB	00H
	DB	00H
	DB	00H
	DB	00H
	DB	00H
	DB	00H
	DB	00H
	DB	00H
	DB	00H
	DB	00H
	DB	00H
	DB	00H
	DB	00H
	DB	00H
	DB	00H
	DB	00H
	DB	00H
	DB	00H
	DB	00H
	DB	00H
	DB	00H
	DB	00H
	DB	00H
	DB	00H
	DB	00H
	DB	00H
	DB	00H
	DB	00H
	DB	00H
	DB	00H
	DB	00H
	DB	00H
	DB	00H
	DB	00H
	DB	00H
	DB	00H
	DB	00H
	DB	00H
	DB	00H
	DB	00H
	DB	00H
	DB	00H
	DB	00H
	DB	00H
	DB	00H
	DB	00H
	DB	00H
	DB	00H
	DB	00H
	DB	00H
	DB	00H
	DB	00H
	DB	00H
	DB	00H
	DB	00H
	DB	00H
	DB	00H
	DB	00H
	DB	00H
	DB	00H
	DB	00H
	DB	00H
	DB	00H
	DB	00H
	DB	00H
	DB	00H
	DB	00H
	DB	00H
	DB	00H
	DB	00H
	DB	00H
	DB	00H
	DB	00H
	DB	00H
	DB	00H
	DB	00H
	DB	00H
	DB	00H
	DB	00H
	DB	00H
	DB	00H
	DB	00H
	DB	00H
	DB	00H
	DB	00H
	DB	00H
	DB	00H
	DB	00H
	DB	00H
	DB	00H
	DB	00H
	DB	00H
	DB	00H
	DB	00H
	DB	00H
	DB	00H
	DB	00H
	DB	00H
	DB	00H
	DB	00H
	DB	00H
	DB	00H
	DB	00H
	DB	00H
	DB	00H
	DB	00H
	DB	00H
	DB	00H
	DB	00H
	DB	00H
	DB	00H
	DB	00H
	DB	00H
	DB	00H
	DB	00H
	DB	00H
	DB	00H
	DB	00H
	DB	00H
	DB	00H
	DB	00H
	DB	00H
	DB	00H
	DB	00H
	DB	00H
	DB	00H
	DB	00H
	DB	00H
	DB	00H
	DB	00H
	DB	00H
	DB	00H
	DB	00H
	DB	00H
	DB	00H
	DB	00H
	DB	00H
	DB	00H
	DB	00H
	DB	00H
	DB	00H
	DB	00H
	DB	00H
	DB	00H
	DB	00H
	DB	00H
	DB	00H
	DB	00H
	DB	00H
	DB	00H
	DB	00H
	DB	00H
	DB	00H
	DB	00H
	DB	00H
	DB	00H
	DB	00H
	DB	00H
	DB	00H
	DB	00H
	DB	00H
	DB	00H
	DB	00H
	DB	00H
	DB	00H
	DB	00H
	DB	00H
	DB	00H
	DB	00H
	DB	00H
	DB	00H
	DB	00H
	DB	00H
	DB	00H
	DB	00H
	DB	00H
	DB	00H
	DB	00H
	DB	00H
	DB	00H
	DB	00H
	DB	00H
	DB	00H
	DB	00H
	DB	00H
	DB	00H
	DB	00H
	DB	00H
	DB	00H
	DB	00H
	DB	00H
	DB	00H
	DB	00H
	DB	00H
	DB	00H
	DB	00H
	DB	00H
	DB	00H
	DB	00H
	DB	00H
	DB	00H
	DB	00H
	DB	00H
	DB	00H
	DB	00H
	DB	00H
	DB	00H
	DB	00H
	DB	00H
	DB	00H
	DB	00H
	DB	00H
	DB	00H
	DB	00H
	DB	00H
	DB	00H
	DB	00H
	DB	00H
	DB	00H
	DB	00H
	DB	00H
	DB	00H
	DB	00H
	DB	00H
	DB	00H
	DB	00H
	DB	00H
	DB	00H
	DB	00H
	DB	00H
	DB	00H
	DB	00H
	DB	00H
	DB	00H
	DB	00H
	DB	00H
	DB	00H
	DB	00H
	DB	00H
	DB	00H
	DB	00H
	DB	00H
	DB	00H
	DB	00H
	DB	00H
	DB	00H
	DB	00H
	DB	00H
	DB	00H
	DB	00H
	DB	00H
	DB	00H
	DB	00H
	DB	00H
	DB	00H
	DB	00H
	DB	00H
	DB	00H
	DB	00H
	DB	00H
	DB	00H
	DB	00H
	DB	00H
	DB	00H
	DB	00H
	DB	00H
	DB	00H
	DB	00H
	DB	00H
	DB	00H
	DB	00H
	DB	00H
	DB	00H
	DB	00H
	DB	00H
	DB	00H
	DB	00H
	DB	00H
	DB	00H
	DB	00H
	DB	00H
	DB	00H
	DB	00H
	DB	00H
	DB	00H
	DB	00H
	DB	00H
	DB	00H
	DB	00H
	DB	00H
	DB	00H
	DB	00H
	DB	00H
	DB	00H
	DB	00H
	DB	00H
	DB	00H
	DB	00H
	DB	00H
	DB	00H
	DB	00H
	DB	00H
	DB	00H
	DB	00H
	DB	00H
	DB	00H
	DB	00H
	DB	00H
	DB	00H
	DB	00H
	DB	00H
	DB	00H
	DB	00H
	DB	00H
	DB	00H
	DB	00H
	DB	00H
	DB	00H
	DB	00H
	DB	00H
	DB	00H
	DB	00H
	DB	00H
	DB	00H
	DB	00H
	DB	00H
	DB	00H
	DB	00H
	DB	00H
	DB	00H
	DB	00H
	DB	00H
	DB	00H
	DB	00H
	DB	00H
	DB	00H
	DB	00H
	DB	00H
	DB	00H
	DB	00H
	DB	00H
	DB	00H
	DB	00H
	DB	00H
	DB	00H
	DB	00H
	DB	00H
	DB	00H
	DB	00H
	DB	00H
	DB	00H
	DB	00H
	DB	00H
	DB	00H
	DB	00H
	DB	00H
	DB	00H
	DB	00H
	DB	00H
	DB	00H
	DB	00H
	DB	00H
	DB	00H
	DB	00H
	DB	00H
	DB	00H
	DB	00H
	DB	00H
	DB	00H
	DB	00H
	DB	00H
	DB	00H
	DB	00H
	DB	00H
	DB	00H
	DB	00H
	DB	00H
	DB	00H
	DB	00H
	DB	00H
	DB	00H
	DB	00H
	DB	00H
	DB	00H
	DB	00H
	DB	00H
	DB	00H
	DB	00H
	DB	00H
	DB	00H
	DB	00H
	DB	00H
	DB	00H
	DB	00H
	DB	00H
	DB	00H
	DB	00H
	DB	00H
	DB	00H
	DB	00H
	DB	00H
	DB	00H
	DB	00H
	DB	00H
	DB	00H
	DB	00H
	DB	00H
	DB	00H
	DB	00H
	DB	00H
	DB	00H
	DB	00H
	DB	00H
	DB	00H
	DB	00H
	DB	00H
	DB	00H
	DB	00H
	DB	00H
	DB	00H
	DB	00H
	DB	00H
	DB	00H
	DB	00H
	DB	00H
	DB	00H
	DB	00H
	DB	00H
	DB	00H
	DB	00H
	DB	00H
	DB	00H
	DB	00H
	DB	00H
	DB	00H
	DB	00H
	DB	00H
	DB	00H
	DB	00H
	DB	00H
	DB	00H
	DB	00H
	DB	00H
	DB	00H
	DB	00H
	DB	00H
	DB	00H
	DB	00H
	DB	00H
	DB	00H
	DB	00H
	DB	00H
	DB	00H
	DB	00H
	DB	00H
	DB	00H
	DB	00H
	DB	00H
	DB	00H
	DB	00H
	DB	00H
	DB	00H
	DB	00H
	DB	00H
	DB	00H
	DB	00H
	DB	00H
	DB	00H
	DB	00H
	DB	00H
	DB	00H
	DB	00H
	DB	00H
	DB	00H
	DB	00H
	DB	00H
	DB	00H
	DB	00H
	DB	00H
	DB	00H
	DB	00H
	DB	00H
	DB	00H
	DB	00H
	DB	00H
	DB	00H
	DB	00H
	DB	00H
	DB	00H
	DB	00H
	DB	00H
	DB	00H
	DB	00H
	DB	00H
	DB	00H
	DB	00H
	DB	00H
	DB	00H
	DB	00H
	DB	00H
	DB	00H
	DB	00H
	DB	00H
	DB	00H
	DB	00H
	DB	00H
	DB	00H
	DB	00H
	DB	00H
	DB	00H
	DB	00H
	DB	00H
	DB	00H
	DB	00H
	DB	00H
	DB	00H
	DB	00H
	DB	00H
	DB	00H
	DB	00H
	DB	00H
	DB	00H
	DB	00H
	DB	00H
	DB	00H
	DB	00H
	DB	00H
	DB	00H
	DB	00H
	DB	00H
	DB	00H
	DB	00H
	DB	00H
	DB	00H
	DB	00H
	DB	00H
	DB	00H
	DB	00H
	DB	00H
	DB	00H
	DB	00H
	DB	00H
	DB	00H
	DB	00H
	DB	00H
	DB	00H
	DB	00H
	DB	00H
	DB	00H
	DB	00H
	DB	00H
	DB	00H
	DB	00H
	DB	00H
	DB	00H
	DB	00H
	DB	00H
	DB	00H
	DB	00H
	DB	00H
	DB	00H
	DB	00H
	DB	00H
	DB	00H
	DB	00H
	DB	00H
	DB	00H
	DB	00H
	DB	00H
	DB	00H
	DB	00H
	DB	00H
	DB	00H
	DB	00H
	DB	00H
	DB	00H
	DB	00H
	DB	00H
	DB	00H
	DB	00H
	DB	00H
	DB	00H
	DB	00H
	DB	00H
	DB	00H
	DB	00H
	DB	00H
	DB	00H
	DB	00H
	DB	00H
	DB	00H
	DB	00H
	DB	00H
	DB	00H
	DB	00H
	DB	00H
	DB	00H
	DB	00H
	DB	00H
	DB	00H
	DB	00H
	DB	00H
	DB	00H
	DB	00H
	DB	00H
	DB	00H
	DB	00H
	DB	00H
	DB	00H
	DB	00H
	DB	00H
	DB	00H
	DB	00H
	DB	00H
	DB	00H
	DB	00H
	DB	00H
	DB	00H
	DB	00H
	DB	00H
	DB	00H
	DB	00H
	DB	00H
	DB	00H
	DB	00H
	DB	00H
	DB	00H
	DB	00H
	DB	00H
	DB	00H
	DB	00H
	DB	00H
	DB	00H
	DB	00H
	DB	00H
	DB	00H
	DB	00H
	DB	00H
	DB	00H
	DB	00H
	DB	00H
	DB	00H
	DB	00H
	DB	00H
	DB	00H
	DB	00H
	DB	00H
	DB	00H
	DB	00H
	DB	00H
	DB	00H
	DB	00H
	DB	00H
	DB	00H
	DB	00H
	DB	00H
	DB	00H
	DB	00H
	DB	00H
	DB	00H
	DB	00H
	DB	00H
	DB	00H
	DB	00H
	DB	00H
	DB	00H
	DB	00H
	DB	00H
	DB	00H
	DB	00H
	DB	00H
	DB	00H
	DB	00H
	DB	00H
	DB	00H
	DB	00H
	DB	00H
	DB	00H
	DB	00H
	DB	00H
	DB	00H
	DB	00H
	DB	00H
	DB	00H
	DB	00H
	DB	00H
	DB	00H
	DB	00H
	DB	00H
	DB	00H
	DB	00H
	DB	00H
	DB	00H
	DB	00H
	DB	00H
	DB	00H
	DB	00H
	DB	00H
	DB	00H
	DB	00H
	DB	00H
	DB	00H
	DB	00H
	DB	00H
	DB	00H
	DB	00H
	DB	00H
	DB	00H
	DB	00H
	DB	00H
	DB	00H
	DB	00H
	DB	00H
	DB	00H
	DB	00H
	DB	00H
	DB	00H
	DB	00H
	DB	00H
	DB	00H
	DB	00H
	DB	00H
	DB	00H
	DB	00H
	DB	00H
	DB	00H
	DB	00H
	DB	00H
	DB	00H
	DB	00H
	DB	00H
	DB	00H
	DB	00H
	DB	00H
	DB	00H
	DB	00H
	DB	00H
	DB	00H
	DB	00H
	DB	00H
	DB	00H
	DB	00H
	DB	00H
	DB	00H
	DB	00H
	DB	00H
	DB	00H
	DB	00H
	DB	00H
	DB	00H
	DB	00H
	DB	00H
	DB	00H
	DB	00H
	DB	00H
	DB	00H
	DB	00H
	DB	00H
	DB	00H
	DB	00H
	DB	00H
	DB	00H
	DB	00H
	DB	00H
	DB	00H
	DB	00H
	DB	00H
	DB	00H
	DB	00H
	DB	00H
	DB	00H
	DB	00H
	DB	00H
	DB	00H
	DB	00H
	DB	00H
	DB	00H
	DB	00H
	DB	00H
	DB	00H
	DB	00H
	DB	00H
	DB	00H
	DB	00H
	DB	00H
	DB	00H
	DB	00H
	DB	00H
	DB	00H
	DB	00H
	DB	00H
	DB	00H
	DB	00H
	DB	00H
	DB	00H
	DB	00H
	DB	00H
	DB	00H
	DB	00H
	DB	00H
	DB	00H
	DB	00H
	DB	00H
	DB	00H
	DB	00H
	DB	00H
	DB	00H
	DB	00H
	DB	00H
	DB	00H
	DB	00H
	DB	00H
	DB	00H
	DB	00H
	DB	00H
	DB	00H
	DB	00H
	DB	00H
	DB	00H
	DB	00H
	DB	00H
	DB	00H
	DB	00H
	DB	00H
	DB	00H
	DB	00H
	DB	00H
	DB	00H
	DB	00H
	DB	00H
	DB	00H
	DB	00H
	DB	00H
	DB	00H
	DB	00H
	DB	00H
	DB	00H
	DB	00H
	DB	00H
	DB	00H
	DB	00H
	DB	00H
	DB	00H
	DB	00H
	DB	00H
	DB	00H
	DB	00H
	DB	00H
	DB	00H
	DB	00H
	DB	00H
	DB	00H
	DB	00H
	DB	00H
	DB	00H
	DB	00H
	DB	00H
	DB	00H
	DB	00H
	DB	00H
	DB	00H
	DB	00H
	DB	00H
	DB	00H
	DB	00H
	DB	00H
	DB	00H
	DB	00H
	DB	00H
	DB	00H
	DB	00H
	DB	00H
	DB	00H
	DB	00H
	DB	00H
	DB	00H
	DB	00H
	DB	00H
	DB	00H
	DB	00H
	DB	00H
	DB	00H
	DB	00H
	DB	00H
	DB	00H
	DB	00H
	DB	00H
	DB	00H
	DB	00H
	DB	00H
	DB	00H
	DB	00H
	DB	00H
	DB	00H
	DB	00H
	DB	00H
	DB	00H
	DB	00H
	DB	00H
	DB	00H
	DB	00H
	DB	00H
	DB	00H
	DB	00H
	DB	00H
	DB	00H
	DB	00H
	DB	00H
	DB	00H
	DB	00H
	DB	00H
	DB	00H
	DB	00H
	DB	00H
	DB	00H
	DB	00H
	DB	00H
	DB	00H
	DB	00H
	DB	00H
	DB	00H
	DB	00H
	DB	00H
	DB	00H
	DB	00H
	DB	00H
	DB	00H
	DB	00H
	DB	00H
	DB	00H
	DB	00H
	DB	00H
	DB	00H
	DB	00H
	DB	00H
	DB	00H
	DB	00H
	DB	00H
	DB	00H
	DB	00H
	DB	00H
	DB	00H
	DB	00H
	DB	00H
	DB	00H
	DB	00H
	DB	00H
	DB	00H
	DB	00H
	DB	00H
	DB	00H
	DB	00H
	DB	00H
	DB	00H
	DB	00H
	DB	00H
	DB	00H
	DB	00H
	DB	00H
	DB	00H
	DB	00H
	DB	00H
	DB	00H
	DB	00H
	DB	00H
	DB	00H
	DB	00H
	DB	00H
	DB	00H
	DB	00H
	DB	00H
	DB	00H
	DB	00H
	DB	00H
	DB	00H
	DB	00H
	DB	00H
	DB	00H
	DB	00H
	DB	00H
	DB	00H
	DB	00H
	DB	00H
	DB	00H
	DB	00H
	DB	00H
	DB	00H
	DB	00H
	DB	00H
	DB	00H
	DB	00H
	DB	00H
	DB	00H
	DB	00H
	DB	00H
	DB	00H
	DB	00H
	DB	00H
	DB	00H
	DB	00H
	DB	00H
	DB	00H
	DB	00H
	DB	00H
	DB	00H
	DB	00H
	DB	00H
	DB	00H
	DB	00H
	DB	00H
	DB	00H
	DB	00H
	DB	00H
	DB	00H
	DB	00H
	DB	00H
	DB	00H
	DB	00H
	DB	00H
	DB	00H
	DB	00H
	DB	00H
	DB	00H
	DB	00H
	DB	00H
	DB	00H
	DB	00H
	DB	00H
	DB	00H
	DB	00H
	DB	00H
	DB	00H
	DB	00H
	DB	00H
	DB	00H
	DB	00H
	DB	00H
	DB	00H
	DB	00H
	DB	00H
	DB	00H
	DB	00H
	DB	00H
	DB	00H
	DB	00H
	DB	00H
	DB	00H
	DB	00H
	DB	00H
	DB	00H
	DB	00H
	DB	00H
	DB	00H
	DB	00H
	DB	00H
	DB	00H
	DB	00H
	DB	00H
	DB	00H
	DB	00H
	DB	00H
	DB	00H
	DB	00H
	DB	00H
	DB	00H
	DB	00H
	DB	00H
	DB	00H
	DB	00H
	DB	00H
	DB	00H
	DB	00H
	DB	00H
	DB	00H
	DB	00H
	DB	00H
	DB	00H
	DB	00H
	DB	00H
	DB	00H
	DB	00H
	DB	00H
	DB	00H
	DB	00H
	DB	00H
	DB	00H
	DB	00H
	DB	00H
	DB	00H
	DB	00H
	DB	00H
	DB	00H
	DB	00H
	DB	00H
	DB	00H
	DB	00H
	DB	00H
	DB	00H
	DB	00H
	DB	00H
	DB	00H
	DB	00H
	DB	00H
	DB	00H
	DB	00H
	DB	00H
	DB	00H
	DB	00H
	DB	00H
	DB	00H
	DB	00H
	DB	00H
	DB	00H
	DB	00H
	DB	00H
	DB	00H
	DB	00H
	DB	00H
	DB	00H
	DB	00H
	DB	00H
	DB	00H
	DB	00H
	DB	00H
	DB	00H
	DB	00H
	DB	00H
	DB	00H
	DB	00H
	DB	00H
	DB	00H
	DB	00H
	DB	00H
	DB	00H
	DB	00H
	DB	00H
	DB	00H
	DB	00H
	DB	00H
	DB	00H
	DB	00H
	DB	00H
	DB	00H
	DB	00H
	DB	00H
	DB	00H
	DB	00H
	DB	00H
	DB	00H
	DB	00H
	DB	00H
	DB	00H
	DB	00H
	DB	00H
	DB	00H
	DB	00H
	DB	00H
	DB	00H
	DB	00H
	DB	00H
	DB	00H
	DB	00H
	DB	00H
	DB	00H
	DB	00H
	DB	00H
	DB	00H
	DB	00H
	DB	00H
	DB	00H
	DB	00H
	DB	00H
	DB	00H
	DB	00H
	DB	00H
	DB	00H
	DB	00H
	DB	00H
	DB	00H
	DB	00H
	DB	00H
	DB	00H
	DB	00H
	DB	00H
	DB	00H
	DB	00H
	DB	00H
	DB	00H
	DB	00H
	DB	00H
	DB	00H
	DB	00H
	DB	00H
	DB	00H
	DB	00H
	DB	00H
	DB	00H
	DB	00H
	DB	00H
	DB	00H
	DB	00H
	DB	00H
	DB	00H
	DB	00H
	DB	00H
	DB	00H
	DB	00H
	DB	00H
	DB	00H
	DB	00H
	DB	00H
	DB	00H
	DB	00H
	DB	00H
	DB	00H
	DB	00H
	DB	00H
	DB	00H
	DB	00H
	DB	00H
	DB	00H
	DB	00H
	DB	00H
	DB	00H
	DB	00H
	DB	00H
	DB	00H
	DB	00H
	DB	00H
	DB	00H
	DB	00H
	DB	00H
	DB	00H
	DB	00H
	DB	00H
	DB	00H
	DB	00H
	DB	00H
	DB	00H
	DB	00H
	DB	00H
	DB	00H
	DB	00H
	DB	00H
	DB	00H
	DB	00H
	DB	00H
	DB	00H
	DB	00H
	DB	00H
	DB	00H
	DB	00H
	DB	00H
	DB	00H
	DB	00H
	DB	00H
	DB	00H
	DB	00H
	DB	00H
	DB	00H
	DB	00H
	DB	00H
	DB	00H
	DB	00H
	DB	00H
	DB	00H
	DB	00H
	DB	00H
	DB	00H
	DB	00H
	DB	00H
	DB	00H
	DB	00H
	DB	00H
	DB	00H
	DB	00H
	DB	00H
	DB	00H
	DB	00H
	DB	00H
	DB	00H
	DB	00H
	DB	00H
	DB	00H
	DB	00H
	DB	00H
	DB	00H
	DB	00H
	DB	00H
	DB	00H
	DB	00H
	DB	00H
	DB	00H
	DB	00H
	DB	00H
	DB	00H
	DB	00H
	DB	00H
	DB	00H
	DB	00H
	DB	00H
	DB	00H
	DB	00H
	DB	00H
	DB	00H
	DB	00H
	DB	00H
	DB	00H
	DB	00H
	DB	00H
	DB	00H
	DB	00H
	DB	00H
	DB	00H
	DB	00H
	DB	00H
	DB	00H
	DB	00H
	DB	00H
	DB	00H
	DB	00H
	DB	00H
	DB	00H
	DB	00H
	DB	00H
	DB	00H
	DB	00H
	DB	00H
	DB	00H
	DB	00H
	DB	00H
	DB	00H
	DB	00H
	DB	00H
	DB	00H
	DB	00H
	DB	00H
	DB	00H
	DB	00H
	DB	00H
	DB	00H
	DB	00H
	DB	00H
	DB	00H
	DB	00H
	DB	00H
	DB	00H
	DB	00H
	DB	00H
	DB	00H
	DB	00H
	DB	00H
	DB	00H
	DB	00H
	DB	00H
	DB	00H
	DB	00H
	DB	00H
	DB	00H
	DB	00H
	DB	00H
	DB	00H
	DB	00H
	DB	00H
	DB	00H
	DB	00H
	DB	00H
	DB	00H
	DB	00H
	DB	00H
	DB	00H
	DB	00H
	DB	00H
	DB	00H
	DB	00H
	DB	00H
	DB	00H
	DB	00H
	DB	00H
	DB	00H
	DB	00H
	DB	00H
	DB	00H
	DB	00H
	DB	00H
	DB	00H
	DB	00H
	DB	00H
	DB	00H
	DB	00H
	DB	00H
	DB	00H
	DB	00H
	DB	00H
	DB	00H
	DB	00H
	DB	00H
	DB	00H
	DB	00H
	DB	00H
	DB	00H
	DB	00H
	DB	00H
	DB	00H
	DB	00H
	DB	00H
	DB	00H
	DB	00H
	DB	00H
	DB	00H
	DB	00H
	DB	00H
	DB	00H
	DB	00H
	DB	00H
	DB	00H
	DB	00H
	DB	00H
	DB	00H
	DB	00H
	DB	00H
	DB	00H
	DB	00H
	DB	00H
	DB	00H
	DB	00H
	DB	00H
	DB	00H
	DB	00H
	DB	00H
	DB	00H
	DB	00H
	DB	00H
	DB	00H
	DB	00H
	DB	00H
	DB	00H
	DB	00H
	DB	00H
	DB	00H
	DB	00H
	DB	00H
	DB	00H
	DB	00H
	DB	00H
	DB	00H
	DB	00H
	DB	00H
	DB	00H
	DB	00H
	DB	00H
	DB	00H
	DB	00H
	DB	00H
	DB	00H
	DB	00H
	DB	00H
	DB	00H
	DB	00H
	DB	00H
	DB	00H
	DB	00H
	DB	00H
	DB	00H
	DB	00H
	DB	00H
	DB	00H
	DB	00H
	DB	00H
	DB	00H
	DB	00H
	DB	00H
	DB	00H
	DB	00H
	DB	00H
	DB	00H
	DB	00H
	DB	00H
	DB	00H
	DB	00H
	DB	00H
	DB	00H
	DB	00H
	DB	00H
	DB	00H
	DB	00H
	DB	00H
	DB	00H
	DB	00H
	DB	00H
	DB	00H
	DB	00H
	DB	00H
	DB	00H
	DB	00H
	DB	00H
	DB	00H
	DB	00H
	DB	00H
	DB	00H
	DB	00H
	DB	00H
	DB	00H
	DB	00H
	DB	00H
	DB	00H
	DB	00H
	DB	00H
	DB	00H
	DB	00H
	DB	00H
	DB	00H
	DB	00H
	DB	00H
	DB	00H
	DB	00H
	DB	00H
	DB	00H
	DB	00H
	DB	00H
	DB	00H
	DB	00H
	DB	00H
	DB	00H
	DB	00H
	DB	00H
	DB	00H
	DB	00H
	DB	00H
	DB	00H
	DB	00H
	DB	00H
	DB	00H
	DB	00H
	DB	00H
	DB	00H
	DB	00H
	DB	00H
	DB	00H
	DB	00H
	DB	00H
	DB	00H
	DB	00H
	DB	00H
	DB	00H
	DB	00H
	DB	00H
	DB	00H
	DB	00H
	DB	00H
	DB	00H
	DB	00H
	DB	00H
	DB	00H
	DB	00H
	DB	00H
	DB	00H
	DB	00H
	DB	00H
	DB	00H
	DB	00H
	DB	00H
	DB	00H
	DB	00H
	DB	00H
	DB	00H
	DB	00H
	DB	00H
	DB	00H
	DB	00H
	DB	00H
	DB	00H
	DB	00H
	DB	00H
	DB	00H
	DB	00H
	DB	00H
	DB	00H
	DB	00H
	DB	00H
	DB	00H
	DB	00H
	DB	00H
	DB	00H
	DB	00H
	DB	00H
	DB	00H
	DB	00H
	DB	00H
	DB	00H
	DB	00H
	DB	00H
	DB	00H
	DB	00H
	DB	00H
	DB	00H
	DB	00H
	DB	00H
	DB	00H
	DB	00H
	DB	00H
	DB	00H
	DB	00H
	DB	00H
	DB	00H
	DB	00H
	DB	00H
	DB	00H
	DB	00H
	DB	00H
	DB	00H
	DB	00H
	DB	00H
	DB	00H
	DB	00H
	DB	00H
	DB	00H
	DB	00H
	DB	00H
	DB	00H
	DB	00H
	DB	00H
	DB	00H
	DB	00H
	DB	00H
	DB	00H
	DB	00H
	DB	00H
	DB	00H
	DB	00H
	DB	00H
	DB	00H
	DB	00H
	DB	00H
	DB	00H
	DB	00H
	DB	00H
	DB	00H
	DB	00H
	DB	00H
	DB	00H
	DB	00H
	DB	00H
	DB	00H
	DB	00H
	DB	00H
	DB	00H
	DB	00H
	DB	00H
	DB	00H
	DB	00H
	DB	00H
	DB	00H
	DB	00H
	DB	00H
	DB	00H
	DB	00H
	DB	00H
	DB	00H
	DB	00H
	DB	00H
	DB	00H
	DB	00H
	DB	00H
	DB	00H
	DB	00H
	DB	00H
	DB	00H
	DB	00H
	DB	00H
	DB	00H
	DB	00H
	DB	00H
	DB	00H
	DB	00H
	DB	00H
	DB	00H
	DB	00H
	DB	00H
	DB	00H
	DB	00H
	DB	00H
	DB	00H
	DB	00H
	DB	00H
	DB	00H
	DB	00H
	DB	00H
	DB	00H
	DB	00H
	DB	00H
	DB	00H
	DB	00H
	DB	00H
	DB	00H
	DB	00H
	DB	00H
	DB	00H
	DB	00H
	DB	00H
	DB	00H
	DB	00H
	DB	00H
	DB	00H
	DB	00H
	DB	00H
	DB	00H
	DB	00H
	DB	00H
	DB	00H
	DB	00H
	DB	00H
	DB	00H
	DB	00H
	DB	00H
	DB	00H
	DB	00H
	DB	00H
	DB	00H
	DB	00H
	DB	00H
	DB	00H
	DB	00H
	DB	00H
	DB	00H
	DB	00H
	DB	00H
	DB	00H
	DB	00H
	DB	00H
	DB	00H
	DB	00H
	DB	00H
	DB	00H
	DB	00H
	DB	00H
	DB	00H
	DB	00H
	DB	00H
	DB	00H
	DB	00H
	DB	00H
	DB	00H
	DB	00H
	DB	00H
	DB	00H
	DB	00H
	DB	00H
	DB	00H
	DB	00H
	DB	00H
	DB	00H
	DB	00H
	DB	00H
	DB	00H
	DB	00H
	DB	00H
	DB	00H
	DB	00H
	DB	00H
	DB	00H
	DB	00H
	DB	00H
	DB	00H
	DB	00H
	DB	00H
	DB	00H
	DB	00H
	DB	00H
	DB	00H
	DB	00H
	DB	00H
	DB	00H
	DB	00H
	DB	00H
	DB	00H
	DB	00H
	DB	00H
	DB	00H
	DB	00H
	DB	00H
	DB	00H
	DB	00H
	DB	00H
	DB	00H
	DB	00H
	DB	00H
	DB	00H
	DB	00H
	DB	00H
	DB	00H
	DB	00H
	DB	00H
	DB	00H
	DB	00H
	DB	00H
	DB	00H
	DB	00H
	DB	00H
	DB	00H
	DB	00H
	DB	00H
	DB	00H
	DB	00H
	DB	00H
	DB	00H
	DB	00H
	DB	00H
	DB	00H
	DB	00H
	DB	00H
	DB	00H
	DB	00H
	DB	00H
	DB	00H
	DB	00H
	DB	00H
	DB	00H
	DB	00H
	DB	00H
	DB	00H
	DB	00H
	DB	00H
	DB	00H
	DB	00H
	DB	00H
	DB	00H
	DB	00H
	DB	00H
	DB	00H
	DB	00H
	DB	00H
	DB	00H
	DB	00H
	DB	00H
	DB	00H
	DB	00H
	DB	00H
	DB	00H
	DB	00H
	DB	00H
	DB	00H
	DB	00H
	DB	00H
	DB	00H
	DB	00H
	DB	00H
	DB	00H
	DB	00H
	DB	00H
	DB	00H
	DB	00H
	DB	00H
	DB	00H
	DB	00H
	DB	00H
	DB	00H
	DB	00H
	DB	00H
	DB	00H
	DB	00H
	DB	00H
	DB	00H
	DB	00H
	DB	00H
	DB	00H
	DB	00H
	DB	00H
	DB	00H
	DB	00H
	DB	00H
	DB	00H
	DB	00H
	DB	00H
	DB	00H
	DB	00H
	DB	00H
	DB	00H
	DB	00H
	DB	00H
	DB	00H
	DB	00H
	DB	00H
	DB	00H
	DB	00H
	DB	00H
	DB	00H
	DB	00H
	DB	00H
	DB	00H
	DB	00H
	DB	00H
	DB	00H
	DB	00H
	DB	00H
	DB	00H
	DB	00H
	DB	00H
	DB	00H
	DB	00H
	DB	00H
	DB	00H
	DB	00H
	DB	00H
	DB	00H
	DB	00H
	DB	00H
	DB	00H
	DB	00H
	DB	00H
	DB	00H
	DB	00H
	DB	00H
	DB	00H
	DB	00H
	DB	00H
	DB	00H
	DB	00H
	DB	00H
	DB	00H
	DB	00H
	DB	00H
	DB	00H
	DB	00H
	DB	00H
	DB	00H
	DB	00H
	DB	00H
	DB	00H
	DB	00H
	DB	00H
	DB	00H
	DB	00H
	DB	00H
	DB	00H
	DB	00H
	DB	00H
	DB	00H
	DB	00H
	DB	00H
	DB	00H
	DB	00H
	DB	00H
	DB	00H
	DB	00H
	DB	00H
	DB	00H
	DB	00H
	DB	00H
	DB	00H
	DB	00H
	DB	00H
	DB	00H
	DB	00H
	DB	00H
	DB	00H
	DB	00H
	DB	00H
	DB	00H
	DB	00H
	DB	00H
	DB	00H
	DB	00H
	DB	00H
	DB	00H
	DB	00H
	DB	00H
	DB	00H
	DB	00H
	DB	00H
	DB	00H
	DB	00H
	DB	00H
	DB	00H
	DB	00H
	DB	00H
	DB	00H
	DB	00H
	DB	00H
	DB	00H
	DB	00H
	DB	00H
	DB	00H
	DB	00H
	DB	00H
	DB	00H
	DB	00H
	DB	00H
	DB	00H
	DB	00H
	DB	00H
	DB	00H
	DB	00H
	DB	00H
	DB	00H
	DB	00H
	DB	00H
	DB	00H
	DB	00H
	DB	00H
	DB	00H
	DB	00H
	DB	00H
	DB	00H
	DB	00H
	DB	00H
	DB	00H
	DB	00H
	DB	00H
	DB	00H
	DB	00H
	DB	00H
	DB	00H
	DB	00H
	DB	00H
	DB	00H
	DB	00H
	DB	00H
	DB	00H
	DB	00H
	DB	00H
	DB	00H
	DB	00H
	DB	00H
	DB	00H
	DB	00H
	DB	00H
	DB	00H
	DB	00H
	DB	00H
	DB	00H
	DB	00H
	DB	00H
	DB	00H
	DB	00H
	DB	00H
	DB	00H
	DB	00H
	DB	00H
	DB	00H
	DB	00H
	DB	00H
	DB	00H
	DB	00H
	DB	00H
	DB	00H
	DB	00H
	DB	00H
	DB	00H
	DB	00H
	DB	00H
	DB	00H
	DB	00H
	DB	00H
	DB	00H
	DB	00H
	DB	00H
	DB	00H
	DB	00H
	DB	00H
	DB	00H
	DB	00H
	DB	00H
	DB	00H
	DB	00H
	DB	00H
	DB	00H
	DB	00H
	DB	00H
	DB	00H
	DB	00H
	DB	00H
	DB	00H
	DB	00H
	DB	00H
	DB	00H
	DB	00H
	DB	00H
	DB	00H
	DB	00H
	DB	00H
	DB	00H
	DB	00H
	DB	00H
	DB	00H
	DB	00H
	DB	00H
	DB	00H
	DB	00H
	DB	00H
	DB	00H
	DB	00H
	DB	00H
	DB	00H
	DB	00H
	DB	00H
	DB	00H
	DB	00H
	DB	00H
	DB	00H
	DB	00H
	DB	00H
	DB	00H
	DB	00H
	DB	00H
	DB	00H
	DB	00H
	DB	00H
	DB	00H
	DB	00H
	DB	00H
	DB	00H
	DB	00H
	DB	00H
	DB	00H
	DB	00H
	DB	00H
	DB	00H
	DB	00H
	DB	00H
	DB	00H
	DB	00H
	DB	00H
	DB	00H
	DB	00H
	DB	00H
	DB	00H
	DB	00H
	DB	00H
	DB	00H
	DB	00H
	DB	00H
	DB	00H
	DB	00H
	DB	00H
	DB	00H
	DB	00H
	DB	00H
	DB	00H
	DB	00H
	DB	00H
	DB	00H
	DB	00H
	DB	00H
	DB	00H
	DB	00H
	DB	00H
	DB	00H
	DB	00H
	DB	00H
	DB	00H
	DB	00H
	DB	00H
	DB	00H
	DB	00H
	DB	00H
	DB	00H
	DB	00H
	DB	00H
	DB	00H
	DB	00H
	DB	00H
	DB	00H
	DB	00H
	DB	00H
	DB	00H
	DB	00H
	DB	00H
	DB	00H
	DB	00H
	DB	00H
	DB	00H
	DB	00H
	DB	00H
	DB	00H
	DB	00H
	DB	00H
	DB	00H
	DB	00H
	DB	00H
	DB	00H
	DB	00H
	DB	00H
	DB	00H
	DB	00H
	DB	00H
	DB	00H
	DB	00H
	DB	00H
	DB	00H
	DB	00H
	DB	00H
	DB	00H
	DB	00H
	DB	00H
	DB	00H
	DB	00H
CONST	ENDS
END
