; Listing generated by Microsoft (R) Optimizing Compiler Version 19.24.28314.0 

	TITLE	D:\stm_gfx_hacktues_project\smart_home_v2\smart_home\TouchGFX\generated\images\src\__designer\image_Dark_Togglebars_Toggle_RE_large_button_Off.cpp
	.686P
	.XMM
	include listing.inc
	.model	flat

INCLUDELIB MSVCRTD
INCLUDELIB OLDNAMES

PUBLIC	?image_dark_togglebars_toggle_re_large_button_off@@3QBEB ; image_dark_togglebars_toggle_re_large_button_off
CONST	SEGMENT
?image_dark_togglebars_toggle_re_large_button_off@@3QBEB DB 00H ; image_dark_togglebars_toggle_re_large_button_off
	DB	00H
	DB	00H
	DB	00H
	DB	00H
	DB	00H
	DB	00H
	DB	00H
	DB	00H
	DB	00H
	DB	00H
	DB	00H
	DB	00H
	DB	00H
	DB	00H
	DB	00H
	DB	030H
	DB	034H
	DB	030H
	DB	028H
	DB	038H
	DB	034H
	DB	038H
	DB	08eH
	DB	030H
	DB	034H
	DB	030H
	DB	0d7H
	DB	038H
	DB	034H
	DB	038H
	DB	0f7H
	DB	038H
	DB	034H
	DB	038H
	DB	0ffH
	DB	030H
	DB	034H
	DB	030H
	DB	0ffH
	DB	038H
	DB	034H
	DB	038H
	DB	0ffH
	DB	038H
	DB	034H
	DB	038H
	DB	0ffH
	DB	030H
	DB	034H
	DB	030H
	DB	0ffH
	DB	038H
	DB	034H
	DB	038H
	DB	0ffH
	DB	038H
	DB	034H
	DB	038H
	DB	0ffH
	DB	030H
	DB	034H
	DB	030H
	DB	0ffH
	DB	038H
	DB	034H
	DB	038H
	DB	0ffH
	DB	038H
	DB	034H
	DB	038H
	DB	0ffH
	DB	030H
	DB	034H
	DB	030H
	DB	0ffH
	DB	038H
	DB	034H
	DB	038H
	DB	0ffH
	DB	038H
	DB	034H
	DB	038H
	DB	0ffH
	DB	030H
	DB	034H
	DB	030H
	DB	0ffH
	DB	038H
	DB	034H
	DB	038H
	DB	0ffH
	DB	038H
	DB	034H
	DB	038H
	DB	0ffH
	DB	030H
	DB	034H
	DB	030H
	DB	0ffH
	DB	038H
	DB	034H
	DB	038H
	DB	0ffH
	DB	038H
	DB	034H
	DB	038H
	DB	0ffH
	DB	030H
	DB	034H
	DB	030H
	DB	0ffH
	DB	038H
	DB	034H
	DB	038H
	DB	0ffH
	DB	038H
	DB	034H
	DB	038H
	DB	0ffH
	DB	030H
	DB	034H
	DB	030H
	DB	0ffH
	DB	038H
	DB	034H
	DB	038H
	DB	0ffH
	DB	038H
	DB	034H
	DB	038H
	DB	0ffH
	DB	030H
	DB	034H
	DB	030H
	DB	0ffH
	DB	038H
	DB	034H
	DB	038H
	DB	0ffH
	DB	038H
	DB	034H
	DB	038H
	DB	0ffH
	DB	030H
	DB	034H
	DB	030H
	DB	0ffH
	DB	038H
	DB	034H
	DB	038H
	DB	0ffH
	DB	038H
	DB	034H
	DB	038H
	DB	0ffH
	DB	030H
	DB	034H
	DB	030H
	DB	0ffH
	DB	038H
	DB	034H
	DB	038H
	DB	0ffH
	DB	038H
	DB	034H
	DB	038H
	DB	0ffH
	DB	030H
	DB	034H
	DB	030H
	DB	0ffH
	DB	038H
	DB	034H
	DB	038H
	DB	0ffH
	DB	038H
	DB	034H
	DB	038H
	DB	0ffH
	DB	030H
	DB	034H
	DB	030H
	DB	0ffH
	DB	038H
	DB	034H
	DB	038H
	DB	0ffH
	DB	038H
	DB	034H
	DB	038H
	DB	0ffH
	DB	030H
	DB	034H
	DB	030H
	DB	0ffH
	DB	038H
	DB	034H
	DB	038H
	DB	0ffH
	DB	038H
	DB	034H
	DB	038H
	DB	0ffH
	DB	030H
	DB	034H
	DB	030H
	DB	0ffH
	DB	038H
	DB	034H
	DB	038H
	DB	0ffH
	DB	038H
	DB	034H
	DB	038H
	DB	0ffH
	DB	030H
	DB	034H
	DB	030H
	DB	0ffH
	DB	038H
	DB	034H
	DB	038H
	DB	0ffH
	DB	038H
	DB	034H
	DB	038H
	DB	0ffH
	DB	030H
	DB	034H
	DB	030H
	DB	0ffH
	DB	038H
	DB	034H
	DB	038H
	DB	0ffH
	DB	038H
	DB	034H
	DB	038H
	DB	0ffH
	DB	030H
	DB	034H
	DB	030H
	DB	0ffH
	DB	038H
	DB	034H
	DB	038H
	DB	0ffH
	DB	038H
	DB	034H
	DB	038H
	DB	0ffH
	DB	030H
	DB	034H
	DB	030H
	DB	0ffH
	DB	038H
	DB	034H
	DB	038H
	DB	0ffH
	DB	038H
	DB	034H
	DB	038H
	DB	0ffH
	DB	030H
	DB	034H
	DB	030H
	DB	0ffH
	DB	038H
	DB	034H
	DB	038H
	DB	0ffH
	DB	038H
	DB	034H
	DB	038H
	DB	0ffH
	DB	030H
	DB	034H
	DB	030H
	DB	0ffH
	DB	038H
	DB	034H
	DB	038H
	DB	0ffH
	DB	038H
	DB	034H
	DB	038H
	DB	0ffH
	DB	030H
	DB	034H
	DB	030H
	DB	0ffH
	DB	038H
	DB	034H
	DB	038H
	DB	0ffH
	DB	038H
	DB	034H
	DB	038H
	DB	0ffH
	DB	030H
	DB	034H
	DB	030H
	DB	0ffH
	DB	038H
	DB	034H
	DB	038H
	DB	0ffH
	DB	038H
	DB	034H
	DB	038H
	DB	0ffH
	DB	030H
	DB	034H
	DB	030H
	DB	0ffH
	DB	038H
	DB	034H
	DB	038H
	DB	0ffH
	DB	038H
	DB	034H
	DB	038H
	DB	0ffH
	DB	030H
	DB	034H
	DB	030H
	DB	0ffH
	DB	038H
	DB	034H
	DB	038H
	DB	0ffH
	DB	038H
	DB	034H
	DB	038H
	DB	0ffH
	DB	030H
	DB	034H
	DB	030H
	DB	0ffH
	DB	038H
	DB	034H
	DB	038H
	DB	0ffH
	DB	038H
	DB	034H
	DB	038H
	DB	0ffH
	DB	030H
	DB	034H
	DB	030H
	DB	0ffH
	DB	038H
	DB	034H
	DB	038H
	DB	0ffH
	DB	038H
	DB	034H
	DB	038H
	DB	0ffH
	DB	030H
	DB	034H
	DB	030H
	DB	0ffH
	DB	038H
	DB	034H
	DB	038H
	DB	0ffH
	DB	038H
	DB	034H
	DB	038H
	DB	0ffH
	DB	030H
	DB	034H
	DB	030H
	DB	0ffH
	DB	038H
	DB	034H
	DB	038H
	DB	0ffH
	DB	038H
	DB	034H
	DB	038H
	DB	0ffH
	DB	030H
	DB	034H
	DB	030H
	DB	0ffH
	DB	038H
	DB	034H
	DB	038H
	DB	0ffH
	DB	038H
	DB	034H
	DB	038H
	DB	0ffH
	DB	030H
	DB	034H
	DB	030H
	DB	0ffH
	DB	038H
	DB	034H
	DB	038H
	DB	0ffH
	DB	038H
	DB	034H
	DB	038H
	DB	0ffH
	DB	030H
	DB	034H
	DB	030H
	DB	0ffH
	DB	038H
	DB	034H
	DB	038H
	DB	0ffH
	DB	038H
	DB	034H
	DB	038H
	DB	0ffH
	DB	030H
	DB	034H
	DB	030H
	DB	0ffH
	DB	038H
	DB	034H
	DB	038H
	DB	0ffH
	DB	038H
	DB	034H
	DB	038H
	DB	0ffH
	DB	030H
	DB	034H
	DB	030H
	DB	0ffH
	DB	038H
	DB	034H
	DB	038H
	DB	0ffH
	DB	038H
	DB	034H
	DB	038H
	DB	0ffH
	DB	030H
	DB	034H
	DB	030H
	DB	0ffH
	DB	038H
	DB	034H
	DB	038H
	DB	0ffH
	DB	038H
	DB	034H
	DB	038H
	DB	0ffH
	DB	030H
	DB	034H
	DB	030H
	DB	0ffH
	DB	038H
	DB	034H
	DB	038H
	DB	0ffH
	DB	038H
	DB	034H
	DB	038H
	DB	0ffH
	DB	030H
	DB	034H
	DB	030H
	DB	0ffH
	DB	038H
	DB	034H
	DB	038H
	DB	0ffH
	DB	038H
	DB	034H
	DB	038H
	DB	0ffH
	DB	030H
	DB	034H
	DB	030H
	DB	0f7H
	DB	030H
	DB	034H
	DB	030H
	DB	0d7H
	DB	038H
	DB	034H
	DB	038H
	DB	08eH
	DB	030H
	DB	034H
	DB	030H
	DB	028H
	DB	00H
	DB	00H
	DB	00H
	DB	00H
	DB	00H
	DB	00H
	DB	00H
	DB	00H
	DB	00H
	DB	00H
	DB	00H
	DB	00H
	DB	00H
	DB	00H
	DB	00H
	DB	00H
	DB	00H
	DB	00H
	DB	00H
	DB	00H
	DB	00H
	DB	00H
	DB	00H
	DB	00H
	DB	030H
	DB	034H
	DB	030H
	DB	04H
	DB	038H
	DB	034H
	DB	038H
	DB	096H
	DB	038H
	DB	034H
	DB	038H
	DB	0fbH
	DB	038H
	DB	038H
	DB	038H
	DB	0ffH
	DB	038H
	DB	038H
	DB	038H
	DB	0ffH
	DB	038H
	DB	038H
	DB	038H
	DB	0ffH
	DB	038H
	DB	038H
	DB	038H
	DB	0ffH
	DB	038H
	DB	038H
	DB	038H
	DB	0ffH
	DB	038H
	DB	038H
	DB	038H
	DB	0ffH
	DB	038H
	DB	038H
	DB	038H
	DB	0ffH
	DB	038H
	DB	038H
	DB	038H
	DB	0ffH
	DB	038H
	DB	038H
	DB	038H
	DB	0ffH
	DB	038H
	DB	038H
	DB	038H
	DB	0ffH
	DB	038H
	DB	038H
	DB	038H
	DB	0ffH
	DB	038H
	DB	038H
	DB	038H
	DB	0ffH
	DB	038H
	DB	038H
	DB	038H
	DB	0ffH
	DB	038H
	DB	038H
	DB	038H
	DB	0ffH
	DB	038H
	DB	038H
	DB	038H
	DB	0ffH
	DB	038H
	DB	038H
	DB	038H
	DB	0ffH
	DB	038H
	DB	038H
	DB	038H
	DB	0ffH
	DB	038H
	DB	038H
	DB	038H
	DB	0ffH
	DB	038H
	DB	038H
	DB	038H
	DB	0ffH
	DB	038H
	DB	038H
	DB	038H
	DB	0ffH
	DB	038H
	DB	038H
	DB	038H
	DB	0ffH
	DB	038H
	DB	038H
	DB	038H
	DB	0ffH
	DB	038H
	DB	038H
	DB	038H
	DB	0ffH
	DB	038H
	DB	038H
	DB	038H
	DB	0ffH
	DB	038H
	DB	038H
	DB	038H
	DB	0ffH
	DB	038H
	DB	038H
	DB	038H
	DB	0ffH
	DB	038H
	DB	038H
	DB	038H
	DB	0ffH
	DB	038H
	DB	038H
	DB	038H
	DB	0ffH
	DB	038H
	DB	038H
	DB	038H
	DB	0ffH
	DB	038H
	DB	038H
	DB	038H
	DB	0ffH
	DB	038H
	DB	038H
	DB	038H
	DB	0ffH
	DB	038H
	DB	038H
	DB	038H
	DB	0ffH
	DB	038H
	DB	038H
	DB	038H
	DB	0ffH
	DB	038H
	DB	038H
	DB	038H
	DB	0ffH
	DB	038H
	DB	038H
	DB	038H
	DB	0ffH
	DB	038H
	DB	038H
	DB	038H
	DB	0ffH
	DB	038H
	DB	038H
	DB	038H
	DB	0ffH
	DB	038H
	DB	038H
	DB	038H
	DB	0ffH
	DB	038H
	DB	038H
	DB	038H
	DB	0ffH
	DB	038H
	DB	038H
	DB	038H
	DB	0ffH
	DB	038H
	DB	038H
	DB	038H
	DB	0ffH
	DB	038H
	DB	038H
	DB	038H
	DB	0ffH
	DB	038H
	DB	038H
	DB	038H
	DB	0ffH
	DB	038H
	DB	038H
	DB	038H
	DB	0ffH
	DB	038H
	DB	038H
	DB	038H
	DB	0ffH
	DB	038H
	DB	038H
	DB	038H
	DB	0ffH
	DB	038H
	DB	038H
	DB	038H
	DB	0ffH
	DB	038H
	DB	038H
	DB	038H
	DB	0ffH
	DB	038H
	DB	038H
	DB	038H
	DB	0ffH
	DB	038H
	DB	038H
	DB	038H
	DB	0ffH
	DB	038H
	DB	038H
	DB	038H
	DB	0ffH
	DB	038H
	DB	038H
	DB	038H
	DB	0ffH
	DB	038H
	DB	038H
	DB	038H
	DB	0ffH
	DB	038H
	DB	038H
	DB	038H
	DB	0ffH
	DB	038H
	DB	038H
	DB	038H
	DB	0ffH
	DB	038H
	DB	038H
	DB	038H
	DB	0ffH
	DB	038H
	DB	038H
	DB	038H
	DB	0ffH
	DB	038H
	DB	038H
	DB	038H
	DB	0ffH
	DB	038H
	DB	038H
	DB	038H
	DB	0ffH
	DB	038H
	DB	038H
	DB	038H
	DB	0ffH
	DB	038H
	DB	038H
	DB	038H
	DB	0ffH
	DB	038H
	DB	038H
	DB	038H
	DB	0ffH
	DB	038H
	DB	038H
	DB	038H
	DB	0ffH
	DB	038H
	DB	038H
	DB	038H
	DB	0ffH
	DB	038H
	DB	038H
	DB	038H
	DB	0ffH
	DB	038H
	DB	038H
	DB	038H
	DB	0ffH
	DB	038H
	DB	038H
	DB	038H
	DB	0ffH
	DB	038H
	DB	038H
	DB	038H
	DB	0ffH
	DB	038H
	DB	038H
	DB	038H
	DB	0ffH
	DB	038H
	DB	038H
	DB	038H
	DB	0ffH
	DB	038H
	DB	038H
	DB	038H
	DB	0ffH
	DB	038H
	DB	038H
	DB	038H
	DB	0ffH
	DB	038H
	DB	038H
	DB	038H
	DB	0ffH
	DB	038H
	DB	038H
	DB	038H
	DB	0ffH
	DB	038H
	DB	038H
	DB	038H
	DB	0ffH
	DB	038H
	DB	038H
	DB	038H
	DB	0ffH
	DB	038H
	DB	038H
	DB	038H
	DB	0ffH
	DB	038H
	DB	038H
	DB	038H
	DB	0ffH
	DB	038H
	DB	038H
	DB	038H
	DB	0ffH
	DB	038H
	DB	038H
	DB	038H
	DB	0ffH
	DB	038H
	DB	038H
	DB	038H
	DB	0ffH
	DB	038H
	DB	038H
	DB	038H
	DB	0ffH
	DB	038H
	DB	038H
	DB	038H
	DB	0ffH
	DB	038H
	DB	038H
	DB	038H
	DB	0ffH
	DB	038H
	DB	038H
	DB	038H
	DB	0ffH
	DB	038H
	DB	038H
	DB	038H
	DB	0ffH
	DB	038H
	DB	038H
	DB	038H
	DB	0ffH
	DB	038H
	DB	038H
	DB	038H
	DB	0ffH
	DB	038H
	DB	038H
	DB	038H
	DB	0ffH
	DB	038H
	DB	038H
	DB	038H
	DB	0ffH
	DB	038H
	DB	038H
	DB	038H
	DB	0ffH
	DB	038H
	DB	038H
	DB	038H
	DB	0ffH
	DB	038H
	DB	038H
	DB	038H
	DB	0ffH
	DB	038H
	DB	038H
	DB	038H
	DB	0ffH
	DB	038H
	DB	038H
	DB	038H
	DB	0ffH
	DB	038H
	DB	038H
	DB	038H
	DB	0ffH
	DB	038H
	DB	038H
	DB	038H
	DB	0ffH
	DB	038H
	DB	038H
	DB	038H
	DB	0ffH
	DB	038H
	DB	038H
	DB	038H
	DB	0ffH
	DB	038H
	DB	038H
	DB	038H
	DB	0ffH
	DB	038H
	DB	038H
	DB	038H
	DB	0ffH
	DB	038H
	DB	038H
	DB	038H
	DB	0ffH
	DB	038H
	DB	038H
	DB	038H
	DB	0ffH
	DB	038H
	DB	038H
	DB	038H
	DB	0ffH
	DB	038H
	DB	038H
	DB	038H
	DB	0ffH
	DB	038H
	DB	038H
	DB	038H
	DB	0ffH
	DB	038H
	DB	038H
	DB	038H
	DB	0ffH
	DB	038H
	DB	038H
	DB	038H
	DB	0ffH
	DB	038H
	DB	038H
	DB	038H
	DB	0ffH
	DB	038H
	DB	038H
	DB	038H
	DB	0ffH
	DB	038H
	DB	038H
	DB	038H
	DB	0ffH
	DB	038H
	DB	038H
	DB	038H
	DB	0ffH
	DB	038H
	DB	038H
	DB	038H
	DB	0ffH
	DB	038H
	DB	038H
	DB	038H
	DB	0ffH
	DB	038H
	DB	038H
	DB	038H
	DB	0ffH
	DB	038H
	DB	038H
	DB	038H
	DB	0ffH
	DB	038H
	DB	038H
	DB	038H
	DB	0ffH
	DB	038H
	DB	038H
	DB	038H
	DB	0ffH
	DB	038H
	DB	034H
	DB	038H
	DB	0fbH
	DB	038H
	DB	034H
	DB	038H
	DB	09aH
	DB	030H
	DB	034H
	DB	030H
	DB	08H
	DB	00H
	DB	00H
	DB	00H
	DB	00H
	DB	00H
	DB	00H
	DB	00H
	DB	00H
	DB	00H
	DB	00H
	DB	00H
	DB	00H
	DB	038H
	DB	034H
	DB	038H
	DB	04H
	DB	038H
	DB	038H
	DB	038H
	DB	0baH
	DB	038H
	DB	038H
	DB	038H
	DB	0ffH
	DB	038H
	DB	038H
	DB	038H
	DB	0ffH
	DB	038H
	DB	03cH
	DB	038H
	DB	0ffH
	DB	040H
	DB	03cH
	DB	040H
	DB	0ffH
	DB	038H
	DB	03cH
	DB	038H
	DB	0ffH
	DB	038H
	DB	03cH
	DB	038H
	DB	0ffH
	DB	040H
	DB	03cH
	DB	040H
	DB	0ffH
	DB	038H
	DB	03cH
	DB	038H
	DB	0ffH
	DB	040H
	DB	03cH
	DB	040H
	DB	0ffH
	DB	038H
	DB	03cH
	DB	038H
	DB	0ffH
	DB	040H
	DB	03cH
	DB	040H
	DB	0ffH
	DB	038H
	DB	03cH
	DB	038H
	DB	0ffH
	DB	040H
	DB	03cH
	DB	040H
	DB	0ffH
	DB	038H
	DB	03cH
	DB	038H
	DB	0ffH
	DB	040H
	DB	03cH
	DB	040H
	DB	0ffH
	DB	038H
	DB	03cH
	DB	038H
	DB	0ffH
	DB	040H
	DB	03cH
	DB	040H
	DB	0ffH
	DB	038H
	DB	03cH
	DB	038H
	DB	0ffH
	DB	040H
	DB	03cH
	DB	040H
	DB	0ffH
	DB	038H
	DB	03cH
	DB	038H
	DB	0ffH
	DB	040H
	DB	03cH
	DB	040H
	DB	0ffH
	DB	038H
	DB	03cH
	DB	038H
	DB	0ffH
	DB	040H
	DB	03cH
	DB	040H
	DB	0ffH
	DB	038H
	DB	03cH
	DB	038H
	DB	0ffH
	DB	040H
	DB	03cH
	DB	040H
	DB	0ffH
	DB	038H
	DB	03cH
	DB	038H
	DB	0ffH
	DB	040H
	DB	03cH
	DB	040H
	DB	0ffH
	DB	038H
	DB	03cH
	DB	038H
	DB	0ffH
	DB	040H
	DB	03cH
	DB	040H
	DB	0ffH
	DB	038H
	DB	03cH
	DB	038H
	DB	0ffH
	DB	040H
	DB	03cH
	DB	040H
	DB	0ffH
	DB	038H
	DB	03cH
	DB	038H
	DB	0ffH
	DB	040H
	DB	03cH
	DB	040H
	DB	0ffH
	DB	038H
	DB	03cH
	DB	038H
	DB	0ffH
	DB	040H
	DB	03cH
	DB	040H
	DB	0ffH
	DB	038H
	DB	03cH
	DB	038H
	DB	0ffH
	DB	040H
	DB	03cH
	DB	040H
	DB	0ffH
	DB	038H
	DB	03cH
	DB	038H
	DB	0ffH
	DB	040H
	DB	03cH
	DB	040H
	DB	0ffH
	DB	038H
	DB	03cH
	DB	038H
	DB	0ffH
	DB	040H
	DB	03cH
	DB	040H
	DB	0ffH
	DB	038H
	DB	03cH
	DB	038H
	DB	0ffH
	DB	040H
	DB	03cH
	DB	040H
	DB	0ffH
	DB	038H
	DB	03cH
	DB	038H
	DB	0ffH
	DB	040H
	DB	03cH
	DB	040H
	DB	0ffH
	DB	038H
	DB	03cH
	DB	038H
	DB	0ffH
	DB	040H
	DB	03cH
	DB	040H
	DB	0ffH
	DB	038H
	DB	03cH
	DB	038H
	DB	0ffH
	DB	040H
	DB	03cH
	DB	040H
	DB	0ffH
	DB	038H
	DB	03cH
	DB	038H
	DB	0ffH
	DB	040H
	DB	03cH
	DB	040H
	DB	0ffH
	DB	038H
	DB	03cH
	DB	038H
	DB	0ffH
	DB	040H
	DB	03cH
	DB	040H
	DB	0ffH
	DB	038H
	DB	03cH
	DB	038H
	DB	0ffH
	DB	040H
	DB	03cH
	DB	040H
	DB	0ffH
	DB	038H
	DB	03cH
	DB	038H
	DB	0ffH
	DB	040H
	DB	03cH
	DB	040H
	DB	0ffH
	DB	038H
	DB	03cH
	DB	038H
	DB	0ffH
	DB	040H
	DB	03cH
	DB	040H
	DB	0ffH
	DB	038H
	DB	03cH
	DB	038H
	DB	0ffH
	DB	040H
	DB	03cH
	DB	040H
	DB	0ffH
	DB	038H
	DB	03cH
	DB	038H
	DB	0ffH
	DB	040H
	DB	03cH
	DB	040H
	DB	0ffH
	DB	038H
	DB	03cH
	DB	038H
	DB	0ffH
	DB	040H
	DB	03cH
	DB	040H
	DB	0ffH
	DB	038H
	DB	03cH
	DB	038H
	DB	0ffH
	DB	040H
	DB	03cH
	DB	040H
	DB	0ffH
	DB	038H
	DB	03cH
	DB	038H
	DB	0ffH
	DB	040H
	DB	03cH
	DB	040H
	DB	0ffH
	DB	038H
	DB	03cH
	DB	038H
	DB	0ffH
	DB	040H
	DB	03cH
	DB	040H
	DB	0ffH
	DB	038H
	DB	03cH
	DB	038H
	DB	0ffH
	DB	040H
	DB	03cH
	DB	040H
	DB	0ffH
	DB	038H
	DB	03cH
	DB	038H
	DB	0ffH
	DB	040H
	DB	03cH
	DB	040H
	DB	0ffH
	DB	038H
	DB	03cH
	DB	038H
	DB	0ffH
	DB	040H
	DB	03cH
	DB	040H
	DB	0ffH
	DB	038H
	DB	03cH
	DB	038H
	DB	0ffH
	DB	040H
	DB	03cH
	DB	040H
	DB	0ffH
	DB	038H
	DB	03cH
	DB	038H
	DB	0ffH
	DB	040H
	DB	03cH
	DB	040H
	DB	0ffH
	DB	038H
	DB	03cH
	DB	038H
	DB	0ffH
	DB	040H
	DB	03cH
	DB	040H
	DB	0ffH
	DB	038H
	DB	03cH
	DB	038H
	DB	0ffH
	DB	040H
	DB	03cH
	DB	040H
	DB	0ffH
	DB	038H
	DB	03cH
	DB	038H
	DB	0ffH
	DB	040H
	DB	03cH
	DB	040H
	DB	0ffH
	DB	038H
	DB	03cH
	DB	038H
	DB	0ffH
	DB	040H
	DB	03cH
	DB	040H
	DB	0ffH
	DB	038H
	DB	03cH
	DB	038H
	DB	0ffH
	DB	040H
	DB	03cH
	DB	040H
	DB	0ffH
	DB	038H
	DB	03cH
	DB	038H
	DB	0ffH
	DB	040H
	DB	03cH
	DB	040H
	DB	0ffH
	DB	038H
	DB	03cH
	DB	038H
	DB	0ffH
	DB	040H
	DB	03cH
	DB	040H
	DB	0ffH
	DB	038H
	DB	03cH
	DB	038H
	DB	0ffH
	DB	040H
	DB	03cH
	DB	040H
	DB	0ffH
	DB	038H
	DB	03cH
	DB	038H
	DB	0ffH
	DB	040H
	DB	03cH
	DB	040H
	DB	0ffH
	DB	038H
	DB	03cH
	DB	038H
	DB	0ffH
	DB	040H
	DB	03cH
	DB	040H
	DB	0ffH
	DB	038H
	DB	03cH
	DB	038H
	DB	0ffH
	DB	040H
	DB	03cH
	DB	040H
	DB	0ffH
	DB	038H
	DB	03cH
	DB	038H
	DB	0ffH
	DB	040H
	DB	03cH
	DB	040H
	DB	0ffH
	DB	038H
	DB	03cH
	DB	038H
	DB	0ffH
	DB	040H
	DB	03cH
	DB	040H
	DB	0ffH
	DB	038H
	DB	03cH
	DB	038H
	DB	0ffH
	DB	040H
	DB	03cH
	DB	040H
	DB	0ffH
	DB	038H
	DB	03cH
	DB	038H
	DB	0ffH
	DB	040H
	DB	03cH
	DB	040H
	DB	0ffH
	DB	038H
	DB	03cH
	DB	038H
	DB	0ffH
	DB	040H
	DB	03cH
	DB	040H
	DB	0ffH
	DB	038H
	DB	03cH
	DB	038H
	DB	0ffH
	DB	040H
	DB	03cH
	DB	040H
	DB	0ffH
	DB	038H
	DB	03cH
	DB	038H
	DB	0ffH
	DB	040H
	DB	03cH
	DB	040H
	DB	0ffH
	DB	040H
	DB	03cH
	DB	040H
	DB	0ffH
	DB	038H
	DB	03cH
	DB	038H
	DB	0ffH
	DB	040H
	DB	03cH
	DB	040H
	DB	0ffH
	DB	038H
	DB	03cH
	DB	038H
	DB	0ffH
	DB	038H
	DB	038H
	DB	038H
	DB	0ffH
	DB	038H
	DB	038H
	DB	038H
	DB	0beH
	DB	038H
	DB	034H
	DB	038H
	DB	04H
	DB	00H
	DB	00H
	DB	00H
	DB	00H
	DB	00H
	DB	00H
	DB	00H
	DB	00H
	DB	038H
	DB	038H
	DB	038H
	DB	096H
	DB	038H
	DB	03cH
	DB	038H
	DB	0ffH
	DB	040H
	DB	03cH
	DB	040H
	DB	0ffH
	DB	040H
	DB	040H
	DB	040H
	DB	0ffH
	DB	028H
	DB	02cH
	DB	028H
	DB	0ffH
	DB	010H
	DB	010H
	DB	010H
	DB	0ffH
	DB	00H
	DB	04H
	DB	00H
	DB	0ffH
	DB	00H
	DB	00H
	DB	00H
	DB	0ffH
	DB	00H
	DB	00H
	DB	00H
	DB	0ffH
	DB	00H
	DB	00H
	DB	00H
	DB	0ffH
	DB	00H
	DB	00H
	DB	00H
	DB	0ffH
	DB	00H
	DB	00H
	DB	00H
	DB	0ffH
	DB	00H
	DB	00H
	DB	00H
	DB	0ffH
	DB	00H
	DB	00H
	DB	00H
	DB	0ffH
	DB	00H
	DB	00H
	DB	00H
	DB	0ffH
	DB	00H
	DB	00H
	DB	00H
	DB	0ffH
	DB	00H
	DB	00H
	DB	00H
	DB	0ffH
	DB	00H
	DB	00H
	DB	00H
	DB	0ffH
	DB	00H
	DB	00H
	DB	00H
	DB	0ffH
	DB	00H
	DB	00H
	DB	00H
	DB	0ffH
	DB	00H
	DB	00H
	DB	00H
	DB	0ffH
	DB	00H
	DB	00H
	DB	00H
	DB	0ffH
	DB	00H
	DB	00H
	DB	00H
	DB	0ffH
	DB	00H
	DB	00H
	DB	00H
	DB	0ffH
	DB	00H
	DB	00H
	DB	00H
	DB	0ffH
	DB	00H
	DB	00H
	DB	00H
	DB	0ffH
	DB	00H
	DB	00H
	DB	00H
	DB	0ffH
	DB	00H
	DB	00H
	DB	00H
	DB	0ffH
	DB	00H
	DB	00H
	DB	00H
	DB	0ffH
	DB	00H
	DB	00H
	DB	00H
	DB	0ffH
	DB	00H
	DB	00H
	DB	00H
	DB	0ffH
	DB	00H
	DB	00H
	DB	00H
	DB	0ffH
	DB	00H
	DB	00H
	DB	00H
	DB	0ffH
	DB	00H
	DB	00H
	DB	00H
	DB	0ffH
	DB	00H
	DB	00H
	DB	00H
	DB	0ffH
	DB	00H
	DB	00H
	DB	00H
	DB	0ffH
	DB	00H
	DB	00H
	DB	00H
	DB	0ffH
	DB	00H
	DB	00H
	DB	00H
	DB	0ffH
	DB	00H
	DB	00H
	DB	00H
	DB	0ffH
	DB	00H
	DB	00H
	DB	00H
	DB	0ffH
	DB	00H
	DB	00H
	DB	00H
	DB	0ffH
	DB	00H
	DB	00H
	DB	00H
	DB	0ffH
	DB	00H
	DB	00H
	DB	00H
	DB	0ffH
	DB	00H
	DB	00H
	DB	00H
	DB	0ffH
	DB	00H
	DB	00H
	DB	00H
	DB	0ffH
	DB	00H
	DB	00H
	DB	00H
	DB	0ffH
	DB	00H
	DB	00H
	DB	00H
	DB	0ffH
	DB	00H
	DB	00H
	DB	00H
	DB	0ffH
	DB	00H
	DB	00H
	DB	00H
	DB	0ffH
	DB	00H
	DB	00H
	DB	00H
	DB	0ffH
	DB	00H
	DB	00H
	DB	00H
	DB	0ffH
	DB	00H
	DB	00H
	DB	00H
	DB	0ffH
	DB	00H
	DB	00H
	DB	00H
	DB	0ffH
	DB	00H
	DB	00H
	DB	00H
	DB	0ffH
	DB	00H
	DB	00H
	DB	00H
	DB	0ffH
	DB	00H
	DB	00H
	DB	00H
	DB	0ffH
	DB	00H
	DB	00H
	DB	00H
	DB	0ffH
	DB	00H
	DB	00H
	DB	00H
	DB	0ffH
	DB	00H
	DB	00H
	DB	00H
	DB	0ffH
	DB	00H
	DB	00H
	DB	00H
	DB	0ffH
	DB	00H
	DB	00H
	DB	00H
	DB	0ffH
	DB	00H
	DB	00H
	DB	00H
	DB	0ffH
	DB	00H
	DB	00H
	DB	00H
	DB	0ffH
	DB	00H
	DB	00H
	DB	00H
	DB	0ffH
	DB	00H
	DB	00H
	DB	00H
	DB	0ffH
	DB	00H
	DB	00H
	DB	00H
	DB	0ffH
	DB	00H
	DB	00H
	DB	00H
	DB	0ffH
	DB	00H
	DB	00H
	DB	00H
	DB	0ffH
	DB	00H
	DB	00H
	DB	00H
	DB	0ffH
	DB	00H
	DB	00H
	DB	00H
	DB	0ffH
	DB	00H
	DB	00H
	DB	00H
	DB	0ffH
	DB	00H
	DB	00H
	DB	00H
	DB	0ffH
	DB	00H
	DB	00H
	DB	00H
	DB	0ffH
	DB	00H
	DB	00H
	DB	00H
	DB	0ffH
	DB	00H
	DB	00H
	DB	00H
	DB	0ffH
	DB	00H
	DB	00H
	DB	00H
	DB	0ffH
	DB	00H
	DB	00H
	DB	00H
	DB	0ffH
	DB	00H
	DB	00H
	DB	00H
	DB	0ffH
	DB	00H
	DB	00H
	DB	00H
	DB	0ffH
	DB	00H
	DB	00H
	DB	00H
	DB	0ffH
	DB	00H
	DB	00H
	DB	00H
	DB	0ffH
	DB	00H
	DB	00H
	DB	00H
	DB	0ffH
	DB	00H
	DB	00H
	DB	00H
	DB	0ffH
	DB	00H
	DB	00H
	DB	00H
	DB	0ffH
	DB	00H
	DB	00H
	DB	00H
	DB	0ffH
	DB	00H
	DB	00H
	DB	00H
	DB	0ffH
	DB	00H
	DB	00H
	DB	00H
	DB	0ffH
	DB	00H
	DB	00H
	DB	00H
	DB	0ffH
	DB	00H
	DB	00H
	DB	00H
	DB	0ffH
	DB	00H
	DB	00H
	DB	00H
	DB	0ffH
	DB	00H
	DB	00H
	DB	00H
	DB	0ffH
	DB	00H
	DB	00H
	DB	00H
	DB	0ffH
	DB	00H
	DB	00H
	DB	00H
	DB	0ffH
	DB	00H
	DB	00H
	DB	00H
	DB	0ffH
	DB	00H
	DB	00H
	DB	00H
	DB	0ffH
	DB	00H
	DB	00H
	DB	00H
	DB	0ffH
	DB	00H
	DB	00H
	DB	00H
	DB	0ffH
	DB	00H
	DB	00H
	DB	00H
	DB	0ffH
	DB	00H
	DB	00H
	DB	00H
	DB	0ffH
	DB	00H
	DB	00H
	DB	00H
	DB	0ffH
	DB	00H
	DB	00H
	DB	00H
	DB	0ffH
	DB	00H
	DB	00H
	DB	00H
	DB	0ffH
	DB	00H
	DB	00H
	DB	00H
	DB	0ffH
	DB	00H
	DB	00H
	DB	00H
	DB	0ffH
	DB	00H
	DB	00H
	DB	00H
	DB	0ffH
	DB	00H
	DB	00H
	DB	00H
	DB	0ffH
	DB	00H
	DB	00H
	DB	00H
	DB	0ffH
	DB	00H
	DB	00H
	DB	00H
	DB	0ffH
	DB	00H
	DB	00H
	DB	00H
	DB	0ffH
	DB	00H
	DB	00H
	DB	00H
	DB	0ffH
	DB	00H
	DB	00H
	DB	00H
	DB	0ffH
	DB	00H
	DB	00H
	DB	00H
	DB	0ffH
	DB	00H
	DB	00H
	DB	00H
	DB	0ffH
	DB	00H
	DB	00H
	DB	00H
	DB	0ffH
	DB	00H
	DB	00H
	DB	00H
	DB	0ffH
	DB	00H
	DB	00H
	DB	00H
	DB	0ffH
	DB	00H
	DB	00H
	DB	00H
	DB	0ffH
	DB	00H
	DB	00H
	DB	00H
	DB	0ffH
	DB	00H
	DB	00H
	DB	00H
	DB	0ffH
	DB	00H
	DB	04H
	DB	00H
	DB	0ffH
	DB	010H
	DB	010H
	DB	010H
	DB	0ffH
	DB	028H
	DB	02cH
	DB	028H
	DB	0ffH
	DB	040H
	DB	03cH
	DB	040H
	DB	0ffH
	DB	040H
	DB	03cH
	DB	040H
	DB	0ffH
	DB	038H
	DB	03cH
	DB	038H
	DB	0ffH
	DB	038H
	DB	038H
	DB	038H
	DB	092H
	DB	00H
	DB	00H
	DB	00H
	DB	00H
	DB	038H
	DB	038H
	DB	038H
	DB	02cH
	DB	038H
	DB	03cH
	DB	038H
	DB	0fbH
	DB	040H
	DB	03cH
	DB	040H
	DB	0ffH
	DB	040H
	DB	040H
	DB	040H
	DB	0ffH
	DB	020H
	DB	020H
	DB	020H
	DB	0ffH
	DB	00H
	DB	00H
	DB	00H
	DB	0ffH
	DB	00H
	DB	00H
	DB	00H
	DB	0ffH
	DB	00H
	DB	00H
	DB	00H
	DB	0ffH
	DB	00H
	DB	00H
	DB	00H
	DB	0ffH
	DB	00H
	DB	00H
	DB	00H
	DB	0ffH
	DB	00H
	DB	00H
	DB	00H
	DB	0ffH
	DB	00H
	DB	00H
	DB	00H
	DB	0ffH
	DB	00H
	DB	00H
	DB	00H
	DB	0ffH
	DB	00H
	DB	00H
	DB	00H
	DB	0ffH
	DB	00H
	DB	00H
	DB	00H
	DB	0ffH
	DB	00H
	DB	00H
	DB	00H
	DB	0ffH
	DB	00H
	DB	00H
	DB	00H
	DB	0ffH
	DB	00H
	DB	00H
	DB	00H
	DB	0ffH
	DB	00H
	DB	00H
	DB	00H
	DB	0ffH
	DB	00H
	DB	00H
	DB	00H
	DB	0ffH
	DB	00H
	DB	00H
	DB	00H
	DB	0ffH
	DB	00H
	DB	00H
	DB	00H
	DB	0ffH
	DB	00H
	DB	00H
	DB	00H
	DB	0ffH
	DB	00H
	DB	00H
	DB	00H
	DB	0ffH
	DB	00H
	DB	00H
	DB	00H
	DB	0ffH
	DB	00H
	DB	00H
	DB	00H
	DB	0ffH
	DB	00H
	DB	00H
	DB	00H
	DB	0ffH
	DB	00H
	DB	00H
	DB	00H
	DB	0ffH
	DB	00H
	DB	00H
	DB	00H
	DB	0ffH
	DB	00H
	DB	00H
	DB	00H
	DB	0ffH
	DB	00H
	DB	00H
	DB	00H
	DB	0ffH
	DB	00H
	DB	00H
	DB	00H
	DB	0ffH
	DB	00H
	DB	00H
	DB	00H
	DB	0ffH
	DB	00H
	DB	00H
	DB	00H
	DB	0ffH
	DB	00H
	DB	00H
	DB	00H
	DB	0ffH
	DB	00H
	DB	00H
	DB	00H
	DB	0ffH
	DB	00H
	DB	00H
	DB	00H
	DB	0ffH
	DB	00H
	DB	00H
	DB	00H
	DB	0ffH
	DB	00H
	DB	00H
	DB	00H
	DB	0ffH
	DB	00H
	DB	00H
	DB	00H
	DB	0ffH
	DB	00H
	DB	00H
	DB	00H
	DB	0ffH
	DB	00H
	DB	00H
	DB	00H
	DB	0ffH
	DB	00H
	DB	00H
	DB	00H
	DB	0ffH
	DB	00H
	DB	00H
	DB	00H
	DB	0ffH
	DB	00H
	DB	00H
	DB	00H
	DB	0ffH
	DB	00H
	DB	00H
	DB	00H
	DB	0ffH
	DB	00H
	DB	00H
	DB	00H
	DB	0ffH
	DB	00H
	DB	00H
	DB	00H
	DB	0ffH
	DB	00H
	DB	00H
	DB	00H
	DB	0ffH
	DB	00H
	DB	00H
	DB	00H
	DB	0ffH
	DB	00H
	DB	00H
	DB	00H
	DB	0ffH
	DB	00H
	DB	00H
	DB	00H
	DB	0ffH
	DB	00H
	DB	00H
	DB	00H
	DB	0ffH
	DB	00H
	DB	00H
	DB	00H
	DB	0ffH
	DB	00H
	DB	00H
	DB	00H
	DB	0ffH
	DB	00H
	DB	00H
	DB	00H
	DB	0ffH
	DB	00H
	DB	00H
	DB	00H
	DB	0ffH
	DB	00H
	DB	00H
	DB	00H
	DB	0ffH
	DB	00H
	DB	00H
	DB	00H
	DB	0ffH
	DB	00H
	DB	00H
	DB	00H
	DB	0ffH
	DB	00H
	DB	00H
	DB	00H
	DB	0ffH
	DB	00H
	DB	00H
	DB	00H
	DB	0ffH
	DB	00H
	DB	00H
	DB	00H
	DB	0ffH
	DB	00H
	DB	00H
	DB	00H
	DB	0ffH
	DB	00H
	DB	00H
	DB	00H
	DB	0ffH
	DB	00H
	DB	00H
	DB	00H
	DB	0ffH
	DB	00H
	DB	00H
	DB	00H
	DB	0ffH
	DB	00H
	DB	00H
	DB	00H
	DB	0ffH
	DB	00H
	DB	00H
	DB	00H
	DB	0ffH
	DB	00H
	DB	00H
	DB	00H
	DB	0ffH
	DB	00H
	DB	00H
	DB	00H
	DB	0ffH
	DB	00H
	DB	00H
	DB	00H
	DB	0ffH
	DB	00H
	DB	00H
	DB	00H
	DB	0ffH
	DB	00H
	DB	00H
	DB	00H
	DB	0ffH
	DB	00H
	DB	00H
	DB	00H
	DB	0ffH
	DB	00H
	DB	00H
	DB	00H
	DB	0ffH
	DB	00H
	DB	00H
	DB	00H
	DB	0ffH
	DB	00H
	DB	00H
	DB	00H
	DB	0ffH
	DB	00H
	DB	00H
	DB	00H
	DB	0ffH
	DB	00H
	DB	00H
	DB	00H
	DB	0ffH
	DB	00H
	DB	00H
	DB	00H
	DB	0ffH
	DB	00H
	DB	00H
	DB	00H
	DB	0ffH
	DB	00H
	DB	00H
	DB	00H
	DB	0ffH
	DB	00H
	DB	00H
	DB	00H
	DB	0ffH
	DB	00H
	DB	00H
	DB	00H
	DB	0ffH
	DB	00H
	DB	00H
	DB	00H
	DB	0ffH
	DB	00H
	DB	00H
	DB	00H
	DB	0ffH
	DB	00H
	DB	00H
	DB	00H
	DB	0ffH
	DB	00H
	DB	00H
	DB	00H
	DB	0ffH
	DB	00H
	DB	00H
	DB	00H
	DB	0ffH
	DB	00H
	DB	00H
	DB	00H
	DB	0ffH
	DB	00H
	DB	00H
	DB	00H
	DB	0ffH
	DB	00H
	DB	00H
	DB	00H
	DB	0ffH
	DB	00H
	DB	00H
	DB	00H
	DB	0ffH
	DB	00H
	DB	00H
	DB	00H
	DB	0ffH
	DB	00H
	DB	00H
	DB	00H
	DB	0ffH
	DB	00H
	DB	00H
	DB	00H
	DB	0ffH
	DB	00H
	DB	00H
	DB	00H
	DB	0ffH
	DB	00H
	DB	00H
	DB	00H
	DB	0ffH
	DB	00H
	DB	00H
	DB	00H
	DB	0ffH
	DB	00H
	DB	00H
	DB	00H
	DB	0ffH
	DB	00H
	DB	00H
	DB	00H
	DB	0ffH
	DB	00H
	DB	00H
	DB	00H
	DB	0ffH
	DB	00H
	DB	00H
	DB	00H
	DB	0ffH
	DB	00H
	DB	00H
	DB	00H
	DB	0ffH
	DB	00H
	DB	00H
	DB	00H
	DB	0ffH
	DB	00H
	DB	00H
	DB	00H
	DB	0ffH
	DB	00H
	DB	00H
	DB	00H
	DB	0ffH
	DB	00H
	DB	00H
	DB	00H
	DB	0ffH
	DB	00H
	DB	00H
	DB	00H
	DB	0ffH
	DB	00H
	DB	00H
	DB	00H
	DB	0ffH
	DB	00H
	DB	00H
	DB	00H
	DB	0ffH
	DB	00H
	DB	00H
	DB	00H
	DB	0ffH
	DB	00H
	DB	00H
	DB	00H
	DB	0ffH
	DB	00H
	DB	00H
	DB	00H
	DB	0ffH
	DB	00H
	DB	00H
	DB	00H
	DB	0ffH
	DB	00H
	DB	00H
	DB	00H
	DB	0ffH
	DB	00H
	DB	00H
	DB	00H
	DB	0ffH
	DB	00H
	DB	00H
	DB	00H
	DB	0ffH
	DB	00H
	DB	00H
	DB	00H
	DB	0ffH
	DB	00H
	DB	00H
	DB	00H
	DB	0ffH
	DB	00H
	DB	00H
	DB	00H
	DB	0ffH
	DB	00H
	DB	00H
	DB	00H
	DB	0ffH
	DB	020H
	DB	020H
	DB	020H
	DB	0ffH
	DB	040H
	DB	040H
	DB	040H
	DB	0ffH
	DB	040H
	DB	03cH
	DB	040H
	DB	0ffH
	DB	038H
	DB	03cH
	DB	038H
	DB	0fbH
	DB	038H
	DB	038H
	DB	038H
	DB	02cH
	DB	038H
	DB	03cH
	DB	038H
	DB	08eH
	DB	040H
	DB	040H
	DB	040H
	DB	0ffH
	DB	040H
	DB	040H
	DB	040H
	DB	0ffH
	DB	030H
	DB	02cH
	DB	030H
	DB	0ffH
	DB	00H
	DB	00H
	DB	00H
	DB	0ffH
	DB	00H
	DB	00H
	DB	00H
	DB	0ffH
	DB	00H
	DB	00H
	DB	00H
	DB	0ffH
	DB	00H
	DB	00H
	DB	00H
	DB	0ffH
	DB	00H
	DB	00H
	DB	00H
	DB	0ffH
	DB	00H
	DB	00H
	DB	00H
	DB	0ffH
	DB	00H
	DB	00H
	DB	00H
	DB	0ffH
	DB	00H
	DB	00H
	DB	00H
	DB	0ffH
	DB	00H
	DB	00H
	DB	00H
	DB	0ffH
	DB	00H
	DB	00H
	DB	00H
	DB	0ffH
	DB	00H
	DB	00H
	DB	00H
	DB	0ffH
	DB	00H
	DB	00H
	DB	00H
	DB	0ffH
	DB	00H
	DB	00H
	DB	00H
	DB	0ffH
	DB	00H
	DB	00H
	DB	00H
	DB	0ffH
	DB	00H
	DB	00H
	DB	00H
	DB	0ffH
	DB	00H
	DB	00H
	DB	00H
	DB	0ffH
	DB	00H
	DB	00H
	DB	00H
	DB	0ffH
	DB	00H
	DB	00H
	DB	00H
	DB	0ffH
	DB	00H
	DB	00H
	DB	00H
	DB	0ffH
	DB	00H
	DB	00H
	DB	00H
	DB	0ffH
	DB	00H
	DB	00H
	DB	00H
	DB	0ffH
	DB	00H
	DB	00H
	DB	00H
	DB	0ffH
	DB	00H
	DB	00H
	DB	00H
	DB	0ffH
	DB	00H
	DB	00H
	DB	00H
	DB	0ffH
	DB	00H
	DB	00H
	DB	00H
	DB	0ffH
	DB	00H
	DB	00H
	DB	00H
	DB	0ffH
	DB	00H
	DB	00H
	DB	00H
	DB	0ffH
	DB	00H
	DB	00H
	DB	00H
	DB	0ffH
	DB	00H
	DB	00H
	DB	00H
	DB	0ffH
	DB	00H
	DB	00H
	DB	00H
	DB	0ffH
	DB	00H
	DB	00H
	DB	00H
	DB	0ffH
	DB	00H
	DB	00H
	DB	00H
	DB	0ffH
	DB	00H
	DB	00H
	DB	00H
	DB	0ffH
	DB	00H
	DB	00H
	DB	00H
	DB	0ffH
	DB	00H
	DB	00H
	DB	00H
	DB	0ffH
	DB	00H
	DB	00H
	DB	00H
	DB	0ffH
	DB	00H
	DB	00H
	DB	00H
	DB	0ffH
	DB	00H
	DB	00H
	DB	00H
	DB	0ffH
	DB	00H
	DB	00H
	DB	00H
	DB	0ffH
	DB	00H
	DB	00H
	DB	00H
	DB	0ffH
	DB	00H
	DB	00H
	DB	00H
	DB	0ffH
	DB	00H
	DB	00H
	DB	00H
	DB	0ffH
	DB	00H
	DB	00H
	DB	00H
	DB	0ffH
	DB	00H
	DB	00H
	DB	00H
	DB	0ffH
	DB	00H
	DB	00H
	DB	00H
	DB	0ffH
	DB	00H
	DB	00H
	DB	00H
	DB	0ffH
	DB	00H
	DB	00H
	DB	00H
	DB	0ffH
	DB	00H
	DB	00H
	DB	00H
	DB	0ffH
	DB	00H
	DB	00H
	DB	00H
	DB	0ffH
	DB	00H
	DB	00H
	DB	00H
	DB	0ffH
	DB	00H
	DB	00H
	DB	00H
	DB	0ffH
	DB	00H
	DB	00H
	DB	00H
	DB	0ffH
	DB	00H
	DB	00H
	DB	00H
	DB	0ffH
	DB	00H
	DB	00H
	DB	00H
	DB	0ffH
	DB	00H
	DB	00H
	DB	00H
	DB	0ffH
	DB	00H
	DB	00H
	DB	00H
	DB	0ffH
	DB	00H
	DB	00H
	DB	00H
	DB	0ffH
	DB	00H
	DB	00H
	DB	00H
	DB	0ffH
	DB	00H
	DB	00H
	DB	00H
	DB	0ffH
	DB	00H
	DB	00H
	DB	00H
	DB	0ffH
	DB	00H
	DB	00H
	DB	00H
	DB	0ffH
	DB	00H
	DB	00H
	DB	00H
	DB	0ffH
	DB	00H
	DB	00H
	DB	00H
	DB	0ffH
	DB	00H
	DB	00H
	DB	00H
	DB	0ffH
	DB	00H
	DB	00H
	DB	00H
	DB	0ffH
	DB	00H
	DB	00H
	DB	00H
	DB	0ffH
	DB	00H
	DB	00H
	DB	00H
	DB	0ffH
	DB	00H
	DB	00H
	DB	00H
	DB	0ffH
	DB	00H
	DB	00H
	DB	00H
	DB	0ffH
	DB	00H
	DB	00H
	DB	00H
	DB	0ffH
	DB	00H
	DB	00H
	DB	00H
	DB	0ffH
	DB	00H
	DB	00H
	DB	00H
	DB	0ffH
	DB	00H
	DB	00H
	DB	00H
	DB	0ffH
	DB	00H
	DB	00H
	DB	00H
	DB	0ffH
	DB	00H
	DB	00H
	DB	00H
	DB	0ffH
	DB	00H
	DB	00H
	DB	00H
	DB	0ffH
	DB	00H
	DB	00H
	DB	00H
	DB	0ffH
	DB	00H
	DB	00H
	DB	00H
	DB	0ffH
	DB	00H
	DB	00H
	DB	00H
	DB	0ffH
	DB	00H
	DB	00H
	DB	00H
	DB	0ffH
	DB	00H
	DB	00H
	DB	00H
	DB	0ffH
	DB	00H
	DB	00H
	DB	00H
	DB	0ffH
	DB	00H
	DB	00H
	DB	00H
	DB	0ffH
	DB	00H
	DB	00H
	DB	00H
	DB	0ffH
	DB	00H
	DB	00H
	DB	00H
	DB	0ffH
	DB	00H
	DB	00H
	DB	00H
	DB	0ffH
	DB	00H
	DB	00H
	DB	00H
	DB	0ffH
	DB	00H
	DB	00H
	DB	00H
	DB	0ffH
	DB	00H
	DB	00H
	DB	00H
	DB	0ffH
	DB	00H
	DB	00H
	DB	00H
	DB	0ffH
	DB	00H
	DB	00H
	DB	00H
	DB	0ffH
	DB	00H
	DB	00H
	DB	00H
	DB	0ffH
	DB	00H
	DB	00H
	DB	00H
	DB	0ffH
	DB	00H
	DB	00H
	DB	00H
	DB	0ffH
	DB	00H
	DB	00H
	DB	00H
	DB	0ffH
	DB	00H
	DB	00H
	DB	00H
	DB	0ffH
	DB	00H
	DB	00H
	DB	00H
	DB	0ffH
	DB	00H
	DB	00H
	DB	00H
	DB	0ffH
	DB	00H
	DB	00H
	DB	00H
	DB	0ffH
	DB	00H
	DB	00H
	DB	00H
	DB	0ffH
	DB	00H
	DB	00H
	DB	00H
	DB	0ffH
	DB	00H
	DB	00H
	DB	00H
	DB	0ffH
	DB	00H
	DB	00H
	DB	00H
	DB	0ffH
	DB	00H
	DB	00H
	DB	00H
	DB	0ffH
	DB	00H
	DB	00H
	DB	00H
	DB	0ffH
	DB	00H
	DB	00H
	DB	00H
	DB	0ffH
	DB	00H
	DB	00H
	DB	00H
	DB	0ffH
	DB	00H
	DB	00H
	DB	00H
	DB	0ffH
	DB	00H
	DB	00H
	DB	00H
	DB	0ffH
	DB	00H
	DB	00H
	DB	00H
	DB	0ffH
	DB	00H
	DB	00H
	DB	00H
	DB	0ffH
	DB	00H
	DB	00H
	DB	00H
	DB	0ffH
	DB	00H
	DB	00H
	DB	00H
	DB	0ffH
	DB	00H
	DB	00H
	DB	00H
	DB	0ffH
	DB	00H
	DB	00H
	DB	00H
	DB	0ffH
	DB	00H
	DB	00H
	DB	00H
	DB	0ffH
	DB	00H
	DB	00H
	DB	00H
	DB	0ffH
	DB	00H
	DB	00H
	DB	00H
	DB	0ffH
	DB	00H
	DB	00H
	DB	00H
	DB	0ffH
	DB	00H
	DB	00H
	DB	00H
	DB	0ffH
	DB	030H
	DB	02cH
	DB	030H
	DB	0ffH
	DB	040H
	DB	040H
	DB	040H
	DB	0ffH
	DB	040H
	DB	040H
	DB	040H
	DB	0ffH
	DB	038H
	DB	03cH
	DB	038H
	DB	08eH
	DB	040H
	DB	040H
	DB	040H
	DB	0d7H
	DB	040H
	DB	040H
	DB	040H
	DB	0ffH
	DB	040H
	DB	044H
	DB	040H
	DB	0ffH
	DB	010H
	DB	010H
	DB	010H
	DB	0ffH
	DB	00H
	DB	00H
	DB	00H
	DB	0ffH
	DB	00H
	DB	00H
	DB	00H
	DB	0ffH
	DB	00H
	DB	00H
	DB	00H
	DB	0ffH
	DB	018H
	DB	018H
	DB	018H
	DB	0ffH
	DB	028H
	DB	028H
	DB	028H
	DB	0ffH
	DB	028H
	DB	02cH
	DB	028H
	DB	0ffH
	DB	028H
	DB	02cH
	DB	028H
	DB	0ffH
	DB	028H
	DB	02cH
	DB	028H
	DB	0ffH
	DB	028H
	DB	02cH
	DB	028H
	DB	0ffH
	DB	028H
	DB	02cH
	DB	028H
	DB	0ffH
	DB	028H
	DB	02cH
	DB	028H
	DB	0ffH
	DB	028H
	DB	02cH
	DB	028H
	DB	0ffH
	DB	028H
	DB	02cH
	DB	028H
	DB	0ffH
	DB	028H
	DB	02cH
	DB	028H
	DB	0ffH
	DB	028H
	DB	02cH
	DB	028H
	DB	0ffH
	DB	028H
	DB	02cH
	DB	028H
	DB	0ffH
	DB	028H
	DB	02cH
	DB	028H
	DB	0ffH
	DB	028H
	DB	02cH
	DB	028H
	DB	0ffH
	DB	028H
	DB	02cH
	DB	028H
	DB	0ffH
	DB	028H
	DB	02cH
	DB	028H
	DB	0ffH
	DB	028H
	DB	02cH
	DB	028H
	DB	0ffH
	DB	028H
	DB	02cH
	DB	028H
	DB	0ffH
	DB	028H
	DB	02cH
	DB	028H
	DB	0ffH
	DB	028H
	DB	02cH
	DB	028H
	DB	0ffH
	DB	028H
	DB	02cH
	DB	028H
	DB	0ffH
	DB	028H
	DB	02cH
	DB	028H
	DB	0ffH
	DB	028H
	DB	02cH
	DB	028H
	DB	0ffH
	DB	028H
	DB	02cH
	DB	028H
	DB	0ffH
	DB	028H
	DB	02cH
	DB	028H
	DB	0ffH
	DB	028H
	DB	02cH
	DB	028H
	DB	0ffH
	DB	028H
	DB	02cH
	DB	028H
	DB	0ffH
	DB	028H
	DB	02cH
	DB	028H
	DB	0ffH
	DB	028H
	DB	02cH
	DB	028H
	DB	0ffH
	DB	028H
	DB	02cH
	DB	028H
	DB	0ffH
	DB	028H
	DB	02cH
	DB	028H
	DB	0ffH
	DB	028H
	DB	02cH
	DB	028H
	DB	0ffH
	DB	028H
	DB	02cH
	DB	028H
	DB	0ffH
	DB	028H
	DB	02cH
	DB	028H
	DB	0ffH
	DB	028H
	DB	02cH
	DB	028H
	DB	0ffH
	DB	028H
	DB	02cH
	DB	028H
	DB	0ffH
	DB	028H
	DB	02cH
	DB	028H
	DB	0ffH
	DB	028H
	DB	02cH
	DB	028H
	DB	0ffH
	DB	028H
	DB	02cH
	DB	028H
	DB	0ffH
	DB	028H
	DB	02cH
	DB	028H
	DB	0ffH
	DB	028H
	DB	02cH
	DB	028H
	DB	0ffH
	DB	028H
	DB	02cH
	DB	028H
	DB	0ffH
	DB	028H
	DB	02cH
	DB	028H
	DB	0ffH
	DB	028H
	DB	02cH
	DB	028H
	DB	0ffH
	DB	028H
	DB	02cH
	DB	028H
	DB	0ffH
	DB	028H
	DB	02cH
	DB	028H
	DB	0ffH
	DB	028H
	DB	02cH
	DB	028H
	DB	0ffH
	DB	028H
	DB	02cH
	DB	028H
	DB	0ffH
	DB	028H
	DB	02cH
	DB	028H
	DB	0ffH
	DB	028H
	DB	02cH
	DB	028H
	DB	0ffH
	DB	028H
	DB	02cH
	DB	028H
	DB	0ffH
	DB	028H
	DB	02cH
	DB	028H
	DB	0ffH
	DB	028H
	DB	02cH
	DB	028H
	DB	0ffH
	DB	028H
	DB	028H
	DB	028H
	DB	0ffH
	DB	028H
	DB	02cH
	DB	028H
	DB	0ffH
	DB	00H
	DB	00H
	DB	00H
	DB	0ffH
	DB	00H
	DB	00H
	DB	00H
	DB	0ffH
	DB	0b0H
	DB	0b4H
	DB	0b0H
	DB	0ffH
	DB	0b0H
	DB	0b4H
	DB	0b0H
	DB	0ffH
	DB	0b0H
	DB	0b0H
	DB	0b0H
	DB	0ffH
	DB	0b0H
	DB	0b0H
	DB	0b0H
	DB	0ffH
	DB	0b0H
	DB	0b0H
	DB	0b0H
	DB	0ffH
	DB	0b0H
	DB	0b0H
	DB	0b0H
	DB	0ffH
	DB	0b0H
	DB	0b0H
	DB	0b0H
	DB	0ffH
	DB	0b0H
	DB	0b0H
	DB	0b0H
	DB	0ffH
	DB	0b0H
	DB	0b0H
	DB	0b0H
	DB	0ffH
	DB	0b0H
	DB	0b0H
	DB	0b0H
	DB	0ffH
	DB	0b0H
	DB	0b0H
	DB	0b0H
	DB	0ffH
	DB	0b0H
	DB	0b0H
	DB	0b0H
	DB	0ffH
	DB	0b0H
	DB	0b0H
	DB	0b0H
	DB	0ffH
	DB	0b0H
	DB	0b0H
	DB	0b0H
	DB	0ffH
	DB	0b0H
	DB	0b0H
	DB	0b0H
	DB	0ffH
	DB	0b0H
	DB	0b0H
	DB	0b0H
	DB	0ffH
	DB	0b0H
	DB	0b0H
	DB	0b0H
	DB	0ffH
	DB	0b0H
	DB	0b0H
	DB	0b0H
	DB	0ffH
	DB	0b0H
	DB	0b0H
	DB	0b0H
	DB	0ffH
	DB	0b0H
	DB	0b0H
	DB	0b0H
	DB	0ffH
	DB	0b0H
	DB	0b0H
	DB	0b0H
	DB	0ffH
	DB	0b0H
	DB	0b0H
	DB	0b0H
	DB	0ffH
	DB	0b0H
	DB	0b0H
	DB	0b0H
	DB	0ffH
	DB	0b0H
	DB	0b0H
	DB	0b0H
	DB	0ffH
	DB	0b0H
	DB	0b0H
	DB	0b0H
	DB	0ffH
	DB	0b0H
	DB	0b0H
	DB	0b0H
	DB	0ffH
	DB	0b0H
	DB	0b0H
	DB	0b0H
	DB	0ffH
	DB	0b0H
	DB	0b0H
	DB	0b0H
	DB	0ffH
	DB	0b0H
	DB	0b0H
	DB	0b0H
	DB	0ffH
	DB	0b0H
	DB	0b0H
	DB	0b0H
	DB	0ffH
	DB	0b0H
	DB	0b0H
	DB	0b0H
	DB	0ffH
	DB	0b0H
	DB	0b0H
	DB	0b0H
	DB	0ffH
	DB	0b0H
	DB	0b0H
	DB	0b0H
	DB	0ffH
	DB	0b0H
	DB	0b0H
	DB	0b0H
	DB	0ffH
	DB	0b0H
	DB	0b0H
	DB	0b0H
	DB	0ffH
	DB	0b0H
	DB	0b0H
	DB	0b0H
	DB	0ffH
	DB	0b0H
	DB	0b0H
	DB	0b0H
	DB	0ffH
	DB	0b0H
	DB	0b0H
	DB	0b0H
	DB	0ffH
	DB	0b0H
	DB	0b0H
	DB	0b0H
	DB	0ffH
	DB	0b0H
	DB	0b0H
	DB	0b0H
	DB	0ffH
	DB	0b0H
	DB	0b0H
	DB	0b0H
	DB	0ffH
	DB	0b0H
	DB	0b0H
	DB	0b0H
	DB	0ffH
	DB	0b0H
	DB	0b0H
	DB	0b0H
	DB	0ffH
	DB	0b0H
	DB	0b0H
	DB	0b0H
	DB	0ffH
	DB	0b0H
	DB	0b0H
	DB	0b0H
	DB	0ffH
	DB	0b0H
	DB	0b0H
	DB	0b0H
	DB	0ffH
	DB	0b0H
	DB	0b0H
	DB	0b0H
	DB	0ffH
	DB	0b0H
	DB	0b0H
	DB	0b0H
	DB	0ffH
	DB	0b0H
	DB	0b0H
	DB	0b0H
	DB	0ffH
	DB	0b0H
	DB	0b0H
	DB	0b0H
	DB	0ffH
	DB	0b0H
	DB	0b0H
	DB	0b0H
	DB	0ffH
	DB	0b0H
	DB	0b0H
	DB	0b0H
	DB	0ffH
	DB	0b0H
	DB	0b0H
	DB	0b0H
	DB	0ffH
	DB	0b0H
	DB	0b0H
	DB	0b0H
	DB	0ffH
	DB	0a8H
	DB	0a8H
	DB	0a8H
	DB	0ffH
	DB	068H
	DB	068H
	DB	068H
	DB	0ffH
	DB	00H
	DB	04H
	DB	00H
	DB	0ffH
	DB	00H
	DB	00H
	DB	00H
	DB	0ffH
	DB	00H
	DB	00H
	DB	00H
	DB	0ffH
	DB	010H
	DB	010H
	DB	010H
	DB	0ffH
	DB	040H
	DB	044H
	DB	040H
	DB	0ffH
	DB	040H
	DB	044H
	DB	040H
	DB	0ffH
	DB	040H
	DB	040H
	DB	040H
	DB	0d7H
	DB	040H
	DB	040H
	DB	040H
	DB	0f7H
	DB	048H
	DB	044H
	DB	048H
	DB	0ffH
	DB	048H
	DB	044H
	DB	048H
	DB	0ffH
	DB	00H
	DB	04H
	DB	00H
	DB	0ffH
	DB	00H
	DB	00H
	DB	00H
	DB	0ffH
	DB	00H
	DB	00H
	DB	00H
	DB	0ffH
	DB	018H
	DB	018H
	DB	018H
	DB	0ffH
	DB	028H
	DB	028H
	DB	028H
	DB	0ffH
	DB	030H
	DB	02cH
	DB	030H
	DB	0ffH
	DB	030H
	DB	02cH
	DB	030H
	DB	0ffH
	DB	030H
	DB	02cH
	DB	030H
	DB	0ffH
	DB	030H
	DB	02cH
	DB	030H
	DB	0ffH
	DB	030H
	DB	02cH
	DB	030H
	DB	0ffH
	DB	030H
	DB	02cH
	DB	030H
	DB	0ffH
	DB	030H
	DB	02cH
	DB	030H
	DB	0ffH
	DB	030H
	DB	02cH
	DB	030H
	DB	0ffH
	DB	030H
	DB	02cH
	DB	030H
	DB	0ffH
	DB	030H
	DB	02cH
	DB	030H
	DB	0ffH
	DB	030H
	DB	02cH
	DB	030H
	DB	0ffH
	DB	030H
	DB	02cH
	DB	030H
	DB	0ffH
	DB	030H
	DB	02cH
	DB	030H
	DB	0ffH
	DB	030H
	DB	02cH
	DB	030H
	DB	0ffH
	DB	030H
	DB	02cH
	DB	030H
	DB	0ffH
	DB	030H
	DB	02cH
	DB	030H
	DB	0ffH
	DB	030H
	DB	02cH
	DB	030H
	DB	0ffH
	DB	030H
	DB	02cH
	DB	030H
	DB	0ffH
	DB	030H
	DB	02cH
	DB	030H
	DB	0ffH
	DB	030H
	DB	02cH
	DB	030H
	DB	0ffH
	DB	030H
	DB	02cH
	DB	030H
	DB	0ffH
	DB	030H
	DB	02cH
	DB	030H
	DB	0ffH
	DB	030H
	DB	02cH
	DB	030H
	DB	0ffH
	DB	030H
	DB	02cH
	DB	030H
	DB	0ffH
	DB	030H
	DB	02cH
	DB	030H
	DB	0ffH
	DB	030H
	DB	02cH
	DB	030H
	DB	0ffH
	DB	030H
	DB	02cH
	DB	030H
	DB	0ffH
	DB	030H
	DB	02cH
	DB	030H
	DB	0ffH
	DB	030H
	DB	02cH
	DB	030H
	DB	0ffH
	DB	030H
	DB	02cH
	DB	030H
	DB	0ffH
	DB	030H
	DB	02cH
	DB	030H
	DB	0ffH
	DB	030H
	DB	02cH
	DB	030H
	DB	0ffH
	DB	030H
	DB	02cH
	DB	030H
	DB	0ffH
	DB	030H
	DB	02cH
	DB	030H
	DB	0ffH
	DB	030H
	DB	02cH
	DB	030H
	DB	0ffH
	DB	030H
	DB	02cH
	DB	030H
	DB	0ffH
	DB	030H
	DB	02cH
	DB	030H
	DB	0ffH
	DB	030H
	DB	02cH
	DB	030H
	DB	0ffH
	DB	030H
	DB	02cH
	DB	030H
	DB	0ffH
	DB	030H
	DB	02cH
	DB	030H
	DB	0ffH
	DB	030H
	DB	02cH
	DB	030H
	DB	0ffH
	DB	030H
	DB	02cH
	DB	030H
	DB	0ffH
	DB	030H
	DB	02cH
	DB	030H
	DB	0ffH
	DB	030H
	DB	02cH
	DB	030H
	DB	0ffH
	DB	030H
	DB	02cH
	DB	030H
	DB	0ffH
	DB	030H
	DB	02cH
	DB	030H
	DB	0ffH
	DB	030H
	DB	02cH
	DB	030H
	DB	0ffH
	DB	030H
	DB	02cH
	DB	030H
	DB	0ffH
	DB	030H
	DB	02cH
	DB	030H
	DB	0ffH
	DB	030H
	DB	02cH
	DB	030H
	DB	0ffH
	DB	030H
	DB	02cH
	DB	030H
	DB	0ffH
	DB	030H
	DB	02cH
	DB	030H
	DB	0ffH
	DB	030H
	DB	02cH
	DB	030H
	DB	0ffH
	DB	028H
	DB	02cH
	DB	028H
	DB	0ffH
	DB	028H
	DB	02cH
	DB	028H
	DB	0ffH
	DB	00H
	DB	00H
	DB	00H
	DB	0ffH
	DB	00H
	DB	00H
	DB	00H
	DB	0ffH
	DB	0a8H
	DB	0a4H
	DB	0a8H
	DB	0ffH
	DB	098H
	DB	098H
	DB	098H
	DB	0ffH
	DB	098H
	DB	098H
	DB	098H
	DB	0ffH
	DB	098H
	DB	094H
	DB	098H
	DB	0ffH
	DB	098H
	DB	098H
	DB	098H
	DB	0ffH
	DB	098H
	DB	094H
	DB	098H
	DB	0ffH
	DB	098H
	DB	098H
	DB	098H
	DB	0ffH
	DB	098H
	DB	098H
	DB	098H
	DB	0ffH
	DB	098H
	DB	094H
	DB	098H
	DB	0ffH
	DB	098H
	DB	098H
	DB	098H
	DB	0ffH
	DB	098H
	DB	094H
	DB	098H
	DB	0ffH
	DB	098H
	DB	098H
	DB	098H
	DB	0ffH
	DB	098H
	DB	098H
	DB	098H
	DB	0ffH
	DB	098H
	DB	094H
	DB	098H
	DB	0ffH
	DB	098H
	DB	098H
	DB	098H
	DB	0ffH
	DB	098H
	DB	094H
	DB	098H
	DB	0ffH
	DB	098H
	DB	098H
	DB	098H
	DB	0ffH
	DB	098H
	DB	098H
	DB	098H
	DB	0ffH
	DB	098H
	DB	094H
	DB	098H
	DB	0ffH
	DB	098H
	DB	098H
	DB	098H
	DB	0ffH
	DB	098H
	DB	094H
	DB	098H
	DB	0ffH
	DB	098H
	DB	098H
	DB	098H
	DB	0ffH
	DB	098H
	DB	098H
	DB	098H
	DB	0ffH
	DB	098H
	DB	094H
	DB	098H
	DB	0ffH
	DB	098H
	DB	098H
	DB	098H
	DB	0ffH
	DB	098H
	DB	094H
	DB	098H
	DB	0ffH
	DB	098H
	DB	098H
	DB	098H
	DB	0ffH
	DB	098H
	DB	098H
	DB	098H
	DB	0ffH
	DB	098H
	DB	094H
	DB	098H
	DB	0ffH
	DB	098H
	DB	098H
	DB	098H
	DB	0ffH
	DB	098H
	DB	094H
	DB	098H
	DB	0ffH
	DB	098H
	DB	098H
	DB	098H
	DB	0ffH
	DB	098H
	DB	098H
	DB	098H
	DB	0ffH
	DB	098H
	DB	094H
	DB	098H
	DB	0ffH
	DB	098H
	DB	098H
	DB	098H
	DB	0ffH
	DB	098H
	DB	094H
	DB	098H
	DB	0ffH
	DB	098H
	DB	098H
	DB	098H
	DB	0ffH
	DB	098H
	DB	098H
	DB	098H
	DB	0ffH
	DB	098H
	DB	094H
	DB	098H
	DB	0ffH
	DB	098H
	DB	098H
	DB	098H
	DB	0ffH
	DB	098H
	DB	094H
	DB	098H
	DB	0ffH
	DB	098H
	DB	098H
	DB	098H
	DB	0ffH
	DB	098H
	DB	098H
	DB	098H
	DB	0ffH
	DB	098H
	DB	094H
	DB	098H
	DB	0ffH
	DB	098H
	DB	098H
	DB	098H
	DB	0ffH
	DB	098H
	DB	094H
	DB	098H
	DB	0ffH
	DB	098H
	DB	098H
	DB	098H
	DB	0ffH
	DB	098H
	DB	098H
	DB	098H
	DB	0ffH
	DB	098H
	DB	094H
	DB	098H
	DB	0ffH
	DB	098H
	DB	098H
	DB	098H
	DB	0ffH
	DB	098H
	DB	094H
	DB	098H
	DB	0ffH
	DB	098H
	DB	098H
	DB	098H
	DB	0ffH
	DB	098H
	DB	098H
	DB	098H
	DB	0ffH
	DB	098H
	DB	098H
	DB	098H
	DB	0ffH
	DB	098H
	DB	09cH
	DB	098H
	DB	0ffH
	DB	0a8H
	DB	0a8H
	DB	0a8H
	DB	0ffH
	DB	060H
	DB	060H
	DB	060H
	DB	0ffH
	DB	00H
	DB	00H
	DB	00H
	DB	0ffH
	DB	00H
	DB	00H
	DB	00H
	DB	0ffH
	DB	00H
	DB	04H
	DB	00H
	DB	0ffH
	DB	048H
	DB	044H
	DB	048H
	DB	0ffH
	DB	048H
	DB	044H
	DB	048H
	DB	0ffH
	DB	040H
	DB	040H
	DB	040H
	DB	0fbH
	DB	040H
	DB	044H
	DB	040H
	DB	0ffH
	DB	048H
	DB	048H
	DB	048H
	DB	0ffH
	DB	048H
	DB	044H
	DB	048H
	DB	0ffH
	DB	00H
	DB	00H
	DB	00H
	DB	0ffH
	DB	00H
	DB	00H
	DB	00H
	DB	0ffH
	DB	00H
	DB	00H
	DB	00H
	DB	0ffH
	DB	028H
	DB	028H
	DB	028H
	DB	0ffH
	DB	028H
	DB	02cH
	DB	028H
	DB	0ffH
	DB	030H
	DB	02cH
	DB	030H
	DB	0ffH
	DB	030H
	DB	030H
	DB	030H
	DB	0ffH
	DB	030H
	DB	030H
	DB	030H
	DB	0ffH
	DB	030H
	DB	030H
	DB	030H
	DB	0ffH
	DB	030H
	DB	030H
	DB	030H
	DB	0ffH
	DB	030H
	DB	030H
	DB	030H
	DB	0ffH
	DB	030H
	DB	030H
	DB	030H
	DB	0ffH
	DB	030H
	DB	030H
	DB	030H
	DB	0ffH
	DB	030H
	DB	030H
	DB	030H
	DB	0ffH
	DB	030H
	DB	030H
	DB	030H
	DB	0ffH
	DB	030H
	DB	030H
	DB	030H
	DB	0ffH
	DB	030H
	DB	030H
	DB	030H
	DB	0ffH
	DB	030H
	DB	030H
	DB	030H
	DB	0ffH
	DB	030H
	DB	030H
	DB	030H
	DB	0ffH
	DB	030H
	DB	030H
	DB	030H
	DB	0ffH
	DB	030H
	DB	030H
	DB	030H
	DB	0ffH
	DB	030H
	DB	030H
	DB	030H
	DB	0ffH
	DB	030H
	DB	030H
	DB	030H
	DB	0ffH
	DB	030H
	DB	030H
	DB	030H
	DB	0ffH
	DB	030H
	DB	030H
	DB	030H
	DB	0ffH
	DB	030H
	DB	030H
	DB	030H
	DB	0ffH
	DB	030H
	DB	030H
	DB	030H
	DB	0ffH
	DB	030H
	DB	030H
	DB	030H
	DB	0ffH
	DB	030H
	DB	030H
	DB	030H
	DB	0ffH
	DB	030H
	DB	030H
	DB	030H
	DB	0ffH
	DB	030H
	DB	030H
	DB	030H
	DB	0ffH
	DB	030H
	DB	030H
	DB	030H
	DB	0ffH
	DB	030H
	DB	030H
	DB	030H
	DB	0ffH
	DB	030H
	DB	030H
	DB	030H
	DB	0ffH
	DB	030H
	DB	030H
	DB	030H
	DB	0ffH
	DB	030H
	DB	030H
	DB	030H
	DB	0ffH
	DB	030H
	DB	030H
	DB	030H
	DB	0ffH
	DB	030H
	DB	030H
	DB	030H
	DB	0ffH
	DB	030H
	DB	030H
	DB	030H
	DB	0ffH
	DB	030H
	DB	030H
	DB	030H
	DB	0ffH
	DB	030H
	DB	030H
	DB	030H
	DB	0ffH
	DB	030H
	DB	030H
	DB	030H
	DB	0ffH
	DB	030H
	DB	030H
	DB	030H
	DB	0ffH
	DB	030H
	DB	030H
	DB	030H
	DB	0ffH
	DB	030H
	DB	030H
	DB	030H
	DB	0ffH
	DB	030H
	DB	030H
	DB	030H
	DB	0ffH
	DB	030H
	DB	030H
	DB	030H
	DB	0ffH
	DB	030H
	DB	030H
	DB	030H
	DB	0ffH
	DB	030H
	DB	030H
	DB	030H
	DB	0ffH
	DB	030H
	DB	030H
	DB	030H
	DB	0ffH
	DB	030H
	DB	030H
	DB	030H
	DB	0ffH
	DB	030H
	DB	030H
	DB	030H
	DB	0ffH
	DB	030H
	DB	030H
	DB	030H
	DB	0ffH
	DB	030H
	DB	030H
	DB	030H
	DB	0ffH
	DB	030H
	DB	030H
	DB	030H
	DB	0ffH
	DB	030H
	DB	030H
	DB	030H
	DB	0ffH
	DB	030H
	DB	030H
	DB	030H
	DB	0ffH
	DB	030H
	DB	02cH
	DB	030H
	DB	0ffH
	DB	030H
	DB	02cH
	DB	030H
	DB	0ffH
	DB	028H
	DB	02cH
	DB	028H
	DB	0ffH
	DB	00H
	DB	00H
	DB	00H
	DB	0ffH
	DB	00H
	DB	00H
	DB	00H
	DB	0ffH
	DB	098H
	DB	098H
	DB	098H
	DB	0ffH
	DB	090H
	DB	090H
	DB	090H
	DB	0ffH
	DB	090H
	DB	08cH
	DB	090H
	DB	0ffH
	DB	088H
	DB	08cH
	DB	088H
	DB	0ffH
	DB	088H
	DB	08cH
	DB	088H
	DB	0ffH
	DB	088H
	DB	08cH
	DB	088H
	DB	0ffH
	DB	088H
	DB	08cH
	DB	088H
	DB	0ffH
	DB	088H
	DB	08cH
	DB	088H
	DB	0ffH
	DB	088H
	DB	08cH
	DB	088H
	DB	0ffH
	DB	088H
	DB	08cH
	DB	088H
	DB	0ffH
	DB	088H
	DB	08cH
	DB	088H
	DB	0ffH
	DB	088H
	DB	08cH
	DB	088H
	DB	0ffH
	DB	088H
	DB	08cH
	DB	088H
	DB	0ffH
	DB	088H
	DB	08cH
	DB	088H
	DB	0ffH
	DB	088H
	DB	08cH
	DB	088H
	DB	0ffH
	DB	088H
	DB	08cH
	DB	088H
	DB	0ffH
	DB	088H
	DB	08cH
	DB	088H
	DB	0ffH
	DB	088H
	DB	08cH
	DB	088H
	DB	0ffH
	DB	088H
	DB	08cH
	DB	088H
	DB	0ffH
	DB	088H
	DB	08cH
	DB	088H
	DB	0ffH
	DB	088H
	DB	08cH
	DB	088H
	DB	0ffH
	DB	088H
	DB	08cH
	DB	088H
	DB	0ffH
	DB	088H
	DB	08cH
	DB	088H
	DB	0ffH
	DB	088H
	DB	08cH
	DB	088H
	DB	0ffH
	DB	088H
	DB	08cH
	DB	088H
	DB	0ffH
	DB	088H
	DB	08cH
	DB	088H
	DB	0ffH
	DB	088H
	DB	08cH
	DB	088H
	DB	0ffH
	DB	088H
	DB	08cH
	DB	088H
	DB	0ffH
	DB	088H
	DB	08cH
	DB	088H
	DB	0ffH
	DB	088H
	DB	08cH
	DB	088H
	DB	0ffH
	DB	088H
	DB	08cH
	DB	088H
	DB	0ffH
	DB	088H
	DB	08cH
	DB	088H
	DB	0ffH
	DB	088H
	DB	08cH
	DB	088H
	DB	0ffH
	DB	088H
	DB	08cH
	DB	088H
	DB	0ffH
	DB	088H
	DB	08cH
	DB	088H
	DB	0ffH
	DB	088H
	DB	08cH
	DB	088H
	DB	0ffH
	DB	088H
	DB	08cH
	DB	088H
	DB	0ffH
	DB	088H
	DB	08cH
	DB	088H
	DB	0ffH
	DB	088H
	DB	08cH
	DB	088H
	DB	0ffH
	DB	088H
	DB	08cH
	DB	088H
	DB	0ffH
	DB	088H
	DB	08cH
	DB	088H
	DB	0ffH
	DB	088H
	DB	08cH
	DB	088H
	DB	0ffH
	DB	088H
	DB	08cH
	DB	088H
	DB	0ffH
	DB	088H
	DB	08cH
	DB	088H
	DB	0ffH
	DB	088H
	DB	08cH
	DB	088H
	DB	0ffH
	DB	088H
	DB	08cH
	DB	088H
	DB	0ffH
	DB	088H
	DB	08cH
	DB	088H
	DB	0ffH
	DB	088H
	DB	08cH
	DB	088H
	DB	0ffH
	DB	088H
	DB	08cH
	DB	088H
	DB	0ffH
	DB	088H
	DB	08cH
	DB	088H
	DB	0ffH
	DB	088H
	DB	08cH
	DB	088H
	DB	0ffH
	DB	088H
	DB	08cH
	DB	088H
	DB	0ffH
	DB	088H
	DB	08cH
	DB	088H
	DB	0ffH
	DB	090H
	DB	08cH
	DB	090H
	DB	0ffH
	DB	090H
	DB	08cH
	DB	090H
	DB	0ffH
	DB	090H
	DB	090H
	DB	090H
	DB	0ffH
	DB	0a0H
	DB	09cH
	DB	0a0H
	DB	0ffH
	DB	00H
	DB	00H
	DB	00H
	DB	0ffH
	DB	00H
	DB	00H
	DB	00H
	DB	0ffH
	DB	00H
	DB	00H
	DB	00H
	DB	0ffH
	DB	048H
	DB	044H
	DB	048H
	DB	0ffH
	DB	048H
	DB	048H
	DB	048H
	DB	0ffH
	DB	040H
	DB	044H
	DB	040H
	DB	0ffH
	DB	048H
	DB	048H
	DB	048H
	DB	0ffH
	DB	048H
	DB	048H
	DB	048H
	DB	0ffH
	DB	048H
	DB	048H
	DB	048H
	DB	0ffH
	DB	00H
	DB	00H
	DB	00H
	DB	0ffH
	DB	00H
	DB	00H
	DB	00H
	DB	0ffH
	DB	00H
	DB	00H
	DB	00H
	DB	0ffH
	DB	030H
	DB	02cH
	DB	030H
	DB	0ffH
	DB	030H
	DB	030H
	DB	030H
	DB	0ffH
	DB	030H
	DB	030H
	DB	030H
	DB	0ffH
	DB	030H
	DB	034H
	DB	030H
	DB	0ffH
	DB	038H
	DB	034H
	DB	038H
	DB	0ffH
	DB	038H
	DB	038H
	DB	038H
	DB	0ffH
	DB	038H
	DB	038H
	DB	038H
	DB	0ffH
	DB	038H
	DB	038H
	DB	038H
	DB	0ffH
	DB	038H
	DB	038H
	DB	038H
	DB	0ffH
	DB	038H
	DB	038H
	DB	038H
	DB	0ffH
	DB	038H
	DB	038H
	DB	038H
	DB	0ffH
	DB	038H
	DB	038H
	DB	038H
	DB	0ffH
	DB	038H
	DB	038H
	DB	038H
	DB	0ffH
	DB	038H
	DB	038H
	DB	038H
	DB	0ffH
	DB	038H
	DB	038H
	DB	038H
	DB	0ffH
	DB	038H
	DB	038H
	DB	038H
	DB	0ffH
	DB	038H
	DB	038H
	DB	038H
	DB	0ffH
	DB	038H
	DB	038H
	DB	038H
	DB	0ffH
	DB	038H
	DB	038H
	DB	038H
	DB	0ffH
	DB	038H
	DB	038H
	DB	038H
	DB	0ffH
	DB	038H
	DB	038H
	DB	038H
	DB	0ffH
	DB	038H
	DB	038H
	DB	038H
	DB	0ffH
	DB	038H
	DB	038H
	DB	038H
	DB	0ffH
	DB	038H
	DB	038H
	DB	038H
	DB	0ffH
	DB	038H
	DB	038H
	DB	038H
	DB	0ffH
	DB	038H
	DB	038H
	DB	038H
	DB	0ffH
	DB	038H
	DB	038H
	DB	038H
	DB	0ffH
	DB	038H
	DB	038H
	DB	038H
	DB	0ffH
	DB	038H
	DB	038H
	DB	038H
	DB	0ffH
	DB	038H
	DB	038H
	DB	038H
	DB	0ffH
	DB	038H
	DB	038H
	DB	038H
	DB	0ffH
	DB	038H
	DB	038H
	DB	038H
	DB	0ffH
	DB	038H
	DB	038H
	DB	038H
	DB	0ffH
	DB	038H
	DB	038H
	DB	038H
	DB	0ffH
	DB	038H
	DB	038H
	DB	038H
	DB	0ffH
	DB	038H
	DB	038H
	DB	038H
	DB	0ffH
	DB	038H
	DB	038H
	DB	038H
	DB	0ffH
	DB	038H
	DB	038H
	DB	038H
	DB	0ffH
	DB	038H
	DB	038H
	DB	038H
	DB	0ffH
	DB	038H
	DB	038H
	DB	038H
	DB	0ffH
	DB	038H
	DB	038H
	DB	038H
	DB	0ffH
	DB	038H
	DB	038H
	DB	038H
	DB	0ffH
	DB	038H
	DB	038H
	DB	038H
	DB	0ffH
	DB	038H
	DB	038H
	DB	038H
	DB	0ffH
	DB	038H
	DB	038H
	DB	038H
	DB	0ffH
	DB	038H
	DB	038H
	DB	038H
	DB	0ffH
	DB	038H
	DB	038H
	DB	038H
	DB	0ffH
	DB	038H
	DB	038H
	DB	038H
	DB	0ffH
	DB	038H
	DB	038H
	DB	038H
	DB	0ffH
	DB	038H
	DB	038H
	DB	038H
	DB	0ffH
	DB	038H
	DB	038H
	DB	038H
	DB	0ffH
	DB	038H
	DB	038H
	DB	038H
	DB	0ffH
	DB	038H
	DB	038H
	DB	038H
	DB	0ffH
	DB	030H
	DB	034H
	DB	030H
	DB	0ffH
	DB	030H
	DB	034H
	DB	030H
	DB	0ffH
	DB	030H
	DB	030H
	DB	030H
	DB	0ffH
	DB	030H
	DB	02cH
	DB	030H
	DB	0ffH
	DB	00H
	DB	00H
	DB	00H
	DB	0ffH
	DB	00H
	DB	00H
	DB	00H
	DB	0ffH
	DB	098H
	DB	094H
	DB	098H
	DB	0ffH
	DB	088H
	DB	08cH
	DB	088H
	DB	0ffH
	DB	088H
	DB	08cH
	DB	088H
	DB	0ffH
	DB	088H
	DB	088H
	DB	088H
	DB	0ffH
	DB	088H
	DB	088H
	DB	088H
	DB	0ffH
	DB	088H
	DB	088H
	DB	088H
	DB	0ffH
	DB	088H
	DB	088H
	DB	088H
	DB	0ffH
	DB	088H
	DB	088H
	DB	088H
	DB	0ffH
	DB	088H
	DB	088H
	DB	088H
	DB	0ffH
	DB	088H
	DB	088H
	DB	088H
	DB	0ffH
	DB	088H
	DB	088H
	DB	088H
	DB	0ffH
	DB	088H
	DB	088H
	DB	088H
	DB	0ffH
	DB	088H
	DB	088H
	DB	088H
	DB	0ffH
	DB	088H
	DB	088H
	DB	088H
	DB	0ffH
	DB	088H
	DB	088H
	DB	088H
	DB	0ffH
	DB	088H
	DB	088H
	DB	088H
	DB	0ffH
	DB	088H
	DB	088H
	DB	088H
	DB	0ffH
	DB	088H
	DB	088H
	DB	088H
	DB	0ffH
	DB	088H
	DB	088H
	DB	088H
	DB	0ffH
	DB	088H
	DB	088H
	DB	088H
	DB	0ffH
	DB	088H
	DB	088H
	DB	088H
	DB	0ffH
	DB	088H
	DB	088H
	DB	088H
	DB	0ffH
	DB	088H
	DB	088H
	DB	088H
	DB	0ffH
	DB	088H
	DB	088H
	DB	088H
	DB	0ffH
	DB	088H
	DB	088H
	DB	088H
	DB	0ffH
	DB	088H
	DB	088H
	DB	088H
	DB	0ffH
	DB	088H
	DB	088H
	DB	088H
	DB	0ffH
	DB	088H
	DB	088H
	DB	088H
	DB	0ffH
	DB	088H
	DB	088H
	DB	088H
	DB	0ffH
	DB	088H
	DB	088H
	DB	088H
	DB	0ffH
	DB	088H
	DB	088H
	DB	088H
	DB	0ffH
	DB	088H
	DB	088H
	DB	088H
	DB	0ffH
	DB	088H
	DB	088H
	DB	088H
	DB	0ffH
	DB	088H
	DB	088H
	DB	088H
	DB	0ffH
	DB	088H
	DB	088H
	DB	088H
	DB	0ffH
	DB	088H
	DB	088H
	DB	088H
	DB	0ffH
	DB	088H
	DB	088H
	DB	088H
	DB	0ffH
	DB	088H
	DB	088H
	DB	088H
	DB	0ffH
	DB	088H
	DB	088H
	DB	088H
	DB	0ffH
	DB	088H
	DB	088H
	DB	088H
	DB	0ffH
	DB	088H
	DB	088H
	DB	088H
	DB	0ffH
	DB	088H
	DB	088H
	DB	088H
	DB	0ffH
	DB	088H
	DB	088H
	DB	088H
	DB	0ffH
	DB	088H
	DB	088H
	DB	088H
	DB	0ffH
	DB	088H
	DB	088H
	DB	088H
	DB	0ffH
	DB	088H
	DB	088H
	DB	088H
	DB	0ffH
	DB	088H
	DB	088H
	DB	088H
	DB	0ffH
	DB	088H
	DB	088H
	DB	088H
	DB	0ffH
	DB	088H
	DB	088H
	DB	088H
	DB	0ffH
	DB	088H
	DB	088H
	DB	088H
	DB	0ffH
	DB	088H
	DB	088H
	DB	088H
	DB	0ffH
	DB	088H
	DB	088H
	DB	088H
	DB	0ffH
	DB	088H
	DB	088H
	DB	088H
	DB	0ffH
	DB	088H
	DB	088H
	DB	088H
	DB	0ffH
	DB	088H
	DB	08cH
	DB	088H
	DB	0ffH
	DB	090H
	DB	08cH
	DB	090H
	DB	0ffH
	DB	098H
	DB	098H
	DB	098H
	DB	0ffH
	DB	00H
	DB	00H
	DB	00H
	DB	0ffH
	DB	00H
	DB	00H
	DB	00H
	DB	0ffH
	DB	00H
	DB	00H
	DB	00H
	DB	0ffH
	DB	048H
	DB	048H
	DB	048H
	DB	0ffH
	DB	048H
	DB	048H
	DB	048H
	DB	0ffH
	DB	048H
	DB	048H
	DB	048H
	DB	0ffH
	DB	048H
	DB	048H
	DB	048H
	DB	0ffH
	DB	048H
	DB	04cH
	DB	048H
	DB	0ffH
	DB	048H
	DB	048H
	DB	048H
	DB	0ffH
	DB	00H
	DB	00H
	DB	00H
	DB	0ffH
	DB	00H
	DB	00H
	DB	00H
	DB	0ffH
	DB	00H
	DB	00H
	DB	00H
	DB	0ffH
	DB	030H
	DB	030H
	DB	030H
	DB	0ffH
	DB	030H
	DB	034H
	DB	030H
	DB	0ffH
	DB	038H
	DB	034H
	DB	038H
	DB	0ffH
	DB	038H
	DB	038H
	DB	038H
	DB	0ffH
	DB	038H
	DB	03cH
	DB	038H
	DB	0ffH
	DB	038H
	DB	038H
	DB	038H
	DB	0ffH
	DB	038H
	DB	038H
	DB	038H
	DB	0ffH
	DB	038H
	DB	03cH
	DB	038H
	DB	0ffH
	DB	038H
	DB	03cH
	DB	038H
	DB	0ffH
	DB	038H
	DB	038H
	DB	038H
	DB	0ffH
	DB	038H
	DB	03cH
	DB	038H
	DB	0ffH
	DB	038H
	DB	03cH
	DB	038H
	DB	0ffH
	DB	038H
	DB	038H
	DB	038H
	DB	0ffH
	DB	038H
	DB	03cH
	DB	038H
	DB	0ffH
	DB	038H
	DB	03cH
	DB	038H
	DB	0ffH
	DB	038H
	DB	03cH
	DB	038H
	DB	0ffH
	DB	038H
	DB	03cH
	DB	038H
	DB	0ffH
	DB	038H
	DB	038H
	DB	038H
	DB	0ffH
	DB	038H
	DB	03cH
	DB	038H
	DB	0ffH
	DB	038H
	DB	03cH
	DB	038H
	DB	0ffH
	DB	038H
	DB	03cH
	DB	038H
	DB	0ffH
	DB	038H
	DB	03cH
	DB	038H
	DB	0ffH
	DB	038H
	DB	038H
	DB	038H
	DB	0ffH
	DB	038H
	DB	03cH
	DB	038H
	DB	0ffH
	DB	038H
	DB	03cH
	DB	038H
	DB	0ffH
	DB	038H
	DB	03cH
	DB	038H
	DB	0ffH
	DB	038H
	DB	03cH
	DB	038H
	DB	0ffH
	DB	038H
	DB	038H
	DB	038H
	DB	0ffH
	DB	038H
	DB	03cH
	DB	038H
	DB	0ffH
	DB	038H
	DB	03cH
	DB	038H
	DB	0ffH
	DB	038H
	DB	03cH
	DB	038H
	DB	0ffH
	DB	038H
	DB	03cH
	DB	038H
	DB	0ffH
	DB	038H
	DB	038H
	DB	038H
	DB	0ffH
	DB	038H
	DB	03cH
	DB	038H
	DB	0ffH
	DB	038H
	DB	03cH
	DB	038H
	DB	0ffH
	DB	038H
	DB	03cH
	DB	038H
	DB	0ffH
	DB	038H
	DB	03cH
	DB	038H
	DB	0ffH
	DB	038H
	DB	038H
	DB	038H
	DB	0ffH
	DB	038H
	DB	03cH
	DB	038H
	DB	0ffH
	DB	038H
	DB	03cH
	DB	038H
	DB	0ffH
	DB	038H
	DB	03cH
	DB	038H
	DB	0ffH
	DB	038H
	DB	03cH
	DB	038H
	DB	0ffH
	DB	038H
	DB	038H
	DB	038H
	DB	0ffH
	DB	038H
	DB	03cH
	DB	038H
	DB	0ffH
	DB	038H
	DB	03cH
	DB	038H
	DB	0ffH
	DB	038H
	DB	03cH
	DB	038H
	DB	0ffH
	DB	038H
	DB	03cH
	DB	038H
	DB	0ffH
	DB	038H
	DB	038H
	DB	038H
	DB	0ffH
	DB	038H
	DB	03cH
	DB	038H
	DB	0ffH
	DB	038H
	DB	03cH
	DB	038H
	DB	0ffH
	DB	038H
	DB	038H
	DB	038H
	DB	0ffH
	DB	038H
	DB	03cH
	DB	038H
	DB	0ffH
	DB	038H
	DB	03cH
	DB	038H
	DB	0ffH
	DB	038H
	DB	038H
	DB	038H
	DB	0ffH
	DB	038H
	DB	038H
	DB	038H
	DB	0ffH
	DB	038H
	DB	034H
	DB	038H
	DB	0ffH
	DB	030H
	DB	030H
	DB	030H
	DB	0ffH
	DB	00H
	DB	00H
	DB	00H
	DB	0ffH
	DB	00H
	DB	00H
	DB	00H
	DB	0ffH
	DB	090H
	DB	090H
	DB	090H
	DB	0ffH
	DB	088H
	DB	088H
	DB	088H
	DB	0ffH
	DB	088H
	DB	088H
	DB	088H
	DB	0ffH
	DB	088H
	DB	088H
	DB	088H
	DB	0ffH
	DB	088H
	DB	088H
	DB	088H
	DB	0ffH
	DB	088H
	DB	088H
	DB	088H
	DB	0ffH
	DB	088H
	DB	088H
	DB	088H
	DB	0ffH
	DB	088H
	DB	088H
	DB	088H
	DB	0ffH
	DB	088H
	DB	088H
	DB	088H
	DB	0ffH
	DB	088H
	DB	088H
	DB	088H
	DB	0ffH
	DB	088H
	DB	088H
	DB	088H
	DB	0ffH
	DB	088H
	DB	088H
	DB	088H
	DB	0ffH
	DB	088H
	DB	088H
	DB	088H
	DB	0ffH
	DB	088H
	DB	088H
	DB	088H
	DB	0ffH
	DB	088H
	DB	088H
	DB	088H
	DB	0ffH
	DB	088H
	DB	088H
	DB	088H
	DB	0ffH
	DB	088H
	DB	088H
	DB	088H
	DB	0ffH
	DB	088H
	DB	088H
	DB	088H
	DB	0ffH
	DB	088H
	DB	088H
	DB	088H
	DB	0ffH
	DB	088H
	DB	088H
	DB	088H
	DB	0ffH
	DB	088H
	DB	088H
	DB	088H
	DB	0ffH
	DB	088H
	DB	088H
	DB	088H
	DB	0ffH
	DB	088H
	DB	088H
	DB	088H
	DB	0ffH
	DB	088H
	DB	088H
	DB	088H
	DB	0ffH
	DB	088H
	DB	088H
	DB	088H
	DB	0ffH
	DB	088H
	DB	088H
	DB	088H
	DB	0ffH
	DB	088H
	DB	088H
	DB	088H
	DB	0ffH
	DB	088H
	DB	088H
	DB	088H
	DB	0ffH
	DB	088H
	DB	088H
	DB	088H
	DB	0ffH
	DB	088H
	DB	088H
	DB	088H
	DB	0ffH
	DB	088H
	DB	088H
	DB	088H
	DB	0ffH
	DB	088H
	DB	088H
	DB	088H
	DB	0ffH
	DB	088H
	DB	088H
	DB	088H
	DB	0ffH
	DB	088H
	DB	088H
	DB	088H
	DB	0ffH
	DB	088H
	DB	088H
	DB	088H
	DB	0ffH
	DB	088H
	DB	088H
	DB	088H
	DB	0ffH
	DB	088H
	DB	088H
	DB	088H
	DB	0ffH
	DB	088H
	DB	088H
	DB	088H
	DB	0ffH
	DB	088H
	DB	088H
	DB	088H
	DB	0ffH
	DB	088H
	DB	088H
	DB	088H
	DB	0ffH
	DB	088H
	DB	088H
	DB	088H
	DB	0ffH
	DB	088H
	DB	088H
	DB	088H
	DB	0ffH
	DB	088H
	DB	088H
	DB	088H
	DB	0ffH
	DB	088H
	DB	088H
	DB	088H
	DB	0ffH
	DB	088H
	DB	088H
	DB	088H
	DB	0ffH
	DB	088H
	DB	088H
	DB	088H
	DB	0ffH
	DB	088H
	DB	088H
	DB	088H
	DB	0ffH
	DB	088H
	DB	088H
	DB	088H
	DB	0ffH
	DB	088H
	DB	088H
	DB	088H
	DB	0ffH
	DB	088H
	DB	088H
	DB	088H
	DB	0ffH
	DB	088H
	DB	088H
	DB	088H
	DB	0ffH
	DB	088H
	DB	088H
	DB	088H
	DB	0ffH
	DB	088H
	DB	088H
	DB	088H
	DB	0ffH
	DB	088H
	DB	088H
	DB	088H
	DB	0ffH
	DB	088H
	DB	088H
	DB	088H
	DB	0ffH
	DB	088H
	DB	08cH
	DB	088H
	DB	0ffH
	DB	090H
	DB	094H
	DB	090H
	DB	0ffH
	DB	00H
	DB	00H
	DB	00H
	DB	0ffH
	DB	00H
	DB	00H
	DB	00H
	DB	0ffH
	DB	00H
	DB	00H
	DB	00H
	DB	0ffH
	DB	048H
	DB	048H
	DB	048H
	DB	0ffH
	DB	048H
	DB	04cH
	DB	048H
	DB	0ffH
	DB	048H
	DB	048H
	DB	048H
	DB	0ffH
	DB	048H
	DB	04cH
	DB	048H
	DB	0ffH
	DB	050H
	DB	04cH
	DB	050H
	DB	0ffH
	DB	048H
	DB	04cH
	DB	048H
	DB	0ffH
	DB	00H
	DB	00H
	DB	00H
	DB	0ffH
	DB	00H
	DB	00H
	DB	00H
	DB	0ffH
	DB	00H
	DB	00H
	DB	00H
	DB	0ffH
	DB	030H
	DB	030H
	DB	030H
	DB	0ffH
	DB	038H
	DB	038H
	DB	038H
	DB	0ffH
	DB	038H
	DB	038H
	DB	038H
	DB	0ffH
	DB	038H
	DB	03cH
	DB	038H
	DB	0ffH
	DB	040H
	DB	03cH
	DB	040H
	DB	0ffH
	DB	038H
	DB	03cH
	DB	038H
	DB	0ffH
	DB	040H
	DB	03cH
	DB	040H
	DB	0ffH
	DB	040H
	DB	03cH
	DB	040H
	DB	0ffH
	DB	038H
	DB	03cH
	DB	038H
	DB	0ffH
	DB	040H
	DB	03cH
	DB	040H
	DB	0ffH
	DB	040H
	DB	03cH
	DB	040H
	DB	0ffH
	DB	038H
	DB	03cH
	DB	038H
	DB	0ffH
	DB	040H
	DB	03cH
	DB	040H
	DB	0ffH
	DB	040H
	DB	03cH
	DB	040H
	DB	0ffH
	DB	038H
	DB	03cH
	DB	038H
	DB	0ffH
	DB	040H
	DB	03cH
	DB	040H
	DB	0ffH
	DB	040H
	DB	03cH
	DB	040H
	DB	0ffH
	DB	038H
	DB	03cH
	DB	038H
	DB	0ffH
	DB	040H
	DB	03cH
	DB	040H
	DB	0ffH
	DB	040H
	DB	03cH
	DB	040H
	DB	0ffH
	DB	038H
	DB	03cH
	DB	038H
	DB	0ffH
	DB	040H
	DB	03cH
	DB	040H
	DB	0ffH
	DB	040H
	DB	03cH
	DB	040H
	DB	0ffH
	DB	038H
	DB	03cH
	DB	038H
	DB	0ffH
	DB	040H
	DB	03cH
	DB	040H
	DB	0ffH
	DB	040H
	DB	03cH
	DB	040H
	DB	0ffH
	DB	038H
	DB	03cH
	DB	038H
	DB	0ffH
	DB	040H
	DB	03cH
	DB	040H
	DB	0ffH
	DB	040H
	DB	03cH
	DB	040H
	DB	0ffH
	DB	038H
	DB	03cH
	DB	038H
	DB	0ffH
	DB	040H
	DB	03cH
	DB	040H
	DB	0ffH
	DB	040H
	DB	03cH
	DB	040H
	DB	0ffH
	DB	038H
	DB	03cH
	DB	038H
	DB	0ffH
	DB	040H
	DB	03cH
	DB	040H
	DB	0ffH
	DB	040H
	DB	03cH
	DB	040H
	DB	0ffH
	DB	038H
	DB	03cH
	DB	038H
	DB	0ffH
	DB	040H
	DB	03cH
	DB	040H
	DB	0ffH
	DB	040H
	DB	03cH
	DB	040H
	DB	0ffH
	DB	038H
	DB	03cH
	DB	038H
	DB	0ffH
	DB	040H
	DB	03cH
	DB	040H
	DB	0ffH
	DB	040H
	DB	03cH
	DB	040H
	DB	0ffH
	DB	038H
	DB	03cH
	DB	038H
	DB	0ffH
	DB	040H
	DB	03cH
	DB	040H
	DB	0ffH
	DB	040H
	DB	03cH
	DB	040H
	DB	0ffH
	DB	038H
	DB	03cH
	DB	038H
	DB	0ffH
	DB	040H
	DB	03cH
	DB	040H
	DB	0ffH
	DB	040H
	DB	03cH
	DB	040H
	DB	0ffH
	DB	038H
	DB	03cH
	DB	038H
	DB	0ffH
	DB	040H
	DB	03cH
	DB	040H
	DB	0ffH
	DB	040H
	DB	03cH
	DB	040H
	DB	0ffH
	DB	038H
	DB	03cH
	DB	038H
	DB	0ffH
	DB	040H
	DB	03cH
	DB	040H
	DB	0ffH
	DB	040H
	DB	03cH
	DB	040H
	DB	0ffH
	DB	038H
	DB	03cH
	DB	038H
	DB	0ffH
	DB	038H
	DB	038H
	DB	038H
	DB	0ffH
	DB	038H
	DB	038H
	DB	038H
	DB	0ffH
	DB	030H
	DB	030H
	DB	030H
	DB	0ffH
	DB	00H
	DB	00H
	DB	00H
	DB	0ffH
	DB	00H
	DB	00H
	DB	00H
	DB	0ffH
	DB	090H
	DB	090H
	DB	090H
	DB	0ffH
	DB	088H
	DB	088H
	DB	088H
	DB	0ffH
	DB	088H
	DB	084H
	DB	088H
	DB	0ffH
	DB	080H
	DB	084H
	DB	080H
	DB	0ffH
	DB	088H
	DB	084H
	DB	088H
	DB	0ffH
	DB	088H
	DB	084H
	DB	088H
	DB	0ffH
	DB	080H
	DB	084H
	DB	080H
	DB	0ffH
	DB	088H
	DB	084H
	DB	088H
	DB	0ffH
	DB	088H
	DB	084H
	DB	088H
	DB	0ffH
	DB	080H
	DB	084H
	DB	080H
	DB	0ffH
	DB	088H
	DB	084H
	DB	088H
	DB	0ffH
	DB	088H
	DB	084H
	DB	088H
	DB	0ffH
	DB	080H
	DB	084H
	DB	080H
	DB	0ffH
	DB	088H
	DB	084H
	DB	088H
	DB	0ffH
	DB	088H
	DB	084H
	DB	088H
	DB	0ffH
	DB	080H
	DB	084H
	DB	080H
	DB	0ffH
	DB	088H
	DB	084H
	DB	088H
	DB	0ffH
	DB	088H
	DB	084H
	DB	088H
	DB	0ffH
	DB	080H
	DB	084H
	DB	080H
	DB	0ffH
	DB	080H
	DB	084H
	DB	080H
	DB	0ffH
	DB	088H
	DB	084H
	DB	088H
	DB	0ffH
	DB	080H
	DB	084H
	DB	080H
	DB	0ffH
	DB	080H
	DB	080H
	DB	080H
	DB	0ffH
	DB	080H
	DB	080H
	DB	080H
	DB	0ffH
	DB	080H
	DB	084H
	DB	080H
	DB	0ffH
	DB	088H
	DB	084H
	DB	088H
	DB	0ffH
	DB	080H
	DB	084H
	DB	080H
	DB	0ffH
	DB	080H
	DB	084H
	DB	080H
	DB	0ffH
	DB	088H
	DB	084H
	DB	088H
	DB	0ffH
	DB	080H
	DB	084H
	DB	080H
	DB	0ffH
	DB	080H
	DB	084H
	DB	080H
	DB	0ffH
	DB	088H
	DB	084H
	DB	088H
	DB	0ffH
	DB	080H
	DB	084H
	DB	080H
	DB	0ffH
	DB	080H
	DB	084H
	DB	080H
	DB	0ffH
	DB	088H
	DB	084H
	DB	088H
	DB	0ffH
	DB	080H
	DB	084H
	DB	080H
	DB	0ffH
	DB	080H
	DB	084H
	DB	080H
	DB	0ffH
	DB	088H
	DB	084H
	DB	088H
	DB	0ffH
	DB	080H
	DB	084H
	DB	080H
	DB	0ffH
	DB	080H
	DB	084H
	DB	080H
	DB	0ffH
	DB	088H
	DB	084H
	DB	088H
	DB	0ffH
	DB	088H
	DB	084H
	DB	088H
	DB	0ffH
	DB	080H
	DB	084H
	DB	080H
	DB	0ffH
	DB	088H
	DB	084H
	DB	088H
	DB	0ffH
	DB	088H
	DB	084H
	DB	088H
	DB	0ffH
	DB	080H
	DB	084H
	DB	080H
	DB	0ffH
	DB	088H
	DB	084H
	DB	088H
	DB	0ffH
	DB	088H
	DB	084H
	DB	088H
	DB	0ffH
	DB	080H
	DB	084H
	DB	080H
	DB	0ffH
	DB	088H
	DB	084H
	DB	088H
	DB	0ffH
	DB	088H
	DB	084H
	DB	088H
	DB	0ffH
	DB	080H
	DB	084H
	DB	080H
	DB	0ffH
	DB	080H
	DB	084H
	DB	080H
	DB	0ffH
	DB	088H
	DB	084H
	DB	088H
	DB	0ffH
	DB	088H
	DB	084H
	DB	088H
	DB	0ffH
	DB	088H
	DB	088H
	DB	088H
	DB	0ffH
	DB	090H
	DB	090H
	DB	090H
	DB	0ffH
	DB	00H
	DB	00H
	DB	00H
	DB	0ffH
	DB	00H
	DB	00H
	DB	00H
	DB	0ffH
	DB	00H
	DB	00H
	DB	00H
	DB	0ffH
	DB	048H
	DB	04cH
	DB	048H
	DB	0ffH
	DB	050H
	DB	04cH
	DB	050H
	DB	0ffH
	DB	048H
	DB	04cH
	DB	048H
	DB	0ffH
	DB	050H
	DB	04cH
	DB	050H
	DB	0ffH
	DB	050H
	DB	050H
	DB	050H
	DB	0ffH
	DB	050H
	DB	04cH
	DB	050H
	DB	0ffH
	DB	00H
	DB	00H
	DB	00H
	DB	0ffH
	DB	00H
	DB	00H
	DB	00H
	DB	0ffH
	DB	00H
	DB	00H
	DB	00H
	DB	0ffH
	DB	030H
	DB	034H
	DB	030H
	DB	0ffH
	DB	038H
	DB	038H
	DB	038H
	DB	0ffH
	DB	040H
	DB	03cH
	DB	040H
	DB	0ffH
	DB	040H
	DB	03cH
	DB	040H
	DB	0ffH
	DB	040H
	DB	03cH
	DB	040H
	DB	0ffH
	DB	040H
	DB	03cH
	DB	040H
	DB	0ffH
	DB	038H
	DB	03cH
	DB	038H
	DB	0ffH
	DB	040H
	DB	03cH
	DB	040H
	DB	0ffH
	DB	040H
	DB	03cH
	DB	040H
	DB	0ffH
	DB	040H
	DB	03cH
	DB	040H
	DB	0ffH
	DB	040H
	DB	03cH
	DB	040H
	DB	0ffH
	DB	038H
	DB	03cH
	DB	038H
	DB	0ffH
	DB	040H
	DB	03cH
	DB	040H
	DB	0ffH
	DB	040H
	DB	03cH
	DB	040H
	DB	0ffH
	DB	040H
	DB	03cH
	DB	040H
	DB	0ffH
	DB	040H
	DB	03cH
	DB	040H
	DB	0ffH
	DB	040H
	DB	03cH
	DB	040H
	DB	0ffH
	DB	040H
	DB	03cH
	DB	040H
	DB	0ffH
	DB	040H
	DB	03cH
	DB	040H
	DB	0ffH
	DB	040H
	DB	03cH
	DB	040H
	DB	0ffH
	DB	040H
	DB	03cH
	DB	040H
	DB	0ffH
	DB	040H
	DB	03cH
	DB	040H
	DB	0ffH
	DB	040H
	DB	03cH
	DB	040H
	DB	0ffH
	DB	040H
	DB	03cH
	DB	040H
	DB	0ffH
	DB	040H
	DB	03cH
	DB	040H
	DB	0ffH
	DB	040H
	DB	03cH
	DB	040H
	DB	0ffH
	DB	040H
	DB	03cH
	DB	040H
	DB	0ffH
	DB	040H
	DB	03cH
	DB	040H
	DB	0ffH
	DB	040H
	DB	03cH
	DB	040H
	DB	0ffH
	DB	040H
	DB	03cH
	DB	040H
	DB	0ffH
	DB	040H
	DB	03cH
	DB	040H
	DB	0ffH
	DB	040H
	DB	03cH
	DB	040H
	DB	0ffH
	DB	040H
	DB	03cH
	DB	040H
	DB	0ffH
	DB	040H
	DB	03cH
	DB	040H
	DB	0ffH
	DB	040H
	DB	03cH
	DB	040H
	DB	0ffH
	DB	040H
	DB	03cH
	DB	040H
	DB	0ffH
	DB	040H
	DB	03cH
	DB	040H
	DB	0ffH
	DB	040H
	DB	03cH
	DB	040H
	DB	0ffH
	DB	040H
	DB	03cH
	DB	040H
	DB	0ffH
	DB	040H
	DB	03cH
	DB	040H
	DB	0ffH
	DB	040H
	DB	03cH
	DB	040H
	DB	0ffH
	DB	040H
	DB	03cH
	DB	040H
	DB	0ffH
	DB	040H
	DB	03cH
	DB	040H
	DB	0ffH
	DB	040H
	DB	03cH
	DB	040H
	DB	0ffH
	DB	040H
	DB	03cH
	DB	040H
	DB	0ffH
	DB	040H
	DB	03cH
	DB	040H
	DB	0ffH
	DB	040H
	DB	03cH
	DB	040H
	DB	0ffH
	DB	040H
	DB	03cH
	DB	040H
	DB	0ffH
	DB	040H
	DB	03cH
	DB	040H
	DB	0ffH
	DB	040H
	DB	03cH
	DB	040H
	DB	0ffH
	DB	038H
	DB	03cH
	DB	038H
	DB	0ffH
	DB	040H
	DB	03cH
	DB	040H
	DB	0ffH
	DB	040H
	DB	03cH
	DB	040H
	DB	0ffH
	DB	040H
	DB	03cH
	DB	040H
	DB	0ffH
	DB	038H
	DB	03cH
	DB	038H
	DB	0ffH
	DB	038H
	DB	038H
	DB	038H
	DB	0ffH
	DB	030H
	DB	034H
	DB	030H
	DB	0ffH
	DB	00H
	DB	00H
	DB	00H
	DB	0ffH
	DB	00H
	DB	00H
	DB	00H
	DB	0ffH
	DB	090H
	DB	090H
	DB	090H
	DB	0ffH
	DB	088H
	DB	084H
	DB	088H
	DB	0ffH
	DB	080H
	DB	084H
	DB	080H
	DB	0ffH
	DB	080H
	DB	080H
	DB	080H
	DB	0ffH
	DB	080H
	DB	080H
	DB	080H
	DB	0ffH
	DB	080H
	DB	080H
	DB	080H
	DB	0ffH
	DB	080H
	DB	080H
	DB	080H
	DB	0ffH
	DB	080H
	DB	080H
	DB	080H
	DB	0ffH
	DB	080H
	DB	080H
	DB	080H
	DB	0ffH
	DB	080H
	DB	080H
	DB	080H
	DB	0ffH
	DB	080H
	DB	080H
	DB	080H
	DB	0ffH
	DB	080H
	DB	080H
	DB	080H
	DB	0ffH
	DB	080H
	DB	080H
	DB	080H
	DB	0ffH
	DB	080H
	DB	080H
	DB	080H
	DB	0ffH
	DB	080H
	DB	080H
	DB	080H
	DB	0ffH
	DB	080H
	DB	080H
	DB	080H
	DB	0ffH
	DB	080H
	DB	080H
	DB	080H
	DB	0ffH
	DB	080H
	DB	080H
	DB	080H
	DB	0ffH
	DB	080H
	DB	080H
	DB	080H
	DB	0ffH
	DB	080H
	DB	080H
	DB	080H
	DB	0ffH
	DB	080H
	DB	07cH
	DB	080H
	DB	0ffH
	DB	080H
	DB	07cH
	DB	080H
	DB	0ffH
	DB	080H
	DB	07cH
	DB	080H
	DB	0ffH
	DB	080H
	DB	07cH
	DB	080H
	DB	0ffH
	DB	080H
	DB	080H
	DB	080H
	DB	0ffH
	DB	080H
	DB	080H
	DB	080H
	DB	0ffH
	DB	080H
	DB	080H
	DB	080H
	DB	0ffH
	DB	080H
	DB	080H
	DB	080H
	DB	0ffH
	DB	080H
	DB	080H
	DB	080H
	DB	0ffH
	DB	080H
	DB	080H
	DB	080H
	DB	0ffH
	DB	080H
	DB	07cH
	DB	080H
	DB	0ffH
	DB	080H
	DB	07cH
	DB	080H
	DB	0ffH
	DB	080H
	DB	07cH
	DB	080H
	DB	0ffH
	DB	080H
	DB	080H
	DB	080H
	DB	0ffH
	DB	080H
	DB	080H
	DB	080H
	DB	0ffH
	DB	080H
	DB	080H
	DB	080H
	DB	0ffH
	DB	080H
	DB	080H
	DB	080H
	DB	0ffH
	DB	080H
	DB	080H
	DB	080H
	DB	0ffH
	DB	080H
	DB	080H
	DB	080H
	DB	0ffH
	DB	080H
	DB	080H
	DB	080H
	DB	0ffH
	DB	080H
	DB	080H
	DB	080H
	DB	0ffH
	DB	080H
	DB	080H
	DB	080H
	DB	0ffH
	DB	080H
	DB	080H
	DB	080H
	DB	0ffH
	DB	080H
	DB	080H
	DB	080H
	DB	0ffH
	DB	080H
	DB	080H
	DB	080H
	DB	0ffH
	DB	080H
	DB	080H
	DB	080H
	DB	0ffH
	DB	080H
	DB	080H
	DB	080H
	DB	0ffH
	DB	080H
	DB	080H
	DB	080H
	DB	0ffH
	DB	080H
	DB	080H
	DB	080H
	DB	0ffH
	DB	080H
	DB	080H
	DB	080H
	DB	0ffH
	DB	080H
	DB	080H
	DB	080H
	DB	0ffH
	DB	080H
	DB	080H
	DB	080H
	DB	0ffH
	DB	080H
	DB	080H
	DB	080H
	DB	0ffH
	DB	080H
	DB	080H
	DB	080H
	DB	0ffH
	DB	080H
	DB	084H
	DB	080H
	DB	0ffH
	DB	088H
	DB	084H
	DB	088H
	DB	0ffH
	DB	090H
	DB	08cH
	DB	090H
	DB	0ffH
	DB	00H
	DB	00H
	DB	00H
	DB	0ffH
	DB	00H
	DB	00H
	DB	00H
	DB	0ffH
	DB	00H
	DB	00H
	DB	00H
	DB	0ffH
	DB	050H
	DB	04cH
	DB	050H
	DB	0ffH
	DB	050H
	DB	050H
	DB	050H
	DB	0ffH
	DB	050H
	DB	04cH
	DB	050H
	DB	0ffH
	DB	050H
	DB	050H
	DB	050H
	DB	0ffH
	DB	050H
	DB	050H
	DB	050H
	DB	0ffH
	DB	050H
	DB	050H
	DB	050H
	DB	0ffH
	DB	00H
	DB	00H
	DB	00H
	DB	0ffH
	DB	00H
	DB	00H
	DB	00H
	DB	0ffH
	DB	00H
	DB	00H
	DB	00H
	DB	0ffH
	DB	038H
	DB	034H
	DB	038H
	DB	0ffH
	DB	038H
	DB	038H
	DB	038H
	DB	0ffH
	DB	038H
	DB	03cH
	DB	038H
	DB	0ffH
	DB	040H
	DB	040H
	DB	040H
	DB	0ffH
	DB	040H
	DB	040H
	DB	040H
	DB	0ffH
	DB	040H
	DB	040H
	DB	040H
	DB	0ffH
	DB	040H
	DB	040H
	DB	040H
	DB	0ffH
	DB	038H
	DB	040H
	DB	038H
	DB	0ffH
	DB	040H
	DB	03cH
	DB	040H
	DB	0ffH
	DB	040H
	DB	040H
	DB	040H
	DB	0ffH
	DB	038H
	DB	040H
	DB	038H
	DB	0ffH
	DB	040H
	DB	03cH
	DB	040H
	DB	0ffH
	DB	040H
	DB	040H
	DB	040H
	DB	0ffH
	DB	038H
	DB	040H
	DB	038H
	DB	0ffH
	DB	040H
	DB	03cH
	DB	040H
	DB	0ffH
	DB	038H
	DB	040H
	DB	038H
	DB	0ffH
	DB	040H
	DB	040H
	DB	040H
	DB	0ffH
	DB	038H
	DB	03cH
	DB	038H
	DB	0ffH
	DB	038H
	DB	040H
	DB	038H
	DB	0ffH
	DB	040H
	DB	044H
	DB	040H
	DB	0ffH
	DB	040H
	DB	044H
	DB	040H
	DB	0ffH
	DB	040H
	DB	040H
	DB	040H
	DB	0ffH
	DB	038H
	DB	03cH
	DB	038H
	DB	0ffH
	DB	040H
	DB	040H
	DB	040H
	DB	0ffH
	DB	038H
	DB	040H
	DB	038H
	DB	0ffH
	DB	038H
	DB	03cH
	DB	038H
	DB	0ffH
	DB	040H
	DB	040H
	DB	040H
	DB	0ffH
	DB	038H
	DB	040H
	DB	038H
	DB	0ffH
	DB	040H
	DB	03cH
	DB	040H
	DB	0ffH
	DB	038H
	DB	040H
	DB	038H
	DB	0ffH
	DB	038H
	DB	03cH
	DB	038H
	DB	0ffH
	DB	040H
	DB	040H
	DB	040H
	DB	0ffH
	DB	038H
	DB	040H
	DB	038H
	DB	0ffH
	DB	040H
	DB	03cH
	DB	040H
	DB	0ffH
	DB	038H
	DB	040H
	DB	038H
	DB	0ffH
	DB	040H
	DB	03cH
	DB	040H
	DB	0ffH
	DB	038H
	DB	040H
	DB	038H
	DB	0ffH
	DB	038H
	DB	040H
	DB	038H
	DB	0ffH
	DB	040H
	DB	03cH
	DB	040H
	DB	0ffH
	DB	038H
	DB	040H
	DB	038H
	DB	0ffH
	DB	040H
	DB	03cH
	DB	040H
	DB	0ffH
	DB	038H
	DB	040H
	DB	038H
	DB	0ffH
	DB	038H
	DB	040H
	DB	038H
	DB	0ffH
	DB	040H
	DB	03cH
	DB	040H
	DB	0ffH
	DB	038H
	DB	040H
	DB	038H
	DB	0ffH
	DB	040H
	DB	040H
	DB	040H
	DB	0ffH
	DB	038H
	DB	03cH
	DB	038H
	DB	0ffH
	DB	040H
	DB	040H
	DB	040H
	DB	0ffH
	DB	040H
	DB	040H
	DB	040H
	DB	0ffH
	DB	038H
	DB	03cH
	DB	038H
	DB	0ffH
	DB	040H
	DB	040H
	DB	040H
	DB	0ffH
	DB	040H
	DB	040H
	DB	040H
	DB	0ffH
	DB	040H
	DB	03cH
	DB	040H
	DB	0ffH
	DB	040H
	DB	040H
	DB	040H
	DB	0ffH
	DB	040H
	DB	03cH
	DB	040H
	DB	0ffH
	DB	038H
	DB	03cH
	DB	038H
	DB	0ffH
	DB	038H
	DB	034H
	DB	038H
	DB	0ffH
	DB	00H
	DB	00H
	DB	00H
	DB	0ffH
	DB	00H
	DB	00H
	DB	00H
	DB	0ffH
	DB	088H
	DB	08cH
	DB	088H
	DB	0ffH
	DB	080H
	DB	084H
	DB	080H
	DB	0ffH
	DB	080H
	DB	080H
	DB	080H
	DB	0ffH
	DB	080H
	DB	080H
	DB	080H
	DB	0ffH
	DB	080H
	DB	080H
	DB	080H
	DB	0ffH
	DB	080H
	DB	080H
	DB	080H
	DB	0ffH
	DB	080H
	DB	080H
	DB	080H
	DB	0ffH
	DB	080H
	DB	080H
	DB	080H
	DB	0ffH
	DB	080H
	DB	080H
	DB	080H
	DB	0ffH
	DB	080H
	DB	080H
	DB	080H
	DB	0ffH
	DB	080H
	DB	080H
	DB	080H
	DB	0ffH
	DB	080H
	DB	080H
	DB	080H
	DB	0ffH
	DB	080H
	DB	080H
	DB	080H
	DB	0ffH
	DB	080H
	DB	080H
	DB	080H
	DB	0ffH
	DB	080H
	DB	080H
	DB	080H
	DB	0ffH
	DB	080H
	DB	080H
	DB	080H
	DB	0ffH
	DB	080H
	DB	080H
	DB	080H
	DB	0ffH
	DB	080H
	DB	07cH
	DB	080H
	DB	0ffH
	DB	080H
	DB	07cH
	DB	080H
	DB	0ffH
	DB	078H
	DB	07cH
	DB	078H
	DB	0ffH
	DB	078H
	DB	07cH
	DB	078H
	DB	0ffH
	DB	078H
	DB	078H
	DB	078H
	DB	0ffH
	DB	078H
	DB	074H
	DB	078H
	DB	0ffH
	DB	070H
	DB	074H
	DB	070H
	DB	0ffH
	DB	078H
	DB	078H
	DB	078H
	DB	0ffH
	DB	078H
	DB	078H
	DB	078H
	DB	0ffH
	DB	080H
	DB	07cH
	DB	080H
	DB	0ffH
	DB	080H
	DB	07cH
	DB	080H
	DB	0ffH
	DB	080H
	DB	07cH
	DB	080H
	DB	0ffH
	DB	078H
	DB	07cH
	DB	078H
	DB	0ffH
	DB	078H
	DB	07cH
	DB	078H
	DB	0ffH
	DB	078H
	DB	078H
	DB	078H
	DB	0ffH
	DB	078H
	DB	078H
	DB	078H
	DB	0ffH
	DB	078H
	DB	07cH
	DB	078H
	DB	0ffH
	DB	080H
	DB	07cH
	DB	080H
	DB	0ffH
	DB	080H
	DB	07cH
	DB	080H
	DB	0ffH
	DB	078H
	DB	07cH
	DB	078H
	DB	0ffH
	DB	080H
	DB	07cH
	DB	080H
	DB	0ffH
	DB	080H
	DB	07cH
	DB	080H
	DB	0ffH
	DB	078H
	DB	07cH
	DB	078H
	DB	0ffH
	DB	080H
	DB	07cH
	DB	080H
	DB	0ffH
	DB	080H
	DB	080H
	DB	080H
	DB	0ffH
	DB	080H
	DB	080H
	DB	080H
	DB	0ffH
	DB	080H
	DB	080H
	DB	080H
	DB	0ffH
	DB	080H
	DB	080H
	DB	080H
	DB	0ffH
	DB	080H
	DB	080H
	DB	080H
	DB	0ffH
	DB	080H
	DB	080H
	DB	080H
	DB	0ffH
	DB	080H
	DB	080H
	DB	080H
	DB	0ffH
	DB	080H
	DB	080H
	DB	080H
	DB	0ffH
	DB	080H
	DB	080H
	DB	080H
	DB	0ffH
	DB	080H
	DB	080H
	DB	080H
	DB	0ffH
	DB	080H
	DB	080H
	DB	080H
	DB	0ffH
	DB	080H
	DB	080H
	DB	080H
	DB	0ffH
	DB	080H
	DB	080H
	DB	080H
	DB	0ffH
	DB	080H
	DB	080H
	DB	080H
	DB	0ffH
	DB	080H
	DB	084H
	DB	080H
	DB	0ffH
	DB	088H
	DB	08cH
	DB	088H
	DB	0ffH
	DB	00H
	DB	00H
	DB	00H
	DB	0ffH
	DB	00H
	DB	00H
	DB	00H
	DB	0ffH
	DB	00H
	DB	00H
	DB	00H
	DB	0ffH
	DB	050H
	DB	050H
	DB	050H
	DB	0ffH
	DB	050H
	DB	054H
	DB	050H
	DB	0ffH
	DB	050H
	DB	050H
	DB	050H
	DB	0ffH
	DB	050H
	DB	050H
	DB	050H
	DB	0ffH
	DB	050H
	DB	054H
	DB	050H
	DB	0ffH
	DB	050H
	DB	054H
	DB	050H
	DB	0ffH
	DB	00H
	DB	00H
	DB	00H
	DB	0ffH
	DB	00H
	DB	00H
	DB	00H
	DB	0ffH
	DB	00H
	DB	00H
	DB	00H
	DB	0ffH
	DB	038H
	DB	038H
	DB	038H
	DB	0ffH
	DB	038H
	DB	03cH
	DB	038H
	DB	0ffH
	DB	040H
	DB	040H
	DB	040H
	DB	0ffH
	DB	040H
	DB	040H
	DB	040H
	DB	0ffH
	DB	040H
	DB	040H
	DB	040H
	DB	0ffH
	DB	040H
	DB	040H
	DB	040H
	DB	0ffH
	DB	040H
	DB	040H
	DB	040H
	DB	0ffH
	DB	040H
	DB	040H
	DB	040H
	DB	0ffH
	DB	040H
	DB	040H
	DB	040H
	DB	0ffH
	DB	040H
	DB	040H
	DB	040H
	DB	0ffH
	DB	040H
	DB	040H
	DB	040H
	DB	0ffH
	DB	040H
	DB	040H
	DB	040H
	DB	0ffH
	DB	040H
	DB	040H
	DB	040H
	DB	0ffH
	DB	040H
	DB	040H
	DB	040H
	DB	0ffH
	DB	040H
	DB	040H
	DB	040H
	DB	0ffH
	DB	040H
	DB	040H
	DB	040H
	DB	0ffH
	DB	040H
	DB	044H
	DB	040H
	DB	0ffH
	DB	078H
	DB	074H
	DB	078H
	DB	0ffH
	DB	098H
	DB	094H
	DB	098H
	DB	0ffH
	DB	098H
	DB	09cH
	DB	098H
	DB	0ffH
	DB	098H
	DB	09cH
	DB	098H
	DB	0ffH
	DB	090H
	DB	090H
	DB	090H
	DB	0ffH
	DB	068H
	DB	068H
	DB	068H
	DB	0ffH
	DB	040H
	DB	040H
	DB	040H
	DB	0ffH
	DB	040H
	DB	040H
	DB	040H
	DB	0ffH
	DB	040H
	DB	040H
	DB	040H
	DB	0ffH
	DB	040H
	DB	040H
	DB	040H
	DB	0ffH
	DB	080H
	DB	080H
	DB	080H
	DB	0ffH
	DB	098H
	DB	09cH
	DB	098H
	DB	0ffH
	DB	098H
	DB	09cH
	DB	098H
	DB	0ffH
	DB	098H
	DB	09cH
	DB	098H
	DB	0ffH
	DB	098H
	DB	09cH
	DB	098H
	DB	0ffH
	DB	098H
	DB	09cH
	DB	098H
	DB	0ffH
	DB	040H
	DB	040H
	DB	040H
	DB	0ffH
	DB	040H
	DB	040H
	DB	040H
	DB	0ffH
	DB	060H
	DB	064H
	DB	060H
	DB	0ffH
	DB	098H
	DB	09cH
	DB	098H
	DB	0ffH
	DB	098H
	DB	09cH
	DB	098H
	DB	0ffH
	DB	098H
	DB	09cH
	DB	098H
	DB	0ffH
	DB	098H
	DB	09cH
	DB	098H
	DB	0ffH
	DB	098H
	DB	09cH
	DB	098H
	DB	0ffH
	DB	060H
	DB	05cH
	DB	060H
	DB	0ffH
	DB	040H
	DB	040H
	DB	040H
	DB	0ffH
	DB	040H
	DB	040H
	DB	040H
	DB	0ffH
	DB	040H
	DB	040H
	DB	040H
	DB	0ffH
	DB	040H
	DB	040H
	DB	040H
	DB	0ffH
	DB	040H
	DB	040H
	DB	040H
	DB	0ffH
	DB	040H
	DB	040H
	DB	040H
	DB	0ffH
	DB	040H
	DB	040H
	DB	040H
	DB	0ffH
	DB	040H
	DB	040H
	DB	040H
	DB	0ffH
	DB	040H
	DB	040H
	DB	040H
	DB	0ffH
	DB	040H
	DB	040H
	DB	040H
	DB	0ffH
	DB	040H
	DB	040H
	DB	040H
	DB	0ffH
	DB	040H
	DB	040H
	DB	040H
	DB	0ffH
	DB	040H
	DB	03cH
	DB	040H
	DB	0ffH
	DB	038H
	DB	03cH
	DB	038H
	DB	0ffH
	DB	038H
	DB	034H
	DB	038H
	DB	0ffH
	DB	00H
	DB	00H
	DB	00H
	DB	0ffH
	DB	00H
	DB	00H
	DB	00H
	DB	0ffH
	DB	088H
	DB	088H
	DB	088H
	DB	0ffH
	DB	080H
	DB	080H
	DB	080H
	DB	0ffH
	DB	080H
	DB	080H
	DB	080H
	DB	0ffH
	DB	080H
	DB	07cH
	DB	080H
	DB	0ffH
	DB	078H
	DB	07cH
	DB	078H
	DB	0ffH
	DB	080H
	DB	07cH
	DB	080H
	DB	0ffH
	DB	078H
	DB	07cH
	DB	078H
	DB	0ffH
	DB	080H
	DB	07cH
	DB	080H
	DB	0ffH
	DB	078H
	DB	07cH
	DB	078H
	DB	0ffH
	DB	080H
	DB	07cH
	DB	080H
	DB	0ffH
	DB	078H
	DB	07cH
	DB	078H
	DB	0ffH
	DB	080H
	DB	07cH
	DB	080H
	DB	0ffH
	DB	078H
	DB	07cH
	DB	078H
	DB	0ffH
	DB	080H
	DB	07cH
	DB	080H
	DB	0ffH
	DB	078H
	DB	07cH
	DB	078H
	DB	0ffH
	DB	080H
	DB	07cH
	DB	080H
	DB	0ffH
	DB	078H
	DB	07cH
	DB	078H
	DB	0ffH
	DB	078H
	DB	07cH
	DB	078H
	DB	0ffH
	DB	078H
	DB	078H
	DB	078H
	DB	0ffH
	DB	070H
	DB	070H
	DB	070H
	DB	0ffH
	DB	048H
	DB	048H
	DB	048H
	DB	0ffH
	DB	030H
	DB	030H
	DB	030H
	DB	0ffH
	DB	028H
	DB	02cH
	DB	028H
	DB	0ffH
	DB	028H
	DB	02cH
	DB	028H
	DB	0ffH
	DB	038H
	DB	034H
	DB	038H
	DB	0ffH
	DB	050H
	DB	050H
	DB	050H
	DB	0ffH
	DB	078H
	DB	074H
	DB	078H
	DB	0ffH
	DB	078H
	DB	078H
	DB	078H
	DB	0ffH
	DB	078H
	DB	078H
	DB	078H
	DB	0ffH
	DB	078H
	DB	078H
	DB	078H
	DB	0ffH
	DB	040H
	DB	040H
	DB	040H
	DB	0ffH
	DB	028H
	DB	02cH
	DB	028H
	DB	0ffH
	DB	028H
	DB	028H
	DB	028H
	DB	0ffH
	DB	068H
	DB	068H
	DB	068H
	DB	0ffH
	DB	078H
	DB	078H
	DB	078H
	DB	0ffH
	DB	078H
	DB	074H
	DB	078H
	DB	0ffH
	DB	078H
	DB	078H
	DB	078H
	DB	0ffH
	DB	038H
	DB	038H
	DB	038H
	DB	0ffH
	DB	028H
	DB	028H
	DB	028H
	DB	0ffH
	DB	070H
	DB	06cH
	DB	070H
	DB	0ffH
	DB	078H
	DB	078H
	DB	078H
	DB	0ffH
	DB	078H
	DB	07cH
	DB	078H
	DB	0ffH
	DB	080H
	DB	07cH
	DB	080H
	DB	0ffH
	DB	078H
	DB	07cH
	DB	078H
	DB	0ffH
	DB	080H
	DB	07cH
	DB	080H
	DB	0ffH
	DB	078H
	DB	07cH
	DB	078H
	DB	0ffH
	DB	080H
	DB	07cH
	DB	080H
	DB	0ffH
	DB	078H
	DB	07cH
	DB	078H
	DB	0ffH
	DB	080H
	DB	07cH
	DB	080H
	DB	0ffH
	DB	080H
	DB	07cH
	DB	080H
	DB	0ffH
	DB	078H
	DB	07cH
	DB	078H
	DB	0ffH
	DB	080H
	DB	07cH
	DB	080H
	DB	0ffH
	DB	080H
	DB	07cH
	DB	080H
	DB	0ffH
	DB	078H
	DB	07cH
	DB	078H
	DB	0ffH
	DB	080H
	DB	080H
	DB	080H
	DB	0ffH
	DB	080H
	DB	080H
	DB	080H
	DB	0ffH
	DB	088H
	DB	088H
	DB	088H
	DB	0ffH
	DB	00H
	DB	00H
	DB	00H
	DB	0ffH
	DB	00H
	DB	00H
	DB	00H
	DB	0ffH
	DB	00H
	DB	00H
	DB	00H
	DB	0ffH
	DB	050H
	DB	050H
	DB	050H
	DB	0ffH
	DB	050H
	DB	054H
	DB	050H
	DB	0ffH
	DB	050H
	DB	050H
	DB	050H
	DB	0ffH
	DB	050H
	DB	054H
	DB	050H
	DB	0ffH
	DB	058H
	DB	058H
	DB	058H
	DB	0ffH
	DB	058H
	DB	054H
	DB	058H
	DB	0ffH
	DB	00H
	DB	00H
	DB	00H
	DB	0ffH
	DB	00H
	DB	00H
	DB	00H
	DB	0ffH
	DB	00H
	DB	00H
	DB	00H
	DB	0ffH
	DB	038H
	DB	038H
	DB	038H
	DB	0ffH
	DB	040H
	DB	03cH
	DB	040H
	DB	0ffH
	DB	040H
	DB	040H
	DB	040H
	DB	0ffH
	DB	040H
	DB	040H
	DB	040H
	DB	0ffH
	DB	040H
	DB	040H
	DB	040H
	DB	0ffH
	DB	040H
	DB	040H
	DB	040H
	DB	0ffH
	DB	040H
	DB	040H
	DB	040H
	DB	0ffH
	DB	040H
	DB	040H
	DB	040H
	DB	0ffH
	DB	040H
	DB	040H
	DB	040H
	DB	0ffH
	DB	040H
	DB	040H
	DB	040H
	DB	0ffH
	DB	040H
	DB	040H
	DB	040H
	DB	0ffH
	DB	040H
	DB	040H
	DB	040H
	DB	0ffH
	DB	040H
	DB	040H
	DB	040H
	DB	0ffH
	DB	040H
	DB	040H
	DB	040H
	DB	0ffH
	DB	040H
	DB	040H
	DB	040H
	DB	0ffH
	DB	040H
	DB	040H
	DB	040H
	DB	0ffH
	DB	088H
	DB	088H
	DB	088H
	DB	0ffH
	DB	098H
	DB	09cH
	DB	098H
	DB	0ffH
	DB	098H
	DB	094H
	DB	098H
	DB	0ffH
	DB	080H
	DB	07cH
	DB	080H
	DB	0ffH
	DB	080H
	DB	084H
	DB	080H
	DB	0ffH
	DB	098H
	DB	09cH
	DB	098H
	DB	0ffH
	DB	098H
	DB	09cH
	DB	098H
	DB	0ffH
	DB	078H
	DB	078H
	DB	078H
	DB	0ffH
	DB	040H
	DB	040H
	DB	040H
	DB	0ffH
	DB	040H
	DB	040H
	DB	040H
	DB	0ffH
	DB	040H
	DB	040H
	DB	040H
	DB	0ffH
	DB	080H
	DB	084H
	DB	080H
	DB	0ffH
	DB	0a0H
	DB	09cH
	DB	0a0H
	DB	0ffH
	DB	088H
	DB	088H
	DB	088H
	DB	0ffH
	DB	088H
	DB	084H
	DB	088H
	DB	0ffH
	DB	088H
	DB	080H
	DB	088H
	DB	0ffH
	DB	080H
	DB	084H
	DB	080H
	DB	0ffH
	DB	040H
	DB	040H
	DB	040H
	DB	0ffH
	DB	040H
	DB	040H
	DB	040H
	DB	0ffH
	DB	068H
	DB	064H
	DB	068H
	DB	0ffH
	DB	0a0H
	DB	09cH
	DB	0a0H
	DB	0ffH
	DB	098H
	DB	094H
	DB	098H
	DB	0ffH
	DB	080H
	DB	084H
	DB	080H
	DB	0ffH
	DB	088H
	DB	084H
	DB	088H
	DB	0ffH
	DB	080H
	DB	084H
	DB	080H
	DB	0ffH
	DB	058H
	DB	058H
	DB	058H
	DB	0ffH
	DB	040H
	DB	040H
	DB	040H
	DB	0ffH
	DB	040H
	DB	040H
	DB	040H
	DB	0ffH
	DB	040H
	DB	040H
	DB	040H
	DB	0ffH
	DB	040H
	DB	040H
	DB	040H
	DB	0ffH
	DB	040H
	DB	040H
	DB	040H
	DB	0ffH
	DB	040H
	DB	040H
	DB	040H
	DB	0ffH
	DB	040H
	DB	040H
	DB	040H
	DB	0ffH
	DB	040H
	DB	040H
	DB	040H
	DB	0ffH
	DB	040H
	DB	040H
	DB	040H
	DB	0ffH
	DB	040H
	DB	040H
	DB	040H
	DB	0ffH
	DB	040H
	DB	040H
	DB	040H
	DB	0ffH
	DB	040H
	DB	040H
	DB	040H
	DB	0ffH
	DB	040H
	DB	040H
	DB	040H
	DB	0ffH
	DB	038H
	DB	03cH
	DB	038H
	DB	0ffH
	DB	038H
	DB	034H
	DB	038H
	DB	0ffH
	DB	00H
	DB	00H
	DB	00H
	DB	0ffH
	DB	00H
	DB	00H
	DB	00H
	DB	0ffH
	DB	088H
	DB	088H
	DB	088H
	DB	0ffH
	DB	080H
	DB	07cH
	DB	080H
	DB	0ffH
	DB	080H
	DB	07cH
	DB	080H
	DB	0ffH
	DB	078H
	DB	078H
	DB	078H
	DB	0ffH
	DB	078H
	DB	07cH
	DB	078H
	DB	0ffH
	DB	078H
	DB	078H
	DB	078H
	DB	0ffH
	DB	078H
	DB	07cH
	DB	078H
	DB	0ffH
	DB	078H
	DB	078H
	DB	078H
	DB	0ffH
	DB	078H
	DB	07cH
	DB	078H
	DB	0ffH
	DB	078H
	DB	078H
	DB	078H
	DB	0ffH
	DB	078H
	DB	07cH
	DB	078H
	DB	0ffH
	DB	078H
	DB	078H
	DB	078H
	DB	0ffH
	DB	078H
	DB	07cH
	DB	078H
	DB	0ffH
	DB	078H
	DB	078H
	DB	078H
	DB	0ffH
	DB	078H
	DB	07cH
	DB	078H
	DB	0ffH
	DB	078H
	DB	078H
	DB	078H
	DB	0ffH
	DB	078H
	DB	078H
	DB	078H
	DB	0ffH
	DB	078H
	DB	078H
	DB	078H
	DB	0ffH
	DB	078H
	DB	074H
	DB	078H
	DB	0ffH
	DB	038H
	DB	038H
	DB	038H
	DB	0ffH
	DB	028H
	DB	02cH
	DB	028H
	DB	0ffH
	DB	030H
	DB	030H
	DB	030H
	DB	0ffH
	DB	040H
	DB	040H
	DB	040H
	DB	0ffH
	DB	040H
	DB	03cH
	DB	040H
	DB	0ffH
	DB	028H
	DB	02cH
	DB	028H
	DB	0ffH
	DB	028H
	DB	02cH
	DB	028H
	DB	0ffH
	DB	048H
	DB	048H
	DB	048H
	DB	0ffH
	DB	070H
	DB	074H
	DB	070H
	DB	0ffH
	DB	070H
	DB	074H
	DB	070H
	DB	0ffH
	DB	078H
	DB	074H
	DB	078H
	DB	0ffH
	DB	040H
	DB	03cH
	DB	040H
	DB	0ffH
	DB	028H
	DB	028H
	DB	028H
	DB	0ffH
	DB	028H
	DB	02cH
	DB	028H
	DB	0ffH
	DB	038H
	DB	038H
	DB	038H
	DB	0ffH
	DB	070H
	DB	070H
	DB	070H
	DB	0ffH
	DB	070H
	DB	074H
	DB	070H
	DB	0ffH
	DB	070H
	DB	074H
	DB	070H
	DB	0ffH
	DB	038H
	DB	038H
	DB	038H
	DB	0ffH
	DB	028H
	DB	028H
	DB	028H
	DB	0ffH
	DB	068H
	DB	06cH
	DB	068H
	DB	0ffH
	DB	078H
	DB	078H
	DB	078H
	DB	0ffH
	DB	078H
	DB	078H
	DB	078H
	DB	0ffH
	DB	078H
	DB	078H
	DB	078H
	DB	0ffH
	DB	078H
	DB	078H
	DB	078H
	DB	0ffH
	DB	078H
	DB	07cH
	DB	078H
	DB	0ffH
	DB	078H
	DB	078H
	DB	078H
	DB	0ffH
	DB	078H
	DB	078H
	DB	078H
	DB	0ffH
	DB	078H
	DB	07cH
	DB	078H
	DB	0ffH
	DB	078H
	DB	078H
	DB	078H
	DB	0ffH
	DB	078H
	DB	07cH
	DB	078H
	DB	0ffH
	DB	078H
	DB	078H
	DB	078H
	DB	0ffH
	DB	078H
	DB	07cH
	DB	078H
	DB	0ffH
	DB	078H
	DB	078H
	DB	078H
	DB	0ffH
	DB	078H
	DB	078H
	DB	078H
	DB	0ffH
	DB	080H
	DB	07cH
	DB	080H
	DB	0ffH
	DB	080H
	DB	080H
	DB	080H
	DB	0ffH
	DB	088H
	DB	088H
	DB	088H
	DB	0ffH
	DB	00H
	DB	00H
	DB	00H
	DB	0ffH
	DB	00H
	DB	00H
	DB	00H
	DB	0ffH
	DB	00H
	DB	00H
	DB	00H
	DB	0ffH
	DB	050H
	DB	054H
	DB	050H
	DB	0ffH
	DB	058H
	DB	058H
	DB	058H
	DB	0ffH
	DB	058H
	DB	054H
	DB	058H
	DB	0ffH
	DB	058H
	DB	054H
	DB	058H
	DB	0ffH
	DB	058H
	DB	058H
	DB	058H
	DB	0ffH
	DB	058H
	DB	054H
	DB	058H
	DB	0ffH
	DB	00H
	DB	00H
	DB	00H
	DB	0ffH
	DB	00H
	DB	00H
	DB	00H
	DB	0ffH
	DB	00H
	DB	00H
	DB	00H
	DB	0ffH
	DB	038H
	DB	038H
	DB	038H
	DB	0ffH
	DB	038H
	DB	03cH
	DB	038H
	DB	0ffH
	DB	040H
	DB	040H
	DB	040H
	DB	0ffH
	DB	040H
	DB	040H
	DB	040H
	DB	0ffH
	DB	040H
	DB	040H
	DB	040H
	DB	0ffH
	DB	040H
	DB	040H
	DB	040H
	DB	0ffH
	DB	040H
	DB	040H
	DB	040H
	DB	0ffH
	DB	040H
	DB	040H
	DB	040H
	DB	0ffH
	DB	040H
	DB	040H
	DB	040H
	DB	0ffH
	DB	040H
	DB	040H
	DB	040H
	DB	0ffH
	DB	040H
	DB	040H
	DB	040H
	DB	0ffH
	DB	040H
	DB	040H
	DB	040H
	DB	0ffH
	DB	040H
	DB	040H
	DB	040H
	DB	0ffH
	DB	040H
	DB	040H
	DB	040H
	DB	0ffH
	DB	040H
	DB	040H
	DB	040H
	DB	0ffH
	DB	068H
	DB	064H
	DB	068H
	DB	0ffH
	DB	098H
	DB	09cH
	DB	098H
	DB	0ffH
	DB	098H
	DB	094H
	DB	098H
	DB	0ffH
	DB	050H
	DB	04cH
	DB	050H
	DB	0ffH
	DB	040H
	DB	040H
	DB	040H
	DB	0ffH
	DB	040H
	DB	040H
	DB	040H
	DB	0ffH
	DB	058H
	DB	058H
	DB	058H
	DB	0ffH
	DB	0a0H
	DB	09cH
	DB	0a0H
	DB	0ffH
	DB	098H
	DB	09cH
	DB	098H
	DB	0ffH
	DB	050H
	DB	050H
	DB	050H
	DB	0ffH
	DB	040H
	DB	040H
	DB	040H
	DB	0ffH
	DB	040H
	DB	040H
	DB	040H
	DB	0ffH
	DB	080H
	DB	084H
	DB	080H
	DB	0ffH
	DB	098H
	DB	09cH
	DB	098H
	DB	0ffH
	DB	060H
	DB	060H
	DB	060H
	DB	0ffH
	DB	040H
	DB	040H
	DB	040H
	DB	0ffH
	DB	040H
	DB	040H
	DB	040H
	DB	0ffH
	DB	040H
	DB	040H
	DB	040H
	DB	0ffH
	DB	040H
	DB	040H
	DB	040H
	DB	0ffH
	DB	040H
	DB	040H
	DB	040H
	DB	0ffH
	DB	068H
	DB	064H
	DB	068H
	DB	0ffH
	DB	098H
	DB	09cH
	DB	098H
	DB	0ffH
	DB	080H
	DB	07cH
	DB	080H
	DB	0ffH
	DB	040H
	DB	040H
	DB	040H
	DB	0ffH
	DB	040H
	DB	040H
	DB	040H
	DB	0ffH
	DB	040H
	DB	040H
	DB	040H
	DB	0ffH
	DB	040H
	DB	040H
	DB	040H
	DB	0ffH
	DB	040H
	DB	040H
	DB	040H
	DB	0ffH
	DB	040H
	DB	040H
	DB	040H
	DB	0ffH
	DB	040H
	DB	040H
	DB	040H
	DB	0ffH
	DB	040H
	DB	040H
	DB	040H
	DB	0ffH
	DB	040H
	DB	040H
	DB	040H
	DB	0ffH
	DB	040H
	DB	040H
	DB	040H
	DB	0ffH
	DB	040H
	DB	040H
	DB	040H
	DB	0ffH
	DB	040H
	DB	040H
	DB	040H
	DB	0ffH
	DB	040H
	DB	040H
	DB	040H
	DB	0ffH
	DB	040H
	DB	040H
	DB	040H
	DB	0ffH
	DB	040H
	DB	040H
	DB	040H
	DB	0ffH
	DB	040H
	DB	040H
	DB	040H
	DB	0ffH
	DB	040H
	DB	040H
	DB	040H
	DB	0ffH
	DB	040H
	DB	03cH
	DB	040H
	DB	0ffH
	DB	038H
	DB	038H
	DB	038H
	DB	0ffH
	DB	00H
	DB	00H
	DB	00H
	DB	0ffH
	DB	00H
	DB	00H
	DB	00H
	DB	0ffH
	DB	088H
	DB	084H
	DB	088H
	DB	0ffH
	DB	078H
	DB	07cH
	DB	078H
	DB	0ffH
	DB	078H
	DB	078H
	DB	078H
	DB	0ffH
	DB	078H
	DB	078H
	DB	078H
	DB	0ffH
	DB	078H
	DB	078H
	DB	078H
	DB	0ffH
	DB	078H
	DB	078H
	DB	078H
	DB	0ffH
	DB	078H
	DB	078H
	DB	078H
	DB	0ffH
	DB	078H
	DB	078H
	DB	078H
	DB	0ffH
	DB	078H
	DB	078H
	DB	078H
	DB	0ffH
	DB	078H
	DB	078H
	DB	078H
	DB	0ffH
	DB	078H
	DB	078H
	DB	078H
	DB	0ffH
	DB	078H
	DB	078H
	DB	078H
	DB	0ffH
	DB	078H
	DB	078H
	DB	078H
	DB	0ffH
	DB	078H
	DB	078H
	DB	078H
	DB	0ffH
	DB	078H
	DB	078H
	DB	078H
	DB	0ffH
	DB	078H
	DB	078H
	DB	078H
	DB	0ffH
	DB	078H
	DB	074H
	DB	078H
	DB	0ffH
	DB	070H
	DB	070H
	DB	070H
	DB	0ffH
	DB	058H
	DB	054H
	DB	058H
	DB	0ffH
	DB	028H
	DB	02cH
	DB	028H
	DB	0ffH
	DB	030H
	DB	02cH
	DB	030H
	DB	0ffH
	DB	068H
	DB	064H
	DB	068H
	DB	0ffH
	DB	070H
	DB	070H
	DB	070H
	DB	0ffH
	DB	070H
	DB	06cH
	DB	070H
	DB	0ffH
	DB	058H
	DB	05cH
	DB	058H
	DB	0ffH
	DB	028H
	DB	028H
	DB	028H
	DB	0ffH
	DB	028H
	DB	028H
	DB	028H
	DB	0ffH
	DB	060H
	DB	060H
	DB	060H
	DB	0ffH
	DB	070H
	DB	070H
	DB	070H
	DB	0ffH
	DB	070H
	DB	070H
	DB	070H
	DB	0ffH
	DB	040H
	DB	03cH
	DB	040H
	DB	0ffH
	DB	028H
	DB	028H
	DB	028H
	DB	0ffH
	DB	030H
	DB	030H
	DB	030H
	DB	0ffH
	DB	030H
	DB	02cH
	DB	030H
	DB	0ffH
	DB	050H
	DB	050H
	DB	050H
	DB	0ffH
	DB	070H
	DB	06cH
	DB	070H
	DB	0ffH
	DB	070H
	DB	070H
	DB	070H
	DB	0ffH
	DB	038H
	DB	038H
	DB	038H
	DB	0ffH
	DB	028H
	DB	028H
	DB	028H
	DB	0ffH
	DB	068H
	DB	068H
	DB	068H
	DB	0ffH
	DB	070H
	DB	074H
	DB	070H
	DB	0ffH
	DB	078H
	DB	074H
	DB	078H
	DB	0ffH
	DB	078H
	DB	078H
	DB	078H
	DB	0ffH
	DB	078H
	DB	078H
	DB	078H
	DB	0ffH
	DB	078H
	DB	078H
	DB	078H
	DB	0ffH
	DB	078H
	DB	078H
	DB	078H
	DB	0ffH
	DB	078H
	DB	078H
	DB	078H
	DB	0ffH
	DB	078H
	DB	078H
	DB	078H
	DB	0ffH
	DB	078H
	DB	078H
	DB	078H
	DB	0ffH
	DB	078H
	DB	078H
	DB	078H
	DB	0ffH
	DB	078H
	DB	078H
	DB	078H
	DB	0ffH
	DB	078H
	DB	078H
	DB	078H
	DB	0ffH
	DB	078H
	DB	078H
	DB	078H
	DB	0ffH
	DB	078H
	DB	078H
	DB	078H
	DB	0ffH
	DB	078H
	DB	078H
	DB	078H
	DB	0ffH
	DB	078H
	DB	07cH
	DB	078H
	DB	0ffH
	DB	088H
	DB	084H
	DB	088H
	DB	0ffH
	DB	00H
	DB	00H
	DB	00H
	DB	0ffH
	DB	00H
	DB	00H
	DB	00H
	DB	0ffH
	DB	00H
	DB	00H
	DB	00H
	DB	0ffH
	DB	058H
	DB	054H
	DB	058H
	DB	0ffH
	DB	058H
	DB	058H
	DB	058H
	DB	0ffH
	DB	058H
	DB	054H
	DB	058H
	DB	0ffH
	DB	058H
	DB	058H
	DB	058H
	DB	0ffH
	DB	058H
	DB	058H
	DB	058H
	DB	0ffH
	DB	058H
	DB	058H
	DB	058H
	DB	0ffH
	DB	00H
	DB	00H
	DB	00H
	DB	0ffH
	DB	00H
	DB	00H
	DB	00H
	DB	0ffH
	DB	00H
	DB	00H
	DB	00H
	DB	0ffH
	DB	038H
	DB	038H
	DB	038H
	DB	0ffH
	DB	040H
	DB	03cH
	DB	040H
	DB	0ffH
	DB	040H
	DB	040H
	DB	040H
	DB	0ffH
	DB	040H
	DB	040H
	DB	040H
	DB	0ffH
	DB	040H
	DB	040H
	DB	040H
	DB	0ffH
	DB	040H
	DB	040H
	DB	040H
	DB	0ffH
	DB	040H
	DB	040H
	DB	040H
	DB	0ffH
	DB	040H
	DB	044H
	DB	040H
	DB	0ffH
	DB	040H
	DB	040H
	DB	040H
	DB	0ffH
	DB	040H
	DB	040H
	DB	040H
	DB	0ffH
	DB	040H
	DB	044H
	DB	040H
	DB	0ffH
	DB	040H
	DB	040H
	DB	040H
	DB	0ffH
	DB	040H
	DB	040H
	DB	040H
	DB	0ffH
	DB	040H
	DB	044H
	DB	040H
	DB	0ffH
	DB	040H
	DB	040H
	DB	040H
	DB	0ffH
	DB	080H
	DB	07cH
	DB	080H
	DB	0ffH
	DB	098H
	DB	09cH
	DB	098H
	DB	0ffH
	DB	078H
	DB	078H
	DB	078H
	DB	0ffH
	DB	040H
	DB	044H
	DB	040H
	DB	0ffH
	DB	040H
	DB	044H
	DB	040H
	DB	0ffH
	DB	040H
	DB	040H
	DB	040H
	DB	0ffH
	DB	040H
	DB	040H
	DB	040H
	DB	0ffH
	DB	088H
	DB	084H
	DB	088H
	DB	0ffH
	DB	098H
	DB	09cH
	DB	098H
	DB	0ffH
	DB	070H
	DB	06cH
	DB	070H
	DB	0ffH
	DB	040H
	DB	040H
	DB	040H
	DB	0ffH
	DB	040H
	DB	040H
	DB	040H
	DB	0ffH
	DB	088H
	DB	084H
	DB	088H
	DB	0ffH
	DB	098H
	DB	09cH
	DB	098H
	DB	0ffH
	DB	060H
	DB	060H
	DB	060H
	DB	0ffH
	DB	040H
	DB	040H
	DB	040H
	DB	0ffH
	DB	040H
	DB	044H
	DB	040H
	DB	0ffH
	DB	040H
	DB	040H
	DB	040H
	DB	0ffH
	DB	040H
	DB	044H
	DB	040H
	DB	0ffH
	DB	040H
	DB	040H
	DB	040H
	DB	0ffH
	DB	068H
	DB	064H
	DB	068H
	DB	0ffH
	DB	098H
	DB	09cH
	DB	098H
	DB	0ffH
	DB	080H
	DB	07cH
	DB	080H
	DB	0ffH
	DB	040H
	DB	040H
	DB	040H
	DB	0ffH
	DB	040H
	DB	040H
	DB	040H
	DB	0ffH
	DB	040H
	DB	044H
	DB	040H
	DB	0ffH
	DB	040H
	DB	040H
	DB	040H
	DB	0ffH
	DB	040H
	DB	044H
	DB	040H
	DB	0ffH
	DB	040H
	DB	040H
	DB	040H
	DB	0ffH
	DB	040H
	DB	040H
	DB	040H
	DB	0ffH
	DB	040H
	DB	044H
	DB	040H
	DB	0ffH
	DB	040H
	DB	040H
	DB	040H
	DB	0ffH
	DB	040H
	DB	040H
	DB	040H
	DB	0ffH
	DB	040H
	DB	044H
	DB	040H
	DB	0ffH
	DB	040H
	DB	040H
	DB	040H
	DB	0ffH
	DB	040H
	DB	040H
	DB	040H
	DB	0ffH
	DB	040H
	DB	044H
	DB	040H
	DB	0ffH
	DB	040H
	DB	040H
	DB	040H
	DB	0ffH
	DB	040H
	DB	044H
	DB	040H
	DB	0ffH
	DB	040H
	DB	040H
	DB	040H
	DB	0ffH
	DB	040H
	DB	040H
	DB	040H
	DB	0ffH
	DB	038H
	DB	038H
	DB	038H
	DB	0ffH
	DB	00H
	DB	00H
	DB	00H
	DB	0ffH
	DB	00H
	DB	00H
	DB	00H
	DB	0ffH
	DB	080H
	DB	084H
	DB	080H
	DB	0ffH
	DB	078H
	DB	078H
	DB	078H
	DB	0ffH
	DB	078H
	DB	078H
	DB	078H
	DB	0ffH
	DB	078H
	DB	074H
	DB	078H
	DB	0ffH
	DB	078H
	DB	074H
	DB	078H
	DB	0ffH
	DB	078H
	DB	074H
	DB	078H
	DB	0ffH
	DB	078H
	DB	074H
	DB	078H
	DB	0ffH
	DB	078H
	DB	074H
	DB	078H
	DB	0ffH
	DB	078H
	DB	074H
	DB	078H
	DB	0ffH
	DB	078H
	DB	074H
	DB	078H
	DB	0ffH
	DB	078H
	DB	074H
	DB	078H
	DB	0ffH
	DB	078H
	DB	074H
	DB	078H
	DB	0ffH
	DB	078H
	DB	074H
	DB	078H
	DB	0ffH
	DB	078H
	DB	074H
	DB	078H
	DB	0ffH
	DB	078H
	DB	074H
	DB	078H
	DB	0ffH
	DB	070H
	DB	074H
	DB	070H
	DB	0ffH
	DB	070H
	DB	074H
	DB	070H
	DB	0ffH
	DB	070H
	DB	070H
	DB	070H
	DB	0ffH
	DB	040H
	DB	040H
	DB	040H
	DB	0ffH
	DB	028H
	DB	028H
	DB	028H
	DB	0ffH
	DB	040H
	DB	044H
	DB	040H
	DB	0ffH
	DB	070H
	DB	06cH
	DB	070H
	DB	0ffH
	DB	070H
	DB	070H
	DB	070H
	DB	0ffH
	DB	070H
	DB	06cH
	DB	070H
	DB	0ffH
	DB	070H
	DB	06cH
	DB	070H
	DB	0ffH
	DB	038H
	DB	03cH
	DB	038H
	DB	0ffH
	DB	028H
	DB	02cH
	DB	028H
	DB	0ffH
	DB	050H
	DB	04cH
	DB	050H
	DB	0ffH
	DB	070H
	DB	06cH
	DB	070H
	DB	0ffH
	DB	070H
	DB	06cH
	DB	070H
	DB	0ffH
	DB	038H
	DB	03cH
	DB	038H
	DB	0ffH
	DB	028H
	DB	02cH
	DB	028H
	DB	0ffH
	DB	050H
	DB	050H
	DB	050H
	DB	0ffH
	DB	028H
	DB	028H
	DB	028H
	DB	0ffH
	DB	030H
	DB	030H
	DB	030H
	DB	0ffH
	DB	068H
	DB	064H
	DB	068H
	DB	0ffH
	DB	068H
	DB	06cH
	DB	068H
	DB	0ffH
	DB	038H
	DB	038H
	DB	038H
	DB	0ffH
	DB	028H
	DB	028H
	DB	028H
	DB	0ffH
	DB	068H
	DB	064H
	DB	068H
	DB	0ffH
	DB	070H
	DB	070H
	DB	070H
	DB	0ffH
	DB	070H
	DB	074H
	DB	070H
	DB	0ffH
	DB	078H
	DB	074H
	DB	078H
	DB	0ffH
	DB	078H
	DB	074H
	DB	078H
	DB	0ffH
	DB	078H
	DB	074H
	DB	078H
	DB	0ffH
	DB	078H
	DB	074H
	DB	078H
	DB	0ffH
	DB	078H
	DB	074H
	DB	078H
	DB	0ffH
	DB	078H
	DB	074H
	DB	078H
	DB	0ffH
	DB	078H
	DB	074H
	DB	078H
	DB	0ffH
	DB	078H
	DB	074H
	DB	078H
	DB	0ffH
	DB	078H
	DB	074H
	DB	078H
	DB	0ffH
	DB	078H
	DB	074H
	DB	078H
	DB	0ffH
	DB	078H
	DB	074H
	DB	078H
	DB	0ffH
	DB	078H
	DB	074H
	DB	078H
	DB	0ffH
	DB	078H
	DB	078H
	DB	078H
	DB	0ffH
	DB	078H
	DB	078H
	DB	078H
	DB	0ffH
	DB	080H
	DB	084H
	DB	080H
	DB	0ffH
	DB	00H
	DB	00H
	DB	00H
	DB	0ffH
	DB	00H
	DB	00H
	DB	00H
	DB	0ffH
	DB	00H
	DB	00H
	DB	00H
	DB	0ffH
	DB	058H
	DB	058H
	DB	058H
	DB	0ffH
	DB	058H
	DB	05cH
	DB	058H
	DB	0ffH
	DB	058H
	DB	058H
	DB	058H
	DB	0ffH
	DB	058H
	DB	05cH
	DB	058H
	DB	0ffH
	DB	060H
	DB	05cH
	DB	060H
	DB	0ffH
	DB	058H
	DB	05cH
	DB	058H
	DB	0ffH
	DB	00H
	DB	00H
	DB	00H
	DB	0ffH
	DB	00H
	DB	00H
	DB	00H
	DB	0ffH
	DB	00H
	DB	00H
	DB	00H
	DB	0ffH
	DB	038H
	DB	03cH
	DB	038H
	DB	0ffH
	DB	040H
	DB	040H
	DB	040H
	DB	0ffH
	DB	040H
	DB	044H
	DB	040H
	DB	0ffH
	DB	040H
	DB	044H
	DB	040H
	DB	0ffH
	DB	040H
	DB	044H
	DB	040H
	DB	0ffH
	DB	040H
	DB	044H
	DB	040H
	DB	0ffH
	DB	048H
	DB	044H
	DB	048H
	DB	0ffH
	DB	040H
	DB	044H
	DB	040H
	DB	0ffH
	DB	040H
	DB	044H
	DB	040H
	DB	0ffH
	DB	040H
	DB	044H
	DB	040H
	DB	0ffH
	DB	048H
	DB	044H
	DB	048H
	DB	0ffH
	DB	040H
	DB	044H
	DB	040H
	DB	0ffH
	DB	040H
	DB	044H
	DB	040H
	DB	0ffH
	DB	048H
	DB	044H
	DB	048H
	DB	0ffH
	DB	040H
	DB	044H
	DB	040H
	DB	0ffH
	DB	088H
	DB	088H
	DB	088H
	DB	0ffH
	DB	098H
	DB	09cH
	DB	098H
	DB	0ffH
	DB	068H
	DB	064H
	DB	068H
	DB	0ffH
	DB	040H
	DB	044H
	DB	040H
	DB	0ffH
	DB	048H
	DB	044H
	DB	048H
	DB	0ffH
	DB	048H
	DB	044H
	DB	048H
	DB	0ffH
	DB	040H
	DB	044H
	DB	040H
	DB	0ffH
	DB	078H
	DB	078H
	DB	078H
	DB	0ffH
	DB	0a0H
	DB	09cH
	DB	0a0H
	DB	0ffH
	DB	078H
	DB	078H
	DB	078H
	DB	0ffH
	DB	040H
	DB	044H
	DB	040H
	DB	0ffH
	DB	048H
	DB	044H
	DB	048H
	DB	0ffH
	DB	088H
	DB	084H
	DB	088H
	DB	0ffH
	DB	098H
	DB	09cH
	DB	098H
	DB	0ffH
	DB	088H
	DB	088H
	DB	088H
	DB	0ffH
	DB	080H
	DB	07cH
	DB	080H
	DB	0ffH
	DB	080H
	DB	080H
	DB	080H
	DB	0ffH
	DB	070H
	DB	06cH
	DB	070H
	DB	0ffH
	DB	048H
	DB	044H
	DB	048H
	DB	0ffH
	DB	040H
	DB	044H
	DB	040H
	DB	0ffH
	DB	068H
	DB	064H
	DB	068H
	DB	0ffH
	DB	098H
	DB	09cH
	DB	098H
	DB	0ffH
	DB	090H
	DB	090H
	DB	090H
	DB	0ffH
	DB	080H
	DB	080H
	DB	080H
	DB	0ffH
	DB	080H
	DB	080H
	DB	080H
	DB	0ffH
	DB	080H
	DB	07cH
	DB	080H
	DB	0ffH
	DB	048H
	DB	048H
	DB	048H
	DB	0ffH
	DB	048H
	DB	044H
	DB	048H
	DB	0ffH
	DB	048H
	DB	044H
	DB	048H
	DB	0ffH
	DB	040H
	DB	044H
	DB	040H
	DB	0ffH
	DB	048H
	DB	044H
	DB	048H
	DB	0ffH
	DB	040H
	DB	044H
	DB	040H
	DB	0ffH
	DB	040H
	DB	044H
	DB	040H
	DB	0ffH
	DB	048H
	DB	044H
	DB	048H
	DB	0ffH
	DB	040H
	DB	044H
	DB	040H
	DB	0ffH
	DB	040H
	DB	044H
	DB	040H
	DB	0ffH
	DB	040H
	DB	044H
	DB	040H
	DB	0ffH
	DB	040H
	DB	044H
	DB	040H
	DB	0ffH
	DB	040H
	DB	044H
	DB	040H
	DB	0ffH
	DB	040H
	DB	040H
	DB	040H
	DB	0ffH
	DB	040H
	DB	040H
	DB	040H
	DB	0ffH
	DB	038H
	DB	038H
	DB	038H
	DB	0ffH
	DB	00H
	DB	00H
	DB	00H
	DB	0ffH
	DB	00H
	DB	00H
	DB	00H
	DB	0ffH
	DB	080H
	DB	080H
	DB	080H
	DB	0ffH
	DB	078H
	DB	078H
	DB	078H
	DB	0ffH
	DB	070H
	DB	074H
	DB	070H
	DB	0ffH
	DB	070H
	DB	070H
	DB	070H
	DB	0ffH
	DB	070H
	DB	074H
	DB	070H
	DB	0ffH
	DB	070H
	DB	070H
	DB	070H
	DB	0ffH
	DB	070H
	DB	074H
	DB	070H
	DB	0ffH
	DB	070H
	DB	070H
	DB	070H
	DB	0ffH
	DB	070H
	DB	074H
	DB	070H
	DB	0ffH
	DB	070H
	DB	070H
	DB	070H
	DB	0ffH
	DB	070H
	DB	070H
	DB	070H
	DB	0ffH
	DB	070H
	DB	074H
	DB	070H
	DB	0ffH
	DB	070H
	DB	070H
	DB	070H
	DB	0ffH
	DB	070H
	DB	074H
	DB	070H
	DB	0ffH
	DB	070H
	DB	070H
	DB	070H
	DB	0ffH
	DB	070H
	DB	070H
	DB	070H
	DB	0ffH
	DB	070H
	DB	070H
	DB	070H
	DB	0ffH
	DB	070H
	DB	06cH
	DB	070H
	DB	0ffH
	DB	038H
	DB	038H
	DB	038H
	DB	0ffH
	DB	028H
	DB	02cH
	DB	028H
	DB	0ffH
	DB	050H
	DB	050H
	DB	050H
	DB	0ffH
	DB	068H
	DB	06cH
	DB	068H
	DB	0ffH
	DB	070H
	DB	06cH
	DB	070H
	DB	0ffH
	DB	068H
	DB	06cH
	DB	068H
	DB	0ffH
	DB	068H
	DB	06cH
	DB	068H
	DB	0ffH
	DB	048H
	DB	044H
	DB	048H
	DB	0ffH
	DB	028H
	DB	02cH
	DB	028H
	DB	0ffH
	DB	040H
	DB	044H
	DB	040H
	DB	0ffH
	DB	068H
	DB	068H
	DB	068H
	DB	0ffH
	DB	068H
	DB	06cH
	DB	068H
	DB	0ffH
	DB	038H
	DB	03cH
	DB	038H
	DB	0ffH
	DB	028H
	DB	028H
	DB	028H
	DB	0ffH
	DB	060H
	DB	05cH
	DB	060H
	DB	0ffH
	DB	038H
	DB	03cH
	DB	038H
	DB	0ffH
	DB	028H
	DB	02cH
	DB	028H
	DB	0ffH
	DB	048H
	DB	044H
	DB	048H
	DB	0ffH
	DB	068H
	DB	068H
	DB	068H
	DB	0ffH
	DB	038H
	DB	038H
	DB	038H
	DB	0ffH
	DB	028H
	DB	02cH
	DB	028H
	DB	0ffH
	DB	060H
	DB	060H
	DB	060H
	DB	0ffH
	DB	070H
	DB	070H
	DB	070H
	DB	0ffH
	DB	070H
	DB	070H
	DB	070H
	DB	0ffH
	DB	070H
	DB	074H
	DB	070H
	DB	0ffH
	DB	070H
	DB	074H
	DB	070H
	DB	0ffH
	DB	070H
	DB	070H
	DB	070H
	DB	0ffH
	DB	070H
	DB	074H
	DB	070H
	DB	0ffH
	DB	070H
	DB	074H
	DB	070H
	DB	0ffH
	DB	070H
	DB	070H
	DB	070H
	DB	0ffH
	DB	070H
	DB	074H
	DB	070H
	DB	0ffH
	DB	070H
	DB	070H
	DB	070H
	DB	0ffH
	DB	070H
	DB	074H
	DB	070H
	DB	0ffH
	DB	070H
	DB	074H
	DB	070H
	DB	0ffH
	DB	070H
	DB	070H
	DB	070H
	DB	0ffH
	DB	070H
	DB	074H
	DB	070H
	DB	0ffH
	DB	070H
	DB	074H
	DB	070H
	DB	0ffH
	DB	078H
	DB	074H
	DB	078H
	DB	0ffH
	DB	080H
	DB	080H
	DB	080H
	DB	0ffH
	DB	00H
	DB	00H
	DB	00H
	DB	0ffH
	DB	00H
	DB	00H
	DB	00H
	DB	0ffH
	DB	00H
	DB	00H
	DB	00H
	DB	0ffH
	DB	058H
	DB	05cH
	DB	058H
	DB	0ffH
	DB	060H
	DB	05cH
	DB	060H
	DB	0ffH
	DB	058H
	DB	058H
	DB	058H
	DB	0ffH
	DB	058H
	DB	05cH
	DB	058H
	DB	0ffH
	DB	060H
	DB	060H
	DB	060H
	DB	0ffH
	DB	060H
	DB	05cH
	DB	060H
	DB	0ffH
	DB	00H
	DB	00H
	DB	00H
	DB	0ffH
	DB	00H
	DB	00H
	DB	00H
	DB	0ffH
	DB	00H
	DB	00H
	DB	00H
	DB	0ffH
	DB	040H
	DB	03cH
	DB	040H
	DB	0ffH
	DB	040H
	DB	040H
	DB	040H
	DB	0ffH
	DB	048H
	DB	044H
	DB	048H
	DB	0ffH
	DB	048H
	DB	044H
	DB	048H
	DB	0ffH
	DB	048H
	DB	044H
	DB	048H
	DB	0ffH
	DB	048H
	DB	044H
	DB	048H
	DB	0ffH
	DB	048H
	DB	044H
	DB	048H
	DB	0ffH
	DB	048H
	DB	044H
	DB	048H
	DB	0ffH
	DB	048H
	DB	044H
	DB	048H
	DB	0ffH
	DB	048H
	DB	044H
	DB	048H
	DB	0ffH
	DB	048H
	DB	044H
	DB	048H
	DB	0ffH
	DB	048H
	DB	044H
	DB	048H
	DB	0ffH
	DB	048H
	DB	044H
	DB	048H
	DB	0ffH
	DB	048H
	DB	044H
	DB	048H
	DB	0ffH
	DB	048H
	DB	044H
	DB	048H
	DB	0ffH
	DB	088H
	DB	08cH
	DB	088H
	DB	0ffH
	DB	098H
	DB	09cH
	DB	098H
	DB	0ffH
	DB	068H
	DB	068H
	DB	068H
	DB	0ffH
	DB	048H
	DB	044H
	DB	048H
	DB	0ffH
	DB	048H
	DB	044H
	DB	048H
	DB	0ffH
	DB	048H
	DB	044H
	DB	048H
	DB	0ffH
	DB	048H
	DB	044H
	DB	048H
	DB	0ffH
	DB	078H
	DB	078H
	DB	078H
	DB	0ffH
	DB	098H
	DB	09cH
	DB	098H
	DB	0ffH
	DB	078H
	DB	078H
	DB	078H
	DB	0ffH
	DB	048H
	DB	044H
	DB	048H
	DB	0ffH
	DB	048H
	DB	044H
	DB	048H
	DB	0ffH
	DB	080H
	DB	084H
	DB	080H
	DB	0ffH
	DB	0a0H
	DB	09cH
	DB	0a0H
	DB	0ffH
	DB	098H
	DB	09cH
	DB	098H
	DB	0ffH
	DB	0a0H
	DB	09cH
	DB	0a0H
	DB	0ffH
	DB	098H
	DB	09cH
	DB	098H
	DB	0ffH
	DB	088H
	DB	084H
	DB	088H
	DB	0ffH
	DB	048H
	DB	044H
	DB	048H
	DB	0ffH
	DB	048H
	DB	044H
	DB	048H
	DB	0ffH
	DB	068H
	DB	068H
	DB	068H
	DB	0ffH
	DB	098H
	DB	09cH
	DB	098H
	DB	0ffH
	DB	098H
	DB	09cH
	DB	098H
	DB	0ffH
	DB	098H
	DB	09cH
	DB	098H
	DB	0ffH
	DB	0a0H
	DB	09cH
	DB	0a0H
	DB	0ffH
	DB	098H
	DB	09cH
	DB	098H
	DB	0ffH
	DB	050H
	DB	04cH
	DB	050H
	DB	0ffH
	DB	048H
	DB	044H
	DB	048H
	DB	0ffH
	DB	048H
	DB	044H
	DB	048H
	DB	0ffH
	DB	048H
	DB	044H
	DB	048H
	DB	0ffH
	DB	048H
	DB	044H
	DB	048H
	DB	0ffH
	DB	048H
	DB	044H
	DB	048H
	DB	0ffH
	DB	048H
	DB	044H
	DB	048H
	DB	0ffH
	DB	048H
	DB	044H
	DB	048H
	DB	0ffH
	DB	048H
	DB	044H
	DB	048H
	DB	0ffH
	DB	048H
	DB	044H
	DB	048H
	DB	0ffH
	DB	048H
	DB	044H
	DB	048H
	DB	0ffH
	DB	048H
	DB	044H
	DB	048H
	DB	0ffH
	DB	048H
	DB	044H
	DB	048H
	DB	0ffH
	DB	040H
	DB	044H
	DB	040H
	DB	0ffH
	DB	040H
	DB	040H
	DB	040H
	DB	0ffH
	DB	038H
	DB	038H
	DB	038H
	DB	0ffH
	DB	00H
	DB	00H
	DB	00H
	DB	0ffH
	DB	00H
	DB	00H
	DB	00H
	DB	0ffH
	DB	080H
	DB	07cH
	DB	080H
	DB	0ffH
	DB	070H
	DB	074H
	DB	070H
	DB	0ffH
	DB	070H
	DB	074H
	DB	070H
	DB	0ffH
	DB	070H
	DB	070H
	DB	070H
	DB	0ffH
	DB	070H
	DB	070H
	DB	070H
	DB	0ffH
	DB	070H
	DB	070H
	DB	070H
	DB	0ffH
	DB	070H
	DB	070H
	DB	070H
	DB	0ffH
	DB	070H
	DB	070H
	DB	070H
	DB	0ffH
	DB	070H
	DB	070H
	DB	070H
	DB	0ffH
	DB	070H
	DB	070H
	DB	070H
	DB	0ffH
	DB	070H
	DB	070H
	DB	070H
	DB	0ffH
	DB	070H
	DB	070H
	DB	070H
	DB	0ffH
	DB	070H
	DB	070H
	DB	070H
	DB	0ffH
	DB	070H
	DB	070H
	DB	070H
	DB	0ffH
	DB	070H
	DB	070H
	DB	070H
	DB	0ffH
	DB	070H
	DB	070H
	DB	070H
	DB	0ffH
	DB	070H
	DB	06cH
	DB	070H
	DB	0ffH
	DB	068H
	DB	068H
	DB	068H
	DB	0ffH
	DB	038H
	DB	034H
	DB	038H
	DB	0ffH
	DB	028H
	DB	02cH
	DB	028H
	DB	0ffH
	DB	050H
	DB	050H
	DB	050H
	DB	0ffH
	DB	068H
	DB	068H
	DB	068H
	DB	0ffH
	DB	068H
	DB	06cH
	DB	068H
	DB	0ffH
	DB	068H
	DB	06cH
	DB	068H
	DB	0ffH
	DB	068H
	DB	068H
	DB	068H
	DB	0ffH
	DB	040H
	DB	040H
	DB	040H
	DB	0ffH
	DB	030H
	DB	028H
	DB	030H
	DB	0ffH
	DB	040H
	DB	044H
	DB	040H
	DB	0ffH
	DB	068H
	DB	068H
	DB	068H
	DB	0ffH
	DB	068H
	DB	068H
	DB	068H
	DB	0ffH
	DB	038H
	DB	038H
	DB	038H
	DB	0ffH
	DB	030H
	DB	02cH
	DB	030H
	DB	0ffH
	DB	060H
	DB	05cH
	DB	060H
	DB	0ffH
	DB	058H
	DB	058H
	DB	058H
	DB	0ffH
	DB	028H
	DB	02cH
	DB	028H
	DB	0ffH
	DB	028H
	DB	028H
	DB	028H
	DB	0ffH
	DB	060H
	DB	05cH
	DB	060H
	DB	0ffH
	DB	038H
	DB	038H
	DB	038H
	DB	0ffH
	DB	028H
	DB	028H
	DB	028H
	DB	0ffH
	DB	060H
	DB	060H
	DB	060H
	DB	0ffH
	DB	070H
	DB	06cH
	DB	070H
	DB	0ffH
	DB	070H
	DB	070H
	DB	070H
	DB	0ffH
	DB	070H
	DB	070H
	DB	070H
	DB	0ffH
	DB	070H
	DB	070H
	DB	070H
	DB	0ffH
	DB	070H
	DB	070H
	DB	070H
	DB	0ffH
	DB	070H
	DB	070H
	DB	070H
	DB	0ffH
	DB	070H
	DB	070H
	DB	070H
	DB	0ffH
	DB	070H
	DB	070H
	DB	070H
	DB	0ffH
	DB	070H
	DB	070H
	DB	070H
	DB	0ffH
	DB	070H
	DB	070H
	DB	070H
	DB	0ffH
	DB	070H
	DB	070H
	DB	070H
	DB	0ffH
	DB	070H
	DB	070H
	DB	070H
	DB	0ffH
	DB	070H
	DB	070H
	DB	070H
	DB	0ffH
	DB	070H
	DB	070H
	DB	070H
	DB	0ffH
	DB	070H
	DB	074H
	DB	070H
	DB	0ffH
	DB	078H
	DB	074H
	DB	078H
	DB	0ffH
	DB	080H
	DB	07cH
	DB	080H
	DB	0ffH
	DB	00H
	DB	00H
	DB	00H
	DB	0ffH
	DB	00H
	DB	00H
	DB	00H
	DB	0ffH
	DB	00H
	DB	00H
	DB	00H
	DB	0ffH
	DB	060H
	DB	05cH
	DB	060H
	DB	0ffH
	DB	060H
	DB	060H
	DB	060H
	DB	0ffH
	DB	058H
	DB	05cH
	DB	058H
	DB	0ffH
	DB	060H
	DB	05cH
	DB	060H
	DB	0ffH
	DB	060H
	DB	060H
	DB	060H
	DB	0ffH
	DB	060H
	DB	05cH
	DB	060H
	DB	0ffH
	DB	00H
	DB	00H
	DB	00H
	DB	0ffH
	DB	00H
	DB	00H
	DB	00H
	DB	0ffH
	DB	00H
	DB	00H
	DB	00H
	DB	0ffH
	DB	040H
	DB	03cH
	DB	040H
	DB	0ffH
	DB	040H
	DB	040H
	DB	040H
	DB	0ffH
	DB	048H
	DB	044H
	DB	048H
	DB	0ffH
	DB	048H
	DB	048H
	DB	048H
	DB	0ffH
	DB	048H
	DB	048H
	DB	048H
	DB	0ffH
	DB	048H
	DB	048H
	DB	048H
	DB	0ffH
	DB	048H
	DB	044H
	DB	048H
	DB	0ffH
	DB	048H
	DB	048H
	DB	048H
	DB	0ffH
	DB	048H
	DB	048H
	DB	048H
	DB	0ffH
	DB	048H
	DB	044H
	DB	048H
	DB	0ffH
	DB	040H
	DB	048H
	DB	040H
	DB	0ffH
	DB	048H
	DB	048H
	DB	048H
	DB	0ffH
	DB	048H
	DB	044H
	DB	048H
	DB	0ffH
	DB	048H
	DB	048H
	DB	048H
	DB	0ffH
	DB	048H
	DB	044H
	DB	048H
	DB	0ffH
	DB	080H
	DB	080H
	DB	080H
	DB	0ffH
	DB	098H
	DB	09cH
	DB	098H
	DB	0ffH
	DB	078H
	DB	078H
	DB	078H
	DB	0ffH
	DB	048H
	DB	044H
	DB	048H
	DB	0ffH
	DB	048H
	DB	048H
	DB	048H
	DB	0ffH
	DB	040H
	DB	048H
	DB	040H
	DB	0ffH
	DB	048H
	DB	044H
	DB	048H
	DB	0ffH
	DB	088H
	DB	088H
	DB	088H
	DB	0ffH
	DB	098H
	DB	09cH
	DB	098H
	DB	0ffH
	DB	070H
	DB	06cH
	DB	070H
	DB	0ffH
	DB	048H
	DB	048H
	DB	048H
	DB	0ffH
	DB	048H
	DB	044H
	DB	048H
	DB	0ffH
	DB	080H
	DB	084H
	DB	080H
	DB	0ffH
	DB	098H
	DB	09cH
	DB	098H
	DB	0ffH
	DB	068H
	DB	068H
	DB	068H
	DB	0ffH
	DB	050H
	DB	04cH
	DB	050H
	DB	0ffH
	DB	048H
	DB	04cH
	DB	048H
	DB	0ffH
	DB	048H
	DB	04cH
	DB	048H
	DB	0ffH
	DB	048H
	DB	044H
	DB	048H
	DB	0ffH
	DB	048H
	DB	048H
	DB	048H
	DB	0ffH
	DB	068H
	DB	068H
	DB	068H
	DB	0ffH
	DB	098H
	DB	09cH
	DB	098H
	DB	0ffH
	DB	080H
	DB	07cH
	DB	080H
	DB	0ffH
	DB	050H
	DB	04cH
	DB	050H
	DB	0ffH
	DB	048H
	DB	04cH
	DB	048H
	DB	0ffH
	DB	050H
	DB	04cH
	DB	050H
	DB	0ffH
	DB	048H
	DB	044H
	DB	048H
	DB	0ffH
	DB	040H
	DB	048H
	DB	040H
	DB	0ffH
	DB	048H
	DB	048H
	DB	048H
	DB	0ffH
	DB	048H
	DB	044H
	DB	048H
	DB	0ffH
	DB	040H
	DB	048H
	DB	040H
	DB	0ffH
	DB	048H
	DB	048H
	DB	048H
	DB	0ffH
	DB	048H
	DB	044H
	DB	048H
	DB	0ffH
	DB	048H
	DB	048H
	DB	048H
	DB	0ffH
	DB	048H
	DB	048H
	DB	048H
	DB	0ffH
	DB	048H
	DB	044H
	DB	048H
	DB	0ffH
	DB	048H
	DB	048H
	DB	048H
	DB	0ffH
	DB	048H
	DB	048H
	DB	048H
	DB	0ffH
	DB	048H
	DB	044H
	DB	048H
	DB	0ffH
	DB	048H
	DB	044H
	DB	048H
	DB	0ffH
	DB	040H
	DB	044H
	DB	040H
	DB	0ffH
	DB	038H
	DB	03cH
	DB	038H
	DB	0ffH
	DB	00H
	DB	00H
	DB	00H
	DB	0ffH
	DB	00H
	DB	00H
	DB	00H
	DB	0ffH
	DB	078H
	DB	07cH
	DB	078H
	DB	0ffH
	DB	070H
	DB	070H
	DB	070H
	DB	0ffH
	DB	070H
	DB	070H
	DB	070H
	DB	0ffH
	DB	070H
	DB	06cH
	DB	070H
	DB	0ffH
	DB	070H
	DB	06cH
	DB	070H
	DB	0ffH
	DB	070H
	DB	06cH
	DB	070H
	DB	0ffH
	DB	070H
	DB	06cH
	DB	070H
	DB	0ffH
	DB	068H
	DB	06cH
	DB	068H
	DB	0ffH
	DB	070H
	DB	06cH
	DB	070H
	DB	0ffH
	DB	070H
	DB	06cH
	DB	070H
	DB	0ffH
	DB	070H
	DB	06cH
	DB	070H
	DB	0ffH
	DB	070H
	DB	06cH
	DB	070H
	DB	0ffH
	DB	070H
	DB	06cH
	DB	070H
	DB	0ffH
	DB	070H
	DB	06cH
	DB	070H
	DB	0ffH
	DB	070H
	DB	06cH
	DB	070H
	DB	0ffH
	DB	068H
	DB	06cH
	DB	068H
	DB	0ffH
	DB	068H
	DB	06cH
	DB	068H
	DB	0ffH
	DB	068H
	DB	068H
	DB	068H
	DB	0ffH
	DB	040H
	DB	03cH
	DB	040H
	DB	0ffH
	DB	028H
	DB	028H
	DB	028H
	DB	0ffH
	DB	040H
	DB	040H
	DB	040H
	DB	0ffH
	DB	068H
	DB	064H
	DB	068H
	DB	0ffH
	DB	068H
	DB	068H
	DB	068H
	DB	0ffH
	DB	068H
	DB	068H
	DB	068H
	DB	0ffH
	DB	068H
	DB	064H
	DB	068H
	DB	0ffH
	DB	038H
	DB	038H
	DB	038H
	DB	0ffH
	DB	028H
	DB	028H
	DB	028H
	DB	0ffH
	DB	048H
	DB	048H
	DB	048H
	DB	0ffH
	DB	068H
	DB	064H
	DB	068H
	DB	0ffH
	DB	068H
	DB	064H
	DB	068H
	DB	0ffH
	DB	038H
	DB	03cH
	DB	038H
	DB	0ffH
	DB	028H
	DB	02cH
	DB	028H
	DB	0ffH
	DB	060H
	DB	05cH
	DB	060H
	DB	0ffH
	DB	068H
	DB	064H
	DB	068H
	DB	0ffH
	DB	040H
	DB	040H
	DB	040H
	DB	0ffH
	DB	028H
	DB	02cH
	DB	028H
	DB	0ffH
	DB	040H
	DB	03cH
	DB	040H
	DB	0ffH
	DB	038H
	DB	038H
	DB	038H
	DB	0ffH
	DB	028H
	DB	02cH
	DB	028H
	DB	0ffH
	DB	060H
	DB	060H
	DB	060H
	DB	0ffH
	DB	068H
	DB	068H
	DB	068H
	DB	0ffH
	DB	068H
	DB	06cH
	DB	068H
	DB	0ffH
	DB	070H
	DB	06cH
	DB	070H
	DB	0ffH
	DB	070H
	DB	06cH
	DB	070H
	DB	0ffH
	DB	070H
	DB	06cH
	DB	070H
	DB	0ffH
	DB	070H
	DB	06cH
	DB	070H
	DB	0ffH
	DB	068H
	DB	06cH
	DB	068H
	DB	0ffH
	DB	070H
	DB	06cH
	DB	070H
	DB	0ffH
	DB	070H
	DB	06cH
	DB	070H
	DB	0ffH
	DB	068H
	DB	06cH
	DB	068H
	DB	0ffH
	DB	070H
	DB	06cH
	DB	070H
	DB	0ffH
	DB	070H
	DB	06cH
	DB	070H
	DB	0ffH
	DB	068H
	DB	06cH
	DB	068H
	DB	0ffH
	DB	070H
	DB	06cH
	DB	070H
	DB	0ffH
	DB	070H
	DB	070H
	DB	070H
	DB	0ffH
	DB	070H
	DB	070H
	DB	070H
	DB	0ffH
	DB	078H
	DB	07cH
	DB	078H
	DB	0ffH
	DB	00H
	DB	00H
	DB	00H
	DB	0ffH
	DB	00H
	DB	00H
	DB	00H
	DB	0ffH
	DB	00H
	DB	00H
	DB	00H
	DB	0ffH
	DB	060H
	DB	05cH
	DB	060H
	DB	0ffH
	DB	060H
	DB	060H
	DB	060H
	DB	0ffH
	DB	060H
	DB	060H
	DB	060H
	DB	0ffH
	DB	060H
	DB	060H
	DB	060H
	DB	0ffH
	DB	060H
	DB	064H
	DB	060H
	DB	0ffH
	DB	060H
	DB	060H
	DB	060H
	DB	0ffH
	DB	00H
	DB	00H
	DB	00H
	DB	0ffH
	DB	00H
	DB	00H
	DB	00H
	DB	0ffH
	DB	00H
	DB	00H
	DB	00H
	DB	0ffH
	DB	040H
	DB	040H
	DB	040H
	DB	0ffH
	DB	040H
	DB	044H
	DB	040H
	DB	0ffH
	DB	048H
	DB	044H
	DB	048H
	DB	0ffH
	DB	048H
	DB	048H
	DB	048H
	DB	0ffH
	DB	040H
	DB	048H
	DB	040H
	DB	0ffH
	DB	048H
	DB	048H
	DB	048H
	DB	0ffH
	DB	048H
	DB	048H
	DB	048H
	DB	0ffH
	DB	040H
	DB	048H
	DB	040H
	DB	0ffH
	DB	048H
	DB	048H
	DB	048H
	DB	0ffH
	DB	048H
	DB	048H
	DB	048H
	DB	0ffH
	DB	048H
	DB	048H
	DB	048H
	DB	0ffH
	DB	048H
	DB	048H
	DB	048H
	DB	0ffH
	DB	048H
	DB	048H
	DB	048H
	DB	0ffH
	DB	040H
	DB	048H
	DB	040H
	DB	0ffH
	DB	048H
	DB	048H
	DB	048H
	DB	0ffH
	DB	060H
	DB	064H
	DB	060H
	DB	0ffH
	DB	098H
	DB	09cH
	DB	098H
	DB	0ffH
	DB	098H
	DB	094H
	DB	098H
	DB	0ffH
	DB	050H
	DB	050H
	DB	050H
	DB	0ffH
	DB	048H
	DB	048H
	DB	048H
	DB	0ffH
	DB	048H
	DB	048H
	DB	048H
	DB	0ffH
	DB	058H
	DB	05cH
	DB	058H
	DB	0ffH
	DB	098H
	DB	09cH
	DB	098H
	DB	0ffH
	DB	0a0H
	DB	09cH
	DB	0a0H
	DB	0ffH
	DB	058H
	DB	058H
	DB	058H
	DB	0ffH
	DB	048H
	DB	048H
	DB	048H
	DB	0ffH
	DB	048H
	DB	048H
	DB	048H
	DB	0ffH
	DB	088H
	DB	084H
	DB	088H
	DB	0ffH
	DB	098H
	DB	09cH
	DB	098H
	DB	0ffH
	DB	060H
	DB	060H
	DB	060H
	DB	0ffH
	DB	048H
	DB	048H
	DB	048H
	DB	0ffH
	DB	048H
	DB	048H
	DB	048H
	DB	0ffH
	DB	048H
	DB	048H
	DB	048H
	DB	0ffH
	DB	048H
	DB	048H
	DB	048H
	DB	0ffH
	DB	048H
	DB	048H
	DB	048H
	DB	0ffH
	DB	068H
	DB	068H
	DB	068H
	DB	0ffH
	DB	098H
	DB	09cH
	DB	098H
	DB	0ffH
	DB	080H
	DB	080H
	DB	080H
	DB	0ffH
	DB	048H
	DB	048H
	DB	048H
	DB	0ffH
	DB	048H
	DB	048H
	DB	048H
	DB	0ffH
	DB	048H
	DB	048H
	DB	048H
	DB	0ffH
	DB	048H
	DB	048H
	DB	048H
	DB	0ffH
	DB	048H
	DB	048H
	DB	048H
	DB	0ffH
	DB	048H
	DB	048H
	DB	048H
	DB	0ffH
	DB	048H
	DB	048H
	DB	048H
	DB	0ffH
	DB	048H
	DB	048H
	DB	048H
	DB	0ffH
	DB	048H
	DB	048H
	DB	048H
	DB	0ffH
	DB	048H
	DB	048H
	DB	048H
	DB	0ffH
	DB	040H
	DB	048H
	DB	040H
	DB	0ffH
	DB	048H
	DB	048H
	DB	048H
	DB	0ffH
	DB	048H
	DB	048H
	DB	048H
	DB	0ffH
	DB	048H
	DB	048H
	DB	048H
	DB	0ffH
	DB	048H
	DB	048H
	DB	048H
	DB	0ffH
	DB	048H
	DB	048H
	DB	048H
	DB	0ffH
	DB	048H
	DB	044H
	DB	048H
	DB	0ffH
	DB	040H
	DB	044H
	DB	040H
	DB	0ffH
	DB	040H
	DB	03cH
	DB	040H
	DB	0ffH
	DB	00H
	DB	00H
	DB	00H
	DB	0ffH
	DB	00H
	DB	00H
	DB	00H
	DB	0ffH
	DB	078H
	DB	07cH
	DB	078H
	DB	0ffH
	DB	070H
	DB	070H
	DB	070H
	DB	0ffH
	DB	070H
	DB	06cH
	DB	070H
	DB	0ffH
	DB	068H
	DB	06cH
	DB	068H
	DB	0ffH
	DB	068H
	DB	06cH
	DB	068H
	DB	0ffH
	DB	068H
	DB	06cH
	DB	068H
	DB	0ffH
	DB	068H
	DB	06cH
	DB	068H
	DB	0ffH
	DB	068H
	DB	06cH
	DB	068H
	DB	0ffH
	DB	068H
	DB	06cH
	DB	068H
	DB	0ffH
	DB	068H
	DB	06cH
	DB	068H
	DB	0ffH
	DB	068H
	DB	06cH
	DB	068H
	DB	0ffH
	DB	068H
	DB	06cH
	DB	068H
	DB	0ffH
	DB	068H
	DB	06cH
	DB	068H
	DB	0ffH
	DB	068H
	DB	06cH
	DB	068H
	DB	0ffH
	DB	068H
	DB	06cH
	DB	068H
	DB	0ffH
	DB	068H
	DB	06cH
	DB	068H
	DB	0ffH
	DB	068H
	DB	068H
	DB	068H
	DB	0ffH
	DB	068H
	DB	068H
	DB	068H
	DB	0ffH
	DB	050H
	DB	050H
	DB	050H
	DB	0ffH
	DB	028H
	DB	02cH
	DB	028H
	DB	0ffH
	DB	030H
	DB	030H
	DB	030H
	DB	0ffH
	DB	058H
	DB	05cH
	DB	058H
	DB	0ffH
	DB	068H
	DB	064H
	DB	068H
	DB	0ffH
	DB	060H
	DB	064H
	DB	060H
	DB	0ffH
	DB	058H
	DB	054H
	DB	058H
	DB	0ffH
	DB	028H
	DB	02cH
	DB	028H
	DB	0ffH
	DB	028H
	DB	02cH
	DB	028H
	DB	0ffH
	DB	058H
	DB	058H
	DB	058H
	DB	0ffH
	DB	068H
	DB	064H
	DB	068H
	DB	0ffH
	DB	068H
	DB	064H
	DB	068H
	DB	0ffH
	DB	038H
	DB	038H
	DB	038H
	DB	0ffH
	DB	028H
	DB	028H
	DB	028H
	DB	0ffH
	DB	058H
	DB	05cH
	DB	058H
	DB	0ffH
	DB	060H
	DB	064H
	DB	060H
	DB	0ffH
	DB	060H
	DB	060H
	DB	060H
	DB	0ffH
	DB	030H
	DB	02cH
	DB	030H
	DB	0ffH
	DB	028H
	DB	028H
	DB	028H
	DB	0ffH
	DB	030H
	DB	030H
	DB	030H
	DB	0ffH
	DB	028H
	DB	028H
	DB	028H
	DB	0ffH
	DB	060H
	DB	05cH
	DB	060H
	DB	0ffH
	DB	068H
	DB	068H
	DB	068H
	DB	0ffH
	DB	068H
	DB	068H
	DB	068H
	DB	0ffH
	DB	068H
	DB	06cH
	DB	068H
	DB	0ffH
	DB	068H
	DB	06cH
	DB	068H
	DB	0ffH
	DB	068H
	DB	06cH
	DB	068H
	DB	0ffH
	DB	068H
	DB	06cH
	DB	068H
	DB	0ffH
	DB	068H
	DB	06cH
	DB	068H
	DB	0ffH
	DB	068H
	DB	06cH
	DB	068H
	DB	0ffH
	DB	068H
	DB	06cH
	DB	068H
	DB	0ffH
	DB	068H
	DB	06cH
	DB	068H
	DB	0ffH
	DB	068H
	DB	06cH
	DB	068H
	DB	0ffH
	DB	068H
	DB	06cH
	DB	068H
	DB	0ffH
	DB	068H
	DB	06cH
	DB	068H
	DB	0ffH
	DB	068H
	DB	06cH
	DB	068H
	DB	0ffH
	DB	070H
	DB	06cH
	DB	070H
	DB	0ffH
	DB	070H
	DB	070H
	DB	070H
	DB	0ffH
	DB	078H
	DB	07cH
	DB	078H
	DB	0ffH
	DB	00H
	DB	00H
	DB	00H
	DB	0ffH
	DB	00H
	DB	00H
	DB	00H
	DB	0ffH
	DB	00H
	DB	00H
	DB	00H
	DB	0ffH
	DB	060H
	DB	060H
	DB	060H
	DB	0ffH
	DB	060H
	DB	064H
	DB	060H
	DB	0ffH
	DB	060H
	DB	060H
	DB	060H
	DB	0ffH
	DB	060H
	DB	064H
	DB	060H
	DB	0ffH
	DB	068H
	DB	064H
	DB	068H
	DB	0ffH
	DB	060H
	DB	064H
	DB	060H
	DB	0ffH
	DB	00H
	DB	00H
	DB	00H
	DB	0ffH
	DB	00H
	DB	00H
	DB	00H
	DB	0ffH
	DB	00H
	DB	00H
	DB	00H
	DB	0ffH
	DB	040H
	DB	03cH
	DB	040H
	DB	0ffH
	DB	040H
	DB	044H
	DB	040H
	DB	0ffH
	DB	048H
	DB	048H
	DB	048H
	DB	0ffH
	DB	048H
	DB	048H
	DB	048H
	DB	0ffH
	DB	048H
	DB	048H
	DB	048H
	DB	0ffH
	DB	048H
	DB	048H
	DB	048H
	DB	0ffH
	DB	048H
	DB	048H
	DB	048H
	DB	0ffH
	DB	048H
	DB	048H
	DB	048H
	DB	0ffH
	DB	048H
	DB	048H
	DB	048H
	DB	0ffH
	DB	048H
	DB	048H
	DB	048H
	DB	0ffH
	DB	048H
	DB	048H
	DB	048H
	DB	0ffH
	DB	048H
	DB	048H
	DB	048H
	DB	0ffH
	DB	048H
	DB	048H
	DB	048H
	DB	0ffH
	DB	048H
	DB	048H
	DB	048H
	DB	0ffH
	DB	048H
	DB	048H
	DB	048H
	DB	0ffH
	DB	048H
	DB	048H
	DB	048H
	DB	0ffH
	DB	088H
	DB	088H
	DB	088H
	DB	0ffH
	DB	098H
	DB	09cH
	DB	098H
	DB	0ffH
	DB	098H
	DB	094H
	DB	098H
	DB	0ffH
	DB	088H
	DB	084H
	DB	088H
	DB	0ffH
	DB	088H
	DB	084H
	DB	088H
	DB	0ffH
	DB	098H
	DB	09cH
	DB	098H
	DB	0ffH
	DB	098H
	DB	09cH
	DB	098H
	DB	0ffH
	DB	078H
	DB	078H
	DB	078H
	DB	0ffH
	DB	048H
	DB	048H
	DB	048H
	DB	0ffH
	DB	048H
	DB	048H
	DB	048H
	DB	0ffH
	DB	048H
	DB	048H
	DB	048H
	DB	0ffH
	DB	088H
	DB	084H
	DB	088H
	DB	0ffH
	DB	098H
	DB	09cH
	DB	098H
	DB	0ffH
	DB	068H
	DB	064H
	DB	068H
	DB	0ffH
	DB	048H
	DB	048H
	DB	048H
	DB	0ffH
	DB	048H
	DB	048H
	DB	048H
	DB	0ffH
	DB	048H
	DB	048H
	DB	048H
	DB	0ffH
	DB	048H
	DB	048H
	DB	048H
	DB	0ffH
	DB	048H
	DB	048H
	DB	048H
	DB	0ffH
	DB	068H
	DB	068H
	DB	068H
	DB	0ffH
	DB	098H
	DB	09cH
	DB	098H
	DB	0ffH
	DB	080H
	DB	080H
	DB	080H
	DB	0ffH
	DB	048H
	DB	048H
	DB	048H
	DB	0ffH
	DB	048H
	DB	048H
	DB	048H
	DB	0ffH
	DB	048H
	DB	048H
	DB	048H
	DB	0ffH
	DB	048H
	DB	048H
	DB	048H
	DB	0ffH
	DB	048H
	DB	048H
	DB	048H
	DB	0ffH
	DB	048H
	DB	048H
	DB	048H
	DB	0ffH
	DB	048H
	DB	048H
	DB	048H
	DB	0ffH
	DB	048H
	DB	048H
	DB	048H
	DB	0ffH
	DB	048H
	DB	048H
	DB	048H
	DB	0ffH
	DB	048H
	DB	048H
	DB	048H
	DB	0ffH
	DB	048H
	DB	048H
	DB	048H
	DB	0ffH
	DB	048H
	DB	048H
	DB	048H
	DB	0ffH
	DB	048H
	DB	048H
	DB	048H
	DB	0ffH
	DB	048H
	DB	048H
	DB	048H
	DB	0ffH
	DB	048H
	DB	048H
	DB	048H
	DB	0ffH
	DB	048H
	DB	048H
	DB	048H
	DB	0ffH
	DB	048H
	DB	048H
	DB	048H
	DB	0ffH
	DB	040H
	DB	044H
	DB	040H
	DB	0ffH
	DB	040H
	DB	03cH
	DB	040H
	DB	0ffH
	DB	00H
	DB	00H
	DB	00H
	DB	0ffH
	DB	00H
	DB	00H
	DB	00H
	DB	0ffH
	DB	078H
	DB	078H
	DB	078H
	DB	0ffH
	DB	070H
	DB	06cH
	DB	070H
	DB	0ffH
	DB	068H
	DB	06cH
	DB	068H
	DB	0ffH
	DB	068H
	DB	068H
	DB	068H
	DB	0ffH
	DB	068H
	DB	068H
	DB	068H
	DB	0ffH
	DB	068H
	DB	068H
	DB	068H
	DB	0ffH
	DB	068H
	DB	068H
	DB	068H
	DB	0ffH
	DB	068H
	DB	068H
	DB	068H
	DB	0ffH
	DB	068H
	DB	068H
	DB	068H
	DB	0ffH
	DB	068H
	DB	068H
	DB	068H
	DB	0ffH
	DB	068H
	DB	068H
	DB	068H
	DB	0ffH
	DB	068H
	DB	068H
	DB	068H
	DB	0ffH
	DB	068H
	DB	068H
	DB	068H
	DB	0ffH
	DB	068H
	DB	068H
	DB	068H
	DB	0ffH
	DB	068H
	DB	068H
	DB	068H
	DB	0ffH
	DB	068H
	DB	068H
	DB	068H
	DB	0ffH
	DB	068H
	DB	068H
	DB	068H
	DB	0ffH
	DB	068H
	DB	068H
	DB	068H
	DB	0ffH
	DB	068H
	DB	064H
	DB	068H
	DB	0ffH
	DB	038H
	DB	034H
	DB	038H
	DB	0ffH
	DB	028H
	DB	02cH
	DB	028H
	DB	0ffH
	DB	030H
	DB	02cH
	DB	030H
	DB	0ffH
	DB	038H
	DB	038H
	DB	038H
	DB	0ffH
	DB	038H
	DB	038H
	DB	038H
	DB	0ffH
	DB	028H
	DB	028H
	DB	028H
	DB	0ffH
	DB	028H
	DB	028H
	DB	028H
	DB	0ffH
	DB	040H
	DB	040H
	DB	040H
	DB	0ffH
	DB	068H
	DB	064H
	DB	068H
	DB	0ffH
	DB	060H
	DB	064H
	DB	060H
	DB	0ffH
	DB	068H
	DB	064H
	DB	068H
	DB	0ffH
	DB	038H
	DB	038H
	DB	038H
	DB	0ffH
	DB	028H
	DB	02cH
	DB	028H
	DB	0ffH
	DB	060H
	DB	05cH
	DB	060H
	DB	0ffH
	DB	068H
	DB	064H
	DB	068H
	DB	0ffH
	DB	060H
	DB	064H
	DB	060H
	DB	0ffH
	DB	048H
	DB	04cH
	DB	048H
	DB	0ffH
	DB	028H
	DB	028H
	DB	028H
	DB	0ffH
	DB	028H
	DB	02cH
	DB	028H
	DB	0ffH
	DB	028H
	DB	028H
	DB	028H
	DB	0ffH
	DB	058H
	DB	05cH
	DB	058H
	DB	0ffH
	DB	068H
	DB	064H
	DB	068H
	DB	0ffH
	DB	068H
	DB	068H
	DB	068H
	DB	0ffH
	DB	068H
	DB	068H
	DB	068H
	DB	0ffH
	DB	068H
	DB	068H
	DB	068H
	DB	0ffH
	DB	068H
	DB	068H
	DB	068H
	DB	0ffH
	DB	068H
	DB	068H
	DB	068H
	DB	0ffH
	DB	068H
	DB	068H
	DB	068H
	DB	0ffH
	DB	068H
	DB	068H
	DB	068H
	DB	0ffH
	DB	068H
	DB	068H
	DB	068H
	DB	0ffH
	DB	068H
	DB	068H
	DB	068H
	DB	0ffH
	DB	068H
	DB	068H
	DB	068H
	DB	0ffH
	DB	068H
	DB	068H
	DB	068H
	DB	0ffH
	DB	068H
	DB	068H
	DB	068H
	DB	0ffH
	DB	068H
	DB	068H
	DB	068H
	DB	0ffH
	DB	068H
	DB	06cH
	DB	068H
	DB	0ffH
	DB	070H
	DB	06cH
	DB	070H
	DB	0ffH
	DB	078H
	DB	078H
	DB	078H
	DB	0ffH
	DB	00H
	DB	00H
	DB	00H
	DB	0ffH
	DB	00H
	DB	00H
	DB	00H
	DB	0ffH
	DB	00H
	DB	00H
	DB	00H
	DB	0ffH
	DB	060H
	DB	064H
	DB	060H
	DB	0ffH
	DB	068H
	DB	064H
	DB	068H
	DB	0ffH
	DB	060H
	DB	064H
	DB	060H
	DB	0ffH
	DB	068H
	DB	064H
	DB	068H
	DB	0ffH
	DB	068H
	DB	068H
	DB	068H
	DB	0ffH
	DB	068H
	DB	064H
	DB	068H
	DB	0ffH
	DB	00H
	DB	00H
	DB	00H
	DB	0ffH
	DB	00H
	DB	00H
	DB	00H
	DB	0ffH
	DB	00H
	DB	00H
	DB	00H
	DB	0ffH
	DB	040H
	DB	040H
	DB	040H
	DB	0ffH
	DB	040H
	DB	044H
	DB	040H
	DB	0ffH
	DB	048H
	DB	048H
	DB	048H
	DB	0ffH
	DB	048H
	DB	048H
	DB	048H
	DB	0ffH
	DB	048H
	DB	048H
	DB	048H
	DB	0ffH
	DB	048H
	DB	048H
	DB	048H
	DB	0ffH
	DB	048H
	DB	048H
	DB	048H
	DB	0ffH
	DB	048H
	DB	048H
	DB	048H
	DB	0ffH
	DB	048H
	DB	048H
	DB	048H
	DB	0ffH
	DB	048H
	DB	048H
	DB	048H
	DB	0ffH
	DB	048H
	DB	048H
	DB	048H
	DB	0ffH
	DB	048H
	DB	048H
	DB	048H
	DB	0ffH
	DB	048H
	DB	048H
	DB	048H
	DB	0ffH
	DB	048H
	DB	048H
	DB	048H
	DB	0ffH
	DB	048H
	DB	048H
	DB	048H
	DB	0ffH
	DB	048H
	DB	048H
	DB	048H
	DB	0ffH
	DB	050H
	DB	04cH
	DB	050H
	DB	0ffH
	DB	078H
	DB	074H
	DB	078H
	DB	0ffH
	DB	098H
	DB	098H
	DB	098H
	DB	0ffH
	DB	098H
	DB	09cH
	DB	098H
	DB	0ffH
	DB	098H
	DB	09cH
	DB	098H
	DB	0ffH
	DB	090H
	DB	090H
	DB	090H
	DB	0ffH
	DB	068H
	DB	068H
	DB	068H
	DB	0ffH
	DB	048H
	DB	048H
	DB	048H
	DB	0ffH
	DB	048H
	DB	048H
	DB	048H
	DB	0ffH
	DB	048H
	DB	048H
	DB	048H
	DB	0ffH
	DB	048H
	DB	048H
	DB	048H
	DB	0ffH
	DB	088H
	DB	084H
	DB	088H
	DB	0ffH
	DB	098H
	DB	09cH
	DB	098H
	DB	0ffH
	DB	068H
	DB	064H
	DB	068H
	DB	0ffH
	DB	048H
	DB	048H
	DB	048H
	DB	0ffH
	DB	048H
	DB	048H
	DB	048H
	DB	0ffH
	DB	048H
	DB	048H
	DB	048H
	DB	0ffH
	DB	048H
	DB	048H
	DB	048H
	DB	0ffH
	DB	048H
	DB	048H
	DB	048H
	DB	0ffH
	DB	068H
	DB	068H
	DB	068H
	DB	0ffH
	DB	0a0H
	DB	09cH
	DB	0a0H
	DB	0ffH
	DB	080H
	DB	080H
	DB	080H
	DB	0ffH
	DB	048H
	DB	048H
	DB	048H
	DB	0ffH
	DB	048H
	DB	048H
	DB	048H
	DB	0ffH
	DB	048H
	DB	048H
	DB	048H
	DB	0ffH
	DB	048H
	DB	048H
	DB	048H
	DB	0ffH
	DB	048H
	DB	048H
	DB	048H
	DB	0ffH
	DB	048H
	DB	048H
	DB	048H
	DB	0ffH
	DB	048H
	DB	048H
	DB	048H
	DB	0ffH
	DB	048H
	DB	048H
	DB	048H
	DB	0ffH
	DB	048H
	DB	048H
	DB	048H
	DB	0ffH
	DB	048H
	DB	048H
	DB	048H
	DB	0ffH
	DB	048H
	DB	048H
	DB	048H
	DB	0ffH
	DB	048H
	DB	048H
	DB	048H
	DB	0ffH
	DB	048H
	DB	048H
	DB	048H
	DB	0ffH
	DB	048H
	DB	048H
	DB	048H
	DB	0ffH
	DB	048H
	DB	048H
	DB	048H
	DB	0ffH
	DB	048H
	DB	048H
	DB	048H
	DB	0ffH
	DB	048H
	DB	048H
	DB	048H
	DB	0ffH
	DB	048H
	DB	044H
	DB	048H
	DB	0ffH
	DB	038H
	DB	03cH
	DB	038H
	DB	0ffH
	DB	00H
	DB	00H
	DB	00H
	DB	0ffH
	DB	00H
	DB	00H
	DB	00H
	DB	0ffH
	DB	078H
	DB	074H
	DB	078H
	DB	0ffH
	DB	068H
	DB	06cH
	DB	068H
	DB	0ffH
	DB	068H
	DB	068H
	DB	068H
	DB	0ffH
	DB	068H
	DB	068H
	DB	068H
	DB	0ffH
	DB	068H
	DB	068H
	DB	068H
	DB	0ffH
	DB	068H
	DB	068H
	DB	068H
	DB	0ffH
	DB	068H
	DB	068H
	DB	068H
	DB	0ffH
	DB	068H
	DB	068H
	DB	068H
	DB	0ffH
	DB	068H
	DB	068H
	DB	068H
	DB	0ffH
	DB	068H
	DB	068H
	DB	068H
	DB	0ffH
	DB	068H
	DB	068H
	DB	068H
	DB	0ffH
	DB	068H
	DB	068H
	DB	068H
	DB	0ffH
	DB	068H
	DB	068H
	DB	068H
	DB	0ffH
	DB	068H
	DB	068H
	DB	068H
	DB	0ffH
	DB	068H
	DB	068H
	DB	068H
	DB	0ffH
	DB	068H
	DB	068H
	DB	068H
	DB	0ffH
	DB	068H
	DB	068H
	DB	068H
	DB	0ffH
	DB	068H
	DB	064H
	DB	068H
	DB	0ffH
	DB	060H
	DB	064H
	DB	060H
	DB	0ffH
	DB	060H
	DB	05cH
	DB	060H
	DB	0ffH
	DB	040H
	DB	044H
	DB	040H
	DB	0ffH
	DB	030H
	DB	02cH
	DB	030H
	DB	0ffH
	DB	028H
	DB	028H
	DB	028H
	DB	0ffH
	DB	028H
	DB	02cH
	DB	028H
	DB	0ffH
	DB	030H
	DB	030H
	DB	030H
	DB	0ffH
	DB	050H
	DB	04cH
	DB	050H
	DB	0ffH
	DB	060H
	DB	064H
	DB	060H
	DB	0ffH
	DB	068H
	DB	064H
	DB	068H
	DB	0ffH
	DB	060H
	DB	064H
	DB	060H
	DB	0ffH
	DB	060H
	DB	064H
	DB	060H
	DB	0ffH
	DB	038H
	DB	038H
	DB	038H
	DB	0ffH
	DB	028H
	DB	02cH
	DB	028H
	DB	0ffH
	DB	058H
	DB	05cH
	DB	058H
	DB	0ffH
	DB	068H
	DB	060H
	DB	068H
	DB	0ffH
	DB	060H
	DB	064H
	DB	060H
	DB	0ffH
	DB	060H
	DB	060H
	DB	060H
	DB	0ffH
	DB	030H
	DB	030H
	DB	030H
	DB	0ffH
	DB	030H
	DB	02cH
	DB	030H
	DB	0ffH
	DB	028H
	DB	02cH
	DB	028H
	DB	0ffH
	DB	060H
	DB	05cH
	DB	060H
	DB	0ffH
	DB	068H
	DB	064H
	DB	068H
	DB	0ffH
	DB	068H
	DB	068H
	DB	068H
	DB	0ffH
	DB	068H
	DB	068H
	DB	068H
	DB	0ffH
	DB	068H
	DB	068H
	DB	068H
	DB	0ffH
	DB	068H
	DB	068H
	DB	068H
	DB	0ffH
	DB	068H
	DB	068H
	DB	068H
	DB	0ffH
	DB	068H
	DB	068H
	DB	068H
	DB	0ffH
	DB	068H
	DB	068H
	DB	068H
	DB	0ffH
	DB	068H
	DB	068H
	DB	068H
	DB	0ffH
	DB	068H
	DB	068H
	DB	068H
	DB	0ffH
	DB	068H
	DB	068H
	DB	068H
	DB	0ffH
	DB	068H
	DB	068H
	DB	068H
	DB	0ffH
	DB	068H
	DB	068H
	DB	068H
	DB	0ffH
	DB	068H
	DB	068H
	DB	068H
	DB	0ffH
	DB	068H
	DB	068H
	DB	068H
	DB	0ffH
	DB	068H
	DB	06cH
	DB	068H
	DB	0ffH
	DB	078H
	DB	074H
	DB	078H
	DB	0ffH
	DB	00H
	DB	00H
	DB	00H
	DB	0ffH
	DB	00H
	DB	00H
	DB	00H
	DB	0ffH
	DB	00H
	DB	00H
	DB	00H
	DB	0ffH
	DB	068H
	DB	064H
	DB	068H
	DB	0ffH
	DB	068H
	DB	068H
	DB	068H
	DB	0ffH
	DB	068H
	DB	064H
	DB	068H
	DB	0ffH
	DB	068H
	DB	064H
	DB	068H
	DB	0ffH
	DB	068H
	DB	068H
	DB	068H
	DB	0ffH
	DB	068H
	DB	068H
	DB	068H
	DB	0ffH
	DB	00H
	DB	00H
	DB	00H
	DB	0ffH
	DB	00H
	DB	00H
	DB	00H
	DB	0ffH
	DB	00H
	DB	00H
	DB	00H
	DB	0ffH
	DB	040H
	DB	040H
	DB	040H
	DB	0ffH
	DB	048H
	DB	048H
	DB	048H
	DB	0ffH
	DB	048H
	DB	048H
	DB	048H
	DB	0ffH
	DB	048H
	DB	04cH
	DB	048H
	DB	0ffH
	DB	048H
	DB	048H
	DB	048H
	DB	0ffH
	DB	048H
	DB	04cH
	DB	048H
	DB	0ffH
	DB	048H
	DB	048H
	DB	048H
	DB	0ffH
	DB	048H
	DB	048H
	DB	048H
	DB	0ffH
	DB	048H
	DB	04cH
	DB	048H
	DB	0ffH
	DB	048H
	DB	048H
	DB	048H
	DB	0ffH
	DB	048H
	DB	048H
	DB	048H
	DB	0ffH
	DB	048H
	DB	04cH
	DB	048H
	DB	0ffH
	DB	048H
	DB	048H
	DB	048H
	DB	0ffH
	DB	048H
	DB	04cH
	DB	048H
	DB	0ffH
	DB	048H
	DB	04cH
	DB	048H
	DB	0ffH
	DB	048H
	DB	048H
	DB	048H
	DB	0ffH
	DB	048H
	DB	04cH
	DB	048H
	DB	0ffH
	DB	048H
	DB	04cH
	DB	048H
	DB	0ffH
	DB	048H
	DB	048H
	DB	048H
	DB	0ffH
	DB	050H
	DB	050H
	DB	050H
	DB	0ffH
	DB	050H
	DB	050H
	DB	050H
	DB	0ffH
	DB	048H
	DB	048H
	DB	048H
	DB	0ffH
	DB	050H
	DB	04cH
	DB	050H
	DB	0ffH
	DB	048H
	DB	04cH
	DB	048H
	DB	0ffH
	DB	048H
	DB	04cH
	DB	048H
	DB	0ffH
	DB	048H
	DB	04cH
	DB	048H
	DB	0ffH
	DB	048H
	DB	048H
	DB	048H
	DB	0ffH
	DB	048H
	DB	04cH
	DB	048H
	DB	0ffH
	DB	048H
	DB	048H
	DB	048H
	DB	0ffH
	DB	048H
	DB	048H
	DB	048H
	DB	0ffH
	DB	048H
	DB	04cH
	DB	048H
	DB	0ffH
	DB	048H
	DB	048H
	DB	048H
	DB	0ffH
	DB	048H
	DB	048H
	DB	048H
	DB	0ffH
	DB	048H
	DB	04cH
	DB	048H
	DB	0ffH
	DB	048H
	DB	048H
	DB	048H
	DB	0ffH
	DB	048H
	DB	048H
	DB	048H
	DB	0ffH
	DB	048H
	DB	048H
	DB	048H
	DB	0ffH
	DB	048H
	DB	048H
	DB	048H
	DB	0ffH
	DB	048H
	DB	048H
	DB	048H
	DB	0ffH
	DB	048H
	DB	048H
	DB	048H
	DB	0ffH
	DB	048H
	DB	048H
	DB	048H
	DB	0ffH
	DB	048H
	DB	04cH
	DB	048H
	DB	0ffH
	DB	048H
	DB	048H
	DB	048H
	DB	0ffH
	DB	048H
	DB	048H
	DB	048H
	DB	0ffH
	DB	048H
	DB	04cH
	DB	048H
	DB	0ffH
	DB	048H
	DB	048H
	DB	048H
	DB	0ffH
	DB	048H
	DB	048H
	DB	048H
	DB	0ffH
	DB	048H
	DB	04cH
	DB	048H
	DB	0ffH
	DB	048H
	DB	048H
	DB	048H
	DB	0ffH
	DB	048H
	DB	048H
	DB	048H
	DB	0ffH
	DB	048H
	DB	04cH
	DB	048H
	DB	0ffH
	DB	048H
	DB	048H
	DB	048H
	DB	0ffH
	DB	048H
	DB	04cH
	DB	048H
	DB	0ffH
	DB	048H
	DB	048H
	DB	048H
	DB	0ffH
	DB	048H
	DB	048H
	DB	048H
	DB	0ffH
	DB	048H
	DB	048H
	DB	048H
	DB	0ffH
	DB	040H
	DB	040H
	DB	040H
	DB	0ffH
	DB	00H
	DB	00H
	DB	00H
	DB	0ffH
	DB	00H
	DB	00H
	DB	00H
	DB	0ffH
	DB	078H
	DB	074H
	DB	078H
	DB	0ffH
	DB	068H
	DB	06cH
	DB	068H
	DB	0ffH
	DB	068H
	DB	068H
	DB	068H
	DB	0ffH
	DB	068H
	DB	064H
	DB	068H
	DB	0ffH
	DB	068H
	DB	068H
	DB	068H
	DB	0ffH
	DB	068H
	DB	064H
	DB	068H
	DB	0ffH
	DB	068H
	DB	068H
	DB	068H
	DB	0ffH
	DB	068H
	DB	068H
	DB	068H
	DB	0ffH
	DB	068H
	DB	064H
	DB	068H
	DB	0ffH
	DB	068H
	DB	068H
	DB	068H
	DB	0ffH
	DB	068H
	DB	068H
	DB	068H
	DB	0ffH
	DB	068H
	DB	064H
	DB	068H
	DB	0ffH
	DB	068H
	DB	068H
	DB	068H
	DB	0ffH
	DB	068H
	DB	068H
	DB	068H
	DB	0ffH
	DB	068H
	DB	064H
	DB	068H
	DB	0ffH
	DB	068H
	DB	068H
	DB	068H
	DB	0ffH
	DB	068H
	DB	064H
	DB	068H
	DB	0ffH
	DB	068H
	DB	064H
	DB	068H
	DB	0ffH
	DB	060H
	DB	064H
	DB	060H
	DB	0ffH
	DB	060H
	DB	064H
	DB	060H
	DB	0ffH
	DB	060H
	DB	064H
	DB	060H
	DB	0ffH
	DB	060H
	DB	060H
	DB	060H
	DB	0ffH
	DB	060H
	DB	05cH
	DB	060H
	DB	0ffH
	DB	060H
	DB	05cH
	DB	060H
	DB	0ffH
	DB	060H
	DB	060H
	DB	060H
	DB	0ffH
	DB	060H
	DB	064H
	DB	060H
	DB	0ffH
	DB	068H
	DB	064H
	DB	068H
	DB	0ffH
	DB	060H
	DB	064H
	DB	060H
	DB	0ffH
	DB	068H
	DB	064H
	DB	068H
	DB	0ffH
	DB	068H
	DB	064H
	DB	068H
	DB	0ffH
	DB	060H
	DB	064H
	DB	060H
	DB	0ffH
	DB	068H
	DB	064H
	DB	068H
	DB	0ffH
	DB	068H
	DB	064H
	DB	068H
	DB	0ffH
	DB	060H
	DB	064H
	DB	060H
	DB	0ffH
	DB	068H
	DB	064H
	DB	068H
	DB	0ffH
	DB	068H
	DB	064H
	DB	068H
	DB	0ffH
	DB	060H
	DB	060H
	DB	060H
	DB	0ffH
	DB	060H
	DB	060H
	DB	060H
	DB	0ffH
	DB	060H
	DB	064H
	DB	060H
	DB	0ffH
	DB	060H
	DB	064H
	DB	060H
	DB	0ffH
	DB	068H
	DB	064H
	DB	068H
	DB	0ffH
	DB	068H
	DB	064H
	DB	068H
	DB	0ffH
	DB	068H
	DB	064H
	DB	068H
	DB	0ffH
	DB	068H
	DB	068H
	DB	068H
	DB	0ffH
	DB	068H
	DB	064H
	DB	068H
	DB	0ffH
	DB	068H
	DB	064H
	DB	068H
	DB	0ffH
	DB	068H
	DB	068H
	DB	068H
	DB	0ffH
	DB	068H
	DB	064H
	DB	068H
	DB	0ffH
	DB	068H
	DB	068H
	DB	068H
	DB	0ffH
	DB	068H
	DB	064H
	DB	068H
	DB	0ffH
	DB	068H
	DB	068H
	DB	068H
	DB	0ffH
	DB	068H
	DB	064H
	DB	068H
	DB	0ffH
	DB	068H
	DB	068H
	DB	068H
	DB	0ffH
	DB	068H
	DB	064H
	DB	068H
	DB	0ffH
	DB	068H
	DB	068H
	DB	068H
	DB	0ffH
	DB	068H
	DB	06cH
	DB	068H
	DB	0ffH
	DB	078H
	DB	074H
	DB	078H
	DB	0ffH
	DB	00H
	DB	00H
	DB	00H
	DB	0ffH
	DB	00H
	DB	00H
	DB	00H
	DB	0ffH
	DB	00H
	DB	00H
	DB	00H
	DB	0ffH
	DB	068H
	DB	064H
	DB	068H
	DB	0ffH
	DB	068H
	DB	068H
	DB	068H
	DB	0ffH
	DB	068H
	DB	068H
	DB	068H
	DB	0ffH
	DB	068H
	DB	068H
	DB	068H
	DB	0ffH
	DB	068H
	DB	06cH
	DB	068H
	DB	0ffH
	DB	068H
	DB	068H
	DB	068H
	DB	0ffH
	DB	00H
	DB	00H
	DB	00H
	DB	0ffH
	DB	00H
	DB	00H
	DB	00H
	DB	0ffH
	DB	00H
	DB	00H
	DB	00H
	DB	0ffH
	DB	040H
	DB	040H
	DB	040H
	DB	0ffH
	DB	048H
	DB	048H
	DB	048H
	DB	0ffH
	DB	048H
	DB	048H
	DB	048H
	DB	0ffH
	DB	048H
	DB	04cH
	DB	048H
	DB	0ffH
	DB	050H
	DB	04cH
	DB	050H
	DB	0ffH
	DB	048H
	DB	04cH
	DB	048H
	DB	0ffH
	DB	048H
	DB	04cH
	DB	048H
	DB	0ffH
	DB	050H
	DB	04cH
	DB	050H
	DB	0ffH
	DB	048H
	DB	04cH
	DB	048H
	DB	0ffH
	DB	048H
	DB	04cH
	DB	048H
	DB	0ffH
	DB	050H
	DB	04cH
	DB	050H
	DB	0ffH
	DB	048H
	DB	04cH
	DB	048H
	DB	0ffH
	DB	050H
	DB	04cH
	DB	050H
	DB	0ffH
	DB	048H
	DB	04cH
	DB	048H
	DB	0ffH
	DB	050H
	DB	04cH
	DB	050H
	DB	0ffH
	DB	050H
	DB	04cH
	DB	050H
	DB	0ffH
	DB	048H
	DB	04cH
	DB	048H
	DB	0ffH
	DB	048H
	DB	04cH
	DB	048H
	DB	0ffH
	DB	050H
	DB	04cH
	DB	050H
	DB	0ffH
	DB	048H
	DB	04cH
	DB	048H
	DB	0ffH
	DB	048H
	DB	04cH
	DB	048H
	DB	0ffH
	DB	050H
	DB	04cH
	DB	050H
	DB	0ffH
	DB	048H
	DB	04cH
	DB	048H
	DB	0ffH
	DB	050H
	DB	04cH
	DB	050H
	DB	0ffH
	DB	050H
	DB	04cH
	DB	050H
	DB	0ffH
	DB	048H
	DB	04cH
	DB	048H
	DB	0ffH
	DB	050H
	DB	04cH
	DB	050H
	DB	0ffH
	DB	048H
	DB	04cH
	DB	048H
	DB	0ffH
	DB	050H
	DB	04cH
	DB	050H
	DB	0ffH
	DB	048H
	DB	04cH
	DB	048H
	DB	0ffH
	DB	050H
	DB	04cH
	DB	050H
	DB	0ffH
	DB	050H
	DB	04cH
	DB	050H
	DB	0ffH
	DB	048H
	DB	04cH
	DB	048H
	DB	0ffH
	DB	050H
	DB	04cH
	DB	050H
	DB	0ffH
	DB	050H
	DB	04cH
	DB	050H
	DB	0ffH
	DB	048H
	DB	04cH
	DB	048H
	DB	0ffH
	DB	050H
	DB	04cH
	DB	050H
	DB	0ffH
	DB	050H
	DB	04cH
	DB	050H
	DB	0ffH
	DB	048H
	DB	04cH
	DB	048H
	DB	0ffH
	DB	050H
	DB	04cH
	DB	050H
	DB	0ffH
	DB	050H
	DB	04cH
	DB	050H
	DB	0ffH
	DB	048H
	DB	04cH
	DB	048H
	DB	0ffH
	DB	048H
	DB	04cH
	DB	048H
	DB	0ffH
	DB	050H
	DB	04cH
	DB	050H
	DB	0ffH
	DB	048H
	DB	04cH
	DB	048H
	DB	0ffH
	DB	048H
	DB	04cH
	DB	048H
	DB	0ffH
	DB	050H
	DB	04cH
	DB	050H
	DB	0ffH
	DB	048H
	DB	04cH
	DB	048H
	DB	0ffH
	DB	048H
	DB	04cH
	DB	048H
	DB	0ffH
	DB	050H
	DB	04cH
	DB	050H
	DB	0ffH
	DB	048H
	DB	04cH
	DB	048H
	DB	0ffH
	DB	048H
	DB	04cH
	DB	048H
	DB	0ffH
	DB	048H
	DB	04cH
	DB	048H
	DB	0ffH
	DB	048H
	DB	04cH
	DB	048H
	DB	0ffH
	DB	048H
	DB	048H
	DB	048H
	DB	0ffH
	DB	048H
	DB	048H
	DB	048H
	DB	0ffH
	DB	040H
	DB	040H
	DB	040H
	DB	0ffH
	DB	00H
	DB	00H
	DB	00H
	DB	0ffH
	DB	00H
	DB	00H
	DB	00H
	DB	0ffH
	DB	070H
	DB	074H
	DB	070H
	DB	0ffH
	DB	068H
	DB	068H
	DB	068H
	DB	0ffH
	DB	068H
	DB	068H
	DB	068H
	DB	0ffH
	DB	068H
	DB	064H
	DB	068H
	DB	0ffH
	DB	068H
	DB	064H
	DB	068H
	DB	0ffH
	DB	060H
	DB	064H
	DB	060H
	DB	0ffH
	DB	068H
	DB	064H
	DB	068H
	DB	0ffH
	DB	068H
	DB	064H
	DB	068H
	DB	0ffH
	DB	060H
	DB	064H
	DB	060H
	DB	0ffH
	DB	068H
	DB	064H
	DB	068H
	DB	0ffH
	DB	068H
	DB	064H
	DB	068H
	DB	0ffH
	DB	060H
	DB	064H
	DB	060H
	DB	0ffH
	DB	068H
	DB	064H
	DB	068H
	DB	0ffH
	DB	068H
	DB	064H
	DB	068H
	DB	0ffH
	DB	060H
	DB	064H
	DB	060H
	DB	0ffH
	DB	068H
	DB	064H
	DB	068H
	DB	0ffH
	DB	060H
	DB	064H
	DB	060H
	DB	0ffH
	DB	068H
	DB	064H
	DB	068H
	DB	0ffH
	DB	068H
	DB	064H
	DB	068H
	DB	0ffH
	DB	060H
	DB	064H
	DB	060H
	DB	0ffH
	DB	068H
	DB	064H
	DB	068H
	DB	0ffH
	DB	060H
	DB	064H
	DB	060H
	DB	0ffH
	DB	060H
	DB	064H
	DB	060H
	DB	0ffH
	DB	060H
	DB	064H
	DB	060H
	DB	0ffH
	DB	060H
	DB	064H
	DB	060H
	DB	0ffH
	DB	060H
	DB	064H
	DB	060H
	DB	0ffH
	DB	068H
	DB	064H
	DB	068H
	DB	0ffH
	DB	060H
	DB	064H
	DB	060H
	DB	0ffH
	DB	068H
	DB	064H
	DB	068H
	DB	0ffH
	DB	068H
	DB	064H
	DB	068H
	DB	0ffH
	DB	060H
	DB	064H
	DB	060H
	DB	0ffH
	DB	060H
	DB	064H
	DB	060H
	DB	0ffH
	DB	068H
	DB	064H
	DB	068H
	DB	0ffH
	DB	060H
	DB	064H
	DB	060H
	DB	0ffH
	DB	060H
	DB	064H
	DB	060H
	DB	0ffH
	DB	068H
	DB	064H
	DB	068H
	DB	0ffH
	DB	060H
	DB	064H
	DB	060H
	DB	0ffH
	DB	068H
	DB	064H
	DB	068H
	DB	0ffH
	DB	060H
	DB	064H
	DB	060H
	DB	0ffH
	DB	068H
	DB	064H
	DB	068H
	DB	0ffH
	DB	060H
	DB	064H
	DB	060H
	DB	0ffH
	DB	060H
	DB	064H
	DB	060H
	DB	0ffH
	DB	068H
	DB	064H
	DB	068H
	DB	0ffH
	DB	060H
	DB	064H
	DB	060H
	DB	0ffH
	DB	068H
	DB	064H
	DB	068H
	DB	0ffH
	DB	068H
	DB	064H
	DB	068H
	DB	0ffH
	DB	060H
	DB	064H
	DB	060H
	DB	0ffH
	DB	068H
	DB	064H
	DB	068H
	DB	0ffH
	DB	068H
	DB	064H
	DB	068H
	DB	0ffH
	DB	068H
	DB	064H
	DB	068H
	DB	0ffH
	DB	068H
	DB	064H
	DB	068H
	DB	0ffH
	DB	068H
	DB	064H
	DB	068H
	DB	0ffH
	DB	068H
	DB	064H
	DB	068H
	DB	0ffH
	DB	068H
	DB	064H
	DB	068H
	DB	0ffH
	DB	068H
	DB	068H
	DB	068H
	DB	0ffH
	DB	068H
	DB	068H
	DB	068H
	DB	0ffH
	DB	078H
	DB	074H
	DB	078H
	DB	0ffH
	DB	00H
	DB	00H
	DB	00H
	DB	0ffH
	DB	00H
	DB	00H
	DB	00H
	DB	0ffH
	DB	00H
	DB	00H
	DB	00H
	DB	0ffH
	DB	068H
	DB	068H
	DB	068H
	DB	0ffH
	DB	068H
	DB	06cH
	DB	068H
	DB	0ffH
	DB	068H
	DB	068H
	DB	068H
	DB	0ffH
	DB	068H
	DB	06cH
	DB	068H
	DB	0ffH
	DB	070H
	DB	06cH
	DB	070H
	DB	0ffH
	DB	068H
	DB	06cH
	DB	068H
	DB	0ffH
	DB	00H
	DB	00H
	DB	00H
	DB	0ffH
	DB	00H
	DB	00H
	DB	00H
	DB	0ffH
	DB	00H
	DB	00H
	DB	00H
	DB	0ffH
	DB	040H
	DB	040H
	DB	040H
	DB	0ffH
	DB	048H
	DB	048H
	DB	048H
	DB	0ffH
	DB	048H
	DB	04cH
	DB	048H
	DB	0ffH
	DB	050H
	DB	04cH
	DB	050H
	DB	0ffH
	DB	050H
	DB	04cH
	DB	050H
	DB	0ffH
	DB	050H
	DB	04cH
	DB	050H
	DB	0ffH
	DB	050H
	DB	04cH
	DB	050H
	DB	0ffH
	DB	050H
	DB	04cH
	DB	050H
	DB	0ffH
	DB	050H
	DB	04cH
	DB	050H
	DB	0ffH
	DB	050H
	DB	04cH
	DB	050H
	DB	0ffH
	DB	048H
	DB	04cH
	DB	048H
	DB	0ffH
	DB	050H
	DB	04cH
	DB	050H
	DB	0ffH
	DB	050H
	DB	04cH
	DB	050H
	DB	0ffH
	DB	048H
	DB	04cH
	DB	048H
	DB	0ffH
	DB	050H
	DB	04cH
	DB	050H
	DB	0ffH
	DB	050H
	DB	04cH
	DB	050H
	DB	0ffH
	DB	048H
	DB	04cH
	DB	048H
	DB	0ffH
	DB	050H
	DB	04cH
	DB	050H
	DB	0ffH
	DB	050H
	DB	04cH
	DB	050H
	DB	0ffH
	DB	048H
	DB	04cH
	DB	048H
	DB	0ffH
	DB	050H
	DB	04cH
	DB	050H
	DB	0ffH
	DB	050H
	DB	04cH
	DB	050H
	DB	0ffH
	DB	048H
	DB	04cH
	DB	048H
	DB	0ffH
	DB	050H
	DB	04cH
	DB	050H
	DB	0ffH
	DB	048H
	DB	04cH
	DB	048H
	DB	0ffH
	DB	050H
	DB	04cH
	DB	050H
	DB	0ffH
	DB	050H
	DB	04cH
	DB	050H
	DB	0ffH
	DB	050H
	DB	04cH
	DB	050H
	DB	0ffH
	DB	048H
	DB	04cH
	DB	048H
	DB	0ffH
	DB	050H
	DB	04cH
	DB	050H
	DB	0ffH
	DB	048H
	DB	04cH
	DB	048H
	DB	0ffH
	DB	050H
	DB	04cH
	DB	050H
	DB	0ffH
	DB	048H
	DB	04cH
	DB	048H
	DB	0ffH
	DB	050H
	DB	04cH
	DB	050H
	DB	0ffH
	DB	050H
	DB	04cH
	DB	050H
	DB	0ffH
	DB	048H
	DB	04cH
	DB	048H
	DB	0ffH
	DB	050H
	DB	04cH
	DB	050H
	DB	0ffH
	DB	050H
	DB	04cH
	DB	050H
	DB	0ffH
	DB	048H
	DB	04cH
	DB	048H
	DB	0ffH
	DB	050H
	DB	04cH
	DB	050H
	DB	0ffH
	DB	050H
	DB	04cH
	DB	050H
	DB	0ffH
	DB	048H
	DB	04cH
	DB	048H
	DB	0ffH
	DB	050H
	DB	04cH
	DB	050H
	DB	0ffH
	DB	050H
	DB	04cH
	DB	050H
	DB	0ffH
	DB	050H
	DB	04cH
	DB	050H
	DB	0ffH
	DB	048H
	DB	04cH
	DB	048H
	DB	0ffH
	DB	050H
	DB	04cH
	DB	050H
	DB	0ffH
	DB	050H
	DB	04cH
	DB	050H
	DB	0ffH
	DB	048H
	DB	04cH
	DB	048H
	DB	0ffH
	DB	050H
	DB	04cH
	DB	050H
	DB	0ffH
	DB	050H
	DB	04cH
	DB	050H
	DB	0ffH
	DB	050H
	DB	04cH
	DB	050H
	DB	0ffH
	DB	050H
	DB	04cH
	DB	050H
	DB	0ffH
	DB	050H
	DB	04cH
	DB	050H
	DB	0ffH
	DB	048H
	DB	04cH
	DB	048H
	DB	0ffH
	DB	048H
	DB	048H
	DB	048H
	DB	0ffH
	DB	040H
	DB	040H
	DB	040H
	DB	0ffH
	DB	00H
	DB	00H
	DB	00H
	DB	0ffH
	DB	00H
	DB	00H
	DB	00H
	DB	0ffH
	DB	070H
	DB	074H
	DB	070H
	DB	0ffH
	DB	068H
	DB	068H
	DB	068H
	DB	0ffH
	DB	068H
	DB	064H
	DB	068H
	DB	0ffH
	DB	060H
	DB	064H
	DB	060H
	DB	0ffH
	DB	060H
	DB	064H
	DB	060H
	DB	0ffH
	DB	060H
	DB	064H
	DB	060H
	DB	0ffH
	DB	068H
	DB	064H
	DB	068H
	DB	0ffH
	DB	060H
	DB	064H
	DB	060H
	DB	0ffH
	DB	060H
	DB	064H
	DB	060H
	DB	0ffH
	DB	060H
	DB	064H
	DB	060H
	DB	0ffH
	DB	060H
	DB	064H
	DB	060H
	DB	0ffH
	DB	060H
	DB	064H
	DB	060H
	DB	0ffH
	DB	060H
	DB	064H
	DB	060H
	DB	0ffH
	DB	060H
	DB	064H
	DB	060H
	DB	0ffH
	DB	068H
	DB	064H
	DB	068H
	DB	0ffH
	DB	060H
	DB	064H
	DB	060H
	DB	0ffH
	DB	060H
	DB	064H
	DB	060H
	DB	0ffH
	DB	060H
	DB	064H
	DB	060H
	DB	0ffH
	DB	068H
	DB	064H
	DB	068H
	DB	0ffH
	DB	068H
	DB	064H
	DB	068H
	DB	0ffH
	DB	060H
	DB	064H
	DB	060H
	DB	0ffH
	DB	060H
	DB	064H
	DB	060H
	DB	0ffH
	DB	068H
	DB	064H
	DB	068H
	DB	0ffH
	DB	068H
	DB	064H
	DB	068H
	DB	0ffH
	DB	060H
	DB	064H
	DB	060H
	DB	0ffH
	DB	068H
	DB	064H
	DB	068H
	DB	0ffH
	DB	068H
	DB	064H
	DB	068H
	DB	0ffH
	DB	060H
	DB	064H
	DB	060H
	DB	0ffH
	DB	060H
	DB	064H
	DB	060H
	DB	0ffH
	DB	068H
	DB	064H
	DB	068H
	DB	0ffH
	DB	060H
	DB	064H
	DB	060H
	DB	0ffH
	DB	068H
	DB	064H
	DB	068H
	DB	0ffH
	DB	060H
	DB	064H
	DB	060H
	DB	0ffH
	DB	068H
	DB	064H
	DB	068H
	DB	0ffH
	DB	068H
	DB	064H
	DB	068H
	DB	0ffH
	DB	060H
	DB	064H
	DB	060H
	DB	0ffH
	DB	060H
	DB	064H
	DB	060H
	DB	0ffH
	DB	068H
	DB	064H
	DB	068H
	DB	0ffH
	DB	060H
	DB	060H
	DB	060H
	DB	0ffH
	DB	068H
	DB	064H
	DB	068H
	DB	0ffH
	DB	060H
	DB	064H
	DB	060H
	DB	0ffH
	DB	068H
	DB	064H
	DB	068H
	DB	0ffH
	DB	060H
	DB	064H
	DB	060H
	DB	0ffH
	DB	060H
	DB	064H
	DB	060H
	DB	0ffH
	DB	060H
	DB	064H
	DB	060H
	DB	0ffH
	DB	068H
	DB	064H
	DB	068H
	DB	0ffH
	DB	060H
	DB	064H
	DB	060H
	DB	0ffH
	DB	060H
	DB	064H
	DB	060H
	DB	0ffH
	DB	060H
	DB	064H
	DB	060H
	DB	0ffH
	DB	060H
	DB	064H
	DB	060H
	DB	0ffH
	DB	060H
	DB	064H
	DB	060H
	DB	0ffH
	DB	060H
	DB	064H
	DB	060H
	DB	0ffH
	DB	060H
	DB	064H
	DB	060H
	DB	0ffH
	DB	060H
	DB	064H
	DB	060H
	DB	0ffH
	DB	068H
	DB	068H
	DB	068H
	DB	0ffH
	DB	068H
	DB	068H
	DB	068H
	DB	0ffH
	DB	070H
	DB	074H
	DB	070H
	DB	0ffH
	DB	00H
	DB	00H
	DB	00H
	DB	0ffH
	DB	00H
	DB	00H
	DB	00H
	DB	0ffH
	DB	00H
	DB	00H
	DB	00H
	DB	0ffH
	DB	068H
	DB	06cH
	DB	068H
	DB	0ffH
	DB	070H
	DB	06cH
	DB	070H
	DB	0ffH
	DB	068H
	DB	06cH
	DB	068H
	DB	0ffH
	DB	070H
	DB	06cH
	DB	070H
	DB	0ffH
	DB	070H
	DB	070H
	DB	070H
	DB	0ffH
	DB	070H
	DB	06cH
	DB	070H
	DB	0ffH
	DB	00H
	DB	00H
	DB	00H
	DB	0ffH
	DB	00H
	DB	00H
	DB	00H
	DB	0ffH
	DB	00H
	DB	00H
	DB	00H
	DB	0ffH
	DB	040H
	DB	044H
	DB	040H
	DB	0ffH
	DB	048H
	DB	048H
	DB	048H
	DB	0ffH
	DB	050H
	DB	04cH
	DB	050H
	DB	0ffH
	DB	050H
	DB	04cH
	DB	050H
	DB	0ffH
	DB	048H
	DB	04cH
	DB	048H
	DB	0ffH
	DB	048H
	DB	04cH
	DB	048H
	DB	0ffH
	DB	050H
	DB	04cH
	DB	050H
	DB	0ffH
	DB	048H
	DB	04cH
	DB	048H
	DB	0ffH
	DB	050H
	DB	04cH
	DB	050H
	DB	0ffH
	DB	050H
	DB	04cH
	DB	050H
	DB	0ffH
	DB	048H
	DB	04cH
	DB	048H
	DB	0ffH
	DB	050H
	DB	04cH
	DB	050H
	DB	0ffH
	DB	050H
	DB	04cH
	DB	050H
	DB	0ffH
	DB	048H
	DB	04cH
	DB	048H
	DB	0ffH
	DB	050H
	DB	04cH
	DB	050H
	DB	0ffH
	DB	050H
	DB	04cH
	DB	050H
	DB	0ffH
	DB	048H
	DB	04cH
	DB	048H
	DB	0ffH
	DB	050H
	DB	04cH
	DB	050H
	DB	0ffH
	DB	050H
	DB	04cH
	DB	050H
	DB	0ffH
	DB	050H
	DB	04cH
	DB	050H
	DB	0ffH
	DB	050H
	DB	04cH
	DB	050H
	DB	0ffH
	DB	048H
	DB	04cH
	DB	048H
	DB	0ffH
	DB	050H
	DB	04cH
	DB	050H
	DB	0ffH
	DB	050H
	DB	04cH
	DB	050H
	DB	0ffH
	DB	048H
	DB	04cH
	DB	048H
	DB	0ffH
	DB	050H
	DB	04cH
	DB	050H
	DB	0ffH
	DB	048H
	DB	04cH
	DB	048H
	DB	0ffH
	DB	050H
	DB	04cH
	DB	050H
	DB	0ffH
	DB	050H
	DB	04cH
	DB	050H
	DB	0ffH
	DB	048H
	DB	04cH
	DB	048H
	DB	0ffH
	DB	050H
	DB	04cH
	DB	050H
	DB	0ffH
	DB	050H
	DB	04cH
	DB	050H
	DB	0ffH
	DB	048H
	DB	04cH
	DB	048H
	DB	0ffH
	DB	050H
	DB	04cH
	DB	050H
	DB	0ffH
	DB	048H
	DB	04cH
	DB	048H
	DB	0ffH
	DB	050H
	DB	04cH
	DB	050H
	DB	0ffH
	DB	048H
	DB	04cH
	DB	048H
	DB	0ffH
	DB	050H
	DB	04cH
	DB	050H
	DB	0ffH
	DB	048H
	DB	04cH
	DB	048H
	DB	0ffH
	DB	050H
	DB	04cH
	DB	050H
	DB	0ffH
	DB	048H
	DB	04cH
	DB	048H
	DB	0ffH
	DB	050H
	DB	04cH
	DB	050H
	DB	0ffH
	DB	050H
	DB	04cH
	DB	050H
	DB	0ffH
	DB	048H
	DB	04cH
	DB	048H
	DB	0ffH
	DB	050H
	DB	04cH
	DB	050H
	DB	0ffH
	DB	050H
	DB	04cH
	DB	050H
	DB	0ffH
	DB	048H
	DB	04cH
	DB	048H
	DB	0ffH
	DB	050H
	DB	04cH
	DB	050H
	DB	0ffH
	DB	050H
	DB	04cH
	DB	050H
	DB	0ffH
	DB	048H
	DB	04cH
	DB	048H
	DB	0ffH
	DB	050H
	DB	04cH
	DB	050H
	DB	0ffH
	DB	050H
	DB	04cH
	DB	050H
	DB	0ffH
	DB	048H
	DB	04cH
	DB	048H
	DB	0ffH
	DB	050H
	DB	04cH
	DB	050H
	DB	0ffH
	DB	050H
	DB	04cH
	DB	050H
	DB	0ffH
	DB	048H
	DB	048H
	DB	048H
	DB	0ffH
	DB	040H
	DB	040H
	DB	040H
	DB	0ffH
	DB	00H
	DB	00H
	DB	00H
	DB	0ffH
	DB	00H
	DB	00H
	DB	00H
	DB	0ffH
	DB	070H
	DB	070H
	DB	070H
	DB	0ffH
	DB	068H
	DB	068H
	DB	068H
	DB	0ffH
	DB	068H
	DB	064H
	DB	068H
	DB	0ffH
	DB	060H
	DB	064H
	DB	060H
	DB	0ffH
	DB	060H
	DB	064H
	DB	060H
	DB	0ffH
	DB	068H
	DB	064H
	DB	068H
	DB	0ffH
	DB	060H
	DB	064H
	DB	060H
	DB	0ffH
	DB	060H
	DB	064H
	DB	060H
	DB	0ffH
	DB	068H
	DB	064H
	DB	068H
	DB	0ffH
	DB	068H
	DB	064H
	DB	068H
	DB	0ffH
	DB	060H
	DB	064H
	DB	060H
	DB	0ffH
	DB	068H
	DB	064H
	DB	068H
	DB	0ffH
	DB	060H
	DB	064H
	DB	060H
	DB	0ffH
	DB	060H
	DB	064H
	DB	060H
	DB	0ffH
	DB	068H
	DB	064H
	DB	068H
	DB	0ffH
	DB	060H
	DB	064H
	DB	060H
	DB	0ffH
	DB	060H
	DB	064H
	DB	060H
	DB	0ffH
	DB	068H
	DB	064H
	DB	068H
	DB	0ffH
	DB	060H
	DB	064H
	DB	060H
	DB	0ffH
	DB	060H
	DB	064H
	DB	060H
	DB	0ffH
	DB	060H
	DB	064H
	DB	060H
	DB	0ffH
	DB	068H
	DB	060H
	DB	068H
	DB	0ffH
	DB	060H
	DB	060H
	DB	060H
	DB	0ffH
	DB	060H
	DB	064H
	DB	060H
	DB	0ffH
	DB	060H
	DB	060H
	DB	060H
	DB	0ffH
	DB	068H
	DB	064H
	DB	068H
	DB	0ffH
	DB	060H
	DB	064H
	DB	060H
	DB	0ffH
	DB	060H
	DB	064H
	DB	060H
	DB	0ffH
	DB	060H
	DB	064H
	DB	060H
	DB	0ffH
	DB	060H
	DB	064H
	DB	060H
	DB	0ffH
	DB	068H
	DB	064H
	DB	068H
	DB	0ffH
	DB	060H
	DB	060H
	DB	060H
	DB	0ffH
	DB	060H
	DB	064H
	DB	060H
	DB	0ffH
	DB	060H
	DB	064H
	DB	060H
	DB	0ffH
	DB	068H
	DB	064H
	DB	068H
	DB	0ffH
	DB	060H
	DB	064H
	DB	060H
	DB	0ffH
	DB	060H
	DB	060H
	DB	060H
	DB	0ffH
	DB	060H
	DB	064H
	DB	060H
	DB	0ffH
	DB	068H
	DB	064H
	DB	068H
	DB	0ffH
	DB	060H
	DB	064H
	DB	060H
	DB	0ffH
	DB	060H
	DB	064H
	DB	060H
	DB	0ffH
	DB	068H
	DB	064H
	DB	068H
	DB	0ffH
	DB	060H
	DB	064H
	DB	060H
	DB	0ffH
	DB	060H
	DB	064H
	DB	060H
	DB	0ffH
	DB	068H
	DB	064H
	DB	068H
	DB	0ffH
	DB	060H
	DB	064H
	DB	060H
	DB	0ffH
	DB	060H
	DB	064H
	DB	060H
	DB	0ffH
	DB	068H
	DB	064H
	DB	068H
	DB	0ffH
	DB	060H
	DB	064H
	DB	060H
	DB	0ffH
	DB	060H
	DB	064H
	DB	060H
	DB	0ffH
	DB	068H
	DB	064H
	DB	068H
	DB	0ffH
	DB	060H
	DB	064H
	DB	060H
	DB	0ffH
	DB	060H
	DB	064H
	DB	060H
	DB	0ffH
	DB	060H
	DB	064H
	DB	060H
	DB	0ffH
	DB	068H
	DB	064H
	DB	068H
	DB	0ffH
	DB	068H
	DB	068H
	DB	068H
	DB	0ffH
	DB	070H
	DB	074H
	DB	070H
	DB	0ffH
	DB	00H
	DB	00H
	DB	00H
	DB	0ffH
	DB	00H
	DB	00H
	DB	00H
	DB	0ffH
	DB	00H
	DB	00H
	DB	00H
	DB	0ffH
	DB	070H
	DB	06cH
	DB	070H
	DB	0ffH
	DB	070H
	DB	070H
	DB	070H
	DB	0ffH
	DB	070H
	DB	06cH
	DB	070H
	DB	0ffH
	DB	070H
	DB	070H
	DB	070H
	DB	0ffH
	DB	070H
	DB	070H
	DB	070H
	DB	0ffH
	DB	070H
	DB	070H
	DB	070H
	DB	0ffH
	DB	00H
	DB	00H
	DB	00H
	DB	0ffH
	DB	00H
	DB	00H
	DB	00H
	DB	0ffH
	DB	00H
	DB	00H
	DB	00H
	DB	0ffH
	DB	040H
	DB	044H
	DB	040H
	DB	0ffH
	DB	048H
	DB	048H
	DB	048H
	DB	0ffH
	DB	050H
	DB	04cH
	DB	050H
	DB	0ffH
	DB	050H
	DB	050H
	DB	050H
	DB	0ffH
	DB	050H
	DB	050H
	DB	050H
	DB	0ffH
	DB	050H
	DB	04cH
	DB	050H
	DB	0ffH
	DB	050H
	DB	050H
	DB	050H
	DB	0ffH
	DB	048H
	DB	050H
	DB	048H
	DB	0ffH
	DB	050H
	DB	04cH
	DB	050H
	DB	0ffH
	DB	050H
	DB	050H
	DB	050H
	DB	0ffH
	DB	050H
	DB	050H
	DB	050H
	DB	0ffH
	DB	050H
	DB	04cH
	DB	050H
	DB	0ffH
	DB	050H
	DB	050H
	DB	050H
	DB	0ffH
	DB	050H
	DB	04cH
	DB	050H
	DB	0ffH
	DB	050H
	DB	04cH
	DB	050H
	DB	0ffH
	DB	050H
	DB	050H
	DB	050H
	DB	0ffH
	DB	050H
	DB	04cH
	DB	050H
	DB	0ffH
	DB	050H
	DB	04cH
	DB	050H
	DB	0ffH
	DB	048H
	DB	050H
	DB	048H
	DB	0ffH
	DB	050H
	DB	04cH
	DB	050H
	DB	0ffH
	DB	050H
	DB	04cH
	DB	050H
	DB	0ffH
	DB	050H
	DB	050H
	DB	050H
	DB	0ffH
	DB	050H
	DB	04cH
	DB	050H
	DB	0ffH
	DB	050H
	DB	04cH
	DB	050H
	DB	0ffH
	DB	050H
	DB	050H
	DB	050H
	DB	0ffH
	DB	050H
	DB	04cH
	DB	050H
	DB	0ffH
	DB	050H
	DB	04cH
	DB	050H
	DB	0ffH
	DB	050H
	DB	050H
	DB	050H
	DB	0ffH
	DB	050H
	DB	04cH
	DB	050H
	DB	0ffH
	DB	050H
	DB	050H
	DB	050H
	DB	0ffH
	DB	050H
	DB	050H
	DB	050H
	DB	0ffH
	DB	050H
	DB	04cH
	DB	050H
	DB	0ffH
	DB	050H
	DB	050H
	DB	050H
	DB	0ffH
	DB	050H
	DB	050H
	DB	050H
	DB	0ffH
	DB	050H
	DB	050H
	DB	050H
	DB	0ffH
	DB	050H
	DB	050H
	DB	050H
	DB	0ffH
	DB	050H
	DB	050H
	DB	050H
	DB	0ffH
	DB	050H
	DB	050H
	DB	050H
	DB	0ffH
	DB	050H
	DB	050H
	DB	050H
	DB	0ffH
	DB	050H
	DB	050H
	DB	050H
	DB	0ffH
	DB	050H
	DB	050H
	DB	050H
	DB	0ffH
	DB	050H
	DB	04cH
	DB	050H
	DB	0ffH
	DB	050H
	DB	050H
	DB	050H
	DB	0ffH
	DB	048H
	DB	050H
	DB	048H
	DB	0ffH
	DB	050H
	DB	04cH
	DB	050H
	DB	0ffH
	DB	050H
	DB	050H
	DB	050H
	DB	0ffH
	DB	050H
	DB	050H
	DB	050H
	DB	0ffH
	DB	050H
	DB	04cH
	DB	050H
	DB	0ffH
	DB	050H
	DB	050H
	DB	050H
	DB	0ffH
	DB	050H
	DB	050H
	DB	050H
	DB	0ffH
	DB	048H
	DB	04cH
	DB	048H
	DB	0ffH
	DB	050H
	DB	050H
	DB	050H
	DB	0ffH
	DB	050H
	DB	050H
	DB	050H
	DB	0ffH
	DB	050H
	DB	04cH
	DB	050H
	DB	0ffH
	DB	048H
	DB	04cH
	DB	048H
	DB	0ffH
	DB	048H
	DB	04cH
	DB	048H
	DB	0ffH
	DB	040H
	DB	040H
	DB	040H
	DB	0ffH
	DB	00H
	DB	00H
	DB	00H
	DB	0ffH
	DB	00H
	DB	00H
	DB	00H
	DB	0ffH
	DB	070H
	DB	074H
	DB	070H
	DB	0ffH
	DB	068H
	DB	068H
	DB	068H
	DB	0ffH
	DB	068H
	DB	064H
	DB	068H
	DB	0ffH
	DB	060H
	DB	064H
	DB	060H
	DB	0ffH
	DB	068H
	DB	064H
	DB	068H
	DB	0ffH
	DB	068H
	DB	064H
	DB	068H
	DB	0ffH
	DB	060H
	DB	064H
	DB	060H
	DB	0ffH
	DB	060H
	DB	064H
	DB	060H
	DB	0ffH
	DB	068H
	DB	064H
	DB	068H
	DB	0ffH
	DB	060H
	DB	064H
	DB	060H
	DB	0ffH
	DB	060H
	DB	064H
	DB	060H
	DB	0ffH
	DB	068H
	DB	064H
	DB	068H
	DB	0ffH
	DB	068H
	DB	064H
	DB	068H
	DB	0ffH
	DB	060H
	DB	064H
	DB	060H
	DB	0ffH
	DB	060H
	DB	064H
	DB	060H
	DB	0ffH
	DB	068H
	DB	064H
	DB	068H
	DB	0ffH
	DB	068H
	DB	064H
	DB	068H
	DB	0ffH
	DB	060H
	DB	064H
	DB	060H
	DB	0ffH
	DB	060H
	DB	064H
	DB	060H
	DB	0ffH
	DB	068H
	DB	064H
	DB	068H
	DB	0ffH
	DB	060H
	DB	064H
	DB	060H
	DB	0ffH
	DB	060H
	DB	064H
	DB	060H
	DB	0ffH
	DB	068H
	DB	064H
	DB	068H
	DB	0ffH
	DB	060H
	DB	064H
	DB	060H
	DB	0ffH
	DB	060H
	DB	064H
	DB	060H
	DB	0ffH
	DB	068H
	DB	060H
	DB	068H
	DB	0ffH
	DB	060H
	DB	064H
	DB	060H
	DB	0ffH
	DB	068H
	DB	060H
	DB	068H
	DB	0ffH
	DB	068H
	DB	064H
	DB	068H
	DB	0ffH
	DB	060H
	DB	064H
	DB	060H
	DB	0ffH
	DB	060H
	DB	060H
	DB	060H
	DB	0ffH
	DB	068H
	DB	064H
	DB	068H
	DB	0ffH
	DB	060H
	DB	064H
	DB	060H
	DB	0ffH
	DB	060H
	DB	060H
	DB	060H
	DB	0ffH
	DB	068H
	DB	064H
	DB	068H
	DB	0ffH
	DB	060H
	DB	064H
	DB	060H
	DB	0ffH
	DB	068H
	DB	064H
	DB	068H
	DB	0ffH
	DB	060H
	DB	060H
	DB	060H
	DB	0ffH
	DB	060H
	DB	064H
	DB	060H
	DB	0ffH
	DB	068H
	DB	064H
	DB	068H
	DB	0ffH
	DB	060H
	DB	060H
	DB	060H
	DB	0ffH
	DB	060H
	DB	064H
	DB	060H
	DB	0ffH
	DB	068H
	DB	064H
	DB	068H
	DB	0ffH
	DB	068H
	DB	064H
	DB	068H
	DB	0ffH
	DB	060H
	DB	064H
	DB	060H
	DB	0ffH
	DB	060H
	DB	064H
	DB	060H
	DB	0ffH
	DB	068H
	DB	064H
	DB	068H
	DB	0ffH
	DB	068H
	DB	064H
	DB	068H
	DB	0ffH
	DB	060H
	DB	064H
	DB	060H
	DB	0ffH
	DB	068H
	DB	064H
	DB	068H
	DB	0ffH
	DB	068H
	DB	064H
	DB	068H
	DB	0ffH
	DB	060H
	DB	064H
	DB	060H
	DB	0ffH
	DB	068H
	DB	064H
	DB	068H
	DB	0ffH
	DB	068H
	DB	064H
	DB	068H
	DB	0ffH
	DB	068H
	DB	064H
	DB	068H
	DB	0ffH
	DB	068H
	DB	068H
	DB	068H
	DB	0ffH
	DB	070H
	DB	074H
	DB	070H
	DB	0ffH
	DB	00H
	DB	00H
	DB	00H
	DB	0ffH
	DB	00H
	DB	00H
	DB	00H
	DB	0ffH
	DB	00H
	DB	00H
	DB	00H
	DB	0ffH
	DB	070H
	DB	070H
	DB	070H
	DB	0ffH
	DB	070H
	DB	070H
	DB	070H
	DB	0ffH
	DB	070H
	DB	070H
	DB	070H
	DB	0ffH
	DB	070H
	DB	070H
	DB	070H
	DB	0ffH
	DB	070H
	DB	074H
	DB	070H
	DB	0ffH
	DB	070H
	DB	070H
	DB	070H
	DB	0ffH
	DB	00H
	DB	00H
	DB	00H
	DB	0ffH
	DB	00H
	DB	00H
	DB	00H
	DB	0ffH
	DB	00H
	DB	00H
	DB	00H
	DB	0ffH
	DB	040H
	DB	03cH
	DB	040H
	DB	0ffH
	DB	048H
	DB	048H
	DB	048H
	DB	0ffH
	DB	048H
	DB	04cH
	DB	048H
	DB	0ffH
	DB	048H
	DB	04cH
	DB	048H
	DB	0ffH
	DB	050H
	DB	050H
	DB	050H
	DB	0ffH
	DB	050H
	DB	04cH
	DB	050H
	DB	0ffH
	DB	050H
	DB	050H
	DB	050H
	DB	0ffH
	DB	050H
	DB	04cH
	DB	050H
	DB	0ffH
	DB	048H
	DB	04cH
	DB	048H
	DB	0ffH
	DB	050H
	DB	050H
	DB	050H
	DB	0ffH
	DB	048H
	DB	04cH
	DB	048H
	DB	0ffH
	DB	050H
	DB	050H
	DB	050H
	DB	0ffH
	DB	048H
	DB	050H
	DB	048H
	DB	0ffH
	DB	050H
	DB	04cH
	DB	050H
	DB	0ffH
	DB	048H
	DB	050H
	DB	048H
	DB	0ffH
	DB	048H
	DB	050H
	DB	048H
	DB	0ffH
	DB	050H
	DB	04cH
	DB	050H
	DB	0ffH
	DB	050H
	DB	050H
	DB	050H
	DB	0ffH
	DB	048H
	DB	050H
	DB	048H
	DB	0ffH
	DB	050H
	DB	04cH
	DB	050H
	DB	0ffH
	DB	050H
	DB	050H
	DB	050H
	DB	0ffH
	DB	048H
	DB	050H
	DB	048H
	DB	0ffH
	DB	048H
	DB	04cH
	DB	048H
	DB	0ffH
	DB	050H
	DB	050H
	DB	050H
	DB	0ffH
	DB	050H
	DB	050H
	DB	050H
	DB	0ffH
	DB	048H
	DB	04cH
	DB	048H
	DB	0ffH
	DB	050H
	DB	050H
	DB	050H
	DB	0ffH
	DB	048H
	DB	050H
	DB	048H
	DB	0ffH
	DB	050H
	DB	04cH
	DB	050H
	DB	0ffH
	DB	048H
	DB	04cH
	DB	048H
	DB	0ffH
	DB	050H
	DB	050H
	DB	050H
	DB	0ffH
	DB	048H
	DB	04cH
	DB	048H
	DB	0ffH
	DB	050H
	DB	04cH
	DB	050H
	DB	0ffH
	DB	050H
	DB	050H
	DB	050H
	DB	0ffH
	DB	048H
	DB	04cH
	DB	048H
	DB	0ffH
	DB	050H
	DB	04cH
	DB	050H
	DB	0ffH
	DB	050H
	DB	04cH
	DB	050H
	DB	0ffH
	DB	048H
	DB	04cH
	DB	048H
	DB	0ffH
	DB	050H
	DB	04cH
	DB	050H
	DB	0ffH
	DB	050H
	DB	050H
	DB	050H
	DB	0ffH
	DB	048H
	DB	04cH
	DB	048H
	DB	0ffH
	DB	050H
	DB	04cH
	DB	050H
	DB	0ffH
	DB	050H
	DB	050H
	DB	050H
	DB	0ffH
	DB	050H
	DB	04cH
	DB	050H
	DB	0ffH
	DB	050H
	DB	04cH
	DB	050H
	DB	0ffH
	DB	048H
	DB	050H
	DB	048H
	DB	0ffH
	DB	050H
	DB	04cH
	DB	050H
	DB	0ffH
	DB	050H
	DB	04cH
	DB	050H
	DB	0ffH
	DB	048H
	DB	050H
	DB	048H
	DB	0ffH
	DB	050H
	DB	04cH
	DB	050H
	DB	0ffH
	DB	050H
	DB	04cH
	DB	050H
	DB	0ffH
	DB	050H
	DB	050H
	DB	050H
	DB	0ffH
	DB	050H
	DB	050H
	DB	050H
	DB	0ffH
	DB	048H
	DB	04cH
	DB	048H
	DB	0ffH
	DB	048H
	DB	04cH
	DB	048H
	DB	0ffH
	DB	048H
	DB	048H
	DB	048H
	DB	0ffH
	DB	040H
	DB	040H
	DB	040H
	DB	0ffH
	DB	00H
	DB	00H
	DB	00H
	DB	0ffH
	DB	00H
	DB	00H
	DB	00H
	DB	0ffH
	DB	078H
	DB	078H
	DB	078H
	DB	0ffH
	DB	070H
	DB	06cH
	DB	070H
	DB	0ffH
	DB	068H
	DB	068H
	DB	068H
	DB	0ffH
	DB	068H
	DB	068H
	DB	068H
	DB	0ffH
	DB	068H
	DB	068H
	DB	068H
	DB	0ffH
	DB	068H
	DB	068H
	DB	068H
	DB	0ffH
	DB	068H
	DB	068H
	DB	068H
	DB	0ffH
	DB	068H
	DB	068H
	DB	068H
	DB	0ffH
	DB	068H
	DB	068H
	DB	068H
	DB	0ffH
	DB	068H
	DB	068H
	DB	068H
	DB	0ffH
	DB	068H
	DB	068H
	DB	068H
	DB	0ffH
	DB	068H
	DB	068H
	DB	068H
	DB	0ffH
	DB	068H
	DB	068H
	DB	068H
	DB	0ffH
	DB	068H
	DB	068H
	DB	068H
	DB	0ffH
	DB	068H
	DB	068H
	DB	068H
	DB	0ffH
	DB	068H
	DB	068H
	DB	068H
	DB	0ffH
	DB	068H
	DB	068H
	DB	068H
	DB	0ffH
	DB	068H
	DB	068H
	DB	068H
	DB	0ffH
	DB	068H
	DB	068H
	DB	068H
	DB	0ffH
	DB	068H
	DB	068H
	DB	068H
	DB	0ffH
	DB	068H
	DB	068H
	DB	068H
	DB	0ffH
	DB	068H
	DB	068H
	DB	068H
	DB	0ffH
	DB	068H
	DB	068H
	DB	068H
	DB	0ffH
	DB	068H
	DB	068H
	DB	068H
	DB	0ffH
	DB	068H
	DB	068H
	DB	068H
	DB	0ffH
	DB	068H
	DB	068H
	DB	068H
	DB	0ffH
	DB	068H
	DB	068H
	DB	068H
	DB	0ffH
	DB	068H
	DB	068H
	DB	068H
	DB	0ffH
	DB	068H
	DB	068H
	DB	068H
	DB	0ffH
	DB	068H
	DB	068H
	DB	068H
	DB	0ffH
	DB	068H
	DB	068H
	DB	068H
	DB	0ffH
	DB	068H
	DB	068H
	DB	068H
	DB	0ffH
	DB	068H
	DB	068H
	DB	068H
	DB	0ffH
	DB	068H
	DB	068H
	DB	068H
	DB	0ffH
	DB	068H
	DB	068H
	DB	068H
	DB	0ffH
	DB	068H
	DB	068H
	DB	068H
	DB	0ffH
	DB	068H
	DB	068H
	DB	068H
	DB	0ffH
	DB	068H
	DB	068H
	DB	068H
	DB	0ffH
	DB	068H
	DB	068H
	DB	068H
	DB	0ffH
	DB	068H
	DB	068H
	DB	068H
	DB	0ffH
	DB	068H
	DB	068H
	DB	068H
	DB	0ffH
	DB	068H
	DB	068H
	DB	068H
	DB	0ffH
	DB	068H
	DB	068H
	DB	068H
	DB	0ffH
	DB	068H
	DB	068H
	DB	068H
	DB	0ffH
	DB	068H
	DB	068H
	DB	068H
	DB	0ffH
	DB	068H
	DB	068H
	DB	068H
	DB	0ffH
	DB	068H
	DB	068H
	DB	068H
	DB	0ffH
	DB	068H
	DB	068H
	DB	068H
	DB	0ffH
	DB	068H
	DB	068H
	DB	068H
	DB	0ffH
	DB	068H
	DB	068H
	DB	068H
	DB	0ffH
	DB	068H
	DB	068H
	DB	068H
	DB	0ffH
	DB	068H
	DB	068H
	DB	068H
	DB	0ffH
	DB	068H
	DB	068H
	DB	068H
	DB	0ffH
	DB	068H
	DB	068H
	DB	068H
	DB	0ffH
	DB	068H
	DB	06cH
	DB	068H
	DB	0ffH
	DB	070H
	DB	06cH
	DB	070H
	DB	0ffH
	DB	070H
	DB	070H
	DB	070H
	DB	0ffH
	DB	00H
	DB	00H
	DB	00H
	DB	0ffH
	DB	00H
	DB	00H
	DB	00H
	DB	0ffH
	DB	00H
	DB	00H
	DB	00H
	DB	0ffH
	DB	070H
	DB	070H
	DB	070H
	DB	0ffH
	DB	070H
	DB	074H
	DB	070H
	DB	0ffH
	DB	070H
	DB	070H
	DB	070H
	DB	0ffH
	DB	070H
	DB	070H
	DB	070H
	DB	0f7H
	DB	078H
	DB	074H
	DB	078H
	DB	0ffH
	DB	070H
	DB	074H
	DB	070H
	DB	0ffH
	DB	08H
	DB	04H
	DB	08H
	DB	0ffH
	DB	00H
	DB	00H
	DB	00H
	DB	0ffH
	DB	00H
	DB	00H
	DB	00H
	DB	0ffH
	DB	028H
	DB	028H
	DB	028H
	DB	0ffH
	DB	048H
	DB	048H
	DB	048H
	DB	0ffH
	DB	048H
	DB	04cH
	DB	048H
	DB	0ffH
	DB	050H
	DB	04cH
	DB	050H
	DB	0ffH
	DB	050H
	DB	04cH
	DB	050H
	DB	0ffH
	DB	050H
	DB	050H
	DB	050H
	DB	0ffH
	DB	050H
	DB	050H
	DB	050H
	DB	0ffH
	DB	050H
	DB	050H
	DB	050H
	DB	0ffH
	DB	050H
	DB	050H
	DB	050H
	DB	0ffH
	DB	050H
	DB	050H
	DB	050H
	DB	0ffH
	DB	050H
	DB	050H
	DB	050H
	DB	0ffH
	DB	050H
	DB	050H
	DB	050H
	DB	0ffH
	DB	050H
	DB	050H
	DB	050H
	DB	0ffH
	DB	050H
	DB	050H
	DB	050H
	DB	0ffH
	DB	050H
	DB	050H
	DB	050H
	DB	0ffH
	DB	050H
	DB	050H
	DB	050H
	DB	0ffH
	DB	050H
	DB	050H
	DB	050H
	DB	0ffH
	DB	050H
	DB	050H
	DB	050H
	DB	0ffH
	DB	050H
	DB	050H
	DB	050H
	DB	0ffH
	DB	050H
	DB	050H
	DB	050H
	DB	0ffH
	DB	050H
	DB	050H
	DB	050H
	DB	0ffH
	DB	050H
	DB	050H
	DB	050H
	DB	0ffH
	DB	050H
	DB	050H
	DB	050H
	DB	0ffH
	DB	050H
	DB	050H
	DB	050H
	DB	0ffH
	DB	050H
	DB	050H
	DB	050H
	DB	0ffH
	DB	050H
	DB	050H
	DB	050H
	DB	0ffH
	DB	050H
	DB	050H
	DB	050H
	DB	0ffH
	DB	050H
	DB	050H
	DB	050H
	DB	0ffH
	DB	050H
	DB	050H
	DB	050H
	DB	0ffH
	DB	050H
	DB	050H
	DB	050H
	DB	0ffH
	DB	050H
	DB	050H
	DB	050H
	DB	0ffH
	DB	050H
	DB	050H
	DB	050H
	DB	0ffH
	DB	050H
	DB	050H
	DB	050H
	DB	0ffH
	DB	050H
	DB	050H
	DB	050H
	DB	0ffH
	DB	050H
	DB	050H
	DB	050H
	DB	0ffH
	DB	050H
	DB	050H
	DB	050H
	DB	0ffH
	DB	050H
	DB	050H
	DB	050H
	DB	0ffH
	DB	050H
	DB	050H
	DB	050H
	DB	0ffH
	DB	050H
	DB	050H
	DB	050H
	DB	0ffH
	DB	050H
	DB	050H
	DB	050H
	DB	0ffH
	DB	050H
	DB	050H
	DB	050H
	DB	0ffH
	DB	050H
	DB	050H
	DB	050H
	DB	0ffH
	DB	050H
	DB	050H
	DB	050H
	DB	0ffH
	DB	050H
	DB	050H
	DB	050H
	DB	0ffH
	DB	050H
	DB	050H
	DB	050H
	DB	0ffH
	DB	050H
	DB	050H
	DB	050H
	DB	0ffH
	DB	050H
	DB	050H
	DB	050H
	DB	0ffH
	DB	050H
	DB	050H
	DB	050H
	DB	0ffH
	DB	050H
	DB	050H
	DB	050H
	DB	0ffH
	DB	050H
	DB	050H
	DB	050H
	DB	0ffH
	DB	050H
	DB	050H
	DB	050H
	DB	0ffH
	DB	050H
	DB	050H
	DB	050H
	DB	0ffH
	DB	050H
	DB	050H
	DB	050H
	DB	0ffH
	DB	050H
	DB	04cH
	DB	050H
	DB	0ffH
	DB	050H
	DB	04cH
	DB	050H
	DB	0ffH
	DB	048H
	DB	048H
	DB	048H
	DB	0ffH
	DB	040H
	DB	040H
	DB	040H
	DB	0ffH
	DB	00H
	DB	00H
	DB	00H
	DB	0ffH
	DB	00H
	DB	00H
	DB	00H
	DB	0ffH
	DB	080H
	DB	07cH
	DB	080H
	DB	0ffH
	DB	070H
	DB	074H
	DB	070H
	DB	0ffH
	DB	070H
	DB	070H
	DB	070H
	DB	0ffH
	DB	070H
	DB	070H
	DB	070H
	DB	0ffH
	DB	070H
	DB	070H
	DB	070H
	DB	0ffH
	DB	070H
	DB	070H
	DB	070H
	DB	0ffH
	DB	070H
	DB	070H
	DB	070H
	DB	0ffH
	DB	070H
	DB	070H
	DB	070H
	DB	0ffH
	DB	070H
	DB	070H
	DB	070H
	DB	0ffH
	DB	070H
	DB	070H
	DB	070H
	DB	0ffH
	DB	070H
	DB	070H
	DB	070H
	DB	0ffH
	DB	070H
	DB	070H
	DB	070H
	DB	0ffH
	DB	070H
	DB	070H
	DB	070H
	DB	0ffH
	DB	070H
	DB	070H
	DB	070H
	DB	0ffH
	DB	070H
	DB	070H
	DB	070H
	DB	0ffH
	DB	070H
	DB	070H
	DB	070H
	DB	0ffH
	DB	070H
	DB	070H
	DB	070H
	DB	0ffH
	DB	070H
	DB	070H
	DB	070H
	DB	0ffH
	DB	070H
	DB	070H
	DB	070H
	DB	0ffH
	DB	070H
	DB	070H
	DB	070H
	DB	0ffH
	DB	070H
	DB	070H
	DB	070H
	DB	0ffH
	DB	070H
	DB	070H
	DB	070H
	DB	0ffH
	DB	070H
	DB	070H
	DB	070H
	DB	0ffH
	DB	070H
	DB	070H
	DB	070H
	DB	0ffH
	DB	070H
	DB	070H
	DB	070H
	DB	0ffH
	DB	070H
	DB	070H
	DB	070H
	DB	0ffH
	DB	070H
	DB	070H
	DB	070H
	DB	0ffH
	DB	070H
	DB	070H
	DB	070H
	DB	0ffH
	DB	070H
	DB	070H
	DB	070H
	DB	0ffH
	DB	070H
	DB	070H
	DB	070H
	DB	0ffH
	DB	070H
	DB	070H
	DB	070H
	DB	0ffH
	DB	070H
	DB	070H
	DB	070H
	DB	0ffH
	DB	070H
	DB	070H
	DB	070H
	DB	0ffH
	DB	070H
	DB	070H
	DB	070H
	DB	0ffH
	DB	070H
	DB	070H
	DB	070H
	DB	0ffH
	DB	070H
	DB	070H
	DB	070H
	DB	0ffH
	DB	070H
	DB	070H
	DB	070H
	DB	0ffH
	DB	070H
	DB	070H
	DB	070H
	DB	0ffH
	DB	070H
	DB	070H
	DB	070H
	DB	0ffH
	DB	070H
	DB	070H
	DB	070H
	DB	0ffH
	DB	070H
	DB	070H
	DB	070H
	DB	0ffH
	DB	070H
	DB	070H
	DB	070H
	DB	0ffH
	DB	070H
	DB	070H
	DB	070H
	DB	0ffH
	DB	070H
	DB	070H
	DB	070H
	DB	0ffH
	DB	070H
	DB	070H
	DB	070H
	DB	0ffH
	DB	070H
	DB	070H
	DB	070H
	DB	0ffH
	DB	070H
	DB	070H
	DB	070H
	DB	0ffH
	DB	070H
	DB	070H
	DB	070H
	DB	0ffH
	DB	070H
	DB	070H
	DB	070H
	DB	0ffH
	DB	070H
	DB	070H
	DB	070H
	DB	0ffH
	DB	070H
	DB	070H
	DB	070H
	DB	0ffH
	DB	070H
	DB	070H
	DB	070H
	DB	0ffH
	DB	070H
	DB	070H
	DB	070H
	DB	0ffH
	DB	070H
	DB	070H
	DB	070H
	DB	0ffH
	DB	070H
	DB	074H
	DB	070H
	DB	0ffH
	DB	078H
	DB	078H
	DB	078H
	DB	0ffH
	DB	048H
	DB	044H
	DB	048H
	DB	0ffH
	DB	00H
	DB	00H
	DB	00H
	DB	0ffH
	DB	00H
	DB	00H
	DB	00H
	DB	0ffH
	DB	08H
	DB	04H
	DB	08H
	DB	0ffH
	DB	070H
	DB	074H
	DB	070H
	DB	0ffH
	DB	078H
	DB	074H
	DB	078H
	DB	0ffH
	DB	070H
	DB	070H
	DB	070H
	DB	0f3H
	DB	070H
	DB	070H
	DB	070H
	DB	0d7H
	DB	078H
	DB	078H
	DB	078H
	DB	0ffH
	DB	070H
	DB	074H
	DB	070H
	DB	0ffH
	DB	018H
	DB	01cH
	DB	018H
	DB	0ffH
	DB	00H
	DB	00H
	DB	00H
	DB	0ffH
	DB	00H
	DB	00H
	DB	00H
	DB	0ffH
	DB	08H
	DB	04H
	DB	00H
	DB	0ffH
	DB	028H
	DB	028H
	DB	028H
	DB	0ffH
	DB	048H
	DB	044H
	DB	048H
	DB	0ffH
	DB	050H
	DB	04cH
	DB	050H
	DB	0ffH
	DB	050H
	DB	050H
	DB	048H
	DB	0ffH
	DB	050H
	DB	050H
	DB	050H
	DB	0ffH
	DB	048H
	DB	050H
	DB	050H
	DB	0ffH
	DB	050H
	DB	050H
	DB	050H
	DB	0ffH
	DB	050H
	DB	050H
	DB	050H
	DB	0ffH
	DB	050H
	DB	050H
	DB	050H
	DB	0ffH
	DB	050H
	DB	04cH
	DB	050H
	DB	0ffH
	DB	050H
	DB	050H
	DB	050H
	DB	0ffH
	DB	050H
	DB	04cH
	DB	050H
	DB	0ffH
	DB	050H
	DB	050H
	DB	050H
	DB	0ffH
	DB	050H
	DB	050H
	DB	050H
	DB	0ffH
	DB	050H
	DB	04cH
	DB	050H
	DB	0ffH
	DB	050H
	DB	050H
	DB	050H
	DB	0ffH
	DB	050H
	DB	050H
	DB	050H
	DB	0ffH
	DB	050H
	DB	04cH
	DB	050H
	DB	0ffH
	DB	050H
	DB	050H
	DB	050H
	DB	0ffH
	DB	050H
	DB	050H
	DB	050H
	DB	0ffH
	DB	050H
	DB	04cH
	DB	050H
	DB	0ffH
	DB	050H
	DB	050H
	DB	050H
	DB	0ffH
	DB	050H
	DB	050H
	DB	050H
	DB	0ffH
	DB	050H
	DB	04cH
	DB	050H
	DB	0ffH
	DB	050H
	DB	050H
	DB	050H
	DB	0ffH
	DB	050H
	DB	050H
	DB	050H
	DB	0ffH
	DB	050H
	DB	04cH
	DB	050H
	DB	0ffH
	DB	050H
	DB	050H
	DB	050H
	DB	0ffH
	DB	050H
	DB	050H
	DB	050H
	DB	0ffH
	DB	050H
	DB	050H
	DB	050H
	DB	0ffH
	DB	050H
	DB	050H
	DB	050H
	DB	0ffH
	DB	050H
	DB	050H
	DB	050H
	DB	0ffH
	DB	050H
	DB	04cH
	DB	050H
	DB	0ffH
	DB	050H
	DB	050H
	DB	050H
	DB	0ffH
	DB	050H
	DB	050H
	DB	050H
	DB	0ffH
	DB	050H
	DB	050H
	DB	050H
	DB	0ffH
	DB	050H
	DB	050H
	DB	050H
	DB	0ffH
	DB	050H
	DB	050H
	DB	050H
	DB	0ffH
	DB	050H
	DB	050H
	DB	050H
	DB	0ffH
	DB	050H
	DB	050H
	DB	050H
	DB	0ffH
	DB	048H
	DB	050H
	DB	048H
	DB	0ffH
	DB	050H
	DB	050H
	DB	050H
	DB	0ffH
	DB	050H
	DB	050H
	DB	050H
	DB	0ffH
	DB	050H
	DB	050H
	DB	050H
	DB	0ffH
	DB	050H
	DB	050H
	DB	050H
	DB	0ffH
	DB	050H
	DB	050H
	DB	050H
	DB	0ffH
	DB	050H
	DB	050H
	DB	050H
	DB	0ffH
	DB	050H
	DB	050H
	DB	050H
	DB	0ffH
	DB	050H
	DB	050H
	DB	050H
	DB	0ffH
	DB	048H
	DB	050H
	DB	048H
	DB	0ffH
	DB	050H
	DB	04cH
	DB	050H
	DB	0ffH
	DB	050H
	DB	04cH
	DB	050H
	DB	0ffH
	DB	048H
	DB	04cH
	DB	048H
	DB	0ffH
	DB	048H
	DB	04cH
	DB	048H
	DB	0ffH
	DB	048H
	DB	048H
	DB	048H
	DB	0ffH
	DB	040H
	DB	040H
	DB	040H
	DB	0ffH
	DB	00H
	DB	00H
	DB	00H
	DB	0ffH
	DB	00H
	DB	00H
	DB	00H
	DB	0ffH
	DB	080H
	DB	084H
	DB	080H
	DB	0ffH
	DB	080H
	DB	07cH
	DB	080H
	DB	0ffH
	DB	078H
	DB	07cH
	DB	078H
	DB	0ffH
	DB	078H
	DB	078H
	DB	078H
	DB	0ffH
	DB	078H
	DB	078H
	DB	078H
	DB	0ffH
	DB	078H
	DB	078H
	DB	078H
	DB	0ffH
	DB	078H
	DB	078H
	DB	078H
	DB	0ffH
	DB	078H
	DB	078H
	DB	078H
	DB	0ffH
	DB	078H
	DB	078H
	DB	078H
	DB	0ffH
	DB	078H
	DB	078H
	DB	078H
	DB	0ffH
	DB	078H
	DB	078H
	DB	078H
	DB	0ffH
	DB	078H
	DB	078H
	DB	078H
	DB	0ffH
	DB	078H
	DB	078H
	DB	078H
	DB	0ffH
	DB	078H
	DB	078H
	DB	078H
	DB	0ffH
	DB	078H
	DB	078H
	DB	078H
	DB	0ffH
	DB	078H
	DB	078H
	DB	078H
	DB	0ffH
	DB	078H
	DB	078H
	DB	078H
	DB	0ffH
	DB	078H
	DB	078H
	DB	078H
	DB	0ffH
	DB	078H
	DB	078H
	DB	078H
	DB	0ffH
	DB	078H
	DB	078H
	DB	078H
	DB	0ffH
	DB	078H
	DB	078H
	DB	078H
	DB	0ffH
	DB	078H
	DB	078H
	DB	078H
	DB	0ffH
	DB	078H
	DB	078H
	DB	078H
	DB	0ffH
	DB	078H
	DB	078H
	DB	078H
	DB	0ffH
	DB	078H
	DB	078H
	DB	078H
	DB	0ffH
	DB	078H
	DB	078H
	DB	078H
	DB	0ffH
	DB	078H
	DB	078H
	DB	078H
	DB	0ffH
	DB	078H
	DB	078H
	DB	078H
	DB	0ffH
	DB	078H
	DB	078H
	DB	078H
	DB	0ffH
	DB	078H
	DB	078H
	DB	078H
	DB	0ffH
	DB	078H
	DB	078H
	DB	078H
	DB	0ffH
	DB	078H
	DB	078H
	DB	078H
	DB	0ffH
	DB	078H
	DB	078H
	DB	078H
	DB	0ffH
	DB	078H
	DB	078H
	DB	078H
	DB	0ffH
	DB	078H
	DB	078H
	DB	078H
	DB	0ffH
	DB	078H
	DB	078H
	DB	078H
	DB	0ffH
	DB	078H
	DB	078H
	DB	078H
	DB	0ffH
	DB	078H
	DB	078H
	DB	078H
	DB	0ffH
	DB	078H
	DB	078H
	DB	078H
	DB	0ffH
	DB	078H
	DB	078H
	DB	078H
	DB	0ffH
	DB	078H
	DB	078H
	DB	078H
	DB	0ffH
	DB	078H
	DB	078H
	DB	078H
	DB	0ffH
	DB	078H
	DB	078H
	DB	078H
	DB	0ffH
	DB	078H
	DB	078H
	DB	078H
	DB	0ffH
	DB	078H
	DB	078H
	DB	078H
	DB	0ffH
	DB	078H
	DB	078H
	DB	078H
	DB	0ffH
	DB	078H
	DB	078H
	DB	078H
	DB	0ffH
	DB	078H
	DB	078H
	DB	078H
	DB	0ffH
	DB	078H
	DB	078H
	DB	078H
	DB	0ffH
	DB	078H
	DB	078H
	DB	078H
	DB	0ffH
	DB	078H
	DB	078H
	DB	078H
	DB	0ffH
	DB	078H
	DB	078H
	DB	078H
	DB	0ffH
	DB	078H
	DB	078H
	DB	078H
	DB	0ffH
	DB	078H
	DB	07cH
	DB	078H
	DB	0ffH
	DB	078H
	DB	074H
	DB	078H
	DB	0ffH
	DB	048H
	DB	048H
	DB	048H
	DB	0ffH
	DB	00H
	DB	04H
	DB	00H
	DB	0ffH
	DB	00H
	DB	00H
	DB	00H
	DB	0ffH
	DB	00H
	DB	00H
	DB	00H
	DB	0ffH
	DB	018H
	DB	01cH
	DB	018H
	DB	0ffH
	DB	078H
	DB	074H
	DB	078H
	DB	0ffH
	DB	078H
	DB	078H
	DB	078H
	DB	0ffH
	DB	070H
	DB	070H
	DB	070H
	DB	0d3H
	DB	070H
	DB	074H
	DB	070H
	DB	08eH
	DB	078H
	DB	078H
	DB	078H
	DB	0ffH
	DB	078H
	DB	078H
	DB	078H
	DB	0ffH
	DB	050H
	DB	050H
	DB	050H
	DB	0ffH
	DB	00H
	DB	00H
	DB	00H
	DB	0ffH
	DB	00H
	DB	00H
	DB	00H
	DB	0ffH
	DB	00H
	DB	00H
	DB	00H
	DB	0ffH
	DB	00H
	DB	04H
	DB	00H
	DB	0ffH
	DB	08H
	DB	04H
	DB	00H
	DB	0ffH
	DB	08H
	DB	04H
	DB	00H
	DB	0ffH
	DB	08H
	DB	04H
	DB	00H
	DB	0ffH
	DB	08H
	DB	04H
	DB	00H
	DB	0ffH
	DB	08H
	DB	04H
	DB	00H
	DB	0ffH
	DB	08H
	DB	04H
	DB	00H
	DB	0ffH
	DB	08H
	DB	04H
	DB	00H
	DB	0ffH
	DB	08H
	DB	04H
	DB	00H
	DB	0ffH
	DB	08H
	DB	04H
	DB	00H
	DB	0ffH
	DB	00H
	DB	04H
	DB	00H
	DB	0ffH
	DB	08H
	DB	04H
	DB	00H
	DB	0ffH
	DB	08H
	DB	04H
	DB	00H
	DB	0ffH
	DB	08H
	DB	04H
	DB	00H
	DB	0ffH
	DB	08H
	DB	04H
	DB	00H
	DB	0ffH
	DB	08H
	DB	04H
	DB	00H
	DB	0ffH
	DB	00H
	DB	04H
	DB	00H
	DB	0ffH
	DB	08H
	DB	04H
	DB	00H
	DB	0ffH
	DB	08H
	DB	04H
	DB	00H
	DB	0ffH
	DB	08H
	DB	04H
	DB	00H
	DB	0ffH
	DB	00H
	DB	04H
	DB	00H
	DB	0ffH
	DB	08H
	DB	04H
	DB	00H
	DB	0ffH
	DB	08H
	DB	04H
	DB	00H
	DB	0ffH
	DB	00H
	DB	04H
	DB	00H
	DB	0ffH
	DB	08H
	DB	04H
	DB	00H
	DB	0ffH
	DB	08H
	DB	04H
	DB	00H
	DB	0ffH
	DB	00H
	DB	04H
	DB	00H
	DB	0ffH
	DB	08H
	DB	04H
	DB	00H
	DB	0ffH
	DB	08H
	DB	04H
	DB	00H
	DB	0ffH
	DB	00H
	DB	04H
	DB	00H
	DB	0ffH
	DB	08H
	DB	04H
	DB	00H
	DB	0ffH
	DB	08H
	DB	04H
	DB	00H
	DB	0ffH
	DB	00H
	DB	04H
	DB	00H
	DB	0ffH
	DB	08H
	DB	04H
	DB	00H
	DB	0ffH
	DB	08H
	DB	04H
	DB	00H
	DB	0ffH
	DB	00H
	DB	04H
	DB	00H
	DB	0ffH
	DB	08H
	DB	04H
	DB	00H
	DB	0ffH
	DB	08H
	DB	04H
	DB	00H
	DB	0ffH
	DB	00H
	DB	04H
	DB	00H
	DB	0ffH
	DB	08H
	DB	04H
	DB	00H
	DB	0ffH
	DB	08H
	DB	04H
	DB	00H
	DB	0ffH
	DB	08H
	DB	04H
	DB	00H
	DB	0ffH
	DB	08H
	DB	04H
	DB	00H
	DB	0ffH
	DB	00H
	DB	04H
	DB	00H
	DB	0ffH
	DB	08H
	DB	04H
	DB	00H
	DB	0ffH
	DB	08H
	DB	04H
	DB	00H
	DB	0ffH
	DB	00H
	DB	04H
	DB	00H
	DB	0ffH
	DB	08H
	DB	04H
	DB	00H
	DB	0ffH
	DB	08H
	DB	04H
	DB	00H
	DB	0ffH
	DB	08H
	DB	04H
	DB	00H
	DB	0ffH
	DB	08H
	DB	04H
	DB	00H
	DB	0ffH
	DB	08H
	DB	04H
	DB	00H
	DB	0ffH
	DB	08H
	DB	04H
	DB	00H
	DB	0ffH
	DB	08H
	DB	04H
	DB	00H
	DB	0ffH
	DB	08H
	DB	04H
	DB	00H
	DB	0ffH
	DB	08H
	DB	04H
	DB	00H
	DB	0ffH
	DB	00H
	DB	00H
	DB	00H
	DB	0ffH
	DB	00H
	DB	00H
	DB	00H
	DB	0ffH
	DB	00H
	DB	00H
	DB	00H
	DB	0ffH
	DB	00H
	DB	00H
	DB	00H
	DB	0ffH
	DB	00H
	DB	00H
	DB	00H
	DB	0ffH
	DB	00H
	DB	00H
	DB	00H
	DB	0ffH
	DB	00H
	DB	00H
	DB	00H
	DB	0ffH
	DB	00H
	DB	00H
	DB	00H
	DB	0ffH
	DB	00H
	DB	00H
	DB	00H
	DB	0ffH
	DB	00H
	DB	00H
	DB	00H
	DB	0ffH
	DB	00H
	DB	00H
	DB	00H
	DB	0ffH
	DB	00H
	DB	00H
	DB	00H
	DB	0ffH
	DB	00H
	DB	00H
	DB	00H
	DB	0ffH
	DB	00H
	DB	00H
	DB	00H
	DB	0ffH
	DB	00H
	DB	00H
	DB	00H
	DB	0ffH
	DB	00H
	DB	00H
	DB	00H
	DB	0ffH
	DB	00H
	DB	00H
	DB	00H
	DB	0ffH
	DB	00H
	DB	00H
	DB	00H
	DB	0ffH
	DB	00H
	DB	00H
	DB	00H
	DB	0ffH
	DB	00H
	DB	00H
	DB	00H
	DB	0ffH
	DB	00H
	DB	00H
	DB	00H
	DB	0ffH
	DB	00H
	DB	00H
	DB	00H
	DB	0ffH
	DB	00H
	DB	00H
	DB	00H
	DB	0ffH
	DB	00H
	DB	00H
	DB	00H
	DB	0ffH
	DB	00H
	DB	00H
	DB	00H
	DB	0ffH
	DB	00H
	DB	00H
	DB	00H
	DB	0ffH
	DB	00H
	DB	00H
	DB	00H
	DB	0ffH
	DB	00H
	DB	00H
	DB	00H
	DB	0ffH
	DB	00H
	DB	00H
	DB	00H
	DB	0ffH
	DB	00H
	DB	00H
	DB	00H
	DB	0ffH
	DB	00H
	DB	00H
	DB	00H
	DB	0ffH
	DB	00H
	DB	00H
	DB	00H
	DB	0ffH
	DB	00H
	DB	00H
	DB	00H
	DB	0ffH
	DB	00H
	DB	00H
	DB	00H
	DB	0ffH
	DB	00H
	DB	00H
	DB	00H
	DB	0ffH
	DB	00H
	DB	00H
	DB	00H
	DB	0ffH
	DB	00H
	DB	00H
	DB	00H
	DB	0ffH
	DB	00H
	DB	00H
	DB	00H
	DB	0ffH
	DB	00H
	DB	00H
	DB	00H
	DB	0ffH
	DB	00H
	DB	00H
	DB	00H
	DB	0ffH
	DB	00H
	DB	00H
	DB	00H
	DB	0ffH
	DB	00H
	DB	00H
	DB	00H
	DB	0ffH
	DB	00H
	DB	00H
	DB	00H
	DB	0ffH
	DB	00H
	DB	00H
	DB	00H
	DB	0ffH
	DB	00H
	DB	00H
	DB	00H
	DB	0ffH
	DB	00H
	DB	00H
	DB	00H
	DB	0ffH
	DB	00H
	DB	00H
	DB	00H
	DB	0ffH
	DB	00H
	DB	00H
	DB	00H
	DB	0ffH
	DB	00H
	DB	00H
	DB	00H
	DB	0ffH
	DB	00H
	DB	00H
	DB	00H
	DB	0ffH
	DB	00H
	DB	00H
	DB	00H
	DB	0ffH
	DB	00H
	DB	00H
	DB	00H
	DB	0ffH
	DB	00H
	DB	00H
	DB	00H
	DB	0ffH
	DB	00H
	DB	00H
	DB	00H
	DB	0ffH
	DB	00H
	DB	00H
	DB	00H
	DB	0ffH
	DB	00H
	DB	00H
	DB	00H
	DB	0ffH
	DB	00H
	DB	00H
	DB	00H
	DB	0ffH
	DB	00H
	DB	00H
	DB	00H
	DB	0ffH
	DB	00H
	DB	00H
	DB	00H
	DB	0ffH
	DB	00H
	DB	00H
	DB	00H
	DB	0ffH
	DB	00H
	DB	00H
	DB	00H
	DB	0ffH
	DB	050H
	DB	04cH
	DB	050H
	DB	0ffH
	DB	078H
	DB	078H
	DB	078H
	DB	0ffH
	DB	078H
	DB	078H
	DB	078H
	DB	0ffH
	DB	070H
	DB	070H
	DB	070H
	DB	08eH
	DB	070H
	DB	070H
	DB	070H
	DB	02cH
	DB	078H
	DB	078H
	DB	078H
	DB	0fbH
	DB	078H
	DB	078H
	DB	078H
	DB	0ffH
	DB	078H
	DB	074H
	DB	078H
	DB	0ffH
	DB	038H
	DB	038H
	DB	038H
	DB	0ffH
	DB	00H
	DB	00H
	DB	00H
	DB	0ffH
	DB	00H
	DB	00H
	DB	00H
	DB	0ffH
	DB	00H
	DB	00H
	DB	00H
	DB	0ffH
	DB	00H
	DB	00H
	DB	00H
	DB	0ffH
	DB	00H
	DB	00H
	DB	00H
	DB	0ffH
	DB	00H
	DB	00H
	DB	00H
	DB	0ffH
	DB	00H
	DB	00H
	DB	00H
	DB	0ffH
	DB	00H
	DB	00H
	DB	00H
	DB	0ffH
	DB	00H
	DB	00H
	DB	00H
	DB	0ffH
	DB	00H
	DB	00H
	DB	00H
	DB	0ffH
	DB	00H
	DB	00H
	DB	00H
	DB	0ffH
	DB	00H
	DB	00H
	DB	00H
	DB	0ffH
	DB	00H
	DB	00H
	DB	00H
	DB	0ffH
	DB	00H
	DB	00H
	DB	00H
	DB	0ffH
	DB	00H
	DB	00H
	DB	00H
	DB	0ffH
	DB	00H
	DB	00H
	DB	00H
	DB	0ffH
	DB	00H
	DB	00H
	DB	00H
	DB	0ffH
	DB	00H
	DB	00H
	DB	00H
	DB	0ffH
	DB	00H
	DB	00H
	DB	00H
	DB	0ffH
	DB	00H
	DB	00H
	DB	00H
	DB	0ffH
	DB	00H
	DB	00H
	DB	00H
	DB	0ffH
	DB	00H
	DB	00H
	DB	00H
	DB	0ffH
	DB	00H
	DB	00H
	DB	00H
	DB	0ffH
	DB	00H
	DB	00H
	DB	00H
	DB	0ffH
	DB	00H
	DB	00H
	DB	00H
	DB	0ffH
	DB	00H
	DB	00H
	DB	00H
	DB	0ffH
	DB	00H
	DB	00H
	DB	00H
	DB	0ffH
	DB	00H
	DB	00H
	DB	00H
	DB	0ffH
	DB	00H
	DB	00H
	DB	00H
	DB	0ffH
	DB	00H
	DB	00H
	DB	00H
	DB	0ffH
	DB	00H
	DB	00H
	DB	00H
	DB	0ffH
	DB	00H
	DB	00H
	DB	00H
	DB	0ffH
	DB	00H
	DB	00H
	DB	00H
	DB	0ffH
	DB	00H
	DB	00H
	DB	00H
	DB	0ffH
	DB	00H
	DB	00H
	DB	00H
	DB	0ffH
	DB	00H
	DB	00H
	DB	00H
	DB	0ffH
	DB	00H
	DB	00H
	DB	00H
	DB	0ffH
	DB	00H
	DB	00H
	DB	00H
	DB	0ffH
	DB	00H
	DB	00H
	DB	00H
	DB	0ffH
	DB	00H
	DB	00H
	DB	00H
	DB	0ffH
	DB	00H
	DB	00H
	DB	00H
	DB	0ffH
	DB	00H
	DB	00H
	DB	00H
	DB	0ffH
	DB	00H
	DB	00H
	DB	00H
	DB	0ffH
	DB	00H
	DB	00H
	DB	00H
	DB	0ffH
	DB	00H
	DB	00H
	DB	00H
	DB	0ffH
	DB	00H
	DB	00H
	DB	00H
	DB	0ffH
	DB	00H
	DB	00H
	DB	00H
	DB	0ffH
	DB	00H
	DB	00H
	DB	00H
	DB	0ffH
	DB	00H
	DB	00H
	DB	00H
	DB	0ffH
	DB	00H
	DB	00H
	DB	00H
	DB	0ffH
	DB	00H
	DB	00H
	DB	00H
	DB	0ffH
	DB	00H
	DB	00H
	DB	00H
	DB	0ffH
	DB	00H
	DB	00H
	DB	00H
	DB	0ffH
	DB	00H
	DB	00H
	DB	00H
	DB	0ffH
	DB	00H
	DB	00H
	DB	00H
	DB	0ffH
	DB	00H
	DB	00H
	DB	00H
	DB	0ffH
	DB	00H
	DB	00H
	DB	00H
	DB	0ffH
	DB	00H
	DB	00H
	DB	00H
	DB	0ffH
	DB	00H
	DB	00H
	DB	00H
	DB	0ffH
	DB	00H
	DB	00H
	DB	00H
	DB	0ffH
	DB	00H
	DB	00H
	DB	00H
	DB	0ffH
	DB	00H
	DB	00H
	DB	00H
	DB	0ffH
	DB	00H
	DB	00H
	DB	00H
	DB	0ffH
	DB	00H
	DB	00H
	DB	00H
	DB	0ffH
	DB	00H
	DB	00H
	DB	00H
	DB	0ffH
	DB	00H
	DB	00H
	DB	00H
	DB	0ffH
	DB	00H
	DB	00H
	DB	00H
	DB	0ffH
	DB	00H
	DB	00H
	DB	00H
	DB	0ffH
	DB	00H
	DB	00H
	DB	00H
	DB	0ffH
	DB	00H
	DB	00H
	DB	00H
	DB	0ffH
	DB	00H
	DB	00H
	DB	00H
	DB	0ffH
	DB	00H
	DB	00H
	DB	00H
	DB	0ffH
	DB	00H
	DB	00H
	DB	00H
	DB	0ffH
	DB	00H
	DB	00H
	DB	00H
	DB	0ffH
	DB	00H
	DB	00H
	DB	00H
	DB	0ffH
	DB	00H
	DB	00H
	DB	00H
	DB	0ffH
	DB	00H
	DB	00H
	DB	00H
	DB	0ffH
	DB	00H
	DB	00H
	DB	00H
	DB	0ffH
	DB	00H
	DB	00H
	DB	00H
	DB	0ffH
	DB	00H
	DB	00H
	DB	00H
	DB	0ffH
	DB	00H
	DB	00H
	DB	00H
	DB	0ffH
	DB	00H
	DB	00H
	DB	00H
	DB	0ffH
	DB	00H
	DB	00H
	DB	00H
	DB	0ffH
	DB	00H
	DB	00H
	DB	00H
	DB	0ffH
	DB	00H
	DB	00H
	DB	00H
	DB	0ffH
	DB	00H
	DB	00H
	DB	00H
	DB	0ffH
	DB	00H
	DB	00H
	DB	00H
	DB	0ffH
	DB	00H
	DB	00H
	DB	00H
	DB	0ffH
	DB	00H
	DB	00H
	DB	00H
	DB	0ffH
	DB	00H
	DB	00H
	DB	00H
	DB	0ffH
	DB	00H
	DB	00H
	DB	00H
	DB	0ffH
	DB	00H
	DB	00H
	DB	00H
	DB	0ffH
	DB	00H
	DB	00H
	DB	00H
	DB	0ffH
	DB	00H
	DB	00H
	DB	00H
	DB	0ffH
	DB	00H
	DB	00H
	DB	00H
	DB	0ffH
	DB	00H
	DB	00H
	DB	00H
	DB	0ffH
	DB	00H
	DB	00H
	DB	00H
	DB	0ffH
	DB	00H
	DB	00H
	DB	00H
	DB	0ffH
	DB	00H
	DB	00H
	DB	00H
	DB	0ffH
	DB	00H
	DB	00H
	DB	00H
	DB	0ffH
	DB	00H
	DB	00H
	DB	00H
	DB	0ffH
	DB	00H
	DB	00H
	DB	00H
	DB	0ffH
	DB	00H
	DB	00H
	DB	00H
	DB	0ffH
	DB	00H
	DB	00H
	DB	00H
	DB	0ffH
	DB	00H
	DB	00H
	DB	00H
	DB	0ffH
	DB	00H
	DB	00H
	DB	00H
	DB	0ffH
	DB	00H
	DB	00H
	DB	00H
	DB	0ffH
	DB	00H
	DB	00H
	DB	00H
	DB	0ffH
	DB	00H
	DB	00H
	DB	00H
	DB	0ffH
	DB	00H
	DB	00H
	DB	00H
	DB	0ffH
	DB	00H
	DB	00H
	DB	00H
	DB	0ffH
	DB	00H
	DB	00H
	DB	00H
	DB	0ffH
	DB	00H
	DB	00H
	DB	00H
	DB	0ffH
	DB	00H
	DB	00H
	DB	00H
	DB	0ffH
	DB	00H
	DB	00H
	DB	00H
	DB	0ffH
	DB	00H
	DB	00H
	DB	00H
	DB	0ffH
	DB	00H
	DB	00H
	DB	00H
	DB	0ffH
	DB	00H
	DB	00H
	DB	00H
	DB	0ffH
	DB	038H
	DB	034H
	DB	038H
	DB	0ffH
	DB	078H
	DB	074H
	DB	078H
	DB	0ffH
	DB	078H
	DB	07cH
	DB	078H
	DB	0ffH
	DB	078H
	DB	078H
	DB	078H
	DB	0fbH
	DB	070H
	DB	070H
	DB	070H
	DB	02cH
	DB	00H
	DB	00H
	DB	00H
	DB	00H
	DB	078H
	DB	078H
	DB	078H
	DB	096H
	DB	078H
	DB	07cH
	DB	078H
	DB	0ffH
	DB	078H
	DB	078H
	DB	078H
	DB	0ffH
	DB	078H
	DB	078H
	DB	078H
	DB	0ffH
	DB	050H
	DB	04cH
	DB	050H
	DB	0ffH
	DB	018H
	DB	01cH
	DB	018H
	DB	0ffH
	DB	08H
	DB	04H
	DB	08H
	DB	0ffH
	DB	00H
	DB	00H
	DB	00H
	DB	0ffH
	DB	00H
	DB	00H
	DB	00H
	DB	0ffH
	DB	00H
	DB	00H
	DB	00H
	DB	0ffH
	DB	00H
	DB	00H
	DB	00H
	DB	0ffH
	DB	00H
	DB	00H
	DB	00H
	DB	0ffH
	DB	00H
	DB	00H
	DB	00H
	DB	0ffH
	DB	00H
	DB	00H
	DB	00H
	DB	0ffH
	DB	00H
	DB	00H
	DB	00H
	DB	0ffH
	DB	00H
	DB	00H
	DB	00H
	DB	0ffH
	DB	00H
	DB	00H
	DB	00H
	DB	0ffH
	DB	00H
	DB	00H
	DB	00H
	DB	0ffH
	DB	00H
	DB	00H
	DB	00H
	DB	0ffH
	DB	00H
	DB	00H
	DB	00H
	DB	0ffH
	DB	00H
	DB	00H
	DB	00H
	DB	0ffH
	DB	00H
	DB	00H
	DB	00H
	DB	0ffH
	DB	00H
	DB	00H
	DB	00H
	DB	0ffH
	DB	00H
	DB	00H
	DB	00H
	DB	0ffH
	DB	00H
	DB	00H
	DB	00H
	DB	0ffH
	DB	00H
	DB	00H
	DB	00H
	DB	0ffH
	DB	00H
	DB	00H
	DB	00H
	DB	0ffH
	DB	00H
	DB	00H
	DB	00H
	DB	0ffH
	DB	00H
	DB	00H
	DB	00H
	DB	0ffH
	DB	00H
	DB	00H
	DB	00H
	DB	0ffH
	DB	00H
	DB	00H
	DB	00H
	DB	0ffH
	DB	00H
	DB	00H
	DB	00H
	DB	0ffH
	DB	00H
	DB	00H
	DB	00H
	DB	0ffH
	DB	00H
	DB	00H
	DB	00H
	DB	0ffH
	DB	00H
	DB	00H
	DB	00H
	DB	0ffH
	DB	00H
	DB	00H
	DB	00H
	DB	0ffH
	DB	00H
	DB	00H
	DB	00H
	DB	0ffH
	DB	00H
	DB	00H
	DB	00H
	DB	0ffH
	DB	00H
	DB	00H
	DB	00H
	DB	0ffH
	DB	00H
	DB	00H
	DB	00H
	DB	0ffH
	DB	00H
	DB	00H
	DB	00H
	DB	0ffH
	DB	00H
	DB	00H
	DB	00H
	DB	0ffH
	DB	00H
	DB	00H
	DB	00H
	DB	0ffH
	DB	00H
	DB	00H
	DB	00H
	DB	0ffH
	DB	00H
	DB	00H
	DB	00H
	DB	0ffH
	DB	00H
	DB	00H
	DB	00H
	DB	0ffH
	DB	00H
	DB	00H
	DB	00H
	DB	0ffH
	DB	00H
	DB	00H
	DB	00H
	DB	0ffH
	DB	00H
	DB	00H
	DB	00H
	DB	0ffH
	DB	00H
	DB	00H
	DB	00H
	DB	0ffH
	DB	00H
	DB	00H
	DB	00H
	DB	0ffH
	DB	00H
	DB	00H
	DB	00H
	DB	0ffH
	DB	00H
	DB	00H
	DB	00H
	DB	0ffH
	DB	00H
	DB	00H
	DB	00H
	DB	0ffH
	DB	00H
	DB	00H
	DB	00H
	DB	0ffH
	DB	00H
	DB	00H
	DB	00H
	DB	0ffH
	DB	00H
	DB	00H
	DB	00H
	DB	0ffH
	DB	00H
	DB	00H
	DB	00H
	DB	0ffH
	DB	00H
	DB	00H
	DB	00H
	DB	0ffH
	DB	00H
	DB	00H
	DB	00H
	DB	0ffH
	DB	00H
	DB	00H
	DB	00H
	DB	0ffH
	DB	00H
	DB	00H
	DB	00H
	DB	0ffH
	DB	00H
	DB	00H
	DB	00H
	DB	0ffH
	DB	00H
	DB	00H
	DB	00H
	DB	0ffH
	DB	00H
	DB	00H
	DB	00H
	DB	0ffH
	DB	00H
	DB	00H
	DB	00H
	DB	0ffH
	DB	00H
	DB	00H
	DB	00H
	DB	0ffH
	DB	00H
	DB	00H
	DB	00H
	DB	0ffH
	DB	00H
	DB	00H
	DB	00H
	DB	0ffH
	DB	00H
	DB	00H
	DB	00H
	DB	0ffH
	DB	00H
	DB	00H
	DB	00H
	DB	0ffH
	DB	00H
	DB	00H
	DB	00H
	DB	0ffH
	DB	00H
	DB	00H
	DB	00H
	DB	0ffH
	DB	00H
	DB	00H
	DB	00H
	DB	0ffH
	DB	00H
	DB	00H
	DB	00H
	DB	0ffH
	DB	00H
	DB	00H
	DB	00H
	DB	0ffH
	DB	00H
	DB	00H
	DB	00H
	DB	0ffH
	DB	00H
	DB	00H
	DB	00H
	DB	0ffH
	DB	00H
	DB	00H
	DB	00H
	DB	0ffH
	DB	00H
	DB	00H
	DB	00H
	DB	0ffH
	DB	00H
	DB	00H
	DB	00H
	DB	0ffH
	DB	00H
	DB	00H
	DB	00H
	DB	0ffH
	DB	00H
	DB	00H
	DB	00H
	DB	0ffH
	DB	00H
	DB	00H
	DB	00H
	DB	0ffH
	DB	00H
	DB	00H
	DB	00H
	DB	0ffH
	DB	00H
	DB	00H
	DB	00H
	DB	0ffH
	DB	00H
	DB	00H
	DB	00H
	DB	0ffH
	DB	00H
	DB	00H
	DB	00H
	DB	0ffH
	DB	00H
	DB	00H
	DB	00H
	DB	0ffH
	DB	00H
	DB	00H
	DB	00H
	DB	0ffH
	DB	00H
	DB	00H
	DB	00H
	DB	0ffH
	DB	00H
	DB	00H
	DB	00H
	DB	0ffH
	DB	00H
	DB	00H
	DB	00H
	DB	0ffH
	DB	00H
	DB	00H
	DB	00H
	DB	0ffH
	DB	00H
	DB	00H
	DB	00H
	DB	0ffH
	DB	00H
	DB	00H
	DB	00H
	DB	0ffH
	DB	00H
	DB	00H
	DB	00H
	DB	0ffH
	DB	00H
	DB	00H
	DB	00H
	DB	0ffH
	DB	00H
	DB	00H
	DB	00H
	DB	0ffH
	DB	00H
	DB	00H
	DB	00H
	DB	0ffH
	DB	00H
	DB	00H
	DB	00H
	DB	0ffH
	DB	00H
	DB	00H
	DB	00H
	DB	0ffH
	DB	00H
	DB	00H
	DB	00H
	DB	0ffH
	DB	00H
	DB	00H
	DB	00H
	DB	0ffH
	DB	00H
	DB	00H
	DB	00H
	DB	0ffH
	DB	00H
	DB	00H
	DB	00H
	DB	0ffH
	DB	00H
	DB	00H
	DB	00H
	DB	0ffH
	DB	00H
	DB	00H
	DB	00H
	DB	0ffH
	DB	00H
	DB	00H
	DB	00H
	DB	0ffH
	DB	00H
	DB	00H
	DB	00H
	DB	0ffH
	DB	00H
	DB	00H
	DB	00H
	DB	0ffH
	DB	00H
	DB	00H
	DB	00H
	DB	0ffH
	DB	00H
	DB	00H
	DB	00H
	DB	0ffH
	DB	00H
	DB	00H
	DB	00H
	DB	0ffH
	DB	00H
	DB	00H
	DB	00H
	DB	0ffH
	DB	00H
	DB	00H
	DB	00H
	DB	0ffH
	DB	00H
	DB	00H
	DB	00H
	DB	0ffH
	DB	00H
	DB	00H
	DB	00H
	DB	0ffH
	DB	00H
	DB	00H
	DB	00H
	DB	0ffH
	DB	08H
	DB	04H
	DB	08H
	DB	0ffH
	DB	018H
	DB	01cH
	DB	018H
	DB	0ffH
	DB	048H
	DB	04cH
	DB	048H
	DB	0ffH
	DB	078H
	DB	074H
	DB	078H
	DB	0ffH
	DB	078H
	DB	07cH
	DB	078H
	DB	0ffH
	DB	078H
	DB	07cH
	DB	078H
	DB	0ffH
	DB	078H
	DB	078H
	DB	078H
	DB	096H
	DB	00H
	DB	00H
	DB	00H
	DB	00H
	DB	00H
	DB	00H
	DB	00H
	DB	00H
	DB	078H
	DB	074H
	DB	078H
	DB	04H
	DB	078H
	DB	078H
	DB	078H
	DB	0baH
	DB	080H
	DB	07cH
	DB	080H
	DB	0ffH
	DB	078H
	DB	07cH
	DB	080H
	DB	0ffH
	DB	078H
	DB	078H
	DB	078H
	DB	0ffH
	DB	078H
	DB	078H
	DB	078H
	DB	0ffH
	DB	070H
	DB	074H
	DB	070H
	DB	0ffH
	DB	070H
	DB	074H
	DB	070H
	DB	0ffH
	DB	070H
	DB	074H
	DB	070H
	DB	0ffH
	DB	070H
	DB	074H
	DB	070H
	DB	0ffH
	DB	070H
	DB	070H
	DB	070H
	DB	0ffH
	DB	070H
	DB	074H
	DB	070H
	DB	0ffH
	DB	070H
	DB	070H
	DB	070H
	DB	0ffH
	DB	070H
	DB	074H
	DB	070H
	DB	0ffH
	DB	070H
	DB	070H
	DB	070H
	DB	0ffH
	DB	070H
	DB	074H
	DB	070H
	DB	0ffH
	DB	070H
	DB	074H
	DB	070H
	DB	0ffH
	DB	070H
	DB	070H
	DB	070H
	DB	0ffH
	DB	070H
	DB	074H
	DB	070H
	DB	0ffH
	DB	070H
	DB	074H
	DB	070H
	DB	0ffH
	DB	070H
	DB	070H
	DB	070H
	DB	0ffH
	DB	070H
	DB	074H
	DB	070H
	DB	0ffH
	DB	070H
	DB	074H
	DB	070H
	DB	0ffH
	DB	070H
	DB	070H
	DB	070H
	DB	0ffH
	DB	070H
	DB	074H
	DB	070H
	DB	0ffH
	DB	070H
	DB	070H
	DB	070H
	DB	0ffH
	DB	070H
	DB	074H
	DB	070H
	DB	0ffH
	DB	070H
	DB	074H
	DB	070H
	DB	0ffH
	DB	070H
	DB	070H
	DB	070H
	DB	0ffH
	DB	070H
	DB	074H
	DB	070H
	DB	0ffH
	DB	070H
	DB	070H
	DB	070H
	DB	0ffH
	DB	070H
	DB	074H
	DB	070H
	DB	0ffH
	DB	070H
	DB	074H
	DB	070H
	DB	0ffH
	DB	070H
	DB	070H
	DB	070H
	DB	0ffH
	DB	070H
	DB	070H
	DB	070H
	DB	0ffH
	DB	070H
	DB	074H
	DB	070H
	DB	0ffH
	DB	070H
	DB	070H
	DB	070H
	DB	0ffH
	DB	070H
	DB	070H
	DB	070H
	DB	0ffH
	DB	070H
	DB	074H
	DB	070H
	DB	0ffH
	DB	070H
	DB	070H
	DB	070H
	DB	0ffH
	DB	070H
	DB	070H
	DB	070H
	DB	0ffH
	DB	070H
	DB	074H
	DB	070H
	DB	0ffH
	DB	070H
	DB	070H
	DB	070H
	DB	0ffH
	DB	070H
	DB	070H
	DB	070H
	DB	0ffH
	DB	070H
	DB	070H
	DB	070H
	DB	0ffH
	DB	070H
	DB	070H
	DB	070H
	DB	0ffH
	DB	070H
	DB	074H
	DB	070H
	DB	0ffH
	DB	070H
	DB	070H
	DB	070H
	DB	0ffH
	DB	070H
	DB	070H
	DB	070H
	DB	0ffH
	DB	070H
	DB	070H
	DB	070H
	DB	0ffH
	DB	070H
	DB	070H
	DB	070H
	DB	0ffH
	DB	070H
	DB	074H
	DB	070H
	DB	0ffH
	DB	070H
	DB	070H
	DB	070H
	DB	0ffH
	DB	070H
	DB	070H
	DB	070H
	DB	0ffH
	DB	070H
	DB	074H
	DB	070H
	DB	0ffH
	DB	070H
	DB	070H
	DB	070H
	DB	0ffH
	DB	070H
	DB	074H
	DB	070H
	DB	0ffH
	DB	070H
	DB	074H
	DB	070H
	DB	0ffH
	DB	070H
	DB	074H
	DB	070H
	DB	0ffH
	DB	070H
	DB	074H
	DB	070H
	DB	0ffH
	DB	070H
	DB	074H
	DB	078H
	DB	0ffH
	DB	070H
	DB	074H
	DB	070H
	DB	0ffH
	DB	070H
	DB	070H
	DB	070H
	DB	0ffH
	DB	070H
	DB	070H
	DB	070H
	DB	0ffH
	DB	070H
	DB	06cH
	DB	070H
	DB	0ffH
	DB	068H
	DB	06cH
	DB	068H
	DB	0ffH
	DB	068H
	DB	068H
	DB	068H
	DB	0ffH
	DB	068H
	DB	068H
	DB	068H
	DB	0ffH
	DB	068H
	DB	068H
	DB	068H
	DB	0ffH
	DB	068H
	DB	068H
	DB	068H
	DB	0ffH
	DB	068H
	DB	06cH
	DB	068H
	DB	0ffH
	DB	068H
	DB	068H
	DB	068H
	DB	0ffH
	DB	068H
	DB	068H
	DB	068H
	DB	0ffH
	DB	068H
	DB	068H
	DB	068H
	DB	0ffH
	DB	068H
	DB	068H
	DB	068H
	DB	0ffH
	DB	068H
	DB	068H
	DB	068H
	DB	0ffH
	DB	068H
	DB	068H
	DB	068H
	DB	0ffH
	DB	068H
	DB	068H
	DB	068H
	DB	0ffH
	DB	068H
	DB	06cH
	DB	068H
	DB	0ffH
	DB	068H
	DB	068H
	DB	068H
	DB	0ffH
	DB	068H
	DB	068H
	DB	068H
	DB	0ffH
	DB	068H
	DB	068H
	DB	068H
	DB	0ffH
	DB	068H
	DB	06cH
	DB	068H
	DB	0ffH
	DB	068H
	DB	068H
	DB	068H
	DB	0ffH
	DB	070H
	DB	068H
	DB	070H
	DB	0ffH
	DB	068H
	DB	068H
	DB	068H
	DB	0ffH
	DB	068H
	DB	06cH
	DB	068H
	DB	0ffH
	DB	070H
	DB	068H
	DB	070H
	DB	0ffH
	DB	068H
	DB	068H
	DB	068H
	DB	0ffH
	DB	068H
	DB	06cH
	DB	068H
	DB	0ffH
	DB	068H
	DB	068H
	DB	068H
	DB	0ffH
	DB	068H
	DB	068H
	DB	068H
	DB	0ffH
	DB	068H
	DB	06cH
	DB	068H
	DB	0ffH
	DB	068H
	DB	068H
	DB	068H
	DB	0ffH
	DB	068H
	DB	06cH
	DB	068H
	DB	0ffH
	DB	068H
	DB	068H
	DB	068H
	DB	0ffH
	DB	070H
	DB	068H
	DB	070H
	DB	0ffH
	DB	068H
	DB	06cH
	DB	068H
	DB	0ffH
	DB	068H
	DB	068H
	DB	068H
	DB	0ffH
	DB	068H
	DB	06cH
	DB	068H
	DB	0ffH
	DB	070H
	DB	068H
	DB	070H
	DB	0ffH
	DB	068H
	DB	068H
	DB	068H
	DB	0ffH
	DB	068H
	DB	06cH
	DB	068H
	DB	0ffH
	DB	070H
	DB	068H
	DB	070H
	DB	0ffH
	DB	068H
	DB	06cH
	DB	068H
	DB	0ffH
	DB	068H
	DB	068H
	DB	068H
	DB	0ffH
	DB	068H
	DB	068H
	DB	068H
	DB	0ffH
	DB	068H
	DB	06cH
	DB	068H
	DB	0ffH
	DB	068H
	DB	068H
	DB	068H
	DB	0ffH
	DB	068H
	DB	068H
	DB	068H
	DB	0ffH
	DB	068H
	DB	06cH
	DB	068H
	DB	0ffH
	DB	068H
	DB	068H
	DB	068H
	DB	0ffH
	DB	068H
	DB	068H
	DB	068H
	DB	0ffH
	DB	068H
	DB	06cH
	DB	068H
	DB	0ffH
	DB	068H
	DB	068H
	DB	068H
	DB	0ffH
	DB	068H
	DB	068H
	DB	068H
	DB	0ffH
	DB	068H
	DB	068H
	DB	068H
	DB	0ffH
	DB	068H
	DB	06cH
	DB	068H
	DB	0ffH
	DB	070H
	DB	06cH
	DB	070H
	DB	0ffH
	DB	070H
	DB	070H
	DB	070H
	DB	0ffH
	DB	070H
	DB	074H
	DB	070H
	DB	0ffH
	DB	078H
	DB	078H
	DB	078H
	DB	0ffH
	DB	078H
	DB	07cH
	DB	078H
	DB	0ffH
	DB	080H
	DB	07cH
	DB	080H
	DB	0ffH
	DB	078H
	DB	078H
	DB	078H
	DB	0beH
	DB	070H
	DB	074H
	DB	070H
	DB	04H
	DB	00H
	DB	00H
	DB	00H
	DB	00H
	DB	00H
	DB	00H
	DB	00H
	DB	00H
	DB	00H
	DB	00H
	DB	00H
	DB	00H
	DB	078H
	DB	078H
	DB	078H
	DB	08H
	DB	078H
	DB	07cH
	DB	078H
	DB	092H
	DB	080H
	DB	07cH
	DB	080H
	DB	0ffH
	DB	080H
	DB	080H
	DB	080H
	DB	0ffH
	DB	080H
	DB	07cH
	DB	080H
	DB	0ffH
	DB	078H
	DB	07cH
	DB	078H
	DB	0ffH
	DB	078H
	DB	07cH
	DB	080H
	DB	0ffH
	DB	078H
	DB	078H
	DB	078H
	DB	0ffH
	DB	078H
	DB	078H
	DB	078H
	DB	0ffH
	DB	078H
	DB	07cH
	DB	080H
	DB	0ffH
	DB	078H
	DB	07cH
	DB	078H
	DB	0ffH
	DB	078H
	DB	078H
	DB	078H
	DB	0ffH
	DB	078H
	DB	078H
	DB	078H
	DB	0ffH
	DB	078H
	DB	07cH
	DB	078H
	DB	0ffH
	DB	078H
	DB	078H
	DB	078H
	DB	0ffH
	DB	078H
	DB	078H
	DB	078H
	DB	0ffH
	DB	078H
	DB	07cH
	DB	078H
	DB	0ffH
	DB	078H
	DB	078H
	DB	078H
	DB	0ffH
	DB	078H
	DB	078H
	DB	078H
	DB	0ffH
	DB	078H
	DB	07cH
	DB	078H
	DB	0ffH
	DB	078H
	DB	078H
	DB	078H
	DB	0ffH
	DB	078H
	DB	078H
	DB	078H
	DB	0ffH
	DB	078H
	DB	07cH
	DB	078H
	DB	0ffH
	DB	078H
	DB	078H
	DB	078H
	DB	0ffH
	DB	078H
	DB	07cH
	DB	078H
	DB	0ffH
	DB	078H
	DB	078H
	DB	078H
	DB	0ffH
	DB	078H
	DB	078H
	DB	078H
	DB	0ffH
	DB	078H
	DB	07cH
	DB	078H
	DB	0ffH
	DB	078H
	DB	078H
	DB	078H
	DB	0ffH
	DB	078H
	DB	07cH
	DB	078H
	DB	0ffH
	DB	078H
	DB	078H
	DB	078H
	DB	0ffH
	DB	078H
	DB	078H
	DB	078H
	DB	0ffH
	DB	078H
	DB	07cH
	DB	078H
	DB	0ffH
	DB	078H
	DB	07cH
	DB	078H
	DB	0ffH
	DB	078H
	DB	078H
	DB	078H
	DB	0ffH
	DB	078H
	DB	07cH
	DB	078H
	DB	0ffH
	DB	078H
	DB	07cH
	DB	078H
	DB	0ffH
	DB	078H
	DB	078H
	DB	078H
	DB	0ffH
	DB	078H
	DB	07cH
	DB	078H
	DB	0ffH
	DB	078H
	DB	07cH
	DB	078H
	DB	0ffH
	DB	078H
	DB	078H
	DB	078H
	DB	0ffH
	DB	078H
	DB	07cH
	DB	078H
	DB	0ffH
	DB	078H
	DB	07cH
	DB	078H
	DB	0ffH
	DB	078H
	DB	07cH
	DB	078H
	DB	0ffH
	DB	078H
	DB	078H
	DB	078H
	DB	0ffH
	DB	078H
	DB	07cH
	DB	078H
	DB	0ffH
	DB	078H
	DB	07cH
	DB	078H
	DB	0ffH
	DB	078H
	DB	078H
	DB	078H
	DB	0ffH
	DB	078H
	DB	07cH
	DB	078H
	DB	0ffH
	DB	078H
	DB	07cH
	DB	078H
	DB	0ffH
	DB	078H
	DB	078H
	DB	078H
	DB	0ffH
	DB	078H
	DB	07cH
	DB	078H
	DB	0ffH
	DB	078H
	DB	07cH
	DB	078H
	DB	0ffH
	DB	078H
	DB	078H
	DB	078H
	DB	0ffH
	DB	078H
	DB	07cH
	DB	078H
	DB	0ffH
	DB	078H
	DB	078H
	DB	080H
	DB	0ffH
	DB	078H
	DB	078H
	DB	078H
	DB	0ffH
	DB	078H
	DB	078H
	DB	078H
	DB	0ffH
	DB	078H
	DB	078H
	DB	080H
	DB	0ffH
	DB	078H
	DB	078H
	DB	078H
	DB	0ffH
	DB	078H
	DB	078H
	DB	078H
	DB	0ffH
	DB	078H
	DB	07cH
	DB	078H
	DB	0ffH
	DB	078H
	DB	078H
	DB	078H
	DB	0ffH
	DB	078H
	DB	078H
	DB	078H
	DB	0ffH
	DB	078H
	DB	078H
	DB	078H
	DB	0ffH
	DB	078H
	DB	078H
	DB	078H
	DB	0ffH
	DB	078H
	DB	078H
	DB	078H
	DB	0ffH
	DB	078H
	DB	078H
	DB	078H
	DB	0ffH
	DB	078H
	DB	078H
	DB	078H
	DB	0ffH
	DB	078H
	DB	078H
	DB	078H
	DB	0ffH
	DB	078H
	DB	078H
	DB	078H
	DB	0ffH
	DB	078H
	DB	078H
	DB	078H
	DB	0ffH
	DB	078H
	DB	078H
	DB	078H
	DB	0ffH
	DB	078H
	DB	078H
	DB	078H
	DB	0ffH
	DB	078H
	DB	078H
	DB	078H
	DB	0ffH
	DB	078H
	DB	078H
	DB	078H
	DB	0ffH
	DB	078H
	DB	078H
	DB	078H
	DB	0ffH
	DB	078H
	DB	078H
	DB	078H
	DB	0ffH
	DB	078H
	DB	078H
	DB	078H
	DB	0ffH
	DB	078H
	DB	078H
	DB	078H
	DB	0ffH
	DB	078H
	DB	078H
	DB	078H
	DB	0ffH
	DB	078H
	DB	078H
	DB	078H
	DB	0ffH
	DB	078H
	DB	078H
	DB	078H
	DB	0ffH
	DB	078H
	DB	078H
	DB	078H
	DB	0ffH
	DB	078H
	DB	078H
	DB	078H
	DB	0ffH
	DB	078H
	DB	078H
	DB	078H
	DB	0ffH
	DB	078H
	DB	078H
	DB	078H
	DB	0ffH
	DB	078H
	DB	078H
	DB	078H
	DB	0ffH
	DB	078H
	DB	078H
	DB	078H
	DB	0ffH
	DB	078H
	DB	078H
	DB	078H
	DB	0ffH
	DB	078H
	DB	078H
	DB	078H
	DB	0ffH
	DB	078H
	DB	078H
	DB	078H
	DB	0ffH
	DB	078H
	DB	078H
	DB	078H
	DB	0ffH
	DB	078H
	DB	078H
	DB	078H
	DB	0ffH
	DB	078H
	DB	078H
	DB	078H
	DB	0ffH
	DB	078H
	DB	078H
	DB	078H
	DB	0ffH
	DB	078H
	DB	078H
	DB	078H
	DB	0ffH
	DB	078H
	DB	078H
	DB	078H
	DB	0ffH
	DB	078H
	DB	078H
	DB	078H
	DB	0ffH
	DB	078H
	DB	078H
	DB	078H
	DB	0ffH
	DB	078H
	DB	078H
	DB	078H
	DB	0ffH
	DB	078H
	DB	078H
	DB	078H
	DB	0ffH
	DB	078H
	DB	078H
	DB	078H
	DB	0ffH
	DB	078H
	DB	078H
	DB	078H
	DB	0ffH
	DB	078H
	DB	078H
	DB	078H
	DB	0ffH
	DB	078H
	DB	078H
	DB	078H
	DB	0ffH
	DB	078H
	DB	078H
	DB	078H
	DB	0ffH
	DB	078H
	DB	078H
	DB	078H
	DB	0ffH
	DB	078H
	DB	078H
	DB	078H
	DB	0ffH
	DB	078H
	DB	078H
	DB	078H
	DB	0ffH
	DB	078H
	DB	078H
	DB	078H
	DB	0ffH
	DB	078H
	DB	078H
	DB	078H
	DB	0ffH
	DB	078H
	DB	078H
	DB	078H
	DB	0ffH
	DB	078H
	DB	078H
	DB	078H
	DB	0ffH
	DB	078H
	DB	078H
	DB	078H
	DB	0ffH
	DB	078H
	DB	078H
	DB	078H
	DB	0ffH
	DB	078H
	DB	078H
	DB	078H
	DB	0ffH
	DB	078H
	DB	078H
	DB	078H
	DB	0ffH
	DB	078H
	DB	078H
	DB	078H
	DB	0ffH
	DB	080H
	DB	07cH
	DB	080H
	DB	0ffH
	DB	080H
	DB	07cH
	DB	080H
	DB	0ffH
	DB	080H
	DB	07cH
	DB	080H
	DB	0fbH
	DB	078H
	DB	07cH
	DB	078H
	DB	096H
	DB	078H
	DB	074H
	DB	078H
	DB	08H
	DB	00H
	DB	00H
	DB	00H
	DB	00H
	DB	00H
	DB	00H
	DB	00H
	DB	00H
	DB	00H
	DB	00H
	DB	00H
	DB	00H
	DB	00H
	DB	00H
	DB	00H
	DB	00H
	DB	00H
	DB	00H
	DB	00H
	DB	00H
	DB	00H
	DB	00H
	DB	00H
	DB	00H
	DB	078H
	DB	07cH
	DB	078H
	DB	02cH
	DB	080H
	DB	07cH
	DB	078H
	DB	08eH
	DB	080H
	DB	07cH
	DB	080H
	DB	0d7H
	DB	080H
	DB	080H
	DB	080H
	DB	0fbH
	DB	080H
	DB	07cH
	DB	080H
	DB	0ffH
	DB	080H
	DB	07cH
	DB	080H
	DB	0ffH
	DB	080H
	DB	080H
	DB	080H
	DB	0ffH
	DB	080H
	DB	07cH
	DB	080H
	DB	0ffH
	DB	080H
	DB	080H
	DB	080H
	DB	0ffH
	DB	080H
	DB	080H
	DB	080H
	DB	0ffH
	DB	080H
	DB	07cH
	DB	080H
	DB	0ffH
	DB	080H
	DB	080H
	DB	080H
	DB	0ffH
	DB	080H
	DB	080H
	DB	080H
	DB	0ffH
	DB	080H
	DB	07cH
	DB	080H
	DB	0ffH
	DB	080H
	DB	080H
	DB	080H
	DB	0ffH
	DB	080H
	DB	07cH
	DB	080H
	DB	0ffH
	DB	080H
	DB	080H
	DB	080H
	DB	0ffH
	DB	080H
	DB	080H
	DB	080H
	DB	0ffH
	DB	080H
	DB	07cH
	DB	080H
	DB	0ffH
	DB	080H
	DB	080H
	DB	080H
	DB	0ffH
	DB	080H
	DB	07cH
	DB	080H
	DB	0ffH
	DB	080H
	DB	080H
	DB	080H
	DB	0ffH
	DB	080H
	DB	07cH
	DB	080H
	DB	0ffH
	DB	080H
	DB	080H
	DB	080H
	DB	0ffH
	DB	080H
	DB	07cH
	DB	080H
	DB	0ffH
	DB	080H
	DB	080H
	DB	080H
	DB	0ffH
	DB	080H
	DB	07cH
	DB	080H
	DB	0ffH
	DB	080H
	DB	080H
	DB	080H
	DB	0ffH
	DB	080H
	DB	07cH
	DB	080H
	DB	0ffH
	DB	080H
	DB	080H
	DB	080H
	DB	0ffH
	DB	080H
	DB	080H
	DB	080H
	DB	0ffH
	DB	080H
	DB	07cH
	DB	080H
	DB	0ffH
	DB	080H
	DB	07cH
	DB	080H
	DB	0ffH
	DB	080H
	DB	080H
	DB	080H
	DB	0ffH
	DB	080H
	DB	07cH
	DB	080H
	DB	0ffH
	DB	080H
	DB	080H
	DB	080H
	DB	0ffH
	DB	080H
	DB	07cH
	DB	080H
	DB	0ffH
	DB	080H
	DB	080H
	DB	080H
	DB	0ffH
	DB	080H
	DB	07cH
	DB	080H
	DB	0ffH
	DB	080H
	DB	07cH
	DB	080H
	DB	0ffH
	DB	080H
	DB	080H
	DB	080H
	DB	0ffH
	DB	080H
	DB	07cH
	DB	080H
	DB	0ffH
	DB	080H
	DB	080H
	DB	080H
	DB	0ffH
	DB	080H
	DB	07cH
	DB	080H
	DB	0ffH
	DB	080H
	DB	080H
	DB	080H
	DB	0ffH
	DB	080H
	DB	07cH
	DB	080H
	DB	0ffH
	DB	080H
	DB	080H
	DB	080H
	DB	0ffH
	DB	080H
	DB	080H
	DB	080H
	DB	0ffH
	DB	080H
	DB	07cH
	DB	080H
	DB	0ffH
	DB	080H
	DB	07cH
	DB	080H
	DB	0ffH
	DB	080H
	DB	080H
	DB	080H
	DB	0ffH
	DB	080H
	DB	07cH
	DB	080H
	DB	0ffH
	DB	080H
	DB	080H
	DB	080H
	DB	0ffH
	DB	080H
	DB	080H
	DB	080H
	DB	0ffH
	DB	080H
	DB	07cH
	DB	080H
	DB	0ffH
	DB	080H
	DB	080H
	DB	080H
	DB	0ffH
	DB	080H
	DB	080H
	DB	080H
	DB	0ffH
	DB	080H
	DB	07cH
	DB	080H
	DB	0ffH
	DB	080H
	DB	080H
	DB	080H
	DB	0ffH
	DB	080H
	DB	07cH
	DB	080H
	DB	0ffH
	DB	080H
	DB	07cH
	DB	080H
	DB	0ffH
	DB	080H
	DB	080H
	DB	080H
	DB	0ffH
	DB	080H
	DB	07cH
	DB	080H
	DB	0ffH
	DB	080H
	DB	080H
	DB	080H
	DB	0ffH
	DB	080H
	DB	080H
	DB	080H
	DB	0ffH
	DB	080H
	DB	07cH
	DB	080H
	DB	0ffH
	DB	080H
	DB	080H
	DB	080H
	DB	0ffH
	DB	080H
	DB	07cH
	DB	080H
	DB	0ffH
	DB	080H
	DB	080H
	DB	080H
	DB	0ffH
	DB	080H
	DB	080H
	DB	080H
	DB	0ffH
	DB	080H
	DB	07cH
	DB	080H
	DB	0ffH
	DB	080H
	DB	080H
	DB	080H
	DB	0ffH
	DB	080H
	DB	080H
	DB	080H
	DB	0ffH
	DB	080H
	DB	080H
	DB	080H
	DB	0ffH
	DB	080H
	DB	07cH
	DB	080H
	DB	0ffH
	DB	080H
	DB	07cH
	DB	080H
	DB	0ffH
	DB	080H
	DB	080H
	DB	080H
	DB	0ffH
	DB	080H
	DB	07cH
	DB	080H
	DB	0ffH
	DB	080H
	DB	080H
	DB	080H
	DB	0ffH
	DB	080H
	DB	07cH
	DB	080H
	DB	0ffH
	DB	080H
	DB	07cH
	DB	080H
	DB	0ffH
	DB	080H
	DB	080H
	DB	080H
	DB	0ffH
	DB	080H
	DB	07cH
	DB	080H
	DB	0ffH
	DB	080H
	DB	07cH
	DB	080H
	DB	0ffH
	DB	080H
	DB	080H
	DB	080H
	DB	0ffH
	DB	080H
	DB	07cH
	DB	080H
	DB	0ffH
	DB	080H
	DB	07cH
	DB	080H
	DB	0ffH
	DB	080H
	DB	080H
	DB	080H
	DB	0ffH
	DB	080H
	DB	07cH
	DB	080H
	DB	0ffH
	DB	080H
	DB	07cH
	DB	080H
	DB	0ffH
	DB	080H
	DB	080H
	DB	080H
	DB	0ffH
	DB	080H
	DB	07cH
	DB	080H
	DB	0ffH
	DB	080H
	DB	07cH
	DB	080H
	DB	0ffH
	DB	080H
	DB	080H
	DB	080H
	DB	0ffH
	DB	080H
	DB	07cH
	DB	080H
	DB	0ffH
	DB	080H
	DB	07cH
	DB	080H
	DB	0ffH
	DB	080H
	DB	080H
	DB	080H
	DB	0ffH
	DB	080H
	DB	07cH
	DB	080H
	DB	0ffH
	DB	080H
	DB	07cH
	DB	080H
	DB	0ffH
	DB	080H
	DB	080H
	DB	080H
	DB	0ffH
	DB	080H
	DB	07cH
	DB	080H
	DB	0ffH
	DB	080H
	DB	07cH
	DB	080H
	DB	0ffH
	DB	080H
	DB	080H
	DB	080H
	DB	0ffH
	DB	080H
	DB	07cH
	DB	080H
	DB	0ffH
	DB	080H
	DB	07cH
	DB	080H
	DB	0ffH
	DB	080H
	DB	080H
	DB	080H
	DB	0ffH
	DB	080H
	DB	07cH
	DB	080H
	DB	0ffH
	DB	080H
	DB	07cH
	DB	080H
	DB	0ffH
	DB	080H
	DB	080H
	DB	080H
	DB	0ffH
	DB	080H
	DB	07cH
	DB	080H
	DB	0ffH
	DB	080H
	DB	07cH
	DB	080H
	DB	0ffH
	DB	080H
	DB	080H
	DB	080H
	DB	0ffH
	DB	080H
	DB	080H
	DB	080H
	DB	0ffH
	DB	080H
	DB	07cH
	DB	080H
	DB	0ffH
	DB	080H
	DB	080H
	DB	080H
	DB	0ffH
	DB	080H
	DB	07cH
	DB	080H
	DB	0ffH
	DB	080H
	DB	080H
	DB	080H
	DB	0f3H
	DB	080H
	DB	080H
	DB	080H
	DB	0d3H
	DB	080H
	DB	07cH
	DB	080H
	DB	092H
	DB	078H
	DB	07cH
	DB	078H
	DB	02cH
	DB	00H
	DB	00H
	DB	00H
	DB	00H
	DB	00H
	DB	00H
	DB	00H
	DB	00H
	DB	00H
	DB	00H
	DB	00H
	DB	00H
	DB	00H
	DB	00H
	DB	00H
	DB	00H
CONST	ENDS
END
