; Listing generated by Microsoft (R) Optimizing Compiler Version 19.27.29112.0 

	TITLE	D:\stm_gfx_hacktues_project\smart_home_v2\smart_home\TouchGFX\generated\texts\src\TypedTextDatabase.cpp
	.686P
	.XMM
	include listing.inc
	.model	flat

INCLUDELIB MSVCRTD
INCLUDELIB OLDNAMES

PUBLIC	?typedText_database_DEFAULT@@3QBUTypedTextData@TypedText@touchgfx@@B ; typedText_database_DEFAULT
PUBLIC	?typedTextDatabaseArray@@3QBQBUTypedTextData@TypedText@touchgfx@@B ; typedTextDatabaseArray
msvcjmc	SEGMENT
__29775C8A_vcruntime_new@h DB 01H
__A2AE09F2_Types@hpp DB 01H
__A6310F35_Unicode@hpp DB 01H
__50034995_Font@hpp DB 01H
__AB013426_Texts@hpp DB 01H
__71BFF0B3_TypedText@hpp DB 01H
__6E7FCCA0_ConstFont@hpp DB 01H
__CFAAD612_GeneratedFont@hpp DB 01H
__C028232C_TypedTextDatabase@cpp DB 01H
msvcjmc	ENDS
CONST	SEGMENT
?typedText_database_DEFAULT@@3QBUTypedTextData@TypedText@touchgfx@@B DB 01H ; typedText_database_DEFAULT
	DB	00H
	DB	00H
	DB	00H
	DB	00H
	DB	00H
	DB	00H
	DB	00H
	DB	01H
	DB	00H
	DB	01H
	DB	00H
?typedTextDatabaseArray@@3QBQBUTypedTextData@TypedText@touchgfx@@B DD FLAT:?typedText_database_DEFAULT@@3QBUTypedTextData@TypedText@touchgfx@@B ; typedTextDatabaseArray
CONST	ENDS
PUBLIC	?getInstance@TypedTextDatabase@@YAPBUTypedTextData@TypedText@touchgfx@@G@Z ; TypedTextDatabase::getInstance
PUBLIC	?getFonts@TypedTextDatabase@@YAPAPBVFont@touchgfx@@XZ ; TypedTextDatabase::getFonts
PUBLIC	?setFont@TypedTextDatabase@@YAPBVFont@touchgfx@@GPBV23@@Z ; TypedTextDatabase::setFont
PUBLIC	?resetFont@TypedTextDatabase@@YAXG@Z		; TypedTextDatabase::resetFont
PUBLIC	?getInstanceSize@TypedTextDatabase@@YAGXZ	; TypedTextDatabase::getInstanceSize
PUBLIC	__JustMyCode_Default
PUBLIC	?touchgfx_fonts@@3PAPBVFont@touchgfx@@A		; touchgfx_fonts
EXTRN	?getFont_verdana_20_4bpp@@YAAAVGeneratedFont@touchgfx@@XZ:PROC ; getFont_verdana_20_4bpp
EXTRN	?getFont_verdana_40_4bpp@@YAAAVGeneratedFont@touchgfx@@XZ:PROC ; getFont_verdana_40_4bpp
EXTRN	?getFont_verdana_10_4bpp@@YAAAVGeneratedFont@touchgfx@@XZ:PROC ; getFont_verdana_10_4bpp
EXTRN	@__CheckForDebuggerJustMyCode@4:PROC
EXTRN	__RTC_CheckEsp:PROC
EXTRN	__RTC_InitBase:PROC
EXTRN	__RTC_Shutdown:PROC
_BSS	SEGMENT
?touchgfx_fonts@@3PAPBVFont@touchgfx@@A DD 03H DUP (?)	; touchgfx_fonts
_BSS	ENDS
CRT$XCU	SEGMENT
?touchgfx_fonts$initializer$@@3P6AXXZA DD FLAT:??__Etouchgfx_fonts@@YAXXZ ; touchgfx_fonts$initializer$
CRT$XCU	ENDS
;	COMDAT rtc$TMZ
rtc$TMZ	SEGMENT
__RTC_Shutdown.rtc$TMZ DD FLAT:__RTC_Shutdown
rtc$TMZ	ENDS
;	COMDAT rtc$IMZ
rtc$IMZ	SEGMENT
__RTC_InitBase.rtc$IMZ DD FLAT:__RTC_InitBase
rtc$IMZ	ENDS
; Function compile flags: /Odt
;	COMDAT __JustMyCode_Default
_TEXT	SEGMENT
__JustMyCode_Default PROC				; COMDAT
	push	ebp
	mov	ebp, esp
	pop	ebp
	ret	0
__JustMyCode_Default ENDP
_TEXT	ENDS
; Function compile flags: /Odtp /RTCsu /ZI
;	COMDAT ??__Etouchgfx_fonts@@YAXXZ
text$di	SEGMENT
??__Etouchgfx_fonts@@YAXXZ PROC				; `dynamic initializer for 'touchgfx_fonts'', COMDAT
; File D:\stm_gfx_hacktues_project\smart_home_v2\smart_home\TouchGFX\generated\texts\src\TypedTextDatabase.cpp
; Line 17
	push	ebp
	mov	ebp, esp
	sub	esp, 192				; 000000c0H
	push	ebx
	push	esi
	push	edi
	lea	edi, DWORD PTR [ebp-192]
	mov	ecx, 48					; 00000030H
	mov	eax, -858993460				; ccccccccH
	rep stosd
	mov	ecx, OFFSET __C028232C_TypedTextDatabase@cpp
	call	@__CheckForDebuggerJustMyCode@4
; Line 14
	call	?getFont_verdana_20_4bpp@@YAAAVGeneratedFont@touchgfx@@XZ ; getFont_verdana_20_4bpp
	mov	DWORD PTR ?touchgfx_fonts@@3PAPBVFont@touchgfx@@A, eax
; Line 15
	call	?getFont_verdana_40_4bpp@@YAAAVGeneratedFont@touchgfx@@XZ ; getFont_verdana_40_4bpp
	mov	DWORD PTR ?touchgfx_fonts@@3PAPBVFont@touchgfx@@A+4, eax
; Line 16
	call	?getFont_verdana_10_4bpp@@YAAAVGeneratedFont@touchgfx@@XZ ; getFont_verdana_10_4bpp
	mov	DWORD PTR ?touchgfx_fonts@@3PAPBVFont@touchgfx@@A+8, eax
	pop	edi
	pop	esi
	pop	ebx
	add	esp, 192				; 000000c0H
	cmp	ebp, esp
	call	__RTC_CheckEsp
	mov	esp, ebp
	pop	ebp
	ret	0
??__Etouchgfx_fonts@@YAXXZ ENDP				; `dynamic initializer for 'touchgfx_fonts''
text$di	ENDS
; Function compile flags: /Odtp /RTCsu /ZI
;	COMDAT ?getInstanceSize@TypedTextDatabase@@YAGXZ
_TEXT	SEGMENT
?getInstanceSize@TypedTextDatabase@@YAGXZ PROC		; TypedTextDatabase::getInstanceSize, COMDAT
; File D:\stm_gfx_hacktues_project\smart_home_v2\smart_home\TouchGFX\generated\texts\src\TypedTextDatabase.cpp
; Line 47
	push	ebp
	mov	ebp, esp
	sub	esp, 192				; 000000c0H
	push	ebx
	push	esi
	push	edi
	lea	edi, DWORD PTR [ebp-192]
	mov	ecx, 48					; 00000030H
	mov	eax, -858993460				; ccccccccH
	rep stosd
	mov	ecx, OFFSET __C028232C_TypedTextDatabase@cpp
	call	@__CheckForDebuggerJustMyCode@4
; Line 48
	mov	eax, 6
; Line 49
	pop	edi
	pop	esi
	pop	ebx
	add	esp, 192				; 000000c0H
	cmp	ebp, esp
	call	__RTC_CheckEsp
	mov	esp, ebp
	pop	ebp
	ret	0
?getInstanceSize@TypedTextDatabase@@YAGXZ ENDP		; TypedTextDatabase::getInstanceSize
_TEXT	ENDS
; Function compile flags: /Odtp /RTCsu /ZI
;	COMDAT ?resetFont@TypedTextDatabase@@YAXG@Z
_TEXT	SEGMENT
tv65 = -196						; size = 4
_fontId$ = 8						; size = 2
?resetFont@TypedTextDatabase@@YAXG@Z PROC		; TypedTextDatabase::resetFont, COMDAT
; File D:\stm_gfx_hacktues_project\smart_home_v2\smart_home\TouchGFX\generated\texts\src\TypedTextDatabase.cpp
; Line 64
	push	ebp
	mov	ebp, esp
	sub	esp, 196				; 000000c4H
	push	ebx
	push	esi
	push	edi
	lea	edi, DWORD PTR [ebp-196]
	mov	ecx, 49					; 00000031H
	mov	eax, -858993460				; ccccccccH
	rep stosd
	mov	ecx, OFFSET __C028232C_TypedTextDatabase@cpp
	call	@__CheckForDebuggerJustMyCode@4
; Line 65
	movzx	eax, WORD PTR _fontId$[ebp]
	mov	DWORD PTR tv65[ebp], eax
	cmp	DWORD PTR tv65[ebp], 0
	je	SHORT $LN4@resetFont
	cmp	DWORD PTR tv65[ebp], 1
	je	SHORT $LN5@resetFont
	cmp	DWORD PTR tv65[ebp], 2
	je	SHORT $LN6@resetFont
	jmp	SHORT $LN1@resetFont
$LN4@resetFont:
; Line 68
	call	?getFont_verdana_20_4bpp@@YAAAVGeneratedFont@touchgfx@@XZ ; getFont_verdana_20_4bpp
	mov	ecx, 4
	imul	edx, ecx, 0
	mov	DWORD PTR ?touchgfx_fonts@@3PAPBVFont@touchgfx@@A[edx], eax
; Line 69
	jmp	SHORT $LN1@resetFont
$LN5@resetFont:
; Line 71
	call	?getFont_verdana_40_4bpp@@YAAAVGeneratedFont@touchgfx@@XZ ; getFont_verdana_40_4bpp
	mov	ecx, 4
	shl	ecx, 0
	mov	DWORD PTR ?touchgfx_fonts@@3PAPBVFont@touchgfx@@A[ecx], eax
; Line 72
	jmp	SHORT $LN1@resetFont
$LN6@resetFont:
; Line 74
	call	?getFont_verdana_10_4bpp@@YAAAVGeneratedFont@touchgfx@@XZ ; getFont_verdana_10_4bpp
	mov	ecx, 4
	shl	ecx, 1
	mov	DWORD PTR ?touchgfx_fonts@@3PAPBVFont@touchgfx@@A[ecx], eax
$LN1@resetFont:
; Line 77
	pop	edi
	pop	esi
	pop	ebx
	add	esp, 196				; 000000c4H
	cmp	ebp, esp
	call	__RTC_CheckEsp
	mov	esp, ebp
	pop	ebp
	ret	0
?resetFont@TypedTextDatabase@@YAXG@Z ENDP		; TypedTextDatabase::resetFont
_TEXT	ENDS
; Function compile flags: /Odtp /RTCsu /ZI
;	COMDAT ?setFont@TypedTextDatabase@@YAPBVFont@touchgfx@@GPBV23@@Z
_TEXT	SEGMENT
_old$ = -8						; size = 4
_fontId$ = 8						; size = 2
_font$ = 12						; size = 4
?setFont@TypedTextDatabase@@YAPBVFont@touchgfx@@GPBV23@@Z PROC ; TypedTextDatabase::setFont, COMDAT
; File D:\stm_gfx_hacktues_project\smart_home_v2\smart_home\TouchGFX\generated\texts\src\TypedTextDatabase.cpp
; Line 57
	push	ebp
	mov	ebp, esp
	sub	esp, 204				; 000000ccH
	push	ebx
	push	esi
	push	edi
	lea	edi, DWORD PTR [ebp-204]
	mov	ecx, 51					; 00000033H
	mov	eax, -858993460				; ccccccccH
	rep stosd
	mov	ecx, OFFSET __C028232C_TypedTextDatabase@cpp
	call	@__CheckForDebuggerJustMyCode@4
; Line 58
	movzx	eax, WORD PTR _fontId$[ebp]
	mov	ecx, DWORD PTR ?touchgfx_fonts@@3PAPBVFont@touchgfx@@A[eax*4]
	mov	DWORD PTR _old$[ebp], ecx
; Line 59
	movzx	eax, WORD PTR _fontId$[ebp]
	mov	ecx, DWORD PTR _font$[ebp]
	mov	DWORD PTR ?touchgfx_fonts@@3PAPBVFont@touchgfx@@A[eax*4], ecx
; Line 60
	mov	eax, DWORD PTR _old$[ebp]
; Line 61
	pop	edi
	pop	esi
	pop	ebx
	add	esp, 204				; 000000ccH
	cmp	ebp, esp
	call	__RTC_CheckEsp
	mov	esp, ebp
	pop	ebp
	ret	0
?setFont@TypedTextDatabase@@YAPBVFont@touchgfx@@GPBV23@@Z ENDP ; TypedTextDatabase::setFont
_TEXT	ENDS
; Function compile flags: /Odtp /RTCsu /ZI
;	COMDAT ?getFonts@TypedTextDatabase@@YAPAPBVFont@touchgfx@@XZ
_TEXT	SEGMENT
?getFonts@TypedTextDatabase@@YAPAPBVFont@touchgfx@@XZ PROC ; TypedTextDatabase::getFonts, COMDAT
; File D:\stm_gfx_hacktues_project\smart_home_v2\smart_home\TouchGFX\generated\texts\src\TypedTextDatabase.cpp
; Line 52
	push	ebp
	mov	ebp, esp
	sub	esp, 192				; 000000c0H
	push	ebx
	push	esi
	push	edi
	lea	edi, DWORD PTR [ebp-192]
	mov	ecx, 48					; 00000030H
	mov	eax, -858993460				; ccccccccH
	rep stosd
	mov	ecx, OFFSET __C028232C_TypedTextDatabase@cpp
	call	@__CheckForDebuggerJustMyCode@4
; Line 53
	mov	eax, OFFSET ?touchgfx_fonts@@3PAPBVFont@touchgfx@@A ; touchgfx_fonts
; Line 54
	pop	edi
	pop	esi
	pop	ebx
	add	esp, 192				; 000000c0H
	cmp	ebp, esp
	call	__RTC_CheckEsp
	mov	esp, ebp
	pop	ebp
	ret	0
?getFonts@TypedTextDatabase@@YAPAPBVFont@touchgfx@@XZ ENDP ; TypedTextDatabase::getFonts
_TEXT	ENDS
; Function compile flags: /Odtp /RTCsu /ZI
;	COMDAT ?getInstance@TypedTextDatabase@@YAPBUTypedTextData@TypedText@touchgfx@@G@Z
_TEXT	SEGMENT
_id$ = 8						; size = 2
?getInstance@TypedTextDatabase@@YAPBUTypedTextData@TypedText@touchgfx@@G@Z PROC ; TypedTextDatabase::getInstance, COMDAT
; File D:\stm_gfx_hacktues_project\smart_home_v2\smart_home\TouchGFX\generated\texts\src\TypedTextDatabase.cpp
; Line 42
	push	ebp
	mov	ebp, esp
	sub	esp, 192				; 000000c0H
	push	ebx
	push	esi
	push	edi
	lea	edi, DWORD PTR [ebp-192]
	mov	ecx, 48					; 00000030H
	mov	eax, -858993460				; ccccccccH
	rep stosd
	mov	ecx, OFFSET __C028232C_TypedTextDatabase@cpp
	call	@__CheckForDebuggerJustMyCode@4
; Line 43
	movzx	eax, WORD PTR _id$[ebp]
	mov	eax, DWORD PTR ?typedTextDatabaseArray@@3QBQBUTypedTextData@TypedText@touchgfx@@B[eax*4]
; Line 44
	pop	edi
	pop	esi
	pop	ebx
	add	esp, 192				; 000000c0H
	cmp	ebp, esp
	call	__RTC_CheckEsp
	mov	esp, ebp
	pop	ebp
	ret	0
?getInstance@TypedTextDatabase@@YAPBUTypedTextData@TypedText@touchgfx@@G@Z ENDP ; TypedTextDatabase::getInstance
_TEXT	ENDS
END
