; Listing generated by Microsoft (R) Optimizing Compiler Version 19.27.29112.0 

	TITLE	D:\hackTuesProject\project\TouchGFX\generated\images\src\BitmapDatabase.cpp
	.686P
	.XMM
	include listing.inc
	.model	flat

INCLUDELIB MSVCRTD
INCLUDELIB OLDNAMES

EXTRN	?image_arrow_left@@3QBEB:BYTE			; image_arrow_left
EXTRN	?image_arrow_left_pressed@@3QBEB:BYTE		; image_arrow_left_pressed
EXTRN	?image_arrow_right@@3QBEB:BYTE			; image_arrow_right
EXTRN	?image_arrow_right_pressed@@3QBEB:BYTE		; image_arrow_right_pressed
EXTRN	?image_back@@3QBEB:BYTE				; image_back
EXTRN	?image_bathroom_bg@@3QBEB:BYTE			; image_bathroom_bg
EXTRN	?image_bathroom_pressed@@3QBEB:BYTE		; image_bathroom_pressed
EXTRN	?image_bathtub@@3QBEB:BYTE			; image_bathtub
EXTRN	?image_bathtub_display_on@@3QBEB:BYTE		; image_bathtub_display_on
EXTRN	?image_bathtub_glow@@3QBEB:BYTE			; image_bathtub_glow
EXTRN	?image_bathtub_overlay@@3QBEB:BYTE		; image_bathtub_overlay
EXTRN	?image_bathtub_small@@3QBEB:BYTE		; image_bathtub_small
EXTRN	?image_bathtub_ui_bg@@3QBEB:BYTE		; image_bathtub_ui_bg
EXTRN	?image_bathtub_water@@3QBEB:BYTE		; image_bathtub_water
EXTRN	?image_bathtub_water_on@@3QBEB:BYTE		; image_bathtub_water_on
EXTRN	?image_blak_screen@@3QBEB:BYTE			; image_blak_screen
EXTRN	?image_blue_buttons_round_edge_small@@3QBEB:BYTE ; image_blue_buttons_round_edge_small
EXTRN	?image_blue_buttons_round_edge_small_pressed@@3QBEB:BYTE ; image_blue_buttons_round_edge_small_pressed
EXTRN	?image_blue_slider_horizontal_small_indicators_slider_horizontal_small_square_knob@@3QBEB:BYTE ; image_blue_slider_horizontal_small_indicators_slider_horizontal_small_square_knob
EXTRN	?image_blue_slider_horizontal_small_slider_horizontal_small_back@@3QBEB:BYTE ; image_blue_slider_horizontal_small_slider_horizontal_small_back
EXTRN	?image_blue_slider_horizontal_small_slider_horizontal_small_fill@@3QBEB:BYTE ; image_blue_slider_horizontal_small_slider_horizontal_small_fill
EXTRN	?image_blue_slider_vertical_small_indicators_slider3_vertical_round_nob@@3QBEB:BYTE ; image_blue_slider_vertical_small_indicators_slider3_vertical_round_nob
EXTRN	?image_blue_slider_vertical_small_slider3_vertical_round_back@@3QBEB:BYTE ; image_blue_slider_vertical_small_slider3_vertical_round_back
EXTRN	?image_blue_slider_vertical_small_slider3_vertical_round_fill@@3QBEB:BYTE ; image_blue_slider_vertical_small_slider3_vertical_round_fill
EXTRN	?image_c_f_off@@3QBEB:BYTE			; image_c_f_off
EXTRN	?image_c_on@@3QBEB:BYTE				; image_c_on
EXTRN	?image_colorwheel_250x250px@@3QBEB:BYTE		; image_colorwheel_250x250px
EXTRN	?image_colorwheel_picker_40x40px@@3QBEB:BYTE	; image_colorwheel_picker_40x40px
EXTRN	?image_dark_togglebars_toggle_large_button_off@@3QBEB:BYTE ; image_dark_togglebars_toggle_large_button_off
EXTRN	?image_dark_togglebars_toggle_large_button_on@@3QBEB:BYTE ; image_dark_togglebars_toggle_large_button_on
EXTRN	?image_devices_normal@@3QBEB:BYTE		; image_devices_normal
EXTRN	?image_devices_selected@@3QBEB:BYTE		; image_devices_selected
EXTRN	?image_extractor_hood_big@@3QBEB:BYTE		; image_extractor_hood_big
EXTRN	?image_f_on@@3QBEB:BYTE				; image_f_on
EXTRN	?image_food_recipies@@3QBEB:BYTE		; image_food_recipies
EXTRN	?image_frames_00000@@3QBEB:BYTE			; image_frames_00000
EXTRN	?image_frames_00001@@3QBEB:BYTE			; image_frames_00001
EXTRN	?image_frames_00002@@3QBEB:BYTE			; image_frames_00002
EXTRN	?image_frames_00003@@3QBEB:BYTE			; image_frames_00003
EXTRN	?image_frames_00004@@3QBEB:BYTE			; image_frames_00004
EXTRN	?image_frames_00005@@3QBEB:BYTE			; image_frames_00005
EXTRN	?image_frames_00006@@3QBEB:BYTE			; image_frames_00006
EXTRN	?image_frames_00007@@3QBEB:BYTE			; image_frames_00007
EXTRN	?image_frames_00008@@3QBEB:BYTE			; image_frames_00008
EXTRN	?image_frames_00009@@3QBEB:BYTE			; image_frames_00009
EXTRN	?image_go_back_button@@3QBEB:BYTE		; image_go_back_button
EXTRN	?image_go_back_button_bath@@3QBEB:BYTE		; image_go_back_button_bath
EXTRN	?image_go_back_button_home_control@@3QBEB:BYTE	; image_go_back_button_home_control
EXTRN	?image_go_back_button_pressed@@3QBEB:BYTE	; image_go_back_button_pressed
EXTRN	?image_gradient_center@@3QBEB:BYTE		; image_gradient_center
EXTRN	?image_gradient_overlay@@3QBEB:BYTE		; image_gradient_overlay
EXTRN	?image_home_temp_big@@3QBEB:BYTE		; image_home_temp_big
EXTRN	?image_homecontrol_display_on@@3QBEB:BYTE	; image_homecontrol_display_on
EXTRN	?image_homecontrol_glow@@3QBEB:BYTE		; image_homecontrol_glow
EXTRN	?image_homecontrol_ui_bg@@3QBEB:BYTE		; image_homecontrol_ui_bg
EXTRN	?image_icon1@@3QBEB:BYTE			; image_icon1
EXTRN	?image_icon2@@3QBEB:BYTE			; image_icon2
EXTRN	?image_info_air_humidity@@3QBEB:BYTE		; image_info_air_humidity
EXTRN	?image_infobutton@@3QBEB:BYTE			; image_infobutton
EXTRN	?image_istockphoto_685475894_170667a@@3QBEB:BYTE ; image_istockphoto_685475894_170667a
EXTRN	?image_jets_bg@@3QBEB:BYTE			; image_jets_bg
EXTRN	?image_jets_off@@3QBEB:BYTE			; image_jets_off
EXTRN	?image_jets_off_img@@3QBEB:BYTE			; image_jets_off_img
EXTRN	?image_jets_on@@3QBEB:BYTE			; image_jets_on
EXTRN	?image_jets_on_img@@3QBEB:BYTE			; image_jets_on_img
EXTRN	?image_kitchen_ui_bg@@3QBEB:BYTE		; image_kitchen_ui_bg
EXTRN	?image_light_button_on@@3QBEB:BYTE		; image_light_button_on
EXTRN	?image_light_off@@3QBEB:BYTE			; image_light_off
EXTRN	?image_light_on@@3QBEB:BYTE			; image_light_on
EXTRN	?image_lightcolor_bg@@3QBEB:BYTE		; image_lightcolor_bg
EXTRN	?image_lightcolor_selector_dot@@3QBEB:BYTE	; image_lightcolor_selector_dot
EXTRN	?image_lightoff@@3QBEB:BYTE			; image_lightoff
EXTRN	?image_lighton@@3QBEB:BYTE			; image_lighton
EXTRN	?image_lights_on@@3QBEB:BYTE			; image_lights_on
EXTRN	?image_lr_dark@@3QBEB:BYTE			; image_lr_dark
EXTRN	?image_main_bg_home_control@@3QBEB:BYTE		; image_main_bg_home_control
EXTRN	?image_main_go_back_button@@3QBEB:BYTE		; image_main_go_back_button
EXTRN	?image_main_slider_device@@3QBEB:BYTE		; image_main_slider_device
EXTRN	?image_main_slider_device_small@@3QBEB:BYTE	; image_main_slider_device_small
EXTRN	?image_main_slider_off@@3QBEB:BYTE		; image_main_slider_off
EXTRN	?image_main_slider_off_small@@3QBEB:BYTE	; image_main_slider_off_small
EXTRN	?image_main_slider_temp@@3QBEB:BYTE		; image_main_slider_temp
EXTRN	?image_main_slider_temp_small@@3QBEB:BYTE	; image_main_slider_temp_small
EXTRN	?image_minimalist_living_room@@3QBEB:BYTE	; image_minimalist_living_room
EXTRN	?image_music@@3QBEB:BYTE			; image_music
EXTRN	?image_oven@@3QBEB:BYTE				; image_oven
EXTRN	?image_oven_big@@3QBEB:BYTE			; image_oven_big
EXTRN	?image_ovenoff@@3QBEB:BYTE			; image_ovenoff
EXTRN	?image_ovenon@@3QBEB:BYTE			; image_ovenon
EXTRN	?image_pesonalize@@3QBEB:BYTE			; image_pesonalize
EXTRN	?image_power_icon@@3QBEB:BYTE			; image_power_icon
EXTRN	?image_propeller@@3QBEB:BYTE			; image_propeller
EXTRN	?image_recipes@@3QBEB:BYTE			; image_recipes
EXTRN	?image_room_temp_big@@3QBEB:BYTE		; image_room_temp_big
EXTRN	?image_schedule_icon@@3QBEB:BYTE		; image_schedule_icon
EXTRN	?image_select_glow@@3QBEB:BYTE			; image_select_glow
EXTRN	?image_selectedtempbg@@3QBEB:BYTE		; image_selectedtempbg
EXTRN	?image_settings_icon@@3QBEB:BYTE		; image_settings_icon
EXTRN	?image_sketch001@@3QBEB:BYTE			; image_sketch001
EXTRN	?image_sky_bg@@3QBEB:BYTE			; image_sky_bg
EXTRN	?image_sky_bg_reverse@@3QBEB:BYTE		; image_sky_bg_reverse
EXTRN	?image_st_housedemo_ui_bg@@3QBEB:BYTE		; image_st_housedemo_ui_bg
EXTRN	?image_temp_off@@3QBEB:BYTE			; image_temp_off
EXTRN	?image_temp_on@@3QBEB:BYTE			; image_temp_on
EXTRN	?image_temperature_bg@@3QBEB:BYTE		; image_temperature_bg
EXTRN	?image_temperature_normal@@3QBEB:BYTE		; image_temperature_normal
EXTRN	?image_temperature_selected@@3QBEB:BYTE		; image_temperature_selected
EXTRN	?image_termo_select@@3QBEB:BYTE			; image_termo_select
EXTRN	?image_thermometer_512@@3QBEB:BYTE		; image_thermometer_512
EXTRN	?image_top_go_back@@3QBEB:BYTE			; image_top_go_back
EXTRN	?image_top_gradient_overlay@@3QBEB:BYTE		; image_top_gradient_overlay
EXTRN	?image_wash_frame_01@@3QBEB:BYTE		; image_wash_frame_01
EXTRN	?image_wash_frame_02@@3QBEB:BYTE		; image_wash_frame_02
EXTRN	?image_wash_frame_03@@3QBEB:BYTE		; image_wash_frame_03
EXTRN	?image_wash_frame_04@@3QBEB:BYTE		; image_wash_frame_04
EXTRN	?image_wash_frame_05@@3QBEB:BYTE		; image_wash_frame_05
EXTRN	?image_wash_frame_06@@3QBEB:BYTE		; image_wash_frame_06
EXTRN	?image_wash_frame_07@@3QBEB:BYTE		; image_wash_frame_07
EXTRN	?image_wash_frame_08@@3QBEB:BYTE		; image_wash_frame_08
EXTRN	?image_wash_frame_09@@3QBEB:BYTE		; image_wash_frame_09
EXTRN	?image_wash_frame_10@@3QBEB:BYTE		; image_wash_frame_10
EXTRN	?image_wash_frame_11@@3QBEB:BYTE		; image_wash_frame_11
EXTRN	?image_washing_machine_big@@3QBEB:BYTE		; image_washing_machine_big
EXTRN	?image_washing_machine_display_on@@3QBEB:BYTE	; image_washing_machine_display_on
EXTRN	?image_washing_machine_glow@@3QBEB:BYTE		; image_washing_machine_glow
EXTRN	?image_washing_machine_on@@3QBEB:BYTE		; image_washing_machine_on
EXTRN	?image_wheel_select_top@@3QBEB:BYTE		; image_wheel_select_top
EXTRN	?image_white@@3QBEB:BYTE			; image_white
EXTRN	?image_window_bg@@3QBEB:BYTE			; image_window_bg
msvcjmc	SEGMENT
__8697AA51_Types@hpp DB 01H
__8906660C_vcruntime_new@h DB 01H
__EB822E42_Bitmap@hpp DB 01H
__FE618036_BitmapDatabase@cpp DB 01H
msvcjmc	ENDS
CONST	SEGMENT
?bitmap_database@@3QBUBitmapData@Bitmap@touchgfx@@B DD FLAT:?image_arrow_left@@3QBEB ; bitmap_database
	DD	00H
	DW	014H
	DW	023H
	DW	04H
	DW	0cH
	DW	05H
	DW	0400bH
	DD	FLAT:?image_arrow_left_pressed@@3QBEB
	DD	00H
	DW	014H
	DW	023H
	DW	04H
	DW	0cH
	DW	05H
	DW	0400bH
	DD	FLAT:?image_arrow_right@@3QBEB
	DD	00H
	DW	014H
	DW	023H
	DW	0bH
	DW	0cH
	DW	05H
	DW	0400bH
	DD	FLAT:?image_arrow_right_pressed@@3QBEB
	DD	00H
	DW	014H
	DW	023H
	DW	0bH
	DW	0cH
	DW	05H
	DW	0400bH
	DD	FLAT:?image_back@@3QBEB
	DD	00H
	DW	03cH
	DW	03cH
	DW	013H
	DW	013H
	DW	01cH
	DW	0401cH
	DD	FLAT:?image_bathroom_bg@@3QBEB
	DD	00H
	DW	01e0H
	DW	0110H
	DW	00H
	DW	00H
	DW	01e0H
	DW	0110H
	DD	FLAT:?image_bathroom_pressed@@3QBEB
	DD	00H
	DW	0aaH
	DW	046H
	DW	023H
	DW	0eH
	DW	074H
	DW	0402cH
	DD	FLAT:?image_bathtub@@3QBEB
	DD	00H
	DW	017cH
	DW	082H
	DW	012H
	DW	0aH
	DW	0158H
	DW	0406eH
	DD	FLAT:?image_bathtub_display_on@@3QBEB
	DD	00H
	DW	017H
	DW	013H
	DW	00H
	DW	00H
	DW	017H
	DW	013H
	DD	FLAT:?image_bathtub_glow@@3QBEB
	DD	00H
	DW	0e6H
	DW	082H
	DW	028H
	DW	010H
	DW	02eH
	DW	04001H
	DD	FLAT:?image_bathtub_overlay@@3QBEB
	DD	00H
	DW	0136H
	DW	06eH
	DW	00H
	DW	047H
	DW	0126H
	DW	04027H
	DD	FLAT:?image_bathtub_small@@3QBEB
	DD	00H
	DW	017cH
	DW	07cH
	DW	012H
	DW	07H
	DW	0158H
	DW	0406eH
	DD	FLAT:?image_bathtub_ui_bg@@3QBEB
	DD	00H
	DW	01e0H
	DW	0110H
	DW	00H
	DW	00H
	DW	01e0H
	DW	0110H
	DD	FLAT:?image_bathtub_water@@3QBEB
	DD	00H
	DW	0109H
	DW	073H
	DW	00H
	DW	00H
	DW	00H
	DW	04000H
	DD	FLAT:?image_bathtub_water_on@@3QBEB
	DD	00H
	DW	0a4H
	DW	012H
	DW	00H
	DW	00H
	DW	00H
	DW	04000H
	DD	FLAT:?image_blak_screen@@3QBEB
	DD	00H
	DW	05d4H
	DW	0343H
	DW	00H
	DW	00H
	DW	05d4H
	DW	0343H
	DD	FLAT:?image_blue_buttons_round_edge_small@@3QBEB
	DD	00H
	DW	0aaH
	DW	03cH
	DW	0bH
	DW	04H
	DW	094H
	DW	04032H
	DD	FLAT:?image_blue_buttons_round_edge_small_pressed@@3QBEB
	DD	00H
	DW	0aaH
	DW	03cH
	DW	0bH
	DW	04H
	DW	094H
	DW	04032H
	DD	FLAT:?image_blue_slider_horizontal_small_indicators_slider_horizontal_small_square_knob@@3QBEB
	DD	00H
	DW	036H
	DW	022H
	DW	02H
	DW	01H
	DW	032H
	DW	0401eH
	DD	FLAT:?image_blue_slider_horizontal_small_slider_horizontal_small_back@@3QBEB
	DD	00H
	DW	0acH
	DW	014H
	DW	00H
	DW	00H
	DW	0acH
	DW	014H
	DD	FLAT:?image_blue_slider_horizontal_small_slider_horizontal_small_fill@@3QBEB
	DD	00H
	DW	0acH
	DW	014H
	DW	00H
	DW	00H
	DW	0acH
	DW	014H
	DD	FLAT:?image_blue_slider_vertical_small_indicators_slider3_vertical_round_nob@@3QBEB
	DD	00H
	DW	022H
	DW	036H
	DW	05H
	DW	07H
	DW	018H
	DW	04026H
	DD	FLAT:?image_blue_slider_vertical_small_slider3_vertical_round_back@@3QBEB
	DD	00H
	DW	014H
	DW	0acH
	DW	00H
	DW	0aH
	DW	014H
	DW	04098H
	DD	FLAT:?image_blue_slider_vertical_small_slider3_vertical_round_fill@@3QBEB
	DD	00H
	DW	014H
	DW	0acH
	DW	00H
	DW	0aH
	DW	014H
	DW	04098H
	DD	FLAT:?image_c_f_off@@3QBEB
	DD	00H
	DW	03cH
	DW	018H
	DW	00H
	DW	00H
	DW	00H
	DW	04000H
	DD	FLAT:?image_c_on@@3QBEB
	DD	00H
	DW	078H
	DW	018H
	DW	03cH
	DW	00H
	DW	03cH
	DW	04018H
	DD	FLAT:?image_colorwheel_250x250px@@3QBEB
	DD	00H
	DW	0faH
	DW	0faH
	DW	029H
	DW	028H
	DW	0a8H
	DW	040aaH
	DD	FLAT:?image_colorwheel_picker_40x40px@@3QBEB
	DD	00H
	DW	028H
	DW	028H
	DW	01fH
	DW	0fH
	DW	03H
	DW	0400aH
	DD	FLAT:?image_dark_togglebars_toggle_large_button_off@@3QBEB
	DD	00H
	DW	080H
	DW	026H
	DW	00H
	DW	00H
	DW	080H
	DW	026H
	DD	FLAT:?image_dark_togglebars_toggle_large_button_on@@3QBEB
	DD	00H
	DW	080H
	DW	026H
	DW	00H
	DW	00H
	DW	080H
	DW	026H
	DD	FLAT:?image_devices_normal@@3QBEB
	DD	00H
	DW	078H
	DW	050H
	DW	00H
	DW	00H
	DW	078H
	DW	050H
	DD	FLAT:?image_devices_selected@@3QBEB
	DD	00H
	DW	078H
	DW	050H
	DW	00H
	DW	00H
	DW	078H
	DW	050H
	DD	FLAT:?image_extractor_hood_big@@3QBEB
	DD	00H
	DW	017cH
	DW	07cH
	DW	012H
	DW	07H
	DW	0158H
	DW	0406eH
	DD	FLAT:?image_f_on@@3QBEB
	DD	00H
	DW	078H
	DW	018H
	DW	00H
	DW	00H
	DW	03cH
	DW	04018H
	DD	FLAT:?image_food_recipies@@3QBEB
	DD	00H
	DW	017cH
	DW	05aH
	DW	012H
	DW	0aH
	DW	0158H
	DW	04046H
	DD	FLAT:?image_frames_00000@@3QBEB
	DD	00H
	DW	0eeH
	DW	0eeH
	DW	00H
	DW	00H
	DW	0eeH
	DW	0eeH
	DD	FLAT:?image_frames_00001@@3QBEB
	DD	00H
	DW	0eeH
	DW	0eeH
	DW	00H
	DW	00H
	DW	0eeH
	DW	0eeH
	DD	FLAT:?image_frames_00002@@3QBEB
	DD	00H
	DW	0eeH
	DW	0eeH
	DW	00H
	DW	00H
	DW	0eeH
	DW	0eeH
	DD	FLAT:?image_frames_00003@@3QBEB
	DD	00H
	DW	0eeH
	DW	0eeH
	DW	00H
	DW	00H
	DW	0eeH
	DW	0eeH
	DD	FLAT:?image_frames_00004@@3QBEB
	DD	00H
	DW	0eeH
	DW	0eeH
	DW	00H
	DW	00H
	DW	0eeH
	DW	0eeH
	DD	FLAT:?image_frames_00005@@3QBEB
	DD	00H
	DW	0eeH
	DW	0eeH
	DW	00H
	DW	00H
	DW	0eeH
	DW	0eeH
	DD	FLAT:?image_frames_00006@@3QBEB
	DD	00H
	DW	0eeH
	DW	0eeH
	DW	00H
	DW	00H
	DW	0eeH
	DW	0eeH
	DD	FLAT:?image_frames_00007@@3QBEB
	DD	00H
	DW	0eeH
	DW	0eeH
	DW	00H
	DW	00H
	DW	0eeH
	DW	0eeH
	DD	FLAT:?image_frames_00008@@3QBEB
	DD	00H
	DW	0eeH
	DW	0eeH
	DW	00H
	DW	00H
	DW	0eeH
	DW	0eeH
	DD	FLAT:?image_frames_00009@@3QBEB
	DD	00H
	DW	0eeH
	DW	0eeH
	DW	00H
	DW	00H
	DW	0eeH
	DW	0eeH
	DD	FLAT:?image_go_back_button@@3QBEB
	DD	00H
	DW	03cH
	DW	03cH
	DW	013H
	DW	013H
	DW	01cH
	DW	0401cH
	DD	FLAT:?image_go_back_button_bath@@3QBEB
	DD	00H
	DW	03cH
	DW	03cH
	DW	013H
	DW	013H
	DW	01cH
	DW	0401cH
	DD	FLAT:?image_go_back_button_home_control@@3QBEB
	DD	00H
	DW	03cH
	DW	03cH
	DW	015H
	DW	011H
	DW	018H
	DW	0401aH
	DD	FLAT:?image_go_back_button_pressed@@3QBEB
	DD	00H
	DW	03cH
	DW	03cH
	DW	015H
	DW	011H
	DW	018H
	DW	0401aH
	DD	FLAT:?image_gradient_center@@3QBEB
	DD	00H
	DW	092H
	DW	040H
	DW	06H
	DW	07H
	DW	086H
	DW	04032H
	DD	FLAT:?image_gradient_overlay@@3QBEB
	DD	00H
	DW	092H
	DW	07eH
	DW	09H
	DW	076H
	DW	080H
	DW	04008H
	DD	FLAT:?image_home_temp_big@@3QBEB
	DD	00H
	DW	017cH
	DW	07cH
	DW	012H
	DW	07H
	DW	0158H
	DW	0406eH
	DD	FLAT:?image_homecontrol_display_on@@3QBEB
	DD	00H
	DW	0dH
	DW	09H
	DW	00H
	DW	00H
	DW	0dH
	DW	09H
	DD	FLAT:?image_homecontrol_glow@@3QBEB
	DD	00H
	DW	03cH
	DW	03cH
	DW	00H
	DW	00H
	DW	03cH
	DW	03cH
	DD	FLAT:?image_homecontrol_ui_bg@@3QBEB
	DD	00H
	DW	01e0H
	DW	0110H
	DW	00H
	DW	00H
	DW	01e0H
	DW	0110H
	DD	FLAT:?image_icon1@@3QBEB
	DD	00H
	DW	0c8H
	DW	0c8H
	DW	07H
	DW	05eH
	DW	0baH
	DW	04004H
	DD	FLAT:?image_icon2@@3QBEB
	DD	00H
	DW	0200H
	DW	0200H
	DW	0183H
	DW	04cH
	DW	08H
	DW	04168H
	DD	FLAT:?image_info_air_humidity@@3QBEB
	DD	00H
	DW	064H
	DW	050H
	DW	0aH
	DW	02H
	DW	050H
	DW	04020H
	DD	FLAT:?image_infobutton@@3QBEB
	DD	00H
	DW	046H
	DW	07eH
	DW	00H
	DW	00H
	DW	046H
	DW	07eH
	DD	FLAT:?image_istockphoto_685475894_170667a@@3QBEB
	DD	00H
	DW	01fdH
	DW	0153H
	DW	00H
	DW	00H
	DW	01fdH
	DW	0153H
	DD	FLAT:?image_jets_bg@@3QBEB
	DD	00H
	DW	092H
	DW	0c2H
	DW	01H
	DW	03H
	DW	090H
	DW	040baH
	DD	FLAT:?image_jets_off@@3QBEB
	DD	00H
	DW	03cH
	DW	018H
	DW	00H
	DW	00H
	DW	03cH
	DW	018H
	DD	FLAT:?image_jets_off_img@@3QBEB
	DD	00H
	DW	064H
	DW	03cH
	DW	00H
	DW	00H
	DW	064H
	DW	03cH
	DD	FLAT:?image_jets_on@@3QBEB
	DD	00H
	DW	03cH
	DW	018H
	DW	00H
	DW	00H
	DW	03cH
	DW	018H
	DD	FLAT:?image_jets_on_img@@3QBEB
	DD	00H
	DW	064H
	DW	03cH
	DW	00H
	DW	00H
	DW	064H
	DW	03cH
	DD	FLAT:?image_kitchen_ui_bg@@3QBEB
	DD	00H
	DW	01e0H
	DW	0110H
	DW	00H
	DW	00H
	DW	01e0H
	DW	0110H
	DD	FLAT:?image_light_button_on@@3QBEB
	DD	00H
	DW	050H
	DW	050H
	DW	017H
	DW	011H
	DW	022H
	DW	04024H
	DD	FLAT:?image_light_off@@3QBEB
	DD	00H
	DW	064H
	DW	03cH
	DW	00H
	DW	00H
	DW	064H
	DW	03cH
	DD	FLAT:?image_light_on@@3QBEB
	DD	00H
	DW	064H
	DW	03cH
	DW	00H
	DW	00H
	DW	064H
	DW	03cH
	DD	FLAT:?image_lightcolor_bg@@3QBEB
	DD	00H
	DW	092H
	DW	0c2H
	DW	01H
	DW	03H
	DW	090H
	DW	040baH
	DD	FLAT:?image_lightcolor_selector_dot@@3QBEB
	DD	00H
	DW	028H
	DW	028H
	DW	01cH
	DW	010H
	DW	03H
	DW	04008H
	DD	FLAT:?image_lightoff@@3QBEB
	DD	00H
	DW	078H
	DW	018H
	DW	03cH
	DW	00H
	DW	03cH
	DW	04018H
	DD	FLAT:?image_lighton@@3QBEB
	DD	00H
	DW	078H
	DW	018H
	DW	00H
	DW	00H
	DW	03cH
	DW	04018H
	DD	FLAT:?image_lights_on@@3QBEB
	DD	00H
	DW	0168H
	DW	0efH
	DW	00H
	DW	00H
	DW	00H
	DW	04000H
	DD	FLAT:?image_lr_dark@@3QBEB
	DD	00H
	DW	03e8H
	DW	01f4H
	DW	00H
	DW	00H
	DW	03e8H
	DW	01f4H
	DD	FLAT:?image_main_bg_home_control@@3QBEB
	DD	00H
	DW	01e0H
	DW	0110H
	DW	00H
	DW	00H
	DW	01e0H
	DW	0110H
	DD	FLAT:?image_main_go_back_button@@3QBEB
	DD	00H
	DW	03cH
	DW	03cH
	DW	013H
	DW	010H
	DW	01cH
	DW	0401cH
	DD	FLAT:?image_main_slider_device@@3QBEB
	DD	00H
	DW	078H
	DW	050H
	DW	070H
	DW	029H
	DW	05H
	DW	04024H
	DD	FLAT:?image_main_slider_device_small@@3QBEB
	DD	00H
	DW	050H
	DW	035H
	DW	01cH
	DW	02H
	DW	018H
	DW	04003H
	DD	FLAT:?image_main_slider_off@@3QBEB
	DD	00H
	DW	078H
	DW	050H
	DW	070H
	DW	029H
	DW	05H
	DW	04024H
	DD	FLAT:?image_main_slider_off_small@@3QBEB
	DD	00H
	DW	050H
	DW	035H
	DW	01cH
	DW	02H
	DW	018H
	DW	04003H
	DD	FLAT:?image_main_slider_temp@@3QBEB
	DD	00H
	DW	078H
	DW	050H
	DW	070H
	DW	029H
	DW	05H
	DW	04024H
	DD	FLAT:?image_main_slider_temp_small@@3QBEB
	DD	00H
	DW	050H
	DW	035H
	DW	01cH
	DW	02H
	DW	018H
	DW	04003H
	DD	FLAT:?image_minimalist_living_room@@3QBEB
	DD	00H
	DW	03e8H
	DW	01f4H
	DW	00H
	DW	00H
	DW	03e8H
	DW	01f4H
	DD	FLAT:?image_music@@3QBEB
	DD	00H
	DW	078H
	DW	050H
	DW	00H
	DW	00H
	DW	078H
	DW	050H
	DD	FLAT:?image_oven@@3QBEB
	DD	00H
	DW	0200H
	DW	0200H
	DW	010H
	DW	070H
	DW	01e0H
	DW	04010H
	DD	FLAT:?image_oven_big@@3QBEB
	DD	00H
	DW	017cH
	DW	07cH
	DW	012H
	DW	07H
	DW	0158H
	DW	0406eH
	DD	FLAT:?image_ovenoff@@3QBEB
	DD	00H
	DW	03e8H
	DW	0377H
	DW	00H
	DW	00H
	DW	03e8H
	DW	0377H
	DD	FLAT:?image_ovenon@@3QBEB
	DD	00H
	DW	0267H
	DW	01cdH
	DW	00H
	DW	00H
	DW	0267H
	DW	01cdH
	DD	FLAT:?image_pesonalize@@3QBEB
	DD	00H
	DW	078H
	DW	050H
	DW	00H
	DW	00H
	DW	078H
	DW	050H
	DD	FLAT:?image_power_icon@@3QBEB
	DD	00H
	DW	046H
	DW	03cH
	DW	00H
	DW	00H
	DW	046H
	DW	03cH
	DD	FLAT:?image_propeller@@3QBEB
	DD	00H
	DW	0e1H
	DW	0e1H
	DW	00H
	DW	00H
	DW	0e1H
	DW	0e1H
	DD	FLAT:?image_recipes@@3QBEB
	DD	00H
	DW	078H
	DW	050H
	DW	00H
	DW	00H
	DW	078H
	DW	050H
	DD	FLAT:?image_room_temp_big@@3QBEB
	DD	00H
	DW	017cH
	DW	07cH
	DW	012H
	DW	07H
	DW	0158H
	DW	0406eH
	DD	FLAT:?image_schedule_icon@@3QBEB
	DD	00H
	DW	033H
	DW	035H
	DW	02H
	DW	03H
	DW	02fH
	DW	04008H
	DD	FLAT:?image_select_glow@@3QBEB
	DD	00H
	DW	050H
	DW	050H
	DW	040H
	DW	021H
	DW	01H
	DW	0400eH
	DD	FLAT:?image_selectedtempbg@@3QBEB
	DD	00H
	DW	01e0H
	DW	092H
	DW	00H
	DW	00H
	DW	01e0H
	DW	092H
	DD	FLAT:?image_settings_icon@@3QBEB
	DD	00H
	DW	03cH
	DW	03cH
	DW	0fH
	DW	011H
	DW	018H
	DW	0401aH
	DD	FLAT:?image_sketch001@@3QBEB
	DD	00H
	DW	01fdH
	DW	0153H
	DW	00H
	DW	00H
	DW	01fdH
	DW	0153H
	DD	FLAT:?image_sky_bg@@3QBEB
	DD	00H
	DW	01e0H
	DW	05aH
	DW	00H
	DW	00H
	DW	01e0H
	DW	0402cH
	DD	FLAT:?image_sky_bg_reverse@@3QBEB
	DD	00H
	DW	01e0H
	DW	05aH
	DW	00H
	DW	00H
	DW	01e0H
	DW	0402cH
	DD	FLAT:?image_st_housedemo_ui_bg@@3QBEB
	DD	00H
	DW	01e0H
	DW	0110H
	DW	00H
	DW	09cH
	DW	01e0H
	DW	04074H
	DD	FLAT:?image_temp_off@@3QBEB
	DD	00H
	DW	064H
	DW	03cH
	DW	00H
	DW	00H
	DW	064H
	DW	03cH
	DD	FLAT:?image_temp_on@@3QBEB
	DD	00H
	DW	064H
	DW	03cH
	DW	00H
	DW	00H
	DW	064H
	DW	03cH
	DD	FLAT:?image_temperature_bg@@3QBEB
	DD	00H
	DW	092H
	DW	0c2H
	DW	01H
	DW	03H
	DW	090H
	DW	040baH
	DD	FLAT:?image_temperature_normal@@3QBEB
	DD	00H
	DW	078H
	DW	050H
	DW	00H
	DW	00H
	DW	078H
	DW	050H
	DD	FLAT:?image_temperature_selected@@3QBEB
	DD	00H
	DW	078H
	DW	050H
	DW	00H
	DW	00H
	DW	078H
	DW	050H
	DD	FLAT:?image_termo_select@@3QBEB
	DD	00H
	DW	050H
	DW	050H
	DW	00H
	DW	00H
	DW	050H
	DW	050H
	DD	FLAT:?image_thermometer_512@@3QBEB
	DD	00H
	DW	0200H
	DW	0200H
	DW	0f4H
	DW	0e2H
	DW	018H
	DW	040fcH
	DD	FLAT:?image_top_go_back@@3QBEB
	DD	00H
	DW	046H
	DW	03cH
	DW	00H
	DW	00H
	DW	046H
	DW	03cH
	DD	FLAT:?image_top_gradient_overlay@@3QBEB
	DD	00H
	DW	01e0H
	DW	05aH
	DW	00H
	DW	00H
	DW	01e0H
	DW	0403dH
	DD	FLAT:?image_wash_frame_01@@3QBEB
	DD	00H
	DW	084H
	DW	084H
	DW	013H
	DW	013H
	DW	05eH
	DW	0405eH
	DD	FLAT:?image_wash_frame_02@@3QBEB
	DD	00H
	DW	084H
	DW	084H
	DW	013H
	DW	013H
	DW	05eH
	DW	0405eH
	DD	FLAT:?image_wash_frame_03@@3QBEB
	DD	00H
	DW	084H
	DW	084H
	DW	013H
	DW	013H
	DW	05eH
	DW	0405eH
	DD	FLAT:?image_wash_frame_04@@3QBEB
	DD	00H
	DW	084H
	DW	084H
	DW	013H
	DW	013H
	DW	05eH
	DW	0405eH
	DD	FLAT:?image_wash_frame_05@@3QBEB
	DD	00H
	DW	084H
	DW	084H
	DW	013H
	DW	013H
	DW	05eH
	DW	0405eH
	DD	FLAT:?image_wash_frame_06@@3QBEB
	DD	00H
	DW	084H
	DW	084H
	DW	013H
	DW	013H
	DW	05eH
	DW	0405eH
	DD	FLAT:?image_wash_frame_07@@3QBEB
	DD	00H
	DW	084H
	DW	084H
	DW	013H
	DW	013H
	DW	05eH
	DW	0405eH
	DD	FLAT:?image_wash_frame_08@@3QBEB
	DD	00H
	DW	084H
	DW	084H
	DW	013H
	DW	013H
	DW	05eH
	DW	0405eH
	DD	FLAT:?image_wash_frame_09@@3QBEB
	DD	00H
	DW	084H
	DW	084H
	DW	013H
	DW	013H
	DW	05eH
	DW	0405eH
	DD	FLAT:?image_wash_frame_10@@3QBEB
	DD	00H
	DW	084H
	DW	084H
	DW	013H
	DW	013H
	DW	05eH
	DW	0405eH
	DD	FLAT:?image_wash_frame_11@@3QBEB
	DD	00H
	DW	084H
	DW	084H
	DW	013H
	DW	013H
	DW	05eH
	DW	0405eH
	DD	FLAT:?image_washing_machine_big@@3QBEB
	DD	00H
	DW	017cH
	DW	07cH
	DW	012H
	DW	07H
	DW	0158H
	DW	0406eH
	DD	FLAT:?image_washing_machine_display_on@@3QBEB
	DD	00H
	DW	017H
	DW	012H
	DW	00H
	DW	00H
	DW	017H
	DW	012H
	DD	FLAT:?image_washing_machine_glow@@3QBEB
	DD	00H
	DW	078H
	DW	0a0H
	DW	00H
	DW	00H
	DW	078H
	DW	0a0H
	DD	FLAT:?image_washing_machine_on@@3QBEB
	DD	00H
	DW	035H
	DW	035H
	DW	00H
	DW	00H
	DW	035H
	DW	035H
	DD	FLAT:?image_wheel_select_top@@3QBEB
	DD	00H
	DW	099H
	DW	040H
	DW	09H
	DW	06H
	DW	086H
	DW	04003H
	DD	FLAT:?image_white@@3QBEB
	DD	00H
	DW	04ffH
	DW	02baH
	DW	00H
	DW	00H
	DW	04ffH
	DW	02baH
	DD	FLAT:?image_window_bg@@3QBEB
	DD	00H
	DW	0104H
	DW	08cH
	DW	00H
	DW	00H
	DW	0104H
	DW	08cH
CONST	ENDS
PUBLIC	?getInstance@BitmapDatabase@@YAPBUBitmapData@Bitmap@touchgfx@@XZ ; BitmapDatabase::getInstance
PUBLIC	?getInstanceSize@BitmapDatabase@@YAGXZ		; BitmapDatabase::getInstanceSize
PUBLIC	__JustMyCode_Default
EXTRN	@__CheckForDebuggerJustMyCode@4:PROC
EXTRN	__RTC_CheckEsp:PROC
EXTRN	__RTC_InitBase:PROC
EXTRN	__RTC_Shutdown:PROC
;	COMDAT rtc$TMZ
rtc$TMZ	SEGMENT
__RTC_Shutdown.rtc$TMZ DD FLAT:__RTC_Shutdown
rtc$TMZ	ENDS
;	COMDAT rtc$IMZ
rtc$IMZ	SEGMENT
__RTC_InitBase.rtc$IMZ DD FLAT:__RTC_InitBase
rtc$IMZ	ENDS
; Function compile flags: /Odt
;	COMDAT __JustMyCode_Default
_TEXT	SEGMENT
__JustMyCode_Default PROC				; COMDAT
	push	ebp
	mov	ebp, esp
	pop	ebp
	ret	0
__JustMyCode_Default ENDP
_TEXT	ENDS
; Function compile flags: /Odtp /RTCsu /ZI
;	COMDAT ?getInstanceSize@BitmapDatabase@@YAGXZ
_TEXT	SEGMENT
?getInstanceSize@BitmapDatabase@@YAGXZ PROC		; BitmapDatabase::getInstanceSize, COMDAT
; File D:\hackTuesProject\project\TouchGFX\generated\images\src\BitmapDatabase.cpp
; Line 278
	push	ebp
	mov	ebp, esp
	sub	esp, 192				; 000000c0H
	push	ebx
	push	esi
	push	edi
	lea	edi, DWORD PTR [ebp-192]
	mov	ecx, 48					; 00000030H
	mov	eax, -858993460				; ccccccccH
	rep stosd
	mov	ecx, OFFSET __FE618036_BitmapDatabase@cpp
	call	@__CheckForDebuggerJustMyCode@4
; Line 279
	mov	eax, 129				; 00000081H
; Line 280
	pop	edi
	pop	esi
	pop	ebx
	add	esp, 192				; 000000c0H
	cmp	ebp, esp
	call	__RTC_CheckEsp
	mov	esp, ebp
	pop	ebp
	ret	0
?getInstanceSize@BitmapDatabase@@YAGXZ ENDP		; BitmapDatabase::getInstanceSize
_TEXT	ENDS
; Function compile flags: /Odtp /RTCsu /ZI
;	COMDAT ?getInstance@BitmapDatabase@@YAPBUBitmapData@Bitmap@touchgfx@@XZ
_TEXT	SEGMENT
?getInstance@BitmapDatabase@@YAPBUBitmapData@Bitmap@touchgfx@@XZ PROC ; BitmapDatabase::getInstance, COMDAT
; File D:\hackTuesProject\project\TouchGFX\generated\images\src\BitmapDatabase.cpp
; Line 273
	push	ebp
	mov	ebp, esp
	sub	esp, 192				; 000000c0H
	push	ebx
	push	esi
	push	edi
	lea	edi, DWORD PTR [ebp-192]
	mov	ecx, 48					; 00000030H
	mov	eax, -858993460				; ccccccccH
	rep stosd
	mov	ecx, OFFSET __FE618036_BitmapDatabase@cpp
	call	@__CheckForDebuggerJustMyCode@4
; Line 274
	mov	eax, OFFSET ?bitmap_database@@3QBUBitmapData@Bitmap@touchgfx@@B
; Line 275
	pop	edi
	pop	esi
	pop	ebx
	add	esp, 192				; 000000c0H
	cmp	ebp, esp
	call	__RTC_CheckEsp
	mov	esp, ebp
	pop	ebp
	ret	0
?getInstance@BitmapDatabase@@YAPBUBitmapData@Bitmap@touchgfx@@XZ ENDP ; BitmapDatabase::getInstance
_TEXT	ENDS
END
