; Listing generated by Microsoft (R) Optimizing Compiler Version 19.27.29112.0 

	TITLE	D:\hackTuesProject\project\TouchGFX\generated\images\src\BathRoom\image_washing_machine_display_on.cpp
	.686P
	.XMM
	include listing.inc
	.model	flat

INCLUDELIB MSVCRTD
INCLUDELIB OLDNAMES

PUBLIC	?image_washing_machine_display_on@@3QBEB	; image_washing_machine_display_on
CONST	SEGMENT
?image_washing_machine_display_on@@3QBEB DB 0dfH	; image_washing_machine_display_on
	DB	0ffH
	DB	0ffH
	DB	0ffH
	DB	0ffH
	DB	0ffH
	DB	0ffH
	DB	0ffH
	DB	0ffH
	DB	0ffH
	DB	0ffH
	DB	0ffH
	DB	0ffH
	DB	0ffH
	DB	0ffH
	DB	0ffH
	DB	0ffH
	DB	0ffH
	DB	0ffH
	DB	0ffH
	DB	0ffH
	DB	0ffH
	DB	0ffH
	DB	0ffH
	DB	0ffH
	DB	0ffH
	DB	0ffH
	DB	0ffH
	DB	0ffH
	DB	0ffH
	DB	0ffH
	DB	0ffH
	DB	0ffH
	DB	0ffH
	DB	0ffH
	DB	0ffH
	DB	0ffH
	DB	0ffH
	DB	0dfH
	DB	0ffH
	DB	0beH
	DB	0f7H
	DB	07eH
	DB	0f7H
	DB	0bfH
	DB	0ffH
	DB	0ffH
	DB	0ffH
	DB	0ffH
	DB	0ffH
	DB	0ffH
	DB	0ffH
	DB	0ffH
	DB	0ffH
	DB	0ffH
	DB	0ffH
	DB	0ffH
	DB	0ffH
	DB	0ffH
	DB	0ffH
	DB	0ffH
	DB	0ffH
	DB	0ffH
	DB	0ffH
	DB	0ffH
	DB	0ffH
	DB	0dfH
	DB	0ffH
	DB	0bfH
	DB	0ffH
	DB	09eH
	DB	0f7H
	DB	07dH
	DB	0efH
	DB	03dH
	DB	0efH
	DB	03cH
	DB	0e7H
	DB	03cH
	DB	0e7H
	DB	03cH
	DB	0efH
	DB	0fcH
	DB	0e6H
	DB	0baH
	DB	0deH
	DB	079H
	DB	0ceH
	DB	0f8H
	DB	0c5H
	DB	09eH
	DB	0f7H
	DB	0ffH
	DB	0ffH
	DB	0ffH
	DB	0ffH
	DB	0dfH
	DB	0ffH
	DB	09eH
	DB	0f7H
	DB	07dH
	DB	0f7H
	DB	05dH
	DB	0efH
	DB	03cH
	DB	0e7H
	DB	03cH
	DB	0efH
	DB	03cH
	DB	0e7H
	DB	01cH
	DB	0e7H
	DB	0dbH
	DB	0deH
	DB	09aH
	DB	0d6H
	DB	059H
	DB	0ceH
	DB	0f8H
	DB	0c5H
	DB	0d7H
	DB	0bdH
	DB	0b6H
	DB	0b5H
	DB	096H
	DB	0b5H
	DB	015H
	DB	0a5H
	DB	0d7H
	DB	0bdH
	DB	0d7H
	DB	0bdH
	DB	071H
	DB	08cH
	DB	096H
	DB	0b5H
	DB	03cH
	DB	0e7H
	DB	09eH
	DB	0f7H
	DB	0fbH
	DB	0e6H
	DB	07aH
	DB	0ceH
	DB	059H
	DB	0ceH
	DB	018H
	DB	0c6H
	DB	0d7H
	DB	0bdH
	DB	0b7H
	DB	0b5H
	DB	076H
	DB	0adH
	DB	035H
	DB	0a5H
	DB	014H
	DB	0a5H
	DB	0f4H
	DB	09cH
	DB	018H
	DB	0c6H
	DB	072H
	DB	08cH
	DB	0afH
	DB	073H
	DB	0b3H
	DB	094H
	DB	038H
	DB	0c6H
	DB	039H
	DB	0ceH
	DB	0f4H
	DB	09cH
	DB	01cH
	DB	0e7H
	DB	0fcH
	DB	0e6H
	DB	0b7H
	DB	0b5H
	DB	0d7H
	DB	0bdH
	DB	03cH
	DB	0efH
	DB	03cH
	DB	0e7H
	DB	0f0H
	DB	07bH
	DB	0cH
	DB	05bH
	DB	018H
	DB	0c6H
	DB	079H
	DB	0ceH
	DB	0f4H
	DB	09cH
	DB	035H
	DB	0a5H
	DB	072H
	DB	094H
	DB	096H
	DB	0b5H
	DB	014H
	DB	0a5H
	DB	018H
	DB	0c6H
	DB	05dH
	DB	0efH
	DB	0fcH
	DB	0e6H
	DB	01cH
	DB	0e7H
	DB	09eH
	DB	0f7H
	DB	0dfH
	DB	0ffH
	DB	0dfH
	DB	0ffH
	DB	0dfH
	DB	0ffH
	DB	07dH
	DB	0efH
	DB	01cH
	DB	0e7H
	DB	0baH
	DB	0d6H
	DB	0f8H
	DB	0bdH
	DB	03cH
	DB	0efH
	DB	03cH
	DB	0efH
	DB	0cfH
	DB	07bH
	DB	0ccH
	DB	05aH
	DB	03dH
	DB	0efH
	DB	09eH
	DB	0f7H
	DB	09eH
	DB	0f7H
	DB	0bfH
	DB	0ffH
	DB	0dfH
	DB	0ffH
	DB	09eH
	DB	0f7H
	DB	0ffH
	DB	0ffH
	DB	09eH
	DB	0f7H
	DB	07eH
	DB	0f7H
	DB	01cH
	DB	0e7H
	DB	05dH
	DB	0efH
	DB	059H
	DB	0ceH
	DB	09aH
	DB	0d6H
	DB	0bbH
	DB	0deH
	DB	01cH
	DB	0e7H
	DB	03cH
	DB	0e7H
	DB	03cH
	DB	0efH
	DB	01cH
	DB	0e7H
	DB	039H
	DB	0ceH
	DB	03cH
	DB	0e7H
	DB	03cH
	DB	0e7H
	DB	038H
	DB	0c6H
	DB	09aH
	DB	0d6H
	DB	0dbH
	DB	0deH
	DB	0bbH
	DB	0deH
	DB	09aH
	DB	0d6H
	DB	0baH
	DB	0d6H
	DB	0baH
	DB	0d6H
	DB	07aH
	DB	0d6H
	DB	07eH
	DB	0f7H
	DB	07dH
	DB	0efH
	DB	019H
	DB	0beH
	DB	07dH
	DB	0efH
	DB	05dH
	DB	0efH
	DB	059H
	DB	0ceH
	DB	0fcH
	DB	0deH
	DB	01cH
	DB	0e7H
	DB	0d7H
	DB	0bdH
	DB	09aH
	DB	0d6H
	DB	05dH
	DB	0efH
	DB	03dH
	DB	0efH
	DB	059H
	DB	0ceH
	DB	03cH
	DB	0e7H
	DB	03dH
	DB	0efH
	DB	039H
	DB	0c6H
	DB	01cH
	DB	0e7H
	DB	03dH
	DB	0efH
	DB	079H
	DB	0ceH
	DB	0bbH
	DB	0deH
	DB	01cH
	DB	0e7H
	DB	07aH
	DB	0ceH
	DB	0fcH
	DB	0e6H
	DB	0bbH
	DB	0d6H
	DB	019H
	DB	044H
	DB	03dH
	DB	03cH
	DB	05bH
	DB	054H
	DB	07eH
	DB	0efH
	DB	03cH
	DB	0e7H
	DB	0bbH
	DB	0deH
	DB	0b7H
	DB	0b5H
	DB	0bfH
	DB	0efH
	DB	07dH
	DB	085H
	DB	09aH
	DB	0d6H
	DB	039H
	DB	0c6H
	DB	059H
	DB	0ceH
	DB	03cH
	DB	0efH
	DB	03cH
	DB	0e7H
	DB	059H
	DB	0ceH
	DB	01cH
	DB	0e7H
	DB	09aH
	DB	0d6H
	DB	0ffH
	DB	0ffH
	DB	0dbH
	DB	0deH
	DB	03cH
	DB	0e7H
	DB	0d7H
	DB	0bdH
	DB	0ffH
	DB	0ffH
	DB	07bH
	DB	054H
	DB	0ddH
	DB	02bH
	DB	0ddH
	DB	02bH
	DB	0fdH
	DB	033H
	DB	092H
	DB	094H
	DB	01cH
	DB	0e7H
	DB	059H
	DB	0ceH
	DB	09aH
	DB	0d6H
	DB	0ddH
	DB	02bH
	DB	05eH
	DB	075H
	DB	056H
	DB	0adH
	DB	0b7H
	DB	0b5H
	DB	079H
	DB	0ceH
	DB	03cH
	DB	0efH
	DB	03cH
	DB	0efH
	DB	059H
	DB	0ceH
	DB	0bbH
	DB	0d6H
	DB	0d7H
	DB	0bdH
	DB	07fH
	DB	0aeH
	DB	0ffH
	DB	0ffH
	DB	018H
	DB	0c6H
	DB	0fcH
	DB	0e6H
	DB	0ffH
	DB	0ffH
	DB	0bdH
	DB	023H
	DB	0bcH
	DB	05cH
	DB	0dcH
	DB	064H
	DB	0bdH
	DB	054H
	DB	01aH
	DB	0b6H
	DB	05dH
	DB	0efH
	DB	038H
	DB	0c6H
	DB	015H
	DB	0a5H
	DB	03cH
	DB	0b6H
	DB	07bH
	DB	0c6H
	DB	09eH
	DB	0f7H
	DB	0fbH
	DB	0deH
	DB	07aH
	DB	0ceH
	DB	03cH
	DB	0efH
	DB	03cH
	DB	0e7H
	DB	07aH
	DB	0d6H
	DB	0fcH
	DB	0e6H
	DB	035H
	DB	0a5H
	DB	0dfH
	DB	0beH
	DB	0ffH
	DB	0ffH
	DB	09eH
	DB	0f7H
	DB	0fcH
	DB	0deH
	DB	0ffH
	DB	0ffH
	DB	0feH
	DB	02bH
	DB	01dH
	DB	034H
	DB	0fdH
	DB	02bH
	DB	0ddH
	DB	02bH
	DB	0d3H
	DB	09cH
	DB	0fbH
	DB	0deH
	DB	0dbH
	DB	0deH
	DB	03dH
	DB	0efH
	DB	0fbH
	DB	0deH
	DB	09aH
	DB	0d6H
	DB	07dH
	DB	0efH
	DB	05dH
	DB	0efH
	DB	07aH
	DB	0d6H
	DB	03cH
	DB	0e7H
	DB	03cH
	DB	0e7H
	DB	07aH
	DB	0d6H
	DB	03dH
	DB	0efH
	DB	09eH
	DB	0f7H
	DB	059H
	DB	0ceH
	DB	018H
	DB	0c6H
	DB	01cH
	DB	0e7H
	DB	0d7H
	DB	0bdH
	DB	0ffH
	DB	0ffH
	DB	037H
	DB	095H
	DB	0fcH
	DB	033H
	DB	03dH
	DB	03cH
	DB	059H
	DB	05cH
	DB	0dfH
	DB	0ffH
	DB	01cH
	DB	0e7H
	DB	03dH
	DB	0efH
	DB	01cH
	DB	0e7H
	DB	0dbH
	DB	0deH
	DB	0dbH
	DB	0deH
	DB	07eH
	DB	0f7H
	DB	05dH
	DB	0efH
	DB	09aH
	DB	0d6H
	DB	03cH
	DB	0efH
	DB	03cH
	DB	0e7H
	DB	09aH
	DB	0d6H
	DB	05dH
	DB	0efH
	DB	09aH
	DB	0ceH
	DB	079H
	DB	0ceH
	DB	09aH
	DB	0d6H
	DB	03dH
	DB	0e7H
	DB	09aH
	DB	0d6H
	DB	0dbH
	DB	0deH
	DB	05dH
	DB	0efH
	DB	03bH
	DB	0beH
	DB	0b9H
	DB	0adH
	DB	0ffH
	DB	0ffH
	DB	0fbH
	DB	0e6H
	DB	0f8H
	DB	0bdH
	DB	0fcH
	DB	0e6H
	DB	05dH
	DB	0efH
	DB	0ffH
	DB	0ffH
	DB	09eH
	DB	0f7H
	DB	07dH
	DB	0efH
	DB	05dH
	DB	0efH
	DB	09aH
	DB	0d6H
	DB	03cH
	DB	0e7H
	DB	03cH
	DB	0efH
	DB	09aH
	DB	0d6H
	DB	05dH
	DB	0efH
	DB	05dH
	DB	0efH
	DB	03dH
	DB	0efH
	DB	03dH
	DB	0efH
	DB	03dH
	DB	0efH
	DB	0beH
	DB	0f7H
	DB	0ffH
	DB	0ffH
	DB	05dH
	DB	0efH
	DB	05dH
	DB	0efH
	DB	09eH
	DB	0f7H
	DB	03dH
	DB	0efH
	DB	0ffH
	DB	0ffH
	DB	018H
	DB	0c6H
	DB	0ffH
	DB	0ffH
	DB	0ffH
	DB	0ffH
	DB	0b3H
	DB	094H
	DB	0ffH
	DB	0ffH
	DB	0fcH
	DB	0deH
	DB	01cH
	DB	0e7H
	DB	0dbH
	DB	0deH
	DB	03dH
	DB	0e7H
	DB	03cH
	DB	0e7H
	DB	09aH
	DB	0d6H
	DB	0fcH
	DB	0e6H
	DB	0bfH
	DB	0ffH
	DB	0dfH
	DB	0ffH
	DB	05dH
	DB	0efH
	DB	0ffH
	DB	0ffH
	DB	0d7H
	DB	0bdH
	DB	09eH
	DB	0f7H
	DB	0ffH
	DB	0ffH
	DB	0ffH
	DB	0ffH
	DB	07eH
	DB	0f7H
	DB	0ffH
	DB	0ffH
	DB	0ffH
	DB	0ffH
	DB	0f8H
	DB	0bdH
	DB	0dfH
	DB	0ffH
	DB	07eH
	DB	0efH
	DB	0d7H
	DB	0bdH
	DB	0ffH
	DB	0ffH
	DB	07aH
	DB	0ceH
	DB	018H
	DB	0c6H
	DB	07aH
	DB	0d6H
	DB	03cH
	DB	0efH
	DB	03cH
	DB	0e7H
	DB	0bbH
	DB	0d6H
	DB	059H
	DB	0ceH
	DB	0ffH
	DB	0ffH
	DB	0dfH
	DB	0f7H
	DB	07aH
	DB	0ceH
	DB	0ffH
	DB	0ffH
	DB	09aH
	DB	0d6H
	DB	039H
	DB	0c6H
	DB	0ffH
	DB	0ffH
	DB	0ffH
	DB	0ffH
	DB	0dbH
	DB	0deH
	DB	0ffH
	DB	0ffH
	DB	0ffH
	DB	0ffH
	DB	05dH
	DB	0efH
	DB	09eH
	DB	0f7H
	DB	09eH
	DB	0f7H
	DB	0bfH
	DB	0ffH
	DB	0bfH
	DB	0ffH
	DB	07dH
	DB	0efH
	DB	0fcH
	DB	0e6H
	DB	09aH
	DB	0d6H
	DB	09eH
	DB	0f7H
	DB	03cH
	DB	0efH
	DB	039H
	DB	0ceH
	DB	0f7H
	DB	0bdH
	DB	018H
	DB	0c6H
	DB	03cH
	DB	0e7H
	DB	07eH
	DB	0efH
	DB	0dfH
	DB	0ffH
	DB	0dfH
	DB	0ffH
	DB	0bfH
	DB	0f7H
	DB	09eH
	DB	0f7H
	DB	07dH
	DB	0f7H
	DB	05dH
	DB	0efH
	DB	03dH
	DB	0efH
	DB	03cH
	DB	0e7H
	DB	03cH
	DB	0e7H
	DB	03cH
	DB	0e7H
	DB	03cH
	DB	0e7H
	DB	03cH
	DB	0e7H
	DB	03dH
	DB	0efH
	DB	05dH
	DB	0efH
	DB	07eH
	DB	0f7H
	DB	0beH
	DB	0f7H
	DB	0ffH
	DB	0ffH
	DB	01cH
	DB	0e7H
	DB	03cH
	DB	0e7H
	DB	03dH
	DB	0efH
	DB	03cH
	DB	0e7H
	DB	03cH
	DB	0efH
	DB	03cH
	DB	0efH
	DB	03cH
	DB	0e7H
	DB	03cH
	DB	0efH
	DB	03dH
	DB	0e7H
	DB	05dH
	DB	0efH
	DB	09eH
	DB	0f7H
	DB	09eH
	DB	0f7H
	DB	0dfH
	DB	0ffH
	DB	0ffH
	DB	0ffH
	DB	0ffH
	DB	0ffH
	DB	0ffH
	DB	0ffH
	DB	0ffH
	DB	0ffH
	DB	0ffH
	DB	0ffH
	DB	0ffH
	DB	0ffH
	DB	0ffH
	DB	0ffH
	DB	0ffH
	DB	0ffH
	DB	0ffH
	DB	0ffH
	DB	0ffH
	DB	0ffH
CONST	ENDS
END
