; Listing generated by Microsoft (R) Optimizing Compiler Version 19.27.29112.0 

	TITLE	D:\hackTuesProject\project\TouchGFX\generated\images\src\Bathtub\image_temp_on.cpp
	.686P
	.XMM
	include listing.inc
	.model	flat

INCLUDELIB MSVCRTD
INCLUDELIB OLDNAMES

PUBLIC	?image_temp_on@@3QBEB				; image_temp_on
CONST	SEGMENT
?image_temp_on@@3QBEB DB 029H				; image_temp_on
	DB	04aH
	DB	029H
	DB	04aH
	DB	049H
	DB	04aH
	DB	029H
	DB	04aH
	DB	029H
	DB	04aH
	DB	049H
	DB	04aH
	DB	029H
	DB	04aH
	DB	029H
	DB	04aH
	DB	049H
	DB	04aH
	DB	029H
	DB	04aH
	DB	029H
	DB	04aH
	DB	049H
	DB	04aH
	DB	029H
	DB	04aH
	DB	029H
	DB	04aH
	DB	049H
	DB	04aH
	DB	029H
	DB	04aH
	DB	029H
	DB	04aH
	DB	049H
	DB	04aH
	DB	029H
	DB	04aH
	DB	029H
	DB	04aH
	DB	049H
	DB	04aH
	DB	029H
	DB	04aH
	DB	029H
	DB	04aH
	DB	049H
	DB	04aH
	DB	029H
	DB	04aH
	DB	029H
	DB	04aH
	DB	049H
	DB	04aH
	DB	029H
	DB	04aH
	DB	029H
	DB	04aH
	DB	049H
	DB	04aH
	DB	029H
	DB	04aH
	DB	029H
	DB	04aH
	DB	049H
	DB	04aH
	DB	029H
	DB	04aH
	DB	029H
	DB	04aH
	DB	049H
	DB	04aH
	DB	029H
	DB	04aH
	DB	029H
	DB	04aH
	DB	049H
	DB	04aH
	DB	029H
	DB	04aH
	DB	029H
	DB	04aH
	DB	049H
	DB	04aH
	DB	029H
	DB	04aH
	DB	029H
	DB	04aH
	DB	049H
	DB	04aH
	DB	029H
	DB	04aH
	DB	029H
	DB	04aH
	DB	049H
	DB	04aH
	DB	029H
	DB	04aH
	DB	029H
	DB	04aH
	DB	049H
	DB	04aH
	DB	029H
	DB	04aH
	DB	029H
	DB	04aH
	DB	049H
	DB	04aH
	DB	029H
	DB	04aH
	DB	029H
	DB	04aH
	DB	049H
	DB	04aH
	DB	029H
	DB	04aH
	DB	029H
	DB	04aH
	DB	049H
	DB	04aH
	DB	029H
	DB	04aH
	DB	029H
	DB	04aH
	DB	049H
	DB	04aH
	DB	029H
	DB	04aH
	DB	029H
	DB	04aH
	DB	049H
	DB	04aH
	DB	029H
	DB	04aH
	DB	029H
	DB	04aH
	DB	049H
	DB	04aH
	DB	029H
	DB	04aH
	DB	029H
	DB	04aH
	DB	049H
	DB	04aH
	DB	029H
	DB	04aH
	DB	029H
	DB	04aH
	DB	049H
	DB	04aH
	DB	029H
	DB	04aH
	DB	029H
	DB	04aH
	DB	049H
	DB	04aH
	DB	029H
	DB	04aH
	DB	029H
	DB	04aH
	DB	049H
	DB	04aH
	DB	029H
	DB	04aH
	DB	029H
	DB	04aH
	DB	049H
	DB	04aH
	DB	029H
	DB	04aH
	DB	029H
	DB	04aH
	DB	049H
	DB	04aH
	DB	029H
	DB	04aH
	DB	029H
	DB	04aH
	DB	049H
	DB	04aH
	DB	029H
	DB	04aH
	DB	029H
	DB	04aH
	DB	049H
	DB	04aH
	DB	029H
	DB	04aH
	DB	029H
	DB	04aH
	DB	049H
	DB	04aH
	DB	029H
	DB	04aH
	DB	029H
	DB	04aH
	DB	049H
	DB	04aH
	DB	029H
	DB	04aH
	DB	04H
	DB	021H
	DB	04H
	DB	021H
	DB	04H
	DB	021H
	DB	04H
	DB	021H
	DB	04H
	DB	021H
	DB	04H
	DB	021H
	DB	04H
	DB	021H
	DB	04H
	DB	021H
	DB	04H
	DB	021H
	DB	04H
	DB	021H
	DB	04H
	DB	021H
	DB	04H
	DB	021H
	DB	04H
	DB	021H
	DB	04H
	DB	021H
	DB	04H
	DB	021H
	DB	04H
	DB	021H
	DB	04H
	DB	021H
	DB	04H
	DB	021H
	DB	04H
	DB	021H
	DB	04H
	DB	021H
	DB	04H
	DB	021H
	DB	04H
	DB	021H
	DB	04H
	DB	021H
	DB	04H
	DB	021H
	DB	04H
	DB	021H
	DB	04H
	DB	021H
	DB	04H
	DB	021H
	DB	04H
	DB	021H
	DB	04H
	DB	021H
	DB	04H
	DB	021H
	DB	04H
	DB	021H
	DB	04H
	DB	021H
	DB	04H
	DB	021H
	DB	04H
	DB	021H
	DB	04H
	DB	021H
	DB	04H
	DB	021H
	DB	04H
	DB	021H
	DB	04H
	DB	021H
	DB	04H
	DB	021H
	DB	04H
	DB	021H
	DB	04H
	DB	021H
	DB	04H
	DB	021H
	DB	04H
	DB	021H
	DB	04H
	DB	021H
	DB	04H
	DB	021H
	DB	04H
	DB	021H
	DB	04H
	DB	021H
	DB	04H
	DB	021H
	DB	04H
	DB	021H
	DB	04H
	DB	021H
	DB	04H
	DB	021H
	DB	04H
	DB	021H
	DB	04H
	DB	021H
	DB	04H
	DB	021H
	DB	04H
	DB	021H
	DB	04H
	DB	021H
	DB	04H
	DB	021H
	DB	04H
	DB	021H
	DB	04H
	DB	021H
	DB	04H
	DB	021H
	DB	04H
	DB	021H
	DB	04H
	DB	021H
	DB	04H
	DB	021H
	DB	04H
	DB	021H
	DB	04H
	DB	021H
	DB	04H
	DB	021H
	DB	04H
	DB	021H
	DB	04H
	DB	021H
	DB	04H
	DB	021H
	DB	04H
	DB	021H
	DB	04H
	DB	021H
	DB	04H
	DB	021H
	DB	04H
	DB	021H
	DB	04H
	DB	021H
	DB	04H
	DB	021H
	DB	04H
	DB	021H
	DB	04H
	DB	021H
	DB	04H
	DB	021H
	DB	04H
	DB	021H
	DB	04H
	DB	021H
	DB	04H
	DB	021H
	DB	04H
	DB	021H
	DB	04H
	DB	021H
	DB	04H
	DB	021H
	DB	04H
	DB	021H
	DB	04H
	DB	021H
	DB	04H
	DB	021H
	DB	04H
	DB	021H
	DB	04H
	DB	021H
	DB	04H
	DB	021H
	DB	04H
	DB	021H
	DB	04H
	DB	021H
	DB	04H
	DB	021H
	DB	04H
	DB	021H
	DB	04H
	DB	021H
	DB	04H
	DB	021H
	DB	04H
	DB	021H
	DB	04H
	DB	021H
	DB	04H
	DB	021H
	DB	04H
	DB	021H
	DB	04H
	DB	021H
	DB	04H
	DB	021H
	DB	04H
	DB	021H
	DB	04H
	DB	021H
	DB	04H
	DB	021H
	DB	04H
	DB	021H
	DB	04H
	DB	021H
	DB	04H
	DB	021H
	DB	04H
	DB	021H
	DB	04H
	DB	021H
	DB	04H
	DB	021H
	DB	04H
	DB	021H
	DB	04H
	DB	021H
	DB	04H
	DB	021H
	DB	04H
	DB	021H
	DB	04H
	DB	021H
	DB	04H
	DB	021H
	DB	04H
	DB	021H
	DB	04H
	DB	021H
	DB	04H
	DB	021H
	DB	04H
	DB	021H
	DB	04H
	DB	021H
	DB	04H
	DB	021H
	DB	04H
	DB	021H
	DB	04H
	DB	021H
	DB	04H
	DB	021H
	DB	04H
	DB	021H
	DB	04H
	DB	021H
	DB	04H
	DB	021H
	DB	04H
	DB	021H
	DB	04H
	DB	021H
	DB	04H
	DB	021H
	DB	04H
	DB	021H
	DB	04H
	DB	021H
	DB	04H
	DB	021H
	DB	04H
	DB	021H
	DB	04H
	DB	021H
	DB	04H
	DB	021H
	DB	04H
	DB	021H
	DB	04H
	DB	021H
	DB	04H
	DB	021H
	DB	04H
	DB	021H
	DB	04H
	DB	021H
	DB	04H
	DB	021H
	DB	04H
	DB	021H
	DB	04H
	DB	021H
	DB	04H
	DB	021H
	DB	04H
	DB	021H
	DB	04H
	DB	021H
	DB	04H
	DB	021H
	DB	04H
	DB	021H
	DB	04H
	DB	021H
	DB	04H
	DB	021H
	DB	04H
	DB	021H
	DB	04H
	DB	021H
	DB	04H
	DB	021H
	DB	04H
	DB	021H
	DB	04H
	DB	021H
	DB	04H
	DB	021H
	DB	04H
	DB	021H
	DB	04H
	DB	021H
	DB	04H
	DB	021H
	DB	04H
	DB	021H
	DB	04H
	DB	021H
	DB	04H
	DB	021H
	DB	04H
	DB	021H
	DB	04H
	DB	021H
	DB	04H
	DB	021H
	DB	04H
	DB	021H
	DB	04H
	DB	021H
	DB	04H
	DB	021H
	DB	04H
	DB	021H
	DB	04H
	DB	021H
	DB	04H
	DB	021H
	DB	04H
	DB	021H
	DB	04H
	DB	021H
	DB	04H
	DB	021H
	DB	04H
	DB	021H
	DB	04H
	DB	021H
	DB	04H
	DB	021H
	DB	04H
	DB	021H
	DB	04H
	DB	021H
	DB	04H
	DB	021H
	DB	04H
	DB	021H
	DB	04H
	DB	021H
	DB	04H
	DB	021H
	DB	04H
	DB	021H
	DB	04H
	DB	021H
	DB	04H
	DB	021H
	DB	04H
	DB	021H
	DB	04H
	DB	021H
	DB	04H
	DB	021H
	DB	04H
	DB	021H
	DB	04H
	DB	021H
	DB	04H
	DB	021H
	DB	04H
	DB	021H
	DB	04H
	DB	021H
	DB	04H
	DB	021H
	DB	04H
	DB	021H
	DB	04H
	DB	021H
	DB	04H
	DB	021H
	DB	04H
	DB	021H
	DB	04H
	DB	021H
	DB	04H
	DB	021H
	DB	04H
	DB	021H
	DB	04H
	DB	021H
	DB	04H
	DB	021H
	DB	04H
	DB	021H
	DB	04H
	DB	021H
	DB	04H
	DB	021H
	DB	04H
	DB	021H
	DB	04H
	DB	021H
	DB	04H
	DB	021H
	DB	04H
	DB	021H
	DB	04H
	DB	021H
	DB	04H
	DB	021H
	DB	04H
	DB	021H
	DB	04H
	DB	021H
	DB	04H
	DB	021H
	DB	04H
	DB	021H
	DB	04H
	DB	021H
	DB	04H
	DB	021H
	DB	04H
	DB	021H
	DB	04H
	DB	021H
	DB	04H
	DB	021H
	DB	04H
	DB	021H
	DB	04H
	DB	021H
	DB	04H
	DB	021H
	DB	04H
	DB	021H
	DB	04H
	DB	021H
	DB	04H
	DB	021H
	DB	04H
	DB	021H
	DB	04H
	DB	021H
	DB	04H
	DB	021H
	DB	04H
	DB	021H
	DB	04H
	DB	021H
	DB	04H
	DB	021H
	DB	04H
	DB	021H
	DB	04H
	DB	021H
	DB	04H
	DB	021H
	DB	04H
	DB	021H
	DB	04H
	DB	021H
	DB	04H
	DB	021H
	DB	04H
	DB	021H
	DB	04H
	DB	021H
	DB	04H
	DB	021H
	DB	04H
	DB	021H
	DB	04H
	DB	021H
	DB	04H
	DB	021H
	DB	04H
	DB	021H
	DB	04H
	DB	021H
	DB	04H
	DB	021H
	DB	04H
	DB	021H
	DB	04H
	DB	021H
	DB	04H
	DB	021H
	DB	04H
	DB	021H
	DB	04H
	DB	021H
	DB	04H
	DB	021H
	DB	04H
	DB	021H
	DB	04H
	DB	021H
	DB	04H
	DB	021H
	DB	04H
	DB	021H
	DB	04H
	DB	021H
	DB	04H
	DB	021H
	DB	04H
	DB	021H
	DB	04H
	DB	021H
	DB	04H
	DB	021H
	DB	04H
	DB	021H
	DB	04H
	DB	021H
	DB	04H
	DB	021H
	DB	04H
	DB	021H
	DB	04H
	DB	021H
	DB	04H
	DB	021H
	DB	04H
	DB	021H
	DB	04H
	DB	021H
	DB	04H
	DB	021H
	DB	04H
	DB	021H
	DB	04H
	DB	021H
	DB	04H
	DB	021H
	DB	04H
	DB	021H
	DB	04H
	DB	021H
	DB	04H
	DB	021H
	DB	04H
	DB	021H
	DB	04H
	DB	021H
	DB	04H
	DB	021H
	DB	04H
	DB	021H
	DB	04H
	DB	021H
	DB	04H
	DB	021H
	DB	04H
	DB	021H
	DB	04H
	DB	021H
	DB	04H
	DB	021H
	DB	04H
	DB	021H
	DB	04H
	DB	021H
	DB	04H
	DB	021H
	DB	04H
	DB	021H
	DB	04H
	DB	021H
	DB	04H
	DB	021H
	DB	04H
	DB	021H
	DB	04H
	DB	021H
	DB	04H
	DB	021H
	DB	04H
	DB	021H
	DB	04H
	DB	021H
	DB	04H
	DB	021H
	DB	0e4H
	DB	020H
	DB	03H
	DB	019H
	DB	04H
	DB	021H
	DB	04H
	DB	021H
	DB	03H
	DB	019H
	DB	0e4H
	DB	020H
	DB	04H
	DB	021H
	DB	03H
	DB	019H
	DB	04H
	DB	021H
	DB	04H
	DB	021H
	DB	0e3H
	DB	018H
	DB	04H
	DB	021H
	DB	04H
	DB	021H
	DB	03H
	DB	019H
	DB	04H
	DB	021H
	DB	0e4H
	DB	020H
	DB	03H
	DB	019H
	DB	04H
	DB	021H
	DB	04H
	DB	021H
	DB	03H
	DB	019H
	DB	0e4H
	DB	020H
	DB	04H
	DB	021H
	DB	03H
	DB	019H
	DB	04H
	DB	021H
	DB	04H
	DB	021H
	DB	0e3H
	DB	018H
	DB	04H
	DB	021H
	DB	04H
	DB	021H
	DB	03H
	DB	019H
	DB	04H
	DB	021H
	DB	0e4H
	DB	020H
	DB	03H
	DB	019H
	DB	04H
	DB	021H
	DB	04H
	DB	021H
	DB	03H
	DB	019H
	DB	0e4H
	DB	020H
	DB	04H
	DB	021H
	DB	03H
	DB	019H
	DB	04H
	DB	021H
	DB	04H
	DB	021H
	DB	0e3H
	DB	018H
	DB	04H
	DB	021H
	DB	04H
	DB	021H
	DB	03H
	DB	019H
	DB	04H
	DB	021H
	DB	0e4H
	DB	020H
	DB	03H
	DB	019H
	DB	04H
	DB	021H
	DB	04H
	DB	021H
	DB	03H
	DB	019H
	DB	0e4H
	DB	020H
	DB	04H
	DB	021H
	DB	03H
	DB	019H
	DB	04H
	DB	021H
	DB	04H
	DB	021H
	DB	0e3H
	DB	018H
	DB	04H
	DB	021H
	DB	04H
	DB	021H
	DB	03H
	DB	019H
	DB	04H
	DB	021H
	DB	0e4H
	DB	020H
	DB	03H
	DB	019H
	DB	04H
	DB	021H
	DB	04H
	DB	021H
	DB	03H
	DB	019H
	DB	0e4H
	DB	020H
	DB	04H
	DB	021H
	DB	03H
	DB	019H
	DB	04H
	DB	021H
	DB	04H
	DB	021H
	DB	0e3H
	DB	018H
	DB	04H
	DB	021H
	DB	04H
	DB	021H
	DB	03H
	DB	019H
	DB	04H
	DB	021H
	DB	0e4H
	DB	020H
	DB	03H
	DB	019H
	DB	04H
	DB	021H
	DB	04H
	DB	021H
	DB	03H
	DB	019H
	DB	0e4H
	DB	020H
	DB	04H
	DB	021H
	DB	03H
	DB	019H
	DB	04H
	DB	021H
	DB	04H
	DB	021H
	DB	0e3H
	DB	018H
	DB	04H
	DB	021H
	DB	04H
	DB	021H
	DB	03H
	DB	019H
	DB	04H
	DB	021H
	DB	0e4H
	DB	020H
	DB	03H
	DB	019H
	DB	04H
	DB	021H
	DB	04H
	DB	021H
	DB	0e3H
	DB	018H
	DB	04H
	DB	021H
	DB	04H
	DB	021H
	DB	0e4H
	DB	020H
	DB	04H
	DB	021H
	DB	04H
	DB	021H
	DB	0e4H
	DB	020H
	DB	04H
	DB	021H
	DB	04H
	DB	021H
	DB	0e4H
	DB	020H
	DB	04H
	DB	021H
	DB	04H
	DB	021H
	DB	0e4H
	DB	020H
	DB	04H
	DB	021H
	DB	04H
	DB	021H
	DB	0e4H
	DB	020H
	DB	04H
	DB	021H
	DB	04H
	DB	021H
	DB	0e4H
	DB	020H
	DB	04H
	DB	021H
	DB	04H
	DB	021H
	DB	0e4H
	DB	020H
	DB	04H
	DB	021H
	DB	04H
	DB	021H
	DB	0e4H
	DB	020H
	DB	04H
	DB	021H
	DB	04H
	DB	021H
	DB	0e4H
	DB	020H
	DB	04H
	DB	021H
	DB	04H
	DB	021H
	DB	0e4H
	DB	020H
	DB	04H
	DB	021H
	DB	04H
	DB	021H
	DB	0e4H
	DB	020H
	DB	04H
	DB	021H
	DB	04H
	DB	021H
	DB	0e4H
	DB	020H
	DB	04H
	DB	021H
	DB	04H
	DB	021H
	DB	0e4H
	DB	020H
	DB	04H
	DB	021H
	DB	04H
	DB	021H
	DB	0e4H
	DB	020H
	DB	04H
	DB	021H
	DB	04H
	DB	021H
	DB	0e4H
	DB	020H
	DB	04H
	DB	021H
	DB	04H
	DB	021H
	DB	0e4H
	DB	020H
	DB	04H
	DB	021H
	DB	04H
	DB	021H
	DB	0e4H
	DB	020H
	DB	04H
	DB	021H
	DB	04H
	DB	021H
	DB	0e4H
	DB	020H
	DB	04H
	DB	021H
	DB	04H
	DB	021H
	DB	0e4H
	DB	020H
	DB	04H
	DB	021H
	DB	04H
	DB	021H
	DB	0e4H
	DB	020H
	DB	04H
	DB	021H
	DB	04H
	DB	021H
	DB	0e4H
	DB	020H
	DB	04H
	DB	021H
	DB	04H
	DB	021H
	DB	0e4H
	DB	020H
	DB	04H
	DB	021H
	DB	04H
	DB	021H
	DB	0e4H
	DB	020H
	DB	04H
	DB	021H
	DB	04H
	DB	021H
	DB	0e4H
	DB	020H
	DB	04H
	DB	021H
	DB	04H
	DB	021H
	DB	0e4H
	DB	020H
	DB	04H
	DB	021H
	DB	04H
	DB	021H
	DB	0e4H
	DB	020H
	DB	04H
	DB	021H
	DB	04H
	DB	021H
	DB	0e4H
	DB	020H
	DB	04H
	DB	021H
	DB	04H
	DB	021H
	DB	0e4H
	DB	020H
	DB	04H
	DB	021H
	DB	04H
	DB	021H
	DB	0e4H
	DB	020H
	DB	04H
	DB	021H
	DB	04H
	DB	021H
	DB	0e4H
	DB	020H
	DB	04H
	DB	021H
	DB	04H
	DB	021H
	DB	0e4H
	DB	020H
	DB	04H
	DB	021H
	DB	04H
	DB	021H
	DB	0e4H
	DB	020H
	DB	04H
	DB	021H
	DB	04H
	DB	021H
	DB	0e4H
	DB	020H
	DB	04H
	DB	021H
	DB	04H
	DB	021H
	DB	0e4H
	DB	020H
	DB	04H
	DB	021H
	DB	04H
	DB	021H
	DB	03H
	DB	019H
	DB	04H
	DB	021H
	DB	04H
	DB	021H
	DB	0e4H
	DB	020H
	DB	04H
	DB	021H
	DB	04H
	DB	021H
	DB	04H
	DB	021H
	DB	04H
	DB	021H
	DB	0e4H
	DB	020H
	DB	04H
	DB	021H
	DB	04H
	DB	021H
	DB	04H
	DB	021H
	DB	04H
	DB	021H
	DB	0e4H
	DB	020H
	DB	04H
	DB	021H
	DB	04H
	DB	021H
	DB	04H
	DB	021H
	DB	04H
	DB	021H
	DB	0e4H
	DB	020H
	DB	04H
	DB	021H
	DB	04H
	DB	021H
	DB	04H
	DB	021H
	DB	04H
	DB	021H
	DB	0e4H
	DB	020H
	DB	04H
	DB	021H
	DB	04H
	DB	021H
	DB	04H
	DB	021H
	DB	04H
	DB	021H
	DB	0e4H
	DB	020H
	DB	04H
	DB	021H
	DB	04H
	DB	021H
	DB	04H
	DB	021H
	DB	04H
	DB	021H
	DB	0e4H
	DB	020H
	DB	04H
	DB	021H
	DB	04H
	DB	021H
	DB	04H
	DB	021H
	DB	04H
	DB	021H
	DB	0e4H
	DB	020H
	DB	04H
	DB	021H
	DB	04H
	DB	021H
	DB	04H
	DB	021H
	DB	04H
	DB	021H
	DB	0e4H
	DB	020H
	DB	04H
	DB	021H
	DB	04H
	DB	021H
	DB	04H
	DB	021H
	DB	04H
	DB	021H
	DB	0e4H
	DB	020H
	DB	04H
	DB	021H
	DB	04H
	DB	021H
	DB	04H
	DB	021H
	DB	04H
	DB	021H
	DB	0e4H
	DB	020H
	DB	04H
	DB	021H
	DB	04H
	DB	021H
	DB	04H
	DB	021H
	DB	04H
	DB	021H
	DB	0e4H
	DB	020H
	DB	04H
	DB	021H
	DB	04H
	DB	021H
	DB	04H
	DB	021H
	DB	04H
	DB	021H
	DB	0e4H
	DB	020H
	DB	04H
	DB	021H
	DB	04H
	DB	021H
	DB	04H
	DB	021H
	DB	04H
	DB	021H
	DB	0e4H
	DB	020H
	DB	04H
	DB	021H
	DB	04H
	DB	021H
	DB	04H
	DB	021H
	DB	04H
	DB	021H
	DB	0e4H
	DB	020H
	DB	04H
	DB	021H
	DB	04H
	DB	021H
	DB	04H
	DB	021H
	DB	04H
	DB	021H
	DB	0e4H
	DB	020H
	DB	04H
	DB	021H
	DB	04H
	DB	021H
	DB	04H
	DB	021H
	DB	04H
	DB	021H
	DB	0e4H
	DB	020H
	DB	04H
	DB	021H
	DB	04H
	DB	021H
	DB	04H
	DB	021H
	DB	04H
	DB	021H
	DB	0e4H
	DB	020H
	DB	04H
	DB	021H
	DB	04H
	DB	021H
	DB	04H
	DB	021H
	DB	04H
	DB	021H
	DB	04H
	DB	021H
	DB	04H
	DB	021H
	DB	04H
	DB	021H
	DB	04H
	DB	021H
	DB	04H
	DB	021H
	DB	0e4H
	DB	020H
	DB	0e3H
	DB	018H
	DB	0e4H
	DB	020H
	DB	0e4H
	DB	020H
	DB	0e3H
	DB	018H
	DB	0e3H
	DB	018H
	DB	0e4H
	DB	020H
	DB	0e3H
	DB	018H
	DB	0e3H
	DB	018H
	DB	0e4H
	DB	020H
	DB	0e3H
	DB	018H
	DB	0e3H
	DB	018H
	DB	0e4H
	DB	020H
	DB	0e3H
	DB	018H
	DB	0e3H
	DB	018H
	DB	03H
	DB	019H
	DB	0e4H
	DB	020H
	DB	0e3H
	DB	018H
	DB	0e3H
	DB	018H
	DB	0e4H
	DB	020H
	DB	0e3H
	DB	018H
	DB	0e3H
	DB	018H
	DB	0e3H
	DB	018H
	DB	0e4H
	DB	020H
	DB	0e3H
	DB	018H
	DB	0e3H
	DB	018H
	DB	0e4H
	DB	020H
	DB	0e3H
	DB	018H
	DB	0e3H
	DB	018H
	DB	0e3H
	DB	018H
	DB	04H
	DB	021H
	DB	0e3H
	DB	018H
	DB	0e3H
	DB	018H
	DB	0e4H
	DB	020H
	DB	0e3H
	DB	018H
	DB	0e3H
	DB	018H
	DB	0e3H
	DB	018H
	DB	0e4H
	DB	020H
	DB	0e3H
	DB	018H
	DB	0e3H
	DB	018H
	DB	0e4H
	DB	020H
	DB	0e3H
	DB	018H
	DB	0e3H
	DB	018H
	DB	0e3H
	DB	018H
	DB	0e4H
	DB	020H
	DB	03H
	DB	019H
	DB	0e3H
	DB	018H
	DB	0e4H
	DB	020H
	DB	0e3H
	DB	018H
	DB	0e3H
	DB	018H
	DB	0e3H
	DB	018H
	DB	0e4H
	DB	020H
	DB	0e3H
	DB	018H
	DB	0e3H
	DB	018H
	DB	0e4H
	DB	020H
	DB	0e3H
	DB	018H
	DB	0e3H
	DB	018H
	DB	0e3H
	DB	018H
	DB	0e4H
	DB	020H
	DB	0e3H
	DB	018H
	DB	03H
	DB	019H
	DB	0e4H
	DB	020H
	DB	0e3H
	DB	018H
	DB	0e3H
	DB	018H
	DB	0e3H
	DB	018H
	DB	0e4H
	DB	020H
	DB	0e3H
	DB	018H
	DB	0e3H
	DB	018H
	DB	0e4H
	DB	020H
	DB	0e3H
	DB	018H
	DB	0e3H
	DB	018H
	DB	0e3H
	DB	018H
	DB	0e4H
	DB	020H
	DB	0e3H
	DB	018H
	DB	0e3H
	DB	018H
	DB	04H
	DB	021H
	DB	0e3H
	DB	018H
	DB	0e3H
	DB	018H
	DB	0e3H
	DB	018H
	DB	0e4H
	DB	020H
	DB	0e3H
	DB	018H
	DB	0e3H
	DB	018H
	DB	0e4H
	DB	020H
	DB	0e3H
	DB	018H
	DB	0e3H
	DB	018H
	DB	0e3H
	DB	018H
	DB	0e4H
	DB	020H
	DB	0e3H
	DB	018H
	DB	0e3H
	DB	018H
	DB	0e4H
	DB	020H
	DB	03H
	DB	019H
	DB	0e3H
	DB	018H
	DB	0e3H
	DB	018H
	DB	0e4H
	DB	020H
	DB	0e3H
	DB	018H
	DB	0e3H
	DB	018H
	DB	0e4H
	DB	020H
	DB	0e3H
	DB	018H
	DB	0e3H
	DB	018H
	DB	0e4H
	DB	020H
	DB	0e4H
	DB	020H
	DB	04H
	DB	021H
	DB	04H
	DB	021H
	DB	0e4H
	DB	020H
	DB	04H
	DB	021H
	DB	04H
	DB	021H
	DB	04H
	DB	021H
	DB	04H
	DB	021H
	DB	04H
	DB	021H
	DB	04H
	DB	021H
	DB	04H
	DB	021H
	DB	04H
	DB	021H
	DB	04H
	DB	021H
	DB	0e4H
	DB	020H
	DB	04H
	DB	021H
	DB	04H
	DB	021H
	DB	0e4H
	DB	020H
	DB	04H
	DB	021H
	DB	04H
	DB	021H
	DB	04H
	DB	021H
	DB	04H
	DB	021H
	DB	04H
	DB	021H
	DB	04H
	DB	021H
	DB	0e4H
	DB	020H
	DB	04H
	DB	021H
	DB	04H
	DB	021H
	DB	04H
	DB	021H
	DB	04H
	DB	021H
	DB	0e4H
	DB	020H
	DB	04H
	DB	021H
	DB	04H
	DB	021H
	DB	0e4H
	DB	020H
	DB	04H
	DB	021H
	DB	04H
	DB	021H
	DB	04H
	DB	021H
	DB	04H
	DB	021H
	DB	04H
	DB	021H
	DB	04H
	DB	021H
	DB	0e4H
	DB	020H
	DB	04H
	DB	021H
	DB	04H
	DB	021H
	DB	04H
	DB	021H
	DB	04H
	DB	021H
	DB	0e4H
	DB	020H
	DB	04H
	DB	021H
	DB	04H
	DB	021H
	DB	0e4H
	DB	020H
	DB	04H
	DB	021H
	DB	04H
	DB	021H
	DB	04H
	DB	021H
	DB	04H
	DB	021H
	DB	04H
	DB	021H
	DB	04H
	DB	021H
	DB	0e4H
	DB	020H
	DB	04H
	DB	021H
	DB	04H
	DB	021H
	DB	04H
	DB	021H
	DB	04H
	DB	021H
	DB	0e4H
	DB	020H
	DB	04H
	DB	021H
	DB	04H
	DB	021H
	DB	0e4H
	DB	020H
	DB	04H
	DB	021H
	DB	04H
	DB	021H
	DB	04H
	DB	021H
	DB	04H
	DB	021H
	DB	04H
	DB	021H
	DB	04H
	DB	021H
	DB	0e4H
	DB	020H
	DB	04H
	DB	021H
	DB	04H
	DB	021H
	DB	04H
	DB	021H
	DB	04H
	DB	021H
	DB	0e4H
	DB	020H
	DB	04H
	DB	021H
	DB	04H
	DB	021H
	DB	0e4H
	DB	020H
	DB	04H
	DB	021H
	DB	04H
	DB	021H
	DB	04H
	DB	021H
	DB	04H
	DB	021H
	DB	04H
	DB	021H
	DB	04H
	DB	021H
	DB	0e4H
	DB	020H
	DB	04H
	DB	021H
	DB	04H
	DB	021H
	DB	04H
	DB	021H
	DB	04H
	DB	021H
	DB	0e4H
	DB	020H
	DB	04H
	DB	021H
	DB	04H
	DB	021H
	DB	0e4H
	DB	020H
	DB	04H
	DB	021H
	DB	04H
	DB	021H
	DB	0e4H
	DB	020H
	DB	04H
	DB	021H
	DB	04H
	DB	021H
	DB	0e4H
	DB	020H
	DB	04H
	DB	021H
	DB	0e4H
	DB	020H
	DB	0e4H
	DB	020H
	DB	03H
	DB	019H
	DB	04H
	DB	021H
	DB	0e3H
	DB	018H
	DB	04H
	DB	021H
	DB	0e4H
	DB	020H
	DB	0e3H
	DB	018H
	DB	04H
	DB	021H
	DB	0e4H
	DB	020H
	DB	0e3H
	DB	018H
	DB	04H
	DB	021H
	DB	0e4H
	DB	020H
	DB	03H
	DB	019H
	DB	0e4H
	DB	020H
	DB	0e4H
	DB	020H
	DB	04H
	DB	021H
	DB	0e3H
	DB	018H
	DB	0e4H
	DB	020H
	DB	04H
	DB	021H
	DB	0e3H
	DB	018H
	DB	0e4H
	DB	020H
	DB	04H
	DB	021H
	DB	0e4H
	DB	020H
	DB	03H
	DB	019H
	DB	04H
	DB	021H
	DB	0e4H
	DB	020H
	DB	0e3H
	DB	018H
	DB	04H
	DB	021H
	DB	04H
	DB	021H
	DB	0e4H
	DB	020H
	DB	0e3H
	DB	018H
	DB	04H
	DB	021H
	DB	0e4H
	DB	020H
	DB	0e3H
	DB	018H
	DB	04H
	DB	021H
	DB	0e4H
	DB	020H
	DB	0e4H
	DB	020H
	DB	03H
	DB	019H
	DB	04H
	DB	021H
	DB	0e4H
	DB	020H
	DB	03H
	DB	019H
	DB	0e4H
	DB	020H
	DB	04H
	DB	021H
	DB	0e4H
	DB	020H
	DB	03H
	DB	019H
	DB	0e4H
	DB	020H
	DB	0e3H
	DB	018H
	DB	0e3H
	DB	018H
	DB	0e4H
	DB	020H
	DB	0e4H
	DB	020H
	DB	0e3H
	DB	018H
	DB	0e3H
	DB	018H
	DB	0e4H
	DB	020H
	DB	0e3H
	DB	018H
	DB	04H
	DB	021H
	DB	0e4H
	DB	020H
	DB	04H
	DB	021H
	DB	0e4H
	DB	020H
	DB	03H
	DB	019H
	DB	0e4H
	DB	020H
	DB	0e4H
	DB	020H
	DB	03H
	DB	019H
	DB	0e4H
	DB	020H
	DB	0e4H
	DB	020H
	DB	04H
	DB	021H
	DB	0e3H
	DB	018H
	DB	0e4H
	DB	020H
	DB	04H
	DB	021H
	DB	03H
	DB	019H
	DB	0e4H
	DB	020H
	DB	04H
	DB	021H
	DB	0e4H
	DB	020H
	DB	03H
	DB	019H
	DB	0e4H
	DB	020H
	DB	04H
	DB	021H
	DB	0e3H
	DB	018H
	DB	0e4H
	DB	020H
	DB	04H
	DB	021H
	DB	0e4H
	DB	020H
	DB	0e3H
	DB	018H
	DB	04H
	DB	021H
	DB	0e4H
	DB	020H
	DB	03H
	DB	019H
	DB	04H
	DB	021H
	DB	0e4H
	DB	020H
	DB	04H
	DB	021H
	DB	0e3H
	DB	018H
	DB	04H
	DB	021H
	DB	0e4H
	DB	020H
	DB	03H
	DB	019H
	DB	0e4H
	DB	020H
	DB	0e4H
	DB	020H
	DB	04H
	DB	021H
	DB	0e3H
	DB	018H
	DB	04H
	DB	021H
	DB	0e4H
	DB	020H
	DB	03H
	DB	019H
	DB	04H
	DB	021H
	DB	0e4H
	DB	020H
	DB	03H
	DB	019H
	DB	0e3H
	DB	018H
	DB	0e4H
	DB	020H
	DB	0e3H
	DB	018H
	DB	0e4H
	DB	020H
	DB	0e3H
	DB	018H
	DB	0e3H
	DB	018H
	DB	0e4H
	DB	020H
	DB	0e3H
	DB	018H
	DB	0e3H
	DB	018H
	DB	0e4H
	DB	020H
	DB	0e3H
	DB	018H
	DB	0e3H
	DB	018H
	DB	0e4H
	DB	020H
	DB	0e3H
	DB	018H
	DB	0e3H
	DB	018H
	DB	0e4H
	DB	020H
	DB	0e3H
	DB	018H
	DB	0e3H
	DB	018H
	DB	0e4H
	DB	020H
	DB	0e3H
	DB	018H
	DB	0e3H
	DB	018H
	DB	0e4H
	DB	020H
	DB	0e3H
	DB	018H
	DB	0e3H
	DB	018H
	DB	0e4H
	DB	020H
	DB	0e3H
	DB	018H
	DB	0e3H
	DB	018H
	DB	0e4H
	DB	020H
	DB	0e3H
	DB	018H
	DB	0e3H
	DB	018H
	DB	0e4H
	DB	020H
	DB	0e3H
	DB	018H
	DB	0e3H
	DB	018H
	DB	0e4H
	DB	020H
	DB	0e3H
	DB	018H
	DB	0e3H
	DB	018H
	DB	0e4H
	DB	020H
	DB	0e3H
	DB	018H
	DB	0e3H
	DB	018H
	DB	0e4H
	DB	020H
	DB	0e3H
	DB	018H
	DB	0e3H
	DB	018H
	DB	0e4H
	DB	020H
	DB	0e3H
	DB	018H
	DB	0e4H
	DB	020H
	DB	087H
	DB	019H
	DB	0ceH
	DB	012H
	DB	0f5H
	DB	0bH
	DB	099H
	DB	0cH
	DB	03cH
	DB	05H
	DB	05cH
	DB	05H
	DB	0fbH
	DB	04H
	DB	036H
	DB	0cH
	DB	025H
	DB	019H
	DB	0e3H
	DB	018H
	DB	0e3H
	DB	018H
	DB	0e3H
	DB	018H
	DB	0e3H
	DB	020H
	DB	0e4H
	DB	018H
	DB	0e3H
	DB	018H
	DB	0e3H
	DB	020H
	DB	0e4H
	DB	018H
	DB	0e3H
	DB	018H
	DB	0e3H
	DB	020H
	DB	0e4H
	DB	018H
	DB	0e3H
	DB	018H
	DB	0e3H
	DB	020H
	DB	0e4H
	DB	018H
	DB	0e3H
	DB	018H
	DB	0e3H
	DB	020H
	DB	0e4H
	DB	018H
	DB	0e3H
	DB	018H
	DB	0e3H
	DB	020H
	DB	0e4H
	DB	018H
	DB	0e3H
	DB	018H
	DB	0e3H
	DB	020H
	DB	0e4H
	DB	018H
	DB	0e3H
	DB	018H
	DB	0e3H
	DB	020H
	DB	0e4H
	DB	018H
	DB	0e3H
	DB	018H
	DB	0e3H
	DB	020H
	DB	0e4H
	DB	018H
	DB	0e3H
	DB	018H
	DB	0e3H
	DB	020H
	DB	0e4H
	DB	018H
	DB	0e3H
	DB	018H
	DB	0e3H
	DB	020H
	DB	0e4H
	DB	018H
	DB	0e3H
	DB	018H
	DB	0e3H
	DB	020H
	DB	0e4H
	DB	018H
	DB	0e3H
	DB	018H
	DB	0e3H
	DB	020H
	DB	0e4H
	DB	018H
	DB	0e3H
	DB	018H
	DB	0e3H
	DB	020H
	DB	0e4H
	DB	018H
	DB	0e3H
	DB	020H
	DB	0e4H
	DB	020H
	DB	0e4H
	DB	020H
	DB	0e4H
	DB	020H
	DB	0e4H
	DB	020H
	DB	0e4H
	DB	020H
	DB	0e4H
	DB	020H
	DB	04H
	DB	021H
	DB	0e4H
	DB	020H
	DB	0e4H
	DB	020H
	DB	0e4H
	DB	020H
	DB	04H
	DB	021H
	DB	0e4H
	DB	020H
	DB	0e4H
	DB	020H
	DB	0e4H
	DB	020H
	DB	04H
	DB	021H
	DB	0e3H
	DB	018H
	DB	0e4H
	DB	020H
	DB	04H
	DB	021H
	DB	0e4H
	DB	020H
	DB	0e4H
	DB	020H
	DB	04H
	DB	021H
	DB	0e4H
	DB	020H
	DB	0e4H
	DB	020H
	DB	0e4H
	DB	020H
	DB	0e4H
	DB	020H
	DB	0e4H
	DB	020H
	DB	04H
	DB	021H
	DB	0e4H
	DB	020H
	DB	0e4H
	DB	020H
	DB	0e3H
	DB	018H
	DB	04H
	DB	021H
	DB	0e4H
	DB	020H
	DB	0e4H
	DB	020H
	DB	04H
	DB	021H
	DB	0e4H
	DB	020H
	DB	0e4H
	DB	020H
	DB	03H
	DB	019H
	DB	0e4H
	DB	020H
	DB	0e4H
	DB	020H
	DB	0e4H
	DB	020H
	DB	0e4H
	DB	020H
	DB	0e4H
	DB	020H
	DB	0e4H
	DB	020H
	DB	0e3H
	DB	018H
	DB	0c9H
	DB	019H
	DB	015H
	DB	0cH
	DB	05dH
	DB	05H
	DB	05dH
	DB	05H
	DB	07dH
	DB	05H
	DB	07dH
	DB	05H
	DB	05dH
	DB	05H
	DB	07dH
	DB	05H
	DB	07dH
	DB	05H
	DB	04cH
	DB	012H
	DB	0e4H
	DB	020H
	DB	0e3H
	DB	020H
	DB	0e4H
	DB	020H
	DB	0e4H
	DB	020H
	DB	0e4H
	DB	020H
	DB	04H
	DB	021H
	DB	0e4H
	DB	020H
	DB	0e4H
	DB	020H
	DB	04H
	DB	021H
	DB	0e4H
	DB	020H
	DB	0e3H
	DB	020H
	DB	04H
	DB	021H
	DB	0e4H
	DB	020H
	DB	0e4H
	DB	020H
	DB	0e4H
	DB	020H
	DB	0e4H
	DB	020H
	DB	0e4H
	DB	020H
	DB	0e4H
	DB	018H
	DB	0e4H
	DB	020H
	DB	0e4H
	DB	020H
	DB	04H
	DB	021H
	DB	0e4H
	DB	020H
	DB	0e4H
	DB	020H
	DB	04H
	DB	021H
	DB	0e3H
	DB	018H
	DB	0e4H
	DB	020H
	DB	04H
	DB	021H
	DB	0e4H
	DB	020H
	DB	0e4H
	DB	020H
	DB	0e4H
	DB	020H
	DB	0e4H
	DB	020H
	DB	0e3H
	DB	020H
	DB	0e4H
	DB	020H
	DB	0e4H
	DB	020H
	DB	0e4H
	DB	020H
	DB	04H
	DB	021H
	DB	0e4H
	DB	020H
	DB	0e4H
	DB	020H
	DB	04H
	DB	019H
	DB	0e4H
	DB	020H
	DB	0e4H
	DB	020H
	DB	0e4H
	DB	020H
	DB	0e4H
	DB	020H
	DB	0e4H
	DB	020H
	DB	0e4H
	DB	018H
	DB	0e3H
	DB	020H
	DB	0e4H
	DB	020H
	DB	0e4H
	DB	020H
	DB	0e3H
	DB	018H
	DB	03H
	DB	019H
	DB	0e4H
	DB	020H
	DB	0e3H
	DB	018H
	DB	03H
	DB	019H
	DB	0e4H
	DB	020H
	DB	0e3H
	DB	018H
	DB	03H
	DB	019H
	DB	0e4H
	DB	020H
	DB	0e3H
	DB	018H
	DB	0e3H
	DB	018H
	DB	04H
	DB	021H
	DB	0e4H
	DB	020H
	DB	0e3H
	DB	018H
	DB	04H
	DB	021H
	DB	0e4H
	DB	020H
	DB	0e3H
	DB	018H
	DB	0e3H
	DB	018H
	DB	04H
	DB	021H
	DB	0e3H
	DB	018H
	DB	0e3H
	DB	018H
	DB	04H
	DB	021H
	DB	0e3H
	DB	018H
	DB	0e3H
	DB	018H
	DB	0e4H
	DB	020H
	DB	03H
	DB	019H
	DB	0e4H
	DB	020H
	DB	0e4H
	DB	020H
	DB	0e3H
	DB	018H
	DB	04H
	DB	021H
	DB	0e3H
	DB	018H
	DB	0e3H
	DB	018H
	DB	0e4H
	DB	020H
	DB	0e4H
	DB	020H
	DB	0e4H
	DB	020H
	DB	03H
	DB	019H
	DB	0e4H
	DB	020H
	DB	03H
	DB	019H
	DB	0e3H
	DB	018H
	DB	0e3H
	DB	018H
	DB	04H
	DB	019H
	DB	072H
	DB	013H
	DB	05dH
	DB	05H
	DB	05dH
	DB	05H
	DB	05dH
	DB	05H
	DB	05dH
	DB	05H
	DB	05dH
	DB	05H
	DB	05dH
	DB	05H
	DB	05dH
	DB	05H
	DB	05dH
	DB	05H
	DB	052H
	DB	0bH
	DB	0c3H
	DB	018H
	DB	0e3H
	DB	018H
	DB	0e3H
	DB	018H
	DB	0ceH
	DB	012H
	DB	03cH
	DB	05H
	DB	0b3H
	DB	0bH
	DB	0e3H
	DB	018H
	DB	0e3H
	DB	018H
	DB	0e4H
	DB	020H
	DB	03H
	DB	019H
	DB	0e4H
	DB	018H
	DB	0e4H
	DB	020H
	DB	0e3H
	DB	018H
	DB	04H
	DB	019H
	DB	0e3H
	DB	020H
	DB	03H
	DB	019H
	DB	0e4H
	DB	020H
	DB	03H
	DB	021H
	DB	03H
	DB	019H
	DB	0e4H
	DB	020H
	DB	0e3H
	DB	020H
	DB	03H
	DB	019H
	DB	0e4H
	DB	018H
	DB	0e3H
	DB	020H
	DB	04H
	DB	021H
	DB	0e4H
	DB	018H
	DB	0e3H
	DB	020H
	DB	0e4H
	DB	020H
	DB	0e3H
	DB	018H
	DB	03H
	DB	019H
	DB	0e4H
	DB	020H
	DB	04H
	DB	019H
	DB	0e4H
	DB	018H
	DB	03H
	DB	021H
	DB	0e4H
	DB	018H
	DB	0e3H
	DB	018H
	DB	03H
	DB	021H
	DB	0e4H
	DB	018H
	DB	0e3H
	DB	020H
	DB	03H
	DB	021H
	DB	0e4H
	DB	018H
	DB	0e3H
	DB	020H
	DB	03H
	DB	019H
	DB	04H
	DB	021H
	DB	0e3H
	DB	018H
	DB	04H
	DB	021H
	DB	0e4H
	DB	018H
	DB	0e3H
	DB	018H
	DB	0e3H
	DB	018H
	DB	0e3H
	DB	018H
	DB	0e4H
	DB	020H
	DB	0e3H
	DB	018H
	DB	0e3H
	DB	018H
	DB	0e4H
	DB	020H
	DB	0e3H
	DB	018H
	DB	0e3H
	DB	018H
	DB	0e4H
	DB	020H
	DB	0e3H
	DB	018H
	DB	0e3H
	DB	018H
	DB	0e4H
	DB	020H
	DB	0e3H
	DB	018H
	DB	0e3H
	DB	018H
	DB	0e4H
	DB	020H
	DB	0e3H
	DB	018H
	DB	0e3H
	DB	018H
	DB	0e3H
	DB	018H
	DB	0e4H
	DB	020H
	DB	0e3H
	DB	018H
	DB	0e3H
	DB	018H
	DB	0e4H
	DB	020H
	DB	0e3H
	DB	018H
	DB	0e3H
	DB	018H
	DB	0e4H
	DB	020H
	DB	0e3H
	DB	018H
	DB	0e3H
	DB	018H
	DB	0e3H
	DB	018H
	DB	0e4H
	DB	020H
	DB	0e3H
	DB	018H
	DB	0e3H
	DB	018H
	DB	0e4H
	DB	020H
	DB	0e3H
	DB	018H
	DB	0e3H
	DB	018H
	DB	0e3H
	DB	018H
	DB	0e3H
	DB	018H
	DB	0e4H
	DB	020H
	DB	0e3H
	DB	018H
	DB	0e4H
	DB	020H
	DB	0e4H
	DB	020H
	DB	045H
	DB	019H
	DB	078H
	DB	0cH
	DB	05dH
	DB	05H
	DB	05dH
	DB	05H
	DB	05dH
	DB	05H
	DB	05dH
	DB	05H
	DB	05dH
	DB	05H
	DB	0daH
	DB	04H
	DB	0d4H
	DB	0bH
	DB	051H
	DB	0bH
	DB	010H
	DB	013H
	DB	0e3H
	DB	018H
	DB	0c3H
	DB	018H
	DB	0c3H
	DB	018H
	DB	0aH
	DB	012H
	DB	05dH
	DB	05H
	DB	05dH
	DB	05H
	DB	01bH
	DB	05H
	DB	0e3H
	DB	018H
	DB	0e4H
	DB	020H
	DB	0e3H
	DB	018H
	DB	0e3H
	DB	018H
	DB	0e3H
	DB	020H
	DB	0e4H
	DB	018H
	DB	0e3H
	DB	018H
	DB	0e3H
	DB	020H
	DB	0e4H
	DB	018H
	DB	0e3H
	DB	018H
	DB	0e3H
	DB	018H
	DB	0e4H
	DB	018H
	DB	0e3H
	DB	020H
	DB	0e3H
	DB	018H
	DB	0e4H
	DB	018H
	DB	0e3H
	DB	018H
	DB	0e3H
	DB	020H
	DB	0e3H
	DB	018H
	DB	0e4H
	DB	018H
	DB	0e3H
	DB	020H
	DB	0e3H
	DB	018H
	DB	0e4H
	DB	018H
	DB	0e3H
	DB	018H
	DB	0e3H
	DB	020H
	DB	0e3H
	DB	018H
	DB	0e3H
	DB	018H
	DB	0e3H
	DB	020H
	DB	0e4H
	DB	018H
	DB	0e3H
	DB	018H
	DB	0e3H
	DB	020H
	DB	0e4H
	DB	018H
	DB	0e3H
	DB	018H
	DB	0e3H
	DB	018H
	DB	0e4H
	DB	020H
	DB	0e3H
	DB	018H
	DB	0e3H
	DB	018H
	DB	0e4H
	DB	020H
	DB	0e3H
	DB	018H
	DB	0e3H
	DB	018H
	DB	0e3H
	DB	020H
	DB	0e4H
	DB	020H
	DB	0e3H
	DB	018H
	DB	0e4H
	DB	020H
	DB	0e4H
	DB	020H
	DB	0e3H
	DB	018H
	DB	0e4H
	DB	020H
	DB	0e4H
	DB	020H
	DB	0e4H
	DB	020H
	DB	0e3H
	DB	018H
	DB	0e4H
	DB	020H
	DB	0e4H
	DB	020H
	DB	0e4H
	DB	020H
	DB	0e3H
	DB	018H
	DB	0e4H
	DB	020H
	DB	0e4H
	DB	020H
	DB	0e3H
	DB	018H
	DB	0e4H
	DB	020H
	DB	0e4H
	DB	020H
	DB	0e3H
	DB	018H
	DB	0e4H
	DB	020H
	DB	0e4H
	DB	020H
	DB	0e4H
	DB	020H
	DB	0e3H
	DB	018H
	DB	0e4H
	DB	020H
	DB	0e4H
	DB	020H
	DB	0e4H
	DB	020H
	DB	0e4H
	DB	020H
	DB	0e3H
	DB	018H
	DB	0e4H
	DB	020H
	DB	0e4H
	DB	020H
	DB	0e3H
	DB	018H
	DB	0e4H
	DB	020H
	DB	0e4H
	DB	020H
	DB	0e4H
	DB	020H
	DB	0e4H
	DB	020H
	DB	0e3H
	DB	018H
	DB	0e4H
	DB	020H
	DB	0e4H
	DB	020H
	DB	0e3H
	DB	018H
	DB	0e3H
	DB	018H
	DB	0e3H
	DB	018H
	DB	025H
	DB	019H
	DB	078H
	DB	0cH
	DB	05dH
	DB	05H
	DB	05dH
	DB	05H
	DB	05cH
	DB	05H
	DB	05cH
	DB	05H
	DB	0b3H
	DB	0bH
	DB	0a8H
	DB	011H
	DB	0a2H
	DB	018H
	DB	0a3H
	DB	018H
	DB	0a3H
	DB	010H
	DB	0a3H
	DB	018H
	DB	0c3H
	DB	018H
	DB	0c3H
	DB	018H
	DB	046H
	DB	019H
	DB	0fbH
	DB	0cH
	DB	05dH
	DB	05H
	DB	05dH
	DB	05H
	DB	052H
	DB	013H
	DB	0e3H
	DB	018H
	DB	0e4H
	DB	020H
	DB	0e4H
	DB	020H
	DB	0e3H
	DB	018H
	DB	0e4H
	DB	020H
	DB	0e4H
	DB	020H
	DB	0e3H
	DB	018H
	DB	0e4H
	DB	020H
	DB	0e4H
	DB	020H
	DB	0e4H
	DB	020H
	DB	0e3H
	DB	018H
	DB	0e4H
	DB	020H
	DB	0e4H
	DB	020H
	DB	0e3H
	DB	018H
	DB	0e4H
	DB	020H
	DB	0e4H
	DB	020H
	DB	0e4H
	DB	018H
	DB	0e4H
	DB	020H
	DB	0e3H
	DB	018H
	DB	0e4H
	DB	020H
	DB	0e4H
	DB	020H
	DB	0e3H
	DB	018H
	DB	0e4H
	DB	020H
	DB	0e4H
	DB	020H
	DB	0e4H
	DB	020H
	DB	0e3H
	DB	018H
	DB	0e4H
	DB	020H
	DB	0e4H
	DB	020H
	DB	0e3H
	DB	020H
	DB	0e4H
	DB	020H
	DB	0e4H
	DB	018H
	DB	0e4H
	DB	020H
	DB	0e4H
	DB	020H
	DB	0e4H
	DB	018H
	DB	0e3H
	DB	020H
	DB	0e4H
	DB	020H
	DB	0e4H
	DB	018H
	DB	0e4H
	DB	020H
	DB	0e3H
	DB	018H
	DB	0e4H
	DB	020H
	DB	0e4H
	DB	018H
	DB	0e3H
	DB	020H
	DB	0e3H
	DB	018H
	DB	0e4H
	DB	020H
	DB	0e3H
	DB	018H
	DB	0e3H
	DB	018H
	DB	0e4H
	DB	020H
	DB	0e3H
	DB	018H
	DB	0e3H
	DB	018H
	DB	0e4H
	DB	020H
	DB	0e3H
	DB	018H
	DB	0e3H
	DB	018H
	DB	0e4H
	DB	020H
	DB	0e3H
	DB	018H
	DB	0e3H
	DB	018H
	DB	0e4H
	DB	020H
	DB	0e3H
	DB	018H
	DB	0e3H
	DB	018H
	DB	0e4H
	DB	020H
	DB	0e3H
	DB	018H
	DB	0e3H
	DB	018H
	DB	0e4H
	DB	020H
	DB	0e3H
	DB	018H
	DB	0e3H
	DB	018H
	DB	0e4H
	DB	020H
	DB	0e3H
	DB	018H
	DB	0e3H
	DB	018H
	DB	0e4H
	DB	020H
	DB	0e4H
	DB	020H
	DB	0e3H
	DB	018H
	DB	0e3H
	DB	018H
	DB	0e4H
	DB	020H
	DB	0e3H
	DB	018H
	DB	0e3H
	DB	018H
	DB	0e4H
	DB	020H
	DB	0e3H
	DB	018H
	DB	0e4H
	DB	020H
	DB	0e4H
	DB	020H
	DB	0e3H
	DB	018H
	DB	0e3H
	DB	020H
	DB	0e3H
	DB	018H
	DB	0b4H
	DB	0bH
	DB	03cH
	DB	05H
	DB	03cH
	DB	05H
	DB	03dH
	DB	05H
	DB	0daH
	DB	0cH
	DB	0c9H
	DB	011H
	DB	0a2H
	DB	010H
	DB	0a3H
	DB	018H
	DB	0a2H
	DB	010H
	DB	0a3H
	DB	018H
	DB	0a3H
	DB	018H
	DB	0c3H
	DB	018H
	DB	0c3H
	DB	018H
	DB	0e4H
	DB	018H
	DB	057H
	DB	0cH
	DB	03cH
	DB	05H
	DB	03cH
	DB	05H
	DB	0fbH
	DB	04H
	DB	025H
	DB	019H
	DB	0c3H
	DB	018H
	DB	0c3H
	DB	018H
	DB	0e3H
	DB	018H
	DB	0e4H
	DB	020H
	DB	0e3H
	DB	018H
	DB	0e3H
	DB	020H
	DB	0e4H
	DB	018H
	DB	0e3H
	DB	018H
	DB	0e3H
	DB	020H
	DB	0e4H
	DB	018H
	DB	0e3H
	DB	020H
	DB	0e4H
	DB	018H
	DB	0e3H
	DB	018H
	DB	0e4H
	DB	020H
	DB	0e3H
	DB	020H
	DB	0e3H
	DB	018H
	DB	0e4H
	DB	020H
	DB	0e3H
	DB	018H
	DB	0e3H
	DB	020H
	DB	0e4H
	DB	018H
	DB	0e3H
	DB	020H
	DB	0e3H
	DB	018H
	DB	0e4H
	DB	018H
	DB	0e4H
	DB	020H
	DB	0e3H
	DB	018H
	DB	0e4H
	DB	018H
	DB	0e3H
	DB	020H
	DB	0e4H
	DB	018H
	DB	0e3H
	DB	018H
	DB	0e3H
	DB	018H
	DB	0e4H
	DB	020H
	DB	0e3H
	DB	020H
	DB	0e3H
	DB	018H
	DB	0e3H
	DB	018H
	DB	0e4H
	DB	020H
	DB	0e3H
	DB	018H
	DB	0e3H
	DB	020H
	DB	0e4H
	DB	018H
	DB	0e3H
	DB	020H
	DB	0e4H
	DB	018H
	DB	0e3H
	DB	018H
	DB	0e4H
	DB	020H
	DB	0e3H
	DB	018H
	DB	0e3H
	DB	018H
	DB	0e4H
	DB	020H
	DB	0e3H
	DB	018H
	DB	0e3H
	DB	018H
	DB	0e3H
	DB	018H
	DB	0e4H
	DB	020H
	DB	0e3H
	DB	018H
	DB	0e3H
	DB	018H
	DB	0e3H
	DB	018H
	DB	0e4H
	DB	020H
	DB	0e3H
	DB	018H
	DB	0e3H
	DB	018H
	DB	0e4H
	DB	020H
	DB	0e3H
	DB	018H
	DB	0e3H
	DB	018H
	DB	0e4H
	DB	020H
	DB	0e3H
	DB	018H
	DB	0e3H
	DB	018H
	DB	0e4H
	DB	020H
	DB	0e3H
	DB	018H
	DB	0e3H
	DB	018H
	DB	0e3H
	DB	018H
	DB	0e3H
	DB	018H
	DB	0e3H
	DB	018H
	DB	0e3H
	DB	018H
	DB	0e3H
	DB	018H
	DB	0e3H
	DB	018H
	DB	0e4H
	DB	020H
	DB	0e3H
	DB	018H
	DB	0e3H
	DB	018H
	DB	0e3H
	DB	018H
	DB	0e3H
	DB	018H
	DB	0e3H
	DB	018H
	DB	0e3H
	DB	018H
	DB	0e3H
	DB	018H
	DB	0e4H
	DB	018H
	DB	0c3H
	DB	018H
	DB	02bH
	DB	012H
	DB	03cH
	DB	05H
	DB	03cH
	DB	05H
	DB	03cH
	DB	05H
	DB	0b9H
	DB	04H
	DB	026H
	DB	011H
	DB	0a3H
	DB	018H
	DB	0a3H
	DB	018H
	DB	0a3H
	DB	018H
	DB	0c3H
	DB	018H
	DB	0c3H
	DB	018H
	DB	0c3H
	DB	018H
	DB	0c3H
	DB	018H
	DB	0c3H
	DB	018H
	DB	072H
	DB	0bH
	DB	03cH
	DB	05H
	DB	03cH
	DB	05H
	DB	03cH
	DB	05H
	DB	0cfH
	DB	012H
	DB	0c3H
	DB	018H
	DB	0c3H
	DB	018H
	DB	0c3H
	DB	018H
	DB	0e3H
	DB	018H
	DB	0e4H
	DB	018H
	DB	0e3H
	DB	018H
	DB	0e3H
	DB	018H
	DB	0e4H
	DB	020H
	DB	0e3H
	DB	018H
	DB	0e3H
	DB	018H
	DB	0e3H
	DB	018H
	DB	0e3H
	DB	018H
	DB	0e3H
	DB	020H
	DB	0e3H
	DB	018H
	DB	0e4H
	DB	018H
	DB	0e3H
	DB	018H
	DB	0e3H
	DB	018H
	DB	0e3H
	DB	018H
	DB	0e3H
	DB	018H
	DB	0e4H
	DB	018H
	DB	0e3H
	DB	018H
	DB	0e3H
	DB	018H
	DB	0e3H
	DB	020H
	DB	0e3H
	DB	018H
	DB	0e3H
	DB	018H
	DB	0e3H
	DB	018H
	DB	0e3H
	DB	020H
	DB	0e3H
	DB	018H
	DB	0e3H
	DB	018H
	DB	0e4H
	DB	018H
	DB	0e3H
	DB	018H
	DB	0e3H
	DB	018H
	DB	0e3H
	DB	018H
	DB	0e3H
	DB	018H
	DB	0e4H
	DB	020H
	DB	0e3H
	DB	018H
	DB	0e3H
	DB	018H
	DB	0e3H
	DB	018H
	DB	0e3H
	DB	020H
	DB	0e3H
	DB	018H
	DB	0e3H
	DB	018H
	DB	0e3H
	DB	020H
	DB	0e3H
	DB	018H
	DB	0e3H
	DB	018H
	DB	0e4H
	DB	020H
	DB	0e3H
	DB	018H
	DB	0e4H
	DB	020H
	DB	0e3H
	DB	018H
	DB	0e4H
	DB	020H
	DB	0e3H
	DB	018H
	DB	0e4H
	DB	020H
	DB	0e3H
	DB	018H
	DB	0e4H
	DB	020H
	DB	0e3H
	DB	018H
	DB	0e4H
	DB	020H
	DB	0e3H
	DB	018H
	DB	0e3H
	DB	018H
	DB	0e4H
	DB	020H
	DB	0e3H
	DB	018H
	DB	0e3H
	DB	018H
	DB	0e4H
	DB	020H
	DB	0e3H
	DB	018H
	DB	0e3H
	DB	018H
	DB	0e4H
	DB	020H
	DB	0e4H
	DB	020H
	DB	0e3H
	DB	018H
	DB	0e4H
	DB	020H
	DB	0e4H
	DB	020H
	DB	0e3H
	DB	018H
	DB	0e4H
	DB	020H
	DB	0e3H
	DB	018H
	DB	0e3H
	DB	018H
	DB	0e4H
	DB	020H
	DB	0e4H
	DB	020H
	DB	0e3H
	DB	018H
	DB	0e4H
	DB	020H
	DB	0e4H
	DB	020H
	DB	0e3H
	DB	018H
	DB	0e3H
	DB	020H
	DB	0c3H
	DB	018H
	DB	0e4H
	DB	018H
	DB	058H
	DB	0cH
	DB	03cH
	DB	05H
	DB	03cH
	DB	05H
	DB	0fbH
	DB	0cH
	DB	067H
	DB	011H
	DB	0a2H
	DB	010H
	DB	0a3H
	DB	018H
	DB	0c3H
	DB	018H
	DB	0c3H
	DB	018H
	DB	0c3H
	DB	018H
	DB	0c3H
	DB	018H
	DB	0c3H
	DB	018H
	DB	0c3H
	DB	018H
	DB	08dH
	DB	012H
	DB	03cH
	DB	05H
	DB	03cH
	DB	05H
	DB	03cH
	DB	05H
	DB	099H
	DB	04H
	DB	0c3H
	DB	018H
	DB	0c3H
	DB	018H
	DB	0c3H
	DB	018H
	DB	010H
	DB	013H
	DB	0fbH
	DB	04H
	DB	030H
	DB	013H
	DB	0c3H
	DB	018H
	DB	0e4H
	DB	020H
	DB	0e3H
	DB	018H
	DB	0e4H
	DB	020H
	DB	0e4H
	DB	020H
	DB	0e3H
	DB	018H
	DB	0e4H
	DB	020H
	DB	0e4H
	DB	018H
	DB	0e3H
	DB	020H
	DB	0e3H
	DB	018H
	DB	0e4H
	DB	020H
	DB	0e4H
	DB	020H
	DB	0e3H
	DB	018H
	DB	0e4H
	DB	020H
	DB	0e3H
	DB	020H
	DB	0e4H
	DB	018H
	DB	0e4H
	DB	020H
	DB	0e4H
	DB	018H
	DB	0e3H
	DB	020H
	DB	0e4H
	DB	018H
	DB	0e4H
	DB	020H
	DB	0e3H
	DB	018H
	DB	0e4H
	DB	020H
	DB	0e3H
	DB	020H
	DB	0e4H
	DB	020H
	DB	0e3H
	DB	020H
	DB	0e4H
	DB	018H
	DB	0e4H
	DB	020H
	DB	0e3H
	DB	018H
	DB	0e4H
	DB	020H
	DB	0e3H
	DB	018H
	DB	0e4H
	DB	018H
	DB	0e4H
	DB	020H
	DB	0e4H
	DB	018H
	DB	0e3H
	DB	018H
	DB	0e4H
	DB	020H
	DB	0e4H
	DB	018H
	DB	0e3H
	DB	018H
	DB	0e3H
	DB	018H
	DB	0c3H
	DB	018H
	DB	0c4H
	DB	020H
	DB	0e3H
	DB	018H
	DB	0c3H
	DB	018H
	DB	0e4H
	DB	020H
	DB	0c3H
	DB	018H
	DB	0e3H
	DB	018H
	DB	0e4H
	DB	020H
	DB	0c3H
	DB	018H
	DB	0e3H
	DB	018H
	DB	0e4H
	DB	020H
	DB	0c3H
	DB	018H
	DB	0e3H
	DB	018H
	DB	0c4H
	DB	020H
	DB	0e3H
	DB	018H
	DB	0e4H
	DB	020H
	DB	0c3H
	DB	018H
	DB	0e4H
	DB	020H
	DB	0e3H
	DB	018H
	DB	0c3H
	DB	018H
	DB	0e4H
	DB	020H
	DB	0e3H
	DB	018H
	DB	0c3H
	DB	018H
	DB	0e4H
	DB	020H
	DB	0e3H
	DB	018H
	DB	0c4H
	DB	020H
	DB	0e3H
	DB	018H
	DB	0e3H
	DB	018H
	DB	0c4H
	DB	020H
	DB	0e3H
	DB	018H
	DB	0e3H
	DB	018H
	DB	0c4H
	DB	020H
	DB	0e3H
	DB	018H
	DB	0e4H
	DB	018H
	DB	0c3H
	DB	018H
	DB	0c3H
	DB	018H
	DB	0c9H
	DB	019H
	DB	03cH
	DB	05H
	DB	01cH
	DB	05H
	DB	03cH
	DB	05H
	DB	08eH
	DB	012H
	DB	0a2H
	DB	018H
	DB	0a3H
	DB	018H
	DB	0c3H
	DB	018H
	DB	0c3H
	DB	018H
	DB	0c3H
	DB	018H
	DB	0e3H
	DB	018H
	DB	0c3H
	DB	018H
	DB	0c3H
	DB	018H
	DB	0a8H
	DB	011H
	DB	01bH
	DB	05H
	DB	01cH
	DB	05H
	DB	03cH
	DB	05H
	DB	01cH
	DB	05H
	DB	04cH
	DB	012H
	DB	0a3H
	DB	018H
	DB	0c3H
	DB	018H
	DB	0c3H
	DB	018H
	DB	01bH
	DB	05H
	DB	01cH
	DB	05H
	DB	0fbH
	DB	04H
	DB	0c3H
	DB	018H
	DB	0c3H
	DB	018H
	DB	0e3H
	DB	018H
	DB	0e3H
	DB	018H
	DB	0c4H
	DB	020H
	DB	0c3H
	DB	018H
	DB	0e3H
	DB	018H
	DB	0c4H
	DB	020H
	DB	0c3H
	DB	018H
	DB	0e3H
	DB	018H
	DB	0c4H
	DB	018H
	DB	0c3H
	DB	020H
	DB	0e3H
	DB	018H
	DB	0c4H
	DB	018H
	DB	0e3H
	DB	020H
	DB	0c3H
	DB	018H
	DB	0e3H
	DB	018H
	DB	0e3H
	DB	020H
	DB	0c4H
	DB	018H
	DB	0e3H
	DB	018H
	DB	0c3H
	DB	020H
	DB	0e4H
	DB	018H
	DB	0c3H
	DB	018H
	DB	0e3H
	DB	018H
	DB	0c3H
	DB	018H
	DB	0e4H
	DB	018H
	DB	0c3H
	DB	020H
	DB	0e3H
	DB	018H
	DB	0c4H
	DB	018H
	DB	0e3H
	DB	020H
	DB	0c3H
	DB	018H
	DB	0e3H
	DB	020H
	DB	0c4H
	DB	018H
	DB	0c3H
	DB	018H
	DB	0e3H
	DB	020H
	DB	0c4H
	DB	018H
	DB	0e3H
	DB	018H
	DB	0e3H
	DB	020H
	DB	0c3H
	DB	018H
	DB	0c3H
	DB	018H
	DB	0e3H
	DB	018H
	DB	0c3H
	DB	018H
	DB	0c3H
	DB	018H
	DB	0c3H
	DB	018H
	DB	0c3H
	DB	018H
	DB	0c3H
	DB	018H
	DB	0c3H
	DB	018H
	DB	0c3H
	DB	018H
	DB	0c3H
	DB	018H
	DB	0c3H
	DB	018H
	DB	0c3H
	DB	018H
	DB	0c3H
	DB	018H
	DB	0c3H
	DB	018H
	DB	0c3H
	DB	018H
	DB	0c3H
	DB	018H
	DB	0c3H
	DB	018H
	DB	0c3H
	DB	018H
	DB	0c3H
	DB	018H
	DB	0c3H
	DB	018H
	DB	0c3H
	DB	018H
	DB	0c3H
	DB	018H
	DB	0c3H
	DB	018H
	DB	0c3H
	DB	018H
	DB	0c3H
	DB	018H
	DB	0c3H
	DB	018H
	DB	0c3H
	DB	018H
	DB	0c3H
	DB	018H
	DB	0c3H
	DB	018H
	DB	0c3H
	DB	018H
	DB	0c3H
	DB	018H
	DB	0c3H
	DB	018H
	DB	0c3H
	DB	018H
	DB	0e3H
	DB	018H
	DB	0c3H
	DB	020H
	DB	0c3H
	DB	018H
	DB	010H
	DB	0bH
	DB	01bH
	DB	05H
	DB	01cH
	DB	05H
	DB	0daH
	DB	04H
	DB	0c3H
	DB	010H
	DB	0a3H
	DB	018H
	DB	0c3H
	DB	018H
	DB	0c3H
	DB	018H
	DB	0c3H
	DB	018H
	DB	0e3H
	DB	018H
	DB	0e3H
	DB	018H
	DB	066H
	DB	019H
	DB	010H
	DB	013H
	DB	0b9H
	DB	04H
	DB	01cH
	DB	05H
	DB	01bH
	DB	05H
	DB	01cH
	DB	05H
	DB	036H
	DB	0cH
	DB	0a3H
	DB	018H
	DB	0c3H
	DB	018H
	DB	0c3H
	DB	018H
	DB	0c3H
	DB	018H
	DB	010H
	DB	0bH
	DB	0fbH
	DB	04H
	DB	031H
	DB	013H
	DB	0c3H
	DB	018H
	DB	0c3H
	DB	018H
	DB	0c3H
	DB	018H
	DB	0c3H
	DB	018H
	DB	0e3H
	DB	018H
	DB	0c3H
	DB	018H
	DB	0c3H
	DB	018H
	DB	0e3H
	DB	018H
	DB	0c3H
	DB	018H
	DB	0c3H
	DB	018H
	DB	0e3H
	DB	018H
	DB	0c3H
	DB	018H
	DB	0c3H
	DB	018H
	DB	0e3H
	DB	018H
	DB	0c3H
	DB	018H
	DB	0c3H
	DB	018H
	DB	0c3H
	DB	018H
	DB	0c3H
	DB	018H
	DB	0c3H
	DB	018H
	DB	0c3H
	DB	018H
	DB	0e3H
	DB	018H
	DB	0c3H
	DB	018H
	DB	0c3H
	DB	018H
	DB	0c3H
	DB	018H
	DB	0e3H
	DB	018H
	DB	0c3H
	DB	018H
	DB	0c3H
	DB	018H
	DB	0c3H
	DB	018H
	DB	0e3H
	DB	018H
	DB	0c3H
	DB	018H
	DB	0c3H
	DB	018H
	DB	0e3H
	DB	018H
	DB	0c3H
	DB	018H
	DB	0c3H
	DB	018H
	DB	0e3H
	DB	020H
	DB	0c3H
	DB	018H
	DB	0c3H
	DB	018H
	DB	0c3H
	DB	018H
	DB	0c3H
	DB	018H
	DB	0e3H
	DB	018H
	DB	0e4H
	DB	020H
	DB	0e3H
	DB	018H
	DB	0e4H
	DB	020H
	DB	0e3H
	DB	018H
	DB	0e4H
	DB	020H
	DB	0e3H
	DB	018H
	DB	0e3H
	DB	018H
	DB	0e4H
	DB	020H
	DB	0e3H
	DB	018H
	DB	0e4H
	DB	020H
	DB	0e4H
	DB	020H
	DB	0e3H
	DB	018H
	DB	0e3H
	DB	018H
	DB	0e4H
	DB	020H
	DB	0e3H
	DB	018H
	DB	0e3H
	DB	018H
	DB	0e4H
	DB	020H
	DB	0e3H
	DB	018H
	DB	0e4H
	DB	020H
	DB	0e3H
	DB	018H
	DB	0e3H
	DB	018H
	DB	0e4H
	DB	020H
	DB	0e3H
	DB	018H
	DB	0e3H
	DB	018H
	DB	0e4H
	DB	020H
	DB	0e3H
	DB	018H
	DB	0e4H
	DB	020H
	DB	0e3H
	DB	018H
	DB	0e3H
	DB	018H
	DB	0e4H
	DB	020H
	DB	0e3H
	DB	018H
	DB	0c3H
	DB	018H
	DB	0e4H
	DB	020H
	DB	0c3H
	DB	018H
	DB	0c3H
	DB	018H
	DB	016H
	DB	0cH
	DB	01bH
	DB	05H
	DB	01bH
	DB	0dH
	DB	093H
	DB	0bH
	DB	0a2H
	DB	010H
	DB	0c3H
	DB	018H
	DB	0c3H
	DB	018H
	DB	0c3H
	DB	018H
	DB	0c3H
	DB	018H
	DB	0c3H
	DB	018H
	DB	0a8H
	DB	011H
	DB	0daH
	DB	04H
	DB	01cH
	DB	05H
	DB	01bH
	DB	05H
	DB	01bH
	DB	0dH
	DB	01bH
	DB	05H
	DB	01bH
	DB	05H
	DB	0a9H
	DB	011H
	DB	0a2H
	DB	010H
	DB	0a3H
	DB	018H
	DB	0c3H
	DB	018H
	DB	0c3H
	DB	018H
	DB	0c3H
	DB	018H
	DB	0a3H
	DB	018H
	DB	0c3H
	DB	018H
	DB	0c3H
	DB	018H
	DB	0c3H
	DB	018H
	DB	0e4H
	DB	020H
	DB	0e3H
	DB	018H
	DB	0e3H
	DB	018H
	DB	0c4H
	DB	020H
	DB	0e3H
	DB	018H
	DB	0e3H
	DB	018H
	DB	0e4H
	DB	020H
	DB	0e3H
	DB	020H
	DB	0e3H
	DB	018H
	DB	0e4H
	DB	018H
	DB	0c3H
	DB	020H
	DB	0e3H
	DB	018H
	DB	0e4H
	DB	018H
	DB	0e4H
	DB	020H
	DB	0e3H
	DB	018H
	DB	0e4H
	DB	020H
	DB	0e3H
	DB	018H
	DB	0c3H
	DB	020H
	DB	0e4H
	DB	018H
	DB	0e3H
	DB	020H
	DB	0e4H
	DB	020H
	DB	0c4H
	DB	018H
	DB	0e3H
	DB	020H
	DB	0e3H
	DB	018H
	DB	0c4H
	DB	020H
	DB	0e3H
	DB	018H
	DB	0e3H
	DB	020H
	DB	0c4H
	DB	018H
	DB	0e4H
	DB	018H
	DB	0e3H
	DB	020H
	DB	0c3H
	DB	018H
	DB	0e4H
	DB	018H
	DB	0e3H
	DB	018H
	DB	0c3H
	DB	020H
	DB	0e4H
	DB	018H
	DB	0c3H
	DB	018H
	DB	0e3H
	DB	018H
	DB	0c3H
	DB	018H
	DB	0c3H
	DB	018H
	DB	0c4H
	DB	020H
	DB	0e3H
	DB	018H
	DB	0c3H
	DB	018H
	DB	0c3H
	DB	018H
	DB	0e4H
	DB	020H
	DB	0c3H
	DB	018H
	DB	0c3H
	DB	018H
	DB	0c3H
	DB	018H
	DB	0e3H
	DB	018H
	DB	0c3H
	DB	018H
	DB	0c3H
	DB	018H
	DB	0e4H
	DB	020H
	DB	0c3H
	DB	018H
	DB	0c3H
	DB	018H
	DB	0e4H
	DB	020H
	DB	0c3H
	DB	018H
	DB	0c3H
	DB	018H
	DB	0c3H
	DB	018H
	DB	0e4H
	DB	020H
	DB	0c3H
	DB	018H
	DB	0c3H
	DB	018H
	DB	0e4H
	DB	020H
	DB	0c3H
	DB	018H
	DB	0c3H
	DB	018H
	DB	0e3H
	DB	018H
	DB	0c4H
	DB	020H
	DB	0c3H
	DB	018H
	DB	0e3H
	DB	018H
	DB	0c4H
	DB	020H
	DB	0c3H
	DB	018H
	DB	0e3H
	DB	018H
	DB	0c3H
	DB	018H
	DB	0c3H
	DB	018H
	DB	0c3H
	DB	018H
	DB	099H
	DB	0cH
	DB	0fbH
	DB	04H
	DB	01bH
	DB	05H
	DB	08dH
	DB	012H
	DB	0a3H
	DB	018H
	DB	0c3H
	DB	018H
	DB	0c3H
	DB	018H
	DB	0c3H
	DB	018H
	DB	0c3H
	DB	018H
	DB	0c3H
	DB	018H
	DB	0f5H
	DB	0bH
	DB	01bH
	DB	05H
	DB	0aeH
	DB	012H
	DB	0e4H
	DB	010H
	DB	0cfH
	DB	0aH
	DB	0fbH
	DB	0cH
	DB	037H
	DB	0cH
	DB	0a2H
	DB	010H
	DB	0a3H
	DB	018H
	DB	0c3H
	DB	018H
	DB	0c3H
	DB	018H
	DB	0c3H
	DB	018H
	DB	0c3H
	DB	018H
	DB	0a3H
	DB	018H
	DB	0c3H
	DB	018H
	DB	0c3H
	DB	018H
	DB	0c3H
	DB	018H
	DB	0c3H
	DB	018H
	DB	0e3H
	DB	020H
	DB	0c4H
	DB	018H
	DB	0c3H
	DB	018H
	DB	0e3H
	DB	020H
	DB	0c4H
	DB	018H
	DB	0c3H
	DB	018H
	DB	0c3H
	DB	018H
	DB	0c4H
	DB	018H
	DB	0e3H
	DB	020H
	DB	0c3H
	DB	018H
	DB	0c3H
	DB	018H
	DB	0c3H
	DB	020H
	DB	0c3H
	DB	018H
	DB	0e3H
	DB	018H
	DB	0c3H
	DB	018H
	DB	0c4H
	DB	018H
	DB	0e3H
	DB	018H
	DB	0c3H
	DB	018H
	DB	0c3H
	DB	018H
	DB	0e3H
	DB	018H
	DB	0c3H
	DB	018H
	DB	0c4H
	DB	018H
	DB	0e3H
	DB	020H
	DB	0e3H
	DB	018H
	DB	0c4H
	DB	018H
	DB	0c3H
	DB	018H
	DB	0e3H
	DB	020H
	DB	0c3H
	DB	018H
	DB	0c3H
	DB	018H
	DB	0e4H
	DB	020H
	DB	0c3H
	DB	018H
	DB	0c3H
	DB	018H
	DB	0e4H
	DB	018H
	DB	0e3H
	DB	020H
	DB	0c3H
	DB	018H
	DB	0c3H
	DB	018H
	DB	0c3H
	DB	018H
	DB	0c3H
	DB	018H
	DB	0c3H
	DB	018H
	DB	0c3H
	DB	018H
	DB	0c3H
	DB	018H
	DB	0c3H
	DB	018H
	DB	0c3H
	DB	018H
	DB	0c3H
	DB	018H
	DB	0c3H
	DB	018H
	DB	0c3H
	DB	018H
	DB	0c3H
	DB	018H
	DB	0c3H
	DB	018H
	DB	0c3H
	DB	018H
	DB	0c3H
	DB	018H
	DB	0c3H
	DB	018H
	DB	0c3H
	DB	018H
	DB	0c3H
	DB	018H
	DB	0c3H
	DB	018H
	DB	0c3H
	DB	018H
	DB	0c3H
	DB	018H
	DB	0c3H
	DB	018H
	DB	0c3H
	DB	018H
	DB	0c3H
	DB	018H
	DB	0c3H
	DB	018H
	DB	0c3H
	DB	018H
	DB	0c3H
	DB	018H
	DB	0c3H
	DB	018H
	DB	0c3H
	DB	018H
	DB	0c3H
	DB	018H
	DB	0c3H
	DB	018H
	DB	0c3H
	DB	018H
	DB	0c3H
	DB	018H
	DB	0c3H
	DB	018H
	DB	0c3H
	DB	018H
	DB	0c3H
	DB	018H
	DB	0c3H
	DB	018H
	DB	0fbH
	DB	04H
	DB	0fbH
	DB	04H
	DB	0fbH
	DB	04H
	DB	0eaH
	DB	011H
	DB	0a3H
	DB	018H
	DB	0c3H
	DB	018H
	DB	0c3H
	DB	018H
	DB	0c3H
	DB	018H
	DB	0c3H
	DB	018H
	DB	0c3H
	DB	018H
	DB	0daH
	DB	0cH
	DB	0fbH
	DB	04H
	DB	0c3H
	DB	018H
	DB	082H
	DB	010H
	DB	0e4H
	DB	010H
	DB	0fbH
	DB	04H
	DB	099H
	DB	0cH
	DB	0a2H
	DB	010H
	DB	0a3H
	DB	018H
	DB	0c3H
	DB	018H
	DB	0c3H
	DB	018H
	DB	0c3H
	DB	018H
	DB	0c3H
	DB	018H
	DB	0c3H
	DB	018H
	DB	0c3H
	DB	018H
	DB	0c3H
	DB	018H
	DB	0c3H
	DB	018H
	DB	0c3H
	DB	018H
	DB	0c3H
	DB	018H
	DB	0c3H
	DB	018H
	DB	0c3H
	DB	018H
	DB	0c3H
	DB	018H
	DB	0c3H
	DB	018H
	DB	0c3H
	DB	018H
	DB	0c3H
	DB	018H
	DB	0c3H
	DB	018H
	DB	0c3H
	DB	018H
	DB	0c3H
	DB	018H
	DB	0c3H
	DB	018H
	DB	0c3H
	DB	018H
	DB	0c3H
	DB	018H
	DB	0c3H
	DB	018H
	DB	0c3H
	DB	018H
	DB	0c3H
	DB	018H
	DB	0c3H
	DB	018H
	DB	0c3H
	DB	018H
	DB	0c3H
	DB	018H
	DB	0c3H
	DB	018H
	DB	0c3H
	DB	018H
	DB	0c3H
	DB	018H
	DB	0c3H
	DB	018H
	DB	0c3H
	DB	018H
	DB	0c3H
	DB	018H
	DB	0c3H
	DB	018H
	DB	0c3H
	DB	018H
	DB	0c3H
	DB	018H
	DB	0c3H
	DB	018H
	DB	0c3H
	DB	018H
	DB	0c3H
	DB	018H
	DB	0c3H
	DB	018H
	DB	0c3H
	DB	018H
	DB	0c3H
	DB	018H
	DB	0c3H
	DB	018H
	DB	0c3H
	DB	018H
	DB	0c3H
	DB	018H
	DB	0e3H
	DB	018H
	DB	0c3H
	DB	018H
	DB	0c3H
	DB	018H
	DB	0e3H
	DB	018H
	DB	0c3H
	DB	018H
	DB	0c3H
	DB	018H
	DB	0e3H
	DB	018H
	DB	0c4H
	DB	020H
	DB	0c3H
	DB	018H
	DB	0e3H
	DB	018H
	DB	0c4H
	DB	020H
	DB	0c3H
	DB	018H
	DB	0e3H
	DB	018H
	DB	0c3H
	DB	018H
	DB	0c3H
	DB	018H
	DB	0c3H
	DB	018H
	DB	0e3H
	DB	018H
	DB	0c3H
	DB	018H
	DB	0c3H
	DB	018H
	DB	0e3H
	DB	018H
	DB	0c3H
	DB	018H
	DB	0c3H
	DB	018H
	DB	0c3H
	DB	018H
	DB	0e3H
	DB	018H
	DB	0c3H
	DB	018H
	DB	0c3H
	DB	018H
	DB	0e3H
	DB	018H
	DB	0c3H
	DB	018H
	DB	0c3H
	DB	018H
	DB	0e3H
	DB	018H
	DB	0c3H
	DB	018H
	DB	0c3H
	DB	018H
	DB	0c3H
	DB	018H
	DB	0c3H
	DB	018H
	DB	0a3H
	DB	018H
	DB	0baH
	DB	04H
	DB	0fbH
	DB	04H
	DB	0fbH
	DB	04H
	DB	0eaH
	DB	011H
	DB	0c3H
	DB	018H
	DB	0c3H
	DB	018H
	DB	0c3H
	DB	018H
	DB	0c3H
	DB	018H
	DB	0c3H
	DB	018H
	DB	0c3H
	DB	018H
	DB	057H
	DB	0cH
	DB	0fbH
	DB	04H
	DB	0aeH
	DB	0aH
	DB	0e4H
	DB	010H
	DB	0cfH
	DB	0aH
	DB	0fbH
	DB	04H
	DB	016H
	DB	0cH
	DB	0a3H
	DB	018H
	DB	0c3H
	DB	018H
	DB	0c3H
	DB	018H
	DB	0c3H
	DB	018H
	DB	0c3H
	DB	018H
	DB	0c3H
	DB	018H
	DB	0ceH
	DB	0aH
	DB	0daH
	DB	04H
	DB	010H
	DB	013H
	DB	0c3H
	DB	018H
	DB	0c3H
	DB	018H
	DB	0c3H
	DB	018H
	DB	0e3H
	DB	018H
	DB	0c3H
	DB	018H
	DB	0c3H
	DB	018H
	DB	0e3H
	DB	018H
	DB	0c3H
	DB	018H
	DB	0e3H
	DB	018H
	DB	0c3H
	DB	018H
	DB	0c3H
	DB	018H
	DB	0e4H
	DB	018H
	DB	0e3H
	DB	018H
	DB	0c3H
	DB	018H
	DB	0e4H
	DB	018H
	DB	0c3H
	DB	020H
	DB	0c3H
	DB	018H
	DB	0e3H
	DB	018H
	DB	0c3H
	DB	020H
	DB	0c4H
	DB	018H
	DB	0e3H
	DB	018H
	DB	0c3H
	DB	020H
	DB	0e3H
	DB	018H
	DB	0c3H
	DB	018H
	DB	0c3H
	DB	018H
	DB	0c3H
	DB	018H
	DB	0e3H
	DB	018H
	DB	0c3H
	DB	018H
	DB	0c3H
	DB	018H
	DB	0e3H
	DB	018H
	DB	0c3H
	DB	018H
	DB	0e3H
	DB	018H
	DB	0c3H
	DB	018H
	DB	0c3H
	DB	018H
	DB	0e3H
	DB	018H
	DB	0c3H
	DB	018H
	DB	0c3H
	DB	018H
	DB	0c3H
	DB	018H
	DB	0c3H
	DB	018H
	DB	0c3H
	DB	018H
	DB	0e4H
	DB	020H
	DB	0c3H
	DB	018H
	DB	0c3H
	DB	018H
	DB	0c4H
	DB	020H
	DB	0c3H
	DB	018H
	DB	0e3H
	DB	018H
	DB	0c3H
	DB	018H
	DB	0c3H
	DB	018H
	DB	0e3H
	DB	018H
	DB	0c3H
	DB	018H
	DB	0c3H
	DB	018H
	DB	0c3H
	DB	018H
	DB	0e4H
	DB	020H
	DB	0c3H
	DB	018H
	DB	0c3H
	DB	018H
	DB	0e4H
	DB	020H
	DB	0c3H
	DB	018H
	DB	0c3H
	DB	018H
	DB	0c4H
	DB	020H
	DB	0e3H
	DB	018H
	DB	0c3H
	DB	018H
	DB	0c4H
	DB	020H
	DB	0c3H
	DB	018H
	DB	0c3H
	DB	018H
	DB	0c4H
	DB	020H
	DB	0c3H
	DB	018H
	DB	0c3H
	DB	018H
	DB	0c4H
	DB	020H
	DB	0e3H
	DB	018H
	DB	0c3H
	DB	018H
	DB	0c3H
	DB	018H
	DB	0c3H
	DB	018H
	DB	0c3H
	DB	018H
	DB	0a3H
	DB	018H
	DB	057H
	DB	0cH
	DB	0faH
	DB	04H
	DB	0daH
	DB	04H
	DB	06cH
	DB	012H
	DB	0a3H
	DB	018H
	DB	0c3H
	DB	018H
	DB	0c3H
	DB	018H
	DB	0c3H
	DB	018H
	DB	0c3H
	DB	018H
	DB	0c3H
	DB	018H
	DB	02bH
	DB	0aH
	DB	0daH
	DB	04H
	DB	0fbH
	DB	04H
	DB	0daH
	DB	0cH
	DB	0faH
	DB	04H
	DB	0daH
	DB	04H
	DB	0eaH
	DB	011H
	DB	0a2H
	DB	018H
	DB	0c3H
	DB	018H
	DB	0c3H
	DB	018H
	DB	0c3H
	DB	018H
	DB	0c3H
	DB	018H
	DB	0a3H
	DB	018H
	DB	0b9H
	DB	04H
	DB	0daH
	DB	04H
	DB	0daH
	DB	04H
	DB	0c3H
	DB	018H
	DB	0c3H
	DB	018H
	DB	0c3H
	DB	018H
	DB	0c3H
	DB	018H
	DB	0e3H
	DB	018H
	DB	0c4H
	DB	020H
	DB	0c3H
	DB	018H
	DB	0c3H
	DB	018H
	DB	0c4H
	DB	020H
	DB	0e3H
	DB	018H
	DB	0c3H
	DB	018H
	DB	0c3H
	DB	020H
	DB	0c3H
	DB	018H
	DB	0c3H
	DB	018H
	DB	0c3H
	DB	018H
	DB	0e3H
	DB	018H
	DB	0c3H
	DB	018H
	DB	0c3H
	DB	018H
	DB	0e3H
	DB	018H
	DB	0c3H
	DB	018H
	DB	0c3H
	DB	018H
	DB	0c3H
	DB	018H
	DB	0c4H
	DB	018H
	DB	0e3H
	DB	018H
	DB	0c3H
	DB	018H
	DB	0c4H
	DB	020H
	DB	0e3H
	DB	018H
	DB	0c3H
	DB	018H
	DB	0c4H
	DB	020H
	DB	0c3H
	DB	018H
	DB	0e3H
	DB	018H
	DB	0c4H
	DB	020H
	DB	0c3H
	DB	018H
	DB	0e3H
	DB	018H
	DB	0c3H
	DB	020H
	DB	0c3H
	DB	018H
	DB	0c3H
	DB	018H
	DB	0c3H
	DB	018H
	DB	0c3H
	DB	018H
	DB	0c3H
	DB	018H
	DB	0c3H
	DB	018H
	DB	0c3H
	DB	018H
	DB	0c3H
	DB	018H
	DB	0c3H
	DB	018H
	DB	0c3H
	DB	018H
	DB	0c3H
	DB	018H
	DB	0c3H
	DB	018H
	DB	0c3H
	DB	018H
	DB	0c3H
	DB	018H
	DB	0c3H
	DB	018H
	DB	0c3H
	DB	018H
	DB	0c3H
	DB	018H
	DB	0c3H
	DB	018H
	DB	0c3H
	DB	018H
	DB	0c3H
	DB	018H
	DB	0c3H
	DB	018H
	DB	0c3H
	DB	018H
	DB	0c3H
	DB	018H
	DB	0c3H
	DB	018H
	DB	0c3H
	DB	018H
	DB	0c3H
	DB	018H
	DB	0c3H
	DB	018H
	DB	0c3H
	DB	018H
	DB	0c3H
	DB	018H
	DB	0c3H
	DB	018H
	DB	0c3H
	DB	018H
	DB	0c3H
	DB	018H
	DB	0c3H
	DB	018H
	DB	0c3H
	DB	018H
	DB	0c3H
	DB	018H
	DB	0c3H
	DB	018H
	DB	0c3H
	DB	018H
	DB	0c3H
	DB	018H
	DB	0a2H
	DB	010H
	DB	072H
	DB	0bH
	DB	0daH
	DB	0cH
	DB	0daH
	DB	04H
	DB	031H
	DB	0bH
	DB	0a2H
	DB	010H
	DB	0c3H
	DB	018H
	DB	0c3H
	DB	018H
	DB	0c3H
	DB	018H
	DB	0c3H
	DB	018H
	DB	0a3H
	DB	010H
	DB	0a2H
	DB	018H
	DB	02bH
	DB	012H
	DB	036H
	DB	0cH
	DB	0baH
	DB	04H
	DB	016H
	DB	0cH
	DB	0eaH
	DB	011H
	DB	0a2H
	DB	010H
	DB	0a3H
	DB	010H
	DB	0c3H
	DB	018H
	DB	0c3H
	DB	018H
	DB	0c3H
	DB	018H
	DB	0c3H
	DB	018H
	DB	0a3H
	DB	018H
	DB	0efH
	DB	0aH
	DB	0daH
	DB	04H
	DB	030H
	DB	0bH
	DB	0a3H
	DB	018H
	DB	0c3H
	DB	018H
	DB	0c3H
	DB	018H
	DB	0c3H
	DB	018H
	DB	0c3H
	DB	018H
	DB	0c3H
	DB	018H
	DB	0c3H
	DB	018H
	DB	0c3H
	DB	018H
	DB	0c3H
	DB	018H
	DB	0c3H
	DB	018H
	DB	0c3H
	DB	018H
	DB	0c3H
	DB	018H
	DB	0c3H
	DB	018H
	DB	0c3H
	DB	018H
	DB	0c3H
	DB	018H
	DB	0c3H
	DB	018H
	DB	0c3H
	DB	018H
	DB	0c3H
	DB	018H
	DB	0c3H
	DB	018H
	DB	0c3H
	DB	018H
	DB	0c3H
	DB	018H
	DB	0c3H
	DB	018H
	DB	0c3H
	DB	018H
	DB	0c3H
	DB	018H
	DB	0c3H
	DB	018H
	DB	0c3H
	DB	018H
	DB	0c3H
	DB	018H
	DB	0c3H
	DB	018H
	DB	0c3H
	DB	018H
	DB	0c3H
	DB	018H
	DB	0c3H
	DB	018H
	DB	0c3H
	DB	018H
	DB	0c3H
	DB	018H
	DB	0c3H
	DB	018H
	DB	0c3H
	DB	018H
	DB	0c3H
	DB	018H
	DB	0c3H
	DB	018H
	DB	0c3H
	DB	018H
	DB	0c3H
	DB	018H
	DB	0c3H
	DB	018H
	DB	0c3H
	DB	018H
	DB	0c3H
	DB	018H
	DB	0c3H
	DB	018H
	DB	0c3H
	DB	018H
	DB	0c3H
	DB	018H
	DB	0c3H
	DB	018H
	DB	0c3H
	DB	018H
	DB	0c3H
	DB	018H
	DB	0c3H
	DB	018H
	DB	0c3H
	DB	018H
	DB	0c3H
	DB	018H
	DB	0c3H
	DB	018H
	DB	0c3H
	DB	018H
	DB	0c3H
	DB	018H
	DB	0c3H
	DB	018H
	DB	0c3H
	DB	018H
	DB	0c3H
	DB	018H
	DB	0c3H
	DB	018H
	DB	0c3H
	DB	018H
	DB	0c3H
	DB	018H
	DB	0c3H
	DB	018H
	DB	0c3H
	DB	018H
	DB	0c3H
	DB	018H
	DB	0c3H
	DB	018H
	DB	0c3H
	DB	018H
	DB	0c3H
	DB	018H
	DB	0c3H
	DB	018H
	DB	0c3H
	DB	018H
	DB	0c3H
	DB	018H
	DB	0c3H
	DB	018H
	DB	0c3H
	DB	018H
	DB	0c3H
	DB	018H
	DB	0c3H
	DB	018H
	DB	0a3H
	DB	018H
	DB	04cH
	DB	0aH
	DB	0daH
	DB	04H
	DB	0daH
	DB	0cH
	DB	078H
	DB	04H
	DB	0c3H
	DB	010H
	DB	0c3H
	DB	018H
	DB	0c3H
	DB	018H
	DB	0c3H
	DB	018H
	DB	0c3H
	DB	018H
	DB	0a3H
	DB	018H
	DB	0a2H
	DB	010H
	DB	0a3H
	DB	010H
	DB	082H
	DB	010H
	DB	0a2H
	DB	010H
	DB	082H
	DB	010H
	DB	0a2H
	DB	018H
	DB	0a3H
	DB	018H
	DB	0c3H
	DB	018H
	DB	0c3H
	DB	018H
	DB	0c3H
	DB	018H
	DB	0c3H
	DB	018H
	DB	0c3H
	DB	018H
	DB	0c3H
	DB	018H
	DB	0a2H
	DB	018H
	DB	0a3H
	DB	018H
	DB	0a3H
	DB	018H
	DB	0c3H
	DB	018H
	DB	0c3H
	DB	018H
	DB	0c3H
	DB	018H
	DB	0c3H
	DB	018H
	DB	0c3H
	DB	018H
	DB	0c3H
	DB	018H
	DB	0c3H
	DB	018H
	DB	0c3H
	DB	018H
	DB	0c3H
	DB	018H
	DB	0c3H
	DB	018H
	DB	0c3H
	DB	018H
	DB	0c3H
	DB	018H
	DB	0c3H
	DB	018H
	DB	0c3H
	DB	018H
	DB	0c3H
	DB	018H
	DB	0c3H
	DB	018H
	DB	0c3H
	DB	018H
	DB	0c3H
	DB	018H
	DB	0c3H
	DB	018H
	DB	0c3H
	DB	018H
	DB	0c3H
	DB	018H
	DB	0c3H
	DB	018H
	DB	0c3H
	DB	018H
	DB	0c3H
	DB	018H
	DB	0c3H
	DB	018H
	DB	0c3H
	DB	018H
	DB	0c3H
	DB	018H
	DB	0c3H
	DB	018H
	DB	0c3H
	DB	018H
	DB	0c3H
	DB	018H
	DB	0c3H
	DB	018H
	DB	0c3H
	DB	018H
	DB	0c3H
	DB	018H
	DB	0c3H
	DB	018H
	DB	0c3H
	DB	018H
	DB	0c3H
	DB	018H
	DB	0c3H
	DB	018H
	DB	0c3H
	DB	018H
	DB	0c3H
	DB	018H
	DB	0c3H
	DB	018H
	DB	0c3H
	DB	018H
	DB	0c3H
	DB	018H
	DB	0c3H
	DB	018H
	DB	0c3H
	DB	018H
	DB	0c3H
	DB	018H
	DB	0c3H
	DB	018H
	DB	0c3H
	DB	018H
	DB	0c3H
	DB	018H
	DB	0c3H
	DB	018H
	DB	0c3H
	DB	018H
	DB	0c3H
	DB	018H
	DB	0c3H
	DB	018H
	DB	0c3H
	DB	018H
	DB	0c3H
	DB	018H
	DB	0c3H
	DB	018H
	DB	0c3H
	DB	018H
	DB	0c3H
	DB	018H
	DB	0c3H
	DB	018H
	DB	0c3H
	DB	018H
	DB	0c3H
	DB	018H
	DB	0c3H
	DB	018H
	DB	0c3H
	DB	018H
	DB	0c3H
	DB	018H
	DB	0c3H
	DB	018H
	DB	0c3H
	DB	018H
	DB	0c3H
	DB	018H
	DB	0c3H
	DB	018H
	DB	0c3H
	DB	018H
	DB	0c3H
	DB	018H
	DB	0c3H
	DB	018H
	DB	0c3H
	DB	018H
	DB	0c3H
	DB	018H
	DB	0a3H
	DB	018H
	DB	0a2H
	DB	018H
	DB	0c4H
	DB	010H
	DB	099H
	DB	04H
	DB	0daH
	DB	0cH
	DB	0daH
	DB	04H
	DB	06dH
	DB	012H
	DB	0a3H
	DB	018H
	DB	0c3H
	DB	018H
	DB	0c3H
	DB	018H
	DB	0c3H
	DB	018H
	DB	0a3H
	DB	018H
	DB	0a3H
	DB	018H
	DB	0a2H
	DB	010H
	DB	0a2H
	DB	018H
	DB	0a3H
	DB	018H
	DB	0a2H
	DB	010H
	DB	0a3H
	DB	010H
	DB	0a3H
	DB	018H
	DB	0a2H
	DB	018H
	DB	0c3H
	DB	018H
	DB	0c3H
	DB	018H
	DB	0c3H
	DB	018H
	DB	0c3H
	DB	010H
	DB	0a2H
	DB	018H
	DB	0a3H
	DB	010H
	DB	0a2H
	DB	010H
	DB	0a3H
	DB	018H
	DB	0a3H
	DB	018H
	DB	0c3H
	DB	018H
	DB	0c3H
	DB	018H
	DB	0c3H
	DB	018H
	DB	0c3H
	DB	018H
	DB	0c3H
	DB	018H
	DB	0c3H
	DB	018H
	DB	0c3H
	DB	018H
	DB	0c3H
	DB	018H
	DB	0c3H
	DB	018H
	DB	0c3H
	DB	018H
	DB	0c3H
	DB	018H
	DB	0c3H
	DB	018H
	DB	0c3H
	DB	018H
	DB	0c3H
	DB	018H
	DB	0c3H
	DB	018H
	DB	0c3H
	DB	018H
	DB	0c3H
	DB	018H
	DB	0c3H
	DB	018H
	DB	0c3H
	DB	018H
	DB	0c3H
	DB	018H
	DB	0c3H
	DB	018H
	DB	0c3H
	DB	018H
	DB	0c3H
	DB	018H
	DB	0c3H
	DB	018H
	DB	0c3H
	DB	018H
	DB	0c3H
	DB	018H
	DB	0c3H
	DB	018H
	DB	0c3H
	DB	018H
	DB	0c3H
	DB	018H
	DB	0c3H
	DB	018H
	DB	0c3H
	DB	018H
	DB	0c3H
	DB	018H
	DB	0c3H
	DB	018H
	DB	0c3H
	DB	018H
	DB	0c3H
	DB	018H
	DB	0c3H
	DB	018H
	DB	0c3H
	DB	018H
	DB	0c3H
	DB	018H
	DB	0c3H
	DB	018H
	DB	0c3H
	DB	018H
	DB	0c3H
	DB	018H
	DB	0c3H
	DB	018H
	DB	0c3H
	DB	018H
	DB	0c3H
	DB	018H
	DB	0c3H
	DB	018H
	DB	0c3H
	DB	018H
	DB	0c3H
	DB	018H
	DB	0c3H
	DB	018H
	DB	0c3H
	DB	018H
	DB	0c3H
	DB	018H
	DB	0c3H
	DB	018H
	DB	0c3H
	DB	018H
	DB	0c3H
	DB	018H
	DB	0c3H
	DB	018H
	DB	0c3H
	DB	018H
	DB	0c3H
	DB	018H
	DB	0c3H
	DB	018H
	DB	0c3H
	DB	018H
	DB	0c3H
	DB	018H
	DB	0c3H
	DB	018H
	DB	0c3H
	DB	018H
	DB	0c3H
	DB	018H
	DB	0c3H
	DB	018H
	DB	0c3H
	DB	018H
	DB	0c3H
	DB	018H
	DB	0c3H
	DB	018H
	DB	0c3H
	DB	018H
	DB	0c3H
	DB	018H
	DB	0c3H
	DB	018H
	DB	0c3H
	DB	018H
	DB	0c3H
	DB	018H
	DB	0a3H
	DB	018H
	DB	0a2H
	DB	010H
	DB	0a2H
	DB	010H
	DB	0aeH
	DB	0aH
	DB	0b9H
	DB	04H
	DB	0b9H
	DB	0cH
	DB	078H
	DB	04H
	DB	025H
	DB	011H
	DB	0a3H
	DB	018H
	DB	0c3H
	DB	018H
	DB	0c3H
	DB	018H
	DB	0a2H
	DB	010H
	DB	0c3H
	DB	018H
	DB	0a3H
	DB	018H
	DB	0a3H
	DB	010H
	DB	0a2H
	DB	018H
	DB	0a3H
	DB	018H
	DB	0a3H
	DB	010H
	DB	0c3H
	DB	018H
	DB	0a2H
	DB	018H
	DB	0c3H
	DB	010H
	DB	0c3H
	DB	018H
	DB	0a3H
	DB	018H
	DB	0a2H
	DB	018H
	DB	0c3H
	DB	018H
	DB	0a3H
	DB	010H
	DB	0a2H
	DB	018H
	DB	0a2H
	DB	010H
	DB	0c3H
	DB	018H
	DB	0c3H
	DB	018H
	DB	0c3H
	DB	018H
	DB	0c3H
	DB	018H
	DB	0c3H
	DB	018H
	DB	0c3H
	DB	018H
	DB	0c3H
	DB	018H
	DB	0c3H
	DB	018H
	DB	0c3H
	DB	018H
	DB	0c3H
	DB	018H
	DB	0c3H
	DB	018H
	DB	0c3H
	DB	018H
	DB	0c3H
	DB	018H
	DB	0c3H
	DB	018H
	DB	0c3H
	DB	018H
	DB	0c3H
	DB	018H
	DB	0c3H
	DB	018H
	DB	0c3H
	DB	018H
	DB	0c3H
	DB	018H
	DB	0c3H
	DB	018H
	DB	0c3H
	DB	018H
	DB	0c3H
	DB	018H
	DB	0c3H
	DB	018H
	DB	0c3H
	DB	018H
	DB	0c3H
	DB	018H
	DB	0c3H
	DB	018H
	DB	0c3H
	DB	018H
	DB	0c3H
	DB	018H
	DB	0c3H
	DB	018H
	DB	0c3H
	DB	018H
	DB	0c3H
	DB	018H
	DB	0c3H
	DB	018H
	DB	0c3H
	DB	018H
	DB	0c3H
	DB	018H
	DB	0c3H
	DB	018H
	DB	0c3H
	DB	018H
	DB	0c3H
	DB	018H
	DB	0c3H
	DB	018H
	DB	0a3H
	DB	018H
	DB	0c3H
	DB	018H
	DB	0a3H
	DB	018H
	DB	0c3H
	DB	018H
	DB	0c3H
	DB	018H
	DB	0a3H
	DB	018H
	DB	0c3H
	DB	018H
	DB	0c3H
	DB	018H
	DB	0a3H
	DB	018H
	DB	0c3H
	DB	018H
	DB	0a3H
	DB	018H
	DB	0c3H
	DB	018H
	DB	0a3H
	DB	018H
	DB	0c3H
	DB	018H
	DB	0a3H
	DB	018H
	DB	0c3H
	DB	018H
	DB	0a3H
	DB	018H
	DB	0c3H
	DB	018H
	DB	0c3H
	DB	018H
	DB	0a3H
	DB	018H
	DB	0c3H
	DB	018H
	DB	0c3H
	DB	018H
	DB	0a3H
	DB	018H
	DB	0c3H
	DB	018H
	DB	0c3H
	DB	018H
	DB	0c3H
	DB	018H
	DB	0c3H
	DB	018H
	DB	0c3H
	DB	018H
	DB	0c3H
	DB	018H
	DB	0a3H
	DB	018H
	DB	0c3H
	DB	018H
	DB	0c3H
	DB	018H
	DB	0a3H
	DB	018H
	DB	0c3H
	DB	018H
	DB	0c3H
	DB	018H
	DB	0a3H
	DB	018H
	DB	0a2H
	DB	010H
	DB	0c4H
	DB	010H
	DB	037H
	DB	0cH
	DB	0b9H
	DB	04H
	DB	0b9H
	DB	04H
	DB	0f5H
	DB	0bH
	DB	0e4H
	DB	010H
	DB	0a3H
	DB	018H
	DB	0c2H
	DB	010H
	DB	0c3H
	DB	018H
	DB	0a3H
	DB	018H
	DB	0c3H
	DB	018H
	DB	0a2H
	DB	010H
	DB	0a3H
	DB	018H
	DB	0a3H
	DB	018H
	DB	0c3H
	DB	018H
	DB	0c2H
	DB	018H
	DB	0a3H
	DB	018H
	DB	0a3H
	DB	010H
	DB	0c3H
	DB	018H
	DB	0ceH
	DB	0aH
	DB	078H
	DB	04H
	DB	0ceH
	DB	0aH
	DB	0a3H
	DB	018H
	DB	0a3H
	DB	018H
	DB	0c3H
	DB	018H
	DB	0c3H
	DB	018H
	DB	0a2H
	DB	010H
	DB	0a3H
	DB	018H
	DB	0c3H
	DB	018H
	DB	0a3H
	DB	018H
	DB	0c3H
	DB	018H
	DB	0c3H
	DB	018H
	DB	0a3H
	DB	018H
	DB	0c3H
	DB	018H
	DB	0c3H
	DB	018H
	DB	0a3H
	DB	018H
	DB	0c3H
	DB	018H
	DB	0c3H
	DB	018H
	DB	0a3H
	DB	018H
	DB	0c3H
	DB	018H
	DB	0c3H
	DB	018H
	DB	0a3H
	DB	018H
	DB	0c3H
	DB	018H
	DB	0a3H
	DB	018H
	DB	0c3H
	DB	018H
	DB	0c3H
	DB	018H
	DB	0a3H
	DB	018H
	DB	0c3H
	DB	018H
	DB	0c3H
	DB	018H
	DB	0a3H
	DB	018H
	DB	0c3H
	DB	018H
	DB	0c3H
	DB	018H
	DB	0a3H
	DB	018H
	DB	0c3H
	DB	018H
	DB	0c3H
	DB	018H
	DB	0a3H
	DB	018H
	DB	0c3H
	DB	018H
	DB	0a3H
	DB	018H
	DB	0c3H
	DB	018H
	DB	0a3H
	DB	018H
	DB	0c3H
	DB	018H
	DB	0c3H
	DB	018H
	DB	0a3H
	DB	018H
	DB	0a3H
	DB	018H
	DB	0a3H
	DB	018H
	DB	0a2H
	DB	010H
	DB	0a3H
	DB	018H
	DB	0a3H
	DB	018H
	DB	0a3H
	DB	018H
	DB	0a3H
	DB	018H
	DB	0a3H
	DB	018H
	DB	0a3H
	DB	018H
	DB	0a3H
	DB	018H
	DB	0c3H
	DB	018H
	DB	0a3H
	DB	018H
	DB	0a3H
	DB	018H
	DB	0a3H
	DB	018H
	DB	0c3H
	DB	018H
	DB	0a3H
	DB	018H
	DB	0a3H
	DB	018H
	DB	0a3H
	DB	018H
	DB	0a3H
	DB	018H
	DB	0a3H
	DB	018H
	DB	0a3H
	DB	018H
	DB	0a3H
	DB	018H
	DB	0a3H
	DB	018H
	DB	0a3H
	DB	018H
	DB	0a3H
	DB	018H
	DB	0a3H
	DB	018H
	DB	0a3H
	DB	018H
	DB	0a3H
	DB	018H
	DB	0a3H
	DB	018H
	DB	0a3H
	DB	018H
	DB	0a3H
	DB	018H
	DB	0a3H
	DB	018H
	DB	0a3H
	DB	010H
	DB	0c2H
	DB	018H
	DB	0a3H
	DB	018H
	DB	0a3H
	DB	018H
	DB	0a2H
	DB	010H
	DB	0a2H
	DB	010H
	DB	087H
	DB	011H
	DB	099H
	DB	0cH
	DB	0b9H
	DB	04H
	DB	0b9H
	DB	04H
	DB	02bH
	DB	012H
	DB	0a2H
	DB	018H
	DB	0a3H
	DB	018H
	DB	0c3H
	DB	018H
	DB	0a3H
	DB	018H
	DB	0c2H
	DB	010H
	DB	0c3H
	DB	018H
	DB	0a3H
	DB	018H
	DB	0c3H
	DB	010H
	DB	0a2H
	DB	018H
	DB	0a3H
	DB	018H
	DB	0c3H
	DB	010H
	DB	0a3H
	DB	018H
	DB	0a2H
	DB	018H
	DB	078H
	DB	04H
	DB	0b9H
	DB	04H
	DB	058H
	DB	0cH
	DB	0a2H
	DB	018H
	DB	0c3H
	DB	018H
	DB	0c3H
	DB	018H
	DB	0a3H
	DB	010H
	DB	0a3H
	DB	018H
	DB	0c3H
	DB	018H
	DB	0a3H
	DB	018H
	DB	0a2H
	DB	010H
	DB	0a3H
	DB	018H
	DB	0a3H
	DB	018H
	DB	0a3H
	DB	018H
	DB	0a3H
	DB	018H
	DB	0a3H
	DB	018H
	DB	0a3H
	DB	018H
	DB	0a3H
	DB	018H
	DB	0a3H
	DB	018H
	DB	0a3H
	DB	018H
	DB	0a3H
	DB	018H
	DB	0a3H
	DB	018H
	DB	0a3H
	DB	018H
	DB	0a3H
	DB	018H
	DB	0a3H
	DB	018H
	DB	0a3H
	DB	018H
	DB	0a3H
	DB	018H
	DB	0a3H
	DB	018H
	DB	0a3H
	DB	018H
	DB	0a3H
	DB	018H
	DB	0a3H
	DB	018H
	DB	0a3H
	DB	018H
	DB	0a3H
	DB	018H
	DB	0a3H
	DB	018H
	DB	0a3H
	DB	018H
	DB	0a3H
	DB	018H
	DB	0a3H
	DB	018H
	DB	0a3H
	DB	018H
	DB	0c3H
	DB	018H
	DB	0a3H
	DB	018H
	DB	0a3H
	DB	018H
	DB	0a3H
	DB	018H
	DB	0a3H
	DB	018H
	DB	0c3H
	DB	018H
	DB	0c2H
	DB	010H
	DB	0c3H
	DB	018H
	DB	0c3H
	DB	018H
	DB	0c2H
	DB	010H
	DB	0c3H
	DB	018H
	DB	0c2H
	DB	010H
	DB	0c3H
	DB	018H
	DB	0c2H
	DB	010H
	DB	0c3H
	DB	018H
	DB	0a2H
	DB	010H
	DB	0c3H
	DB	018H
	DB	0c2H
	DB	010H
	DB	0c3H
	DB	018H
	DB	0a2H
	DB	010H
	DB	0c3H
	DB	018H
	DB	0c2H
	DB	010H
	DB	0c3H
	DB	018H
	DB	0c2H
	DB	010H
	DB	0c2H
	DB	010H
	DB	0c3H
	DB	018H
	DB	0c2H
	DB	010H
	DB	0c2H
	DB	010H
	DB	0c3H
	DB	018H
	DB	0c2H
	DB	010H
	DB	0a2H
	DB	010H
	DB	0c3H
	DB	018H
	DB	0c2H
	DB	010H
	DB	0a2H
	DB	010H
	DB	0c3H
	DB	018H
	DB	0c2H
	DB	010H
	DB	0c2H
	DB	018H
	DB	0c3H
	DB	018H
	DB	0a3H
	DB	018H
	DB	0c3H
	DB	010H
	DB	0c3H
	DB	018H
	DB	0a2H
	DB	018H
	DB	0a3H
	DB	010H
	DB	0a2H
	DB	010H
	DB	082H
	DB	010H
	DB	0a8H
	DB	011H
	DB	057H
	DB	0cH
	DB	016H
	DB	0cH
	DB	025H
	DB	011H
	DB	0a3H
	DB	010H
	DB	0a3H
	DB	018H
	DB	0c2H
	DB	018H
	DB	0a3H
	DB	010H
	DB	0a3H
	DB	018H
	DB	0c3H
	DB	018H
	DB	0a2H
	DB	018H
	DB	0c3H
	DB	010H
	DB	0c3H
	DB	018H
	DB	0a3H
	DB	018H
	DB	0c3H
	DB	018H
	DB	0a2H
	DB	010H
	DB	0a2H
	DB	018H
	DB	0cfH
	DB	0aH
	DB	078H
	DB	0cH
	DB	0aeH
	DB	0aH
	DB	0a2H
	DB	010H
	DB	0a3H
	DB	010H
	DB	0c3H
	DB	018H
	DB	0a2H
	DB	018H
	DB	0c3H
	DB	018H
	DB	0c3H
	DB	018H
	DB	0c2H
	DB	010H
	DB	0c3H
	DB	018H
	DB	0c3H
	DB	018H
	DB	0c2H
	DB	010H
	DB	0c3H
	DB	018H
	DB	0c2H
	DB	010H
	DB	0c3H
	DB	010H
	DB	0c2H
	DB	018H
	DB	0c3H
	DB	010H
	DB	0c3H
	DB	018H
	DB	0c2H
	DB	010H
	DB	0c3H
	DB	018H
	DB	0c3H
	DB	018H
	DB	0c2H
	DB	010H
	DB	0c3H
	DB	018H
	DB	0c3H
	DB	018H
	DB	0c2H
	DB	010H
	DB	0c3H
	DB	018H
	DB	0c3H
	DB	018H
	DB	0c2H
	DB	010H
	DB	0c3H
	DB	018H
	DB	0c2H
	DB	018H
	DB	0c3H
	DB	010H
	DB	0c2H
	DB	018H
	DB	0c2H
	DB	010H
	DB	0c3H
	DB	010H
	DB	0c2H
	DB	018H
	DB	0c2H
	DB	010H
	DB	0a3H
	DB	010H
	DB	0c2H
	DB	018H
	DB	0c3H
	DB	010H
	DB	0c2H
	DB	010H
	DB	0a3H
	DB	018H
	DB	0c3H
	DB	018H
	DB	0a3H
	DB	018H
	DB	0a3H
	DB	018H
	DB	0c3H
	DB	018H
	DB	0a3H
	DB	018H
	DB	0a3H
	DB	018H
	DB	0c3H
	DB	018H
	DB	0a3H
	DB	018H
	DB	0a2H
	DB	010H
	DB	0c3H
	DB	018H
	DB	0a3H
	DB	018H
	DB	0c3H
	DB	018H
	DB	0a3H
	DB	018H
	DB	0a3H
	DB	018H
	DB	0c2H
	DB	010H
	DB	0a3H
	DB	018H
	DB	0a3H
	DB	018H
	DB	0c3H
	DB	018H
	DB	0a3H
	DB	018H
	DB	0a3H
	DB	018H
	DB	0a3H
	DB	018H
	DB	0c3H
	DB	018H
	DB	0a3H
	DB	018H
	DB	0a3H
	DB	018H
	DB	0c3H
	DB	018H
	DB	0a3H
	DB	018H
	DB	0c3H
	DB	018H
	DB	0c3H
	DB	018H
	DB	0a3H
	DB	018H
	DB	0c3H
	DB	018H
	DB	0a3H
	DB	018H
	DB	0c3H
	DB	010H
	DB	0a3H
	DB	018H
	DB	0c2H
	DB	018H
	DB	0a3H
	DB	010H
	DB	0a3H
	DB	018H
	DB	0c2H
	DB	018H
	DB	0a3H
	DB	010H
	DB	0a3H
	DB	018H
	DB	0a2H
	DB	018H
	DB	082H
	DB	010H
	DB	082H
	DB	010H
	DB	082H
	DB	010H
	DB	0a2H
	DB	010H
	DB	0a2H
	DB	010H
	DB	0a3H
	DB	010H
	DB	0a2H
	DB	018H
	DB	0c3H
	DB	018H
	DB	0c3H
	DB	018H
	DB	0a3H
	DB	018H
	DB	0a2H
	DB	018H
	DB	0c3H
	DB	018H
	DB	0a3H
	DB	018H
	DB	0a2H
	DB	010H
	DB	0c3H
	DB	018H
	DB	0a2H
	DB	010H
	DB	0a3H
	DB	018H
	DB	0a3H
	DB	010H
	DB	0a2H
	DB	010H
	DB	0a2H
	DB	018H
	DB	0a2H
	DB	010H
	DB	0a3H
	DB	010H
	DB	0a3H
	DB	018H
	DB	0a2H
	DB	018H
	DB	0c3H
	DB	010H
	DB	0a3H
	DB	018H
	DB	0a2H
	DB	018H
	DB	0a3H
	DB	018H
	DB	0a3H
	DB	018H
	DB	0a3H
	DB	018H
	DB	0c3H
	DB	018H
	DB	0a2H
	DB	018H
	DB	0a3H
	DB	018H
	DB	0a3H
	DB	018H
	DB	0c3H
	DB	018H
	DB	0a2H
	DB	018H
	DB	0a3H
	DB	010H
	DB	0c3H
	DB	018H
	DB	0a2H
	DB	018H
	DB	0a3H
	DB	010H
	DB	0c3H
	DB	018H
	DB	0a3H
	DB	018H
	DB	0a2H
	DB	010H
	DB	0c3H
	DB	018H
	DB	0a3H
	DB	018H
	DB	0a2H
	DB	010H
	DB	0c3H
	DB	018H
	DB	0a3H
	DB	018H
	DB	0a3H
	DB	010H
	DB	0a3H
	DB	018H
	DB	0c3H
	DB	018H
	DB	0a3H
	DB	018H
	DB	0a3H
	DB	018H
	DB	0c3H
	DB	018H
	DB	0a3H
	DB	018H
	DB	0c3H
	DB	018H
	DB	0a3H
	DB	018H
	DB	0a3H
	DB	018H
	DB	0c2H
	DB	018H
	DB	0c3H
	DB	010H
	DB	0a3H
	DB	018H
	DB	0a2H
	DB	010H
	DB	0a2H
	DB	010H
	DB	0a2H
	DB	010H
	DB	0a3H
	DB	018H
	DB	0a2H
	DB	010H
	DB	0a2H
	DB	010H
	DB	0a3H
	DB	018H
	DB	0a3H
	DB	018H
	DB	0a2H
	DB	010H
	DB	0a2H
	DB	010H
	DB	0a3H
	DB	018H
	DB	0a2H
	DB	010H
	DB	0a3H
	DB	018H
	DB	0a3H
	DB	018H
	DB	0a2H
	DB	010H
	DB	0a2H
	DB	010H
	DB	0a3H
	DB	018H
	DB	0a2H
	DB	010H
	DB	0a2H
	DB	010H
	DB	0a3H
	DB	018H
	DB	0a2H
	DB	010H
	DB	0a3H
	DB	018H
	DB	0a2H
	DB	010H
	DB	0a2H
	DB	010H
	DB	0a3H
	DB	018H
	DB	0a2H
	DB	010H
	DB	0a2H
	DB	010H
	DB	0a3H
	DB	018H
	DB	0a2H
	DB	018H
	DB	0a2H
	DB	010H
	DB	0a3H
	DB	018H
	DB	0a3H
	DB	010H
	DB	0a2H
	DB	018H
	DB	0a2H
	DB	010H
	DB	0a3H
	DB	018H
	DB	0a2H
	DB	018H
	DB	0a3H
	DB	010H
	DB	0a3H
	DB	018H
	DB	0a2H
	DB	010H
	DB	0a3H
	DB	010H
	DB	082H
	DB	010H
	DB	0a3H
	DB	010H
	DB	082H
	DB	010H
	DB	0a3H
	DB	018H
	DB	0a2H
	DB	018H
	DB	0a3H
	DB	010H
	DB	0a2H
	DB	010H
	DB	0a3H
	DB	010H
	DB	0a2H
	DB	010H
	DB	0a3H
	DB	010H
	DB	0a3H
	DB	018H
	DB	0a2H
	DB	010H
	DB	0a3H
	DB	018H
	DB	0a2H
	DB	018H
	DB	0a3H
	DB	010H
	DB	0a2H
	DB	018H
	DB	0a3H
	DB	018H
	DB	0a2H
	DB	010H
	DB	0a2H
	DB	010H
	DB	0a3H
	DB	018H
	DB	0a2H
	DB	018H
	DB	0a2H
	DB	010H
	DB	0a3H
	DB	018H
	DB	0a2H
	DB	010H
	DB	0a3H
	DB	010H
	DB	0a2H
	DB	018H
	DB	0a3H
	DB	010H
	DB	0a2H
	DB	010H
	DB	0a2H
	DB	010H
	DB	0a3H
	DB	018H
	DB	0a3H
	DB	010H
	DB	0a2H
	DB	010H
	DB	0a3H
	DB	018H
	DB	0a2H
	DB	010H
	DB	0a3H
	DB	018H
	DB	0a2H
	DB	018H
	DB	0a3H
	DB	010H
	DB	0a2H
	DB	018H
	DB	0a2H
	DB	010H
	DB	0a3H
	DB	018H
	DB	0a2H
	DB	018H
	DB	0a3H
	DB	010H
	DB	0a3H
	DB	018H
	DB	0a2H
	DB	010H
	DB	0a3H
	DB	018H
	DB	0a2H
	DB	018H
	DB	0a2H
	DB	010H
	DB	0a3H
	DB	018H
	DB	0a2H
	DB	010H
	DB	0a2H
	DB	018H
	DB	0a3H
	DB	010H
	DB	0a2H
	DB	018H
	DB	0a3H
	DB	010H
	DB	0a2H
	DB	018H
	DB	0a2H
	DB	010H
	DB	0a3H
	DB	010H
	DB	0a2H
	DB	018H
	DB	0a3H
	DB	018H
	DB	0a2H
	DB	010H
	DB	0a2H
	DB	018H
	DB	0a3H
	DB	018H
	DB	0a3H
	DB	018H
	DB	0a3H
	DB	018H
	DB	0c2H
	DB	010H
	DB	0a3H
	DB	018H
	DB	0a3H
	DB	018H
	DB	0a2H
	DB	010H
	DB	0c3H
	DB	018H
	DB	0a3H
	DB	018H
	DB	0a3H
	DB	018H
	DB	0a2H
	DB	010H
	DB	0c3H
	DB	018H
	DB	0a2H
	DB	010H
	DB	0a3H
	DB	018H
	DB	0c3H
	DB	018H
	DB	0a3H
	DB	018H
	DB	0a2H
	DB	010H
	DB	0c3H
	DB	018H
	DB	0a3H
	DB	018H
	DB	0a2H
	DB	010H
	DB	0c3H
	DB	018H
	DB	0a3H
	DB	018H
	DB	0a2H
	DB	010H
	DB	0a3H
	DB	018H
	DB	0a3H
	DB	018H
	DB	0a3H
	DB	018H
	DB	0a2H
	DB	010H
	DB	0a3H
	DB	018H
	DB	0a3H
	DB	010H
	DB	0a2H
	DB	018H
	DB	0a3H
	DB	018H
	DB	0c3H
	DB	010H
	DB	0a3H
	DB	018H
	DB	0a3H
	DB	018H
	DB	0c3H
	DB	010H
	DB	0a2H
	DB	018H
	DB	0a3H
	DB	018H
	DB	0a3H
	DB	018H
	DB	0a2H
	DB	010H
	DB	0a3H
	DB	018H
	DB	0a2H
	DB	018H
	DB	0a2H
	DB	010H
	DB	0a3H
	DB	018H
	DB	0a3H
	DB	018H
	DB	0a2H
	DB	010H
	DB	0a3H
	DB	018H
	DB	0a3H
	DB	018H
	DB	0a2H
	DB	018H
	DB	0c3H
	DB	018H
	DB	0a3H
	DB	018H
	DB	0a2H
	DB	010H
	DB	0c3H
	DB	018H
	DB	0a3H
	DB	018H
	DB	0a3H
	DB	010H
	DB	0c2H
	DB	018H
	DB	0a2H
	DB	010H
	DB	0a3H
	DB	018H
	DB	0a2H
	DB	010H
	DB	0a3H
	DB	010H
	DB	0a2H
	DB	018H
	DB	0a3H
	DB	010H
	DB	0a2H
	DB	010H
	DB	0a3H
	DB	018H
	DB	0a3H
	DB	018H
	DB	0c2H
	DB	018H
	DB	0a3H
	DB	010H
	DB	0c3H
	DB	018H
	DB	0c3H
	DB	018H
	DB	0a2H
	DB	018H
	DB	0a3H
	DB	010H
	DB	0c3H
	DB	018H
	DB	0a2H
	DB	018H
	DB	0a3H
	DB	010H
	DB	0c3H
	DB	018H
	DB	0a2H
	DB	010H
	DB	0a3H
	DB	018H
	DB	0a3H
	DB	018H
	DB	0c3H
	DB	010H
	DB	0a3H
	DB	018H
	DB	0a2H
	DB	010H
	DB	0c3H
	DB	018H
	DB	0a3H
	DB	018H
	DB	0a2H
	DB	010H
	DB	0c3H
	DB	018H
	DB	0a3H
	DB	018H
	DB	0a3H
	DB	010H
	DB	0c2H
	DB	018H
	DB	0a3H
	DB	018H
	DB	0a3H
	DB	010H
	DB	0c2H
	DB	018H
	DB	0a3H
	DB	018H
	DB	0a3H
	DB	010H
	DB	0a2H
	DB	018H
	DB	0a3H
	DB	018H
	DB	0c3H
	DB	010H
	DB	0a2H
	DB	018H
	DB	0a3H
	DB	018H
	DB	0a3H
	DB	010H
	DB	0a3H
	DB	018H
	DB	0a3H
	DB	018H
	DB	0a3H
	DB	018H
	DB	0a3H
	DB	018H
	DB	0c2H
	DB	010H
	DB	0a3H
	DB	018H
	DB	0a3H
	DB	018H
	DB	0c2H
	DB	010H
	DB	0a3H
	DB	018H
	DB	0a2H
	DB	010H
	DB	0c3H
	DB	018H
	DB	0a3H
	DB	018H
	DB	0a2H
	DB	010H
	DB	0c3H
	DB	018H
	DB	0a3H
	DB	018H
	DB	0a2H
	DB	010H
	DB	0c3H
	DB	018H
	DB	0a3H
	DB	018H
	DB	0a2H
	DB	010H
	DB	0c3H
	DB	018H
	DB	0a3H
	DB	018H
	DB	0a2H
	DB	010H
	DB	0a3H
	DB	018H
	DB	0c3H
	DB	018H
	DB	0a2H
	DB	010H
	DB	0c3H
	DB	018H
	DB	0a3H
	DB	018H
	DB	0c2H
	DB	010H
	DB	0a3H
	DB	018H
	DB	0c3H
	DB	018H
	DB	0c3H
	DB	010H
	DB	0a2H
	DB	018H
	DB	0a3H
	DB	018H
	DB	0a2H
	DB	010H
	DB	0a2H
	DB	018H
	DB	0c3H
	DB	018H
	DB	0a3H
	DB	010H
	DB	0a2H
	DB	010H
	DB	0c3H
	DB	018H
	DB	0a2H
	DB	010H
	DB	0a2H
	DB	018H
	DB	0a3H
	DB	018H
	DB	0a3H
	DB	010H
	DB	0a2H
	DB	018H
	DB	0a3H
	DB	010H
	DB	0a2H
	DB	010H
	DB	0a2H
	DB	010H
	DB	0a3H
	DB	018H
	DB	0a3H
	DB	018H
	DB	0c2H
	DB	010H
	DB	0a3H
	DB	018H
	DB	0a2H
	DB	018H
	DB	0c2H
	DB	010H
	DB	0a3H
	DB	018H
	DB	0a2H
	DB	010H
	DB	0c3H
	DB	018H
	DB	0a2H
	DB	010H
	DB	0a3H
	DB	018H
	DB	0a3H
	DB	010H
	DB	0a2H
	DB	018H
	DB	0a3H
	DB	018H
	DB	0a3H
	DB	010H
	DB	0a2H
	DB	018H
	DB	0a3H
	DB	018H
	DB	0a2H
	DB	010H
	DB	0a3H
	DB	018H
	DB	0a3H
	DB	018H
	DB	0a2H
	DB	010H
	DB	0a3H
	DB	018H
	DB	0a3H
	DB	018H
	DB	0a2H
	DB	010H
	DB	0a3H
	DB	018H
	DB	0c2H
	DB	018H
	DB	0a3H
	DB	018H
	DB	0a3H
	DB	010H
	DB	0a2H
	DB	018H
	DB	0c3H
	DB	018H
	DB	0a3H
	DB	010H
	DB	0a2H
	DB	018H
	DB	0a3H
	DB	018H
	DB	0a3H
	DB	010H
	DB	0a2H
	DB	018H
	DB	0a3H
	DB	010H
	DB	0a2H
	DB	018H
	DB	0a3H
	DB	018H
	DB	0a2H
	DB	010H
	DB	0a3H
	DB	018H
	DB	0a3H
	DB	010H
	DB	0c3H
	DB	018H
	DB	0a2H
	DB	018H
	DB	0a3H
	DB	010H
	DB	0a3H
	DB	018H
	DB	0c2H
	DB	018H
	DB	0a3H
	DB	010H
	DB	0a3H
	DB	018H
	DB	0c3H
	DB	018H
	DB	0a3H
	DB	010H
	DB	0a2H
	DB	018H
	DB	0c3H
	DB	018H
	DB	0a2H
	DB	010H
	DB	0a3H
	DB	018H
	DB	0c3H
	DB	010H
	DB	0a2H
	DB	010H
	DB	0a2H
	DB	010H
	DB	0a2H
	DB	010H
	DB	0a3H
	DB	018H
	DB	0a2H
	DB	010H
	DB	0a2H
	DB	010H
	DB	0a3H
	DB	018H
	DB	0a2H
	DB	010H
	DB	0a2H
	DB	010H
	DB	0a2H
	DB	010H
	DB	0a3H
	DB	018H
	DB	0a2H
	DB	010H
	DB	0a2H
	DB	010H
	DB	0a2H
	DB	010H
	DB	0a2H
	DB	010H
	DB	0a2H
	DB	010H
	DB	0a3H
	DB	018H
	DB	0a2H
	DB	010H
	DB	0a2H
	DB	010H
	DB	0a3H
	DB	018H
	DB	0a2H
	DB	010H
	DB	0a2H
	DB	010H
	DB	0a3H
	DB	018H
	DB	0a2H
	DB	010H
	DB	0a2H
	DB	010H
	DB	0a2H
	DB	010H
	DB	0a2H
	DB	018H
	DB	0a3H
	DB	010H
	DB	0a2H
	DB	010H
	DB	0a2H
	DB	010H
	DB	0a3H
	DB	018H
	DB	0a2H
	DB	010H
	DB	0a2H
	DB	010H
	DB	0a2H
	DB	018H
	DB	0a2H
	DB	010H
	DB	0a3H
	DB	018H
	DB	0a2H
	DB	010H
	DB	0a3H
	DB	010H
	DB	0a2H
	DB	018H
	DB	0a3H
	DB	010H
	DB	0a2H
	DB	010H
	DB	0a3H
	DB	018H
	DB	0a2H
	DB	018H
	DB	0a3H
	DB	010H
	DB	0a2H
	DB	018H
	DB	0a2H
	DB	010H
	DB	0a3H
	DB	010H
	DB	0a2H
	DB	010H
	DB	0a2H
	DB	010H
	DB	0a3H
	DB	010H
	DB	0a3H
	DB	018H
	DB	0a2H
	DB	010H
	DB	0a2H
	DB	018H
	DB	0a3H
	DB	010H
	DB	0a3H
	DB	018H
	DB	0a2H
	DB	010H
	DB	0a2H
	DB	010H
	DB	0a3H
	DB	018H
	DB	0a2H
	DB	010H
	DB	0a2H
	DB	010H
	DB	0a3H
	DB	018H
	DB	0a2H
	DB	010H
	DB	0a2H
	DB	010H
	DB	0a3H
	DB	010H
	DB	0a2H
	DB	018H
	DB	0a2H
	DB	010H
	DB	0a2H
	DB	010H
	DB	0a2H
	DB	010H
	DB	0a3H
	DB	010H
	DB	0a2H
	DB	010H
	DB	0a2H
	DB	010H
	DB	0a3H
	DB	010H
	DB	0a2H
	DB	018H
	DB	0a2H
	DB	010H
	DB	0a2H
	DB	010H
	DB	0a2H
	DB	010H
	DB	0a2H
	DB	018H
	DB	0a2H
	DB	010H
	DB	0a2H
	DB	010H
	DB	0a3H
	DB	018H
	DB	0a2H
	DB	010H
	DB	0a3H
	DB	010H
	DB	0a2H
	DB	018H
	DB	0a2H
	DB	010H
	DB	0a2H
	DB	010H
	DB	0a2H
	DB	018H
	DB	0a2H
	DB	010H
	DB	0a3H
	DB	010H
	DB	0a2H
	DB	010H
	DB	0a2H
	DB	010H
	DB	0a3H
	DB	010H
	DB	0a2H
	DB	010H
	DB	0a2H
	DB	010H
	DB	0a2H
	DB	018H
	DB	0a2H
	DB	010H
	DB	0a3H
	DB	010H
	DB	0a2H
	DB	010H
	DB	0a2H
	DB	018H
	DB	0a2H
	DB	010H
	DB	0a2H
	DB	010H
	DB	0a3H
	DB	018H
	DB	0a2H
	DB	010H
	DB	0a3H
	DB	018H
	DB	0a3H
	DB	018H
	DB	0a2H
	DB	010H
	DB	0a3H
	DB	018H
	DB	0a3H
	DB	018H
	DB	0a3H
	DB	018H
	DB	0a2H
	DB	010H
	DB	0a3H
	DB	018H
	DB	0a3H
	DB	018H
	DB	0a2H
	DB	010H
	DB	0a3H
	DB	018H
	DB	0a3H
	DB	018H
	DB	0a3H
	DB	018H
	DB	0a2H
	DB	010H
	DB	0a3H
	DB	018H
	DB	0a3H
	DB	018H
	DB	0a2H
	DB	010H
	DB	0a3H
	DB	018H
	DB	0a2H
	DB	010H
	DB	0a3H
	DB	018H
	DB	0a3H
	DB	018H
	DB	0a2H
	DB	010H
	DB	0a3H
	DB	018H
	DB	0a3H
	DB	018H
	DB	0a2H
	DB	010H
	DB	0a3H
	DB	018H
	DB	0a2H
	DB	018H
	DB	0a3H
	DB	010H
	DB	0a3H
	DB	018H
	DB	0a3H
	DB	018H
	DB	0a3H
	DB	010H
	DB	0a3H
	DB	010H
	DB	0a2H
	DB	018H
	DB	0a3H
	DB	018H
	DB	0a3H
	DB	010H
	DB	0a2H
	DB	018H
	DB	0a3H
	DB	010H
	DB	0a2H
	DB	018H
	DB	0a3H
	DB	010H
	DB	0a2H
	DB	018H
	DB	0a3H
	DB	010H
	DB	0a3H
	DB	018H
	DB	0a2H
	DB	018H
	DB	0a3H
	DB	010H
	DB	0a3H
	DB	018H
	DB	0a2H
	DB	018H
	DB	0a3H
	DB	018H
	DB	0a3H
	DB	010H
	DB	0a2H
	DB	018H
	DB	0a3H
	DB	018H
	DB	0a3H
	DB	010H
	DB	0a2H
	DB	018H
	DB	0a2H
	DB	018H
	DB	0a3H
	DB	010H
	DB	0a2H
	DB	018H
	DB	0a3H
	DB	018H
	DB	0a2H
	DB	010H
	DB	0a3H
	DB	018H
	DB	0a3H
	DB	018H
	DB	0a2H
	DB	010H
	DB	0a3H
	DB	018H
	DB	0a3H
	DB	018H
	DB	0a2H
	DB	010H
	DB	0a3H
	DB	018H
	DB	0a3H
	DB	018H
	DB	0a2H
	DB	018H
	DB	0a3H
	DB	018H
	DB	0a3H
	DB	018H
	DB	0a2H
	DB	010H
	DB	0a3H
	DB	018H
	DB	0a3H
	DB	018H
	DB	0a2H
	DB	010H
	DB	0a3H
	DB	018H
	DB	0a3H
	DB	018H
	DB	0a3H
	DB	010H
	DB	0a3H
	DB	018H
	DB	0a2H
	DB	018H
	DB	0a3H
	DB	010H
	DB	0a2H
	DB	018H
	DB	0a3H
	DB	010H
	DB	0a3H
	DB	018H
	DB	0a3H
	DB	018H
	DB	0a3H
	DB	010H
	DB	0a2H
	DB	018H
	DB	0a3H
	DB	018H
	DB	0a3H
	DB	010H
	DB	0a2H
	DB	018H
	DB	0a3H
	DB	018H
	DB	0a3H
	DB	018H
	DB	0a2H
	DB	018H
	DB	0a3H
	DB	010H
	DB	0a2H
	DB	018H
	DB	0a3H
	DB	018H
	DB	0a3H
	DB	010H
	DB	0a2H
	DB	018H
	DB	0a3H
	DB	018H
	DB	0a3H
	DB	010H
	DB	0a2H
	DB	018H
	DB	0a2H
	DB	010H
	DB	0a2H
	DB	010H
	DB	0a2H
	DB	010H
	DB	0a2H
	DB	010H
	DB	0a2H
	DB	010H
	DB	0a2H
	DB	010H
	DB	0a2H
	DB	010H
	DB	0a2H
	DB	010H
	DB	0a2H
	DB	010H
	DB	0a2H
	DB	010H
	DB	0a2H
	DB	010H
	DB	0a2H
	DB	010H
	DB	0a2H
	DB	010H
	DB	0a3H
	DB	018H
	DB	0a2H
	DB	010H
	DB	0a2H
	DB	010H
	DB	0a2H
	DB	010H
	DB	0a2H
	DB	010H
	DB	0a2H
	DB	010H
	DB	0a2H
	DB	010H
	DB	0a2H
	DB	010H
	DB	0a2H
	DB	010H
	DB	0a2H
	DB	010H
	DB	0a2H
	DB	010H
	DB	0a3H
	DB	010H
	DB	0a2H
	DB	010H
	DB	0a2H
	DB	010H
	DB	0a2H
	DB	010H
	DB	0a3H
	DB	018H
	DB	0a2H
	DB	010H
	DB	0a2H
	DB	010H
	DB	0a2H
	DB	010H
	DB	0a2H
	DB	018H
	DB	0a2H
	DB	010H
	DB	0a2H
	DB	010H
	DB	0a2H
	DB	010H
	DB	0a2H
	DB	010H
	DB	0a2H
	DB	018H
	DB	0a2H
	DB	010H
	DB	0a2H
	DB	010H
	DB	0a2H
	DB	018H
	DB	0a2H
	DB	010H
	DB	0a2H
	DB	010H
	DB	0a2H
	DB	010H
	DB	0a2H
	DB	010H
	DB	0a2H
	DB	010H
	DB	0a2H
	DB	010H
	DB	0a2H
	DB	018H
	DB	0a2H
	DB	010H
	DB	0a2H
	DB	010H
	DB	0a2H
	DB	010H
	DB	0a2H
	DB	010H
	DB	0a2H
	DB	010H
	DB	0a2H
	DB	010H
	DB	0a3H
	DB	010H
	DB	0a2H
	DB	010H
	DB	0a2H
	DB	010H
	DB	0a2H
	DB	010H
	DB	0a3H
	DB	010H
	DB	0a2H
	DB	010H
	DB	0a2H
	DB	010H
	DB	0a2H
	DB	010H
	DB	0a2H
	DB	018H
	DB	0a2H
	DB	010H
	DB	0a2H
	DB	010H
	DB	0a3H
	DB	010H
	DB	0a2H
	DB	010H
	DB	0a2H
	DB	010H
	DB	0a2H
	DB	010H
	DB	0a2H
	DB	018H
	DB	0a2H
	DB	010H
	DB	0a2H
	DB	010H
	DB	0a2H
	DB	010H
	DB	0a3H
	DB	010H
	DB	0a2H
	DB	018H
	DB	0a2H
	DB	010H
	DB	0a2H
	DB	010H
	DB	0a2H
	DB	010H
	DB	0a3H
	DB	010H
	DB	0a2H
	DB	018H
	DB	0a2H
	DB	010H
	DB	0a2H
	DB	010H
	DB	0a2H
	DB	010H
	DB	0a2H
	DB	010H
	DB	0a2H
	DB	010H
	DB	0a2H
	DB	010H
	DB	0a2H
	DB	010H
	DB	0a2H
	DB	018H
	DB	0a2H
	DB	010H
	DB	0a2H
	DB	010H
	DB	0a2H
	DB	010H
	DB	0a2H
	DB	010H
	DB	0a3H
	DB	010H
	DB	0a2H
	DB	010H
	DB	0a2H
	DB	010H
	DB	0a2H
	DB	010H
	DB	0a2H
	DB	010H
	DB	0a3H
	DB	010H
	DB	0a2H
	DB	010H
	DB	0a2H
	DB	018H
	DB	0a2H
	DB	010H
	DB	0a3H
	DB	018H
	DB	0a3H
	DB	018H
	DB	0a2H
	DB	010H
	DB	0a3H
	DB	018H
	DB	0a2H
	DB	010H
	DB	0a3H
	DB	018H
	DB	0a2H
	DB	010H
	DB	0a3H
	DB	018H
	DB	0a3H
	DB	018H
	DB	0a2H
	DB	010H
	DB	0a3H
	DB	018H
	DB	0a2H
	DB	010H
	DB	0a2H
	DB	010H
	DB	0a3H
	DB	018H
	DB	0a2H
	DB	010H
	DB	0a3H
	DB	018H
	DB	0a3H
	DB	018H
	DB	0a2H
	DB	010H
	DB	0a3H
	DB	018H
	DB	0a3H
	DB	018H
	DB	0a2H
	DB	010H
	DB	0a3H
	DB	018H
	DB	0a2H
	DB	018H
	DB	0a2H
	DB	010H
	DB	0a3H
	DB	018H
	DB	0a2H
	DB	018H
	DB	0a2H
	DB	010H
	DB	0a3H
	DB	010H
	DB	0a2H
	DB	018H
	DB	0a2H
	DB	010H
	DB	0a2H
	DB	010H
	DB	0a3H
	DB	018H
	DB	0a2H
	DB	010H
	DB	0a3H
	DB	018H
	DB	0a3H
	DB	010H
	DB	0e4H
	DB	010H
	DB	0e4H
	DB	010H
	DB	0a3H
	DB	010H
	DB	0a3H
	DB	010H
	DB	0a2H
	DB	018H
	DB	083H
	DB	010H
	DB	0a3H
	DB	010H
	DB	0a2H
	DB	018H
	DB	083H
	DB	018H
	DB	0a3H
	DB	010H
	DB	0a2H
	DB	010H
	DB	0a3H
	DB	010H
	DB	0a3H
	DB	018H
	DB	0a2H
	DB	010H
	DB	0e4H
	DB	010H
	DB	0e4H
	DB	010H
	DB	0a3H
	DB	018H
	DB	0a2H
	DB	010H
	DB	0a3H
	DB	018H
	DB	082H
	DB	018H
	DB	0a3H
	DB	010H
	DB	0a2H
	DB	018H
	DB	082H
	DB	018H
	DB	0a3H
	DB	010H
	DB	0a2H
	DB	018H
	DB	083H
	DB	010H
	DB	0a3H
	DB	010H
	DB	0a2H
	DB	018H
	DB	0a2H
	DB	010H
	DB	0a3H
	DB	018H
	DB	0a2H
	DB	010H
	DB	0a3H
	DB	010H
	DB	0a3H
	DB	018H
	DB	0a2H
	DB	010H
	DB	0a3H
	DB	010H
	DB	0a2H
	DB	018H
	DB	0a2H
	DB	010H
	DB	0a3H
	DB	010H
	DB	0a2H
	DB	018H
	DB	0a2H
	DB	010H
	DB	0a3H
	DB	010H
	DB	0a2H
	DB	018H
	DB	0e4H
	DB	010H
	DB	0e4H
	DB	010H
	DB	0a3H
	DB	018H
	DB	0a2H
	DB	010H
	DB	0a2H
	DB	018H
	DB	0a3H
	DB	018H
	DB	0a3H
	DB	010H
	DB	0a2H
	DB	010H
	DB	0a3H
	DB	018H
	DB	0a3H
	DB	010H
	DB	0a2H
	DB	010H
	DB	0a3H
	DB	018H
	DB	0a2H
	DB	010H
	DB	0a2H
	DB	018H
	DB	0a3H
	DB	018H
	DB	0a2H
	DB	010H
	DB	0a2H
	DB	018H
	DB	0a3H
	DB	018H
	DB	0a2H
	DB	010H
	DB	0a2H
	DB	018H
	DB	0a3H
	DB	010H
	DB	0a2H
	DB	010H
	DB	0a2H
	DB	010H
	DB	082H
	DB	010H
	DB	083H
	DB	018H
	DB	0a2H
	DB	010H
	DB	082H
	DB	010H
	DB	0a3H
	DB	018H
	DB	082H
	DB	010H
	DB	0a2H
	DB	010H
	DB	083H
	DB	018H
	DB	0a2H
	DB	010H
	DB	082H
	DB	010H
	DB	093H
	DB	0bH
	DB	07eH
	DB	05H
	DB	07eH
	DB	05H
	DB	07eH
	DB	05H
	DB	07eH
	DB	05H
	DB	07eH
	DB	05H
	DB	0e4H
	DB	010H
	DB	0e4H
	DB	010H
	DB	078H
	DB	0cH
	DB	07eH
	DB	05H
	DB	07eH
	DB	05H
	DB	07eH
	DB	05H
	DB	02cH
	DB	012H
	DB	082H
	DB	010H
	DB	031H
	DB	0bH
	DB	07eH
	DB	05H
	DB	099H
	DB	0cH
	DB	082H
	DB	010H
	DB	082H
	DB	010H
	DB	037H
	DB	0cH
	DB	07eH
	DB	05H
	DB	093H
	DB	0bH
	DB	082H
	DB	010H
	DB	082H
	DB	010H
	DB	099H
	DB	0cH
	DB	07eH
	DB	05H
	DB	07eH
	DB	05H
	DB	07eH
	DB	05H
	DB	037H
	DB	0cH
	DB	082H
	DB	010H
	DB	082H
	DB	010H
	DB	093H
	DB	0bH
	DB	07eH
	DB	05H
	DB	07eH
	DB	05H
	DB	07eH
	DB	05H
	DB	031H
	DB	0bH
	DB	082H
	DB	010H
	DB	0eaH
	DB	011H
	DB	07eH
	DB	05H
	DB	07eH
	DB	05H
	DB	07eH
	DB	05H
	DB	03cH
	DB	05H
	DB	02cH
	DB	012H
	DB	082H
	DB	010H
	DB	082H
	DB	010H
	DB	082H
	DB	010H
	DB	037H
	DB	0cH
	DB	07eH
	DB	05H
	DB	0d5H
	DB	0bH
	DB	082H
	DB	010H
	DB	082H
	DB	010H
	DB	099H
	DB	0cH
	DB	07eH
	DB	05H
	DB	07eH
	DB	05H
	DB	07eH
	DB	05H
	DB	07eH
	DB	05H
	DB	098H
	DB	0cH
	DB	082H
	DB	010H
	DB	093H
	DB	0bH
	DB	03cH
	DB	05H
	DB	082H
	DB	010H
	DB	082H
	DB	018H
	DB	093H
	DB	0bH
	DB	03cH
	DB	05H
	DB	082H
	DB	010H
	DB	0e4H
	DB	010H
	DB	07eH
	DB	05H
	DB	09eH
	DB	05H
	DB	09eH
	DB	05H
	DB	07eH
	DB	05H
	DB	031H
	DB	0bH
	DB	0a2H
	DB	010H
	DB	082H
	DB	010H
	DB	08dH
	DB	012H
	DB	03cH
	DB	05H
	DB	07eH
	DB	05H
	DB	07eH
	DB	05H
	DB	098H
	DB	0cH
	DB	082H
	DB	010H
	DB	0a3H
	DB	010H
	DB	0a3H
	DB	018H
	DB	082H
	DB	010H
	DB	0a3H
	DB	010H
	DB	0a3H
	DB	018H
	DB	082H
	DB	010H
	DB	0a3H
	DB	010H
	DB	082H
	DB	018H
	DB	0a2H
	DB	018H
	DB	0a3H
	DB	010H
	DB	082H
	DB	010H
	DB	082H
	DB	010H
	DB	0a2H
	DB	010H
	DB	082H
	DB	010H
	DB	082H
	DB	010H
	DB	082H
	DB	010H
	DB	0a2H
	DB	010H
	DB	082H
	DB	010H
	DB	082H
	DB	010H
	DB	082H
	DB	010H
	DB	082H
	DB	010H
	DB	088H
	DB	011H
	DB	0eaH
	DB	011H
	DB	0d5H
	DB	0bH
	DB	09eH
	DB	05H
	DB	02bH
	DB	0aH
	DB	0e9H
	DB	011H
	DB	082H
	DB	010H
	DB	02cH
	DB	0aH
	DB	09eH
	DB	05H
	DB	0cfH
	DB	0aH
	DB	0e9H
	DB	09H
	DB	0eaH
	DB	011H
	DB	0e4H
	DB	010H
	DB	082H
	DB	010H
	DB	037H
	DB	04H
	DB	098H
	DB	04H
	DB	07eH
	DB	05H
	DB	088H
	DB	011H
	DB	026H
	DB	011H
	DB	07eH
	DB	05H
	DB	098H
	DB	04H
	DB	098H
	DB	0cH
	DB	082H
	DB	010H
	DB	082H
	DB	010H
	DB	098H
	DB	0cH
	DB	037H
	DB	0cH
	DB	026H
	DB	011H
	DB	031H
	DB	0bH
	DB	09eH
	DB	05H
	DB	0e9H
	DB	011H
	DB	0e4H
	DB	010H
	DB	09eH
	DB	05H
	DB	0f5H
	DB	0bH
	DB	0e9H
	DB	011H
	DB	0e9H
	DB	011H
	DB	026H
	DB	011H
	DB	082H
	DB	010H
	DB	0e9H
	DB	011H
	DB	09eH
	DB	05H
	DB	0eaH
	DB	011H
	DB	088H
	DB	011H
	DB	0daH
	DB	04H
	DB	098H
	DB	04H
	DB	082H
	DB	010H
	DB	082H
	DB	010H
	DB	0e4H
	DB	010H
	DB	09eH
	DB	05H
	DB	0f5H
	DB	0bH
	DB	07eH
	DB	05H
	DB	0e4H
	DB	010H
	DB	082H
	DB	010H
	DB	0e9H
	DB	011H
	DB	0eaH
	DB	09H
	DB	098H
	DB	04H
	DB	0daH
	DB	04H
	DB	0eaH
	DB	011H
	DB	0e9H
	DB	011H
	DB	082H
	DB	010H
	DB	093H
	DB	0bH
	DB	03cH
	DB	05H
	DB	082H
	DB	010H
	DB	082H
	DB	010H
	DB	093H
	DB	0bH
	DB	03cH
	DB	05H
	DB	082H
	DB	010H
	DB	0e4H
	DB	010H
	DB	07eH
	DB	05H
	DB	031H
	DB	0bH
	DB	026H
	DB	011H
	DB	0d5H
	DB	0bH
	DB	09eH
	DB	05H
	DB	0e4H
	DB	010H
	DB	082H
	DB	010H
	DB	099H
	DB	04H
	DB	098H
	DB	0cH
	DB	0eaH
	DB	011H
	DB	0e9H
	DB	09H
	DB	088H
	DB	011H
	DB	082H
	DB	010H
	DB	082H
	DB	010H
	DB	082H
	DB	010H
	DB	082H
	DB	010H
	DB	082H
	DB	010H
	DB	082H
	DB	010H
	DB	082H
	DB	010H
	DB	082H
	DB	010H
	DB	082H
	DB	010H
	DB	082H
	DB	010H
	DB	082H
	DB	010H
	DB	082H
	DB	010H
	DB	0a2H
	DB	010H
	DB	0a3H
	DB	018H
	DB	0a2H
	DB	010H
	DB	0a3H
	DB	018H
	DB	082H
	DB	010H
	DB	0a3H
	DB	018H
	DB	0a2H
	DB	010H
	DB	0a2H
	DB	010H
	DB	0a3H
	DB	018H
	DB	082H
	DB	010H
	DB	082H
	DB	010H
	DB	082H
	DB	010H
	DB	031H
	DB	0bH
	DB	09eH
	DB	05H
	DB	082H
	DB	010H
	DB	082H
	DB	010H
	DB	082H
	DB	010H
	DB	02bH
	DB	0aH
	DB	09eH
	DB	05H
	DB	0c9H
	DB	09H
	DB	0e4H
	DB	010H
	DB	0e4H
	DB	010H
	DB	082H
	DB	010H
	DB	082H
	DB	010H
	DB	036H
	DB	0cH
	DB	0d5H
	DB	0bH
	DB	098H
	DB	04H
	DB	08dH
	DB	0aH
	DB	02bH
	DB	0aH
	DB	03cH
	DB	05H
	DB	093H
	DB	0bH
	DB	0daH
	DB	04H
	DB	082H
	DB	010H
	DB	082H
	DB	010H
	DB	098H
	DB	04H
	DB	036H
	DB	04H
	DB	082H
	DB	010H
	DB	0c9H
	DB	09H
	DB	09eH
	DB	05H
	DB	02bH
	DB	0aH
	DB	026H
	DB	011H
	DB	07eH
	DB	05H
	DB	0cfH
	DB	0aH
	DB	0e4H
	DB	010H
	DB	0e4H
	DB	010H
	DB	082H
	DB	010H
	DB	082H
	DB	010H
	DB	0c9H
	DB	09H
	DB	09eH
	DB	05H
	DB	087H
	DB	011H
	DB	082H
	DB	010H
	DB	036H
	DB	04H
	DB	098H
	DB	0cH
	DB	082H
	DB	010H
	DB	082H
	DB	010H
	DB	08dH
	DB	0aH
	DB	09eH
	DB	05H
	DB	026H
	DB	011H
	DB	09eH
	DB	05H
	DB	08dH
	DB	0aH
	DB	082H
	DB	010H
	DB	082H
	DB	010H
	DB	082H
	DB	010H
	DB	036H
	DB	0cH
	DB	078H
	DB	04H
	DB	082H
	DB	010H
	DB	082H
	DB	010H
	DB	082H
	DB	010H
	DB	093H
	DB	0bH
	DB	03cH
	DB	05H
	DB	082H
	DB	010H
	DB	082H
	DB	010H
	DB	093H
	DB	0bH
	DB	03cH
	DB	05H
	DB	082H
	DB	010H
	DB	0c4H
	DB	010H
	DB	09eH
	DB	05H
	DB	0cfH
	DB	0aH
	DB	082H
	DB	010H
	DB	031H
	DB	0bH
	DB	07eH
	DB	05H
	DB	0e4H
	DB	010H
	DB	082H
	DB	010H
	DB	0daH
	DB	04H
	DB	0d5H
	DB	0bH
	DB	0c4H
	DB	010H
	DB	0e4H
	DB	010H
	DB	0e4H
	DB	010H
	DB	082H
	DB	010H
	DB	0a2H
	DB	010H
	DB	0a2H
	DB	018H
	DB	0a2H
	DB	010H
	DB	0a2H
	DB	010H
	DB	0a2H
	DB	018H
	DB	0a3H
	DB	010H
	DB	0a2H
	DB	010H
	DB	0a3H
	DB	018H
	DB	0a2H
	DB	010H
	DB	082H
	DB	010H
	DB	0a2H
	DB	010H
	DB	082H
	DB	010H
	DB	082H
	DB	010H
	DB	0a3H
	DB	018H
	DB	082H
	DB	010H
	DB	082H
	DB	010H
	DB	0a2H
	DB	010H
	DB	083H
	DB	018H
	DB	082H
	DB	010H
	DB	082H
	DB	010H
	DB	082H
	DB	010H
	DB	082H
	DB	010H
	DB	082H
	DB	010H
	DB	031H
	DB	0bH
	DB	07eH
	DB	05H
	DB	082H
	DB	010H
	DB	082H
	DB	010H
	DB	082H
	DB	010H
	DB	02bH
	DB	0aH
	DB	07eH
	DB	05H
	DB	07eH
	DB	05H
	DB	07eH
	DB	05H
	DB	03cH
	DB	05H
	DB	082H
	DB	010H
	DB	082H
	DB	010H
	DB	078H
	DB	04H
	DB	073H
	DB	0bH
	DB	093H
	DB	0bH
	DB	0d4H
	DB	0bH
	DB	073H
	DB	0bH
	DB	0d5H
	DB	0bH
	DB	031H
	DB	0bH
	DB	03cH
	DB	05H
	DB	082H
	DB	010H
	DB	082H
	DB	010H
	DB	078H
	DB	04H
	DB	0daH
	DB	04H
	DB	093H
	DB	0bH
	DB	0daH
	DB	04H
	DB	07eH
	DB	05H
	DB	025H
	DB	011H
	DB	026H
	DB	011H
	DB	07eH
	DB	05H
	DB	07eH
	DB	05H
	DB	07eH
	DB	05H
	DB	09eH
	DB	05H
	DB	088H
	DB	09H
	DB	082H
	DB	010H
	DB	0c9H
	DB	09H
	DB	07eH
	DB	05H
	DB	0daH
	DB	04H
	DB	0daH
	DB	04H
	DB	0daH
	DB	04H
	DB	0caH
	DB	011H
	DB	082H
	DB	010H
	DB	082H
	DB	010H
	DB	0d5H
	DB	0bH
	DB	078H
	DB	04H
	DB	062H
	DB	010H
	DB	098H
	DB	04H
	DB	0d4H
	DB	0bH
	DB	082H
	DB	010H
	DB	082H
	DB	010H
	DB	082H
	DB	010H
	DB	036H
	DB	0cH
	DB	078H
	DB	04H
	DB	082H
	DB	010H
	DB	082H
	DB	010H
	DB	082H
	DB	010H
	DB	073H
	DB	0bH
	DB	03cH
	DB	05H
	DB	082H
	DB	010H
	DB	082H
	DB	010H
	DB	073H
	DB	0bH
	DB	03cH
	DB	05H
	DB	082H
	DB	010H
	DB	0c4H
	DB	010H
	DB	09eH
	DB	05H
	DB	03cH
	DB	05H
	DB	0daH
	DB	04H
	DB	03cH
	DB	05H
	DB	06dH
	DB	0aH
	DB	082H
	DB	010H
	DB	082H
	DB	010H
	DB	0daH
	DB	04H
	DB	07eH
	DB	05H
	DB	09eH
	DB	05H
	DB	07eH
	DB	05H
	DB	08dH
	DB	0aH
	DB	082H
	DB	010H
	DB	082H
	DB	010H
	DB	0a3H
	DB	018H
	DB	083H
	DB	010H
	DB	082H
	DB	010H
	DB	0a2H
	DB	018H
	DB	082H
	DB	010H
	DB	082H
	DB	010H
	DB	0a2H
	DB	018H
	DB	083H
	DB	010H
	DB	0a2H
	DB	010H
	DB	082H
	DB	010H
	DB	082H
	DB	010H
	DB	082H
	DB	010H
	DB	082H
	DB	010H
	DB	082H
	DB	010H
	DB	082H
	DB	010H
	DB	082H
	DB	010H
	DB	082H
	DB	010H
	DB	082H
	DB	010H
	DB	082H
	DB	010H
	DB	082H
	DB	010H
	DB	082H
	DB	010H
	DB	082H
	DB	010H
	DB	031H
	DB	0bH
	DB	07eH
	DB	05H
	DB	082H
	DB	010H
	DB	082H
	DB	010H
	DB	082H
	DB	010H
	DB	02bH
	DB	0aH
	DB	07eH
	DB	05H
	DB	087H
	DB	011H
	DB	082H
	DB	010H
	DB	082H
	DB	010H
	DB	082H
	DB	010H
	DB	082H
	DB	010H
	DB	0daH
	DB	04H
	DB	093H
	DB	0bH
	DB	02bH
	DB	0aH
	DB	0daH
	DB	04H
	DB	098H
	DB	04H
	DB	06dH
	DB	0aH
	DB	0cfH
	DB	0aH
	DB	03cH
	DB	05H
	DB	062H
	DB	010H
	DB	062H
	DB	010H
	DB	098H
	DB	04H
	DB	0daH
	DB	04H
	DB	031H
	DB	0bH
	DB	0cfH
	DB	0aH
	DB	0c9H
	DB	09H
	DB	082H
	DB	010H
	DB	025H
	DB	09H
	DB	09eH
	DB	05H
	DB	08dH
	DB	0aH
	DB	062H
	DB	010H
	DB	082H
	DB	010H
	DB	082H
	DB	010H
	DB	082H
	DB	010H
	DB	0c9H
	DB	09H
	DB	09eH
	DB	05H
	DB	0cfH
	DB	0aH
	DB	0cfH
	DB	0aH
	DB	03cH
	DB	05H
	DB	087H
	DB	09H
	DB	082H
	DB	010H
	DB	082H
	DB	010H
	DB	03cH
	DB	05H
	DB	09eH
	DB	05H
	DB	03cH
	DB	05H
	DB	07eH
	DB	05H
	DB	03cH
	DB	05H
	DB	082H
	DB	010H
	DB	082H
	DB	010H
	DB	082H
	DB	010H
	DB	036H
	DB	04H
	DB	078H
	DB	04H
	DB	082H
	DB	010H
	DB	082H
	DB	010H
	DB	082H
	DB	010H
	DB	073H
	DB	0bH
	DB	03cH
	DB	05H
	DB	062H
	DB	010H
	DB	062H
	DB	010H
	DB	0d4H
	DB	0bH
	DB	0daH
	DB	04H
	DB	062H
	DB	010H
	DB	0c4H
	DB	010H
	DB	09eH
	DB	05H
	DB	072H
	DB	0bH
	DB	06dH
	DB	0aH
	DB	03cH
	DB	05H
	DB	08dH
	DB	0aH
	DB	062H
	DB	010H
	DB	082H
	DB	010H
	DB	0daH
	DB	04H
	DB	0d4H
	DB	0bH
	DB	082H
	DB	010H
	DB	082H
	DB	010H
	DB	082H
	DB	010H
	DB	082H
	DB	010H
	DB	082H
	DB	010H
	DB	082H
	DB	010H
	DB	082H
	DB	010H
	DB	082H
	DB	010H
	DB	082H
	DB	010H
	DB	082H
	DB	010H
	DB	082H
	DB	010H
	DB	082H
	DB	010H
	DB	082H
	DB	010H
	DB	082H
	DB	010H
	DB	082H
	DB	010H
	DB	082H
	DB	010H
	DB	082H
	DB	010H
	DB	0a2H
	DB	010H
	DB	082H
	DB	010H
	DB	082H
	DB	010H
	DB	0a2H
	DB	010H
	DB	082H
	DB	010H
	DB	0a2H
	DB	010H
	DB	0a2H
	DB	010H
	DB	082H
	DB	010H
	DB	082H
	DB	010H
	DB	082H
	DB	010H
	DB	031H
	DB	0bH
	DB	07eH
	DB	05H
	DB	061H
	DB	010H
	DB	082H
	DB	010H
	DB	082H
	DB	010H
	DB	02bH
	DB	0aH
	DB	07eH
	DB	05H
	DB	06dH
	DB	0aH
	DB	067H
	DB	09H
	DB	067H
	DB	09H
	DB	0c4H
	DB	010H
	DB	062H
	DB	010H
	DB	0daH
	DB	04H
	DB	031H
	DB	0bH
	DB	0c3H
	DB	08H
	DB	03cH
	DB	05H
	DB	03cH
	DB	05H
	DB	05H
	DB	09H
	DB	0cfH
	DB	0aH
	DB	09eH
	DB	05H
	DB	062H
	DB	010H
	DB	082H
	DB	010H
	DB	098H
	DB	04H
	DB	036H
	DB	0cH
	DB	062H
	DB	010H
	DB	062H
	DB	010H
	DB	082H
	DB	010H
	DB	062H
	DB	010H
	DB	0c4H
	DB	010H
	DB	07eH
	DB	05H
	DB	092H
	DB	03H
	DB	067H
	DB	09H
	DB	067H
	DB	09H
	DB	0c4H
	DB	010H
	DB	082H
	DB	010H
	DB	0c9H
	DB	09H
	DB	07eH
	DB	05H
	DB	067H
	DB	09H
	DB	062H
	DB	010H
	DB	0daH
	DB	04H
	DB	036H
	DB	0cH
	DB	062H
	DB	010H
	DB	0c9H
	DB	09H
	DB	09eH
	DB	05H
	DB	06dH
	DB	0aH
	DB	067H
	DB	09H
	DB	02bH
	DB	0aH
	DB	07eH
	DB	05H
	DB	0c9H
	DB	09H
	DB	082H
	DB	010H
	DB	062H
	DB	010H
	DB	036H
	DB	04H
	DB	078H
	DB	04H
	DB	062H
	DB	010H
	DB	082H
	DB	010H
	DB	082H
	DB	010H
	DB	06dH
	DB	0aH
	DB	07eH
	DB	05H
	DB	08dH
	DB	0aH
	DB	087H
	DB	09H
	DB	0daH
	DB	04H
	DB	036H
	DB	04H
	DB	082H
	DB	010H
	DB	0c4H
	DB	010H
	DB	07eH
	DB	05H
	DB	0cfH
	DB	0aH
	DB	061H
	DB	010H
	DB	093H
	DB	0bH
	DB	03cH
	DB	05H
	DB	062H
	DB	010H
	DB	062H
	DB	010H
	DB	0daH
	DB	04H
	DB	098H
	DB	04H
	DB	067H
	DB	09H
	DB	067H
	DB	09H
	DB	026H
	DB	011H
	DB	082H
	DB	010H
	DB	082H
	DB	010H
	DB	082H
	DB	010H
	DB	082H
	DB	010H
	DB	082H
	DB	010H
	DB	083H
	DB	010H
	DB	0a2H
	DB	010H
	DB	082H
	DB	010H
	DB	082H
	DB	010H
	DB	082H
	DB	010H
	DB	082H
	DB	010H
	DB	082H
	DB	010H
	DB	082H
	DB	010H
	DB	0a2H
	DB	010H
	DB	083H
	DB	018H
	DB	082H
	DB	010H
	DB	0a2H
	DB	010H
	DB	083H
	DB	018H
	DB	082H
	DB	010H
	DB	082H
	DB	010H
	DB	083H
	DB	018H
	DB	082H
	DB	010H
	DB	082H
	DB	010H
	DB	082H
	DB	010H
	DB	031H
	DB	0bH
	DB	07eH
	DB	05H
	DB	082H
	DB	010H
	DB	082H
	DB	010H
	DB	062H
	DB	010H
	DB	0c3H
	DB	010H
	DB	098H
	DB	04H
	DB	09eH
	DB	05H
	DB	07eH
	DB	05H
	DB	09eH
	DB	05H
	DB	02bH
	DB	0aH
	DB	062H
	DB	010H
	DB	03cH
	DB	05H
	DB	031H
	DB	0bH
	DB	061H
	DB	010H
	DB	062H
	DB	010H
	DB	062H
	DB	010H
	DB	062H
	DB	010H
	DB	06dH
	DB	0aH
	DB	09eH
	DB	05H
	DB	062H
	DB	010H
	DB	062H
	DB	010H
	DB	078H
	DB	04H
	DB	036H
	DB	0cH
	DB	062H
	DB	010H
	DB	062H
	DB	010H
	DB	081H
	DB	08H
	DB	062H
	DB	010H
	DB	062H
	DB	010H
	DB	092H
	DB	03H
	DB	07eH
	DB	05H
	DB	09eH
	DB	05H
	DB	09eH
	DB	05H
	DB	031H
	DB	0bH
	DB	082H
	DB	010H
	DB	0c9H
	DB	09H
	DB	09eH
	DB	05H
	DB	067H
	DB	09H
	DB	062H
	DB	010H
	DB	093H
	DB	0bH
	DB	03cH
	DB	05H
	DB	062H
	DB	010H
	DB	073H
	DB	0bH
	DB	03cH
	DB	05H
	DB	062H
	DB	010H
	DB	061H
	DB	010H
	DB	062H
	DB	010H
	DB	03cH
	DB	05H
	DB	073H
	DB	0bH
	DB	062H
	DB	010H
	DB	062H
	DB	010H
	DB	036H
	DB	0cH
	DB	098H
	DB	04H
	DB	082H
	DB	010H
	DB	082H
	DB	010H
	DB	082H
	DB	010H
	DB	0c3H
	DB	08H
	DB	036H
	DB	04H
	DB	07eH
	DB	05H
	DB	09eH
	DB	05H
	DB	03cH
	DB	05H
	DB	0c9H
	DB	09H
	DB	062H
	DB	010H
	DB	0c3H
	DB	08H
	DB	09eH
	DB	05H
	DB	0cfH
	DB	0aH
	DB	061H
	DB	08H
	DB	02bH
	DB	0aH
	DB	07eH
	DB	05H
	DB	0c9H
	DB	09H
	DB	082H
	DB	010H
	DB	08dH
	DB	0aH
	DB	03cH
	DB	05H
	DB	07eH
	DB	05H
	DB	09eH
	DB	05H
	DB	098H
	DB	04H
	DB	082H
	DB	010H
	DB	082H
	DB	010H
	DB	082H
	DB	010H
	DB	0a2H
	DB	010H
	DB	082H
	DB	010H
	DB	082H
	DB	018H
	DB	0a2H
	DB	010H
	DB	082H
	DB	010H
	DB	083H
	DB	010H
	DB	0a2H
	DB	010H
	DB	082H
	DB	010H
	DB	082H
	DB	010H
	DB	082H
	DB	010H
	DB	082H
	DB	010H
	DB	082H
	DB	010H
	DB	082H
	DB	010H
	DB	082H
	DB	010H
	DB	082H
	DB	010H
	DB	082H
	DB	010H
	DB	082H
	DB	010H
	DB	082H
	DB	010H
	DB	082H
	DB	010H
	DB	082H
	DB	010H
	DB	082H
	DB	010H
	DB	061H
	DB	010H
	DB	082H
	DB	08H
	DB	082H
	DB	010H
	DB	082H
	DB	010H
	DB	082H
	DB	010H
	DB	062H
	DB	010H
	DB	062H
	DB	010H
	DB	062H
	DB	010H
	DB	082H
	DB	010H
	DB	082H
	DB	010H
	DB	082H
	DB	010H
	DB	061H
	DB	010H
	DB	082H
	DB	010H
	DB	061H
	DB	08H
	DB	062H
	DB	010H
	DB	062H
	DB	08H
	DB	061H
	DB	010H
	DB	061H
	DB	010H
	DB	082H
	DB	010H
	DB	081H
	DB	010H
	DB	062H
	DB	010H
	DB	082H
	DB	010H
	DB	082H
	DB	010H
	DB	062H
	DB	08H
	DB	082H
	DB	010H
	DB	082H
	DB	010H
	DB	082H
	DB	010H
	DB	082H
	DB	010H
	DB	082H
	DB	010H
	DB	061H
	DB	010H
	DB	062H
	DB	010H
	DB	082H
	DB	010H
	DB	062H
	DB	010H
	DB	062H
	DB	010H
	DB	082H
	DB	010H
	DB	082H
	DB	010H
	DB	062H
	DB	010H
	DB	062H
	DB	010H
	DB	062H
	DB	010H
	DB	062H
	DB	08H
	DB	082H
	DB	010H
	DB	082H
	DB	010H
	DB	082H
	DB	010H
	DB	062H
	DB	010H
	DB	061H
	DB	08H
	DB	062H
	DB	010H
	DB	062H
	DB	010H
	DB	082H
	DB	010H
	DB	081H
	DB	010H
	DB	082H
	DB	010H
	DB	062H
	DB	010H
	DB	062H
	DB	010H
	DB	082H
	DB	010H
	DB	082H
	DB	010H
	DB	062H
	DB	010H
	DB	082H
	DB	010H
	DB	062H
	DB	010H
	DB	082H
	DB	010H
	DB	0c3H
	DB	010H
	DB	0c4H
	DB	08H
	DB	062H
	DB	010H
	DB	062H
	DB	010H
	DB	082H
	DB	010H
	DB	082H
	DB	010H
	DB	061H
	DB	08H
	DB	062H
	DB	010H
	DB	062H
	DB	010H
	DB	061H
	DB	08H
	DB	082H
	DB	010H
	DB	082H
	DB	010H
	DB	061H
	DB	010H
	DB	062H
	DB	08H
	DB	062H
	DB	010H
	DB	062H
	DB	010H
	DB	082H
	DB	010H
	DB	082H
	DB	010H
	DB	082H
	DB	010H
	DB	082H
	DB	010H
	DB	082H
	DB	010H
	DB	082H
	DB	010H
	DB	082H
	DB	010H
	DB	082H
	DB	010H
	DB	082H
	DB	010H
	DB	082H
	DB	010H
	DB	082H
	DB	010H
	DB	082H
	DB	010H
	DB	082H
	DB	010H
	DB	082H
	DB	010H
	DB	082H
	DB	010H
	DB	082H
	DB	010H
	DB	082H
	DB	010H
	DB	082H
	DB	010H
	DB	082H
	DB	010H
	DB	082H
	DB	010H
	DB	082H
	DB	010H
	DB	082H
	DB	010H
	DB	082H
	DB	010H
	DB	082H
	DB	010H
	DB	082H
	DB	010H
	DB	082H
	DB	010H
	DB	082H
	DB	010H
	DB	061H
	DB	010H
	DB	082H
	DB	010H
	DB	082H
	DB	010H
	DB	082H
	DB	08H
	DB	062H
	DB	010H
	DB	082H
	DB	010H
	DB	061H
	DB	08H
	DB	062H
	DB	010H
	DB	062H
	DB	010H
	DB	081H
	DB	08H
	DB	062H
	DB	010H
	DB	062H
	DB	010H
	DB	082H
	DB	010H
	DB	082H
	DB	08H
	DB	082H
	DB	010H
	DB	082H
	DB	010H
	DB	062H
	DB	08H
	DB	082H
	DB	08H
	DB	062H
	DB	010H
	DB	081H
	DB	08H
	DB	082H
	DB	010H
	DB	062H
	DB	010H
	DB	061H
	DB	08H
	DB	082H
	DB	010H
	DB	082H
	DB	010H
	DB	062H
	DB	010H
	DB	082H
	DB	010H
	DB	062H
	DB	08H
	DB	082H
	DB	010H
	DB	062H
	DB	010H
	DB	081H
	DB	010H
	DB	062H
	DB	08H
	DB	061H
	DB	010H
	DB	082H
	DB	010H
	DB	062H
	DB	010H
	DB	081H
	DB	010H
	DB	082H
	DB	010H
	DB	082H
	DB	010H
	DB	061H
	DB	010H
	DB	062H
	DB	08H
	DB	081H
	DB	010H
	DB	062H
	DB	010H
	DB	082H
	DB	08H
	DB	082H
	DB	010H
	DB	082H
	DB	010H
	DB	081H
	DB	08H
	DB	062H
	DB	010H
	DB	082H
	DB	08H
	DB	082H
	DB	08H
	DB	062H
	DB	010H
	DB	082H
	DB	010H
	DB	062H
	DB	08H
	DB	082H
	DB	010H
	DB	082H
	DB	010H
	DB	082H
	DB	010H
	DB	062H
	DB	010H
	DB	062H
	DB	010H
	DB	061H
	DB	08H
	DB	062H
	DB	010H
	DB	082H
	DB	010H
	DB	062H
	DB	010H
	DB	082H
	DB	010H
	DB	062H
	DB	010H
	DB	082H
	DB	010H
	DB	082H
	DB	010H
	DB	082H
	DB	010H
	DB	062H
	DB	010H
	DB	082H
	DB	010H
	DB	082H
	DB	010H
	DB	061H
	DB	010H
	DB	082H
	DB	010H
	DB	082H
	DB	010H
	DB	061H
	DB	010H
	DB	062H
	DB	010H
	DB	082H
	DB	010H
	DB	082H
	DB	010H
	DB	082H
	DB	010H
	DB	082H
	DB	010H
	DB	082H
	DB	010H
	DB	082H
	DB	010H
	DB	082H
	DB	010H
	DB	082H
	DB	010H
	DB	082H
	DB	010H
	DB	082H
	DB	010H
	DB	082H
	DB	010H
	DB	082H
	DB	010H
	DB	082H
	DB	010H
	DB	082H
	DB	010H
	DB	082H
	DB	010H
	DB	082H
	DB	010H
	DB	082H
	DB	010H
	DB	082H
	DB	010H
	DB	082H
	DB	010H
	DB	082H
	DB	010H
	DB	082H
	DB	010H
	DB	082H
	DB	010H
	DB	082H
	DB	010H
	DB	082H
	DB	010H
	DB	082H
	DB	010H
	DB	082H
	DB	010H
	DB	082H
	DB	010H
	DB	062H
	DB	010H
	DB	082H
	DB	010H
	DB	081H
	DB	010H
	DB	082H
	DB	010H
	DB	062H
	DB	08H
	DB	081H
	DB	010H
	DB	082H
	DB	010H
	DB	062H
	DB	08H
	DB	082H
	DB	010H
	DB	082H
	DB	010H
	DB	082H
	DB	010H
	DB	082H
	DB	010H
	DB	082H
	DB	010H
	DB	082H
	DB	010H
	DB	082H
	DB	010H
	DB	082H
	DB	010H
	DB	082H
	DB	010H
	DB	082H
	DB	010H
	DB	082H
	DB	010H
	DB	082H
	DB	010H
	DB	082H
	DB	010H
	DB	082H
	DB	010H
	DB	082H
	DB	010H
	DB	082H
	DB	010H
	DB	081H
	DB	010H
	DB	082H
	DB	010H
	DB	082H
	DB	010H
	DB	061H
	DB	08H
	DB	082H
	DB	010H
	DB	082H
	DB	010H
	DB	062H
	DB	08H
	DB	082H
	DB	010H
	DB	082H
	DB	010H
	DB	082H
	DB	010H
	DB	082H
	DB	010H
	DB	082H
	DB	08H
	DB	061H
	DB	010H
	DB	082H
	DB	010H
	DB	082H
	DB	010H
	DB	062H
	DB	08H
	DB	061H
	DB	010H
	DB	082H
	DB	010H
	DB	062H
	DB	010H
	DB	061H
	DB	010H
	DB	082H
	DB	010H
	DB	082H
	DB	010H
	DB	082H
	DB	010H
	DB	082H
	DB	010H
	DB	082H
	DB	010H
	DB	082H
	DB	010H
	DB	082H
	DB	010H
	DB	062H
	DB	010H
	DB	082H
	DB	010H
	DB	082H
	DB	010H
	DB	082H
	DB	010H
	DB	062H
	DB	08H
	DB	082H
	DB	010H
	DB	081H
	DB	010H
	DB	062H
	DB	010H
	DB	081H
	DB	08H
	DB	082H
	DB	010H
	DB	082H
	DB	010H
	DB	082H
	DB	010H
	DB	061H
	DB	08H
	DB	062H
	DB	010H
	DB	082H
	DB	010H
	DB	082H
	DB	010H
	DB	082H
	DB	08H
	DB	082H
	DB	010H
	DB	062H
	DB	010H
	DB	081H
	DB	08H
	DB	062H
	DB	010H
	DB	062H
	DB	010H
	DB	082H
	DB	010H
	DB	082H
	DB	010H
	DB	082H
	DB	010H
	DB	082H
	DB	010H
	DB	082H
	DB	010H
	DB	082H
	DB	010H
	DB	082H
	DB	010H
	DB	082H
	DB	010H
	DB	082H
	DB	010H
	DB	082H
	DB	010H
	DB	082H
	DB	010H
	DB	082H
	DB	010H
	DB	082H
	DB	010H
	DB	082H
	DB	010H
	DB	082H
	DB	010H
	DB	082H
	DB	010H
	DB	082H
	DB	010H
	DB	082H
	DB	010H
	DB	082H
	DB	010H
	DB	082H
	DB	010H
	DB	082H
	DB	010H
	DB	082H
	DB	010H
	DB	082H
	DB	010H
	DB	082H
	DB	010H
	DB	062H
	DB	010H
	DB	082H
	DB	010H
	DB	082H
	DB	010H
	DB	082H
	DB	08H
	DB	062H
	DB	010H
	DB	082H
	DB	010H
	DB	082H
	DB	010H
	DB	082H
	DB	010H
	DB	082H
	DB	010H
	DB	082H
	DB	010H
	DB	082H
	DB	010H
	DB	082H
	DB	010H
	DB	082H
	DB	010H
	DB	082H
	DB	010H
	DB	061H
	DB	010H
	DB	062H
	DB	010H
	DB	082H
	DB	010H
	DB	061H
	DB	010H
	DB	082H
	DB	010H
	DB	082H
	DB	010H
	DB	062H
	DB	010H
	DB	082H
	DB	010H
	DB	062H
	DB	010H
	DB	082H
	DB	010H
	DB	082H
	DB	010H
	DB	062H
	DB	010H
	DB	082H
	DB	08H
	DB	082H
	DB	010H
	DB	062H
	DB	010H
	DB	082H
	DB	010H
	DB	082H
	DB	010H
	DB	082H
	DB	010H
	DB	082H
	DB	010H
	DB	082H
	DB	010H
	DB	082H
	DB	010H
	DB	082H
	DB	010H
	DB	082H
	DB	010H
	DB	062H
	DB	010H
	DB	082H
	DB	010H
	DB	082H
	DB	010H
	DB	082H
	DB	010H
	DB	082H
	DB	010H
	DB	082H
	DB	010H
	DB	082H
	DB	010H
	DB	082H
	DB	010H
	DB	082H
	DB	010H
	DB	082H
	DB	010H
	DB	082H
	DB	010H
	DB	082H
	DB	010H
	DB	062H
	DB	010H
	DB	081H
	DB	010H
	DB	082H
	DB	010H
	DB	062H
	DB	010H
	DB	081H
	DB	010H
	DB	082H
	DB	010H
	DB	082H
	DB	010H
	DB	081H
	DB	010H
	DB	082H
	DB	010H
	DB	082H
	DB	010H
	DB	062H
	DB	010H
	DB	082H
	DB	010H
	DB	082H
	DB	010H
	DB	082H
	DB	010H
	DB	062H
	DB	010H
	DB	082H
	DB	010H
	DB	082H
	DB	010H
	DB	082H
	DB	010H
	DB	082H
	DB	010H
	DB	081H
	DB	010H
	DB	062H
	DB	010H
	DB	082H
	DB	010H
	DB	082H
	DB	010H
	DB	082H
	DB	010H
	DB	082H
	DB	010H
	DB	082H
	DB	010H
	DB	082H
	DB	010H
	DB	082H
	DB	010H
	DB	082H
	DB	010H
	DB	062H
	DB	010H
	DB	082H
	DB	010H
	DB	082H
	DB	010H
	DB	082H
	DB	010H
	DB	082H
	DB	010H
	DB	082H
	DB	010H
	DB	082H
	DB	010H
	DB	082H
	DB	010H
	DB	082H
	DB	010H
	DB	082H
	DB	010H
	DB	082H
	DB	010H
	DB	082H
	DB	010H
	DB	082H
	DB	010H
	DB	082H
	DB	010H
	DB	082H
	DB	010H
	DB	082H
	DB	010H
	DB	082H
	DB	010H
	DB	082H
	DB	010H
	DB	082H
	DB	010H
	DB	082H
	DB	010H
	DB	082H
	DB	010H
	DB	082H
	DB	010H
	DB	062H
	DB	010H
	DB	082H
	DB	010H
	DB	082H
	DB	010H
	DB	082H
	DB	010H
	DB	082H
	DB	010H
	DB	062H
	DB	010H
	DB	082H
	DB	010H
	DB	082H
	DB	010H
	DB	062H
	DB	010H
	DB	082H
	DB	010H
	DB	081H
	DB	010H
	DB	062H
	DB	010H
	DB	082H
	DB	010H
	DB	082H
	DB	08H
	DB	082H
	DB	010H
	DB	082H
	DB	010H
	DB	082H
	DB	010H
	DB	082H
	DB	010H
	DB	062H
	DB	010H
	DB	082H
	DB	010H
	DB	081H
	DB	010H
	DB	082H
	DB	08H
	DB	062H
	DB	010H
	DB	081H
	DB	010H
	DB	082H
	DB	010H
	DB	062H
	DB	010H
	DB	082H
	DB	010H
	DB	082H
	DB	010H
	DB	062H
	DB	010H
	DB	082H
	DB	010H
	DB	082H
	DB	010H
	DB	062H
	DB	010H
	DB	081H
	DB	010H
	DB	082H
	DB	010H
	DB	062H
	DB	010H
	DB	081H
	DB	010H
	DB	082H
	DB	08H
	DB	062H
	DB	010H
	DB	082H
	DB	010H
	DB	082H
	DB	010H
	DB	062H
	DB	010H
	DB	082H
	DB	010H
	DB	082H
	DB	010H
	DB	082H
	DB	010H
	DB	082H
	DB	08H
	DB	082H
	DB	010H
	DB	082H
	DB	010H
	DB	062H
	DB	08H
	DB	082H
	DB	010H
	DB	082H
	DB	010H
	DB	062H
	DB	010H
	DB	082H
	DB	010H
	DB	082H
	DB	08H
	DB	062H
	DB	010H
	DB	082H
	DB	010H
	DB	062H
	DB	08H
	DB	082H
	DB	010H
	DB	082H
	DB	010H
	DB	082H
	DB	010H
	DB	082H
	DB	010H
	DB	062H
	DB	08H
	DB	082H
	DB	010H
	DB	082H
	DB	010H
	DB	062H
	DB	010H
	DB	081H
	DB	010H
	DB	082H
	DB	010H
	DB	062H
	DB	010H
	DB	082H
	DB	08H
	DB	082H
	DB	010H
	DB	062H
	DB	010H
	DB	082H
	DB	010H
	DB	081H
	DB	010H
	DB	062H
	DB	010H
	DB	082H
	DB	010H
	DB	082H
	DB	08H
	DB	082H
	DB	010H
	DB	081H
	DB	010H
	DB	062H
	DB	010H
	DB	082H
	DB	010H
	DB	082H
	DB	010H
	DB	082H
	DB	010H
	DB	082H
	DB	010H
	DB	082H
	DB	010H
	DB	082H
	DB	010H
	DB	082H
	DB	010H
	DB	082H
	DB	010H
	DB	082H
	DB	010H
	DB	082H
	DB	010H
	DB	062H
	DB	010H
	DB	082H
	DB	010H
	DB	062H
	DB	010H
	DB	062H
	DB	010H
	DB	082H
	DB	010H
	DB	062H
	DB	010H
	DB	082H
	DB	010H
	DB	062H
	DB	010H
	DB	082H
	DB	010H
	DB	062H
	DB	010H
	DB	082H
	DB	010H
	DB	082H
	DB	010H
	DB	082H
	DB	010H
	DB	061H
	DB	08H
	DB	082H
	DB	010H
	DB	082H
	DB	010H
	DB	061H
	DB	010H
	DB	082H
	DB	08H
	DB	082H
	DB	010H
	DB	081H
	DB	010H
	DB	062H
	DB	08H
	DB	082H
	DB	010H
	DB	082H
	DB	010H
	DB	062H
	DB	010H
	DB	082H
	DB	010H
	DB	082H
	DB	010H
	DB	062H
	DB	010H
	DB	082H
	DB	08H
	DB	082H
	DB	010H
	DB	082H
	DB	010H
	DB	082H
	DB	08H
	DB	062H
	DB	010H
	DB	082H
	DB	010H
	DB	082H
	DB	010H
	DB	082H
	DB	010H
	DB	082H
	DB	010H
	DB	082H
	DB	08H
	DB	081H
	DB	010H
	DB	082H
	DB	010H
	DB	082H
	DB	010H
	DB	081H
	DB	08H
	DB	082H
	DB	010H
	DB	082H
	DB	010H
	DB	062H
	DB	08H
	DB	082H
	DB	010H
	DB	082H
	DB	010H
	DB	062H
	DB	010H
	DB	082H
	DB	010H
	DB	082H
	DB	010H
	DB	081H
	DB	010H
	DB	082H
	DB	08H
	DB	082H
	DB	010H
	DB	061H
	DB	010H
	DB	082H
	DB	08H
	DB	082H
	DB	010H
	DB	061H
	DB	010H
	DB	062H
	DB	010H
	DB	082H
	DB	010H
	DB	081H
	DB	010H
	DB	062H
	DB	010H
	DB	082H
	DB	010H
	DB	081H
	DB	010H
	DB	082H
	DB	010H
	DB	082H
	DB	010H
	DB	082H
	DB	010H
	DB	082H
	DB	010H
	DB	082H
	DB	010H
	DB	082H
	DB	010H
	DB	062H
	DB	010H
	DB	081H
	DB	010H
	DB	082H
	DB	08H
	DB	062H
	DB	010H
	DB	081H
	DB	010H
	DB	082H
	DB	010H
	DB	082H
	DB	010H
	DB	082H
	DB	08H
	DB	082H
	DB	010H
	DB	062H
	DB	010H
	DB	082H
	DB	010H
	DB	082H
	DB	010H
	DB	082H
	DB	010H
	DB	082H
	DB	08H
	DB	082H
	DB	010H
	DB	062H
	DB	010H
	DB	082H
	DB	08H
	DB	082H
	DB	010H
	DB	062H
	DB	010H
	DB	082H
	DB	010H
	DB	082H
	DB	08H
	DB	082H
	DB	010H
	DB	082H
	DB	010H
	DB	062H
	DB	010H
	DB	082H
	DB	010H
	DB	062H
	DB	010H
	DB	082H
	DB	010H
	DB	062H
	DB	010H
	DB	082H
	DB	010H
	DB	062H
	DB	010H
	DB	082H
	DB	010H
	DB	082H
	DB	010H
	DB	062H
	DB	010H
	DB	062H
	DB	010H
	DB	081H
	DB	08H
	DB	062H
	DB	010H
	DB	062H
	DB	010H
	DB	082H
	DB	010H
	DB	062H
	DB	010H
	DB	061H
	DB	08H
	DB	062H
	DB	010H
	DB	062H
	DB	010H
	DB	061H
	DB	08H
	DB	062H
	DB	010H
	DB	062H
	DB	010H
	DB	061H
	DB	08H
	DB	062H
	DB	010H
	DB	062H
	DB	010H
	DB	061H
	DB	08H
	DB	062H
	DB	010H
	DB	062H
	DB	010H
	DB	061H
	DB	08H
	DB	082H
	DB	010H
	DB	062H
	DB	010H
	DB	061H
	DB	08H
	DB	082H
	DB	08H
	DB	061H
	DB	010H
	DB	061H
	DB	010H
	DB	062H
	DB	08H
	DB	061H
	DB	010H
	DB	061H
	DB	010H
	DB	062H
	DB	08H
	DB	061H
	DB	010H
	DB	061H
	DB	010H
	DB	062H
	DB	08H
	DB	062H
	DB	010H
	DB	061H
	DB	010H
	DB	062H
	DB	08H
	DB	062H
	DB	010H
	DB	061H
	DB	08H
	DB	062H
	DB	010H
	DB	062H
	DB	08H
	DB	061H
	DB	010H
	DB	062H
	DB	010H
	DB	061H
	DB	08H
	DB	061H
	DB	010H
	DB	082H
	DB	08H
	DB	061H
	DB	010H
	DB	062H
	DB	08H
	DB	062H
	DB	08H
	DB	061H
	DB	010H
	DB	062H
	DB	010H
	DB	062H
	DB	08H
	DB	061H
	DB	010H
	DB	082H
	DB	010H
	DB	062H
	DB	08H
	DB	061H
	DB	010H
	DB	062H
	DB	010H
	DB	062H
	DB	08H
	DB	061H
	DB	010H
	DB	062H
	DB	08H
	DB	082H
	DB	010H
	DB	061H
	DB	08H
	DB	062H
	DB	08H
	DB	062H
	DB	010H
	DB	061H
	DB	08H
	DB	061H
	DB	010H
	DB	062H
	DB	08H
	DB	061H
	DB	010H
	DB	061H
	DB	010H
	DB	062H
	DB	08H
	DB	062H
	DB	010H
	DB	061H
	DB	010H
	DB	062H
	DB	08H
	DB	062H
	DB	010H
	DB	061H
	DB	010H
	DB	062H
	DB	08H
	DB	061H
	DB	010H
	DB	062H
	DB	08H
	DB	061H
	DB	010H
	DB	061H
	DB	08H
	DB	062H
	DB	010H
	DB	061H
	DB	010H
	DB	061H
	DB	08H
	DB	062H
	DB	010H
	DB	062H
	DB	010H
	DB	081H
	DB	08H
	DB	061H
	DB	010H
	DB	062H
	DB	010H
	DB	061H
	DB	08H
	DB	062H
	DB	010H
	DB	061H
	DB	010H
	DB	062H
	DB	08H
	DB	061H
	DB	08H
	DB	062H
	DB	010H
	DB	082H
	DB	010H
	DB	061H
	DB	010H
	DB	062H
	DB	010H
	DB	062H
	DB	010H
	DB	062H
	DB	010H
	DB	062H
	DB	010H
	DB	062H
	DB	010H
	DB	082H
	DB	010H
	DB	082H
	DB	010H
	DB	082H
	DB	010H
	DB	061H
	DB	08H
	DB	082H
	DB	010H
	DB	082H
	DB	010H
	DB	061H
	DB	08H
	DB	082H
	DB	010H
	DB	082H
	DB	010H
	DB	082H
	DB	010H
	DB	081H
	DB	08H
	DB	082H
	DB	010H
	DB	082H
	DB	010H
	DB	082H
	DB	010H
	DB	082H
	DB	010H
	DB	082H
	DB	010H
	DB	082H
	DB	08H
	DB	082H
	DB	010H
	DB	062H
	DB	010H
	DB	082H
	DB	010H
	DB	082H
	DB	010H
	DB	061H
	DB	010H
	DB	082H
	DB	010H
	DB	082H
	DB	010H
	DB	062H
	DB	010H
	DB	082H
	DB	08H
	DB	082H
	DB	010H
	DB	082H
	DB	010H
	DB	062H
	DB	010H
	DB	082H
	DB	010H
	DB	082H
	DB	010H
	DB	082H
	DB	010H
	DB	082H
	DB	08H
	DB	081H
	DB	010H
	DB	062H
	DB	010H
	DB	082H
	DB	010H
	DB	082H
	DB	010H
	DB	062H
	DB	010H
	DB	082H
	DB	010H
	DB	082H
	DB	010H
	DB	062H
	DB	010H
	DB	082H
	DB	010H
	DB	082H
	DB	010H
	DB	062H
	DB	010H
	DB	082H
	DB	010H
	DB	082H
	DB	010H
	DB	081H
	DB	010H
	DB	082H
	DB	010H
	DB	082H
	DB	010H
	DB	062H
	DB	010H
	DB	082H
	DB	010H
	DB	082H
	DB	010H
	DB	062H
	DB	010H
	DB	082H
	DB	010H
	DB	082H
	DB	010H
	DB	082H
	DB	08H
	DB	082H
	DB	010H
	DB	082H
	DB	010H
	DB	062H
	DB	010H
	DB	082H
	DB	010H
	DB	082H
	DB	010H
	DB	062H
	DB	010H
	DB	082H
	DB	010H
	DB	082H
	DB	010H
	DB	062H
	DB	08H
	DB	082H
	DB	010H
	DB	082H
	DB	010H
	DB	082H
	DB	08H
	DB	082H
	DB	010H
	DB	082H
	DB	010H
	DB	082H
	DB	010H
	DB	082H
	DB	010H
	DB	082H
	DB	010H
	DB	082H
	DB	08H
	DB	061H
	DB	010H
	DB	082H
	DB	010H
	DB	082H
	DB	010H
	DB	082H
	DB	010H
	DB	082H
	DB	08H
	DB	082H
	DB	010H
	DB	062H
	DB	010H
	DB	082H
	DB	010H
	DB	082H
	DB	010H
	DB	061H
	DB	010H
	DB	082H
	DB	010H
	DB	082H
	DB	010H
	DB	062H
	DB	010H
	DB	082H
	DB	010H
	DB	081H
	DB	010H
	DB	062H
	DB	010H
	DB	082H
	DB	010H
	DB	082H
	DB	010H
	DB	081H
	DB	08H
	DB	062H
	DB	010H
	DB	082H
	DB	08H
	DB	082H
	DB	08H
	DB	081H
	DB	010H
	DB	082H
	DB	08H
	DB	081H
	DB	010H
	DB	062H
	DB	010H
	DB	062H
	DB	010H
	DB	061H
	DB	08H
	DB	082H
	DB	010H
	DB	062H
	DB	010H
	DB	081H
	DB	08H
	DB	062H
	DB	010H
	DB	082H
	DB	010H
	DB	062H
	DB	010H
	DB	082H
	DB	010H
	DB	061H
	DB	08H
	DB	062H
	DB	010H
	DB	082H
	DB	010H
	DB	061H
	DB	08H
	DB	062H
	DB	010H
	DB	081H
	DB	010H
	DB	062H
	DB	08H
	DB	061H
	DB	010H
	DB	082H
	DB	010H
	DB	081H
	DB	010H
	DB	062H
	DB	08H
	DB	062H
	DB	010H
	DB	082H
	DB	08H
	DB	062H
	DB	010H
	DB	062H
	DB	010H
	DB	081H
	DB	010H
	DB	062H
	DB	010H
	DB	082H
	DB	010H
	DB	061H
	DB	08H
	DB	082H
	DB	010H
	DB	082H
	DB	08H
	DB	061H
	DB	010H
	DB	062H
	DB	010H
	DB	082H
	DB	010H
	DB	062H
	DB	08H
	DB	081H
	DB	010H
	DB	082H
	DB	010H
	DB	061H
	DB	08H
	DB	082H
	DB	010H
	DB	061H
	DB	010H
	DB	081H
	DB	08H
	DB	062H
	DB	010H
	DB	082H
	DB	08H
	DB	082H
	DB	010H
	DB	061H
	DB	010H
	DB	062H
	DB	08H
	DB	062H
	DB	010H
	DB	062H
	DB	010H
	DB	081H
	DB	08H
	DB	062H
	DB	010H
	DB	081H
	DB	08H
	DB	082H
	DB	010H
	DB	061H
	DB	08H
	DB	061H
	DB	010H
	DB	082H
	DB	010H
	DB	061H
	DB	08H
	DB	062H
	DB	010H
	DB	081H
	DB	010H
	DB	062H
	DB	010H
	DB	081H
	DB	08H
	DB	061H
	DB	010H
	DB	062H
	DB	010H
	DB	081H
	DB	08H
	DB	082H
	DB	010H
	DB	062H
	DB	010H
	DB	081H
	DB	010H
	DB	062H
	DB	010H
	DB	062H
	DB	010H
	DB	081H
	DB	010H
	DB	062H
	DB	08H
	DB	061H
	DB	010H
	DB	082H
	DB	08H
	DB	061H
	DB	010H
	DB	062H
	DB	010H
	DB	082H
	DB	010H
	DB	082H
	DB	010H
	DB	062H
	DB	010H
	DB	082H
	DB	010H
	DB	062H
	DB	010H
	DB	061H
	DB	010H
	DB	082H
	DB	08H
	DB	082H
	DB	010H
	DB	062H
	DB	010H
	DB	081H
	DB	08H
	DB	062H
	DB	08H
	DB	062H
	DB	010H
	DB	082H
	DB	08H
	DB	062H
	DB	010H
	DB	082H
	DB	08H
	DB	082H
	DB	010H
	DB	062H
	DB	08H
	DB	082H
	DB	010H
	DB	082H
	DB	010H
	DB	062H
	DB	010H
	DB	061H
	DB	010H
	DB	082H
	DB	010H
	DB	062H
	DB	010H
	DB	062H
	DB	010H
	DB	081H
	DB	010H
	DB	062H
	DB	08H
	DB	082H
	DB	010H
	DB	062H
	DB	010H
	DB	082H
	DB	010H
	DB	062H
	DB	010H
	DB	082H
	DB	010H
	DB	062H
	DB	010H
	DB	061H
	DB	08H
	DB	082H
	DB	010H
	DB	062H
	DB	010H
	DB	061H
	DB	08H
	DB	082H
	DB	010H
	DB	062H
	DB	010H
	DB	062H
	DB	010H
	DB	082H
	DB	08H
	DB	062H
	DB	010H
	DB	062H
	DB	010H
	DB	081H
	DB	010H
	DB	062H
	DB	010H
	DB	062H
	DB	010H
	DB	082H
	DB	08H
	DB	061H
	DB	010H
	DB	082H
	DB	010H
	DB	081H
	DB	010H
	DB	062H
	DB	08H
	DB	082H
	DB	010H
	DB	061H
	DB	08H
	DB	082H
	DB	010H
	DB	062H
	DB	010H
	DB	061H
	DB	010H
	DB	082H
	DB	08H
	DB	062H
	DB	010H
	DB	061H
	DB	010H
	DB	082H
	DB	08H
	DB	062H
	DB	010H
	DB	062H
	DB	010H
	DB	082H
	DB	08H
	DB	062H
	DB	010H
	DB	062H
	DB	010H
	DB	082H
	DB	08H
	DB	062H
	DB	010H
	DB	062H
	DB	010H
	DB	081H
	DB	08H
	DB	062H
	DB	010H
	DB	062H
	DB	010H
	DB	081H
	DB	08H
	DB	082H
	DB	010H
	DB	062H
	DB	010H
	DB	082H
	DB	08H
	DB	062H
	DB	010H
	DB	062H
	DB	010H
	DB	082H
	DB	010H
	DB	062H
	DB	08H
	DB	062H
	DB	010H
	DB	082H
	DB	010H
	DB	082H
	DB	08H
	DB	062H
	DB	010H
	DB	061H
	DB	010H
	DB	082H
	DB	010H
	DB	062H
	DB	08H
	DB	082H
	DB	010H
	DB	082H
	DB	010H
	DB	062H
	DB	08H
	DB	062H
	DB	010H
	DB	061H
	DB	010H
	DB	082H
	DB	08H
	DB	062H
	DB	010H
	DB	081H
	DB	08H
	DB	062H
	DB	010H
	DB	062H
	DB	010H
	DB	082H
	DB	010H
	DB	062H
	DB	010H
	DB	061H
	DB	010H
	DB	082H
	DB	08H
	DB	062H
	DB	010H
	DB	061H
	DB	010H
	DB	082H
	DB	08H
	DB	061H
	DB	08H
	DB	062H
	DB	010H
	DB	082H
	DB	010H
	DB	061H
	DB	08H
	DB	062H
	DB	010H
	DB	082H
	DB	010H
	DB	061H
	DB	010H
	DB	062H
	DB	010H
	DB	082H
	DB	010H
	DB	081H
	DB	010H
	DB	062H
	DB	010H
	DB	061H
	DB	08H
	DB	081H
	DB	010H
	DB	062H
	DB	010H
	DB	061H
	DB	010H
	DB	062H
	DB	08H
	DB	082H
	DB	010H
	DB	061H
	DB	010H
	DB	082H
	DB	08H
	DB	062H
	DB	010H
	DB	082H
	DB	010H
	DB	062H
	DB	010H
	DB	062H
	DB	010H
	DB	082H
	DB	010H
	DB	062H
	DB	08H
	DB	061H
	DB	08H
	DB	061H
	DB	08H
	DB	061H
	DB	08H
	DB	062H
	DB	010H
	DB	061H
	DB	08H
	DB	062H
	DB	010H
	DB	061H
	DB	08H
	DB	061H
	DB	08H
	DB	062H
	DB	010H
	DB	062H
	DB	010H
	DB	061H
	DB	08H
	DB	061H
	DB	010H
	DB	062H
	DB	010H
	DB	061H
	DB	08H
	DB	062H
	DB	08H
	DB	062H
	DB	08H
	DB	061H
	DB	010H
	DB	062H
	DB	08H
	DB	061H
	DB	08H
	DB	062H
	DB	010H
	DB	061H
	DB	010H
	DB	062H
	DB	08H
	DB	061H
	DB	010H
	DB	062H
	DB	08H
	DB	061H
	DB	08H
	DB	062H
	DB	010H
	DB	062H
	DB	08H
	DB	061H
	DB	010H
	DB	062H
	DB	010H
	DB	062H
	DB	08H
	DB	061H
	DB	010H
	DB	061H
	DB	08H
	DB	062H
	DB	010H
	DB	061H
	DB	010H
	DB	061H
	DB	08H
	DB	061H
	DB	010H
	DB	062H
	DB	010H
	DB	061H
	DB	08H
	DB	062H
	DB	010H
	DB	062H
	DB	010H
	DB	061H
	DB	08H
	DB	061H
	DB	010H
	DB	062H
	DB	010H
	DB	062H
	DB	08H
	DB	061H
	DB	010H
	DB	061H
	DB	010H
	DB	061H
	DB	08H
	DB	062H
	DB	010H
	DB	061H
	DB	010H
	DB	061H
	DB	08H
	DB	062H
	DB	010H
	DB	061H
	DB	010H
	DB	061H
	DB	08H
	DB	062H
	DB	010H
	DB	062H
	DB	08H
	DB	061H
	DB	010H
	DB	062H
	DB	08H
	DB	061H
	DB	08H
	DB	062H
	DB	010H
	DB	061H
	DB	010H
	DB	062H
	DB	08H
	DB	061H
	DB	010H
	DB	062H
	DB	010H
	DB	061H
	DB	08H
	DB	062H
	DB	010H
	DB	061H
	DB	08H
	DB	061H
	DB	08H
	DB	062H
	DB	010H
	DB	061H
	DB	08H
	DB	062H
	DB	08H
	DB	062H
	DB	010H
	DB	061H
	DB	08H
	DB	062H
	DB	08H
	DB	061H
	DB	010H
	DB	061H
	DB	08H
	DB	062H
	DB	010H
	DB	061H
	DB	08H
	DB	062H
	DB	08H
	DB	061H
	DB	010H
	DB	062H
	DB	08H
	DB	061H
	DB	08H
	DB	061H
	DB	010H
	DB	062H
	DB	08H
	DB	062H
	DB	08H
	DB	061H
	DB	010H
	DB	062H
	DB	010H
	DB	062H
	DB	08H
	DB	061H
	DB	010H
	DB	062H
	DB	010H
	DB	061H
	DB	08H
	DB	061H
	DB	010H
	DB	062H
	DB	08H
	DB	061H
	DB	08H
	DB	062H
	DB	010H
	DB	061H
	DB	08H
	DB	061H
	DB	08H
	DB	061H
	DB	08H
	DB	061H
	DB	08H
	DB	062H
	DB	010H
	DB	061H
	DB	010H
	DB	062H
	DB	010H
	DB	062H
	DB	010H
	DB	062H
	DB	010H
	DB	081H
	DB	08H
	DB	062H
	DB	010H
	DB	082H
	DB	010H
	DB	062H
	DB	010H
	DB	081H
	DB	08H
	DB	062H
	DB	010H
	DB	082H
	DB	010H
	DB	061H
	DB	08H
	DB	082H
	DB	08H
	DB	061H
	DB	010H
	DB	082H
	DB	010H
	DB	061H
	DB	010H
	DB	082H
	DB	010H
	DB	062H
	DB	08H
	DB	081H
	DB	010H
	DB	062H
	DB	010H
	DB	062H
	DB	08H
	DB	062H
	DB	010H
	DB	061H
	DB	08H
	DB	082H
	DB	010H
	DB	062H
	DB	010H
	DB	061H
	DB	010H
	DB	082H
	DB	08H
	DB	061H
	DB	010H
	DB	062H
	DB	08H
	DB	081H
	DB	010H
	DB	062H
	DB	010H
	DB	082H
	DB	08H
	DB	062H
	DB	010H
	DB	081H
	DB	08H
	DB	062H
	DB	010H
	DB	062H
	DB	08H
	DB	081H
	DB	010H
	DB	062H
	DB	08H
	DB	061H
	DB	010H
	DB	081H
	DB	08H
	DB	062H
	DB	010H
	DB	062H
	DB	08H
	DB	081H
	DB	010H
	DB	062H
	DB	08H
	DB	062H
	DB	010H
	DB	082H
	DB	08H
	DB	061H
	DB	010H
	DB	062H
	DB	08H
	DB	082H
	DB	010H
	DB	061H
	DB	08H
	DB	062H
	DB	08H
	DB	082H
	DB	010H
	DB	061H
	DB	010H
	DB	062H
	DB	08H
	DB	082H
	DB	010H
	DB	061H
	DB	010H
	DB	062H
	DB	08H
	DB	082H
	DB	010H
	DB	061H
	DB	010H
	DB	062H
	DB	08H
	DB	062H
	DB	010H
	DB	081H
	DB	010H
	DB	082H
	DB	08H
	DB	062H
	DB	010H
	DB	062H
	DB	010H
	DB	082H
	DB	010H
	DB	062H
	DB	010H
	DB	082H
	DB	010H
	DB	061H
	DB	08H
	DB	082H
	DB	010H
	DB	061H
	DB	010H
	DB	082H
	DB	010H
	DB	062H
	DB	010H
	DB	081H
	DB	010H
	DB	062H
	DB	010H
	DB	062H
	DB	010H
	DB	082H
	DB	010H
	DB	062H
	DB	010H
	DB	081H
	DB	010H
	DB	062H
	DB	010H
	DB	082H
	DB	010H
	DB	062H
	DB	08H
	DB	062H
	DB	010H
	DB	081H
	DB	010H
	DB	062H
	DB	08H
	DB	062H
	DB	010H
	DB	081H
	DB	08H
	DB	062H
	DB	010H
	DB	062H
	DB	08H
	DB	082H
	DB	010H
	DB	062H
	DB	010H
	DB	082H
	DB	08H
	DB	062H
	DB	010H
	DB	062H
	DB	010H
	DB	081H
	DB	010H
	DB	062H
	DB	010H
	DB	062H
	DB	010H
	DB	082H
	DB	010H
	DB	062H
	DB	08H
	DB	061H
	DB	010H
	DB	062H
	DB	010H
	DB	062H
	DB	010H
	DB	062H
	DB	010H
	DB	081H
	DB	08H
	DB	062H
	DB	010H
	DB	062H
	DB	010H
	DB	061H
	DB	08H
	DB	062H
	DB	010H
	DB	062H
	DB	010H
	DB	081H
	DB	08H
	DB	062H
	DB	010H
	DB	062H
	DB	010H
	DB	062H
	DB	08H
	DB	082H
	DB	010H
	DB	061H
	DB	010H
	DB	062H
	DB	08H
	DB	061H
	DB	010H
	DB	082H
	DB	010H
	DB	062H
	DB	010H
	DB	061H
	DB	08H
	DB	082H
	DB	010H
	DB	061H
	DB	010H
	DB	062H
	DB	08H
	DB	082H
	DB	010H
	DB	061H
	DB	010H
	DB	062H
	DB	08H
	DB	082H
	DB	010H
	DB	062H
	DB	010H
	DB	061H
	DB	08H
	DB	062H
	DB	010H
	DB	081H
	DB	010H
	DB	062H
	DB	08H
	DB	062H
	DB	010H
	DB	061H
	DB	010H
	DB	082H
	DB	08H
	DB	062H
	DB	010H
	DB	062H
	DB	010H
	DB	082H
	DB	08H
	DB	062H
	DB	010H
	DB	061H
	DB	010H
	DB	082H
	DB	08H
	DB	062H
	DB	010H
	DB	061H
	DB	010H
	DB	082H
	DB	010H
	DB	061H
	DB	08H
	DB	062H
	DB	010H
	DB	082H
	DB	010H
	DB	062H
	DB	010H
	DB	061H
	DB	08H
	DB	082H
	DB	010H
	DB	062H
	DB	010H
	DB	061H
	DB	08H
	DB	082H
	DB	010H
	DB	062H
	DB	010H
	DB	061H
	DB	08H
	DB	082H
	DB	010H
	DB	062H
	DB	010H
	DB	061H
	DB	010H
	DB	082H
	DB	010H
	DB	062H
	DB	08H
	DB	061H
	DB	010H
	DB	062H
	DB	08H
	DB	061H
	DB	08H
	DB	061H
	DB	010H
	DB	082H
	DB	08H
	DB	061H
	DB	08H
	DB	062H
	DB	010H
	DB	062H
	DB	010H
	DB	081H
	DB	08H
	DB	062H
	DB	010H
	DB	062H
	DB	010H
	DB	061H
	DB	08H
	DB	082H
	DB	08H
	DB	062H
	DB	010H
	DB	061H
	DB	08H
	DB	082H
	DB	08H
	DB	061H
	DB	010H
	DB	062H
	DB	08H
	DB	062H
	DB	08H
	DB	061H
	DB	010H
	DB	061H
	DB	010H
	DB	082H
	DB	010H
	DB	062H
	DB	08H
	DB	061H
	DB	010H
	DB	082H
	DB	010H
	DB	062H
	DB	08H
	DB	061H
	DB	010H
	DB	081H
	DB	010H
	DB	062H
	DB	08H
	DB	061H
	DB	010H
	DB	062H
	DB	010H
	DB	061H
	DB	08H
	DB	081H
	DB	010H
	DB	062H
	DB	010H
	DB	062H
	DB	08H
	DB	081H
	DB	08H
	DB	062H
	DB	010H
	DB	062H
	DB	010H
	DB	081H
	DB	08H
	DB	062H
	DB	010H
	DB	062H
	DB	08H
CONST	ENDS
END
