; Listing generated by Microsoft (R) Optimizing Compiler Version 19.27.29112.0 

	TITLE	D:\hackTuesProject\project\TouchGFX\generated\images\src\Splash_UI\image_HomeControl_UI_bg.cpp
	.686P
	.XMM
	include listing.inc
	.model	flat

INCLUDELIB MSVCRTD
INCLUDELIB OLDNAMES

PUBLIC	?image_homecontrol_ui_bg@@3QBEB			; image_homecontrol_ui_bg
CONST	SEGMENT
?image_homecontrol_ui_bg@@3QBEB DB 00H			; image_homecontrol_ui_bg
	DB	00H
	DB	00H
	DB	00H
	DB	021H
	DB	00H
	DB	0acH
	DB	04aH
	DB	0d5H
	DB	084H
	DB	0daH
	DB	0a5H
	DB	01bH
	DB	0aeH
	DB	01bH
	DB	0aeH
	DB	03bH
	DB	0aeH
	DB	01bH
	DB	0aeH
	DB	01bH
	DB	0aeH
	DB	03bH
	DB	0aeH
	DB	01bH
	DB	0aeH
	DB	01bH
	DB	0aeH
	DB	03bH
	DB	0aeH
	DB	01bH
	DB	0aeH
	DB	01bH
	DB	0aeH
	DB	03bH
	DB	0aeH
	DB	01bH
	DB	0aeH
	DB	01bH
	DB	0aeH
	DB	03bH
	DB	0aeH
	DB	01bH
	DB	0aeH
	DB	01bH
	DB	0aeH
	DB	03bH
	DB	0aeH
	DB	01bH
	DB	0aeH
	DB	01bH
	DB	0aeH
	DB	03bH
	DB	0aeH
	DB	01bH
	DB	0aeH
	DB	01bH
	DB	0aeH
	DB	03bH
	DB	0aeH
	DB	01bH
	DB	0aeH
	DB	01bH
	DB	0aeH
	DB	03bH
	DB	0aeH
	DB	01bH
	DB	0aeH
	DB	01bH
	DB	0aeH
	DB	03bH
	DB	0aeH
	DB	01bH
	DB	0aeH
	DB	01bH
	DB	0aeH
	DB	03bH
	DB	0aeH
	DB	01bH
	DB	0aeH
	DB	01bH
	DB	0aeH
	DB	03bH
	DB	0aeH
	DB	01bH
	DB	0aeH
	DB	01bH
	DB	0aeH
	DB	03bH
	DB	0aeH
	DB	01bH
	DB	0aeH
	DB	01bH
	DB	0aeH
	DB	03bH
	DB	0aeH
	DB	01bH
	DB	0aeH
	DB	01bH
	DB	0aeH
	DB	03bH
	DB	0aeH
	DB	01bH
	DB	0aeH
	DB	01bH
	DB	0aeH
	DB	03bH
	DB	0aeH
	DB	01bH
	DB	0aeH
	DB	01bH
	DB	0aeH
	DB	03bH
	DB	0aeH
	DB	01bH
	DB	0aeH
	DB	01bH
	DB	0aeH
	DB	03bH
	DB	0aeH
	DB	01bH
	DB	0aeH
	DB	01bH
	DB	0aeH
	DB	03bH
	DB	0aeH
	DB	01bH
	DB	0aeH
	DB	01bH
	DB	0aeH
	DB	03bH
	DB	0aeH
	DB	01bH
	DB	0aeH
	DB	01bH
	DB	0aeH
	DB	03bH
	DB	0aeH
	DB	01bH
	DB	0aeH
	DB	01bH
	DB	0aeH
	DB	03bH
	DB	0aeH
	DB	01bH
	DB	0aeH
	DB	01bH
	DB	0aeH
	DB	03bH
	DB	0aeH
	DB	01bH
	DB	0aeH
	DB	01bH
	DB	0aeH
	DB	03bH
	DB	0aeH
	DB	01bH
	DB	0aeH
	DB	01bH
	DB	0aeH
	DB	03bH
	DB	0aeH
	DB	01bH
	DB	0aeH
	DB	01bH
	DB	0aeH
	DB	03bH
	DB	0aeH
	DB	01bH
	DB	0aeH
	DB	01bH
	DB	0aeH
	DB	03bH
	DB	0aeH
	DB	01bH
	DB	0aeH
	DB	03bH
	DB	0aeH
	DB	03bH
	DB	0aeH
	DB	03bH
	DB	0aeH
	DB	03bH
	DB	0aeH
	DB	03bH
	DB	0aeH
	DB	03bH
	DB	0aeH
	DB	03bH
	DB	0aeH
	DB	03bH
	DB	0aeH
	DB	03bH
	DB	0aeH
	DB	03bH
	DB	0aeH
	DB	03bH
	DB	0aeH
	DB	03bH
	DB	0aeH
	DB	03bH
	DB	0aeH
	DB	03bH
	DB	0aeH
	DB	03bH
	DB	0b6H
	DB	05bH
	DB	0aeH
	DB	03bH
	DB	0b6H
	DB	05bH
	DB	0b6H
	DB	05bH
	DB	0b6H
	DB	05bH
	DB	0b6H
	DB	05bH
	DB	0b6H
	DB	05bH
	DB	0b6H
	DB	05bH
	DB	0b6H
	DB	05bH
	DB	0b6H
	DB	05bH
	DB	0b6H
	DB	05bH
	DB	0b6H
	DB	05cH
	DB	0b6H
	DB	05bH
	DB	0b6H
	DB	07bH
	DB	0b6H
	DB	07cH
	DB	0b6H
	DB	07cH
	DB	0b6H
	DB	07bH
	DB	0beH
	DB	07cH
	DB	0b6H
	DB	07cH
	DB	0beH
	DB	07bH
	DB	0beH
	DB	07cH
	DB	0beH
	DB	07cH
	DB	0beH
	DB	07cH
	DB	0beH
	DB	07cH
	DB	0beH
	DB	07cH
	DB	0beH
	DB	09cH
	DB	0beH
	DB	09cH
	DB	0beH
	DB	09cH
	DB	0beH
	DB	09cH
	DB	0beH
	DB	09cH
	DB	0beH
	DB	09cH
	DB	0beH
	DB	09cH
	DB	0beH
	DB	09cH
	DB	0c6H
	DB	09cH
	DB	0beH
	DB	09cH
	DB	0c6H
	DB	09cH
	DB	0c6H
	DB	0bcH
	DB	0c6H
	DB	0bcH
	DB	0c6H
	DB	0bcH
	DB	0c6H
	DB	0bcH
	DB	0c6H
	DB	0bcH
	DB	0c6H
	DB	0bcH
	DB	0c6H
	DB	0bcH
	DB	0c6H
	DB	0bcH
	DB	0c6H
	DB	0bcH
	DB	0c6H
	DB	0bdH
	DB	0c6H
	DB	0bcH
	DB	0c6H
	DB	0dcH
	DB	0ceH
	DB	0ddH
	DB	0c6H
	DB	0dcH
	DB	0ceH
	DB	0ddH
	DB	0ceH
	DB	0ddH
	DB	0ceH
	DB	0dcH
	DB	0ceH
	DB	0ddH
	DB	0ceH
	DB	0ddH
	DB	0ceH
	DB	0ddH
	DB	0ceH
	DB	0ddH
	DB	0ceH
	DB	0ddH
	DB	0ceH
	DB	0ddH
	DB	0ceH
	DB	0fdH
	DB	0ceH
	DB	0fdH
	DB	0ceH
	DB	0fdH
	DB	0ceH
	DB	0fdH
	DB	0ceH
	DB	0fdH
	DB	0ceH
	DB	0fdH
	DB	0d6H
	DB	0fdH
	DB	0ceH
	DB	0fdH
	DB	0d6H
	DB	0fdH
	DB	0d6H
	DB	0fdH
	DB	0d6H
	DB	0fdH
	DB	0d6H
	DB	0fdH
	DB	0d6H
	DB	0fdH
	DB	0d6H
	DB	01dH
	DB	0d7H
	DB	01dH
	DB	0d7H
	DB	01dH
	DB	0d7H
	DB	01dH
	DB	0d7H
	DB	01dH
	DB	0d7H
	DB	01dH
	DB	0d7H
	DB	01dH
	DB	0d7H
	DB	01dH
	DB	0d7H
	DB	01dH
	DB	0d7H
	DB	01dH
	DB	0d7H
	DB	01dH
	DB	0d7H
	DB	01dH
	DB	0d7H
	DB	01dH
	DB	0d7H
	DB	01dH
	DB	0d7H
	DB	01dH
	DB	0dfH
	DB	01dH
	DB	0d7H
	DB	01dH
	DB	0d7H
	DB	01dH
	DB	0dfH
	DB	01eH
	DB	0d7H
	DB	01dH
	DB	0d7H
	DB	03dH
	DB	0dfH
	DB	01eH
	DB	0d7H
	DB	01dH
	DB	0dfH
	DB	03dH
	DB	0dfH
	DB	01eH
	DB	0d7H
	DB	01dH
	DB	0dfH
	DB	03dH
	DB	0dfH
	DB	01eH
	DB	0d7H
	DB	01dH
	DB	0dfH
	DB	03dH
	DB	0dfH
	DB	01eH
	DB	0d7H
	DB	01dH
	DB	0dfH
	DB	03dH
	DB	0dfH
	DB	03eH
	DB	0dfH
	DB	03dH
	DB	0dfH
	DB	03dH
	DB	0dfH
	DB	03eH
	DB	0dfH
	DB	03dH
	DB	0dfH
	DB	03dH
	DB	0dfH
	DB	03eH
	DB	0dfH
	DB	03dH
	DB	0dfH
	DB	03dH
	DB	0dfH
	DB	03eH
	DB	0dfH
	DB	03eH
	DB	0dfH
	DB	03dH
	DB	0dfH
	DB	03eH
	DB	0dfH
	DB	03eH
	DB	0dfH
	DB	03dH
	DB	0dfH
	DB	03eH
	DB	0dfH
	DB	03eH
	DB	0dfH
	DB	03dH
	DB	0dfH
	DB	03eH
	DB	0dfH
	DB	03eH
	DB	0dfH
	DB	03dH
	DB	0dfH
	DB	03eH
	DB	0dfH
	DB	03eH
	DB	0dfH
	DB	03dH
	DB	0dfH
	DB	03eH
	DB	0dfH
	DB	03eH
	DB	0dfH
	DB	03dH
	DB	0dfH
	DB	03eH
	DB	0dfH
	DB	03eH
	DB	0dfH
	DB	03dH
	DB	0dfH
	DB	03eH
	DB	0dfH
	DB	03eH
	DB	0dfH
	DB	03dH
	DB	0dfH
	DB	03eH
	DB	0dfH
	DB	03eH
	DB	0dfH
	DB	03dH
	DB	0dfH
	DB	03eH
	DB	0dfH
	DB	03eH
	DB	0dfH
	DB	03dH
	DB	0dfH
	DB	03eH
	DB	0dfH
	DB	03eH
	DB	0dfH
	DB	03dH
	DB	0dfH
	DB	03eH
	DB	0dfH
	DB	03eH
	DB	0dfH
	DB	03dH
	DB	0dfH
	DB	03eH
	DB	0dfH
	DB	03eH
	DB	0dfH
	DB	03dH
	DB	0dfH
	DB	03eH
	DB	0dfH
	DB	03eH
	DB	0dfH
	DB	03dH
	DB	0dfH
	DB	03eH
	DB	0dfH
	DB	03eH
	DB	0dfH
	DB	03dH
	DB	0dfH
	DB	03eH
	DB	0dfH
	DB	03eH
	DB	0dfH
	DB	03dH
	DB	0dfH
	DB	03dH
	DB	0dfH
	DB	03eH
	DB	0dfH
	DB	03dH
	DB	0dfH
	DB	03dH
	DB	0dfH
	DB	03eH
	DB	0dfH
	DB	03dH
	DB	0dfH
	DB	03dH
	DB	0dfH
	DB	03eH
	DB	0dfH
	DB	03dH
	DB	0dfH
	DB	01dH
	DB	0d7H
	DB	01eH
	DB	0dfH
	DB	01dH
	DB	0dfH
	DB	03dH
	DB	0d7H
	DB	01eH
	DB	0dfH
	DB	01dH
	DB	0dfH
	DB	03dH
	DB	0d7H
	DB	01eH
	DB	0dfH
	DB	01dH
	DB	0dfH
	DB	03dH
	DB	0d7H
	DB	01eH
	DB	0d7H
	DB	01dH
	DB	0dfH
	DB	03dH
	DB	0d7H
	DB	01eH
	DB	0d7H
	DB	01dH
	DB	0dfH
	DB	01dH
	DB	0d7H
	DB	01dH
	DB	0d7H
	DB	01dH
	DB	0dfH
	DB	01dH
	DB	0d7H
	DB	01dH
	DB	0d7H
	DB	01dH
	DB	0d7H
	DB	01dH
	DB	0d7H
	DB	01dH
	DB	0d7H
	DB	01dH
	DB	0d7H
	DB	01dH
	DB	0d7H
	DB	01dH
	DB	0d7H
	DB	01dH
	DB	0d7H
	DB	01dH
	DB	0d7H
	DB	01dH
	DB	0d7H
	DB	01dH
	DB	0d7H
	DB	01dH
	DB	0d7H
	DB	0fdH
	DB	0d6H
	DB	0fdH
	DB	0d6H
	DB	0fdH
	DB	0d6H
	DB	0fdH
	DB	0d6H
	DB	0fdH
	DB	0d6H
	DB	0fdH
	DB	0ceH
	DB	0fdH
	DB	0d6H
	DB	0fdH
	DB	0ceH
	DB	0fdH
	DB	0ceH
	DB	0fdH
	DB	0ceH
	DB	0fdH
	DB	0ceH
	DB	0fdH
	DB	0ceH
	DB	0fdH
	DB	0ceH
	DB	0ddH
	DB	0ceH
	DB	0ddH
	DB	0ceH
	DB	0ddH
	DB	0ceH
	DB	0ddH
	DB	0ceH
	DB	0ddH
	DB	0ceH
	DB	0ddH
	DB	0ceH
	DB	0dcH
	DB	0ceH
	DB	0ddH
	DB	0ceH
	DB	0ddH
	DB	0ceH
	DB	0dcH
	DB	0c6H
	DB	0dcH
	DB	0ceH
	DB	0ddH
	DB	0c6H
	DB	0bcH
	DB	0c6H
	DB	0bcH
	DB	0c6H
	DB	0bdH
	DB	0c6H
	DB	0bcH
	DB	0c6H
	DB	0bcH
	DB	0c6H
	DB	0bcH
	DB	0c6H
	DB	0bcH
	DB	0c6H
	DB	0bcH
	DB	0c6H
	DB	0bcH
	DB	0c6H
	DB	0bcH
	DB	0c6H
	DB	0bcH
	DB	0c6H
	DB	09cH
	DB	0c6H
	DB	09cH
	DB	0beH
	DB	09cH
	DB	0c6H
	DB	09cH
	DB	0beH
	DB	09cH
	DB	0beH
	DB	09cH
	DB	0beH
	DB	09cH
	DB	0beH
	DB	09cH
	DB	0beH
	DB	09cH
	DB	0beH
	DB	09cH
	DB	0beH
	DB	09cH
	DB	0beH
	DB	07cH
	DB	0beH
	DB	07cH
	DB	0beH
	DB	07cH
	DB	0beH
	DB	07cH
	DB	0beH
	DB	07cH
	DB	0beH
	DB	07cH
	DB	0beH
	DB	07bH
	DB	0b6H
	DB	07cH
	DB	0beH
	DB	07cH
	DB	0b6H
	DB	07bH
	DB	0b6H
	DB	07cH
	DB	0b6H
	DB	07bH
	DB	0b6H
	DB	05bH
	DB	0b6H
	DB	05cH
	DB	0b6H
	DB	05bH
	DB	0b6H
	DB	05bH
	DB	0b6H
	DB	05bH
	DB	0b6H
	DB	05bH
	DB	0b6H
	DB	05bH
	DB	0b6H
	DB	05bH
	DB	0b6H
	DB	05bH
	DB	0b6H
	DB	05bH
	DB	0b6H
	DB	05bH
	DB	0b6H
	DB	05bH
	DB	0aeH
	DB	03bH
	DB	0b6H
	DB	03bH
	DB	0aeH
	DB	03bH
	DB	0aeH
	DB	05bH
	DB	0aeH
	DB	03bH
	DB	0aeH
	DB	03bH
	DB	0aeH
	DB	03bH
	DB	0aeH
	DB	03bH
	DB	0aeH
	DB	03bH
	DB	0aeH
	DB	03bH
	DB	0aeH
	DB	03bH
	DB	0aeH
	DB	03bH
	DB	0aeH
	DB	03bH
	DB	0aeH
	DB	03bH
	DB	0aeH
	DB	03bH
	DB	0aeH
	DB	03bH
	DB	0aeH
	DB	03bH
	DB	0aeH
	DB	01bH
	DB	0aeH
	DB	01bH
	DB	0aeH
	DB	01bH
	DB	0aeH
	DB	03bH
	DB	0aeH
	DB	01bH
	DB	0aeH
	DB	01bH
	DB	0aeH
	DB	03bH
	DB	0aeH
	DB	01bH
	DB	0aeH
	DB	01bH
	DB	0aeH
	DB	03bH
	DB	0aeH
	DB	01bH
	DB	0aeH
	DB	01bH
	DB	0aeH
	DB	03bH
	DB	0aeH
	DB	01bH
	DB	0aeH
	DB	01bH
	DB	0aeH
	DB	03bH
	DB	0aeH
	DB	01bH
	DB	0aeH
	DB	01bH
	DB	0aeH
	DB	03bH
	DB	0aeH
	DB	01bH
	DB	0aeH
	DB	01bH
	DB	0aeH
	DB	03bH
	DB	0aeH
	DB	01bH
	DB	0aeH
	DB	01bH
	DB	0aeH
	DB	03bH
	DB	0aeH
	DB	01bH
	DB	0aeH
	DB	01bH
	DB	0aeH
	DB	03bH
	DB	0aeH
	DB	01bH
	DB	0aeH
	DB	01bH
	DB	0aeH
	DB	03bH
	DB	0aeH
	DB	01bH
	DB	0aeH
	DB	01bH
	DB	0aeH
	DB	03bH
	DB	0aeH
	DB	01bH
	DB	0aeH
	DB	01bH
	DB	0aeH
	DB	03bH
	DB	0aeH
	DB	01bH
	DB	0aeH
	DB	01bH
	DB	0aeH
	DB	03bH
	DB	0aeH
	DB	01bH
	DB	0aeH
	DB	01bH
	DB	0aeH
	DB	03bH
	DB	0aeH
	DB	01bH
	DB	0aeH
	DB	01bH
	DB	0aeH
	DB	03bH
	DB	0aeH
	DB	01bH
	DB	0aeH
	DB	01bH
	DB	0aeH
	DB	03bH
	DB	0aeH
	DB	01bH
	DB	0aeH
	DB	01bH
	DB	0aeH
	DB	03bH
	DB	0aeH
	DB	01bH
	DB	0aeH
	DB	01bH
	DB	0aeH
	DB	03bH
	DB	0aeH
	DB	01bH
	DB	0aeH
	DB	01bH
	DB	0aeH
	DB	03bH
	DB	0aeH
	DB	01bH
	DB	0aeH
	DB	01bH
	DB	0aeH
	DB	03bH
	DB	0aeH
	DB	01bH
	DB	0aeH
	DB	01bH
	DB	0aeH
	DB	03bH
	DB	0aeH
	DB	01bH
	DB	0aeH
	DB	01bH
	DB	0aeH
	DB	03bH
	DB	0aeH
	DB	01bH
	DB	0aeH
	DB	01bH
	DB	0aeH
	DB	03bH
	DB	0aeH
	DB	01bH
	DB	0aeH
	DB	01bH
	DB	0aeH
	DB	03bH
	DB	0aeH
	DB	01bH
	DB	0aeH
	DB	01bH
	DB	0aeH
	DB	03bH
	DB	0aeH
	DB	01bH
	DB	0aeH
	DB	01bH
	DB	0aeH
	DB	03bH
	DB	0aeH
	DB	01bH
	DB	0aeH
	DB	01bH
	DB	0aeH
	DB	0daH
	DB	0a5H
	DB	0d5H
	DB	084H
	DB	0acH
	DB	04aH
	DB	020H
	DB	00H
	DB	00H
	DB	00H
	DB	00H
	DB	00H
	DB	00H
	DB	00H
	DB	0a3H
	DB	010H
	DB	0f6H
	DB	08cH
	DB	03bH
	DB	0aeH
	DB	01bH
	DB	0aeH
	DB	03bH
	DB	0aeH
	DB	03bH
	DB	0aeH
	DB	01bH
	DB	0aeH
	DB	03bH
	DB	0aeH
	DB	01bH
	DB	0aeH
	DB	03bH
	DB	0aeH
	DB	03bH
	DB	0aeH
	DB	01bH
	DB	0aeH
	DB	03bH
	DB	0aeH
	DB	01bH
	DB	0aeH
	DB	03bH
	DB	0aeH
	DB	01bH
	DB	0aeH
	DB	03bH
	DB	0aeH
	DB	01bH
	DB	0aeH
	DB	03bH
	DB	0aeH
	DB	03bH
	DB	0aeH
	DB	01bH
	DB	0aeH
	DB	03bH
	DB	0aeH
	DB	01bH
	DB	0aeH
	DB	03bH
	DB	0aeH
	DB	01bH
	DB	0aeH
	DB	03bH
	DB	0aeH
	DB	01bH
	DB	0aeH
	DB	03bH
	DB	0aeH
	DB	03bH
	DB	0aeH
	DB	01bH
	DB	0aeH
	DB	03bH
	DB	0aeH
	DB	01bH
	DB	0aeH
	DB	03bH
	DB	0aeH
	DB	01bH
	DB	0aeH
	DB	03bH
	DB	0aeH
	DB	01bH
	DB	0aeH
	DB	03bH
	DB	0aeH
	DB	03bH
	DB	0aeH
	DB	01bH
	DB	0aeH
	DB	03bH
	DB	0aeH
	DB	01bH
	DB	0aeH
	DB	03bH
	DB	0aeH
	DB	01bH
	DB	0aeH
	DB	03bH
	DB	0aeH
	DB	01bH
	DB	0aeH
	DB	03bH
	DB	0aeH
	DB	03bH
	DB	0aeH
	DB	01bH
	DB	0aeH
	DB	03bH
	DB	0aeH
	DB	01bH
	DB	0aeH
	DB	03bH
	DB	0aeH
	DB	01bH
	DB	0aeH
	DB	03bH
	DB	0aeH
	DB	01bH
	DB	0aeH
	DB	03bH
	DB	0aeH
	DB	03bH
	DB	0aeH
	DB	01bH
	DB	0aeH
	DB	03bH
	DB	0aeH
	DB	01bH
	DB	0aeH
	DB	03bH
	DB	0aeH
	DB	01bH
	DB	0aeH
	DB	03bH
	DB	0aeH
	DB	01bH
	DB	0aeH
	DB	03bH
	DB	0aeH
	DB	03bH
	DB	0aeH
	DB	01bH
	DB	0aeH
	DB	03bH
	DB	0aeH
	DB	01bH
	DB	0aeH
	DB	03bH
	DB	0aeH
	DB	01bH
	DB	0aeH
	DB	03bH
	DB	0aeH
	DB	01bH
	DB	0aeH
	DB	03bH
	DB	0aeH
	DB	03bH
	DB	0aeH
	DB	01bH
	DB	0aeH
	DB	03bH
	DB	0aeH
	DB	01bH
	DB	0aeH
	DB	03bH
	DB	0aeH
	DB	01bH
	DB	0aeH
	DB	03bH
	DB	0aeH
	DB	01bH
	DB	0aeH
	DB	03bH
	DB	0aeH
	DB	03bH
	DB	0aeH
	DB	01bH
	DB	0aeH
	DB	03bH
	DB	0aeH
	DB	01bH
	DB	0aeH
	DB	01bH
	DB	0aeH
	DB	03bH
	DB	0aeH
	DB	03bH
	DB	0aeH
	DB	01bH
	DB	0aeH
	DB	03bH
	DB	0aeH
	DB	03bH
	DB	0aeH
	DB	03bH
	DB	0aeH
	DB	03bH
	DB	0aeH
	DB	03bH
	DB	0aeH
	DB	03bH
	DB	0aeH
	DB	03bH
	DB	0aeH
	DB	03bH
	DB	0b6H
	DB	03bH
	DB	0b6H
	DB	05bH
	DB	0aeH
	DB	05bH
	DB	0b6H
	DB	03bH
	DB	0aeH
	DB	05bH
	DB	0b6H
	DB	05bH
	DB	0aeH
	DB	05bH
	DB	0b6H
	DB	03bH
	DB	0b6H
	DB	05bH
	DB	0aeH
	DB	05cH
	DB	0b6H
	DB	05cH
	DB	0b6H
	DB	05bH
	DB	0b6H
	DB	05cH
	DB	0b6H
	DB	05bH
	DB	0b6H
	DB	07cH
	DB	0b6H
	DB	07cH
	DB	0b6H
	DB	05bH
	DB	0b6H
	DB	07cH
	DB	0beH
	DB	07cH
	DB	0b6H
	DB	05bH
	DB	0beH
	DB	07cH
	DB	0b6H
	DB	07cH
	DB	0beH
	DB	07bH
	DB	0b6H
	DB	07cH
	DB	0beH
	DB	07cH
	DB	0beH
	DB	07cH
	DB	0beH
	DB	09bH
	DB	0beH
	DB	09cH
	DB	0beH
	DB	07cH
	DB	0beH
	DB	09cH
	DB	0beH
	DB	09cH
	DB	0beH
	DB	09cH
	DB	0beH
	DB	09cH
	DB	0beH
	DB	09cH
	DB	0c6H
	DB	09cH
	DB	0c6H
	DB	09cH
	DB	0beH
	DB	09cH
	DB	0c6H
	DB	0bcH
	DB	0c6H
	DB	0bcH
	DB	0c6H
	DB	09cH
	DB	0beH
	DB	0bcH
	DB	0c6H
	DB	0bcH
	DB	0c6H
	DB	0bcH
	DB	0c6H
	DB	0bcH
	DB	0c6H
	DB	0bdH
	DB	0c6H
	DB	0bdH
	DB	0c6H
	DB	0bcH
	DB	0c6H
	DB	0bdH
	DB	0c6H
	DB	0ddH
	DB	0ceH
	DB	0dcH
	DB	0c6H
	DB	0bdH
	DB	0ceH
	DB	0ddH
	DB	0c6H
	DB	0ddH
	DB	0ceH
	DB	0bcH
	DB	0c6H
	DB	0ddH
	DB	0ceH
	DB	0ddH
	DB	0ceH
	DB	0ddH
	DB	0ceH
	DB	0ddH
	DB	0ceH
	DB	0dcH
	DB	0ceH
	DB	0ddH
	DB	0ceH
	DB	0fdH
	DB	0ceH
	DB	0fdH
	DB	0ceH
	DB	0ddH
	DB	0ceH
	DB	0fdH
	DB	0ceH
	DB	0fdH
	DB	0d6H
	DB	0ddH
	DB	0ceH
	DB	0fdH
	DB	0d6H
	DB	0fdH
	DB	0d6H
	DB	0fdH
	DB	0d6H
	DB	0fdH
	DB	0ceH
	DB	0fdH
	DB	0d6H
	DB	0fdH
	DB	0d6H
	DB	01dH
	DB	0cfH
	DB	01dH
	DB	0d7H
	DB	0fdH
	DB	0d6H
	DB	01dH
	DB	0d7H
	DB	01dH
	DB	0d7H
	DB	01dH
	DB	0d7H
	DB	0fdH
	DB	0d6H
	DB	01dH
	DB	0d7H
	DB	01dH
	DB	0d7H
	DB	01eH
	DB	0d7H
	DB	01eH
	DB	0dfH
	DB	01dH
	DB	0d7H
	DB	01eH
	DB	0dfH
	DB	01eH
	DB	0dfH
	DB	01dH
	DB	0d7H
	DB	01eH
	DB	0dfH
	DB	01eH
	DB	0dfH
	DB	01dH
	DB	0dfH
	DB	01eH
	DB	0d7H
	DB	01eH
	DB	0dfH
	DB	03eH
	DB	0dfH
	DB	03dH
	DB	0d7H
	DB	01eH
	DB	0dfH
	DB	03eH
	DB	0dfH
	DB	03dH
	DB	0dfH
	DB	01eH
	DB	0d7H
	DB	03eH
	DB	0dfH
	DB	01dH
	DB	0dfH
	DB	03eH
	DB	0d7H
	DB	01eH
	DB	0dfH
	DB	03dH
	DB	0dfH
	DB	01eH
	DB	0d7H
	DB	03eH
	DB	0dfH
	DB	03dH
	DB	0dfH
	DB	03eH
	DB	0dfH
	DB	03eH
	DB	0dfH
	DB	03dH
	DB	0dfH
	DB	03eH
	DB	0d7H
	DB	01eH
	DB	0dfH
	DB	03dH
	DB	0dfH
	DB	01eH
	DB	0d7H
	DB	03eH
	DB	0dfH
	DB	01eH
	DB	0dfH
	DB	03eH
	DB	0d7H
	DB	01eH
	DB	0dfH
	DB	03eH
	DB	0dfH
	DB	01eH
	DB	0dfH
	DB	03dH
	DB	0dfH
	DB	01eH
	DB	0dfH
	DB	03eH
	DB	0dfH
	DB	01dH
	DB	0dfH
	DB	03eH
	DB	0dfH
	DB	03eH
	DB	0dfH
	DB	03dH
	DB	0dfH
	DB	03eH
	DB	0dfH
	DB	03eH
	DB	0dfH
	DB	03dH
	DB	0dfH
	DB	03eH
	DB	0dfH
	DB	03eH
	DB	0dfH
	DB	03dH
	DB	0dfH
	DB	03eH
	DB	0dfH
	DB	03eH
	DB	0dfH
	DB	03dH
	DB	0dfH
	DB	03eH
	DB	0dfH
	DB	03eH
	DB	0dfH
	DB	03dH
	DB	0dfH
	DB	03eH
	DB	0dfH
	DB	03eH
	DB	0dfH
	DB	03dH
	DB	0dfH
	DB	03eH
	DB	0dfH
	DB	03eH
	DB	0dfH
	DB	03dH
	DB	0dfH
	DB	03eH
	DB	0dfH
	DB	03eH
	DB	0dfH
	DB	03dH
	DB	0dfH
	DB	03eH
	DB	0dfH
	DB	03eH
	DB	0dfH
	DB	03dH
	DB	0dfH
	DB	03eH
	DB	0dfH
	DB	03eH
	DB	0dfH
	DB	03dH
	DB	0dfH
	DB	03eH
	DB	0dfH
	DB	03eH
	DB	0dfH
	DB	03dH
	DB	0dfH
	DB	03eH
	DB	0dfH
	DB	03eH
	DB	0dfH
	DB	03dH
	DB	0dfH
	DB	01eH
	DB	0dfH
	DB	03eH
	DB	0dfH
	DB	01dH
	DB	0dfH
	DB	03eH
	DB	0dfH
	DB	01eH
	DB	0dfH
	DB	03dH
	DB	0dfH
	DB	01eH
	DB	0dfH
	DB	03eH
	DB	0dfH
	DB	01eH
	DB	0d7H
	DB	03eH
	DB	0dfH
	DB	01eH
	DB	0dfH
	DB	03dH
	DB	0d7H
	DB	01eH
	DB	0dfH
	DB	03eH
	DB	0dfH
	DB	03dH
	DB	0d7H
	DB	03eH
	DB	0dfH
	DB	03eH
	DB	0dfH
	DB	03dH
	DB	0dfH
	DB	03eH
	DB	0dfH
	DB	03eH
	DB	0dfH
	DB	01dH
	DB	0d7H
	DB	03eH
	DB	0dfH
	DB	03eH
	DB	0dfH
	DB	01dH
	DB	0d7H
	DB	03eH
	DB	0dfH
	DB	01eH
	DB	0dfH
	DB	03dH
	DB	0dfH
	DB	01eH
	DB	0dfH
	DB	03eH
	DB	0dfH
	DB	03dH
	DB	0d7H
	DB	01eH
	DB	0dfH
	DB	03eH
	DB	0dfH
	DB	01dH
	DB	0d7H
	DB	01eH
	DB	0dfH
	DB	01eH
	DB	0dfH
	DB	01dH
	DB	0d7H
	DB	01eH
	DB	0dfH
	DB	01eH
	DB	0dfH
	DB	01dH
	DB	0d7H
	DB	01eH
	DB	0dfH
	DB	01eH
	DB	0d7H
	DB	01dH
	DB	0d7H
	DB	01eH
	DB	0d7H
	DB	01dH
	DB	0d7H
	DB	01dH
	DB	0d7H
	DB	0fdH
	DB	0d6H
	DB	01dH
	DB	0d7H
	DB	01dH
	DB	0d7H
	DB	01dH
	DB	0d7H
	DB	01dH
	DB	0d7H
	DB	01dH
	DB	0d7H
	DB	0fdH
	DB	0d6H
	DB	0fdH
	DB	0d6H
	DB	0fdH
	DB	0d6H
	DB	0fdH
	DB	0d6H
	DB	0fdH
	DB	0d6H
	DB	0fdH
	DB	0d6H
	DB	0fdH
	DB	0d6H
	DB	0fdH
	DB	0ceH
	DB	0fdH
	DB	0d6H
	DB	0fdH
	DB	0ceH
	DB	0ddH
	DB	0ceH
	DB	0fdH
	DB	0ceH
	DB	0fcH
	DB	0ceH
	DB	0ddH
	DB	0ceH
	DB	0ddH
	DB	0ceH
	DB	0ddH
	DB	0ceH
	DB	0ddH
	DB	0ceH
	DB	0ddH
	DB	0ceH
	DB	0ddH
	DB	0ceH
	DB	0ddH
	DB	0ceH
	DB	0ddH
	DB	0ceH
	DB	0dcH
	DB	0ceH
	DB	0ddH
	DB	0ceH
	DB	0ddH
	DB	0c6H
	DB	0bcH
	DB	0ceH
	DB	0bcH
	DB	0c6H
	DB	0bdH
	DB	0c6H
	DB	0bdH
	DB	0c6H
	DB	0bcH
	DB	0c6H
	DB	0bcH
	DB	0c6H
	DB	0bcH
	DB	0c6H
	DB	0bcH
	DB	0c6H
	DB	0bcH
	DB	0c6H
	DB	0bcH
	DB	0c6H
	DB	0bcH
	DB	0c6H
	DB	0bcH
	DB	0c6H
	DB	09cH
	DB	0c6H
	DB	09cH
	DB	0c6H
	DB	09cH
	DB	0c6H
	DB	09cH
	DB	0beH
	DB	09cH
	DB	0beH
	DB	09cH
	DB	0beH
	DB	09cH
	DB	0beH
	DB	09cH
	DB	0beH
	DB	09cH
	DB	0beH
	DB	09cH
	DB	0beH
	DB	09bH
	DB	0beH
	DB	07cH
	DB	0beH
	DB	07cH
	DB	0beH
	DB	07cH
	DB	0beH
	DB	07bH
	DB	0beH
	DB	07cH
	DB	0beH
	DB	07cH
	DB	0beH
	DB	07cH
	DB	0beH
	DB	07cH
	DB	0b6H
	DB	07bH
	DB	0beH
	DB	07cH
	DB	0b6H
	DB	07cH
	DB	0b6H
	DB	07cH
	DB	0b6H
	DB	05bH
	DB	0b6H
	DB	05cH
	DB	0b6H
	DB	05cH
	DB	0b6H
	DB	05bH
	DB	0b6H
	DB	05cH
	DB	0b6H
	DB	05bH
	DB	0b6H
	DB	05bH
	DB	0b6H
	DB	05bH
	DB	0b6H
	DB	05bH
	DB	0b6H
	DB	03bH
	DB	0b6H
	DB	05bH
	DB	0b6H
	DB	03bH
	DB	0b6H
	DB	05bH
	DB	0aeH
	DB	03bH
	DB	0b6H
	DB	03bH
	DB	0b6H
	DB	03bH
	DB	0aeH
	DB	03bH
	DB	0aeH
	DB	03bH
	DB	0aeH
	DB	03bH
	DB	0aeH
	DB	03bH
	DB	0aeH
	DB	03bH
	DB	0aeH
	DB	01bH
	DB	0aeH
	DB	03bH
	DB	0aeH
	DB	03bH
	DB	0aeH
	DB	03bH
	DB	0aeH
	DB	01bH
	DB	0aeH
	DB	03bH
	DB	0aeH
	DB	03bH
	DB	0aeH
	DB	01bH
	DB	0aeH
	DB	03bH
	DB	0aeH
	DB	01bH
	DB	0aeH
	DB	03bH
	DB	0aeH
	DB	01bH
	DB	0aeH
	DB	03bH
	DB	0aeH
	DB	03bH
	DB	0aeH
	DB	01bH
	DB	0aeH
	DB	03bH
	DB	0aeH
	DB	01bH
	DB	0aeH
	DB	03bH
	DB	0aeH
	DB	01bH
	DB	0aeH
	DB	03bH
	DB	0aeH
	DB	01bH
	DB	0aeH
	DB	03bH
	DB	0aeH
	DB	03bH
	DB	0aeH
	DB	01bH
	DB	0aeH
	DB	03bH
	DB	0aeH
	DB	01bH
	DB	0aeH
	DB	03bH
	DB	0aeH
	DB	01bH
	DB	0aeH
	DB	03bH
	DB	0aeH
	DB	01bH
	DB	0aeH
	DB	03bH
	DB	0aeH
	DB	03bH
	DB	0aeH
	DB	01bH
	DB	0aeH
	DB	03bH
	DB	0aeH
	DB	01bH
	DB	0aeH
	DB	03bH
	DB	0aeH
	DB	01bH
	DB	0aeH
	DB	03bH
	DB	0aeH
	DB	01bH
	DB	0aeH
	DB	03bH
	DB	0aeH
	DB	03bH
	DB	0aeH
	DB	01bH
	DB	0aeH
	DB	03bH
	DB	0aeH
	DB	01bH
	DB	0aeH
	DB	03bH
	DB	0aeH
	DB	01bH
	DB	0aeH
	DB	03bH
	DB	0aeH
	DB	01bH
	DB	0aeH
	DB	03bH
	DB	0aeH
	DB	03bH
	DB	0aeH
	DB	01bH
	DB	0aeH
	DB	03bH
	DB	0aeH
	DB	01bH
	DB	0aeH
	DB	03bH
	DB	0aeH
	DB	01bH
	DB	0aeH
	DB	03bH
	DB	0aeH
	DB	01bH
	DB	0aeH
	DB	03bH
	DB	0aeH
	DB	03bH
	DB	0aeH
	DB	01bH
	DB	0aeH
	DB	03bH
	DB	0aeH
	DB	01bH
	DB	0aeH
	DB	03bH
	DB	0aeH
	DB	01bH
	DB	0aeH
	DB	03bH
	DB	0aeH
	DB	01bH
	DB	0aeH
	DB	03bH
	DB	0aeH
	DB	03bH
	DB	0aeH
	DB	01bH
	DB	0aeH
	DB	03bH
	DB	0aeH
	DB	01bH
	DB	0aeH
	DB	03bH
	DB	0aeH
	DB	01bH
	DB	0aeH
	DB	03bH
	DB	0aeH
	DB	01bH
	DB	0aeH
	DB	03bH
	DB	0aeH
	DB	03bH
	DB	0aeH
	DB	01bH
	DB	0aeH
	DB	03bH
	DB	0aeH
	DB	01bH
	DB	0aeH
	DB	03bH
	DB	0aeH
	DB	01bH
	DB	0aeH
	DB	03bH
	DB	0aeH
	DB	03bH
	DB	0aeH
	DB	01bH
	DB	0aeH
	DB	03bH
	DB	0aeH
	DB	03bH
	DB	0aeH
	DB	01bH
	DB	0aeH
	DB	0f6H
	DB	08cH
	DB	0a3H
	DB	010H
	DB	00H
	DB	00H
	DB	021H
	DB	00H
	DB	016H
	DB	08dH
	DB	03bH
	DB	0aeH
	DB	01aH
	DB	0aeH
	DB	01bH
	DB	0aeH
	DB	03bH
	DB	0aeH
	DB	01bH
	DB	0aeH
	DB	03bH
	DB	0aeH
	DB	01bH
	DB	0aeH
	DB	03bH
	DB	0aeH
	DB	01bH
	DB	0aeH
	DB	01bH
	DB	0aeH
	DB	03bH
	DB	0aeH
	DB	01bH
	DB	0aeH
	DB	03bH
	DB	0aeH
	DB	01bH
	DB	0aeH
	DB	03bH
	DB	0aeH
	DB	01bH
	DB	0aeH
	DB	03bH
	DB	0aeH
	DB	01bH
	DB	0aeH
	DB	01bH
	DB	0aeH
	DB	03bH
	DB	0aeH
	DB	01bH
	DB	0aeH
	DB	03bH
	DB	0aeH
	DB	01bH
	DB	0aeH
	DB	03bH
	DB	0aeH
	DB	01bH
	DB	0aeH
	DB	03bH
	DB	0aeH
	DB	01bH
	DB	0aeH
	DB	01bH
	DB	0aeH
	DB	03bH
	DB	0aeH
	DB	01bH
	DB	0aeH
	DB	03bH
	DB	0aeH
	DB	01bH
	DB	0aeH
	DB	03bH
	DB	0aeH
	DB	01bH
	DB	0aeH
	DB	03bH
	DB	0aeH
	DB	01bH
	DB	0aeH
	DB	01bH
	DB	0aeH
	DB	03bH
	DB	0aeH
	DB	01bH
	DB	0aeH
	DB	03bH
	DB	0aeH
	DB	01bH
	DB	0aeH
	DB	03bH
	DB	0aeH
	DB	01bH
	DB	0aeH
	DB	03bH
	DB	0aeH
	DB	01bH
	DB	0aeH
	DB	01bH
	DB	0aeH
	DB	03bH
	DB	0aeH
	DB	01bH
	DB	0aeH
	DB	03bH
	DB	0aeH
	DB	01bH
	DB	0aeH
	DB	03bH
	DB	0aeH
	DB	01bH
	DB	0aeH
	DB	03bH
	DB	0aeH
	DB	01bH
	DB	0aeH
	DB	01bH
	DB	0aeH
	DB	03bH
	DB	0aeH
	DB	01bH
	DB	0aeH
	DB	03bH
	DB	0aeH
	DB	01bH
	DB	0aeH
	DB	03bH
	DB	0aeH
	DB	01bH
	DB	0aeH
	DB	03bH
	DB	0aeH
	DB	01bH
	DB	0aeH
	DB	01bH
	DB	0aeH
	DB	03bH
	DB	0aeH
	DB	01bH
	DB	0aeH
	DB	03bH
	DB	0aeH
	DB	01bH
	DB	0aeH
	DB	03bH
	DB	0aeH
	DB	01bH
	DB	0aeH
	DB	03bH
	DB	0aeH
	DB	01bH
	DB	0aeH
	DB	01bH
	DB	0aeH
	DB	03bH
	DB	0aeH
	DB	01bH
	DB	0aeH
	DB	03bH
	DB	0aeH
	DB	01bH
	DB	0aeH
	DB	03bH
	DB	0aeH
	DB	01bH
	DB	0aeH
	DB	03bH
	DB	0aeH
	DB	01bH
	DB	0aeH
	DB	01bH
	DB	0aeH
	DB	03bH
	DB	0aeH
	DB	03bH
	DB	0aeH
	DB	01bH
	DB	0aeH
	DB	03bH
	DB	0aeH
	DB	03bH
	DB	0aeH
	DB	03bH
	DB	0aeH
	DB	01bH
	DB	0aeH
	DB	03bH
	DB	0aeH
	DB	03bH
	DB	0aeH
	DB	03bH
	DB	0aeH
	DB	03bH
	DB	0aeH
	DB	03bH
	DB	0aeH
	DB	03bH
	DB	0b6H
	DB	03bH
	DB	0aeH
	DB	03bH
	DB	0aeH
	DB	05bH
	DB	0b6H
	DB	05bH
	DB	0b6H
	DB	03bH
	DB	0aeH
	DB	05bH
	DB	0b6H
	DB	05cH
	DB	0b6H
	DB	05bH
	DB	0b6H
	DB	05cH
	DB	0b6H
	DB	05bH
	DB	0b6H
	DB	05cH
	DB	0b6H
	DB	05bH
	DB	0b6H
	DB	05bH
	DB	0b6H
	DB	05cH
	DB	0b6H
	DB	05bH
	DB	0b6H
	DB	07cH
	DB	0b6H
	DB	07cH
	DB	0b6H
	DB	05bH
	DB	0b6H
	DB	07bH
	DB	0beH
	DB	07cH
	DB	0b6H
	DB	07cH
	DB	0beH
	DB	07bH
	DB	0beH
	DB	07cH
	DB	0beH
	DB	07cH
	DB	0beH
	DB	07cH
	DB	0beH
	DB	07cH
	DB	0b6H
	DB	07cH
	DB	0beH
	DB	09bH
	DB	0beH
	DB	09cH
	DB	0beH
	DB	09cH
	DB	0beH
	DB	09cH
	DB	0beH
	DB	09cH
	DB	0beH
	DB	09cH
	DB	0beH
	DB	09cH
	DB	0c6H
	DB	09cH
	DB	0beH
	DB	09cH
	DB	0c6H
	DB	09cH
	DB	0c6H
	DB	09cH
	DB	0beH
	DB	0bcH
	DB	0c6H
	DB	0bcH
	DB	0c6H
	DB	0bcH
	DB	0beH
	DB	0bdH
	DB	0c6H
	DB	0bcH
	DB	0c6H
	DB	0bdH
	DB	0c6H
	DB	0bdH
	DB	0c6H
	DB	0bcH
	DB	0c6H
	DB	0bcH
	DB	0c6H
	DB	0bdH
	DB	0c6H
	DB	0bdH
	DB	0ceH
	DB	0dcH
	DB	0c6H
	DB	0bdH
	DB	0ceH
	DB	0dcH
	DB	0ceH
	DB	0dcH
	DB	0ceH
	DB	0ddH
	DB	0ceH
	DB	0ddH
	DB	0ceH
	DB	0dcH
	DB	0ceH
	DB	0dcH
	DB	0ceH
	DB	0ddH
	DB	0ceH
	DB	0ddH
	DB	0ceH
	DB	0dcH
	DB	0ceH
	DB	0fdH
	DB	0ceH
	DB	0fdH
	DB	0ceH
	DB	0ddH
	DB	0ceH
	DB	0fcH
	DB	0ceH
	DB	0fdH
	DB	0d6H
	DB	0fdH
	DB	0ceH
	DB	0fdH
	DB	0d6H
	DB	0fdH
	DB	0d6H
	DB	0fdH
	DB	0ceH
	DB	0fdH
	DB	0d6H
	DB	0fdH
	DB	0d6H
	DB	0fdH
	DB	0d6H
	DB	01dH
	DB	0d7H
	DB	0fdH
	DB	0d6H
	DB	01dH
	DB	0d7H
	DB	01dH
	DB	0d7H
	DB	01dH
	DB	0d7H
	DB	01eH
	DB	0d7H
	DB	01dH
	DB	0d7H
	DB	01eH
	DB	0d7H
	DB	01dH
	DB	0d7H
	DB	01eH
	DB	0d7H
	DB	01eH
	DB	0dfH
	DB	01dH
	DB	0d7H
	DB	01dH
	DB	0d7H
	DB	01dH
	DB	0dfH
	DB	01eH
	DB	0d7H
	DB	01dH
	DB	0dfH
	DB	03dH
	DB	0dfH
	DB	01eH
	DB	0d7H
	DB	03dH
	DB	0dfH
	DB	03eH
	DB	0d7H
	DB	03dH
	DB	0d7H
	DB	03eH
	DB	0dfH
	DB	01dH
	DB	0dfH
	DB	03eH
	DB	0d7H
	DB	03dH
	DB	0dfH
	DB	01eH
	DB	0dfH
	DB	01dH
	DB	0d7H
	DB	03dH
	DB	0dfH
	DB	01eH
	DB	0dfH
	DB	03dH
	DB	0d7H
	DB	01dH
	DB	0dfH
	DB	03eH
	DB	0dfH
	DB	03dH
	DB	0dfH
	DB	03dH
	DB	0dfH
	DB	03eH
	DB	0dfH
	DB	03dH
	DB	0d7H
	DB	03dH
	DB	0dfH
	DB	03eH
	DB	0dfH
	DB	01eH
	DB	0d7H
	DB	03dH
	DB	0dfH
	DB	03eH
	DB	0dfH
	DB	01eH
	DB	0dfH
	DB	03dH
	DB	0dfH
	DB	03eH
	DB	0dfH
	DB	03dH
	DB	0dfH
	DB	01dH
	DB	0dfH
	DB	03eH
	DB	0dfH
	DB	03dH
	DB	0dfH
	DB	03eH
	DB	0d7H
	DB	03dH
	DB	0dfH
	DB	03eH
	DB	0dfH
	DB	03eH
	DB	0d7H
	DB	03dH
	DB	0dfH
	DB	03eH
	DB	0dfH
	DB	03dH
	DB	0dfH
	DB	03eH
	DB	0dfH
	DB	03eH
	DB	0dfH
	DB	03dH
	DB	0dfH
	DB	03eH
	DB	0dfH
	DB	03eH
	DB	0dfH
	DB	03dH
	DB	0dfH
	DB	03eH
	DB	0dfH
	DB	03eH
	DB	0dfH
	DB	03dH
	DB	0dfH
	DB	03eH
	DB	0dfH
	DB	03eH
	DB	0dfH
	DB	03dH
	DB	0dfH
	DB	03eH
	DB	0dfH
	DB	03eH
	DB	0dfH
	DB	03dH
	DB	0dfH
	DB	03eH
	DB	0dfH
	DB	03eH
	DB	0dfH
	DB	03dH
	DB	0dfH
	DB	03eH
	DB	0dfH
	DB	03eH
	DB	0dfH
	DB	03dH
	DB	0dfH
	DB	03eH
	DB	0dfH
	DB	03eH
	DB	0dfH
	DB	03dH
	DB	0dfH
	DB	03eH
	DB	0dfH
	DB	03eH
	DB	0dfH
	DB	03dH
	DB	0dfH
	DB	03eH
	DB	0dfH
	DB	03eH
	DB	0dfH
	DB	03dH
	DB	0dfH
	DB	03eH
	DB	0dfH
	DB	03eH
	DB	0dfH
	DB	03dH
	DB	0dfH
	DB	03eH
	DB	0dfH
	DB	03eH
	DB	0dfH
	DB	03dH
	DB	0dfH
	DB	03eH
	DB	0d7H
	DB	03eH
	DB	0dfH
	DB	03dH
	DB	0dfH
	DB	03eH
	DB	0d7H
	DB	03eH
	DB	0dfH
	DB	03dH
	DB	0dfH
	DB	03dH
	DB	0dfH
	DB	01eH
	DB	0dfH
	DB	03eH
	DB	0dfH
	DB	03dH
	DB	0dfH
	DB	03eH
	DB	0dfH
	DB	01eH
	DB	0d7H
	DB	01dH
	DB	0dfH
	DB	03eH
	DB	0dfH
	DB	03dH
	DB	0dfH
	DB	03dH
	DB	0d7H
	DB	03eH
	DB	0dfH
	DB	03dH
	DB	0dfH
	DB	03dH
	DB	0dfH
	DB	03eH
	DB	0dfH
	DB	03dH
	DB	0dfH
	DB	01dH
	DB	0dfH
	DB	03eH
	DB	0d7H
	DB	03dH
	DB	0dfH
	DB	01dH
	DB	0d7H
	DB	03eH
	DB	0dfH
	DB	01dH
	DB	0dfH
	DB	01dH
	DB	0d7H
	DB	03eH
	DB	0dfH
	DB	03eH
	DB	0dfH
	DB	03dH
	DB	0d7H
	DB	03eH
	DB	0d7H
	DB	03eH
	DB	0dfH
	DB	01dH
	DB	0dfH
	DB	03dH
	DB	0d7H
	DB	01eH
	DB	0dfH
	DB	01dH
	DB	0dfH
	DB	03dH
	DB	0d7H
	DB	01eH
	DB	0dfH
	DB	01dH
	DB	0dfH
	DB	01dH
	DB	0dfH
	DB	01eH
	DB	0d7H
	DB	01eH
	DB	0d7H
	DB	01dH
	DB	0d7H
	DB	01eH
	DB	0d7H
	DB	01dH
	DB	0d7H
	DB	01dH
	DB	0d7H
	DB	01eH
	DB	0d7H
	DB	01dH
	DB	0d7H
	DB	01dH
	DB	0d7H
	DB	01dH
	DB	0d7H
	DB	01dH
	DB	0d7H
	DB	0fdH
	DB	0d6H
	DB	0fdH
	DB	0d6H
	DB	0fdH
	DB	0d6H
	DB	0fdH
	DB	0d6H
	DB	0fdH
	DB	0ceH
	DB	0fdH
	DB	0d6H
	DB	0fdH
	DB	0ceH
	DB	0fdH
	DB	0d6H
	DB	0fdH
	DB	0ceH
	DB	0fdH
	DB	0ceH
	DB	0ddH
	DB	0ceH
	DB	0fcH
	DB	0ceH
	DB	0ddH
	DB	0ceH
	DB	0dcH
	DB	0ceH
	DB	0ddH
	DB	0ceH
	DB	0dcH
	DB	0ceH
	DB	0ddH
	DB	0c6H
	DB	0ddH
	DB	0ceH
	DB	0dcH
	DB	0ceH
	DB	0ddH
	DB	0ceH
	DB	0dcH
	DB	0c6H
	DB	0ddH
	DB	0ceH
	DB	0ddH
	DB	0ceH
	DB	0bdH
	DB	0c6H
	DB	0bcH
	DB	0c6H
	DB	0bdH
	DB	0c6H
	DB	0bdH
	DB	0c6H
	DB	0bdH
	DB	0c6H
	DB	0bcH
	DB	0c6H
	DB	0bdH
	DB	0c6H
	DB	0bcH
	DB	0c6H
	DB	0bcH
	DB	0c6H
	DB	09cH
	DB	0c6H
	DB	0bcH
	DB	0beH
	DB	09cH
	DB	0c6H
	DB	09cH
	DB	0c6H
	DB	09cH
	DB	0c6H
	DB	09cH
	DB	0beH
	DB	09cH
	DB	0c6H
	DB	09cH
	DB	0beH
	DB	09cH
	DB	0beH
	DB	09cH
	DB	0beH
	DB	09cH
	DB	0beH
	DB	07cH
	DB	0beH
	DB	09bH
	DB	0beH
	DB	07cH
	DB	0beH
	DB	07cH
	DB	0b6H
	DB	07cH
	DB	0beH
	DB	07bH
	DB	0b6H
	DB	07cH
	DB	0beH
	DB	07bH
	DB	0beH
	DB	05cH
	DB	0b6H
	DB	07cH
	DB	0b6H
	DB	07bH
	DB	0beH
	DB	05bH
	DB	0b6H
	DB	05cH
	DB	0b6H
	DB	07cH
	DB	0b6H
	DB	05bH
	DB	0b6H
	DB	05bH
	DB	0b6H
	DB	05cH
	DB	0b6H
	DB	05bH
	DB	0b6H
	DB	05cH
	DB	0b6H
	DB	05bH
	DB	0b6H
	DB	05cH
	DB	0aeH
	DB	05bH
	DB	0b6H
	DB	05cH
	DB	0aeH
	DB	03bH
	DB	0b6H
	DB	05bH
	DB	0b6H
	DB	03bH
	DB	0aeH
	DB	05bH
	DB	0aeH
	DB	03bH
	DB	0b6H
	DB	03bH
	DB	0aeH
	DB	03bH
	DB	0aeH
	DB	03bH
	DB	0b6H
	DB	03bH
	DB	0aeH
	DB	03bH
	DB	0aeH
	DB	03bH
	DB	0aeH
	DB	03bH
	DB	0aeH
	DB	01bH
	DB	0aeH
	DB	03bH
	DB	0aeH
	DB	03bH
	DB	0aeH
	DB	03bH
	DB	0aeH
	DB	01bH
	DB	0aeH
	DB	01bH
	DB	0aeH
	DB	03bH
	DB	0aeH
	DB	03bH
	DB	0aeH
	DB	01bH
	DB	0aeH
	DB	03bH
	DB	0aeH
	DB	01bH
	DB	0aeH
	DB	01bH
	DB	0aeH
	DB	03bH
	DB	0aeH
	DB	01bH
	DB	0aeH
	DB	03bH
	DB	0aeH
	DB	03bH
	DB	0aeH
	DB	01bH
	DB	0aeH
	DB	03bH
	DB	0aeH
	DB	01bH
	DB	0aeH
	DB	03bH
	DB	0aeH
	DB	01bH
	DB	0aeH
	DB	01bH
	DB	0aeH
	DB	03bH
	DB	0aeH
	DB	01bH
	DB	0aeH
	DB	03bH
	DB	0aeH
	DB	01bH
	DB	0aeH
	DB	03bH
	DB	0aeH
	DB	01bH
	DB	0aeH
	DB	03bH
	DB	0aeH
	DB	01bH
	DB	0aeH
	DB	01bH
	DB	0aeH
	DB	03bH
	DB	0aeH
	DB	01bH
	DB	0aeH
	DB	03bH
	DB	0aeH
	DB	01bH
	DB	0aeH
	DB	03bH
	DB	0aeH
	DB	01bH
	DB	0aeH
	DB	03bH
	DB	0aeH
	DB	01bH
	DB	0aeH
	DB	01bH
	DB	0aeH
	DB	03bH
	DB	0aeH
	DB	01bH
	DB	0aeH
	DB	03bH
	DB	0aeH
	DB	01bH
	DB	0aeH
	DB	03bH
	DB	0aeH
	DB	01bH
	DB	0aeH
	DB	03bH
	DB	0aeH
	DB	01bH
	DB	0aeH
	DB	01bH
	DB	0aeH
	DB	03bH
	DB	0aeH
	DB	01bH
	DB	0aeH
	DB	03bH
	DB	0aeH
	DB	01bH
	DB	0aeH
	DB	03bH
	DB	0aeH
	DB	01bH
	DB	0aeH
	DB	03bH
	DB	0aeH
	DB	01bH
	DB	0aeH
	DB	01bH
	DB	0aeH
	DB	03bH
	DB	0aeH
	DB	01bH
	DB	0aeH
	DB	03bH
	DB	0aeH
	DB	01bH
	DB	0aeH
	DB	03bH
	DB	0aeH
	DB	01bH
	DB	0aeH
	DB	03bH
	DB	0aeH
	DB	01bH
	DB	0aeH
	DB	01bH
	DB	0aeH
	DB	03bH
	DB	0aeH
	DB	01bH
	DB	0aeH
	DB	03bH
	DB	0aeH
	DB	01bH
	DB	0aeH
	DB	03bH
	DB	0aeH
	DB	01bH
	DB	0aeH
	DB	03bH
	DB	0aeH
	DB	01bH
	DB	0aeH
	DB	01bH
	DB	0aeH
	DB	03bH
	DB	0aeH
	DB	01bH
	DB	0aeH
	DB	03bH
	DB	0aeH
	DB	01bH
	DB	0aeH
	DB	03bH
	DB	0aeH
	DB	01bH
	DB	0aeH
	DB	01bH
	DB	0aeH
	DB	03bH
	DB	0aeH
	DB	01aH
	DB	0aeH
	DB	03bH
	DB	0aeH
	DB	03bH
	DB	0aeH
	DB	01bH
	DB	0aeH
	DB	016H
	DB	08dH
	DB	021H
	DB	08H
	DB	0abH
	DB	04aH
	DB	01bH
	DB	0aeH
	DB	03bH
	DB	0aeH
	DB	01bH
	DB	0aeH
	DB	03bH
	DB	0aeH
	DB	01bH
	DB	0aeH
	DB	03aH
	DB	0aeH
	DB	01bH
	DB	0aeH
	DB	03bH
	DB	0a6H
	DB	03aH
	DB	0aeH
	DB	01bH
	DB	0aeH
	DB	03bH
	DB	0a6H
	DB	01aH
	DB	0aeH
	DB	03bH
	DB	0aeH
	DB	01bH
	DB	0a6H
	DB	03aH
	DB	0aeH
	DB	01bH
	DB	0aeH
	DB	03bH
	DB	0a6H
	DB	03aH
	DB	0aeH
	DB	01bH
	DB	0aeH
	DB	03bH
	DB	0a6H
	DB	01aH
	DB	0aeH
	DB	03bH
	DB	0aeH
	DB	01bH
	DB	0a6H
	DB	03aH
	DB	0aeH
	DB	01bH
	DB	0aeH
	DB	03bH
	DB	0a6H
	DB	03aH
	DB	0aeH
	DB	01bH
	DB	0aeH
	DB	03bH
	DB	0a6H
	DB	01aH
	DB	0aeH
	DB	03bH
	DB	0aeH
	DB	01bH
	DB	0a6H
	DB	03aH
	DB	0aeH
	DB	01bH
	DB	0aeH
	DB	03bH
	DB	0a6H
	DB	03aH
	DB	0aeH
	DB	01bH
	DB	0aeH
	DB	03bH
	DB	0a6H
	DB	01aH
	DB	0aeH
	DB	03bH
	DB	0aeH
	DB	01bH
	DB	0a6H
	DB	03aH
	DB	0aeH
	DB	01bH
	DB	0aeH
	DB	03bH
	DB	0a6H
	DB	03aH
	DB	0aeH
	DB	01bH
	DB	0aeH
	DB	03bH
	DB	0a6H
	DB	01aH
	DB	0aeH
	DB	03bH
	DB	0aeH
	DB	01bH
	DB	0a6H
	DB	03aH
	DB	0aeH
	DB	01bH
	DB	0aeH
	DB	03bH
	DB	0a6H
	DB	03aH
	DB	0aeH
	DB	01bH
	DB	0aeH
	DB	03bH
	DB	0a6H
	DB	01aH
	DB	0aeH
	DB	03bH
	DB	0aeH
	DB	01bH
	DB	0a6H
	DB	03aH
	DB	0aeH
	DB	01bH
	DB	0aeH
	DB	03bH
	DB	0a6H
	DB	03aH
	DB	0aeH
	DB	01bH
	DB	0aeH
	DB	03bH
	DB	0a6H
	DB	01aH
	DB	0aeH
	DB	03bH
	DB	0aeH
	DB	01bH
	DB	0a6H
	DB	03aH
	DB	0aeH
	DB	01bH
	DB	0aeH
	DB	03bH
	DB	0a6H
	DB	03aH
	DB	0aeH
	DB	01bH
	DB	0aeH
	DB	03bH
	DB	0a6H
	DB	01aH
	DB	0aeH
	DB	03bH
	DB	0aeH
	DB	01bH
	DB	0a6H
	DB	03aH
	DB	0aeH
	DB	01bH
	DB	0aeH
	DB	03bH
	DB	0a6H
	DB	03aH
	DB	0aeH
	DB	01bH
	DB	0aeH
	DB	01bH
	DB	0a6H
	DB	03aH
	DB	0aeH
	DB	01bH
	DB	0aeH
	DB	03bH
	DB	0a6H
	DB	03aH
	DB	0aeH
	DB	03bH
	DB	0aeH
	DB	03bH
	DB	0aeH
	DB	03bH
	DB	0aeH
	DB	03bH
	DB	0aeH
	DB	03bH
	DB	0aeH
	DB	03bH
	DB	0aeH
	DB	03bH
	DB	0aeH
	DB	03bH
	DB	0b6H
	DB	03bH
	DB	0b6H
	DB	05bH
	DB	0aeH
	DB	05bH
	DB	0aeH
	DB	03bH
	DB	0b6H
	DB	03bH
	DB	0aeH
	DB	05cH
	DB	0b6H
	DB	05bH
	DB	0b6H
	DB	03bH
	DB	0b6H
	DB	03bH
	DB	0aeH
	DB	05bH
	DB	0b6H
	DB	05cH
	DB	0b6H
	DB	05bH
	DB	0b6H
	DB	05bH
	DB	0b6H
	DB	05cH
	DB	0b6H
	DB	05bH
	DB	0b6H
	DB	07bH
	DB	0b6H
	DB	07cH
	DB	0b6H
	DB	05bH
	DB	0b6H
	DB	07bH
	DB	0beH
	DB	07cH
	DB	0b6H
	DB	07cH
	DB	0beH
	DB	07bH
	DB	0b6H
	DB	07cH
	DB	0b6H
	DB	07cH
	DB	0beH
	DB	07bH
	DB	0beH
	DB	07cH
	DB	0beH
	DB	07cH
	DB	0beH
	DB	09cH
	DB	0beH
	DB	07cH
	DB	0beH
	DB	09cH
	DB	0beH
	DB	09cH
	DB	0beH
	DB	07cH
	DB	0beH
	DB	09cH
	DB	0beH
	DB	09cH
	DB	0beH
	DB	09cH
	DB	0c6H
	DB	09cH
	DB	0beH
	DB	09cH
	DB	0beH
	DB	0bcH
	DB	0c6H
	DB	09cH
	DB	0c6H
	DB	09cH
	DB	0c6H
	DB	0bcH
	DB	0c6H
	DB	0bcH
	DB	0c6H
	DB	09cH
	DB	0c6H
	DB	0bcH
	DB	0c6H
	DB	0bdH
	DB	0c6H
	DB	0bcH
	DB	0c6H
	DB	0bcH
	DB	0c6H
	DB	0bcH
	DB	0c6H
	DB	0ddH
	DB	0ceH
	DB	0dcH
	DB	0c6H
	DB	0bcH
	DB	0ceH
	DB	0ddH
	DB	0c6H
	DB	0ddH
	DB	0ceH
	DB	0dcH
	DB	0c6H
	DB	0ddH
	DB	0ceH
	DB	0ddH
	DB	0ceH
	DB	0ddH
	DB	0ceH
	DB	0ddH
	DB	0ceH
	DB	0ddH
	DB	0ceH
	DB	0fdH
	DB	0ceH
	DB	0ddH
	DB	0ceH
	DB	0fdH
	DB	0ceH
	DB	0fdH
	DB	0ceH
	DB	0fdH
	DB	0ceH
	DB	0fdH
	DB	0d6H
	DB	0fdH
	DB	0d6H
	DB	0fdH
	DB	0ceH
	DB	0fdH
	DB	0ceH
	DB	0fdH
	DB	0d6H
	DB	0fdH
	DB	0d6H
	DB	0fdH
	DB	0ceH
	DB	01dH
	DB	0d7H
	DB	01dH
	DB	0d7H
	DB	0fdH
	DB	0d6H
	DB	01dH
	DB	0d7H
	DB	01eH
	DB	0d7H
	DB	01dH
	DB	0d7H
	DB	0fdH
	DB	0d6H
	DB	01dH
	DB	0d7H
	DB	01dH
	DB	0d7H
	DB	01eH
	DB	0d7H
	DB	01dH
	DB	0d7H
	DB	01dH
	DB	0dfH
	DB	01eH
	DB	0d7H
	DB	01dH
	DB	0d7H
	DB	01dH
	DB	0dfH
	DB	01eH
	DB	0d7H
	DB	03dH
	DB	0d7H
	DB	01dH
	DB	0d7H
	DB	03eH
	DB	0d7H
	DB	03dH
	DB	0dfH
	DB	01eH
	DB	0d7H
	DB	01dH
	DB	0dfH
	DB	03dH
	DB	0dfH
	DB	01eH
	DB	0d7H
	DB	01dH
	DB	0dfH
	DB	03dH
	DB	0dfH
	DB	01eH
	DB	0d7H
	DB	01dH
	DB	0dfH
	DB	03eH
	DB	0d7H
	DB	03eH
	DB	0dfH
	DB	03dH
	DB	0dfH
	DB	03eH
	DB	0dfH
	DB	03eH
	DB	0dfH
	DB	03dH
	DB	0d7H
	DB	03eH
	DB	0dfH
	DB	03eH
	DB	0dfH
	DB	01eH
	DB	0d7H
	DB	03eH
	DB	0dfH
	DB	03eH
	DB	0dfH
	DB	01dH
	DB	0dfH
	DB	03eH
	DB	0dfH
	DB	03eH
	DB	0dfH
	DB	03dH
	DB	0dfH
	DB	03eH
	DB	0dfH
	DB	03eH
	DB	0dfH
	DB	03dH
	DB	0dfH
	DB	03eH
	DB	0dfH
	DB	03eH
	DB	0dfH
	DB	03dH
	DB	0dfH
	DB	03eH
	DB	0dfH
	DB	03eH
	DB	0dfH
	DB	03dH
	DB	0dfH
	DB	03eH
	DB	0dfH
	DB	03dH
	DB	0dfH
	DB	03eH
	DB	0dfH
	DB	03eH
	DB	0dfH
	DB	03dH
	DB	0dfH
	DB	03eH
	DB	0dfH
	DB	03dH
	DB	0dfH
	DB	03dH
	DB	0dfH
	DB	03eH
	DB	0dfH
	DB	03dH
	DB	0dfH
	DB	03eH
	DB	0dfH
	DB	03dH
	DB	0dfH
	DB	03eH
	DB	0dfH
	DB	03dH
	DB	0dfH
	DB	03eH
	DB	0dfH
	DB	03dH
	DB	0dfH
	DB	03dH
	DB	0dfH
	DB	03eH
	DB	0dfH
	DB	03dH
	DB	0dfH
	DB	03eH
	DB	0dfH
	DB	03dH
	DB	0dfH
	DB	03eH
	DB	0dfH
	DB	03dH
	DB	0dfH
	DB	03eH
	DB	0dfH
	DB	03dH
	DB	0dfH
	DB	03dH
	DB	0dfH
	DB	03eH
	DB	0dfH
	DB	03dH
	DB	0dfH
	DB	03eH
	DB	0dfH
	DB	03dH
	DB	0dfH
	DB	03eH
	DB	0dfH
	DB	03dH
	DB	0dfH
	DB	03eH
	DB	0dfH
	DB	03dH
	DB	0dfH
	DB	03dH
	DB	0dfH
	DB	03eH
	DB	0dfH
	DB	03dH
	DB	0dfH
	DB	03eH
	DB	0dfH
	DB	03dH
	DB	0dfH
	DB	03eH
	DB	0dfH
	DB	03dH
	DB	0dfH
	DB	03eH
	DB	0dfH
	DB	03dH
	DB	0dfH
	DB	03dH
	DB	0dfH
	DB	03eH
	DB	0dfH
	DB	03eH
	DB	0dfH
	DB	03dH
	DB	0dfH
	DB	03eH
	DB	0dfH
	DB	03eH
	DB	0dfH
	DB	03dH
	DB	0dfH
	DB	03eH
	DB	0dfH
	DB	03eH
	DB	0dfH
	DB	03dH
	DB	0dfH
	DB	03eH
	DB	0dfH
	DB	01eH
	DB	0dfH
	DB	03eH
	DB	0dfH
	DB	01eH
	DB	0d7H
	DB	03eH
	DB	0dfH
	DB	03eH
	DB	0dfH
	DB	01dH
	DB	0d7H
	DB	03eH
	DB	0d7H
	DB	03eH
	DB	0dfH
	DB	03dH
	DB	0dfH
	DB	03eH
	DB	0dfH
	DB	03eH
	DB	0dfH
	DB	03dH
	DB	0d7H
	DB	01eH
	DB	0d7H
	DB	03eH
	DB	0dfH
	DB	01dH
	DB	0dfH
	DB	01dH
	DB	0d7H
	DB	01dH
	DB	0dfH
	DB	01eH
	DB	0dfH
	DB	03dH
	DB	0d7H
	DB	01dH
	DB	0d7H
	DB	03eH
	DB	0dfH
	DB	03dH
	DB	0d7H
	DB	03eH
	DB	0d7H
	DB	01dH
	DB	0dfH
	DB	01dH
	DB	0d7H
	DB	01dH
	DB	0d7H
	DB	01eH
	DB	0d7H
	DB	01dH
	DB	0dfH
	DB	01dH
	DB	0dfH
	DB	01eH
	DB	0d7H
	DB	01dH
	DB	0dfH
	DB	01eH
	DB	0d7H
	DB	01dH
	DB	0d7H
	DB	01dH
	DB	0d7H
	DB	0feH
	DB	0d6H
	DB	01dH
	DB	0d7H
	DB	01dH
	DB	0d7H
	DB	01eH
	DB	0d7H
	DB	0fdH
	DB	0ceH
	DB	01dH
	DB	0d7H
	DB	01dH
	DB	0cfH
	DB	0fdH
	DB	0d6H
	DB	0fdH
	DB	0ceH
	DB	0fdH
	DB	0d6H
	DB	0fdH
	DB	0ceH
	DB	0fdH
	DB	0d6H
	DB	0fdH
	DB	0d6H
	DB	0fdH
	DB	0ceH
	DB	0fdH
	DB	0d6H
	DB	0fdH
	DB	0ceH
	DB	0ddH
	DB	0ceH
	DB	0fdH
	DB	0ceH
	DB	0fdH
	DB	0ceH
	DB	0dcH
	DB	0ceH
	DB	0ddH
	DB	0ceH
	DB	0ddH
	DB	0ceH
	DB	0dcH
	DB	0c6H
	DB	0ddH
	DB	0ceH
	DB	0bdH
	DB	0c6H
	DB	0dcH
	DB	0ceH
	DB	0dcH
	DB	0c6H
	DB	0bdH
	DB	0ceH
	DB	0dcH
	DB	0c6H
	DB	0dcH
	DB	0ceH
	DB	0bcH
	DB	0c6H
	DB	0bcH
	DB	0c6H
	DB	0bcH
	DB	0c6H
	DB	0bdH
	DB	0c6H
	DB	0bcH
	DB	0c6H
	DB	09cH
	DB	0c6H
	DB	0bdH
	DB	0c6H
	DB	0bcH
	DB	0beH
	DB	09cH
	DB	0c6H
	DB	0bcH
	DB	0beH
	DB	0bcH
	DB	0c6H
	DB	09cH
	DB	0beH
	DB	09cH
	DB	0c6H
	DB	09cH
	DB	0beH
	DB	09cH
	DB	0c6H
	DB	09cH
	DB	0beH
	DB	07cH
	DB	0beH
	DB	09cH
	DB	0beH
	DB	09cH
	DB	0beH
	DB	07cH
	DB	0beH
	DB	09cH
	DB	0beH
	DB	07cH
	DB	0beH
	DB	07cH
	DB	0beH
	DB	07cH
	DB	0beH
	DB	07cH
	DB	0b6H
	DB	07bH
	DB	0beH
	DB	07cH
	DB	0b6H
	DB	07cH
	DB	0beH
	DB	07bH
	DB	0beH
	DB	07bH
	DB	0b6H
	DB	05cH
	DB	0b6H
	DB	07bH
	DB	0beH
	DB	07bH
	DB	0b6H
	DB	05bH
	DB	0b6H
	DB	05bH
	DB	0b6H
	DB	05cH
	DB	0b6H
	DB	05bH
	DB	0b6H
	DB	05cH
	DB	0b6H
	DB	05bH
	DB	0aeH
	DB	03bH
	DB	0b6H
	DB	05bH
	DB	0b6H
	DB	05cH
	DB	0aeH
	DB	03bH
	DB	0b6H
	DB	05bH
	DB	0aeH
	DB	05bH
	DB	0b6H
	DB	05bH
	DB	0aeH
	DB	03bH
	DB	0aeH
	DB	03bH
	DB	0b6H
	DB	05bH
	DB	0aeH
	DB	03bH
	DB	0aeH
	DB	03bH
	DB	0aeH
	DB	03bH
	DB	0aeH
	DB	03bH
	DB	0aeH
	DB	03bH
	DB	0aeH
	DB	03bH
	DB	0aeH
	DB	03bH
	DB	0aeH
	DB	03aH
	DB	0aeH
	DB	03bH
	DB	0aeH
	DB	01bH
	DB	0a6H
	DB	01aH
	DB	0aeH
	DB	03bH
	DB	0aeH
	DB	01bH
	DB	0a6H
	DB	03aH
	DB	0aeH
	DB	03bH
	DB	0aeH
	DB	01bH
	DB	0a6H
	DB	01aH
	DB	0aeH
	DB	03bH
	DB	0aeH
	DB	01bH
	DB	0a6H
	DB	01aH
	DB	0aeH
	DB	03bH
	DB	0aeH
	DB	01bH
	DB	0a6H
	DB	03aH
	DB	0aeH
	DB	03bH
	DB	0aeH
	DB	01bH
	DB	0a6H
	DB	03aH
	DB	0aeH
	DB	01bH
	DB	0aeH
	DB	03bH
	DB	0a6H
	DB	01aH
	DB	0aeH
	DB	03bH
	DB	0aeH
	DB	01bH
	DB	0a6H
	DB	03aH
	DB	0aeH
	DB	03bH
	DB	0aeH
	DB	01bH
	DB	0a6H
	DB	03aH
	DB	0aeH
	DB	01bH
	DB	0aeH
	DB	03bH
	DB	0a6H
	DB	01aH
	DB	0aeH
	DB	03bH
	DB	0aeH
	DB	01bH
	DB	0a6H
	DB	03aH
	DB	0aeH
	DB	03bH
	DB	0aeH
	DB	01bH
	DB	0a6H
	DB	03aH
	DB	0aeH
	DB	01bH
	DB	0aeH
	DB	03bH
	DB	0a6H
	DB	01aH
	DB	0aeH
	DB	03bH
	DB	0aeH
	DB	01bH
	DB	0a6H
	DB	03aH
	DB	0aeH
	DB	03bH
	DB	0aeH
	DB	01bH
	DB	0a6H
	DB	03aH
	DB	0aeH
	DB	01bH
	DB	0aeH
	DB	03bH
	DB	0a6H
	DB	01aH
	DB	0aeH
	DB	03bH
	DB	0aeH
	DB	01bH
	DB	0a6H
	DB	03aH
	DB	0aeH
	DB	03bH
	DB	0aeH
	DB	01bH
	DB	0a6H
	DB	03aH
	DB	0aeH
	DB	01bH
	DB	0aeH
	DB	03bH
	DB	0a6H
	DB	01aH
	DB	0aeH
	DB	03bH
	DB	0aeH
	DB	01bH
	DB	0a6H
	DB	03aH
	DB	0aeH
	DB	03bH
	DB	0aeH
	DB	01bH
	DB	0a6H
	DB	03aH
	DB	0aeH
	DB	01bH
	DB	0aeH
	DB	03bH
	DB	0a6H
	DB	01aH
	DB	0aeH
	DB	03bH
	DB	0aeH
	DB	01bH
	DB	0a6H
	DB	03aH
	DB	0aeH
	DB	03bH
	DB	0aeH
	DB	01bH
	DB	0a6H
	DB	03aH
	DB	0aeH
	DB	01bH
	DB	0aeH
	DB	03bH
	DB	0a6H
	DB	01aH
	DB	0aeH
	DB	03bH
	DB	0aeH
	DB	03bH
	DB	0a6H
	DB	01aH
	DB	0aeH
	DB	03bH
	DB	0aeH
	DB	01bH
	DB	0a6H
	DB	01bH
	DB	0aeH
	DB	03bH
	DB	0aeH
	DB	01bH
	DB	0aeH
	DB	03bH
	DB	0aeH
	DB	03bH
	DB	0aeH
	DB	0abH
	DB	04aH
	DB	0d5H
	DB	084H
	DB	01bH
	DB	0aeH
	DB	01bH
	DB	0aeH
	DB	03bH
	DB	0aeH
	DB	03bH
	DB	0aeH
	DB	01bH
	DB	0aeH
	DB	03bH
	DB	0aeH
	DB	01bH
	DB	0aeH
	DB	01bH
	DB	0aeH
	DB	03bH
	DB	0aeH
	DB	01bH
	DB	0aeH
	DB	03bH
	DB	0aeH
	DB	03bH
	DB	0aeH
	DB	01bH
	DB	0aeH
	DB	03bH
	DB	0aeH
	DB	01bH
	DB	0aeH
	DB	03bH
	DB	0aeH
	DB	01bH
	DB	0aeH
	DB	01bH
	DB	0aeH
	DB	03bH
	DB	0aeH
	DB	03bH
	DB	0aeH
	DB	01bH
	DB	0aeH
	DB	03bH
	DB	0aeH
	DB	03bH
	DB	0aeH
	DB	01bH
	DB	0aeH
	DB	01bH
	DB	0aeH
	DB	03bH
	DB	0aeH
	DB	01bH
	DB	0aeH
	DB	03bH
	DB	0aeH
	DB	01bH
	DB	0aeH
	DB	03bH
	DB	0aeH
	DB	01bH
	DB	0aeH
	DB	03bH
	DB	0aeH
	DB	01bH
	DB	0aeH
	DB	03bH
	DB	0aeH
	DB	01bH
	DB	0aeH
	DB	01bH
	DB	0aeH
	DB	03bH
	DB	0aeH
	DB	03bH
	DB	0aeH
	DB	01bH
	DB	0aeH
	DB	03bH
	DB	0aeH
	DB	03bH
	DB	0aeH
	DB	01bH
	DB	0aeH
	DB	01bH
	DB	0aeH
	DB	03bH
	DB	0aeH
	DB	01bH
	DB	0aeH
	DB	03bH
	DB	0aeH
	DB	01bH
	DB	0aeH
	DB	03bH
	DB	0aeH
	DB	01bH
	DB	0aeH
	DB	03bH
	DB	0aeH
	DB	01bH
	DB	0aeH
	DB	03bH
	DB	0aeH
	DB	01bH
	DB	0aeH
	DB	01bH
	DB	0aeH
	DB	03bH
	DB	0aeH
	DB	03bH
	DB	0aeH
	DB	01bH
	DB	0aeH
	DB	03bH
	DB	0aeH
	DB	03bH
	DB	0aeH
	DB	01bH
	DB	0aeH
	DB	01bH
	DB	0aeH
	DB	03bH
	DB	0aeH
	DB	01bH
	DB	0aeH
	DB	03bH
	DB	0aeH
	DB	01bH
	DB	0aeH
	DB	03bH
	DB	0aeH
	DB	01bH
	DB	0aeH
	DB	03bH
	DB	0aeH
	DB	01bH
	DB	0aeH
	DB	03bH
	DB	0aeH
	DB	01bH
	DB	0aeH
	DB	01bH
	DB	0aeH
	DB	03bH
	DB	0aeH
	DB	03bH
	DB	0aeH
	DB	01bH
	DB	0aeH
	DB	03bH
	DB	0aeH
	DB	03bH
	DB	0aeH
	DB	01bH
	DB	0aeH
	DB	01bH
	DB	0aeH
	DB	03bH
	DB	0aeH
	DB	01bH
	DB	0aeH
	DB	03bH
	DB	0aeH
	DB	03bH
	DB	0aeH
	DB	01bH
	DB	0aeH
	DB	03bH
	DB	0aeH
	DB	03bH
	DB	0aeH
	DB	03bH
	DB	0aeH
	DB	01bH
	DB	0aeH
	DB	03bH
	DB	0aeH
	DB	03bH
	DB	0aeH
	DB	03bH
	DB	0aeH
	DB	03bH
	DB	0aeH
	DB	03bH
	DB	0aeH
	DB	03bH
	DB	0aeH
	DB	03bH
	DB	0b6H
	DB	03bH
	DB	0aeH
	DB	05bH
	DB	0aeH
	DB	05bH
	DB	0b6H
	DB	03bH
	DB	0aeH
	DB	03cH
	DB	0b6H
	DB	05bH
	DB	0aeH
	DB	05bH
	DB	0b6H
	DB	05cH
	DB	0b6H
	DB	05bH
	DB	0aeH
	DB	05cH
	DB	0b6H
	DB	05bH
	DB	0b6H
	DB	05bH
	DB	0b6H
	DB	05cH
	DB	0b6H
	DB	05bH
	DB	0b6H
	DB	07cH
	DB	0b6H
	DB	07cH
	DB	0b6H
	DB	05bH
	DB	0b6H
	DB	07cH
	DB	0beH
	DB	07cH
	DB	0b6H
	DB	05cH
	DB	0beH
	DB	07bH
	DB	0b6H
	DB	07cH
	DB	0beH
	DB	07cH
	DB	0beH
	DB	07cH
	DB	0b6H
	DB	07bH
	DB	0beH
	DB	09cH
	DB	0beH
	DB	09cH
	DB	0beH
	DB	07cH
	DB	0beH
	DB	09cH
	DB	0beH
	DB	09cH
	DB	0beH
	DB	09cH
	DB	0beH
	DB	09cH
	DB	0beH
	DB	09cH
	DB	0c6H
	DB	09cH
	DB	0beH
	DB	09cH
	DB	0c6H
	DB	09cH
	DB	0c6H
	DB	0bcH
	DB	0beH
	DB	0bcH
	DB	0c6H
	DB	09cH
	DB	0c6H
	DB	0bdH
	DB	0c6H
	DB	0bcH
	DB	0c6H
	DB	0bdH
	DB	0c6H
	DB	0bcH
	DB	0c6H
	DB	0bcH
	DB	0c6H
	DB	0bdH
	DB	0c6H
	DB	0bcH
	DB	0c6H
	DB	0bdH
	DB	0c6H
	DB	0bdH
	DB	0c6H
	DB	0dcH
	DB	0c6H
	DB	0bdH
	DB	0ceH
	DB	0dcH
	DB	0ceH
	DB	0ddH
	DB	0c6H
	DB	0ddH
	DB	0ceH
	DB	0dcH
	DB	0ceH
	DB	0ddH
	DB	0ceH
	DB	0ddH
	DB	0c6H
	DB	0dcH
	DB	0ceH
	DB	0ddH
	DB	0ceH
	DB	0fdH
	DB	0ceH
	DB	0ddH
	DB	0ceH
	DB	0fdH
	DB	0ceH
	DB	0fdH
	DB	0ceH
	DB	0dcH
	DB	0ceH
	DB	0fdH
	DB	0d6H
	DB	0fdH
	DB	0ceH
	DB	0fdH
	DB	0d6H
	DB	0fdH
	DB	0d6H
	DB	0fdH
	DB	0ceH
	DB	0fdH
	DB	0d6H
	DB	0fdH
	DB	0d6H
	DB	01dH
	DB	0d7H
	DB	0fdH
	DB	0d6H
	DB	0fdH
	DB	0d6H
	DB	01dH
	DB	0d7H
	DB	01dH
	DB	0d7H
	DB	01dH
	DB	0d7H
	DB	01eH
	DB	0d7H
	DB	01dH
	DB	0d7H
	DB	01eH
	DB	0d7H
	DB	01dH
	DB	0d7H
	DB	01dH
	DB	0dfH
	DB	01eH
	DB	0d7H
	DB	01dH
	DB	0dfH
	DB	01dH
	DB	0dfH
	DB	03eH
	DB	0d7H
	DB	01dH
	DB	0dfH
	DB	01eH
	DB	0dfH
	DB	03eH
	DB	0dfH
	DB	03dH
	DB	0d7H
	DB	01eH
	DB	0dfH
	DB	01eH
	DB	0dfH
	DB	03dH
	DB	0d7H
	DB	01eH
	DB	0dfH
	DB	03eH
	DB	0dfH
	DB	01dH
	DB	0d7H
	DB	03eH
	DB	0dfH
	DB	03eH
	DB	0dfH
	DB	01dH
	DB	0dfH
	DB	03dH
	DB	0dfH
	DB	03eH
	DB	0dfH
	DB	03dH
	DB	0d7H
	DB	03dH
	DB	0dfH
	DB	03eH
	DB	0dfH
	DB	03dH
	DB	0d7H
	DB	01eH
	DB	0dfH
	DB	03eH
	DB	0dfH
	DB	03dH
	DB	0dfH
	DB	01dH
	DB	0dfH
	DB	03eH
	DB	0dfH
	DB	03eH
	DB	0dfH
	DB	01dH
	DB	0dfH
	DB	03eH
	DB	0dfH
	DB	03eH
	DB	0dfH
	DB	03dH
	DB	0d7H
	DB	03eH
	DB	0dfH
	DB	03eH
	DB	0dfH
	DB	03dH
	DB	0d7H
	DB	03eH
	DB	0dfH
	DB	03eH
	DB	0dfH
	DB	03dH
	DB	0dfH
	DB	03eH
	DB	0dfH
	DB	03eH
	DB	0dfH
	DB	03dH
	DB	0dfH
	DB	03eH
	DB	0dfH
	DB	03eH
	DB	0dfH
	DB	03dH
	DB	0dfH
	DB	03eH
	DB	0dfH
	DB	03eH
	DB	0dfH
	DB	03dH
	DB	0dfH
	DB	03eH
	DB	0dfH
	DB	03eH
	DB	0dfH
	DB	03eH
	DB	0dfH
	DB	03eH
	DB	0dfH
	DB	03dH
	DB	0dfH
	DB	03eH
	DB	0dfH
	DB	03eH
	DB	0dfH
	DB	03dH
	DB	0dfH
	DB	03eH
	DB	0dfH
	DB	03eH
	DB	0dfH
	DB	03eH
	DB	0dfH
	DB	03eH
	DB	0dfH
	DB	03eH
	DB	0dfH
	DB	03eH
	DB	0dfH
	DB	03eH
	DB	0dfH
	DB	03eH
	DB	0dfH
	DB	03eH
	DB	0dfH
	DB	03eH
	DB	0dfH
	DB	03eH
	DB	0dfH
	DB	03eH
	DB	0dfH
	DB	03eH
	DB	0dfH
	DB	03eH
	DB	0dfH
	DB	03dH
	DB	0dfH
	DB	03eH
	DB	0dfH
	DB	03eH
	DB	0dfH
	DB	03dH
	DB	0dfH
	DB	03eH
	DB	0dfH
	DB	03eH
	DB	0dfH
	DB	03eH
	DB	0dfH
	DB	03eH
	DB	0dfH
	DB	03dH
	DB	0dfH
	DB	03eH
	DB	0dfH
	DB	03eH
	DB	0dfH
	DB	03dH
	DB	0dfH
	DB	03eH
	DB	0dfH
	DB	03eH
	DB	0dfH
	DB	03eH
	DB	0dfH
	DB	03eH
	DB	0dfH
	DB	03dH
	DB	0dfH
	DB	03eH
	DB	0dfH
	DB	03eH
	DB	0dfH
	DB	03dH
	DB	0dfH
	DB	03eH
	DB	0dfH
	DB	03dH
	DB	0d7H
	DB	03eH
	DB	0dfH
	DB	03eH
	DB	0dfH
	DB	03dH
	DB	0dfH
	DB	03eH
	DB	0dfH
	DB	03dH
	DB	0dfH
	DB	03eH
	DB	0dfH
	DB	03dH
	DB	0dfH
	DB	01eH
	DB	0dfH
	DB	03eH
	DB	0dfH
	DB	03dH
	DB	0dfH
	DB	01eH
	DB	0dfH
	DB	03eH
	DB	0dfH
	DB	01dH
	DB	0d7H
	DB	01dH
	DB	0dfH
	DB	03eH
	DB	0dfH
	DB	03dH
	DB	0dfH
	DB	03dH
	DB	0dfH
	DB	03eH
	DB	0dfH
	DB	03eH
	DB	0dfH
	DB	03dH
	DB	0d7H
	DB	01eH
	DB	0dfH
	DB	03eH
	DB	0dfH
	DB	01dH
	DB	0dfH
	DB	01eH
	DB	0dfH
	DB	01eH
	DB	0dfH
	DB	03dH
	DB	0dfH
	DB	01eH
	DB	0d7H
	DB	03eH
	DB	0dfH
	DB	03eH
	DB	0dfH
	DB	01dH
	DB	0d7H
	DB	03dH
	DB	0dfH
	DB	01eH
	DB	0d7H
	DB	01dH
	DB	0d7H
	DB	03dH
	DB	0dfH
	DB	01dH
	DB	0d7H
	DB	01eH
	DB	0dfH
	DB	01dH
	DB	0d7H
	DB	01dH
	DB	0d7H
	DB	01dH
	DB	0d7H
	DB	01dH
	DB	0d7H
	DB	0fdH
	DB	0d6H
	DB	01dH
	DB	0d7H
	DB	01dH
	DB	0d7H
	DB	0fdH
	DB	0d6H
	DB	0fdH
	DB	0d6H
	DB	01dH
	DB	0d7H
	DB	0fdH
	DB	0d6H
	DB	0fdH
	DB	0d6H
	DB	0fdH
	DB	0d6H
	DB	0fdH
	DB	0ceH
	DB	0fdH
	DB	0ceH
	DB	0fdH
	DB	0d6H
	DB	0fdH
	DB	0ceH
	DB	0fdH
	DB	0d6H
	DB	0fdH
	DB	0ceH
	DB	0ddH
	DB	0ceH
	DB	0fdH
	DB	0ceH
	DB	0ddH
	DB	0ceH
	DB	0ddH
	DB	0ceH
	DB	0ddH
	DB	0ceH
	DB	0ddH
	DB	0ceH
	DB	0dcH
	DB	0ceH
	DB	0ddH
	DB	0ceH
	DB	0ddH
	DB	0ceH
	DB	0ddH
	DB	0ceH
	DB	0dcH
	DB	0c6H
	DB	0bdH
	DB	0ceH
	DB	0ddH
	DB	0c6H
	DB	0ddH
	DB	0ceH
	DB	0bcH
	DB	0c6H
	DB	0bcH
	DB	0c6H
	DB	0bdH
	DB	0c6H
	DB	0bcH
	DB	0c6H
	DB	0bcH
	DB	0c6H
	DB	0bdH
	DB	0c6H
	DB	0bcH
	DB	0c6H
	DB	0bcH
	DB	0c6H
	DB	09cH
	DB	0c6H
	DB	0bcH
	DB	0c6H
	DB	0bcH
	DB	0beH
	DB	09cH
	DB	0beH
	DB	09cH
	DB	0c6H
	DB	09cH
	DB	0beH
	DB	09cH
	DB	0c6H
	DB	09cH
	DB	0beH
	DB	09cH
	DB	0beH
	DB	09cH
	DB	0beH
	DB	09cH
	DB	0beH
	DB	07cH
	DB	0beH
	DB	09bH
	DB	0beH
	DB	09cH
	DB	0beH
	DB	07cH
	DB	0beH
	DB	07bH
	DB	0beH
	DB	07cH
	DB	0b6H
	DB	07cH
	DB	0beH
	DB	07bH
	DB	0b6H
	DB	07cH
	DB	0beH
	DB	07cH
	DB	0b6H
	DB	07bH
	DB	0beH
	DB	05cH
	DB	0b6H
	DB	07cH
	DB	0b6H
	DB	07cH
	DB	0b6H
	DB	05bH
	DB	0b6H
	DB	05bH
	DB	0b6H
	DB	05bH
	DB	0b6H
	DB	05bH
	DB	0b6H
	DB	05cH
	DB	0b6H
	DB	05bH
	DB	0b6H
	DB	05bH
	DB	0b6H
	DB	05bH
	DB	0b6H
	DB	05cH
	DB	0aeH
	DB	03bH
	DB	0b6H
	DB	03bH
	DB	0b6H
	DB	05cH
	DB	0aeH
	DB	05bH
	DB	0b6H
	DB	03bH
	DB	0aeH
	DB	03bH
	DB	0b6H
	DB	03bH
	DB	0aeH
	DB	03bH
	DB	0aeH
	DB	03bH
	DB	0aeH
	DB	03bH
	DB	0aeH
	DB	03bH
	DB	0aeH
	DB	03bH
	DB	0aeH
	DB	01bH
	DB	0aeH
	DB	03bH
	DB	0aeH
	DB	03bH
	DB	0aeH
	DB	03bH
	DB	0aeH
	DB	01bH
	DB	0aeH
	DB	03bH
	DB	0aeH
	DB	01bH
	DB	0aeH
	DB	01bH
	DB	0aeH
	DB	03bH
	DB	0aeH
	DB	03bH
	DB	0aeH
	DB	01bH
	DB	0aeH
	DB	03bH
	DB	0aeH
	DB	03bH
	DB	0aeH
	DB	01bH
	DB	0aeH
	DB	03bH
	DB	0aeH
	DB	01bH
	DB	0aeH
	DB	01bH
	DB	0aeH
	DB	03bH
	DB	0aeH
	DB	01bH
	DB	0aeH
	DB	03bH
	DB	0aeH
	DB	03bH
	DB	0aeH
	DB	01bH
	DB	0aeH
	DB	03bH
	DB	0aeH
	DB	01bH
	DB	0aeH
	DB	03bH
	DB	0aeH
	DB	01bH
	DB	0aeH
	DB	01bH
	DB	0aeH
	DB	03bH
	DB	0aeH
	DB	03bH
	DB	0aeH
	DB	01bH
	DB	0aeH
	DB	03bH
	DB	0aeH
	DB	03bH
	DB	0aeH
	DB	01bH
	DB	0aeH
	DB	01bH
	DB	0aeH
	DB	03bH
	DB	0aeH
	DB	01bH
	DB	0aeH
	DB	03bH
	DB	0aeH
	DB	01bH
	DB	0aeH
	DB	03bH
	DB	0aeH
	DB	01bH
	DB	0aeH
	DB	03bH
	DB	0aeH
	DB	01bH
	DB	0aeH
	DB	03bH
	DB	0aeH
	DB	01bH
	DB	0aeH
	DB	01bH
	DB	0aeH
	DB	03bH
	DB	0aeH
	DB	03bH
	DB	0aeH
	DB	01bH
	DB	0aeH
	DB	03bH
	DB	0aeH
	DB	03bH
	DB	0aeH
	DB	01bH
	DB	0aeH
	DB	01bH
	DB	0aeH
	DB	03bH
	DB	0aeH
	DB	01bH
	DB	0aeH
	DB	03bH
	DB	0aeH
	DB	01bH
	DB	0aeH
	DB	03bH
	DB	0aeH
	DB	01bH
	DB	0aeH
	DB	03bH
	DB	0aeH
	DB	01bH
	DB	0aeH
	DB	03bH
	DB	0aeH
	DB	01bH
	DB	0aeH
	DB	01bH
	DB	0aeH
	DB	03bH
	DB	0aeH
	DB	03bH
	DB	0aeH
	DB	01bH
	DB	0aeH
	DB	03bH
	DB	0aeH
	DB	03bH
	DB	0aeH
	DB	01bH
	DB	0aeH
	DB	01bH
	DB	0aeH
	DB	03bH
	DB	0aeH
	DB	01bH
	DB	0aeH
	DB	03bH
	DB	0aeH
	DB	01bH
	DB	0aeH
	DB	03bH
	DB	0aeH
	DB	01bH
	DB	0aeH
	DB	03bH
	DB	0aeH
	DB	01bH
	DB	0aeH
	DB	01bH
	DB	0aeH
	DB	03bH
	DB	0aeH
	DB	03bH
	DB	0aeH
	DB	01bH
	DB	0aeH
	DB	03bH
	DB	0aeH
	DB	01bH
	DB	0aeH
	DB	01bH
	DB	0aeH
	DB	03bH
	DB	0aeH
	DB	01bH
	DB	0aeH
	DB	0d5H
	DB	084H
	DB	0faH
	DB	0a5H
	DB	03bH
	DB	0aeH
	DB	03bH
	DB	0aeH
	DB	01bH
	DB	0aeH
	DB	01aH
	DB	0aeH
	DB	03bH
	DB	0a6H
	DB	01bH
	DB	0aeH
	DB	03bH
	DB	0aeH
	DB	03bH
	DB	0aeH
	DB	01bH
	DB	0aeH
	DB	01aH
	DB	0aeH
	DB	03bH
	DB	0aeH
	DB	01bH
	DB	0aeH
	DB	01bH
	DB	0aeH
	DB	03bH
	DB	0aeH
	DB	03bH
	DB	0aeH
	DB	01bH
	DB	0aeH
	DB	03bH
	DB	0aeH
	DB	01bH
	DB	0aeH
	DB	01bH
	DB	0aeH
	DB	03bH
	DB	0aeH
	DB	01bH
	DB	0aeH
	DB	01bH
	DB	0aeH
	DB	03bH
	DB	0aeH
	DB	01bH
	DB	0aeH
	DB	03bH
	DB	0aeH
	DB	01bH
	DB	0aeH
	DB	01bH
	DB	0aeH
	DB	03bH
	DB	0aeH
	DB	03bH
	DB	0aeH
	DB	01bH
	DB	0aeH
	DB	03bH
	DB	0aeH
	DB	01bH
	DB	0aeH
	DB	03bH
	DB	0aeH
	DB	03bH
	DB	0aeH
	DB	01bH
	DB	0aeH
	DB	01bH
	DB	0aeH
	DB	03bH
	DB	0aeH
	DB	01bH
	DB	0aeH
	DB	01bH
	DB	0aeH
	DB	03bH
	DB	0aeH
	DB	01bH
	DB	0aeH
	DB	03bH
	DB	0aeH
	DB	03bH
	DB	0aeH
	DB	01bH
	DB	0aeH
	DB	01bH
	DB	0aeH
	DB	03bH
	DB	0aeH
	DB	03bH
	DB	0aeH
	DB	01bH
	DB	0aeH
	DB	03bH
	DB	0aeH
	DB	01bH
	DB	0aeH
	DB	03bH
	DB	0aeH
	DB	03bH
	DB	0aeH
	DB	01bH
	DB	0aeH
	DB	01bH
	DB	0aeH
	DB	03bH
	DB	0aeH
	DB	01bH
	DB	0aeH
	DB	01bH
	DB	0aeH
	DB	03bH
	DB	0aeH
	DB	01bH
	DB	0aeH
	DB	03bH
	DB	0aeH
	DB	03bH
	DB	0aeH
	DB	01bH
	DB	0aeH
	DB	01bH
	DB	0aeH
	DB	03bH
	DB	0aeH
	DB	03bH
	DB	0aeH
	DB	01bH
	DB	0aeH
	DB	03bH
	DB	0aeH
	DB	01bH
	DB	0aeH
	DB	03bH
	DB	0aeH
	DB	03bH
	DB	0aeH
	DB	01bH
	DB	0aeH
	DB	01bH
	DB	0aeH
	DB	03bH
	DB	0aeH
	DB	01bH
	DB	0aeH
	DB	01bH
	DB	0aeH
	DB	03bH
	DB	0aeH
	DB	01bH
	DB	0aeH
	DB	03bH
	DB	0aeH
	DB	03bH
	DB	0aeH
	DB	01bH
	DB	0aeH
	DB	01bH
	DB	0aeH
	DB	03bH
	DB	0aeH
	DB	01bH
	DB	0aeH
	DB	03bH
	DB	0aeH
	DB	03bH
	DB	0aeH
	DB	03bH
	DB	0aeH
	DB	01bH
	DB	0aeH
	DB	03bH
	DB	0aeH
	DB	03bH
	DB	0aeH
	DB	03bH
	DB	0aeH
	DB	03bH
	DB	0aeH
	DB	03bH
	DB	0aeH
	DB	03bH
	DB	0aeH
	DB	03bH
	DB	0b6H
	DB	03bH
	DB	0aeH
	DB	05bH
	DB	0aeH
	DB	03bH
	DB	0b6H
	DB	05bH
	DB	0b6H
	DB	05cH
	DB	0b6H
	DB	05bH
	DB	0aeH
	DB	05bH
	DB	0b6H
	DB	05bH
	DB	0b6H
	DB	05bH
	DB	0b6H
	DB	05cH
	DB	0b6H
	DB	05bH
	DB	0b6H
	DB	05bH
	DB	0b6H
	DB	05cH
	DB	0b6H
	DB	05bH
	DB	0b6H
	DB	07cH
	DB	0b6H
	DB	07bH
	DB	0b6H
	DB	05cH
	DB	0b6H
	DB	07bH
	DB	0beH
	DB	07cH
	DB	0b6H
	DB	07cH
	DB	0beH
	DB	07bH
	DB	0b6H
	DB	07cH
	DB	0beH
	DB	07cH
	DB	0beH
	DB	07cH
	DB	0beH
	DB	07bH
	DB	0beH
	DB	09cH
	DB	0beH
	DB	07cH
	DB	0beH
	DB	09cH
	DB	0beH
	DB	09bH
	DB	0beH
	DB	09cH
	DB	0beH
	DB	07cH
	DB	0beH
	DB	09cH
	DB	0beH
	DB	09cH
	DB	0beH
	DB	09cH
	DB	0c6H
	DB	09cH
	DB	0beH
	DB	09cH
	DB	0c6H
	DB	09cH
	DB	0c6H
	DB	0bcH
	DB	0c6H
	DB	09cH
	DB	0c6H
	DB	0bcH
	DB	0c6H
	DB	0bcH
	DB	0beH
	DB	0bcH
	DB	0c6H
	DB	0bdH
	DB	0c6H
	DB	0bdH
	DB	0c6H
	DB	0bcH
	DB	0c6H
	DB	0bcH
	DB	0c6H
	DB	0ddH
	DB	0c6H
	DB	0bdH
	DB	0ceH
	DB	0dcH
	DB	0ceH
	DB	0dcH
	DB	0c6H
	DB	0ddH
	DB	0ceH
	DB	0ddH
	DB	0ceH
	DB	0dcH
	DB	0ceH
	DB	0ddH
	DB	0ceH
	DB	0ddH
	DB	0ceH
	DB	0ddH
	DB	0ceH
	DB	0dcH
	DB	0ceH
	DB	0fdH
	DB	0ceH
	DB	0ddH
	DB	0ceH
	DB	0fcH
	DB	0ceH
	DB	0fdH
	DB	0ceH
	DB	0fdH
	DB	0ceH
	DB	0fdH
	DB	0ceH
	DB	0fdH
	DB	0d6H
	DB	0fdH
	DB	0d6H
	DB	0fdH
	DB	0ceH
	DB	0fdH
	DB	0d6H
	DB	0fdH
	DB	0d6H
	DB	0fdH
	DB	0d6H
	DB	01dH
	DB	0d7H
	DB	01dH
	DB	0d7H
	DB	0fdH
	DB	0d6H
	DB	01dH
	DB	0d7H
	DB	01dH
	DB	0d7H
	DB	01eH
	DB	0d7H
	DB	01dH
	DB	0d7H
	DB	01dH
	DB	0d7H
	DB	01eH
	DB	0d7H
	DB	01dH
	DB	0d7H
	DB	01eH
	DB	0dfH
	DB	01eH
	DB	0d7H
	DB	01dH
	DB	0d7H
	DB	01eH
	DB	0dfH
	DB	01dH
	DB	0d7H
	DB	01dH
	DB	0dfH
	DB	03eH
	DB	0d7H
	DB	03dH
	DB	0d7H
	DB	01dH
	DB	0dfH
	DB	03eH
	DB	0d7H
	DB	01dH
	DB	0dfH
	DB	01dH
	DB	0dfH
	DB	03eH
	DB	0dfH
	DB	03dH
	DB	0d7H
	DB	01dH
	DB	0dfH
	DB	03eH
	DB	0dfH
	DB	03dH
	DB	0d7H
	DB	03eH
	DB	0dfH
	DB	03eH
	DB	0dfH
	DB	03dH
	DB	0d7H
	DB	03eH
	DB	0dfH
	DB	03eH
	DB	0dfH
	DB	01dH
	DB	0dfH
	DB	01eH
	DB	0dfH
	DB	03eH
	DB	0d7H
	DB	03dH
	DB	0dfH
	DB	01eH
	DB	0dfH
	DB	03eH
	DB	0dfH
	DB	03dH
	DB	0dfH
	DB	03eH
	DB	0dfH
	DB	03dH
	DB	0dfH
	DB	03eH
	DB	0d7H
	DB	03dH
	DB	0dfH
	DB	03eH
	DB	0dfH
	DB	03dH
	DB	0dfH
	DB	03eH
	DB	0dfH
	DB	03dH
	DB	0dfH
	DB	03eH
	DB	0dfH
	DB	03eH
	DB	0dfH
	DB	03dH
	DB	0dfH
	DB	03eH
	DB	0dfH
	DB	03eH
	DB	0dfH
	DB	03dH
	DB	0dfH
	DB	03eH
	DB	0dfH
	DB	03eH
	DB	0dfH
	DB	03dH
	DB	0dfH
	DB	03eH
	DB	0dfH
	DB	03dH
	DB	0dfH
	DB	03eH
	DB	0dfH
	DB	03eH
	DB	0dfH
	DB	03eH
	DB	0dfH
	DB	03eH
	DB	0dfH
	DB	03eH
	DB	0dfH
	DB	03eH
	DB	0dfH
	DB	03eH
	DB	0dfH
	DB	03eH
	DB	0dfH
	DB	03eH
	DB	0dfH
	DB	03eH
	DB	0dfH
	DB	03eH
	DB	0dfH
	DB	03eH
	DB	0dfH
	DB	03eH
	DB	0dfH
	DB	03eH
	DB	0dfH
	DB	03dH
	DB	0dfH
	DB	03eH
	DB	0dfH
	DB	03eH
	DB	0dfH
	DB	03dH
	DB	0dfH
	DB	03eH
	DB	0dfH
	DB	03eH
	DB	0dfH
	DB	03dH
	DB	0dfH
	DB	03eH
	DB	0dfH
	DB	03eH
	DB	0dfH
	DB	03eH
	DB	0dfH
	DB	03eH
	DB	0dfH
	DB	03eH
	DB	0dfH
	DB	03eH
	DB	0dfH
	DB	03eH
	DB	0dfH
	DB	03eH
	DB	0dfH
	DB	03eH
	DB	0dfH
	DB	03eH
	DB	0dfH
	DB	03eH
	DB	0dfH
	DB	03eH
	DB	0dfH
	DB	03eH
	DB	0dfH
	DB	03eH
	DB	0dfH
	DB	03eH
	DB	0dfH
	DB	03dH
	DB	0dfH
	DB	03eH
	DB	0dfH
	DB	03dH
	DB	0dfH
	DB	03eH
	DB	0dfH
	DB	03eH
	DB	0dfH
	DB	03dH
	DB	0dfH
	DB	03eH
	DB	0dfH
	DB	03eH
	DB	0dfH
	DB	03dH
	DB	0dfH
	DB	03eH
	DB	0dfH
	DB	03eH
	DB	0dfH
	DB	03dH
	DB	0dfH
	DB	03eH
	DB	0dfH
	DB	03eH
	DB	0dfH
	DB	03dH
	DB	0d7H
	DB	03eH
	DB	0dfH
	DB	03dH
	DB	0dfH
	DB	03eH
	DB	0dfH
	DB	03dH
	DB	0dfH
	DB	03eH
	DB	0dfH
	DB	03eH
	DB	0dfH
	DB	03dH
	DB	0dfH
	DB	03eH
	DB	0dfH
	DB	03eH
	DB	0dfH
	DB	03eH
	DB	0d7H
	DB	03eH
	DB	0dfH
	DB	01dH
	DB	0dfH
	DB	03eH
	DB	0dfH
	DB	03dH
	DB	0d7H
	DB	03eH
	DB	0dfH
	DB	03dH
	DB	0dfH
	DB	03eH
	DB	0dfH
	DB	01dH
	DB	0d7H
	DB	03dH
	DB	0d7H
	DB	03eH
	DB	0dfH
	DB	01dH
	DB	0d7H
	DB	01dH
	DB	0dfH
	DB	03dH
	DB	0dfH
	DB	01eH
	DB	0d7H
	DB	03eH
	DB	0dfH
	DB	03dH
	DB	0dfH
	DB	03eH
	DB	0d7H
	DB	01dH
	DB	0dfH
	DB	01eH
	DB	0d7H
	DB	01dH
	DB	0dfH
	DB	01eH
	DB	0dfH
	DB	01dH
	DB	0d7H
	DB	01eH
	DB	0dfH
	DB	01eH
	DB	0dfH
	DB	01dH
	DB	0d7H
	DB	01eH
	DB	0d7H
	DB	01dH
	DB	0d7H
	DB	01eH
	DB	0d7H
	DB	01dH
	DB	0d7H
	DB	01dH
	DB	0d7H
	DB	01eH
	DB	0d7H
	DB	0fdH
	DB	0d6H
	DB	01dH
	DB	0d7H
	DB	01dH
	DB	0d7H
	DB	0fdH
	DB	0d6H
	DB	0fdH
	DB	0d6H
	DB	0fdH
	DB	0d6H
	DB	0fdH
	DB	0d6H
	DB	0fdH
	DB	0ceH
	DB	0fdH
	DB	0d6H
	DB	0fcH
	DB	0ceH
	DB	0fdH
	DB	0ceH
	DB	0fdH
	DB	0ceH
	DB	0ddH
	DB	0ceH
	DB	0fcH
	DB	0ceH
	DB	0fdH
	DB	0ceH
	DB	0ddH
	DB	0ceH
	DB	0ddH
	DB	0ceH
	DB	0dcH
	DB	0ceH
	DB	0ddH
	DB	0ceH
	DB	0ddH
	DB	0ceH
	DB	0dcH
	DB	0c6H
	DB	0ddH
	DB	0ceH
	DB	0bcH
	DB	0ceH
	DB	0bdH
	DB	0c6H
	DB	0ddH
	DB	0ceH
	DB	0bcH
	DB	0c6H
	DB	0bcH
	DB	0c6H
	DB	0bdH
	DB	0c6H
	DB	0bcH
	DB	0c6H
	DB	0bdH
	DB	0c6H
	DB	0bcH
	DB	0c6H
	DB	0bdH
	DB	0c6H
	DB	0bdH
	DB	0c6H
	DB	09cH
	DB	0c6H
	DB	09cH
	DB	0c6H
	DB	0bcH
	DB	0c6H
	DB	09cH
	DB	0c6H
	DB	09cH
	DB	0beH
	DB	09cH
	DB	0beH
	DB	09cH
	DB	0c6H
	DB	09cH
	DB	0beH
	DB	09cH
	DB	0beH
	DB	09cH
	DB	0beH
	DB	09cH
	DB	0beH
	DB	07cH
	DB	0beH
	DB	09cH
	DB	0beH
	DB	09bH
	DB	0beH
	DB	07cH
	DB	0beH
	DB	07cH
	DB	0beH
	DB	07cH
	DB	0beH
	DB	07bH
	DB	0beH
	DB	07cH
	DB	0b6H
	DB	05cH
	DB	0beH
	DB	07cH
	DB	0b6H
	DB	07bH
	DB	0b6H
	DB	05cH
	DB	0b6H
	DB	07cH
	DB	0b6H
	DB	07cH
	DB	0b6H
	DB	05bH
	DB	0b6H
	DB	05cH
	DB	0b6H
	DB	05bH
	DB	0b6H
	DB	05cH
	DB	0b6H
	DB	05cH
	DB	0b6H
	DB	05bH
	DB	0aeH
	DB	05bH
	DB	0b6H
	DB	05bH
	DB	0b6H
	DB	05cH
	DB	0b6H
	DB	03bH
	DB	0aeH
	DB	03bH
	DB	0b6H
	DB	05bH
	DB	0b6H
	DB	05bH
	DB	0aeH
	DB	03bH
	DB	0aeH
	DB	03bH
	DB	0b6H
	DB	03bH
	DB	0b6H
	DB	03bH
	DB	0aeH
	DB	03bH
	DB	0aeH
	DB	03bH
	DB	0aeH
	DB	03bH
	DB	0aeH
	DB	03bH
	DB	0aeH
	DB	01bH
	DB	0aeH
	DB	03bH
	DB	0aeH
	DB	03bH
	DB	0aeH
	DB	03bH
	DB	0aeH
	DB	01bH
	DB	0aeH
	DB	03bH
	DB	0aeH
	DB	01bH
	DB	0aeH
	DB	01bH
	DB	0aeH
	DB	03bH
	DB	0aeH
	DB	01bH
	DB	0aeH
	DB	01bH
	DB	0aeH
	DB	03bH
	DB	0aeH
	DB	01bH
	DB	0aeH
	DB	03bH
	DB	0aeH
	DB	03bH
	DB	0aeH
	DB	01bH
	DB	0aeH
	DB	01bH
	DB	0aeH
	DB	03bH
	DB	0aeH
	DB	01bH
	DB	0aeH
	DB	01bH
	DB	0aeH
	DB	03bH
	DB	0aeH
	DB	01bH
	DB	0aeH
	DB	03bH
	DB	0aeH
	DB	01bH
	DB	0aeH
	DB	03bH
	DB	0aeH
	DB	01bH
	DB	0aeH
	DB	01bH
	DB	0aeH
	DB	03bH
	DB	0aeH
	DB	01bH
	DB	0aeH
	DB	01bH
	DB	0aeH
	DB	03bH
	DB	0aeH
	DB	01bH
	DB	0aeH
	DB	03bH
	DB	0aeH
	DB	01bH
	DB	0aeH
	DB	01bH
	DB	0aeH
	DB	03bH
	DB	0aeH
	DB	03bH
	DB	0aeH
	DB	01bH
	DB	0aeH
	DB	03bH
	DB	0aeH
	DB	01bH
	DB	0aeH
	DB	03bH
	DB	0aeH
	DB	03bH
	DB	0aeH
	DB	01bH
	DB	0aeH
	DB	01bH
	DB	0aeH
	DB	03bH
	DB	0aeH
	DB	01bH
	DB	0aeH
	DB	01bH
	DB	0aeH
	DB	03bH
	DB	0aeH
	DB	01bH
	DB	0aeH
	DB	03bH
	DB	0aeH
	DB	03bH
	DB	0aeH
	DB	01bH
	DB	0aeH
	DB	01bH
	DB	0aeH
	DB	03bH
	DB	0aeH
	DB	03bH
	DB	0aeH
	DB	01bH
	DB	0aeH
	DB	03bH
	DB	0aeH
	DB	01bH
	DB	0aeH
	DB	03bH
	DB	0aeH
	DB	03bH
	DB	0aeH
	DB	01bH
	DB	0aeH
	DB	01bH
	DB	0aeH
	DB	03bH
	DB	0aeH
	DB	01bH
	DB	0aeH
	DB	01bH
	DB	0aeH
	DB	03bH
	DB	0aeH
	DB	01bH
	DB	0aeH
	DB	03bH
	DB	0aeH
	DB	03bH
	DB	0aeH
	DB	01bH
	DB	0aeH
	DB	01bH
	DB	0aeH
	DB	03bH
	DB	0aeH
	DB	03bH
	DB	0aeH
	DB	01bH
	DB	0aeH
	DB	03bH
	DB	0aeH
	DB	01bH
	DB	0aeH
	DB	03bH
	DB	0aeH
	DB	01bH
	DB	0aeH
	DB	03bH
	DB	0aeH
	DB	01bH
	DB	0aeH
	DB	03aH
	DB	0aeH
	DB	03bH
	DB	0aeH
	DB	01bH
	DB	0a6H
	DB	03aH
	DB	0aeH
	DB	01bH
	DB	0aeH
	DB	01bH
	DB	0aeH
	DB	0faH
	DB	0a5H
	DB	01bH
	DB	0aeH
	DB	03bH
	DB	0aeH
	DB	03bH
	DB	0aeH
	DB	01bH
	DB	0aeH
	DB	03bH
	DB	0aeH
	DB	01bH
	DB	0aeH
	DB	03bH
	DB	0aeH
	DB	01aH
	DB	0aeH
	DB	03bH
	DB	0a6H
	DB	01bH
	DB	0aeH
	DB	03bH
	DB	0aeH
	DB	03bH
	DB	0a6H
	DB	01bH
	DB	0aeH
	DB	01aH
	DB	0aeH
	DB	03bH
	DB	0a6H
	DB	01bH
	DB	0aeH
	DB	01aH
	DB	0aeH
	DB	03bH
	DB	0a6H
	DB	03bH
	DB	0aeH
	DB	01aH
	DB	0aeH
	DB	03bH
	DB	0a6H
	DB	03bH
	DB	0aeH
	DB	01aH
	DB	0aeH
	DB	01bH
	DB	0a6H
	DB	03bH
	DB	0aeH
	DB	03aH
	DB	0aeH
	DB	01bH
	DB	0a6H
	DB	03bH
	DB	0aeH
	DB	01aH
	DB	0aeH
	DB	01bH
	DB	0a6H
	DB	03bH
	DB	0aeH
	DB	01aH
	DB	0aeH
	DB	01bH
	DB	0a6H
	DB	03bH
	DB	0aeH
	DB	01aH
	DB	0aeH
	DB	03bH
	DB	0a6H
	DB	03bH
	DB	0aeH
	DB	01aH
	DB	0aeH
	DB	03bH
	DB	0a6H
	DB	03bH
	DB	0aeH
	DB	01aH
	DB	0aeH
	DB	01bH
	DB	0a6H
	DB	03bH
	DB	0aeH
	DB	01aH
	DB	0aeH
	DB	03bH
	DB	0a6H
	DB	01bH
	DB	0aeH
	DB	01aH
	DB	0aeH
	DB	03bH
	DB	0a6H
	DB	01bH
	DB	0aeH
	DB	01aH
	DB	0aeH
	DB	03bH
	DB	0a6H
	DB	01bH
	DB	0aeH
	DB	03aH
	DB	0aeH
	DB	03bH
	DB	0a6H
	DB	01bH
	DB	0aeH
	DB	03aH
	DB	0aeH
	DB	01bH
	DB	0a6H
	DB	03bH
	DB	0aeH
	DB	01aH
	DB	0aeH
	DB	01bH
	DB	0a6H
	DB	03bH
	DB	0aeH
	DB	03aH
	DB	0aeH
	DB	01bH
	DB	0a6H
	DB	03bH
	DB	0aeH
	DB	01aH
	DB	0aeH
	DB	01bH
	DB	0a6H
	DB	03bH
	DB	0aeH
	DB	01aH
	DB	0aeH
	DB	01bH
	DB	0a6H
	DB	03bH
	DB	0aeH
	DB	01aH
	DB	0aeH
	DB	03bH
	DB	0a6H
	DB	03bH
	DB	0aeH
	DB	01aH
	DB	0aeH
	DB	03bH
	DB	0a6H
	DB	03bH
	DB	0aeH
	DB	01aH
	DB	0aeH
	DB	01bH
	DB	0a6H
	DB	03bH
	DB	0aeH
	DB	03aH
	DB	0aeH
	DB	01bH
	DB	0a6H
	DB	03bH
	DB	0aeH
	DB	01aH
	DB	0aeH
	DB	03bH
	DB	0a6H
	DB	03bH
	DB	0aeH
	DB	03aH
	DB	0aeH
	DB	03bH
	DB	0aeH
	DB	03bH
	DB	0aeH
	DB	03bH
	DB	0aeH
	DB	03bH
	DB	0aeH
	DB	03bH
	DB	0aeH
	DB	03bH
	DB	0aeH
	DB	03bH
	DB	0aeH
	DB	03bH
	DB	0b6H
	DB	03bH
	DB	0b6H
	DB	05bH
	DB	0aeH
	DB	05bH
	DB	0b6H
	DB	03bH
	DB	0aeH
	DB	03bH
	DB	0b6H
	DB	05bH
	DB	0b6H
	DB	05bH
	DB	0b6H
	DB	03cH
	DB	0b6H
	DB	05bH
	DB	0aeH
	DB	05bH
	DB	0b6H
	DB	05cH
	DB	0b6H
	DB	05bH
	DB	0b6H
	DB	05cH
	DB	0b6H
	DB	05bH
	DB	0b6H
	DB	07cH
	DB	0b6H
	DB	07bH
	DB	0b6H
	DB	05cH
	DB	0b6H
	DB	07bH
	DB	0beH
	DB	07cH
	DB	0b6H
	DB	05bH
	DB	0beH
	DB	07cH
	DB	0b6H
	DB	07bH
	DB	0beH
	DB	07cH
	DB	0beH
	DB	07cH
	DB	0b6H
	DB	07bH
	DB	0beH
	DB	09cH
	DB	0beH
	DB	07cH
	DB	0beH
	DB	07cH
	DB	0beH
	DB	09cH
	DB	0beH
	DB	09cH
	DB	0beH
	DB	09cH
	DB	0beH
	DB	09cH
	DB	0beH
	DB	09cH
	DB	0c6H
	DB	09cH
	DB	0c6H
	DB	09cH
	DB	0beH
	DB	09cH
	DB	0c6H
	DB	0bcH
	DB	0beH
	DB	0bcH
	DB	0c6H
	DB	0bcH
	DB	0c6H
	DB	0bcH
	DB	0c6H
	DB	0bdH
	DB	0c6H
	DB	0bcH
	DB	0c6H
	DB	0bcH
	DB	0c6H
	DB	0bcH
	DB	0c6H
	DB	0bdH
	DB	0c6H
	DB	0bcH
	DB	0c6H
	DB	0ddH
	DB	0c6H
	DB	0bcH
	DB	0ceH
	DB	0dcH
	DB	0ceH
	DB	0ddH
	DB	0c6H
	DB	0ddH
	DB	0ceH
	DB	0ddH
	DB	0ceH
	DB	0dcH
	DB	0c6H
	DB	0ddH
	DB	0ceH
	DB	0ddH
	DB	0ceH
	DB	0ddH
	DB	0ceH
	DB	0dcH
	DB	0ceH
	DB	0fdH
	DB	0ceH
	DB	0ddH
	DB	0ceH
	DB	0ddH
	DB	0ceH
	DB	0fdH
	DB	0ceH
	DB	0fdH
	DB	0ceH
	DB	0fdH
	DB	0d6H
	DB	0fdH
	DB	0d6H
	DB	0fdH
	DB	0ceH
	DB	0fdH
	DB	0d6H
	DB	0fdH
	DB	0d6H
	DB	0fdH
	DB	0ceH
	DB	01dH
	DB	0d7H
	DB	0fdH
	DB	0d6H
	DB	01dH
	DB	0d7H
	DB	01dH
	DB	0d7H
	DB	01dH
	DB	0d7H
	DB	01dH
	DB	0d7H
	DB	01eH
	DB	0d7H
	DB	01dH
	DB	0d7H
	DB	01eH
	DB	0d7H
	DB	01dH
	DB	0d7H
	DB	01dH
	DB	0d7H
	DB	01dH
	DB	0dfH
	DB	01dH
	DB	0d7H
	DB	01dH
	DB	0dfH
	DB	03dH
	DB	0dfH
	DB	01eH
	DB	0d7H
	DB	01dH
	DB	0dfH
	DB	03eH
	DB	0d7H
	DB	03eH
	DB	0dfH
	DB	01dH
	DB	0dfH
	DB	03eH
	DB	0dfH
	DB	01eH
	DB	0d7H
	DB	03dH
	DB	0dfH
	DB	03eH
	DB	0d7H
	DB	01eH
	DB	0dfH
	DB	01dH
	DB	0dfH
	DB	03eH
	DB	0dfH
	DB	03dH
	DB	0dfH
	DB	03dH
	DB	0dfH
	DB	01dH
	DB	0d7H
	DB	03eH
	DB	0dfH
	DB	03dH
	DB	0dfH
	DB	01eH
	DB	0d7H
	DB	03eH
	DB	0dfH
	DB	03eH
	DB	0dfH
	DB	03eH
	DB	0dfH
	DB	03dH
	DB	0dfH
	DB	03eH
	DB	0dfH
	DB	03eH
	DB	0dfH
	DB	03dH
	DB	0dfH
	DB	03eH
	DB	0d7H
	DB	03eH
	DB	0dfH
	DB	03eH
	DB	0dfH
	DB	03dH
	DB	0dfH
	DB	03eH
	DB	0dfH
	DB	03eH
	DB	0dfH
	DB	03dH
	DB	0dfH
	DB	03eH
	DB	0dfH
	DB	03eH
	DB	0dfH
	DB	03dH
	DB	0dfH
	DB	03eH
	DB	0dfH
	DB	03dH
	DB	0dfH
	DB	03eH
	DB	0dfH
	DB	03eH
	DB	0dfH
	DB	03dH
	DB	0dfH
	DB	03eH
	DB	0dfH
	DB	03eH
	DB	0dfH
	DB	03eH
	DB	0dfH
	DB	03eH
	DB	0dfH
	DB	03eH
	DB	0dfH
	DB	03eH
	DB	0dfH
	DB	03dH
	DB	0dfH
	DB	03eH
	DB	0dfH
	DB	03eH
	DB	0dfH
	DB	03dH
	DB	0dfH
	DB	03dH
	DB	0dfH
	DB	03eH
	DB	0dfH
	DB	03dH
	DB	0dfH
	DB	03eH
	DB	0dfH
	DB	03dH
	DB	0dfH
	DB	03eH
	DB	0dfH
	DB	03dH
	DB	0dfH
	DB	03eH
	DB	0dfH
	DB	03eH
	DB	0dfH
	DB	05dH
	DB	0dfH
	DB	03eH
	DB	0dfH
	DB	03eH
	DB	0dfH
	DB	05dH
	DB	0dfH
	DB	03eH
	DB	0dfH
	DB	05eH
	DB	0dfH
	DB	03dH
	DB	0dfH
	DB	05eH
	DB	0dfH
	DB	03eH
	DB	0dfH
	DB	05dH
	DB	0dfH
	DB	03dH
	DB	0dfH
	DB	03eH
	DB	0dfH
	DB	03eH
	DB	0dfH
	DB	03dH
	DB	0dfH
	DB	03eH
	DB	0dfH
	DB	03dH
	DB	0dfH
	DB	03dH
	DB	0dfH
	DB	03eH
	DB	0dfH
	DB	03dH
	DB	0dfH
	DB	03eH
	DB	0dfH
	DB	03eH
	DB	0dfH
	DB	03dH
	DB	0dfH
	DB	03eH
	DB	0dfH
	DB	03eH
	DB	0dfH
	DB	03eH
	DB	0dfH
	DB	03dH
	DB	0dfH
	DB	03eH
	DB	0dfH
	DB	03eH
	DB	0dfH
	DB	03dH
	DB	0dfH
	DB	03eH
	DB	0dfH
	DB	03eH
	DB	0dfH
	DB	03dH
	DB	0dfH
	DB	03eH
	DB	0dfH
	DB	03dH
	DB	0dfH
	DB	03eH
	DB	0dfH
	DB	03eH
	DB	0dfH
	DB	03dH
	DB	0dfH
	DB	03eH
	DB	0dfH
	DB	03eH
	DB	0dfH
	DB	03dH
	DB	0dfH
	DB	03eH
	DB	0dfH
	DB	03dH
	DB	0d7H
	DB	03eH
	DB	0dfH
	DB	03dH
	DB	0dfH
	DB	03eH
	DB	0dfH
	DB	03dH
	DB	0dfH
	DB	03eH
	DB	0dfH
	DB	01eH
	DB	0dfH
	DB	03eH
	DB	0dfH
	DB	03eH
	DB	0d7H
	DB	01eH
	DB	0dfH
	DB	01dH
	DB	0dfH
	DB	03eH
	DB	0dfH
	DB	03dH
	DB	0dfH
	DB	03eH
	DB	0dfH
	DB	03eH
	DB	0dfH
	DB	03dH
	DB	0dfH
	DB	03eH
	DB	0d7H
	DB	01eH
	DB	0dfH
	DB	03dH
	DB	0d7H
	DB	01dH
	DB	0dfH
	DB	01dH
	DB	0d7H
	DB	01eH
	DB	0dfH
	DB	03eH
	DB	0dfH
	DB	03dH
	DB	0d7H
	DB	03eH
	DB	0dfH
	DB	01dH
	DB	0d7H
	DB	01dH
	DB	0d7H
	DB	03dH
	DB	0dfH
	DB	01dH
	DB	0d7H
	DB	01eH
	DB	0d7H
	DB	01dH
	DB	0dfH
	DB	01eH
	DB	0d7H
	DB	01eH
	DB	0dfH
	DB	01dH
	DB	0d7H
	DB	01dH
	DB	0d7H
	DB	01eH
	DB	0d7H
	DB	01dH
	DB	0d7H
	DB	01dH
	DB	0d7H
	DB	01dH
	DB	0d7H
	DB	0fdH
	DB	0d6H
	DB	01dH
	DB	0d7H
	DB	01dH
	DB	0cfH
	DB	0fdH
	DB	0d6H
	DB	0fdH
	DB	0d6H
	DB	0fdH
	DB	0ceH
	DB	0fdH
	DB	0d6H
	DB	0fdH
	DB	0d6H
	DB	0fdH
	DB	0ceH
	DB	0fdH
	DB	0d6H
	DB	0fdH
	DB	0ceH
	DB	0ddH
	DB	0ceH
	DB	0fdH
	DB	0ceH
	DB	0dcH
	DB	0ceH
	DB	0ddH
	DB	0ceH
	DB	0ddH
	DB	0ceH
	DB	0ddH
	DB	0ceH
	DB	0dcH
	DB	0ceH
	DB	0ddH
	DB	0ceH
	DB	0dcH
	DB	0ceH
	DB	0ddH
	DB	0c6H
	DB	0dcH
	DB	0ceH
	DB	0bdH
	DB	0ceH
	DB	0ddH
	DB	0c6H
	DB	0dcH
	DB	0ceH
	DB	0bcH
	DB	0c6H
	DB	0bdH
	DB	0c6H
	DB	0bcH
	DB	0c6H
	DB	0bcH
	DB	0c6H
	DB	0bcH
	DB	0c6H
	DB	0bcH
	DB	0c6H
	DB	0bdH
	DB	0c6H
	DB	0bcH
	DB	0c6H
	DB	09cH
	DB	0c6H
	DB	0bcH
	DB	0beH
	DB	09cH
	DB	0c6H
	DB	09cH
	DB	0c6H
	DB	09cH
	DB	0c6H
	DB	09cH
	DB	0beH
	DB	09cH
	DB	0beH
	DB	09cH
	DB	0beH
	DB	09cH
	DB	0beH
	DB	09cH
	DB	0beH
	DB	07cH
	DB	0beH
	DB	07cH
	DB	0beH
	DB	09cH
	DB	0beH
	DB	07cH
	DB	0beH
	DB	07bH
	DB	0beH
	DB	07cH
	DB	0b6H
	DB	07cH
	DB	0beH
	DB	07bH
	DB	0b6H
	DB	07bH
	DB	0beH
	DB	07cH
	DB	0beH
	DB	05bH
	DB	0beH
	DB	05bH
	DB	0b6H
	DB	07bH
	DB	0b6H
	DB	07cH
	DB	0b6H
	DB	05bH
	DB	0b6H
	DB	05bH
	DB	0b6H
	DB	05bH
	DB	0b6H
	DB	05bH
	DB	0b6H
	DB	05cH
	DB	0b6H
	DB	05bH
	DB	0b6H
	DB	05bH
	DB	0b6H
	DB	05bH
	DB	0b6H
	DB	05bH
	DB	0aeH
	DB	03bH
	DB	0b6H
	DB	03bH
	DB	0aeH
	DB	05bH
	DB	0b6H
	DB	05bH
	DB	0aeH
	DB	03bH
	DB	0aeH
	DB	03bH
	DB	0b6H
	DB	03bH
	DB	0aeH
	DB	03bH
	DB	0aeH
	DB	03bH
	DB	0aeH
	DB	03bH
	DB	0aeH
	DB	03bH
	DB	0aeH
	DB	03bH
	DB	0aeH
	DB	03bH
	DB	0aeH
	DB	03aH
	DB	0aeH
	DB	03bH
	DB	0aeH
	DB	03bH
	DB	0a6H
	DB	01aH
	DB	0aeH
	DB	03bH
	DB	0aeH
	DB	03bH
	DB	0a6H
	DB	01aH
	DB	0aeH
	DB	03bH
	DB	0aeH
	DB	03bH
	DB	0a6H
	DB	01aH
	DB	0aeH
	DB	01bH
	DB	0aeH
	DB	03bH
	DB	0a6H
	DB	03aH
	DB	0aeH
	DB	01bH
	DB	0aeH
	DB	03bH
	DB	0a6H
	DB	03aH
	DB	0aeH
	DB	01bH
	DB	0aeH
	DB	03bH
	DB	0a6H
	DB	01aH
	DB	0aeH
	DB	03bH
	DB	0aeH
	DB	01bH
	DB	0a6H
	DB	03aH
	DB	0aeH
	DB	03bH
	DB	0aeH
	DB	01bH
	DB	0a6H
	DB	03aH
	DB	0aeH
	DB	03bH
	DB	0aeH
	DB	01bH
	DB	0a6H
	DB	03aH
	DB	0aeH
	DB	01bH
	DB	0aeH
	DB	03bH
	DB	0a6H
	DB	03aH
	DB	0aeH
	DB	01bH
	DB	0aeH
	DB	03bH
	DB	0a6H
	DB	01aH
	DB	0aeH
	DB	01bH
	DB	0aeH
	DB	03bH
	DB	0a6H
	DB	01aH
	DB	0aeH
	DB	01bH
	DB	0aeH
	DB	03bH
	DB	0a6H
	DB	01aH
	DB	0aeH
	DB	03bH
	DB	0aeH
	DB	03bH
	DB	0a6H
	DB	01aH
	DB	0aeH
	DB	03bH
	DB	0aeH
	DB	03bH
	DB	0a6H
	DB	01aH
	DB	0aeH
	DB	01bH
	DB	0aeH
	DB	03bH
	DB	0a6H
	DB	01aH
	DB	0aeH
	DB	03bH
	DB	0aeH
	DB	01bH
	DB	0a6H
	DB	01aH
	DB	0aeH
	DB	03bH
	DB	0aeH
	DB	01bH
	DB	0a6H
	DB	01aH
	DB	0aeH
	DB	03bH
	DB	0aeH
	DB	01bH
	DB	0a6H
	DB	03aH
	DB	0aeH
	DB	03bH
	DB	0aeH
	DB	01bH
	DB	0a6H
	DB	03aH
	DB	0aeH
	DB	01bH
	DB	0aeH
	DB	03bH
	DB	0a6H
	DB	01aH
	DB	0aeH
	DB	01bH
	DB	0aeH
	DB	03bH
	DB	0a6H
	DB	03aH
	DB	0aeH
	DB	01bH
	DB	0aeH
	DB	03bH
	DB	0a6H
	DB	01aH
	DB	0aeH
	DB	01bH
	DB	0aeH
	DB	03bH
	DB	0a6H
	DB	01aH
	DB	0aeH
	DB	03bH
	DB	0aeH
	DB	01bH
	DB	0a6H
	DB	03aH
	DB	0aeH
	DB	01bH
	DB	0aeH
	DB	01bH
	DB	0a6H
	DB	03bH
	DB	0aeH
	DB	01bH
	DB	0aeH
	DB	03bH
	DB	0aeH
	DB	03bH
	DB	0aeH
	DB	03bH
	DB	0aeH
	DB	03bH
	DB	0aeH
	DB	01bH
	DB	0aeH
	DB	01bH
	DB	0aeH
	DB	01bH
	DB	0aeH
	DB	03bH
	DB	0aeH
	DB	01bH
	DB	0aeH
	DB	03bH
	DB	0aeH
	DB	03bH
	DB	0aeH
	DB	01bH
	DB	0aeH
	DB	01bH
	DB	0aeH
	DB	03bH
	DB	0aeH
	DB	01bH
	DB	0aeH
	DB	01bH
	DB	0aeH
	DB	03bH
	DB	0aeH
	DB	03bH
	DB	0aeH
	DB	01bH
	DB	0aeH
	DB	03bH
	DB	0aeH
	DB	03bH
	DB	0aeH
	DB	01bH
	DB	0aeH
	DB	03bH
	DB	0aeH
	DB	01bH
	DB	0aeH
	DB	01bH
	DB	0aeH
	DB	03bH
	DB	0aeH
	DB	03bH
	DB	0aeH
	DB	01bH
	DB	0aeH
	DB	03bH
	DB	0aeH
	DB	03bH
	DB	0aeH
	DB	01bH
	DB	0aeH
	DB	03bH
	DB	0aeH
	DB	03bH
	DB	0aeH
	DB	01bH
	DB	0aeH
	DB	03bH
	DB	0aeH
	DB	03bH
	DB	0aeH
	DB	01bH
	DB	0aeH
	DB	03bH
	DB	0aeH
	DB	01bH
	DB	0aeH
	DB	01bH
	DB	0aeH
	DB	03bH
	DB	0aeH
	DB	01bH
	DB	0aeH
	DB	01bH
	DB	0aeH
	DB	03bH
	DB	0aeH
	DB	01bH
	DB	0aeH
	DB	03bH
	DB	0aeH
	DB	03bH
	DB	0aeH
	DB	01bH
	DB	0aeH
	DB	01bH
	DB	0aeH
	DB	03bH
	DB	0aeH
	DB	03bH
	DB	0aeH
	DB	01bH
	DB	0aeH
	DB	03bH
	DB	0aeH
	DB	03bH
	DB	0aeH
	DB	01bH
	DB	0aeH
	DB	03bH
	DB	0aeH
	DB	01bH
	DB	0aeH
	DB	01bH
	DB	0aeH
	DB	03bH
	DB	0aeH
	DB	01bH
	DB	0aeH
	DB	03bH
	DB	0aeH
	DB	03bH
	DB	0aeH
	DB	01bH
	DB	0aeH
	DB	03bH
	DB	0aeH
	DB	01bH
	DB	0aeH
	DB	01bH
	DB	0aeH
	DB	01bH
	DB	0aeH
	DB	03bH
	DB	0aeH
	DB	03bH
	DB	0aeH
	DB	01bH
	DB	0aeH
	DB	03bH
	DB	0aeH
	DB	03bH
	DB	0aeH
	DB	01bH
	DB	0aeH
	DB	03bH
	DB	0aeH
	DB	01bH
	DB	0aeH
	DB	01bH
	DB	0aeH
	DB	03bH
	DB	0aeH
	DB	01bH
	DB	0aeH
	DB	01bH
	DB	0aeH
	DB	03bH
	DB	0aeH
	DB	01bH
	DB	0aeH
	DB	03bH
	DB	0aeH
	DB	01bH
	DB	0aeH
	DB	01bH
	DB	0aeH
	DB	01bH
	DB	0aeH
	DB	03bH
	DB	0aeH
	DB	03bH
	DB	0aeH
	DB	03bH
	DB	0aeH
	DB	03bH
	DB	0aeH
	DB	01bH
	DB	0aeH
	DB	03bH
	DB	0aeH
	DB	01bH
	DB	0aeH
	DB	03bH
	DB	0aeH
	DB	03bH
	DB	0aeH
	DB	03bH
	DB	0aeH
	DB	03bH
	DB	0aeH
	DB	03bH
	DB	0aeH
	DB	03bH
	DB	0aeH
	DB	03bH
	DB	0b6H
	DB	03bH
	DB	0aeH
	DB	05bH
	DB	0b6H
	DB	05bH
	DB	0aeH
	DB	03cH
	DB	0b6H
	DB	05bH
	DB	0aeH
	DB	05bH
	DB	0aeH
	DB	05cH
	DB	0b6H
	DB	05bH
	DB	0b6H
	DB	05cH
	DB	0b6H
	DB	05bH
	DB	0b6H
	DB	05bH
	DB	0b6H
	DB	05cH
	DB	0b6H
	DB	05bH
	DB	0b6H
	DB	07cH
	DB	0b6H
	DB	07bH
	DB	0b6H
	DB	05cH
	DB	0b6H
	DB	07bH
	DB	0b6H
	DB	07cH
	DB	0b6H
	DB	07cH
	DB	0beH
	DB	07cH
	DB	0b6H
	DB	07bH
	DB	0beH
	DB	07cH
	DB	0beH
	DB	07cH
	DB	0beH
	DB	07cH
	DB	0beH
	DB	09cH
	DB	0beH
	DB	09cH
	DB	0beH
	DB	07cH
	DB	0beH
	DB	09cH
	DB	0beH
	DB	09cH
	DB	0beH
	DB	09cH
	DB	0beH
	DB	09cH
	DB	0beH
	DB	09cH
	DB	0beH
	DB	09cH
	DB	0c6H
	DB	09cH
	DB	0beH
	DB	09cH
	DB	0c6H
	DB	0bcH
	DB	0c6H
	DB	09cH
	DB	0c6H
	DB	0bcH
	DB	0beH
	DB	0bcH
	DB	0c6H
	DB	09dH
	DB	0c6H
	DB	0bcH
	DB	0c6H
	DB	0bdH
	DB	0c6H
	DB	0bdH
	DB	0c6H
	DB	0bcH
	DB	0c6H
	DB	0bcH
	DB	0c6H
	DB	0ddH
	DB	0ceH
	DB	0bdH
	DB	0c6H
	DB	0dcH
	DB	0ceH
	DB	0dcH
	DB	0ceH
	DB	0bdH
	DB	0c6H
	DB	0ddH
	DB	0ceH
	DB	0dcH
	DB	0ceH
	DB	0ddH
	DB	0ceH
	DB	0ddH
	DB	0ceH
	DB	0ddH
	DB	0ceH
	DB	0dcH
	DB	0ceH
	DB	0fdH
	DB	0ceH
	DB	0ddH
	DB	0ceH
	DB	0fdH
	DB	0ceH
	DB	0fdH
	DB	0ceH
	DB	0fdH
	DB	0d6H
	DB	0fdH
	DB	0d6H
	DB	0fdH
	DB	0ceH
	DB	0fdH
	DB	0d6H
	DB	0fdH
	DB	0d6H
	DB	0fdH
	DB	0d6H
	DB	0fdH
	DB	0d6H
	DB	01dH
	DB	0d7H
	DB	01dH
	DB	0d7H
	DB	01dH
	DB	0d7H
	DB	01dH
	DB	0d7H
	DB	0fdH
	DB	0d6H
	DB	01dH
	DB	0d7H
	DB	01eH
	DB	0d7H
	DB	01dH
	DB	0d7H
	DB	01dH
	DB	0d7H
	DB	01eH
	DB	0d7H
	DB	01eH
	DB	0dfH
	DB	01dH
	DB	0dfH
	DB	01eH
	DB	0d7H
	DB	01eH
	DB	0dfH
	DB	03dH
	DB	0d7H
	DB	01dH
	DB	0dfH
	DB	03eH
	DB	0d7H
	DB	03eH
	DB	0dfH
	DB	01dH
	DB	0dfH
	DB	01dH
	DB	0d7H
	DB	03eH
	DB	0dfH
	DB	01dH
	DB	0dfH
	DB	01dH
	DB	0dfH
	DB	03eH
	DB	0d7H
	DB	03dH
	DB	0dfH
	DB	03dH
	DB	0dfH
	DB	03eH
	DB	0d7H
	DB	03eH
	DB	0d7H
	DB	03eH
	DB	0dfH
	DB	01dH
	DB	0dfH
	DB	03eH
	DB	0dfH
	DB	03eH
	DB	0dfH
	DB	01dH
	DB	0dfH
	DB	03dH
	DB	0dfH
	DB	03eH
	DB	0dfH
	DB	03dH
	DB	0dfH
	DB	03dH
	DB	0dfH
	DB	03eH
	DB	0dfH
	DB	03eH
	DB	0dfH
	DB	03dH
	DB	0dfH
	DB	03eH
	DB	0dfH
	DB	03dH
	DB	0dfH
	DB	03eH
	DB	0dfH
	DB	03eH
	DB	0dfH
	DB	03dH
	DB	0dfH
	DB	03eH
	DB	0dfH
	DB	03eH
	DB	0dfH
	DB	03dH
	DB	0dfH
	DB	03eH
	DB	0dfH
	DB	03eH
	DB	0dfH
	DB	03dH
	DB	0dfH
	DB	03eH
	DB	0dfH
	DB	03eH
	DB	0dfH
	DB	03eH
	DB	0dfH
	DB	03eH
	DB	0dfH
	DB	03eH
	DB	0dfH
	DB	03dH
	DB	0dfH
	DB	03eH
	DB	0dfH
	DB	03eH
	DB	0dfH
	DB	03dH
	DB	0dfH
	DB	03eH
	DB	0dfH
	DB	03eH
	DB	0dfH
	DB	03dH
	DB	0dfH
	DB	03eH
	DB	0dfH
	DB	03eH
	DB	0dfH
	DB	03eH
	DB	0dfH
	DB	03eH
	DB	0dfH
	DB	03eH
	DB	0dfH
	DB	03eH
	DB	0dfH
	DB	03dH
	DB	0dfH
	DB	05eH
	DB	0dfH
	DB	03eH
	DB	0dfH
	DB	03eH
	DB	0dfH
	DB	05dH
	DB	0dfH
	DB	03eH
	DB	0dfH
	DB	03eH
	DB	0dfH
	DB	05eH
	DB	0dfH
	DB	03eH
	DB	0dfH
	DB	03eH
	DB	0dfH
	DB	03eH
	DB	0dfH
	DB	03eH
	DB	0dfH
	DB	05eH
	DB	0dfH
	DB	03eH
	DB	0dfH
	DB	03eH
	DB	0dfH
	DB	03eH
	DB	0dfH
	DB	05eH
	DB	0dfH
	DB	03eH
	DB	0dfH
	DB	05dH
	DB	0dfH
	DB	03eH
	DB	0dfH
	DB	03eH
	DB	0dfH
	DB	05eH
	DB	0dfH
	DB	03eH
	DB	0dfH
	DB	03eH
	DB	0dfH
	DB	03dH
	DB	0dfH
	DB	03eH
	DB	0dfH
	DB	03eH
	DB	0dfH
	DB	03eH
	DB	0dfH
	DB	03eH
	DB	0dfH
	DB	03eH
	DB	0dfH
	DB	03eH
	DB	0dfH
	DB	03eH
	DB	0dfH
	DB	03eH
	DB	0dfH
	DB	03eH
	DB	0dfH
	DB	03dH
	DB	0dfH
	DB	03eH
	DB	0dfH
	DB	03eH
	DB	0dfH
	DB	03eH
	DB	0dfH
	DB	03eH
	DB	0dfH
	DB	03dH
	DB	0dfH
	DB	03eH
	DB	0dfH
	DB	03dH
	DB	0dfH
	DB	03eH
	DB	0dfH
	DB	03eH
	DB	0dfH
	DB	03dH
	DB	0dfH
	DB	03eH
	DB	0dfH
	DB	03eH
	DB	0dfH
	DB	03eH
	DB	0dfH
	DB	03dH
	DB	0dfH
	DB	03eH
	DB	0dfH
	DB	03eH
	DB	0dfH
	DB	03dH
	DB	0dfH
	DB	03dH
	DB	0dfH
	DB	03dH
	DB	0dfH
	DB	03eH
	DB	0dfH
	DB	03dH
	DB	0dfH
	DB	03dH
	DB	0dfH
	DB	03eH
	DB	0dfH
	DB	03eH
	DB	0d7H
	DB	01dH
	DB	0d7H
	DB	03dH
	DB	0dfH
	DB	03eH
	DB	0dfH
	DB	03dH
	DB	0dfH
	DB	03eH
	DB	0dfH
	DB	03eH
	DB	0dfH
	DB	01dH
	DB	0d7H
	DB	03eH
	DB	0dfH
	DB	03eH
	DB	0dfH
	DB	01dH
	DB	0d7H
	DB	01dH
	DB	0dfH
	DB	03eH
	DB	0dfH
	DB	01eH
	DB	0dfH
	DB	03eH
	DB	0d7H
	DB	03eH
	DB	0dfH
	DB	01dH
	DB	0dfH
	DB	03dH
	DB	0d7H
	DB	01dH
	DB	0dfH
	DB	03dH
	DB	0dfH
	DB	01dH
	DB	0d7H
	DB	01dH
	DB	0d7H
	DB	01dH
	DB	0dfH
	DB	01eH
	DB	0d7H
	DB	01dH
	DB	0d7H
	DB	01dH
	DB	0d7H
	DB	01eH
	DB	0d7H
	DB	01dH
	DB	0d7H
	DB	01dH
	DB	0d7H
	DB	01dH
	DB	0d7H
	DB	0fdH
	DB	0d6H
	DB	0fdH
	DB	0d6H
	DB	01dH
	DB	0d7H
	DB	0fdH
	DB	0d6H
	DB	0fdH
	DB	0ceH
	DB	0fdH
	DB	0d6H
	DB	0fdH
	DB	0d6H
	DB	0fdH
	DB	0d6H
	DB	0fdH
	DB	0ceH
	DB	0fdH
	DB	0d6H
	DB	0fdH
	DB	0ceH
	DB	0ddH
	DB	0ceH
	DB	0fcH
	DB	0ceH
	DB	0fdH
	DB	0ceH
	DB	0ddH
	DB	0ceH
	DB	0ddH
	DB	0ceH
	DB	0dcH
	DB	0ceH
	DB	0ddH
	DB	0ceH
	DB	0ddH
	DB	0ceH
	DB	0dcH
	DB	0c6H
	DB	0dcH
	DB	0ceH
	DB	0ddH
	DB	0ceH
	DB	0bdH
	DB	0c6H
	DB	0dcH
	DB	0ceH
	DB	0bcH
	DB	0c6H
	DB	0bdH
	DB	0c6H
	DB	0bcH
	DB	0c6H
	DB	0bcH
	DB	0c6H
	DB	0bcH
	DB	0c6H
	DB	0bcH
	DB	0c6H
	DB	0bdH
	DB	0c6H
	DB	0bcH
	DB	0beH
	DB	09cH
	DB	0c6H
	DB	0bcH
	DB	0c6H
	DB	09cH
	DB	0beH
	DB	09cH
	DB	0beH
	DB	09cH
	DB	0c6H
	DB	09cH
	DB	0c6H
	DB	09cH
	DB	0beH
	DB	09cH
	DB	0beH
	DB	09bH
	DB	0beH
	DB	09cH
	DB	0beH
	DB	07cH
	DB	0beH
	DB	09cH
	DB	0beH
	DB	09bH
	DB	0beH
	DB	07cH
	DB	0beH
	DB	07cH
	DB	0beH
	DB	07cH
	DB	0beH
	DB	07bH
	DB	0b6H
	DB	07cH
	DB	0b6H
	DB	07cH
	DB	0beH
	DB	07cH
	DB	0b6H
	DB	07bH
	DB	0beH
	DB	05cH
	DB	0b6H
	DB	07cH
	DB	0b6H
	DB	07cH
	DB	0b6H
	DB	05bH
	DB	0b6H
	DB	05bH
	DB	0b6H
	DB	05cH
	DB	0b6H
	DB	05bH
	DB	0b6H
	DB	05cH
	DB	0b6H
	DB	05bH
	DB	0aeH
	DB	05bH
	DB	0b6H
	DB	05cH
	DB	0b6H
	DB	05cH
	DB	0aeH
	DB	03bH
	DB	0b6H
	DB	03bH
	DB	0b6H
	DB	05cH
	DB	0aeH
	DB	03bH
	DB	0aeH
	DB	03bH
	DB	0b6H
	DB	05bH
	DB	0aeH
	DB	03bH
	DB	0aeH
	DB	03bH
	DB	0b6H
	DB	03bH
	DB	0aeH
	DB	03bH
	DB	0aeH
	DB	03bH
	DB	0aeH
	DB	01bH
	DB	0aeH
	DB	03bH
	DB	0aeH
	DB	03bH
	DB	0aeH
	DB	03bH
	DB	0aeH
	DB	03bH
	DB	0aeH
	DB	01bH
	DB	0aeH
	DB	03bH
	DB	0aeH
	DB	01bH
	DB	0aeH
	DB	03bH
	DB	0aeH
	DB	03bH
	DB	0aeH
	DB	01bH
	DB	0aeH
	DB	03bH
	DB	0aeH
	DB	01bH
	DB	0aeH
	DB	01bH
	DB	0aeH
	DB	03bH
	DB	0aeH
	DB	01bH
	DB	0aeH
	DB	01bH
	DB	0aeH
	DB	03bH
	DB	0aeH
	DB	03bH
	DB	0aeH
	DB	01bH
	DB	0aeH
	DB	01bH
	DB	0aeH
	DB	03bH
	DB	0aeH
	DB	01bH
	DB	0aeH
	DB	01bH
	DB	0aeH
	DB	03bH
	DB	0aeH
	DB	01bH
	DB	0aeH
	DB	01bH
	DB	0aeH
	DB	03bH
	DB	0aeH
	DB	03bH
	DB	0aeH
	DB	01bH
	DB	0aeH
	DB	01bH
	DB	0aeH
	DB	03bH
	DB	0aeH
	DB	03bH
	DB	0aeH
	DB	01bH
	DB	0aeH
	DB	03bH
	DB	0aeH
	DB	03bH
	DB	0aeH
	DB	01bH
	DB	0aeH
	DB	03bH
	DB	0aeH
	DB	03bH
	DB	0aeH
	DB	01bH
	DB	0aeH
	DB	01bH
	DB	0aeH
	DB	03bH
	DB	0aeH
	DB	01bH
	DB	0aeH
	DB	01bH
	DB	0aeH
	DB	03bH
	DB	0aeH
	DB	01bH
	DB	0aeH
	DB	03bH
	DB	0aeH
	DB	03bH
	DB	0aeH
	DB	01bH
	DB	0aeH
	DB	01bH
	DB	0aeH
	DB	03bH
	DB	0aeH
	DB	03bH
	DB	0aeH
	DB	01bH
	DB	0aeH
	DB	03bH
	DB	0aeH
	DB	03bH
	DB	0aeH
	DB	01bH
	DB	0aeH
	DB	03bH
	DB	0aeH
	DB	01bH
	DB	0aeH
	DB	01bH
	DB	0aeH
	DB	03bH
	DB	0aeH
	DB	01bH
	DB	0aeH
	DB	03bH
	DB	0aeH
	DB	03bH
	DB	0aeH
	DB	01bH
	DB	0aeH
	DB	03bH
	DB	0aeH
	DB	01bH
	DB	0aeH
	DB	01bH
	DB	0aeH
	DB	01bH
	DB	0aeH
	DB	03bH
	DB	0aeH
	DB	03bH
	DB	0aeH
	DB	01bH
	DB	0aeH
	DB	03bH
	DB	0aeH
	DB	01bH
	DB	0aeH
	DB	03bH
	DB	0aeH
	DB	01bH
	DB	0aeH
	DB	03bH
	DB	0aeH
	DB	03bH
	DB	0aeH
	DB	01bH
	DB	0aeH
	DB	03bH
	DB	0aeH
	DB	01bH
	DB	0aeH
	DB	01bH
	DB	0aeH
	DB	01bH
	DB	0aeH
	DB	01bH
	DB	0aeH
	DB	03bH
	DB	0a6H
	DB	01bH
	DB	0aeH
	DB	03bH
	DB	0aeH
	DB	03bH
	DB	0aeH
	DB	01bH
	DB	0aeH
	DB	01aH
	DB	0aeH
	DB	03bH
	DB	0a6H
	DB	01bH
	DB	0aeH
	DB	01aH
	DB	0aeH
	DB	03bH
	DB	0a6H
	DB	03bH
	DB	0aeH
	DB	01bH
	DB	0aeH
	DB	03aH
	DB	0aeH
	DB	01bH
	DB	0aeH
	DB	03bH
	DB	0aeH
	DB	01aH
	DB	0a6H
	DB	01bH
	DB	0aeH
	DB	03bH
	DB	0aeH
	DB	01bH
	DB	0aeH
	DB	03bH
	DB	0a6H
	DB	01aH
	DB	0aeH
	DB	03bH
	DB	0aeH
	DB	01bH
	DB	0aeH
	DB	01bH
	DB	0aeH
	DB	03aH
	DB	0a6H
	DB	01bH
	DB	0aeH
	DB	01bH
	DB	0aeH
	DB	03aH
	DB	0a6H
	DB	01bH
	DB	0aeH
	DB	01bH
	DB	0aeH
	DB	03bH
	DB	0aeH
	DB	01bH
	DB	0a6H
	DB	01aH
	DB	0aeH
	DB	03bH
	DB	0aeH
	DB	03bH
	DB	0a6H
	DB	01aH
	DB	0aeH
	DB	03bH
	DB	0aeH
	DB	03bH
	DB	0aeH
	DB	01bH
	DB	0aeH
	DB	03aH
	DB	0a6H
	DB	03bH
	DB	0aeH
	DB	01bH
	DB	0aeH
	DB	01aH
	DB	0a6H
	DB	03bH
	DB	0aeH
	DB	01bH
	DB	0aeH
	DB	03bH
	DB	0aeH
	DB	03bH
	DB	0a6H
	DB	01aH
	DB	0aeH
	DB	03bH
	DB	0aeH
	DB	01bH
	DB	0a6H
	DB	01aH
	DB	0aeH
	DB	03bH
	DB	0aeH
	DB	03bH
	DB	0aeH
	DB	01bH
	DB	0aeH
	DB	03aH
	DB	0a6H
	DB	01bH
	DB	0aeH
	DB	01bH
	DB	0aeH
	DB	03aH
	DB	0a6H
	DB	01bH
	DB	0aeH
	DB	01bH
	DB	0aeH
	DB	03bH
	DB	0aeH
	DB	03bH
	DB	0a6H
	DB	03aH
	DB	0aeH
	DB	01bH
	DB	0aeH
	DB	03bH
	DB	0a6H
	DB	01aH
	DB	0aeH
	DB	01bH
	DB	0aeH
	DB	03bH
	DB	0aeH
	DB	01bH
	DB	0aeH
	DB	01aH
	DB	0a6H
	DB	03bH
	DB	0aeH
	DB	03bH
	DB	0aeH
	DB	01aH
	DB	0a6H
	DB	03bH
	DB	0aeH
	DB	03bH
	DB	0aeH
	DB	01bH
	DB	0aeH
	DB	03bH
	DB	0a6H
	DB	01aH
	DB	0aeH
	DB	03bH
	DB	0aeH
	DB	03bH
	DB	0a6H
	DB	03aH
	DB	0aeH
	DB	01bH
	DB	0aeH
	DB	03bH
	DB	0aeH
	DB	01bH
	DB	0aeH
	DB	01aH
	DB	0a6H
	DB	03bH
	DB	0aeH
	DB	03bH
	DB	0aeH
	DB	03bH
	DB	0aeH
	DB	03bH
	DB	0aeH
	DB	03bH
	DB	0aeH
	DB	03bH
	DB	0aeH
	DB	03bH
	DB	0aeH
	DB	03bH
	DB	0aeH
	DB	03bH
	DB	0aeH
	DB	03bH
	DB	0b6H
	DB	03bH
	DB	0b6H
	DB	05bH
	DB	0aeH
	DB	05bH
	DB	0aeH
	DB	03bH
	DB	0b6H
	DB	03bH
	DB	0b6H
	DB	05cH
	DB	0b6H
	DB	05bH
	DB	0b6H
	DB	05bH
	DB	0b6H
	DB	05bH
	DB	0aeH
	DB	05cH
	DB	0b6H
	DB	05bH
	DB	0b6H
	DB	05bH
	DB	0b6H
	DB	05cH
	DB	0b6H
	DB	05bH
	DB	0b6H
	DB	07cH
	DB	0b6H
	DB	07bH
	DB	0b6H
	DB	05cH
	DB	0b6H
	DB	07bH
	DB	0beH
	DB	07cH
	DB	0beH
	DB	05cH
	DB	0b6H
	DB	07bH
	DB	0beH
	DB	07cH
	DB	0beH
	DB	07cH
	DB	0beH
	DB	07cH
	DB	0b6H
	DB	07bH
	DB	0beH
	DB	09cH
	DB	0beH
	DB	07cH
	DB	0beH
	DB	07cH
	DB	0beH
	DB	09cH
	DB	0beH
	DB	09bH
	DB	0beH
	DB	09cH
	DB	0beH
	DB	09cH
	DB	0beH
	DB	09cH
	DB	0c6H
	DB	09cH
	DB	0c6H
	DB	09cH
	DB	0beH
	DB	09cH
	DB	0c6H
	DB	0bcH
	DB	0beH
	DB	0bcH
	DB	0c6H
	DB	0bcH
	DB	0c6H
	DB	0bcH
	DB	0c6H
	DB	0bdH
	DB	0c6H
	DB	0bcH
	DB	0c6H
	DB	0bcH
	DB	0c6H
	DB	0bcH
	DB	0c6H
	DB	0bdH
	DB	0c6H
	DB	0bdH
	DB	0c6H
	DB	0dcH
	DB	0ceH
	DB	0bcH
	DB	0ceH
	DB	0ddH
	DB	0c6H
	DB	0ddH
	DB	0ceH
	DB	0ddH
	DB	0c6H
	DB	0ddH
	DB	0ceH
	DB	0dcH
	DB	0ceH
	DB	0ddH
	DB	0ceH
	DB	0ddH
	DB	0ceH
	DB	0dcH
	DB	0ceH
	DB	0fdH
	DB	0ceH
	DB	0fdH
	DB	0ceH
	DB	0ddH
	DB	0ceH
	DB	0fdH
	DB	0ceH
	DB	0fdH
	DB	0ceH
	DB	0fdH
	DB	0d6H
	DB	0fdH
	DB	0ceH
	DB	0fdH
	DB	0ceH
	DB	0fdH
	DB	0d6H
	DB	0fdH
	DB	0d6H
	DB	0fdH
	DB	0ceH
	DB	01dH
	DB	0d7H
	DB	0fdH
	DB	0d6H
	DB	0fdH
	DB	0d6H
	DB	01dH
	DB	0d7H
	DB	01dH
	DB	0d7H
	DB	01eH
	DB	0d7H
	DB	01dH
	DB	0d7H
	DB	01eH
	DB	0d7H
	DB	01dH
	DB	0d7H
	DB	01dH
	DB	0d7H
	DB	01dH
	DB	0dfH
	DB	01dH
	DB	0d7H
	DB	01dH
	DB	0dfH
	DB	03eH
	DB	0d7H
	DB	01dH
	DB	0dfH
	DB	01dH
	DB	0d7H
	DB	03eH
	DB	0dfH
	DB	03eH
	DB	0d7H
	DB	01dH
	DB	0dfH
	DB	03eH
	DB	0dfH
	DB	03dH
	DB	0d7H
	DB	01eH
	DB	0dfH
	DB	03eH
	DB	0d7H
	DB	03dH
	DB	0d7H
	DB	01eH
	DB	0dfH
	DB	03eH
	DB	0dfH
	DB	03dH
	DB	0dfH
	DB	03dH
	DB	0dfH
	DB	01eH
	DB	0dfH
	DB	03dH
	DB	0dfH
	DB	03eH
	DB	0d7H
	DB	03eH
	DB	0dfH
	DB	03eH
	DB	0dfH
	DB	03eH
	DB	0dfH
	DB	03eH
	DB	0dfH
	DB	03eH
	DB	0dfH
	DB	03eH
	DB	0dfH
	DB	03dH
	DB	0d7H
	DB	03eH
	DB	0dfH
	DB	03eH
	DB	0dfH
	DB	03dH
	DB	0dfH
	DB	03eH
	DB	0dfH
	DB	03eH
	DB	0dfH
	DB	03dH
	DB	0dfH
	DB	03dH
	DB	0dfH
	DB	03eH
	DB	0dfH
	DB	03eH
	DB	0dfH
	DB	03dH
	DB	0dfH
	DB	03eH
	DB	0dfH
	DB	03eH
	DB	0dfH
	DB	03eH
	DB	0dfH
	DB	03eH
	DB	0dfH
	DB	03eH
	DB	0dfH
	DB	03eH
	DB	0dfH
	DB	03dH
	DB	0dfH
	DB	03eH
	DB	0dfH
	DB	03eH
	DB	0dfH
	DB	05dH
	DB	0dfH
	DB	03eH
	DB	0dfH
	DB	03eH
	DB	0dfH
	DB	05dH
	DB	0dfH
	DB	05eH
	DB	0dfH
	DB	03eH
	DB	0dfH
	DB	05eH
	DB	0dfH
	DB	05eH
	DB	0dfH
	DB	03dH
	DB	0dfH
	DB	05eH
	DB	0dfH
	DB	05eH
	DB	0dfH
	DB	03dH
	DB	0dfH
	DB	05eH
	DB	0dfH
	DB	03eH
	DB	0dfH
	DB	03eH
	DB	0dfH
	DB	05eH
	DB	0dfH
	DB	05eH
	DB	0dfH
	DB	05eH
	DB	0dfH
	DB	05eH
	DB	0e7H
	DB	05dH
	DB	0dfH
	DB	03eH
	DB	0dfH
	DB	05eH
	DB	0e7H
	DB	05dH
	DB	0dfH
	DB	05eH
	DB	0dfH
	DB	05dH
	DB	0e7H
	DB	03eH
	DB	0dfH
	DB	05dH
	DB	0dfH
	DB	05eH
	DB	0e7H
	DB	03dH
	DB	0dfH
	DB	05eH
	DB	0dfH
	DB	05eH
	DB	0e7H
	DB	05dH
	DB	0dfH
	DB	05eH
	DB	0dfH
	DB	05eH
	DB	0dfH
	DB	03eH
	DB	0dfH
	DB	03eH
	DB	0dfH
	DB	05eH
	DB	0dfH
	DB	03eH
	DB	0dfH
	DB	05eH
	DB	0dfH
	DB	05dH
	DB	0dfH
	DB	03eH
	DB	0dfH
	DB	05eH
	DB	0dfH
	DB	05dH
	DB	0dfH
	DB	03dH
	DB	0dfH
	DB	05eH
	DB	0dfH
	DB	03eH
	DB	0dfH
	DB	05dH
	DB	0dfH
	DB	03eH
	DB	0dfH
	DB	03eH
	DB	0dfH
	DB	05eH
	DB	0dfH
	DB	03dH
	DB	0dfH
	DB	03eH
	DB	0dfH
	DB	03eH
	DB	0dfH
	DB	03eH
	DB	0dfH
	DB	03eH
	DB	0dfH
	DB	03eH
	DB	0dfH
	DB	03eH
	DB	0dfH
	DB	03dH
	DB	0dfH
	DB	03eH
	DB	0dfH
	DB	03dH
	DB	0dfH
	DB	03eH
	DB	0dfH
	DB	03eH
	DB	0dfH
	DB	03dH
	DB	0dfH
	DB	03eH
	DB	0dfH
	DB	03eH
	DB	0dfH
	DB	03eH
	DB	0dfH
	DB	03eH
	DB	0dfH
	DB	03eH
	DB	0d7H
	DB	03dH
	DB	0dfH
	DB	03eH
	DB	0dfH
	DB	03eH
	DB	0dfH
	DB	03eH
	DB	0dfH
	DB	03eH
	DB	0dfH
	DB	01eH
	DB	0dfH
	DB	03eH
	DB	0dfH
	DB	01dH
	DB	0d7H
	DB	01dH
	DB	0dfH
	DB	03dH
	DB	0dfH
	DB	03eH
	DB	0dfH
	DB	03dH
	DB	0dfH
	DB	03eH
	DB	0dfH
	DB	01eH
	DB	0dfH
	DB	03dH
	DB	0d7H
	DB	01dH
	DB	0d7H
	DB	01eH
	DB	0dfH
	DB	03dH
	DB	0d7H
	DB	01dH
	DB	0dfH
	DB	03eH
	DB	0dfH
	DB	01eH
	DB	0d7H
	DB	03eH
	DB	0d7H
	DB	01eH
	DB	0dfH
	DB	01dH
	DB	0d7H
	DB	03eH
	DB	0dfH
	DB	01dH
	DB	0dfH
	DB	01eH
	DB	0d7H
	DB	01dH
	DB	0dfH
	DB	01dH
	DB	0d7H
	DB	01eH
	DB	0dfH
	DB	01eH
	DB	0d7H
	DB	01dH
	DB	0d7H
	DB	01dH
	DB	0d7H
	DB	01eH
	DB	0d7H
	DB	01dH
	DB	0d7H
	DB	0fdH
	DB	0d6H
	DB	01dH
	DB	0d7H
	DB	0fdH
	DB	0d6H
	DB	0fdH
	DB	0d6H
	DB	0fdH
	DB	0d6H
	DB	0fdH
	DB	0ceH
	DB	0fdH
	DB	0ceH
	DB	0fdH
	DB	0d6H
	DB	0fdH
	DB	0ceH
	DB	0fdH
	DB	0ceH
	DB	0fdH
	DB	0ceH
	DB	0ddH
	DB	0ceH
	DB	0fdH
	DB	0ceH
	DB	0ddH
	DB	0ceH
	DB	0ddH
	DB	0ceH
	DB	0ddH
	DB	0ceH
	DB	0ddH
	DB	0ceH
	DB	0ddH
	DB	0ceH
	DB	0ddH
	DB	0c6H
	DB	0dcH
	DB	0ceH
	DB	0ddH
	DB	0ceH
	DB	0ddH
	DB	0c6H
	DB	0bcH
	DB	0ceH
	DB	0ddH
	DB	0c6H
	DB	0bdH
	DB	0c6H
	DB	0bdH
	DB	0c6H
	DB	0bdH
	DB	0c6H
	DB	0bcH
	DB	0c6H
	DB	0bcH
	DB	0c6H
	DB	0bcH
	DB	0c6H
	DB	0bdH
	DB	0c6H
	DB	0bcH
	DB	0c6H
	DB	09cH
	DB	0c6H
	DB	0bcH
	DB	0c6H
	DB	09cH
	DB	0c6H
	DB	09cH
	DB	0beH
	DB	09cH
	DB	0c6H
	DB	09cH
	DB	0c6H
	DB	09cH
	DB	0beH
	DB	09cH
	DB	0beH
	DB	09cH
	DB	0beH
	DB	09cH
	DB	0beH
	DB	07cH
	DB	0beH
	DB	07cH
	DB	0beH
	DB	09cH
	DB	0beH
	DB	07cH
	DB	0beH
	DB	07cH
	DB	0beH
	DB	07cH
	DB	0beH
	DB	07bH
	DB	0beH
	DB	07cH
	DB	0b6H
	DB	07cH
	DB	0b6H
	DB	07cH
	DB	0beH
	DB	07bH
	DB	0b6H
	DB	05bH
	DB	0b6H
	DB	05cH
	DB	0b6H
	DB	07cH
	DB	0b6H
	DB	05bH
	DB	0b6H
	DB	05cH
	DB	0b6H
	DB	05bH
	DB	0b6H
	DB	05bH
	DB	0b6H
	DB	05cH
	DB	0b6H
	DB	05bH
	DB	0b6H
	DB	05bH
	DB	0b6H
	DB	05bH
	DB	0aeH
	DB	05cH
	DB	0b6H
	DB	03bH
	DB	0b6H
	DB	05bH
	DB	0aeH
	DB	05bH
	DB	0b6H
	DB	03bH
	DB	0aeH
	DB	03bH
	DB	0b6H
	DB	03bH
	DB	0aeH
	DB	03bH
	DB	0aeH
	DB	03bH
	DB	0aeH
	DB	03bH
	DB	0aeH
	DB	03bH
	DB	0aeH
	DB	03bH
	DB	0aeH
	DB	01bH
	DB	0aeH
	DB	03bH
	DB	0aeH
	DB	03bH
	DB	0aeH
	DB	03bH
	DB	0aeH
	DB	01aH
	DB	0aeH
	DB	01bH
	DB	0aeH
	DB	03bH
	DB	0a6H
	DB	01bH
	DB	0aeH
	DB	01aH
	DB	0aeH
	DB	03bH
	DB	0aeH
	DB	03bH
	DB	0a6H
	DB	01aH
	DB	0aeH
	DB	03bH
	DB	0aeH
	DB	03bH
	DB	0a6H
	DB	01bH
	DB	0aeH
	DB	01bH
	DB	0aeH
	DB	03aH
	DB	0aeH
	DB	01bH
	DB	0aeH
	DB	03bH
	DB	0a6H
	DB	03aH
	DB	0aeH
	DB	01bH
	DB	0aeH
	DB	03bH
	DB	0a6H
	DB	03bH
	DB	0aeH
	DB	01aH
	DB	0aeH
	DB	03bH
	DB	0aeH
	DB	01bH
	DB	0a6H
	DB	01aH
	DB	0aeH
	DB	03bH
	DB	0aeH
	DB	01bH
	DB	0a6H
	DB	01bH
	DB	0aeH
	DB	03bH
	DB	0aeH
	DB	01aH
	DB	0aeH
	DB	01bH
	DB	0aeH
	DB	03bH
	DB	0a6H
	DB	01aH
	DB	0aeH
	DB	01bH
	DB	0aeH
	DB	03bH
	DB	0a6H
	DB	03bH
	DB	0aeH
	DB	01aH
	DB	0aeH
	DB	03bH
	DB	0aeH
	DB	03bH
	DB	0a6H
	DB	01aH
	DB	0aeH
	DB	03bH
	DB	0aeH
	DB	01bH
	DB	0a6H
	DB	01bH
	DB	0aeH
	DB	03bH
	DB	0aeH
	DB	01aH
	DB	0aeH
	DB	03bH
	DB	0aeH
	DB	03bH
	DB	0a6H
	DB	01aH
	DB	0aeH
	DB	03bH
	DB	0aeH
	DB	01bH
	DB	0a6H
	DB	01bH
	DB	0aeH
	DB	03aH
	DB	0aeH
	DB	03bH
	DB	0aeH
	DB	01bH
	DB	0a6H
	DB	03aH
	DB	0aeH
	DB	01bH
	DB	0aeH
	DB	01bH
	DB	0a6H
	DB	03bH
	DB	0aeH
	DB	01bH
	DB	0aeH
	DB	01aH
	DB	0aeH
	DB	03bH
	DB	0aeH
	DB	03bH
	DB	0a6H
	DB	03aH
	DB	0aeH
	DB	01bH
	DB	0aeH
	DB	03bH
	DB	0a6H
	DB	01bH
	DB	0aeH
	DB	01aH
	DB	0aeH
	DB	03bH
	DB	0aeH
	DB	03bH
	DB	0a6H
	DB	01aH
	DB	0aeH
	DB	01bH
	DB	0aeH
	DB	03bH
	DB	0a6H
	DB	01bH
	DB	0aeH
	DB	01bH
	DB	0aeH
	DB	03aH
	DB	0aeH
	DB	03bH
	DB	0aeH
	DB	03bH
	DB	0a6H
	DB	03aH
	DB	0aeH
	DB	01bH
	DB	0aeH
	DB	03bH
	DB	0aeH
	DB	01aH
	DB	0aeH
	DB	01bH
	DB	0aeH
	DB	03bH
	DB	0aeH
	DB	03bH
	DB	0aeH
	DB	03bH
	DB	0aeH
	DB	01bH
	DB	0aeH
	DB	03bH
	DB	0aeH
	DB	01bH
	DB	0aeH
	DB	03bH
	DB	0aeH
	DB	01bH
	DB	0aeH
	DB	03bH
	DB	0aeH
	DB	01bH
	DB	0a6H
	DB	03bH
	DB	0aeH
	DB	03bH
	DB	0aeH
	DB	01bH
	DB	0aeH
	DB	03bH
	DB	0aeH
	DB	03bH
	DB	0aeH
	DB	01bH
	DB	0aeH
	DB	01aH
	DB	0aeH
	DB	03bH
	DB	0aeH
	DB	03bH
	DB	0aeH
	DB	01bH
	DB	0a6H
	DB	03bH
	DB	0aeH
	DB	03bH
	DB	0aeH
	DB	01bH
	DB	0aeH
	DB	03bH
	DB	0aeH
	DB	01bH
	DB	0aeH
	DB	03bH
	DB	0aeH
	DB	01bH
	DB	0aeH
	DB	03aH
	DB	0aeH
	DB	03bH
	DB	0aeH
	DB	01bH
	DB	0aeH
	DB	01bH
	DB	0aeH
	DB	03bH
	DB	0aeH
	DB	01bH
	DB	0aeH
	DB	01bH
	DB	0aeH
	DB	03bH
	DB	0a6H
	DB	01bH
	DB	0aeH
	DB	01bH
	DB	0aeH
	DB	03bH
	DB	0aeH
	DB	03bH
	DB	0aeH
	DB	01bH
	DB	0aeH
	DB	03bH
	DB	0aeH
	DB	01bH
	DB	0aeH
	DB	01aH
	DB	0aeH
	DB	03bH
	DB	0aeH
	DB	01bH
	DB	0aeH
	DB	01bH
	DB	0aeH
	DB	03bH
	DB	0aeH
	DB	03bH
	DB	0aeH
	DB	01bH
	DB	0aeH
	DB	01bH
	DB	0a6H
	DB	03bH
	DB	0aeH
	DB	01bH
	DB	0aeH
	DB	03bH
	DB	0aeH
	DB	03bH
	DB	0aeH
	DB	01bH
	DB	0aeH
	DB	03bH
	DB	0aeH
	DB	03bH
	DB	0aeH
	DB	01aH
	DB	0aeH
	DB	01bH
	DB	0aeH
	DB	03bH
	DB	0aeH
	DB	01bH
	DB	0aeH
	DB	03bH
	DB	0aeH
	DB	03bH
	DB	0aeH
	DB	01bH
	DB	0aeH
	DB	03bH
	DB	0a6H
	DB	03bH
	DB	0aeH
	DB	01bH
	DB	0aeH
	DB	01bH
	DB	0aeH
	DB	03bH
	DB	0aeH
	DB	01bH
	DB	0aeH
	DB	03bH
	DB	0aeH
	DB	01bH
	DB	0aeH
	DB	01aH
	DB	0aeH
	DB	03bH
	DB	0aeH
	DB	03bH
	DB	0aeH
	DB	01bH
	DB	0aeH
	DB	01bH
	DB	0aeH
	DB	01bH
	DB	0aeH
	DB	03bH
	DB	0aeH
	DB	03bH
	DB	0a6H
	DB	01bH
	DB	0aeH
	DB	03bH
	DB	0aeH
	DB	03bH
	DB	0aeH
	DB	03bH
	DB	0aeH
	DB	01aH
	DB	0aeH
	DB	03bH
	DB	0aeH
	DB	03bH
	DB	0aeH
	DB	03bH
	DB	0aeH
	DB	03bH
	DB	0aeH
	DB	03bH
	DB	0aeH
	DB	03bH
	DB	0aeH
	DB	03bH
	DB	0aeH
	DB	03bH
	DB	0b6H
	DB	03bH
	DB	0aeH
	DB	05bH
	DB	0aeH
	DB	05bH
	DB	0b6H
	DB	03bH
	DB	0aeH
	DB	05bH
	DB	0aeH
	DB	05bH
	DB	0b6H
	DB	05cH
	DB	0b6H
	DB	05bH
	DB	0b6H
	DB	05bH
	DB	0b6H
	DB	05cH
	DB	0b6H
	DB	05bH
	DB	0b6H
	DB	05cH
	DB	0b6H
	DB	05bH
	DB	0b6H
	DB	07cH
	DB	0b6H
	DB	07bH
	DB	0b6H
	DB	05cH
	DB	0b6H
	DB	07bH
	DB	0b6H
	DB	07cH
	DB	0beH
	DB	07cH
	DB	0b6H
	DB	07bH
	DB	0beH
	DB	07bH
	DB	0beH
	DB	07cH
	DB	0beH
	DB	07cH
	DB	0b6H
	DB	07cH
	DB	0beH
	DB	09bH
	DB	0beH
	DB	09cH
	DB	0beH
	DB	07cH
	DB	0beH
	DB	09cH
	DB	0beH
	DB	09cH
	DB	0beH
	DB	09cH
	DB	0beH
	DB	09cH
	DB	0beH
	DB	09cH
	DB	0beH
	DB	09cH
	DB	0c6H
	DB	09cH
	DB	0beH
	DB	0bcH
	DB	0c6H
	DB	0bcH
	DB	0c6H
	DB	09cH
	DB	0c6H
	DB	0bcH
	DB	0c6H
	DB	0bcH
	DB	0c6H
	DB	0bcH
	DB	0c6H
	DB	0bdH
	DB	0c6H
	DB	0bcH
	DB	0c6H
	DB	0bcH
	DB	0c6H
	DB	0bcH
	DB	0c6H
	DB	0ddH
	DB	0c6H
	DB	0dcH
	DB	0c6H
	DB	0bdH
	DB	0ceH
	DB	0dcH
	DB	0c6H
	DB	0ddH
	DB	0ceH
	DB	0ddH
	DB	0ceH
	DB	0dcH
	DB	0ceH
	DB	0ddH
	DB	0ceH
	DB	0ddH
	DB	0ceH
	DB	0ddH
	DB	0ceH
	DB	0ddH
	DB	0ceH
	DB	0fdH
	DB	0ceH
	DB	0ddH
	DB	0ceH
	DB	0fdH
	DB	0ceH
	DB	0fdH
	DB	0ceH
	DB	0fdH
	DB	0ceH
	DB	0fdH
	DB	0d6H
	DB	0fdH
	DB	0d6H
	DB	0fdH
	DB	0d6H
	DB	0fdH
	DB	0ceH
	DB	0fdH
	DB	0d6H
	DB	0fdH
	DB	0d6H
	DB	01dH
	DB	0d7H
	DB	01dH
	DB	0d7H
	DB	01dH
	DB	0d7H
	DB	01dH
	DB	0d7H
	DB	01dH
	DB	0d7H
	DB	01dH
	DB	0d7H
	DB	01eH
	DB	0d7H
	DB	01dH
	DB	0d7H
	DB	01dH
	DB	0d7H
	DB	01eH
	DB	0dfH
	DB	01eH
	DB	0dfH
	DB	01eH
	DB	0d7H
	DB	01dH
	DB	0dfH
	DB	01dH
	DB	0d7H
	DB	03eH
	DB	0dfH
	DB	03eH
	DB	0d7H
	DB	01dH
	DB	0dfH
	DB	03eH
	DB	0dfH
	DB	01dH
	DB	0d7H
	DB	01dH
	DB	0dfH
	DB	03eH
	DB	0dfH
	DB	01dH
	DB	0d7H
	DB	01eH
	DB	0dfH
	DB	03dH
	DB	0dfH
	DB	03dH
	DB	0dfH
	DB	03eH
	DB	0dfH
	DB	03eH
	DB	0d7H
	DB	01dH
	DB	0dfH
	DB	03eH
	DB	0d7H
	DB	03eH
	DB	0dfH
	DB	01dH
	DB	0dfH
	DB	03dH
	DB	0dfH
	DB	01eH
	DB	0dfH
	DB	03dH
	DB	0dfH
	DB	03dH
	DB	0d7H
	DB	03eH
	DB	0dfH
	DB	03dH
	DB	0dfH
	DB	03eH
	DB	0dfH
	DB	03eH
	DB	0dfH
	DB	03dH
	DB	0dfH
	DB	03eH
	DB	0dfH
	DB	03dH
	DB	0dfH
	DB	03eH
	DB	0dfH
	DB	03eH
	DB	0dfH
	DB	03eH
	DB	0dfH
	DB	03dH
	DB	0dfH
	DB	03eH
	DB	0dfH
	DB	03eH
	DB	0dfH
	DB	03eH
	DB	0dfH
	DB	03dH
	DB	0dfH
	DB	03eH
	DB	0dfH
	DB	03dH
	DB	0dfH
	DB	03eH
	DB	0dfH
	DB	03eH
	DB	0dfH
	DB	05dH
	DB	0dfH
	DB	03eH
	DB	0dfH
	DB	03eH
	DB	0dfH
	DB	05dH
	DB	0dfH
	DB	03eH
	DB	0dfH
	DB	03eH
	DB	0dfH
	DB	03eH
	DB	0dfH
	DB	03eH
	DB	0dfH
	DB	03eH
	DB	0dfH
	DB	03dH
	DB	0dfH
	DB	05eH
	DB	0dfH
	DB	05eH
	DB	0dfH
	DB	03eH
	DB	0e7H
	DB	05dH
	DB	0dfH
	DB	05eH
	DB	0dfH
	DB	03eH
	DB	0e7H
	DB	05dH
	DB	0dfH
	DB	05eH
	DB	0dfH
	DB	05eH
	DB	0e7H
	DB	03dH
	DB	0e7H
	DB	03dH
	DB	0dfH
	DB	03eH
	DB	0dfH
	DB	03eH
	DB	0dfH
	DB	05eH
	DB	0dfH
	DB	03dH
	DB	0e7H
	DB	03eH
	DB	0dfH
	DB	05eH
	DB	0dfH
	DB	03dH
	DB	0e7H
	DB	05eH
	DB	0dfH
	DB	03eH
	DB	0dfH
	DB	03eH
	DB	0e7H
	DB	05dH
	DB	0dfH
	DB	05eH
	DB	0dfH
	DB	03eH
	DB	0e7H
	DB	03dH
	DB	0dfH
	DB	03eH
	DB	0dfH
	DB	03eH
	DB	0e7H
	DB	05dH
	DB	0e7H
	DB	05dH
	DB	0dfH
	DB	03eH
	DB	0e7H
	DB	05dH
	DB	0dfH
	DB	05eH
	DB	0dfH
	DB	03eH
	DB	0e7H
	DB	05eH
	DB	0dfH
	DB	05dH
	DB	0dfH
	DB	03eH
	DB	0e7H
	DB	05eH
	DB	0dfH
	DB	03eH
	DB	0dfH
	DB	03eH
	DB	0dfH
	DB	03dH
	DB	0dfH
	DB	03eH
	DB	0dfH
	DB	05eH
	DB	0dfH
	DB	03eH
	DB	0dfH
	DB	03dH
	DB	0dfH
	DB	03eH
	DB	0dfH
	DB	05eH
	DB	0dfH
	DB	03dH
	DB	0dfH
	DB	03eH
	DB	0dfH
	DB	03eH
	DB	0dfH
	DB	03dH
	DB	0dfH
	DB	03eH
	DB	0dfH
	DB	03eH
	DB	0dfH
	DB	03eH
	DB	0dfH
	DB	03eH
	DB	0dfH
	DB	03eH
	DB	0dfH
	DB	03dH
	DB	0dfH
	DB	03eH
	DB	0dfH
	DB	03dH
	DB	0dfH
	DB	03dH
	DB	0dfH
	DB	03eH
	DB	0dfH
	DB	03eH
	DB	0dfH
	DB	03dH
	DB	0dfH
	DB	03eH
	DB	0dfH
	DB	03eH
	DB	0dfH
	DB	03dH
	DB	0dfH
	DB	03dH
	DB	0dfH
	DB	03dH
	DB	0dfH
	DB	03eH
	DB	0dfH
	DB	03eH
	DB	0dfH
	DB	03eH
	DB	0dfH
	DB	03eH
	DB	0dfH
	DB	03eH
	DB	0d7H
	DB	01eH
	DB	0d7H
	DB	03dH
	DB	0dfH
	DB	03dH
	DB	0dfH
	DB	03eH
	DB	0dfH
	DB	03dH
	DB	0dfH
	DB	03eH
	DB	0dfH
	DB	03eH
	DB	0d7H
	DB	01dH
	DB	0dfH
	DB	03dH
	DB	0dfH
	DB	01dH
	DB	0d7H
	DB	03eH
	DB	0dfH
	DB	01dH
	DB	0dfH
	DB	03eH
	DB	0d7H
	DB	03eH
	DB	0d7H
	DB	01dH
	DB	0dfH
	DB	01eH
	DB	0d7H
	DB	03dH
	DB	0dfH
	DB	01eH
	DB	0d7H
	DB	01dH
	DB	0d7H
	DB	01dH
	DB	0dfH
	DB	01dH
	DB	0d7H
	DB	01eH
	DB	0d7H
	DB	01eH
	DB	0d7H
	DB	01dH
	DB	0d7H
	DB	01dH
	DB	0d7H
	DB	01dH
	DB	0d7H
	DB	01dH
	DB	0d7H
	DB	0fdH
	DB	0d6H
	DB	01dH
	DB	0d7H
	DB	01dH
	DB	0d7H
	DB	0fdH
	DB	0d6H
	DB	0fdH
	DB	0ceH
	DB	0fdH
	DB	0d6H
	DB	0fdH
	DB	0d6H
	DB	0fdH
	DB	0d6H
	DB	0fdH
	DB	0ceH
	DB	0fdH
	DB	0d6H
	DB	0fdH
	DB	0ceH
	DB	0dcH
	DB	0ceH
	DB	0fdH
	DB	0ceH
	DB	0dcH
	DB	0ceH
	DB	0ddH
	DB	0ceH
	DB	0ddH
	DB	0ceH
	DB	0dcH
	DB	0ceH
	DB	0ddH
	DB	0ceH
	DB	0ddH
	DB	0ceH
	DB	0dcH
	DB	0c6H
	DB	0dcH
	DB	0ceH
	DB	0bdH
	DB	0ceH
	DB	0dcH
	DB	0c6H
	DB	0dcH
	DB	0ceH
	DB	0bdH
	DB	0c6H
	DB	0bdH
	DB	0c6H
	DB	0bcH
	DB	0c6H
	DB	0bdH
	DB	0c6H
	DB	0bcH
	DB	0c6H
	DB	0bcH
	DB	0c6H
	DB	0bdH
	DB	0c6H
	DB	0bcH
	DB	0c6H
	DB	0bcH
	DB	0beH
	DB	0bcH
	DB	0c6H
	DB	09cH
	DB	0beH
	DB	09cH
	DB	0c6H
	DB	09cH
	DB	0beH
	DB	09cH
	DB	0c6H
	DB	09cH
	DB	0beH
	DB	09cH
	DB	0beH
	DB	09cH
	DB	0beH
	DB	07cH
	DB	0beH
	DB	09cH
	DB	0beH
	DB	09bH
	DB	0beH
	DB	07cH
	DB	0beH
	DB	07cH
	DB	0beH
	DB	07cH
	DB	0beH
	DB	07bH
	DB	0beH
	DB	07bH
	DB	0b6H
	DB	07cH
	DB	0beH
	DB	07cH
	DB	0beH
	DB	07bH
	DB	0b6H
	DB	05bH
	DB	0beH
	DB	07cH
	DB	0b6H
	DB	07cH
	DB	0b6H
	DB	05bH
	DB	0b6H
	DB	05bH
	DB	0b6H
	DB	05cH
	DB	0b6H
	DB	05bH
	DB	0b6H
	DB	05cH
	DB	0b6H
	DB	05bH
	DB	0aeH
	DB	05bH
	DB	0b6H
	DB	05bH
	DB	0b6H
	DB	05bH
	DB	0aeH
	DB	03cH
	DB	0b6H
	DB	05bH
	DB	0aeH
	DB	05bH
	DB	0b6H
	DB	03bH
	DB	0aeH
	DB	03bH
	DB	0b6H
	DB	03bH
	DB	0aeH
	DB	03bH
	DB	0aeH
	DB	03bH
	DB	0b6H
	DB	03bH
	DB	0aeH
	DB	03bH
	DB	0aeH
	DB	03bH
	DB	0aeH
	DB	03bH
	DB	0aeH
	DB	01bH
	DB	0aeH
	DB	03bH
	DB	0aeH
	DB	03bH
	DB	0aeH
	DB	01bH
	DB	0aeH
	DB	03bH
	DB	0aeH
	DB	01bH
	DB	0aeH
	DB	01bH
	DB	0aeH
	DB	03bH
	DB	0aeH
	DB	01bH
	DB	0aeH
	DB	01bH
	DB	0aeH
	DB	03bH
	DB	0aeH
	DB	01aH
	DB	0aeH
	DB	03bH
	DB	0aeH
	DB	03bH
	DB	0a6H
	DB	01bH
	DB	0aeH
	DB	01bH
	DB	0aeH
	DB	03bH
	DB	0aeH
	DB	01bH
	DB	0aeH
	DB	01bH
	DB	0aeH
	DB	03bH
	DB	0aeH
	DB	01bH
	DB	0aeH
	DB	03bH
	DB	0aeH
	DB	03bH
	DB	0aeH
	DB	01bH
	DB	0aeH
	DB	03bH
	DB	0aeH
	DB	03bH
	DB	0aeH
	DB	01aH
	DB	0aeH
	DB	03bH
	DB	0aeH
	DB	03bH
	DB	0a6H
	DB	01bH
	DB	0aeH
	DB	03bH
	DB	0aeH
	DB	03bH
	DB	0aeH
	DB	01bH
	DB	0aeH
	DB	03bH
	DB	0aeH
	DB	01bH
	DB	0aeH
	DB	01bH
	DB	0aeH
	DB	03bH
	DB	0aeH
	DB	01bH
	DB	0aeH
	DB	01bH
	DB	0aeH
	DB	03bH
	DB	0aeH
	DB	03bH
	DB	0aeH
	DB	01aH
	DB	0aeH
	DB	03bH
	DB	0aeH
	DB	01bH
	DB	0a6H
	DB	01bH
	DB	0aeH
	DB	03bH
	DB	0aeH
	DB	01bH
	DB	0aeH
	DB	01bH
	DB	0aeH
	DB	03bH
	DB	0aeH
	DB	03bH
	DB	0aeH
	DB	01bH
	DB	0aeH
	DB	01bH
	DB	0aeH
	DB	03bH
	DB	0aeH
	DB	01bH
	DB	0aeH
	DB	03bH
	DB	0aeH
	DB	03bH
	DB	0aeH
	DB	01aH
	DB	0aeH
	DB	03bH
	DB	0aeH
	DB	03bH
	DB	0a6H
	DB	01bH
	DB	0aeH
	DB	01bH
	DB	0aeH
	DB	03bH
	DB	0aeH
	DB	01bH
	DB	0aeH
	DB	03bH
	DB	0aeH
	DB	03bH
	DB	0aeH
	DB	01bH
	DB	0aeH
	DB	01bH
	DB	0aeH
	DB	03bH
	DB	0aeH
	DB	01bH
	DB	0aeH
	DB	03bH
	DB	0aeH
	DB	03bH
	DB	0aeH
	DB	01aH
	DB	0aeH
	DB	03bH
	DB	0aeH
	DB	01bH
	DB	0a6H
	DB	01bH
	DB	0aeH
	DB	01bH
	DB	0aeH
	DB	03bH
	DB	0aeH
	DB	01bH
	DB	0aeH
	DB	03bH
	DB	0aeH
	DB	03bH
	DB	0a6H
	DB	01bH
	DB	0aeH
	DB	03bH
	DB	0aeH
	DB	01bH
	DB	0aeH
	DB	01bH
	DB	0aeH
	DB	01bH
	DB	0aeH
	DB	03bH
	DB	0aeH
	DB	01bH
	DB	0aeH
	DB	03bH
	DB	0aeH
	DB	03bH
	DB	0aeH
	DB	01aH
	DB	0aeH
	DB	01bH
	DB	0aeH
	DB	03bH
	DB	0aeH
	DB	01bH
	DB	0aeH
	DB	01bH
	DB	0aeH
	DB	03bH
	DB	0a6H
	DB	01bH
	DB	0aeH
	DB	03bH
	DB	0aeH
	DB	01bH
	DB	0a6H
	DB	03bH
	DB	0aeH
	DB	01bH
	DB	0aeH
	DB	01bH
	DB	0aeH
	DB	03bH
	DB	0aeH
	DB	01aH
	DB	0aeH
	DB	03bH
	DB	0aeH
	DB	01bH
	DB	0aeH
	DB	03bH
	DB	0aeH
	DB	03bH
	DB	0aeH
	DB	01bH
	DB	0aeH
	DB	03bH
	DB	0aeH
	DB	01bH
	DB	0a6H
	DB	03bH
	DB	0aeH
	DB	03bH
	DB	0aeH
	DB	01bH
	DB	0aeH
	DB	03bH
	DB	0aeH
	DB	03bH
	DB	0aeH
	DB	01bH
	DB	0aeH
	DB	03bH
	DB	0aeH
	DB	03aH
	DB	0aeH
	DB	01bH
	DB	0aeH
	DB	01bH
	DB	0aeH
	DB	03bH
	DB	0aeH
	DB	01bH
	DB	0aeH
	DB	03bH
	DB	0aeH
	DB	03bH
	DB	0aeH
	DB	01bH
	DB	0a6H
	DB	03bH
	DB	0aeH
	DB	01bH
	DB	0aeH
	DB	03bH
	DB	0aeH
	DB	01bH
	DB	0aeH
	DB	03bH
	DB	0aeH
	DB	03bH
	DB	0aeH
	DB	01bH
	DB	0aeH
	DB	01aH
	DB	0aeH
	DB	03bH
	DB	0aeH
	DB	01bH
	DB	0aeH
	DB	03bH
	DB	0aeH
	DB	01bH
	DB	0aeH
	DB	01bH
	DB	0aeH
	DB	03bH
	DB	0aeH
	DB	03bH
	DB	0a6H
	DB	01bH
	DB	0aeH
	DB	01bH
	DB	0aeH
	DB	03bH
	DB	0aeH
	DB	01bH
	DB	0aeH
	DB	01bH
	DB	0aeH
	DB	03bH
	DB	0aeH
	DB	01bH
	DB	0aeH
	DB	03aH
	DB	0aeH
	DB	03bH
	DB	0aeH
	DB	01bH
	DB	0aeH
	DB	03bH
	DB	0aeH
	DB	01bH
	DB	0aeH
	DB	03bH
	DB	0aeH
	DB	03bH
	DB	0aeH
	DB	01bH
	DB	0a6H
	DB	01bH
	DB	0aeH
	DB	03bH
	DB	0aeH
	DB	03bH
	DB	0aeH
	DB	01bH
	DB	0aeH
	DB	01bH
	DB	0aeH
	DB	03bH
	DB	0aeH
	DB	01bH
	DB	0aeH
	DB	01aH
	DB	0aeH
	DB	03bH
	DB	0aeH
	DB	03bH
	DB	0aeH
	DB	03bH
	DB	0aeH
	DB	03bH
	DB	0aeH
	DB	01bH
	DB	0aeH
	DB	03bH
	DB	0aeH
	DB	03bH
	DB	0aeH
	DB	03bH
	DB	0aeH
	DB	03bH
	DB	0aeH
	DB	03bH
	DB	0aeH
	DB	03bH
	DB	0b6H
	DB	05bH
	DB	0aeH
	DB	05bH
	DB	0b6H
	DB	03bH
	DB	0b6H
	DB	03bH
	DB	0aeH
	DB	05cH
	DB	0b6H
	DB	05bH
	DB	0b6H
	DB	05bH
	DB	0aeH
	DB	05bH
	DB	0b6H
	DB	05cH
	DB	0b6H
	DB	05bH
	DB	0b6H
	DB	05bH
	DB	0b6H
	DB	05cH
	DB	0b6H
	DB	05bH
	DB	0b6H
	DB	07cH
	DB	0b6H
	DB	07bH
	DB	0b6H
	DB	05cH
	DB	0b6H
	DB	07bH
	DB	0beH
	DB	07cH
	DB	0b6H
	DB	05cH
	DB	0b6H
	DB	07bH
	DB	0beH
	DB	07cH
	DB	0b6H
	DB	07cH
	DB	0beH
	DB	07cH
	DB	0beH
	DB	07cH
	DB	0beH
	DB	09bH
	DB	0beH
	DB	09cH
	DB	0beH
	DB	07cH
	DB	0beH
	DB	09cH
	DB	0beH
	DB	09bH
	DB	0beH
	DB	09cH
	DB	0beH
	DB	09cH
	DB	0beH
	DB	09cH
	DB	0c6H
	DB	09cH
	DB	0c6H
	DB	09cH
	DB	0beH
	DB	0bcH
	DB	0c6H
	DB	09cH
	DB	0c6H
	DB	09cH
	DB	0beH
	DB	0bcH
	DB	0c6H
	DB	0bdH
	DB	0c6H
	DB	0bcH
	DB	0c6H
	DB	0bdH
	DB	0c6H
	DB	0bcH
	DB	0c6H
	DB	0bdH
	DB	0c6H
	DB	0bdH
	DB	0c6H
	DB	0ddH
	DB	0c6H
	DB	0bcH
	DB	0ceH
	DB	0bdH
	DB	0ceH
	DB	0dcH
	DB	0ceH
	DB	0ddH
	DB	0c6H
	DB	0ddH
	DB	0ceH
	DB	0dcH
	DB	0ceH
	DB	0dcH
	DB	0ceH
	DB	0ddH
	DB	0ceH
	DB	0ddH
	DB	0ceH
	DB	0fcH
	DB	0ceH
	DB	0fdH
	DB	0ceH
	DB	0ddH
	DB	0ceH
	DB	0fdH
	DB	0ceH
	DB	0fdH
	DB	0ceH
	DB	0fdH
	DB	0d6H
	DB	0fdH
	DB	0d6H
	DB	0fdH
	DB	0ceH
	DB	0fdH
	DB	0d6H
	DB	0fdH
	DB	0d6H
	DB	0fdH
	DB	0d6H
	DB	01dH
	DB	0d7H
	DB	0fdH
	DB	0d6H
	DB	0fdH
	DB	0d6H
	DB	01dH
	DB	0d7H
	DB	01dH
	DB	0d7H
	DB	01eH
	DB	0d7H
	DB	01dH
	DB	0d7H
	DB	01eH
	DB	0d7H
	DB	01dH
	DB	0d7H
	DB	01dH
	DB	0dfH
	DB	01eH
	DB	0d7H
	DB	01dH
	DB	0d7H
	DB	01dH
	DB	0dfH
	DB	03eH
	DB	0d7H
	DB	01dH
	DB	0d7H
	DB	03eH
	DB	0dfH
	DB	03dH
	DB	0d7H
	DB	01dH
	DB	0dfH
	DB	03eH
	DB	0dfH
	DB	01eH
	DB	0d7H
	DB	03dH
	DB	0dfH
	DB	01eH
	DB	0dfH
	DB	03dH
	DB	0d7H
	DB	03eH
	DB	0dfH
	DB	03dH
	DB	0dfH
	DB	03eH
	DB	0dfH
	DB	03dH
	DB	0dfH
	DB	03dH
	DB	0dfH
	DB	01eH
	DB	0dfH
	DB	03eH
	DB	0dfH
	DB	03eH
	DB	0dfH
	DB	03eH
	DB	0dfH
	DB	03eH
	DB	0dfH
	DB	03eH
	DB	0dfH
	DB	03eH
	DB	0dfH
	DB	03dH
	DB	0dfH
	DB	03eH
	DB	0dfH
	DB	03eH
	DB	0dfH
	DB	03dH
	DB	0dfH
	DB	03eH
	DB	0dfH
	DB	03eH
	DB	0dfH
	DB	03dH
	DB	0dfH
	DB	03eH
	DB	0dfH
	DB	03eH
	DB	0dfH
	DB	03dH
	DB	0dfH
	DB	03eH
	DB	0dfH
	DB	03eH
	DB	0dfH
	DB	03eH
	DB	0dfH
	DB	03eH
	DB	0dfH
	DB	03eH
	DB	0dfH
	DB	03eH
	DB	0dfH
	DB	03eH
	DB	0dfH
	DB	05eH
	DB	0dfH
	DB	03dH
	DB	0dfH
	DB	03eH
	DB	0dfH
	DB	05eH
	DB	0dfH
	DB	03dH
	DB	0dfH
	DB	03eH
	DB	0dfH
	DB	03eH
	DB	0dfH
	DB	03eH
	DB	0dfH
	DB	05eH
	DB	0dfH
	DB	05dH
	DB	0dfH
	DB	05eH
	DB	0e7H
	DB	05eH
	DB	0dfH
	DB	05dH
	DB	0dfH
	DB	03eH
	DB	0e7H
	DB	03eH
	DB	0dfH
	DB	03dH
	DB	0dfH
	DB	05eH
	DB	0e7H
	DB	03eH
	DB	0dfH
	DB	03eH
	DB	0dfH
	DB	05eH
	DB	0e7H
	DB	03eH
	DB	0e7H
	DB	03dH
	DB	0dfH
	DB	05eH
	DB	0dfH
	DB	05eH
	DB	0e7H
	DB	03eH
	DB	0e7H
	DB	05eH
	DB	0dfH
	DB	05eH
	DB	0e7H
	DB	03eH
	DB	0e7H
	DB	05eH
	DB	0dfH
	DB	03eH
	DB	0dfH
	DB	03eH
	DB	0e7H
	DB	05eH
	DB	0dfH
	DB	03eH
	DB	0dfH
	DB	05eH
	DB	0e7H
	DB	03eH
	DB	0dfH
	DB	03eH
	DB	0dfH
	DB	05eH
	DB	0e7H
	DB	03eH
	DB	0dfH
	DB	05eH
	DB	0dfH
	DB	05eH
	DB	0e7H
	DB	03eH
	DB	0dfH
	DB	03eH
	DB	0dfH
	DB	05eH
	DB	0e7H
	DB	03eH
	DB	0dfH
	DB	03dH
	DB	0e7H
	DB	05eH
	DB	0e7H
	DB	03eH
	DB	0dfH
	DB	03eH
	DB	0dfH
	DB	03eH
	DB	0dfH
	DB	05dH
	DB	0e7H
	DB	03eH
	DB	0dfH
	DB	05eH
	DB	0dfH
	DB	05eH
	DB	0e7H
	DB	05eH
	DB	0dfH
	DB	05dH
	DB	0dfH
	DB	05eH
	DB	0e7H
	DB	05eH
	DB	0dfH
	DB	03eH
	DB	0dfH
	DB	03eH
	DB	0dfH
	DB	03eH
	DB	0dfH
	DB	05dH
	DB	0dfH
	DB	03eH
	DB	0dfH
	DB	05eH
	DB	0dfH
	DB	05dH
	DB	0dfH
	DB	03eH
	DB	0dfH
	DB	03eH
	DB	0dfH
	DB	03dH
	DB	0dfH
	DB	03eH
	DB	0dfH
	DB	03eH
	DB	0dfH
	DB	03eH
	DB	0dfH
	DB	03eH
	DB	0dfH
	DB	03eH
	DB	0dfH
	DB	03dH
	DB	0dfH
	DB	03eH
	DB	0dfH
	DB	03dH
	DB	0dfH
	DB	03dH
	DB	0dfH
	DB	03eH
	DB	0dfH
	DB	03eH
	DB	0dfH
	DB	03dH
	DB	0dfH
	DB	03eH
	DB	0dfH
	DB	03eH
	DB	0dfH
	DB	03dH
	DB	0dfH
	DB	03dH
	DB	0dfH
	DB	03eH
	DB	0dfH
	DB	03eH
	DB	0dfH
	DB	03dH
	DB	0dfH
	DB	03eH
	DB	0dfH
	DB	01eH
	DB	0d7H
	DB	03eH
	DB	0dfH
	DB	03dH
	DB	0d7H
	DB	03dH
	DB	0dfH
	DB	03eH
	DB	0dfH
	DB	03dH
	DB	0dfH
	DB	03eH
	DB	0dfH
	DB	01eH
	DB	0d7H
	DB	03dH
	DB	0dfH
	DB	01dH
	DB	0dfH
	DB	01dH
	DB	0dfH
	DB	03dH
	DB	0dfH
	DB	01eH
	DB	0dfH
	DB	03dH
	DB	0d7H
	DB	03dH
	DB	0d7H
	DB	01eH
	DB	0dfH
	DB	01dH
	DB	0dfH
	DB	03eH
	DB	0d7H
	DB	01dH
	DB	0d7H
	DB	01dH
	DB	0dfH
	DB	01dH
	DB	0d7H
	DB	01dH
	DB	0dfH
	DB	01eH
	DB	0d7H
	DB	01dH
	DB	0d7H
	DB	01eH
	DB	0d7H
	DB	01dH
	DB	0d7H
	DB	01dH
	DB	0d7H
	DB	0fdH
	DB	0d6H
	DB	01dH
	DB	0d7H
	DB	0fdH
	DB	0d6H
	DB	0fdH
	DB	0d6H
	DB	0fdH
	DB	0d6H
	DB	0fdH
	DB	0d6H
	DB	0fdH
	DB	0ceH
	DB	0fdH
	DB	0d6H
	DB	0fdH
	DB	0ceH
	DB	0fdH
	DB	0ceH
	DB	0fdH
	DB	0ceH
	DB	0fdH
	DB	0ceH
	DB	0fdH
	DB	0ceH
	DB	0dcH
	DB	0ceH
	DB	0ddH
	DB	0ceH
	DB	0ddH
	DB	0ceH
	DB	0dcH
	DB	0ceH
	DB	0ddH
	DB	0c6H
	DB	0ddH
	DB	0ceH
	DB	0ddH
	DB	0ceH
	DB	0dcH
	DB	0ceH
	DB	0bcH
	DB	0c6H
	DB	0ddH
	DB	0ceH
	DB	0bcH
	DB	0c6H
	DB	0bcH
	DB	0c6H
	DB	0bdH
	DB	0c6H
	DB	0bcH
	DB	0c6H
	DB	0bcH
	DB	0c6H
	DB	0bcH
	DB	0c6H
	DB	0bcH
	DB	0c6H
	DB	09dH
	DB	0c6H
	DB	09cH
	DB	0c6H
	DB	0bcH
	DB	0c6H
	DB	09cH
	DB	0beH
	DB	09cH
	DB	0beH
	DB	09cH
	DB	0c6H
	DB	09cH
	DB	0beH
	DB	09cH
	DB	0c6H
	DB	09cH
	DB	0beH
	DB	09cH
	DB	0beH
	DB	09cH
	DB	0beH
	DB	07cH
	DB	0beH
	DB	09cH
	DB	0beH
	DB	09bH
	DB	0b6H
	DB	07cH
	DB	0beH
	DB	07cH
	DB	0beH
	DB	07cH
	DB	0beH
	DB	07bH
	DB	0b6H
	DB	07cH
	DB	0b6H
	DB	07cH
	DB	0beH
	DB	07cH
	DB	0b6H
	DB	07bH
	DB	0beH
	DB	05bH
	DB	0b6H
	DB	07cH
	DB	0b6H
	DB	07bH
	DB	0b6H
	DB	05bH
	DB	0b6H
	DB	05cH
	DB	0b6H
	DB	05bH
	DB	0b6H
	DB	05bH
	DB	0b6H
	DB	05cH
	DB	0b6H
	DB	05bH
	DB	0b6H
	DB	05bH
	DB	0b6H
	DB	05cH
	DB	0aeH
	DB	05bH
	DB	0b6H
	DB	03bH
	DB	0b6H
	DB	03bH
	DB	0aeH
	DB	05bH
	DB	0b6H
	DB	03bH
	DB	0aeH
	DB	05bH
	DB	0b6H
	DB	03bH
	DB	0aeH
	DB	03bH
	DB	0aeH
	DB	03bH
	DB	0aeH
	DB	03bH
	DB	0aeH
	DB	03bH
	DB	0aeH
	DB	03bH
	DB	0aeH
	DB	03bH
	DB	0aeH
	DB	03aH
	DB	0aeH
	DB	03bH
	DB	0a6H
	DB	03bH
	DB	0aeH
	DB	01aH
	DB	0aeH
	DB	03bH
	DB	0aeH
	DB	03bH
	DB	0a6H
	DB	01bH
	DB	0aeH
	DB	03bH
	DB	0aeH
	DB	03bH
	DB	0aeH
	DB	01bH
	DB	0aeH
	DB	01bH
	DB	0aeH
	DB	03bH
	DB	0aeH
	DB	03bH
	DB	0aeH
	DB	01bH
	DB	0aeH
	DB	03bH
	DB	0aeH
	DB	03bH
	DB	0aeH
	DB	01bH
	DB	0aeH
	DB	03bH
	DB	0aeH
	DB	01aH
	DB	0aeH
	DB	01bH
	DB	0aeH
	DB	03bH
	DB	0a6H
	DB	01bH
	DB	0aeH
	DB	01bH
	DB	0aeH
	DB	03bH
	DB	0aeH
	DB	01bH
	DB	0aeH
	DB	03bH
	DB	0aeH
	DB	01bH
	DB	0aeH
	DB	01bH
	DB	0aeH
	DB	03bH
	DB	0aeH
	DB	01bH
	DB	0aeH
	DB	01bH
	DB	0aeH
	DB	03bH
	DB	0aeH
	DB	03bH
	DB	0aeH
	DB	01aH
	DB	0aeH
	DB	03bH
	DB	0aeH
	DB	03bH
	DB	0a6H
	DB	01bH
	DB	0aeH
	DB	01bH
	DB	0aeH
	DB	03bH
	DB	0aeH
	DB	01bH
	DB	0aeH
	DB	03bH
	DB	0aeH
	DB	03bH
	DB	0aeH
	DB	01bH
	DB	0aeH
	DB	03bH
	DB	0aeH
	DB	03bH
	DB	0aeH
	DB	01bH
	DB	0aeH
	DB	03bH
	DB	0aeH
	DB	01bH
	DB	0aeH
	DB	03aH
	DB	0aeH
	DB	03bH
	DB	0aeH
	DB	01bH
	DB	0a6H
	DB	01bH
	DB	0aeH
	DB	03bH
	DB	0aeH
	DB	01bH
	DB	0aeH
	DB	03bH
	DB	0aeH
	DB	01bH
	DB	0aeH
	DB	01bH
	DB	0aeH
	DB	03bH
	DB	0aeH
	DB	03bH
	DB	0aeH
	DB	01bH
	DB	0aeH
	DB	01bH
	DB	0aeH
	DB	03bH
	DB	0aeH
	DB	01bH
	DB	0aeH
	DB	03aH
	DB	0aeH
	DB	03bH
	DB	0aeH
	DB	01bH
	DB	0a6H
	DB	03bH
	DB	0aeH
	DB	01bH
	DB	0aeH
	DB	01bH
	DB	0aeH
	DB	03bH
	DB	0aeH
	DB	03bH
	DB	0aeH
	DB	01bH
	DB	0aeH
	DB	03bH
	DB	0aeH
	DB	03bH
	DB	0aeH
	DB	01bH
	DB	0aeH
	DB	01aH
	DB	0aeH
	DB	03bH
	DB	0aeH
	DB	01bH
	DB	0aeH
	DB	01bH
	DB	0aeH
	DB	03bH
	DB	0aeH
	DB	03bH
	DB	0aeH
	DB	01bH
	DB	0aeH
	DB	01bH
	DB	0aeH
	DB	03bH
	DB	0aeH
	DB	03aH
	DB	0a6H
	DB	01bH
	DB	0aeH
	DB	01bH
	DB	0aeH
	DB	03bH
	DB	0a6H
	DB	03bH
	DB	0aeH
	DB	01bH
	DB	0aeH
	DB	03aH
	DB	0aeH
	DB	03bH
	DB	0aeH
	DB	01bH
	DB	0aeH
	DB	01aH
	DB	0aeH
	DB	03bH
	DB	0aeH
	DB	01bH
	DB	0aeH
	DB	03aH
	DB	0aeH
	DB	03bH
	DB	0aeH
	DB	01bH
	DB	0aeH
	DB	03bH
	DB	0aeH
	DB	01bH
	DB	0aeH
	DB	03bH
	DB	0aeH
	DB	01bH
	DB	0a6H
	DB	01bH
	DB	0aeH
	DB	03aH
	DB	0aeH
	DB	01bH
	DB	0a6H
	DB	01bH
	DB	0aeH
	DB	03bH
	DB	0aeH
	DB	01bH
	DB	0aeH
	DB	01bH
	DB	0aeH
	DB	03aH
	DB	0aeH
	DB	01bH
	DB	0a6H
	DB	01bH
	DB	0aeH
	DB	03aH
	DB	0aeH
	DB	01bH
	DB	0aeH
	DB	01bH
	DB	0aeH
	DB	03bH
	DB	0aeH
	DB	03bH
	DB	0a6H
	DB	01bH
	DB	0aeH
	DB	01aH
	DB	0aeH
	DB	03bH
	DB	0a6H
	DB	01bH
	DB	0aeH
	DB	03bH
	DB	0aeH
	DB	01bH
	DB	0aeH
	DB	03bH
	DB	0aeH
	DB	03aH
	DB	0aeH
	DB	01bH
	DB	0a6H
	DB	01bH
	DB	0aeH
	DB	03aH
	DB	0aeH
	DB	01bH
	DB	0aeH
	DB	03bH
	DB	0aeH
	DB	03bH
	DB	0aeH
	DB	01bH
	DB	0a6H
	DB	03bH
	DB	0aeH
	DB	01aH
	DB	0aeH
	DB	03bH
	DB	0a6H
	DB	01bH
	DB	0aeH
	DB	03bH
	DB	0aeH
	DB	01bH
	DB	0aeH
	DB	03bH
	DB	0aeH
	DB	03aH
	DB	0aeH
	DB	01bH
	DB	0a6H
	DB	03bH
	DB	0aeH
	DB	03aH
	DB	0aeH
	DB	01bH
	DB	0aeH
	DB	01bH
	DB	0aeH
	DB	03bH
	DB	0aeH
	DB	01bH
	DB	0a6H
	DB	03bH
	DB	0aeH
	DB	01aH
	DB	0aeH
	DB	03bH
	DB	0a6H
	DB	01bH
	DB	0aeH
	DB	03bH
	DB	0aeH
	DB	03bH
	DB	0aeH
	DB	01bH
	DB	0aeH
	DB	01aH
	DB	0aeH
	DB	03bH
	DB	0a6H
	DB	03bH
	DB	0aeH
	DB	03aH
	DB	0aeH
	DB	01bH
	DB	0aeH
	DB	03bH
	DB	0aeH
	DB	03bH
	DB	0aeH
	DB	03bH
	DB	0a6H
	DB	01bH
	DB	0aeH
	DB	03bH
	DB	0aeH
	DB	03bH
	DB	0aeH
	DB	03bH
	DB	0aeH
	DB	03bH
	DB	0aeH
	DB	03bH
	DB	0aeH
	DB	03bH
	DB	0aeH
	DB	03bH
	DB	0aeH
	DB	03bH
	DB	0b6H
	DB	03bH
	DB	0aeH
	DB	05bH
	DB	0aeH
	DB	05bH
	DB	0b6H
	DB	03bH
	DB	0aeH
	DB	05bH
	DB	0b6H
	DB	05cH
	DB	0b6H
	DB	05bH
	DB	0b6H
	DB	03bH
	DB	0b6H
	DB	05cH
	DB	0b6H
	DB	05cH
	DB	0b6H
	DB	05bH
	DB	0b6H
	DB	05bH
	DB	0b6H
	DB	05cH
	DB	0b6H
	DB	07bH
	DB	0b6H
	DB	07bH
	DB	0b6H
	DB	05cH
	DB	0b6H
	DB	07bH
	DB	0beH
	DB	07cH
	DB	0b6H
	DB	07cH
	DB	0beH
	DB	07bH
	DB	0beH
	DB	07cH
	DB	0beH
	DB	07cH
	DB	0beH
	DB	07cH
	DB	0b6H
	DB	07bH
	DB	0beH
	DB	09cH
	DB	0beH
	DB	09cH
	DB	0beH
	DB	07cH
	DB	0beH
	DB	09cH
	DB	0beH
	DB	09cH
	DB	0beH
	DB	09cH
	DB	0beH
	DB	09cH
	DB	0beH
	DB	09cH
	DB	0c6H
	DB	09cH
	DB	0c6H
	DB	09cH
	DB	0beH
	DB	0bcH
	DB	0c6H
	DB	09cH
	DB	0c6H
	DB	0bcH
	DB	0c6H
	DB	0bcH
	DB	0c6H
	DB	0bcH
	DB	0c6H
	DB	0bcH
	DB	0c6H
	DB	0bdH
	DB	0c6H
	DB	0bcH
	DB	0c6H
	DB	0bcH
	DB	0c6H
	DB	0bcH
	DB	0c6H
	DB	0ddH
	DB	0c6H
	DB	0bcH
	DB	0ceH
	DB	0dcH
	DB	0c6H
	DB	0ddH
	DB	0ceH
	DB	0ddH
	DB	0ceH
	DB	0dcH
	DB	0ceH
	DB	0ddH
	DB	0c6H
	DB	0ddH
	DB	0ceH
	DB	0ddH
	DB	0ceH
	DB	0ddH
	DB	0ceH
	DB	0ddH
	DB	0ceH
	DB	0fdH
	DB	0ceH
	DB	0ddH
	DB	0ceH
	DB	0fdH
	DB	0ceH
	DB	0fcH
	DB	0ceH
	DB	0fdH
	DB	0d6H
	DB	0fdH
	DB	0d6H
	DB	0fdH
	DB	0d6H
	DB	0fdH
	DB	0ceH
	DB	0fdH
	DB	0d6H
	DB	01dH
	DB	0d7H
	DB	01dH
	DB	0d7H
	DB	0fdH
	DB	0d6H
	DB	01dH
	DB	0d7H
	DB	01dH
	DB	0d7H
	DB	01dH
	DB	0d7H
	DB	01dH
	DB	0d7H
	DB	01eH
	DB	0d7H
	DB	01dH
	DB	0d7H
	DB	01dH
	DB	0d7H
	DB	01eH
	DB	0dfH
	DB	01dH
	DB	0d7H
	DB	01eH
	DB	0dfH
	DB	01dH
	DB	0dfH
	DB	03dH
	DB	0d7H
	DB	03eH
	DB	0dfH
	DB	01eH
	DB	0dfH
	DB	03dH
	DB	0dfH
	DB	01eH
	DB	0d7H
	DB	01dH
	DB	0dfH
	DB	03eH
	DB	0dfH
	DB	03dH
	DB	0d7H
	DB	01eH
	DB	0dfH
	DB	03dH
	DB	0dfH
	DB	03eH
	DB	0dfH
	DB	03dH
	DB	0dfH
	DB	03eH
	DB	0d7H
	DB	01eH
	DB	0dfH
	DB	03eH
	DB	0d7H
	DB	03eH
	DB	0dfH
	DB	03dH
	DB	0dfH
	DB	03dH
	DB	0dfH
	DB	03eH
	DB	0dfH
	DB	03dH
	DB	0dfH
	DB	03dH
	DB	0dfH
	DB	03eH
	DB	0d7H
	DB	03eH
	DB	0dfH
	DB	03dH
	DB	0dfH
	DB	03eH
	DB	0dfH
	DB	03eH
	DB	0dfH
	DB	03dH
	DB	0dfH
	DB	03eH
	DB	0dfH
	DB	03dH
	DB	0dfH
	DB	03eH
	DB	0dfH
	DB	03eH
	DB	0dfH
	DB	03eH
	DB	0dfH
	DB	03eH
	DB	0dfH
	DB	03dH
	DB	0dfH
	DB	03eH
	DB	0dfH
	DB	03eH
	DB	0dfH
	DB	03dH
	DB	0dfH
	DB	05dH
	DB	0dfH
	DB	03eH
	DB	0dfH
	DB	03eH
	DB	0dfH
	DB	05eH
	DB	0dfH
	DB	03eH
	DB	0dfH
	DB	03eH
	DB	0dfH
	DB	05eH
	DB	0dfH
	DB	05eH
	DB	0dfH
	DB	05eH
	DB	0e7H
	DB	05dH
	DB	0dfH
	DB	05eH
	DB	0dfH
	DB	03eH
	DB	0e7H
	DB	05dH
	DB	0dfH
	DB	03eH
	DB	0dfH
	DB	03eH
	DB	0e7H
	DB	05dH
	DB	0e7H
	DB	05eH
	DB	0dfH
	DB	03eH
	DB	0e7H
	DB	05eH
	DB	0dfH
	DB	05eH
	DB	0dfH
	DB	03eH
	DB	0e7H
	DB	05eH
	DB	0dfH
	DB	05eH
	DB	0dfH
	DB	03eH
	DB	0dfH
	DB	03eH
	DB	0e7H
	DB	05eH
	DB	0dfH
	DB	03eH
	DB	0dfH
	DB	05eH
	DB	0dfH
	DB	05eH
	DB	0dfH
	DB	03eH
	DB	0e7H
	DB	05eH
	DB	0dfH
	DB	05eH
	DB	0dfH
	DB	05eH
	DB	0e7H
	DB	03eH
	DB	0dfH
	DB	05eH
	DB	0dfH
	DB	05eH
	DB	0e7H
	DB	03eH
	DB	0e7H
	DB	05eH
	DB	0dfH
	DB	05eH
	DB	0dfH
	DB	03eH
	DB	0e7H
	DB	05eH
	DB	0dfH
	DB	03eH
	DB	0e7H
	DB	05eH
	DB	0dfH
	DB	05eH
	DB	0dfH
	DB	03eH
	DB	0e7H
	DB	05eH
	DB	0dfH
	DB	05eH
	DB	0dfH
	DB	03eH
	DB	0dfH
	DB	05eH
	DB	0e7H
	DB	05eH
	DB	0dfH
	DB	03eH
	DB	0e7H
	DB	05eH
	DB	0dfH
	DB	03eH
	DB	0dfH
	DB	03dH
	DB	0e7H
	DB	05eH
	DB	0e7H
	DB	03eH
	DB	0dfH
	DB	03dH
	DB	0dfH
	DB	03eH
	DB	0e7H
	DB	03eH
	DB	0dfH
	DB	05dH
	DB	0dfH
	DB	05eH
	DB	0e7H
	DB	05eH
	DB	0dfH
	DB	05dH
	DB	0dfH
	DB	03eH
	DB	0e7H
	DB	05eH
	DB	0dfH
	DB	03eH
	DB	0dfH
	DB	03eH
	DB	0dfH
	DB	03eH
	DB	0dfH
	DB	05eH
	DB	0dfH
	DB	05dH
	DB	0dfH
	DB	03eH
	DB	0dfH
	DB	03eH
	DB	0dfH
	DB	05dH
	DB	0dfH
	DB	03eH
	DB	0dfH
	DB	03eH
	DB	0dfH
	DB	03eH
	DB	0dfH
	DB	03eH
	DB	0dfH
	DB	03eH
	DB	0dfH
	DB	03eH
	DB	0dfH
	DB	03dH
	DB	0dfH
	DB	03eH
	DB	0dfH
	DB	03eH
	DB	0dfH
	DB	03eH
	DB	0dfH
	DB	03eH
	DB	0dfH
	DB	03dH
	DB	0dfH
	DB	03eH
	DB	0dfH
	DB	03dH
	DB	0d7H
	DB	03dH
	DB	0dfH
	DB	03eH
	DB	0dfH
	DB	03dH
	DB	0dfH
	DB	03eH
	DB	0dfH
	DB	01eH
	DB	0dfH
	DB	03eH
	DB	0dfH
	DB	01eH
	DB	0dfH
	DB	01dH
	DB	0d7H
	DB	03dH
	DB	0dfH
	DB	03eH
	DB	0dfH
	DB	03eH
	DB	0dfH
	DB	03eH
	DB	0d7H
	DB	01eH
	DB	0d7H
	DB	03eH
	DB	0d7H
	DB	01dH
	DB	0dfH
	DB	01eH
	DB	0dfH
	DB	03eH
	DB	0dfH
	DB	01dH
	DB	0dfH
	DB	03eH
	DB	0d7H
	DB	03eH
	DB	0dfH
	DB	01dH
	DB	0dfH
	DB	01eH
	DB	0d7H
	DB	01eH
	DB	0dfH
	DB	01dH
	DB	0d7H
	DB	01dH
	DB	0d7H
	DB	01eH
	DB	0dfH
	DB	01dH
	DB	0d7H
	DB	01eH
	DB	0d7H
	DB	01dH
	DB	0d7H
	DB	01dH
	DB	0d7H
	DB	01eH
	DB	0d7H
	DB	01dH
	DB	0d7H
	DB	0fdH
	DB	0d6H
	DB	01dH
	DB	0d7H
	DB	01dH
	DB	0cfH
	DB	0fdH
	DB	0d6H
	DB	0fdH
	DB	0d6H
	DB	0fdH
	DB	0d6H
	DB	0fdH
	DB	0ceH
	DB	0fdH
	DB	0d6H
	DB	0fdH
	DB	0d6H
	DB	0fdH
	DB	0ceH
	DB	0ddH
	DB	0ceH
	DB	0fdH
	DB	0ceH
	DB	0fdH
	DB	0ceH
	DB	0ddH
	DB	0ceH
	DB	0ddH
	DB	0ceH
	DB	0dcH
	DB	0ceH
	DB	0ddH
	DB	0ceH
	DB	0ddH
	DB	0ceH
	DB	0ddH
	DB	0c6H
	DB	0dcH
	DB	0ceH
	DB	0ddH
	DB	0ceH
	DB	0bcH
	DB	0c6H
	DB	0ddH
	DB	0ceH
	DB	0bcH
	DB	0c6H
	DB	0bcH
	DB	0c6H
	DB	0bdH
	DB	0c6H
	DB	0bdH
	DB	0c6H
	DB	0bcH
	DB	0c6H
	DB	0bcH
	DB	0c6H
	DB	0bcH
	DB	0c6H
	DB	09cH
	DB	0c6H
	DB	0bcH
	DB	0c6H
	DB	0bcH
	DB	0c6H
	DB	09cH
	DB	0beH
	DB	09cH
	DB	0c6H
	DB	09cH
	DB	0beH
	DB	09cH
	DB	0beH
	DB	09cH
	DB	0beH
	DB	09bH
	DB	0beH
	DB	09cH
	DB	0beH
	DB	07cH
	DB	0beH
	DB	07cH
	DB	0beH
	DB	09bH
	DB	0beH
	DB	07cH
	DB	0beH
	DB	07cH
	DB	0beH
	DB	07cH
	DB	0beH
	DB	07bH
	DB	0beH
	DB	07cH
	DB	0b6H
	DB	05cH
	DB	0beH
	DB	07cH
	DB	0b6H
	DB	07bH
	DB	0b6H
	DB	05cH
	DB	0b6H
	DB	07cH
	DB	0b6H
	DB	07bH
	DB	0b6H
	DB	05cH
	DB	0b6H
	DB	05bH
	DB	0b6H
	DB	05bH
	DB	0b6H
	DB	05cH
	DB	0b6H
	DB	05cH
	DB	0b6H
	DB	03bH
	DB	0b6H
	DB	05bH
	DB	0b6H
	DB	05bH
	DB	0aeH
	DB	05cH
	DB	0b6H
	DB	03bH
	DB	0aeH
	DB	05bH
	DB	0aeH
	DB	05bH
	DB	0b6H
	DB	03bH
	DB	0aeH
	DB	03bH
	DB	0b6H
	DB	03bH
	DB	0aeH
	DB	03bH
	DB	0aeH
	DB	03bH
	DB	0aeH
	DB	03bH
	DB	0aeH
	DB	03bH
	DB	0aeH
	DB	03bH
	DB	0aeH
	DB	01bH
	DB	0aeH
	DB	03bH
	DB	0aeH
	DB	03bH
	DB	0aeH
	DB	03bH
	DB	0aeH
	DB	01bH
	DB	0aeH
	DB	03bH
	DB	0aeH
	DB	01aH
	DB	0aeH
	DB	01bH
	DB	0aeH
	DB	03bH
	DB	0a6H
	DB	01bH
	DB	0aeH
	DB	03bH
	DB	0aeH
	DB	01bH
	DB	0aeH
	DB	01aH
	DB	0aeH
	DB	03bH
	DB	0aeH
	DB	01bH
	DB	0a6H
	DB	01aH
	DB	0aeH
	DB	03bH
	DB	0aeH
	DB	03bH
	DB	0a6H
	DB	01bH
	DB	0aeH
	DB	03bH
	DB	0aeH
	DB	03bH
	DB	0aeH
	DB	01aH
	DB	0aeH
	DB	03bH
	DB	0aeH
	DB	01bH
	DB	0a6H
	DB	03bH
	DB	0aeH
	DB	03bH
	DB	0aeH
	DB	01bH
	DB	0aeH
	DB	03aH
	DB	0aeH
	DB	03bH
	DB	0aeH
	DB	01bH
	DB	0a6H
	DB	01aH
	DB	0aeH
	DB	03bH
	DB	0aeH
	DB	01bH
	DB	0a6H
	DB	01bH
	DB	0aeH
	DB	03bH
	DB	0aeH
	DB	01bH
	DB	0aeH
	DB	03aH
	DB	0aeH
	DB	03bH
	DB	0aeH
	DB	01bH
	DB	0a6H
	DB	01bH
	DB	0aeH
	DB	03bH
	DB	0aeH
	DB	01bH
	DB	0aeH
	DB	03aH
	DB	0aeH
	DB	01bH
	DB	0aeH
	DB	01bH
	DB	0a6H
	DB	03aH
	DB	0aeH
	DB	01bH
	DB	0aeH
	DB	01bH
	DB	0a6H
	DB	03bH
	DB	0aeH
	DB	01bH
	DB	0aeH
	DB	03bH
	DB	0aeH
	DB	03aH
	DB	0aeH
	DB	01bH
	DB	0aeH
	DB	03bH
	DB	0a6H
	DB	01bH
	DB	0aeH
	DB	03bH
	DB	0aeH
	DB	01bH
	DB	0aeH
	DB	03aH
	DB	0aeH
	DB	01bH
	DB	0aeH
	DB	03bH
	DB	0a6H
	DB	03aH
	DB	0aeH
	DB	01bH
	DB	0aeH
	DB	01bH
	DB	0a6H
	DB	03bH
	DB	0aeH
	DB	01bH
	DB	0aeH
	DB	03bH
	DB	0aeH
	DB	03aH
	DB	0aeH
	DB	01bH
	DB	0aeH
	DB	01bH
	DB	0a6H
	DB	03bH
	DB	0aeH
	DB	01bH
	DB	0aeH
	DB	01bH
	DB	0aeH
	DB	03aH
	DB	0aeH
	DB	03bH
	DB	0aeH
	DB	01bH
	DB	0a6H
	DB	03bH
	DB	0aeH
	DB	03bH
	DB	0aeH
	DB	01bH
	DB	0a6H
	DB	01aH
	DB	0aeH
	DB	03bH
	DB	0aeH
	DB	01bH
	DB	0aeH
	DB	03bH
	DB	0aeH
	DB	01bH
	DB	0aeH
	DB	03bH
	DB	0aeH
	DB	01bH
	DB	0aeH
	DB	03bH
	DB	0aeH
	DB	01bH
	DB	0aeH
	DB	01aH
	DB	0aeH
	DB	03bH
	DB	0aeH
	DB	01bH
	DB	0aeH
	DB	01bH
	DB	0a6H
	DB	03bH
	DB	0aeH
	DB	03bH
	DB	0aeH
	DB	01bH
	DB	0aeH
	DB	03bH
	DB	0aeH
	DB	01bH
	DB	0aeH
	DB	01bH
	DB	0aeH
	DB	03bH
	DB	0aeH
	DB	03bH
	DB	0a6H
	DB	01aH
	DB	0aeH
	DB	03bH
	DB	0aeH
	DB	03bH
	DB	0aeH
	DB	01bH
	DB	0aeH
	DB	03bH
	DB	0aeH
	DB	03bH
	DB	0aeH
	DB	01bH
	DB	0aeH
	DB	03aH
	DB	0aeH
	DB	03bH
	DB	0aeH
	DB	01bH
	DB	0aeH
	DB	03bH
	DB	0aeH
	DB	01bH
	DB	0aeH
	DB	03bH
	DB	0aeH
	DB	03bH
	DB	0aeH
	DB	01bH
	DB	0a6H
	DB	03bH
	DB	0aeH
	DB	01bH
	DB	0aeH
	DB	01bH
	DB	0aeH
	DB	03bH
	DB	0aeH
	DB	03bH
	DB	0aeH
	DB	01bH
	DB	0aeH
	DB	03bH
	DB	0aeH
	DB	01aH
	DB	0aeH
	DB	01bH
	DB	0aeH
	DB	03bH
	DB	0aeH
	DB	01bH
	DB	0aeH
	DB	03bH
	DB	0aeH
	DB	01bH
	DB	0aeH
	DB	03bH
	DB	0aeH
	DB	01bH
	DB	0a6H
	DB	01bH
	DB	0aeH
	DB	03bH
	DB	0aeH
	DB	01bH
	DB	0aeH
	DB	03bH
	DB	0aeH
	DB	01bH
	DB	0aeH
	DB	03bH
	DB	0aeH
	DB	03bH
	DB	0aeH
	DB	01aH
	DB	0aeH
	DB	01bH
	DB	0aeH
	DB	03bH
	DB	0aeH
	DB	01bH
	DB	0aeH
	DB	03bH
	DB	0aeH
	DB	01bH
	DB	0aeH
	DB	01bH
	DB	0aeH
	DB	03bH
	DB	0a6H
	DB	01bH
	DB	0aeH
	DB	03bH
	DB	0aeH
	DB	01bH
	DB	0aeH
	DB	01bH
	DB	0aeH
	DB	03bH
	DB	0aeH
	DB	03bH
	DB	0aeH
	DB	01bH
	DB	0aeH
	DB	01aH
	DB	0aeH
	DB	01bH
	DB	0aeH
	DB	03bH
	DB	0aeH
	DB	03bH
	DB	0aeH
	DB	01bH
	DB	0aeH
	DB	01bH
	DB	0aeH
	DB	03bH
	DB	0aeH
	DB	01bH
	DB	0a6H
	DB	01bH
	DB	0aeH
	DB	03bH
	DB	0aeH
	DB	03bH
	DB	0aeH
	DB	03bH
	DB	0aeH
	DB	03aH
	DB	0aeH
	DB	01bH
	DB	0aeH
	DB	03bH
	DB	0aeH
	DB	03bH
	DB	0aeH
	DB	03bH
	DB	0aeH
	DB	03bH
	DB	0aeH
	DB	03bH
	DB	0aeH
	DB	03bH
	DB	0b6H
	DB	03bH
	DB	0b6H
	DB	05bH
	DB	0aeH
	DB	03bH
	DB	0b6H
	DB	03bH
	DB	0aeH
	DB	05bH
	DB	0b6H
	DB	05bH
	DB	0aeH
	DB	05bH
	DB	0b6H
	DB	05cH
	DB	0b6H
	DB	05bH
	DB	0b6H
	DB	05bH
	DB	0aeH
	DB	05cH
	DB	0b6H
	DB	05bH
	DB	0b6H
	DB	05bH
	DB	0b6H
	DB	05cH
	DB	0b6H
	DB	07cH
	DB	0b6H
	DB	05bH
	DB	0b6H
	DB	07cH
	DB	0b6H
	DB	07cH
	DB	0b6H
	DB	05bH
	DB	0beH
	DB	07cH
	DB	0b6H
	DB	07bH
	DB	0beH
	DB	07cH
	DB	0b6H
	DB	07cH
	DB	0beH
	DB	07bH
	DB	0beH
	DB	09cH
	DB	0beH
	DB	09cH
	DB	0beH
	DB	07cH
	DB	0beH
	DB	09cH
	DB	0beH
	DB	09cH
	DB	0beH
	DB	09cH
	DB	0beH
	DB	09cH
	DB	0beH
	DB	09cH
	DB	0beH
	DB	09cH
	DB	0c6H
	DB	09cH
	DB	0beH
	DB	0bcH
	DB	0c6H
	DB	09cH
	DB	0c6H
	DB	09cH
	DB	0beH
	DB	0bcH
	DB	0c6H
	DB	0bdH
	DB	0c6H
	DB	0bcH
	DB	0c6H
	DB	0bcH
	DB	0c6H
	DB	0bdH
	DB	0c6H
	DB	0bcH
	DB	0c6H
	DB	0bcH
	DB	0c6H
	DB	0bdH
	DB	0ceH
	DB	0dcH
	DB	0ceH
	DB	0ddH
	DB	0c6H
	DB	0ddH
	DB	0ceH
	DB	0ddH
	DB	0c6H
	DB	0dcH
	DB	0ceH
	DB	0ddH
	DB	0ceH
	DB	0ddH
	DB	0ceH
	DB	0ddH
	DB	0ceH
	DB	0dcH
	DB	0ceH
	DB	0fdH
	DB	0ceH
	DB	0fdH
	DB	0ceH
	DB	0fdH
	DB	0ceH
	DB	0fdH
	DB	0ceH
	DB	0fdH
	DB	0d6H
	DB	0fdH
	DB	0d6H
	DB	0fdH
	DB	0ceH
	DB	0fdH
	DB	0ceH
	DB	0fdH
	DB	0d6H
	DB	0fdH
	DB	0d6H
	DB	0fdH
	DB	0d6H
	DB	01dH
	DB	0d7H
	DB	0fdH
	DB	0d6H
	DB	01dH
	DB	0d7H
	DB	01dH
	DB	0d7H
	DB	01dH
	DB	0d7H
	DB	01eH
	DB	0d7H
	DB	01eH
	DB	0d7H
	DB	01dH
	DB	0d7H
	DB	01dH
	DB	0dfH
	DB	01eH
	DB	0d7H
	DB	01dH
	DB	0dfH
	DB	01dH
	DB	0d7H
	DB	03eH
	DB	0dfH
	DB	03eH
	DB	0d7H
	DB	01dH
	DB	0d7H
	DB	01dH
	DB	0dfH
	DB	03eH
	DB	0dfH
	DB	01dH
	DB	0d7H
	DB	03eH
	DB	0dfH
	DB	01eH
	DB	0dfH
	DB	01dH
	DB	0d7H
	DB	03dH
	DB	0dfH
	DB	03eH
	DB	0dfH
	DB	03eH
	DB	0d7H
	DB	03dH
	DB	0dfH
	DB	01dH
	DB	0dfH
	DB	03eH
	DB	0dfH
	DB	03dH
	DB	0dfH
	DB	01eH
	DB	0dfH
	DB	03eH
	DB	0dfH
	DB	03dH
	DB	0dfH
	DB	03eH
	DB	0d7H
	DB	03eH
	DB	0dfH
	DB	03dH
	DB	0dfH
	DB	03eH
	DB	0dfH
	DB	03dH
	DB	0dfH
	DB	03eH
	DB	0dfH
	DB	03dH
	DB	0dfH
	DB	03eH
	DB	0dfH
	DB	03dH
	DB	0dfH
	DB	03eH
	DB	0dfH
	DB	03eH
	DB	0dfH
	DB	03eH
	DB	0dfH
	DB	03eH
	DB	0dfH
	DB	03dH
	DB	0dfH
	DB	03eH
	DB	0dfH
	DB	03eH
	DB	0dfH
	DB	03eH
	DB	0dfH
	DB	05dH
	DB	0dfH
	DB	03eH
	DB	0dfH
	DB	03eH
	DB	0dfH
	DB	05eH
	DB	0dfH
	DB	03dH
	DB	0dfH
	DB	05eH
	DB	0dfH
	DB	05dH
	DB	0e7H
	DB	05eH
	DB	0dfH
	DB	03dH
	DB	0dfH
	DB	05eH
	DB	0e7H
	DB	03eH
	DB	0dfH
	DB	03dH
	DB	0dfH
	DB	05eH
	DB	0e7H
	DB	03eH
	DB	0e7H
	DB	03eH
	DB	0dfH
	DB	05eH
	DB	0e7H
	DB	03eH
	DB	0dfH
	DB	03eH
	DB	0dfH
	DB	05eH
	DB	0dfH
	DB	03eH
	DB	0dfH
	DB	05eH
	DB	0e7H
	DB	03eH
	DB	0dfH
	DB	03eH
	DB	0dfH
	DB	05dH
	DB	0e7H
	DB	03eH
	DB	0dfH
	DB	05eH
	DB	0dfH
	DB	05eH
	DB	0e7H
	DB	03eH
	DB	0dfH
	DB	05eH
	DB	0e7H
	DB	05eH
	DB	0dfH
	DB	05dH
	DB	0dfH
	DB	05eH
	DB	0e7H
	DB	03eH
	DB	0dfH
	DB	05dH
	DB	0dfH
	DB	05eH
	DB	0e7H
	DB	05eH
	DB	0dfH
	DB	05eH
	DB	0e7H
	DB	05eH
	DB	0e7H
	DB	05dH
	DB	0dfH
	DB	05eH
	DB	0e7H
	DB	05eH
	DB	0dfH
	DB	05eH
	DB	0e7H
	DB	05eH
	DB	0dfH
	DB	05eH
	DB	0dfH
	DB	05eH
	DB	0e7H
	DB	05eH
	DB	0dfH
	DB	05eH
	DB	0dfH
	DB	05eH
	DB	0e7H
	DB	05eH
	DB	0dfH
	DB	03eH
	DB	0dfH
	DB	03eH
	DB	0e7H
	DB	05eH
	DB	0dfH
	DB	03dH
	DB	0dfH
	DB	05eH
	DB	0e7H
	DB	05eH
	DB	0dfH
	DB	03eH
	DB	0dfH
	DB	05eH
	DB	0e7H
	DB	05eH
	DB	0dfH
	DB	03eH
	DB	0dfH
	DB	05eH
	DB	0e7H
	DB	03eH
	DB	0dfH
	DB	03eH
	DB	0dfH
	DB	03dH
	DB	0e7H
	DB	03eH
	DB	0e7H
	DB	05eH
	DB	0dfH
	DB	03eH
	DB	0dfH
	DB	05eH
	DB	0e7H
	DB	03dH
	DB	0dfH
	DB	05eH
	DB	0dfH
	DB	05eH
	DB	0e7H
	DB	03dH
	DB	0dfH
	DB	05eH
	DB	0dfH
	DB	03eH
	DB	0e7H
	DB	03eH
	DB	0dfH
	DB	05dH
	DB	0dfH
	DB	03eH
	DB	0dfH
	DB	03eH
	DB	0dfH
	DB	03dH
	DB	0dfH
	DB	03eH
	DB	0dfH
	DB	03eH
	DB	0dfH
	DB	03eH
	DB	0dfH
	DB	03eH
	DB	0dfH
	DB	03eH
	DB	0dfH
	DB	03dH
	DB	0dfH
	DB	03dH
	DB	0dfH
	DB	03eH
	DB	0dfH
	DB	03dH
	DB	0dfH
	DB	03eH
	DB	0dfH
	DB	03eH
	DB	0dfH
	DB	03eH
	DB	0dfH
	DB	03eH
	DB	0dfH
	DB	03eH
	DB	0dfH
	DB	03dH
	DB	0dfH
	DB	03dH
	DB	0dfH
	DB	03eH
	DB	0dfH
	DB	03dH
	DB	0dfH
	DB	03eH
	DB	0dfH
	DB	03eH
	DB	0dfH
	DB	03eH
	DB	0d7H
	DB	01dH
	DB	0dfH
	DB	03dH
	DB	0dfH
	DB	03dH
	DB	0dfH
	DB	03eH
	DB	0dfH
	DB	03dH
	DB	0dfH
	DB	03eH
	DB	0d7H
	DB	01dH
	DB	0d7H
	DB	03dH
	DB	0dfH
	DB	01eH
	DB	0dfH
	DB	01dH
	DB	0d7H
	DB	03dH
	DB	0d7H
	DB	03eH
	DB	0dfH
	DB	03dH
	DB	0dfH
	DB	01dH
	DB	0d7H
	DB	01eH
	DB	0dfH
	DB	01eH
	DB	0dfH
	DB	01dH
	DB	0d7H
	DB	01dH
	DB	0d7H
	DB	01dH
	DB	0dfH
	DB	01eH
	DB	0d7H
	DB	01dH
	DB	0d7H
	DB	01dH
	DB	0d7H
	DB	01dH
	DB	0d7H
	DB	01dH
	DB	0d7H
	DB	0fdH
	DB	0d6H
	DB	01dH
	DB	0d7H
	DB	0fdH
	DB	0d6H
	DB	0fdH
	DB	0d6H
	DB	0fdH
	DB	0ceH
	DB	0fdH
	DB	0d6H
	DB	0fdH
	DB	0d6H
	DB	0fdH
	DB	0ceH
	DB	0ddH
	DB	0ceH
	DB	0fdH
	DB	0d6H
	DB	0fdH
	DB	0ceH
	DB	0ddH
	DB	0ceH
	DB	0fcH
	DB	0ceH
	DB	0ddH
	DB	0ceH
	DB	0ddH
	DB	0ceH
	DB	0dcH
	DB	0ceH
	DB	0ddH
	DB	0ceH
	DB	0ddH
	DB	0c6H
	DB	0ddH
	DB	0ceH
	DB	0ddH
	DB	0ceH
	DB	0dcH
	DB	0c6H
	DB	0bdH
	DB	0ceH
	DB	0ddH
	DB	0c6H
	DB	0bcH
	DB	0c6H
	DB	0bcH
	DB	0c6H
	DB	0bdH
	DB	0c6H
	DB	0bcH
	DB	0c6H
	DB	0bcH
	DB	0c6H
	DB	0bdH
	DB	0c6H
	DB	0bcH
	DB	0c6H
	DB	09cH
	DB	0c6H
	DB	0bcH
	DB	0c6H
	DB	09cH
	DB	0c6H
	DB	09cH
	DB	0beH
	DB	09cH
	DB	0c6H
	DB	09cH
	DB	0beH
	DB	09cH
	DB	0c6H
	DB	09cH
	DB	0beH
	DB	09cH
	DB	0beH
	DB	09cH
	DB	0beH
	DB	07cH
	DB	0beH
	DB	09cH
	DB	0beH
	DB	09cH
	DB	0beH
	DB	07cH
	DB	0beH
	DB	07cH
	DB	0beH
	DB	07bH
	DB	0b6H
	DB	07bH
	DB	0beH
	DB	07cH
	DB	0beH
	DB	07bH
	DB	0b6H
	DB	07cH
	DB	0beH
	DB	07bH
	DB	0beH
	DB	05cH
	DB	0b6H
	DB	05cH
	DB	0b6H
	DB	05bH
	DB	0b6H
	DB	05cH
	DB	0b6H
	DB	05bH
	DB	0b6H
	DB	05bH
	DB	0b6H
	DB	05cH
	DB	0b6H
	DB	05bH
	DB	0b6H
	DB	03bH
	DB	0aeH
	DB	05bH
	DB	0b6H
	DB	05cH
	DB	0b6H
	DB	03bH
	DB	0b6H
	DB	03bH
	DB	0aeH
	DB	05cH
	DB	0b6H
	DB	05bH
	DB	0aeH
	DB	03bH
	DB	0aeH
	DB	03bH
	DB	0b6H
	DB	05bH
	DB	0aeH
	DB	03bH
	DB	0b6H
	DB	03bH
	DB	0aeH
	DB	03bH
	DB	0aeH
	DB	03bH
	DB	0aeH
	DB	03bH
	DB	0aeH
	DB	01bH
	DB	0aeH
	DB	03bH
	DB	0aeH
	DB	03bH
	DB	0aeH
	DB	01bH
	DB	0aeH
	DB	01bH
	DB	0aeH
	DB	03bH
	DB	0aeH
	DB	03bH
	DB	0aeH
	DB	01aH
	DB	0aeH
	DB	03bH
	DB	0aeH
	DB	03bH
	DB	0a6H
	DB	01bH
	DB	0aeH
	DB	03bH
	DB	0aeH
	DB	03bH
	DB	0aeH
	DB	01bH
	DB	0aeH
	DB	01bH
	DB	0aeH
	DB	03bH
	DB	0aeH
	DB	01bH
	DB	0aeH
	DB	03bH
	DB	0aeH
	DB	01bH
	DB	0aeH
	DB	01bH
	DB	0aeH
	DB	03bH
	DB	0aeH
	DB	03bH
	DB	0aeH
	DB	01aH
	DB	0aeH
	DB	01bH
	DB	0aeH
	DB	03bH
	DB	0a6H
	DB	01bH
	DB	0aeH
	DB	01bH
	DB	0aeH
	DB	03bH
	DB	0aeH
	DB	03bH
	DB	0aeH
	DB	03bH
	DB	0aeH
	DB	01bH
	DB	0aeH
	DB	03bH
	DB	0aeH
	DB	03bH
	DB	0aeH
	DB	01bH
	DB	0aeH
	DB	01bH
	DB	0aeH
	DB	03bH
	DB	0aeH
	DB	03bH
	DB	0aeH
	DB	01aH
	DB	0aeH
	DB	03bH
	DB	0aeH
	DB	01bH
	DB	0a6H
	DB	03bH
	DB	0aeH
	DB	01bH
	DB	0aeH
	DB	03bH
	DB	0aeH
	DB	03bH
	DB	0aeH
	DB	01bH
	DB	0aeH
	DB	03bH
	DB	0aeH
	DB	03bH
	DB	0aeH
	DB	01bH
	DB	0aeH
	DB	01bH
	DB	0aeH
	DB	03bH
	DB	0aeH
	DB	01bH
	DB	0aeH
	DB	01bH
	DB	0aeH
	DB	03aH
	DB	0aeH
	DB	03bH
	DB	0aeH
	DB	01bH
	DB	0a6H
	DB	03bH
	DB	0aeH
	DB	01bH
	DB	0aeH
	DB	01bH
	DB	0aeH
	DB	03bH
	DB	0aeH
	DB	03bH
	DB	0aeH
	DB	01bH
	DB	0aeH
	DB	03bH
	DB	0aeH
	DB	01bH
	DB	0aeH
	DB	01bH
	DB	0aeH
	DB	03bH
	DB	0aeH
	DB	01bH
	DB	0aeH
	DB	03bH
	DB	0aeH
	DB	03aH
	DB	0aeH
	DB	01bH
	DB	0aeH
	DB	03bH
	DB	0a6H
	DB	01bH
	DB	0aeH
	DB	01bH
	DB	0aeH
	DB	03bH
	DB	0aeH
	DB	01bH
	DB	0aeH
	DB	03bH
	DB	0aeH
	DB	01bH
	DB	0aeH
	DB	03bH
	DB	0aeH
	DB	03bH
	DB	0aeH
	DB	01aH
	DB	0aeH
	DB	01bH
	DB	0a6H
	DB	03bH
	DB	0aeH
	DB	03bH
	DB	0aeH
	DB	01bH
	DB	0aeH
	DB	03bH
	DB	0aeH
	DB	03bH
	DB	0aeH
	DB	01bH
	DB	0aeH
	DB	03bH
	DB	0aeH
	DB	03bH
	DB	0aeH
	DB	01bH
	DB	0aeH
	DB	01bH
	DB	0aeH
	DB	03bH
	DB	0aeH
	DB	01bH
	DB	0a6H
	DB	03bH
	DB	0aeH
	DB	03aH
	DB	0aeH
	DB	01bH
	DB	0a6H
	DB	01bH
	DB	0aeH
	DB	03bH
	DB	0aeH
	DB	01bH
	DB	0aeH
	DB	01bH
	DB	0aeH
	DB	03bH
	DB	0aeH
	DB	01bH
	DB	0a6H
	DB	01aH
	DB	0aeH
	DB	03bH
	DB	0aeH
	DB	01bH
	DB	0aeH
	DB	01bH
	DB	0aeH
	DB	03bH
	DB	0a6H
	DB	01bH
	DB	0aeH
	DB	03bH
	DB	0aeH
	DB	01aH
	DB	0a6H
	DB	03bH
	DB	0aeH
	DB	01bH
	DB	0aeH
	DB	03bH
	DB	0aeH
	DB	01bH
	DB	0aeH
	DB	03aH
	DB	0aeH
	DB	03bH
	DB	0aeH
	DB	01bH
	DB	0a6H
	DB	03aH
	DB	0aeH
	DB	01bH
	DB	0aeH
	DB	03bH
	DB	0aeH
	DB	03bH
	DB	0aeH
	DB	01bH
	DB	0a6H
	DB	03bH
	DB	0aeH
	DB	03bH
	DB	0aeH
	DB	01aH
	DB	0a6H
	DB	01bH
	DB	0aeH
	DB	03bH
	DB	0aeH
	DB	03bH
	DB	0aeH
	DB	01bH
	DB	0aeH
	DB	03aH
	DB	0aeH
	DB	01bH
	DB	0aeH
	DB	03bH
	DB	0a6H
	DB	01aH
	DB	0aeH
	DB	01bH
	DB	0aeH
	DB	03bH
	DB	0aeH
	DB	01bH
	DB	0aeH
	DB	03bH
	DB	0a6H
	DB	03bH
	DB	0aeH
	DB	01bH
	DB	0aeH
	DB	01aH
	DB	0a6H
	DB	03bH
	DB	0aeH
	DB	03bH
	DB	0aeH
	DB	01bH
	DB	0aeH
	DB	03bH
	DB	0aeH
	DB	03aH
	DB	0aeH
	DB	01bH
	DB	0aeH
	DB	03bH
	DB	0a6H
	DB	03aH
	DB	0aeH
	DB	01bH
	DB	0aeH
	DB	01bH
	DB	0aeH
	DB	03bH
	DB	0aeH
	DB	03bH
	DB	0a6H
	DB	01bH
	DB	0aeH
	DB	01bH
	DB	0aeH
	DB	03aH
	DB	0a6H
	DB	03bH
	DB	0aeH
	DB	01bH
	DB	0aeH
	DB	01bH
	DB	0aeH
	DB	03bH
	DB	0aeH
	DB	01aH
	DB	0aeH
	DB	03bH
	DB	0aeH
	DB	03bH
	DB	0aeH
	DB	01bH
	DB	0aeH
	DB	03bH
	DB	0aeH
	DB	03bH
	DB	0aeH
	DB	03bH
	DB	0aeH
	DB	03bH
	DB	0aeH
	DB	03bH
	DB	0aeH
	DB	03bH
	DB	0aeH
	DB	03bH
	DB	0aeH
	DB	03bH
	DB	0b6H
	DB	05bH
	DB	0aeH
	DB	05bH
	DB	0b6H
	DB	05bH
	DB	0aeH
	DB	03cH
	DB	0b6H
	DB	05bH
	DB	0b6H
	DB	05bH
	DB	0b6H
	DB	03cH
	DB	0aeH
	DB	05bH
	DB	0b6H
	DB	05bH
	DB	0b6H
	DB	05bH
	DB	0b6H
	DB	05cH
	DB	0b6H
	DB	05bH
	DB	0b6H
	DB	05cH
	DB	0b6H
	DB	07cH
	DB	0b6H
	DB	05bH
	DB	0b6H
	DB	07cH
	DB	0beH
	DB	07cH
	DB	0b6H
	DB	07bH
	DB	0beH
	DB	07cH
	DB	0beH
	DB	07cH
	DB	0b6H
	DB	07cH
	DB	0beH
	DB	07cH
	DB	0beH
	DB	07cH
	DB	0beH
	DB	09cH
	DB	0beH
	DB	07cH
	DB	0beH
	DB	07cH
	DB	0beH
	DB	09cH
	DB	0beH
	DB	09cH
	DB	0beH
	DB	09cH
	DB	0beH
	DB	09cH
	DB	0c6H
	DB	09cH
	DB	0beH
	DB	09cH
	DB	0c6H
	DB	09cH
	DB	0beH
	DB	0bcH
	DB	0c6H
	DB	0bcH
	DB	0c6H
	DB	0bcH
	DB	0c6H
	DB	0bcH
	DB	0c6H
	DB	0bcH
	DB	0c6H
	DB	0bdH
	DB	0c6H
	DB	0bdH
	DB	0c6H
	DB	0bcH
	DB	0c6H
	DB	0bcH
	DB	0c6H
	DB	0bdH
	DB	0c6H
	DB	0ddH
	DB	0c6H
	DB	0bdH
	DB	0ceH
	DB	0dcH
	DB	0c6H
	DB	0ddH
	DB	0ceH
	DB	0bdH
	DB	0ceH
	DB	0dcH
	DB	0ceH
	DB	0ddH
	DB	0ceH
	DB	0ddH
	DB	0ceH
	DB	0dcH
	DB	0ceH
	DB	0fdH
	DB	0ceH
	DB	0ddH
	DB	0ceH
	DB	0ddH
	DB	0ceH
	DB	0fcH
	DB	0ceH
	DB	0fdH
	DB	0ceH
	DB	0fdH
	DB	0ceH
	DB	0fdH
	DB	0d6H
	DB	0fdH
	DB	0d6H
	DB	0fdH
	DB	0ceH
	DB	0fdH
	DB	0d6H
	DB	0fdH
	DB	0d6H
	DB	01dH
	DB	0d7H
	DB	01dH
	DB	0d7H
	DB	01dH
	DB	0d7H
	DB	01dH
	DB	0d7H
	DB	01dH
	DB	0d7H
	DB	01dH
	DB	0d7H
	DB	01eH
	DB	0d7H
	DB	01dH
	DB	0d7H
	DB	01dH
	DB	0d7H
	DB	01dH
	DB	0dfH
	DB	01eH
	DB	0d7H
	DB	01dH
	DB	0dfH
	DB	01dH
	DB	0d7H
	DB	01eH
	DB	0dfH
	DB	03dH
	DB	0d7H
	DB	03eH
	DB	0dfH
	DB	01eH
	DB	0dfH
	DB	03dH
	DB	0d7H
	DB	03dH
	DB	0d7H
	DB	01eH
	DB	0dfH
	DB	03dH
	DB	0dfH
	DB	03eH
	DB	0dfH
	DB	03dH
	DB	0d7H
	DB	03eH
	DB	0dfH
	DB	03dH
	DB	0dfH
	DB	01eH
	DB	0d7H
	DB	03eH
	DB	0dfH
	DB	03eH
	DB	0dfH
	DB	03eH
	DB	0dfH
	DB	03dH
	DB	0dfH
	DB	03dH
	DB	0dfH
	DB	03eH
	DB	0dfH
	DB	03eH
	DB	0dfH
	DB	03eH
	DB	0dfH
	DB	03dH
	DB	0dfH
	DB	03eH
	DB	0dfH
	DB	03eH
	DB	0dfH
	DB	03eH
	DB	0dfH
	DB	03dH
	DB	0dfH
	DB	03eH
	DB	0dfH
	DB	03eH
	DB	0dfH
	DB	03eH
	DB	0dfH
	DB	03eH
	DB	0dfH
	DB	03dH
	DB	0dfH
	DB	03eH
	DB	0dfH
	DB	03eH
	DB	0dfH
	DB	03dH
	DB	0dfH
	DB	03eH
	DB	0dfH
	DB	05eH
	DB	0dfH
	DB	03eH
	DB	0dfH
	DB	03eH
	DB	0dfH
	DB	03eH
	DB	0dfH
	DB	05eH
	DB	0dfH
	DB	05eH
	DB	0e7H
	DB	03eH
	DB	0dfH
	DB	03eH
	DB	0dfH
	DB	05eH
	DB	0e7H
	DB	03dH
	DB	0dfH
	DB	05eH
	DB	0e7H
	DB	03eH
	DB	0e7H
	DB	03eH
	DB	0dfH
	DB	05eH
	DB	0dfH
	DB	03eH
	DB	0e7H
	DB	05eH
	DB	0dfH
	DB	05eH
	DB	0dfH
	DB	03eH
	DB	0e7H
	DB	05eH
	DB	0dfH
	DB	05eH
	DB	0dfH
	DB	03eH
	DB	0e7H
	DB	05eH
	DB	0dfH
	DB	05eH
	DB	0e7H
	DB	05eH
	DB	0dfH
	DB	05eH
	DB	0e7H
	DB	05eH
	DB	0e7H
	DB	05eH
	DB	0e7H
	DB	05eH
	DB	0e7H
	DB	05dH
	DB	0dfH
	DB	05eH
	DB	0e7H
	DB	05eH
	DB	0e7H
	DB	05eH
	DB	0e7H
	DB	03eH
	DB	0e7H
	DB	05eH
	DB	0e7H
	DB	05eH
	DB	0dfH
	DB	03eH
	DB	0e7H
	DB	05eH
	DB	0e7H
	DB	03eH
	DB	0dfH
	DB	05dH
	DB	0dfH
	DB	03eH
	DB	0e7H
	DB	05eH
	DB	0dfH
	DB	05eH
	DB	0dfH
	DB	03eH
	DB	0e7H
	DB	05dH
	DB	0e7H
	DB	05eH
	DB	0dfH
	DB	03eH
	DB	0e7H
	DB	05dH
	DB	0e7H
	DB	03eH
	DB	0e7H
	DB	05eH
	DB	0e7H
	DB	05dH
	DB	0dfH
	DB	05eH
	DB	0e7H
	DB	05eH
	DB	0e7H
	DB	05eH
	DB	0e7H
	DB	05eH
	DB	0dfH
	DB	05eH
	DB	0e7H
	DB	05eH
	DB	0e7H
	DB	05eH
	DB	0dfH
	DB	05eH
	DB	0dfH
	DB	05eH
	DB	0e7H
	DB	05eH
	DB	0dfH
	DB	03eH
	DB	0dfH
	DB	05eH
	DB	0e7H
	DB	05eH
	DB	0dfH
	DB	05eH
	DB	0dfH
	DB	05eH
	DB	0e7H
	DB	03eH
	DB	0dfH
	DB	03eH
	DB	0dfH
	DB	05eH
	DB	0e7H
	DB	03eH
	DB	0dfH
	DB	03dH
	DB	0e7H
	DB	05eH
	DB	0e7H
	DB	05eH
	DB	0dfH
	DB	03dH
	DB	0dfH
	DB	05eH
	DB	0e7H
	DB	03eH
	DB	0dfH
	DB	05dH
	DB	0dfH
	DB	05eH
	DB	0dfH
	DB	03eH
	DB	0e7H
	DB	03eH
	DB	0dfH
	DB	05eH
	DB	0dfH
	DB	05dH
	DB	0dfH
	DB	03eH
	DB	0dfH
	DB	03dH
	DB	0dfH
	DB	05eH
	DB	0dfH
	DB	03eH
	DB	0dfH
	DB	03eH
	DB	0dfH
	DB	03eH
	DB	0dfH
	DB	03eH
	DB	0dfH
	DB	03eH
	DB	0dfH
	DB	03dH
	DB	0dfH
	DB	03eH
	DB	0dfH
	DB	03dH
	DB	0dfH
	DB	03eH
	DB	0dfH
	DB	03eH
	DB	0dfH
	DB	03dH
	DB	0dfH
	DB	03eH
	DB	0dfH
	DB	03eH
	DB	0dfH
	DB	03dH
	DB	0dfH
	DB	03dH
	DB	0dfH
	DB	03eH
	DB	0dfH
	DB	03eH
	DB	0dfH
	DB	01eH
	DB	0dfH
	DB	03dH
	DB	0dfH
	DB	03dH
	DB	0dfH
	DB	03eH
	DB	0dfH
	DB	03dH
	DB	0dfH
	DB	03eH
	DB	0dfH
	DB	03eH
	DB	0dfH
	DB	01dH
	DB	0d7H
	DB	03eH
	DB	0dfH
	DB	01dH
	DB	0dfH
	DB	01eH
	DB	0d7H
	DB	03eH
	DB	0dfH
	DB	01dH
	DB	0d7H
	DB	03dH
	DB	0d7H
	DB	03dH
	DB	0dfH
	DB	01eH
	DB	0dfH
	DB	01dH
	DB	0d7H
	DB	01dH
	DB	0d7H
	DB	01eH
	DB	0dfH
	DB	01dH
	DB	0d7H
	DB	01eH
	DB	0d7H
	DB	01eH
	DB	0d7H
	DB	01dH
	DB	0d7H
	DB	01dH
	DB	0d7H
	DB	01eH
	DB	0d7H
	DB	01dH
	DB	0d7H
	DB	0fdH
	DB	0d6H
	DB	01dH
	DB	0d7H
	DB	0fdH
	DB	0d6H
	DB	0fdH
	DB	0d6H
	DB	0fdH
	DB	0ceH
	DB	0fdH
	DB	0d6H
	DB	0fdH
	DB	0d6H
	DB	0fdH
	DB	0ceH
	DB	0fdH
	DB	0ceH
	DB	0fdH
	DB	0ceH
	DB	0ddH
	DB	0ceH
	DB	0fdH
	DB	0ceH
	DB	0fdH
	DB	0ceH
	DB	0ddH
	DB	0ceH
	DB	0dcH
	DB	0ceH
	DB	0dcH
	DB	0ceH
	DB	0ddH
	DB	0ceH
	DB	0dcH
	DB	0c6H
	DB	0ddH
	DB	0ceH
	DB	0dcH
	DB	0ceH
	DB	0bdH
	DB	0ceH
	DB	0ddH
	DB	0c6H
	DB	0bcH
	DB	0c6H
	DB	0bcH
	DB	0c6H
	DB	0bdH
	DB	0c6H
	DB	0bdH
	DB	0c6H
	DB	0bcH
	DB	0c6H
	DB	0bcH
	DB	0c6H
	DB	0bdH
	DB	0beH
	DB	0bcH
	DB	0c6H
	DB	09cH
	DB	0c6H
	DB	0bcH
	DB	0c6H
	DB	09cH
	DB	0beH
	DB	09cH
	DB	0c6H
	DB	09cH
	DB	0beH
	DB	09cH
	DB	0beH
	DB	09cH
	DB	0beH
	DB	09cH
	DB	0beH
	DB	09cH
	DB	0beH
	DB	07cH
	DB	0beH
	DB	09cH
	DB	0beH
	DB	09bH
	DB	0beH
	DB	07cH
	DB	0beH
	DB	07cH
	DB	0b6H
	DB	07cH
	DB	0beH
	DB	07bH
	DB	0beH
	DB	07cH
	DB	0b6H
	DB	07cH
	DB	0beH
	DB	07bH
	DB	0b6H
	DB	07bH
	DB	0beH
	DB	05cH
	DB	0b6H
	DB	07bH
	DB	0b6H
	DB	05cH
	DB	0b6H
	DB	05bH
	DB	0b6H
	DB	05bH
	DB	0b6H
	DB	05bH
	DB	0b6H
	DB	05cH
	DB	0b6H
	DB	05bH
	DB	0b6H
	DB	05bH
	DB	0b6H
	DB	05bH
	DB	0b6H
	DB	05bH
	DB	0aeH
	DB	03cH
	DB	0b6H
	DB	03bH
	DB	0b6H
	DB	05bH
	DB	0aeH
	DB	05bH
	DB	0aeH
	DB	03bH
	DB	0b6H
	DB	03bH
	DB	0aeH
	DB	03bH
	DB	0aeH
	DB	03bH
	DB	0aeH
	DB	03bH
	DB	0aeH
	DB	03bH
	DB	0aeH
	DB	03bH
	DB	0aeH
	DB	03bH
	DB	0aeH
	DB	03bH
	DB	0aeH
	DB	03aH
	DB	0aeH
	DB	03bH
	DB	0a6H
	DB	01bH
	DB	0aeH
	DB	03bH
	DB	0aeH
	DB	01bH
	DB	0a6H
	DB	01bH
	DB	0aeH
	DB	03bH
	DB	0aeH
	DB	01bH
	DB	0aeH
	DB	01aH
	DB	0aeH
	DB	03bH
	DB	0aeH
	DB	01bH
	DB	0a6H
	DB	03bH
	DB	0aeH
	DB	03bH
	DB	0aeH
	DB	01aH
	DB	0aeH
	DB	03bH
	DB	0aeH
	DB	01bH
	DB	0a6H
	DB	03aH
	DB	0aeH
	DB	01bH
	DB	0aeH
	DB	03bH
	DB	0a6H
	DB	01bH
	DB	0aeH
	DB	03bH
	DB	0aeH
	DB	01bH
	DB	0aeH
	DB	03bH
	DB	0aeH
	DB	03aH
	DB	0aeH
	DB	01bH
	DB	0aeH
	DB	01bH
	DB	0a6H
	DB	03bH
	DB	0aeH
	DB	01bH
	DB	0aeH
	DB	01aH
	DB	0aeH
	DB	03bH
	DB	0aeH
	DB	03bH
	DB	0a6H
	DB	01aH
	DB	0aeH
	DB	03bH
	DB	0aeH
	DB	01bH
	DB	0a6H
	DB	01bH
	DB	0aeH
	DB	03bH
	DB	0aeH
	DB	03bH
	DB	0aeH
	DB	01bH
	DB	0aeH
	DB	01aH
	DB	0aeH
	DB	03bH
	DB	0aeH
	DB	01bH
	DB	0a6H
	DB	03bH
	DB	0aeH
	DB	01bH
	DB	0aeH
	DB	03aH
	DB	0aeH
	DB	03bH
	DB	0aeH
	DB	01bH
	DB	0a6H
	DB	03aH
	DB	0aeH
	DB	03bH
	DB	0aeH
	DB	01bH
	DB	0a6H
	DB	03bH
	DB	0aeH
	DB	01bH
	DB	0aeH
	DB	01bH
	DB	0aeH
	DB	03bH
	DB	0aeH
	DB	03aH
	DB	0aeH
	DB	01bH
	DB	0aeH
	DB	03bH
	DB	0a6H
	DB	01bH
	DB	0aeH
	DB	01bH
	DB	0aeH
	DB	03aH
	DB	0aeH
	DB	03bH
	DB	0aeH
	DB	01bH
	DB	0a6H
	DB	03aH
	DB	0aeH
	DB	01bH
	DB	0aeH
	DB	01bH
	DB	0a6H
	DB	03bH
	DB	0aeH
	DB	01bH
	DB	0aeH
	DB	03bH
	DB	0aeH
	DB	03bH
	DB	0aeH
	DB	03aH
	DB	0aeH
	DB	01bH
	DB	0aeH
	DB	03bH
	DB	0a6H
	DB	01aH
	DB	0aeH
	DB	01bH
	DB	0aeH
	DB	03bH
	DB	0aeH
	DB	01bH
	DB	0aeH
	DB	03bH
	DB	0aeH
	DB	03bH
	DB	0aeH
	DB	01bH
	DB	0aeH
	DB	01bH
	DB	0aeH
	DB	01bH
	DB	0aeH
	DB	01bH
	DB	0aeH
	DB	03aH
	DB	0a6H
	DB	01bH
	DB	0aeH
	DB	01bH
	DB	0aeH
	DB	03bH
	DB	0a6H
	DB	03bH
	DB	0aeH
	DB	01aH
	DB	0aeH
	DB	03bH
	DB	0aeH
	DB	03bH
	DB	0aeH
	DB	01aH
	DB	0aeH
	DB	01bH
	DB	0aeH
	DB	03bH
	DB	0aeH
	DB	03bH
	DB	0aeH
	DB	01bH
	DB	0aeH
	DB	03aH
	DB	0aeH
	DB	01bH
	DB	0aeH
	DB	03bH
	DB	0aeH
	DB	03bH
	DB	0aeH
	DB	01bH
	DB	0aeH
	DB	03bH
	DB	0aeH
	DB	03bH
	DB	0aeH
	DB	01bH
	DB	0a6H
	DB	03bH
	DB	0aeH
	DB	01bH
	DB	0aeH
	DB	01bH
	DB	0aeH
	DB	03bH
	DB	0aeH
	DB	01bH
	DB	0aeH
	DB	01bH
	DB	0aeH
	DB	03bH
	DB	0aeH
	DB	01aH
	DB	0aeH
	DB	01bH
	DB	0aeH
	DB	03bH
	DB	0aeH
	DB	01bH
	DB	0aeH
	DB	03bH
	DB	0aeH
	DB	01bH
	DB	0aeH
	DB	01bH
	DB	0aeH
	DB	03bH
	DB	0a6H
	DB	01bH
	DB	0aeH
	DB	01bH
	DB	0aeH
	DB	03bH
	DB	0aeH
	DB	01bH
	DB	0aeH
	DB	03bH
	DB	0aeH
	DB	01bH
	DB	0aeH
	DB	03bH
	DB	0aeH
	DB	01aH
	DB	0aeH
	DB	03bH
	DB	0aeH
	DB	03bH
	DB	0aeH
	DB	01bH
	DB	0aeH
	DB	03bH
	DB	0aeH
	DB	03bH
	DB	0aeH
	DB	01bH
	DB	0aeH
	DB	01bH
	DB	0a6H
	DB	03bH
	DB	0aeH
	DB	01bH
	DB	0aeH
	DB	03bH
	DB	0aeH
	DB	03bH
	DB	0aeH
	DB	01bH
	DB	0aeH
	DB	03bH
	DB	0aeH
	DB	01bH
	DB	0aeH
	DB	01aH
	DB	0aeH
	DB	03bH
	DB	0aeH
	DB	01bH
	DB	0aeH
	DB	01bH
	DB	0aeH
	DB	03bH
	DB	0aeH
	DB	03bH
	DB	0aeH
	DB	01bH
	DB	0aeH
	DB	01bH
	DB	0a6H
	DB	03bH
	DB	0aeH
	DB	03bH
	DB	0aeH
	DB	01bH
	DB	0aeH
	DB	03bH
	DB	0aeH
	DB	01bH
	DB	0aeH
	DB	03bH
	DB	0aeH
	DB	03bH
	DB	0aeH
	DB	01aH
	DB	0aeH
	DB	03bH
	DB	0aeH
	DB	03bH
	DB	0a6H
	DB	03bH
	DB	0aeH
	DB	03bH
	DB	0aeH
	DB	01bH
	DB	0aeH
	DB	03bH
	DB	0aeH
	DB	03bH
	DB	0aeH
	DB	03bH
	DB	0aeH
	DB	03bH
	DB	0aeH
	DB	03bH
	DB	0aeH
	DB	03bH
	DB	0b6H
	DB	03bH
	DB	0aeH
	DB	05bH
	DB	0aeH
	DB	05bH
	DB	0b6H
	DB	03bH
	DB	0aeH
	DB	03bH
	DB	0b6H
	DB	05bH
	DB	0b6H
	DB	05cH
	DB	0b6H
	DB	05bH
	DB	0b6H
	DB	05bH
	DB	0b6H
	DB	05cH
	DB	0b6H
	DB	05bH
	DB	0b6H
	DB	05cH
	DB	0b6H
	DB	05bH
	DB	0b6H
	DB	05cH
	DB	0b6H
	DB	07bH
	DB	0b6H
	DB	07bH
	DB	0b6H
	DB	07bH
	DB	0beH
	DB	07cH
	DB	0b6H
	DB	05cH
	DB	0beH
	DB	07bH
	DB	0beH
	DB	07cH
	DB	0b6H
	DB	07cH
	DB	0beH
	DB	07bH
	DB	0beH
	DB	07cH
	DB	0beH
	DB	09bH
	DB	0beH
	DB	09cH
	DB	0beH
	DB	07cH
	DB	0beH
	DB	09cH
	DB	0beH
	DB	09bH
	DB	0beH
	DB	09cH
	DB	0beH
	DB	09cH
	DB	0beH
	DB	09cH
	DB	0beH
	DB	09cH
	DB	0c6H
	DB	09cH
	DB	0c6H
	DB	09cH
	DB	0c6H
	DB	09cH
	DB	0c6H
	DB	0bcH
	DB	0beH
	DB	0bcH
	DB	0c6H
	DB	0bdH
	DB	0c6H
	DB	0bcH
	DB	0c6H
	DB	0bcH
	DB	0c6H
	DB	0bcH
	DB	0c6H
	DB	0bdH
	DB	0c6H
	DB	0bdH
	DB	0c6H
	DB	0dcH
	DB	0ceH
	DB	0bdH
	DB	0ceH
	DB	0dcH
	DB	0c6H
	DB	0ddH
	DB	0ceH
	DB	0dcH
	DB	0ceH
	DB	0dcH
	DB	0ceH
	DB	0ddH
	DB	0ceH
	DB	0ddH
	DB	0ceH
	DB	0ddH
	DB	0ceH
	DB	0fcH
	DB	0ceH
	DB	0fdH
	DB	0ceH
	DB	0ddH
	DB	0ceH
	DB	0fdH
	DB	0ceH
	DB	0fdH
	DB	0d6H
	DB	0fdH
	DB	0d6H
	DB	0fdH
	DB	0ceH
	DB	0fdH
	DB	0d6H
	DB	0fdH
	DB	0d6H
	DB	0fdH
	DB	0d6H
	DB	01dH
	DB	0d7H
	DB	0fdH
	DB	0d6H
	DB	0fdH
	DB	0d6H
	DB	01dH
	DB	0d7H
	DB	01dH
	DB	0d7H
	DB	01dH
	DB	0d7H
	DB	01eH
	DB	0d7H
	DB	01eH
	DB	0d7H
	DB	01dH
	DB	0d7H
	DB	01dH
	DB	0dfH
	DB	01eH
	DB	0dfH
	DB	01eH
	DB	0d7H
	DB	01dH
	DB	0dfH
	DB	03dH
	DB	0d7H
	DB	03eH
	DB	0dfH
	DB	03eH
	DB	0d7H
	DB	01dH
	DB	0dfH
	DB	01dH
	DB	0dfH
	DB	03eH
	DB	0dfH
	DB	01eH
	DB	0dfH
	DB	01dH
	DB	0d7H
	DB	03eH
	DB	0dfH
	DB	03dH
	DB	0dfH
	DB	03dH
	DB	0d7H
	DB	03eH
	DB	0dfH
	DB	03dH
	DB	0dfH
	DB	01eH
	DB	0dfH
	DB	03dH
	DB	0dfH
	DB	03eH
	DB	0dfH
	DB	01dH
	DB	0dfH
	DB	03eH
	DB	0d7H
	DB	03eH
	DB	0dfH
	DB	03eH
	DB	0dfH
	DB	03dH
	DB	0dfH
	DB	03eH
	DB	0dfH
	DB	03dH
	DB	0dfH
	DB	03eH
	DB	0dfH
	DB	03eH
	DB	0dfH
	DB	03dH
	DB	0dfH
	DB	03eH
	DB	0dfH
	DB	03eH
	DB	0dfH
	DB	03eH
	DB	0dfH
	DB	03eH
	DB	0dfH
	DB	03eH
	DB	0dfH
	DB	03dH
	DB	0dfH
	DB	03eH
	DB	0dfH
	DB	05eH
	DB	0dfH
	DB	03eH
	DB	0dfH
	DB	03eH
	DB	0dfH
	DB	05dH
	DB	0dfH
	DB	03eH
	DB	0dfH
	DB	05dH
	DB	0dfH
	DB	05eH
	DB	0e7H
	DB	05dH
	DB	0dfH
	DB	03dH
	DB	0dfH
	DB	05eH
	DB	0e7H
	DB	03eH
	DB	0dfH
	DB	05dH
	DB	0dfH
	DB	03eH
	DB	0e7H
	DB	03eH
	DB	0dfH
	DB	05eH
	DB	0dfH
	DB	05eH
	DB	0dfH
	DB	05eH
	DB	0e7H
	DB	03eH
	DB	0dfH
	DB	05eH
	DB	0dfH
	DB	03dH
	DB	0dfH
	DB	05eH
	DB	0e7H
	DB	05eH
	DB	0dfH
	DB	05dH
	DB	0e7H
	DB	05eH
	DB	0e7H
	DB	05eH
	DB	0e7H
	DB	05dH
	DB	0e7H
	DB	05eH
	DB	0dfH
	DB	05eH
	DB	0e7H
	DB	05dH
	DB	0dfH
	DB	03eH
	DB	0dfH
	DB	05eH
	DB	0e7H
	DB	03eH
	DB	0dfH
	DB	05eH
	DB	0dfH
	DB	05eH
	DB	0dfH
	DB	03eH
	DB	0dfH
	DB	05eH
	DB	0dfH
	DB	05eH
	DB	0e7H
	DB	05eH
	DB	0dfH
	DB	05eH
	DB	0dfH
	DB	05eH
	DB	0e7H
	DB	05eH
	DB	0dfH
	DB	05eH
	DB	0e7H
	DB	05eH
	DB	0e7H
	DB	05eH
	DB	0dfH
	DB	03eH
	DB	0e7H
	DB	05eH
	DB	0dfH
	DB	05eH
	DB	0e7H
	DB	03eH
	DB	0dfH
	DB	05eH
	DB	0dfH
	DB	05eH
	DB	0e7H
	DB	05eH
	DB	0dfH
	DB	03eH
	DB	0dfH
	DB	05eH
	DB	0e7H
	DB	03eH
	DB	0dfH
	DB	05eH
	DB	0dfH
	DB	05dH
	DB	0e7H
	DB	03eH
	DB	0dfH
	DB	05eH
	DB	0dfH
	DB	05eH
	DB	0e7H
	DB	03dH
	DB	0e7H
	DB	05eH
	DB	0dfH
	DB	05eH
	DB	0e7H
	DB	03dH
	DB	0e7H
	DB	05eH
	DB	0e7H
	DB	05eH
	DB	0dfH
	DB	05dH
	DB	0e7H
	DB	05eH
	DB	0e7H
	DB	05eH
	DB	0dfH
	DB	05eH
	DB	0dfH
	DB	05eH
	DB	0e7H
	DB	03dH
	DB	0dfH
	DB	05eH
	DB	0dfH
	DB	05eH
	DB	0e7H
	DB	03eH
	DB	0dfH
	DB	03eH
	DB	0dfH
	DB	03eH
	DB	0e7H
	DB	05eH
	DB	0dfH
	DB	03eH
	DB	0e7H
	DB	05eH
	DB	0dfH
	DB	03eH
	DB	0dfH
	DB	05eH
	DB	0e7H
	DB	05dH
	DB	0dfH
	DB	03eH
	DB	0dfH
	DB	05eH
	DB	0dfH
	DB	03eH
	DB	0e7H
	DB	03eH
	DB	0dfH
	DB	03eH
	DB	0dfH
	DB	03dH
	DB	0dfH
	DB	03eH
	DB	0dfH
	DB	03eH
	DB	0dfH
	DB	03eH
	DB	0dfH
	DB	03eH
	DB	0dfH
	DB	03eH
	DB	0dfH
	DB	03eH
	DB	0dfH
	DB	03eH
	DB	0dfH
	DB	03dH
	DB	0dfH
	DB	03dH
	DB	0dfH
	DB	03eH
	DB	0dfH
	DB	03eH
	DB	0dfH
	DB	03eH
	DB	0dfH
	DB	03eH
	DB	0dfH
	DB	03eH
	DB	0dfH
	DB	03dH
	DB	0dfH
	DB	03eH
	DB	0dfH
	DB	03dH
	DB	0dfH
	DB	03eH
	DB	0dfH
	DB	03eH
	DB	0d7H
	DB	01eH
	DB	0dfH
	DB	01eH
	DB	0d7H
	DB	03dH
	DB	0dfH
	DB	03dH
	DB	0dfH
	DB	03eH
	DB	0dfH
	DB	03dH
	DB	0dfH
	DB	01eH
	DB	0d7H
	DB	03eH
	DB	0dfH
	DB	03dH
	DB	0dfH
	DB	01eH
	DB	0dfH
	DB	01eH
	DB	0dfH
	DB	03eH
	DB	0d7H
	DB	03dH
	DB	0d7H
	DB	03eH
	DB	0dfH
	DB	01dH
	DB	0dfH
	DB	03eH
	DB	0d7H
	DB	01dH
	DB	0dfH
	DB	01dH
	DB	0dfH
	DB	01dH
	DB	0d7H
	DB	01eH
	DB	0dfH
	DB	01dH
	DB	0d7H
	DB	01dH
	DB	0d7H
	DB	01eH
	DB	0d7H
	DB	01dH
	DB	0d7H
	DB	01dH
	DB	0d7H
	DB	0fdH
	DB	0d6H
	DB	01dH
	DB	0d7H
	DB	01dH
	DB	0d7H
	DB	0fdH
	DB	0d6H
	DB	0fdH
	DB	0ceH
	DB	0fdH
	DB	0d6H
	DB	0fdH
	DB	0d6H
	DB	0fdH
	DB	0d6H
	DB	0fdH
	DB	0ceH
	DB	0fdH
	DB	0ceH
	DB	0ddH
	DB	0ceH
	DB	0fdH
	DB	0ceH
	DB	0ddH
	DB	0ceH
	DB	0ddH
	DB	0ceH
	DB	0ddH
	DB	0ceH
	DB	0dcH
	DB	0ceH
	DB	0ddH
	DB	0ceH
	DB	0ddH
	DB	0ceH
	DB	0dcH
	DB	0c6H
	DB	0dcH
	DB	0ceH
	DB	0bdH
	DB	0ceH
	DB	0ddH
	DB	0c6H
	DB	0bcH
	DB	0ceH
	DB	0bcH
	DB	0c6H
	DB	0bdH
	DB	0c6H
	DB	0bcH
	DB	0c6H
	DB	0bcH
	DB	0c6H
	DB	0bdH
	DB	0c6H
	DB	0bcH
	DB	0c6H
	DB	0bcH
	DB	0beH
	DB	0bcH
	DB	0c6H
	DB	0bcH
	DB	0c6H
	DB	09cH
	DB	0beH
	DB	09cH
	DB	0c6H
	DB	09cH
	DB	0c6H
	DB	09cH
	DB	0beH
	DB	09cH
	DB	0beH
	DB	09cH
	DB	0beH
	DB	09cH
	DB	0beH
	DB	07cH
	DB	0beH
	DB	07cH
	DB	0beH
	DB	09bH
	DB	0beH
	DB	07cH
	DB	0beH
	DB	07cH
	DB	0beH
	DB	07cH
	DB	0b6H
	DB	07cH
	DB	0beH
	DB	07cH
	DB	0b6H
	DB	07cH
	DB	0beH
	DB	07cH
	DB	0b6H
	DB	07bH
	DB	0beH
	DB	07bH
	DB	0b6H
	DB	07cH
	DB	0b6H
	DB	05cH
	DB	0b6H
	DB	05bH
	DB	0b6H
	DB	05cH
	DB	0b6H
	DB	05bH
	DB	0b6H
	DB	05cH
	DB	0b6H
	DB	05bH
	DB	0b6H
	DB	05bH
	DB	0aeH
	DB	05cH
	DB	0b6H
	DB	05bH
	DB	0b6H
	DB	03bH
	DB	0b6H
	DB	05bH
	DB	0aeH
	DB	03bH
	DB	0b6H
	DB	03bH
	DB	0aeH
	DB	03bH
	DB	0b6H
	DB	03bH
	DB	0aeH
	DB	03bH
	DB	0aeH
	DB	03bH
	DB	0b6H
	DB	03bH
	DB	0aeH
	DB	03bH
	DB	0aeH
	DB	03bH
	DB	0aeH
	DB	01bH
	DB	0aeH
	DB	03bH
	DB	0aeH
	DB	03bH
	DB	0aeH
	DB	03bH
	DB	0aeH
	DB	01aH
	DB	0aeH
	DB	03bH
	DB	0aeH
	DB	03bH
	DB	0aeH
	DB	01bH
	DB	0aeH
	DB	03bH
	DB	0aeH
	DB	03bH
	DB	0aeH
	DB	01bH
	DB	0aeH
	DB	01bH
	DB	0aeH
	DB	03aH
	DB	0aeH
	DB	01bH
	DB	0aeH
	DB	03bH
	DB	0a6H
	DB	01bH
	DB	0aeH
	DB	03bH
	DB	0aeH
	DB	03bH
	DB	0aeH
	DB	01bH
	DB	0aeH
	DB	01bH
	DB	0aeH
	DB	03bH
	DB	0aeH
	DB	01bH
	DB	0aeH
	DB	03bH
	DB	0aeH
	DB	01bH
	DB	0aeH
	DB	03bH
	DB	0aeH
	DB	03bH
	DB	0aeH
	DB	01bH
	DB	0aeH
	DB	01aH
	DB	0aeH
	DB	03bH
	DB	0aeH
	DB	01bH
	DB	0a6H
	DB	01bH
	DB	0aeH
	DB	03bH
	DB	0aeH
	DB	01bH
	DB	0aeH
	DB	03bH
	DB	0aeH
	DB	03bH
	DB	0aeH
	DB	01bH
	DB	0aeH
	DB	01bH
	DB	0aeH
	DB	03bH
	DB	0aeH
	DB	03bH
	DB	0aeH
	DB	01bH
	DB	0aeH
	DB	03bH
	DB	0aeH
	DB	01bH
	DB	0aeH
	DB	01aH
	DB	0aeH
	DB	03bH
	DB	0aeH
	DB	01bH
	DB	0a6H
	DB	01bH
	DB	0aeH
	DB	03bH
	DB	0aeH
	DB	01bH
	DB	0aeH
	DB	01bH
	DB	0aeH
	DB	03bH
	DB	0aeH
	DB	03bH
	DB	0aeH
	DB	01bH
	DB	0aeH
	DB	01bH
	DB	0aeH
	DB	03bH
	DB	0aeH
	DB	01bH
	DB	0aeH
	DB	03bH
	DB	0aeH
	DB	03bH
	DB	0aeH
	DB	01aH
	DB	0aeH
	DB	01bH
	DB	0aeH
	DB	03bH
	DB	0a6H
	DB	01bH
	DB	0aeH
	DB	03bH
	DB	0aeH
	DB	03bH
	DB	0aeH
	DB	01bH
	DB	0aeH
	DB	03bH
	DB	0aeH
	DB	01bH
	DB	0aeH
	DB	01bH
	DB	0aeH
	DB	01bH
	DB	0aeH
	DB	03bH
	DB	0aeH
	DB	01bH
	DB	0aeH
	DB	03bH
	DB	0aeH
	DB	03bH
	DB	0aeH
	DB	01bH
	DB	0aeH
	DB	03bH
	DB	0aeH
	DB	03aH
	DB	0a6H
	DB	01bH
	DB	0aeH
	DB	01bH
	DB	0aeH
	DB	03bH
	DB	0a6H
	DB	03bH
	DB	0aeH
	DB	01bH
	DB	0aeH
	DB	01bH
	DB	0aeH
	DB	03bH
	DB	0aeH
	DB	03bH
	DB	0aeH
	DB	01bH
	DB	0aeH
	DB	01bH
	DB	0aeH
	DB	03aH
	DB	0aeH
	DB	01bH
	DB	0aeH
	DB	01bH
	DB	0a6H
	DB	03bH
	DB	0aeH
	DB	01bH
	DB	0aeH
	DB	03bH
	DB	0aeH
	DB	01bH
	DB	0aeH
	DB	01bH
	DB	0aeH
	DB	03bH
	DB	0aeH
	DB	03bH
	DB	0a6H
	DB	01bH
	DB	0aeH
	DB	03bH
	DB	0aeH
	DB	01bH
	DB	0a6H
	DB	01aH
	DB	0aeH
	DB	03bH
	DB	0aeH
	DB	01bH
	DB	0aeH
	DB	01bH
	DB	0aeH
	DB	03aH
	DB	0aeH
	DB	03bH
	DB	0aeH
	DB	01bH
	DB	0aeH
	DB	03aH
	DB	0aeH
	DB	03bH
	DB	0aeH
	DB	01bH
	DB	0aeH
	DB	03bH
	DB	0a6H
	DB	03bH
	DB	0aeH
	DB	01bH
	DB	0aeH
	DB	03bH
	DB	0a6H
	DB	01bH
	DB	0aeH
	DB	03bH
	DB	0aeH
	DB	03bH
	DB	0aeH
	DB	01bH
	DB	0aeH
	DB	03aH
	DB	0aeH
	DB	03bH
	DB	0aeH
	DB	01bH
	DB	0aeH
	DB	03aH
	DB	0aeH
	DB	01bH
	DB	0aeH
	DB	03bH
	DB	0aeH
	DB	01bH
	DB	0aeH
	DB	03bH
	DB	0a6H
	DB	01bH
	DB	0aeH
	DB	01bH
	DB	0aeH
	DB	03bH
	DB	0a6H
	DB	01bH
	DB	0aeH
	DB	01bH
	DB	0aeH
	DB	03bH
	DB	0aeH
	DB	03bH
	DB	0aeH
	DB	01aH
	DB	0aeH
	DB	03bH
	DB	0aeH
	DB	03bH
	DB	0aeH
	DB	01aH
	DB	0aeH
	DB	01bH
	DB	0aeH
	DB	03bH
	DB	0aeH
	DB	01bH
	DB	0aeH
	DB	03bH
	DB	0a6H
	DB	01bH
	DB	0aeH
	DB	03bH
	DB	0aeH
	DB	03bH
	DB	0a6H
	DB	01bH
	DB	0aeH
	DB	01bH
	DB	0aeH
	DB	03bH
	DB	0aeH
	DB	01bH
	DB	0aeH
	DB	03aH
	DB	0aeH
	DB	03bH
	DB	0aeH
	DB	01bH
	DB	0aeH
	DB	01aH
	DB	0aeH
	DB	03bH
	DB	0aeH
	DB	01bH
	DB	0aeH
	DB	01bH
	DB	0aeH
	DB	03bH
	DB	0a6H
	DB	01bH
	DB	0aeH
	DB	01bH
	DB	0aeH
	DB	03bH
	DB	0aeH
	DB	03bH
	DB	0aeH
	DB	03bH
	DB	0aeH
	DB	03aH
	DB	0aeH
	DB	03bH
	DB	0aeH
	DB	03bH
	DB	0aeH
	DB	03bH
	DB	0aeH
	DB	03bH
	DB	0aeH
	DB	03bH
	DB	0aeH
	DB	03bH
	DB	0aeH
	DB	03bH
	DB	0b6H
	DB	03bH
	DB	0aeH
	DB	05bH
	DB	0b6H
	DB	03bH
	DB	0b6H
	DB	03bH
	DB	0aeH
	DB	05bH
	DB	0b6H
	DB	05bH
	DB	0aeH
	DB	05bH
	DB	0aeH
	DB	05bH
	DB	0b6H
	DB	05cH
	DB	0b6H
	DB	05bH
	DB	0b6H
	DB	05cH
	DB	0b6H
	DB	05bH
	DB	0b6H
	DB	05cH
	DB	0b6H
	DB	07bH
	DB	0b6H
	DB	05cH
	DB	0b6H
	DB	05cH
	DB	0b6H
	DB	07cH
	DB	0b6H
	DB	07bH
	DB	0beH
	DB	07cH
	DB	0b6H
	DB	07bH
	DB	0beH
	DB	07cH
	DB	0b6H
	DB	07cH
	DB	0beH
	DB	07cH
	DB	0beH
	DB	09bH
	DB	0beH
	DB	07cH
	DB	0beH
	DB	09cH
	DB	0beH
	DB	09cH
	DB	0beH
	DB	09cH
	DB	0beH
	DB	09cH
	DB	0beH
	DB	09cH
	DB	0beH
	DB	09cH
	DB	0c6H
	DB	09cH
	DB	0c6H
	DB	09cH
	DB	0beH
	DB	0bcH
	DB	0beH
	DB	0bcH
	DB	0c6H
	DB	0bcH
	DB	0c6H
	DB	0bcH
	DB	0c6H
	DB	09dH
	DB	0c6H
	DB	0bcH
	DB	0c6H
	DB	0bdH
	DB	0c6H
	DB	0bcH
	DB	0c6H
	DB	0bcH
	DB	0c6H
	DB	0ddH
	DB	0c6H
	DB	0dcH
	DB	0c6H
	DB	0bcH
	DB	0ceH
	DB	0ddH
	DB	0c6H
	DB	0ddH
	DB	0ceH
	DB	0ddH
	DB	0ceH
	DB	0ddH
	DB	0c6H
	DB	0ddH
	DB	0ceH
	DB	0ddH
	DB	0ceH
	DB	0ddH
	DB	0ceH
	DB	0fcH
	DB	0ceH
	DB	0ddH
	DB	0ceH
	DB	0fdH
	DB	0ceH
	DB	0fdH
	DB	0ceH
	DB	0fdH
	DB	0ceH
	DB	0fdH
	DB	0d6H
	DB	0fdH
	DB	0ceH
	DB	0fdH
	DB	0d6H
	DB	0fdH
	DB	0ceH
	DB	0fdH
	DB	0d6H
	DB	0fdH
	DB	0d6H
	DB	01dH
	DB	0d7H
	DB	01dH
	DB	0d7H
	DB	01dH
	DB	0d7H
	DB	01dH
	DB	0d7H
	DB	01dH
	DB	0d7H
	DB	01eH
	DB	0d7H
	DB	01dH
	DB	0d7H
	DB	01dH
	DB	0d7H
	DB	01eH
	DB	0dfH
	DB	01dH
	DB	0d7H
	DB	01dH
	DB	0d7H
	DB	01eH
	DB	0dfH
	DB	01dH
	DB	0d7H
	DB	03eH
	DB	0dfH
	DB	03eH
	DB	0d7H
	DB	01dH
	DB	0dfH
	DB	01eH
	DB	0dfH
	DB	03dH
	DB	0d7H
	DB	03dH
	DB	0d7H
	DB	01eH
	DB	0dfH
	DB	03eH
	DB	0dfH
	DB	03dH
	DB	0dfH
	DB	01eH
	DB	0dfH
	DB	03eH
	DB	0dfH
	DB	03eH
	DB	0dfH
	DB	01eH
	DB	0dfH
	DB	03dH
	DB	0dfH
	DB	03eH
	DB	0dfH
	DB	03dH
	DB	0dfH
	DB	03eH
	DB	0dfH
	DB	03dH
	DB	0dfH
	DB	03eH
	DB	0dfH
	DB	03eH
	DB	0dfH
	DB	03dH
	DB	0dfH
	DB	03eH
	DB	0dfH
	DB	03eH
	DB	0dfH
	DB	03dH
	DB	0dfH
	DB	03eH
	DB	0dfH
	DB	03eH
	DB	0dfH
	DB	03dH
	DB	0dfH
	DB	03eH
	DB	0dfH
	DB	03dH
	DB	0dfH
	DB	03eH
	DB	0dfH
	DB	03eH
	DB	0dfH
	DB	05eH
	DB	0dfH
	DB	03eH
	DB	0dfH
	DB	03dH
	DB	0dfH
	DB	03eH
	DB	0dfH
	DB	05eH
	DB	0dfH
	DB	05eH
	DB	0e7H
	DB	03eH
	DB	0dfH
	DB	03eH
	DB	0dfH
	DB	05eH
	DB	0e7H
	DB	03eH
	DB	0dfH
	DB	03eH
	DB	0e7H
	DB	05eH
	DB	0dfH
	DB	05eH
	DB	0dfH
	DB	03eH
	DB	0e7H
	DB	05eH
	DB	0dfH
	DB	05eH
	DB	0dfH
	DB	03eH
	DB	0e7H
	DB	05eH
	DB	0dfH
	DB	05dH
	DB	0dfH
	DB	05eH
	DB	0e7H
	DB	05eH
	DB	0e7H
	DB	05eH
	DB	0e7H
	DB	05eH
	DB	0dfH
	DB	05eH
	DB	0e7H
	DB	03eH
	DB	0dfH
	DB	05eH
	DB	0dfH
	DB	05eH
	DB	0dfH
	DB	03eH
	DB	0e7H
	DB	05eH
	DB	0dfH
	DB	05eH
	DB	0e7H
	DB	03eH
	DB	0dfH
	DB	05eH
	DB	0dfH
	DB	05eH
	DB	0e7H
	DB	05dH
	DB	0e7H
	DB	03eH
	DB	0e7H
	DB	05eH
	DB	0e7H
	DB	05dH
	DB	0dfH
	DB	03eH
	DB	0e7H
	DB	05eH
	DB	0e7H
	DB	03dH
	DB	0e7H
	DB	05eH
	DB	0e7H
	DB	05eH
	DB	0e7H
	DB	03dH
	DB	0dfH
	DB	05eH
	DB	0e7H
	DB	05eH
	DB	0e7H
	DB	05eH
	DB	0e7H
	DB	03eH
	DB	0e7H
	DB	05dH
	DB	0e7H
	DB	05eH
	DB	0e7H
	DB	05eH
	DB	0e7H
	DB	03eH
	DB	0e7H
	DB	05eH
	DB	0e7H
	DB	05eH
	DB	0dfH
	DB	05dH
	DB	0e7H
	DB	05eH
	DB	0e7H
	DB	05eH
	DB	0dfH
	DB	03eH
	DB	0e7H
	DB	05eH
	DB	0e7H
	DB	05eH
	DB	0dfH
	DB	03eH
	DB	0dfH
	DB	05eH
	DB	0e7H
	DB	05eH
	DB	0dfH
	DB	03eH
	DB	0dfH
	DB	05eH
	DB	0e7H
	DB	05eH
	DB	0dfH
	DB	03eH
	DB	0dfH
	DB	05eH
	DB	0e7H
	DB	05eH
	DB	0dfH
	DB	03eH
	DB	0e7H
	DB	03eH
	DB	0e7H
	DB	05eH
	DB	0dfH
	DB	05eH
	DB	0e7H
	DB	05eH
	DB	0e7H
	DB	05eH
	DB	0dfH
	DB	05eH
	DB	0dfH
	DB	05eH
	DB	0dfH
	DB	05eH
	DB	0e7H
	DB	03eH
	DB	0dfH
	DB	05eH
	DB	0dfH
	DB	05eH
	DB	0e7H
	DB	03eH
	DB	0dfH
	DB	03eH
	DB	0e7H
	DB	03eH
	DB	0dfH
	DB	05dH
	DB	0e7H
	DB	03eH
	DB	0dfH
	DB	05eH
	DB	0dfH
	DB	05dH
	DB	0dfH
	DB	05eH
	DB	0e7H
	DB	05eH
	DB	0dfH
	DB	03eH
	DB	0dfH
	DB	05dH
	DB	0dfH
	DB	05eH
	DB	0dfH
	DB	03dH
	DB	0dfH
	DB	03dH
	DB	0dfH
	DB	05eH
	DB	0dfH
	DB	03eH
	DB	0dfH
	DB	03eH
	DB	0dfH
	DB	03eH
	DB	0dfH
	DB	03eH
	DB	0dfH
	DB	03eH
	DB	0dfH
	DB	03dH
	DB	0dfH
	DB	03dH
	DB	0dfH
	DB	03eH
	DB	0dfH
	DB	03dH
	DB	0dfH
	DB	03eH
	DB	0dfH
	DB	03eH
	DB	0dfH
	DB	03dH
	DB	0dfH
	DB	03eH
	DB	0dfH
	DB	03eH
	DB	0dfH
	DB	03dH
	DB	0dfH
	DB	03eH
	DB	0dfH
	DB	01eH
	DB	0dfH
	DB	03eH
	DB	0d7H
	DB	03dH
	DB	0dfH
	DB	03dH
	DB	0dfH
	DB	03eH
	DB	0dfH
	DB	03dH
	DB	0d7H
	DB	01dH
	DB	0d7H
	DB	03dH
	DB	0dfH
	DB	01eH
	DB	0dfH
	DB	01dH
	DB	0dfH
	DB	01eH
	DB	0dfH
	DB	03dH
	DB	0d7H
	DB	03eH
	DB	0d7H
	DB	01dH
	DB	0dfH
	DB	01eH
	DB	0d7H
	DB	01dH
	DB	0dfH
	DB	01dH
	DB	0d7H
	DB	01eH
	DB	0d7H
	DB	01dH
	DB	0dfH
	DB	01eH
	DB	0d7H
	DB	01dH
	DB	0d7H
	DB	01dH
	DB	0d7H
	DB	01dH
	DB	0d7H
	DB	01dH
	DB	0d7H
	DB	01dH
	DB	0d7H
	DB	0fdH
	DB	0d6H
	DB	01dH
	DB	0d7H
	DB	0fdH
	DB	0d6H
	DB	0fdH
	DB	0ceH
	DB	0fdH
	DB	0d6H
	DB	0fdH
	DB	0ceH
	DB	0fdH
	DB	0d6H
	DB	0fcH
	DB	0d6H
	DB	0fdH
	DB	0ceH
	DB	0fdH
	DB	0ceH
	DB	0dcH
	DB	0ceH
	DB	0fdH
	DB	0ceH
	DB	0ddH
	DB	0ceH
	DB	0ddH
	DB	0ceH
	DB	0ddH
	DB	0ceH
	DB	0ddH
	DB	0c6H
	DB	0ddH
	DB	0ceH
	DB	0dcH
	DB	0c6H
	DB	0dcH
	DB	0ceH
	DB	0bdH
	DB	0ceH
	DB	0ddH
	DB	0c6H
	DB	0dcH
	DB	0c6H
	DB	0bcH
	DB	0c6H
	DB	0bdH
	DB	0c6H
	DB	0bcH
	DB	0c6H
	DB	0bcH
	DB	0c6H
	DB	09dH
	DB	0c6H
	DB	0bcH
	DB	0c6H
	DB	0bcH
	DB	0c6H
	DB	09cH
	DB	0c6H
	DB	09cH
	DB	0beH
	DB	09cH
	DB	0c6H
	DB	09cH
	DB	0c6H
	DB	09cH
	DB	0beH
	DB	09cH
	DB	0c6H
	DB	09cH
	DB	0beH
	DB	09bH
	DB	0beH
	DB	09cH
	DB	0beH
	DB	07cH
	DB	0beH
	DB	09cH
	DB	0beH
	DB	09cH
	DB	0beH
	DB	07cH
	DB	0beH
	DB	07bH
	DB	0beH
	DB	07cH
	DB	0b6H
	DB	07bH
	DB	0beH
	DB	07bH
	DB	0b6H
	DB	05cH
	DB	0beH
	DB	07cH
	DB	0b6H
	DB	05bH
	DB	0beH
	DB	07cH
	DB	0b6H
	DB	07cH
	DB	0b6H
	DB	05bH
	DB	0b6H
	DB	05bH
	DB	0b6H
	DB	05cH
	DB	0b6H
	DB	05bH
	DB	0b6H
	DB	05cH
	DB	0b6H
	DB	05bH
	DB	0b6H
	DB	05bH
	DB	0b6H
	DB	05bH
	DB	0aeH
	DB	05cH
	DB	0b6H
	DB	03bH
	DB	0b6H
	DB	05bH
	DB	0aeH
	DB	05bH
	DB	0b6H
	DB	03bH
	DB	0aeH
	DB	03bH
	DB	0b6H
	DB	05bH
	DB	0aeH
	DB	03bH
	DB	0aeH
	DB	03bH
	DB	0aeH
	DB	03bH
	DB	0aeH
	DB	03bH
	DB	0aeH
	DB	03bH
	DB	0aeH
	DB	03bH
	DB	0aeH
	DB	03bH
	DB	0aeH
	DB	03bH
	DB	0aeH
	DB	03bH
	DB	0aeH
	DB	01bH
	DB	0aeH
	DB	01bH
	DB	0aeH
	DB	03aH
	DB	0a6H
	DB	01bH
	DB	0aeH
	DB	03bH
	DB	0aeH
	DB	01bH
	DB	0a6H
	DB	03bH
	DB	0aeH
	DB	01bH
	DB	0aeH
	DB	03bH
	DB	0aeH
	DB	01bH
	DB	0aeH
	DB	01bH
	DB	0aeH
	DB	03bH
	DB	0aeH
	DB	01bH
	DB	0aeH
	DB	03aH
	DB	0aeH
	DB	03bH
	DB	0aeH
	DB	01bH
	DB	0a6H
	DB	03aH
	DB	0aeH
	DB	01bH
	DB	0aeH
	DB	01bH
	DB	0a6H
	DB	01bH
	DB	0aeH
	DB	03bH
	DB	0aeH
	DB	03bH
	DB	0aeH
	DB	01bH
	DB	0aeH
	DB	03bH
	DB	0aeH
	DB	03bH
	DB	0aeH
	DB	01bH
	DB	0aeH
	DB	01bH
	DB	0aeH
	DB	03bH
	DB	0aeH
	DB	01aH
	DB	0aeH
	DB	03bH
	DB	0aeH
	DB	01bH
	DB	0a6H
	DB	01aH
	DB	0aeH
	DB	03bH
	DB	0aeH
	DB	01bH
	DB	0a6H
	DB	03bH
	DB	0aeH
	DB	03bH
	DB	0aeH
	DB	01bH
	DB	0aeH
	DB	03bH
	DB	0aeH
	DB	03bH
	DB	0aeH
	DB	01bH
	DB	0aeH
	DB	01bH
	DB	0aeH
	DB	03bH
	DB	0aeH
	DB	03bH
	DB	0aeH
	DB	01aH
	DB	0aeH
	DB	01bH
	DB	0aeH
	DB	03bH
	DB	0a6H
	DB	03aH
	DB	0aeH
	DB	01bH
	DB	0aeH
	DB	03bH
	DB	0a6H
	DB	01bH
	DB	0aeH
	DB	01bH
	DB	0aeH
	DB	03bH
	DB	0aeH
	DB	03bH
	DB	0aeH
	DB	01bH
	DB	0aeH
	DB	03bH
	DB	0aeH
	DB	01bH
	DB	0aeH
	DB	01bH
	DB	0aeH
	DB	03bH
	DB	0aeH
	DB	03aH
	DB	0aeH
	DB	01bH
	DB	0aeH
	DB	03bH
	DB	0a6H
	DB	03aH
	DB	0aeH
	DB	01bH
	DB	0aeH
	DB	01bH
	DB	0a6H
	DB	03bH
	DB	0aeH
	DB	01bH
	DB	0aeH
	DB	01bH
	DB	0aeH
	DB	03bH
	DB	0aeH
	DB	01bH
	DB	0aeH
	DB	03bH
	DB	0aeH
	DB	01bH
	DB	0aeH
	DB	01bH
	DB	0aeH
	DB	03aH
	DB	0aeH
	DB	01bH
	DB	0aeH
	DB	03bH
	DB	0aeH
	DB	01bH
	DB	0aeH
	DB	03bH
	DB	0aeH
	DB	03bH
	DB	0aeH
	DB	01bH
	DB	0aeH
	DB	03bH
	DB	0aeH
	DB	03bH
	DB	0aeH
	DB	01bH
	DB	0aeH
	DB	03bH
	DB	0aeH
	DB	01bH
	DB	0aeH
	DB	03bH
	DB	0aeH
	DB	03bH
	DB	0a6H
	DB	01bH
	DB	0aeH
	DB	03bH
	DB	0aeH
	DB	01aH
	DB	0aeH
	DB	01bH
	DB	0aeH
	DB	03bH
	DB	0aeH
	DB	01bH
	DB	0aeH
	DB	03bH
	DB	0aeH
	DB	01bH
	DB	0aeH
	DB	03bH
	DB	0aeH
	DB	03bH
	DB	0a6H
	DB	01bH
	DB	0aeH
	DB	01bH
	DB	0aeH
	DB	03bH
	DB	0aeH
	DB	01bH
	DB	0aeH
	DB	03bH
	DB	0a6H
	DB	01bH
	DB	0aeH
	DB	03bH
	DB	0aeH
	DB	01aH
	DB	0aeH
	DB	03bH
	DB	0aeH
	DB	03bH
	DB	0aeH
	DB	01bH
	DB	0aeH
	DB	03bH
	DB	0aeH
	DB	01aH
	DB	0a6H
	DB	01bH
	DB	0aeH
	DB	03bH
	DB	0aeH
	DB	01bH
	DB	0a6H
	DB	01bH
	DB	0aeH
	DB	03bH
	DB	0aeH
	DB	03bH
	DB	0aeH
	DB	01bH
	DB	0a6H
	DB	01aH
	DB	0aeH
	DB	03bH
	DB	0aeH
	DB	03bH
	DB	0aeH
	DB	01aH
	DB	0aeH
	DB	03bH
	DB	0aeH
	DB	03bH
	DB	0aeH
	DB	01bH
	DB	0aeH
	DB	01aH
	DB	0a6H
	DB	03bH
	DB	0aeH
	DB	01bH
	DB	0aeH
	DB	01bH
	DB	0a6H
	DB	03bH
	DB	0aeH
	DB	01bH
	DB	0aeH
	DB	01bH
	DB	0aeH
	DB	03bH
	DB	0a6H
	DB	01aH
	DB	0aeH
	DB	03bH
	DB	0aeH
	DB	01bH
	DB	0aeH
	DB	03aH
	DB	0aeH
	DB	01bH
	DB	0aeH
	DB	03bH
	DB	0aeH
	DB	03bH
	DB	0aeH
	DB	01aH
	DB	0a6H
	DB	03bH
	DB	0aeH
	DB	01bH
	DB	0aeH
	DB	01bH
	DB	0a6H
	DB	03bH
	DB	0aeH
	DB	01bH
	DB	0aeH
	DB	03bH
	DB	0aeH
	DB	03bH
	DB	0a6H
	DB	01aH
	DB	0aeH
	DB	03bH
	DB	0aeH
	DB	03bH
	DB	0aeH
	DB	01aH
	DB	0aeH
	DB	03bH
	DB	0aeH
	DB	03bH
	DB	0a6H
	DB	01bH
	DB	0aeH
	DB	03bH
	DB	0aeH
	DB	01bH
	DB	0aeH
	DB	03bH
	DB	0aeH
	DB	03bH
	DB	0aeH
	DB	03bH
	DB	0aeH
	DB	03bH
	DB	0aeH
	DB	03bH
	DB	0aeH
	DB	03bH
	DB	0b6H
	DB	05bH
	DB	0aeH
	DB	05bH
	DB	0aeH
	DB	03bH
	DB	0b6H
	DB	05bH
	DB	0aeH
	DB	05cH
	DB	0b6H
	DB	05bH
	DB	0b6H
	DB	05cH
	DB	0b6H
	DB	05bH
	DB	0b6H
	DB	05cH
	DB	0b6H
	DB	05bH
	DB	0b6H
	DB	05bH
	DB	0b6H
	DB	05bH
	DB	0b6H
	DB	05cH
	DB	0b6H
	DB	07bH
	DB	0b6H
	DB	07cH
	DB	0b6H
	DB	05bH
	DB	0b6H
	DB	07cH
	DB	0beH
	DB	07cH
	DB	0beH
	DB	07bH
	DB	0b6H
	DB	07cH
	DB	0beH
	DB	07cH
	DB	0beH
	DB	07cH
	DB	0beH
	DB	07cH
	DB	0b6H
	DB	09cH
	DB	0beH
	DB	07cH
	DB	0beH
	DB	07cH
	DB	0beH
	DB	09cH
	DB	0beH
	DB	09cH
	DB	0beH
	DB	09cH
	DB	0beH
	DB	09cH
	DB	0beH
	DB	09cH
	DB	0c6H
	DB	09cH
	DB	0c6H
	DB	09cH
	DB	0beH
	DB	09cH
	DB	0c6H
	DB	0bcH
	DB	0c6H
	DB	0bcH
	DB	0c6H
	DB	0bcH
	DB	0c6H
	DB	0bcH
	DB	0c6H
	DB	0bcH
	DB	0c6H
	DB	0bdH
	DB	0c6H
	DB	0bcH
	DB	0c6H
	DB	0bcH
	DB	0c6H
	DB	0bdH
	DB	0c6H
	DB	0ddH
	DB	0ceH
	DB	0bcH
	DB	0ceH
	DB	0ddH
	DB	0ceH
	DB	0ddH
	DB	0c6H
	DB	0dcH
	DB	0ceH
	DB	0dcH
	DB	0ceH
	DB	0ddH
	DB	0ceH
	DB	0ddH
	DB	0ceH
	DB	0dcH
	DB	0ceH
	DB	0fdH
	DB	0ceH
	DB	0ddH
	DB	0ceH
	DB	0fdH
	DB	0ceH
	DB	0fdH
	DB	0ceH
	DB	0fdH
	DB	0d6H
	DB	0fdH
	DB	0d6H
	DB	0fdH
	DB	0ceH
	DB	0fdH
	DB	0d6H
	DB	0fdH
	DB	0d6H
	DB	0fdH
	DB	0d6H
	DB	01dH
	DB	0d7H
	DB	0fdH
	DB	0d6H
	DB	01dH
	DB	0d7H
	DB	01dH
	DB	0d7H
	DB	01dH
	DB	0d7H
	DB	01eH
	DB	0d7H
	DB	01eH
	DB	0d7H
	DB	01dH
	DB	0d7H
	DB	01dH
	DB	0d7H
	DB	01eH
	DB	0dfH
	DB	01dH
	DB	0dfH
	DB	03dH
	DB	0d7H
	DB	01eH
	DB	0dfH
	DB	03dH
	DB	0dfH
	DB	03eH
	DB	0d7H
	DB	01dH
	DB	0dfH
	DB	01dH
	DB	0dfH
	DB	03eH
	DB	0d7H
	DB	03eH
	DB	0dfH
	DB	01dH
	DB	0dfH
	DB	03dH
	DB	0dfH
	DB	03eH
	DB	0dfH
	DB	03dH
	DB	0d7H
	DB	03dH
	DB	0dfH
	DB	03eH
	DB	0d7H
	DB	01eH
	DB	0dfH
	DB	03dH
	DB	0dfH
	DB	03eH
	DB	0dfH
	DB	03eH
	DB	0d7H
	DB	03eH
	DB	0dfH
	DB	03eH
	DB	0dfH
	DB	03dH
	DB	0dfH
	DB	03eH
	DB	0dfH
	DB	03dH
	DB	0dfH
	DB	03eH
	DB	0dfH
	DB	03eH
	DB	0dfH
	DB	03dH
	DB	0dfH
	DB	03eH
	DB	0dfH
	DB	03eH
	DB	0dfH
	DB	03eH
	DB	0dfH
	DB	03eH
	DB	0dfH
	DB	03eH
	DB	0dfH
	DB	03eH
	DB	0dfH
	DB	05eH
	DB	0dfH
	DB	03dH
	DB	0dfH
	DB	03eH
	DB	0dfH
	DB	05eH
	DB	0dfH
	DB	05dH
	DB	0dfH
	DB	05eH
	DB	0e7H
	DB	05eH
	DB	0dfH
	DB	03dH
	DB	0dfH
	DB	05eH
	DB	0e7H
	DB	03dH
	DB	0e7H
	DB	05eH
	DB	0dfH
	DB	05eH
	DB	0dfH
	DB	03eH
	DB	0e7H
	DB	05eH
	DB	0dfH
	DB	03eH
	DB	0dfH
	DB	03eH
	DB	0e7H
	DB	05eH
	DB	0e7H
	DB	05eH
	DB	0dfH
	DB	05eH
	DB	0e7H
	DB	05eH
	DB	0e7H
	DB	03eH
	DB	0e7H
	DB	05eH
	DB	0dfH
	DB	05eH
	DB	0e7H
	DB	03eH
	DB	0e7H
	DB	05eH
	DB	0dfH
	DB	05eH
	DB	0dfH
	DB	03eH
	DB	0e7H
	DB	05eH
	DB	0e7H
	DB	05eH
	DB	0dfH
	DB	05eH
	DB	0e7H
	DB	03eH
	DB	0dfH
	DB	05eH
	DB	0e7H
	DB	05eH
	DB	0e7H
	DB	05eH
	DB	0e7H
	DB	05eH
	DB	0e7H
	DB	05eH
	DB	0dfH
	DB	05eH
	DB	0e7H
	DB	05eH
	DB	0e7H
	DB	05eH
	DB	0e7H
	DB	05eH
	DB	0e7H
	DB	05eH
	DB	0dfH
	DB	05eH
	DB	0dfH
	DB	05eH
	DB	0e7H
	DB	05eH
	DB	0dfH
	DB	05eH
	DB	0e7H
	DB	05eH
	DB	0e7H
	DB	05eH
	DB	0dfH
	DB	05eH
	DB	0dfH
	DB	05eH
	DB	0dfH
	DB	05eH
	DB	0e7H
	DB	05eH
	DB	0dfH
	DB	05eH
	DB	0dfH
	DB	05eH
	DB	0e7H
	DB	05eH
	DB	0dfH
	DB	05eH
	DB	0e7H
	DB	05eH
	DB	0e7H
	DB	05eH
	DB	0e7H
	DB	05eH
	DB	0dfH
	DB	05eH
	DB	0e7H
	DB	05eH
	DB	0e7H
	DB	05eH
	DB	0e7H
	DB	05dH
	DB	0e7H
	DB	05eH
	DB	0e7H
	DB	05eH
	DB	0e7H
	DB	05eH
	DB	0e7H
	DB	05eH
	DB	0e7H
	DB	05eH
	DB	0e7H
	DB	05eH
	DB	0dfH
	DB	05eH
	DB	0e7H
	DB	03eH
	DB	0dfH
	DB	05eH
	DB	0dfH
	DB	05eH
	DB	0e7H
	DB	05dH
	DB	0dfH
	DB	05eH
	DB	0e7H
	DB	03eH
	DB	0dfH
	DB	05eH
	DB	0e7H
	DB	05eH
	DB	0e7H
	DB	03eH
	DB	0e7H
	DB	05dH
	DB	0e7H
	DB	05eH
	DB	0dfH
	DB	05eH
	DB	0e7H
	DB	05dH
	DB	0dfH
	DB	05eH
	DB	0dfH
	DB	03eH
	DB	0e7H
	DB	05eH
	DB	0dfH
	DB	05eH
	DB	0dfH
	DB	03eH
	DB	0e7H
	DB	03eH
	DB	0e7H
	DB	03eH
	DB	0dfH
	DB	05dH
	DB	0e7H
	DB	03eH
	DB	0dfH
	DB	05eH
	DB	0dfH
	DB	05dH
	DB	0e7H
	DB	03eH
	DB	0e7H
	DB	05eH
	DB	0dfH
	DB	03eH
	DB	0dfH
	DB	03eH
	DB	0dfH
	DB	05dH
	DB	0dfH
	DB	03eH
	DB	0dfH
	DB	03dH
	DB	0dfH
	DB	03eH
	DB	0dfH
	DB	03eH
	DB	0dfH
	DB	03eH
	DB	0dfH
	DB	03eH
	DB	0dfH
	DB	03eH
	DB	0dfH
	DB	03dH
	DB	0dfH
	DB	03eH
	DB	0dfH
	DB	03eH
	DB	0dfH
	DB	03dH
	DB	0dfH
	DB	03eH
	DB	0dfH
	DB	03dH
	DB	0dfH
	DB	03dH
	DB	0dfH
	DB	03eH
	DB	0dfH
	DB	03dH
	DB	0dfH
	DB	03eH
	DB	0dfH
	DB	01eH
	DB	0dfH
	DB	03eH
	DB	0dfH
	DB	01eH
	DB	0d7H
	DB	03dH
	DB	0dfH
	DB	03eH
	DB	0dfH
	DB	03eH
	DB	0dfH
	DB	03dH
	DB	0dfH
	DB	03dH
	DB	0d7H
	DB	01eH
	DB	0d7H
	DB	03dH
	DB	0dfH
	DB	01eH
	DB	0dfH
	DB	01dH
	DB	0dfH
	DB	03eH
	DB	0d7H
	DB	03eH
	DB	0dfH
	DB	01dH
	DB	0d7H
	DB	03eH
	DB	0dfH
	DB	01dH
	DB	0dfH
	DB	01dH
	DB	0d7H
	DB	01eH
	DB	0d7H
	DB	01dH
	DB	0dfH
	DB	01eH
	DB	0d7H
	DB	01eH
	DB	0d7H
	DB	01dH
	DB	0d7H
	DB	01dH
	DB	0d7H
	DB	01dH
	DB	0d7H
	DB	0fdH
	DB	0d6H
	DB	01dH
	DB	0d7H
	DB	0fdH
	DB	0d6H
	DB	0fdH
	DB	0d6H
	DB	0fdH
	DB	0ceH
	DB	0fdH
	DB	0ceH
	DB	0fdH
	DB	0d6H
	DB	0fdH
	DB	0ceH
	DB	0fdH
	DB	0d6H
	DB	0fdH
	DB	0ceH
	DB	0ddH
	DB	0ceH
	DB	0fcH
	DB	0ceH
	DB	0ddH
	DB	0ceH
	DB	0dcH
	DB	0ceH
	DB	0ddH
	DB	0ceH
	DB	0ddH
	DB	0ceH
	DB	0ddH
	DB	0ceH
	DB	0ddH
	DB	0c6H
	DB	0dcH
	DB	0ceH
	DB	0bdH
	DB	0ceH
	DB	0ddH
	DB	0c6H
	DB	0dcH
	DB	0ceH
	DB	0bcH
	DB	0c6H
	DB	0bdH
	DB	0c6H
	DB	0bcH
	DB	0c6H
	DB	0bcH
	DB	0c6H
	DB	0bdH
	DB	0c6H
	DB	0bcH
	DB	0c6H
	DB	0bdH
	DB	0c6H
	DB	0bcH
	DB	0c6H
	DB	0bcH
	DB	0beH
	DB	09cH
	DB	0beH
	DB	09cH
	DB	0c6H
	DB	09cH
	DB	0beH
	DB	09cH
	DB	0c6H
	DB	09cH
	DB	0beH
	DB	09cH
	DB	0beH
	DB	09cH
	DB	0beH
	DB	07cH
	DB	0beH
	DB	09cH
	DB	0beH
	DB	07bH
	DB	0beH
	DB	07cH
	DB	0beH
	DB	07cH
	DB	0beH
	DB	07cH
	DB	0beH
	DB	07bH
	DB	0beH
	DB	07cH
	DB	0b6H
	DB	07cH
	DB	0beH
	DB	07bH
	DB	0b6H
	DB	05bH
	DB	0b6H
	DB	07cH
	DB	0b6H
	DB	07bH
	DB	0b6H
	DB	05cH
	DB	0b6H
	DB	05bH
	DB	0b6H
	DB	05bH
	DB	0b6H
	DB	05cH
	DB	0b6H
	DB	05bH
	DB	0b6H
	DB	05bH
	DB	0aeH
	DB	05cH
	DB	0b6H
	DB	05bH
	DB	0aeH
	DB	05bH
	DB	0b6H
	DB	03bH
	DB	0aeH
	DB	05cH
	DB	0b6H
	DB	05bH
	DB	0aeH
	DB	03bH
	DB	0aeH
	DB	03bH
	DB	0b6H
	DB	03bH
	DB	0aeH
	DB	03bH
	DB	0aeH
	DB	03bH
	DB	0aeH
	DB	03bH
	DB	0aeH
	DB	03bH
	DB	0aeH
	DB	01bH
	DB	0aeH
	DB	03bH
	DB	0aeH
	DB	03bH
	DB	0aeH
	DB	03bH
	DB	0aeH
	DB	01bH
	DB	0aeH
	DB	03bH
	DB	0aeH
	DB	01bH
	DB	0aeH
	DB	01bH
	DB	0aeH
	DB	03bH
	DB	0aeH
	DB	03aH
	DB	0aeH
	DB	01bH
	DB	0aeH
	DB	03bH
	DB	0aeH
	DB	03bH
	DB	0aeH
	DB	01bH
	DB	0aeH
	DB	03aH
	DB	0aeH
	DB	01bH
	DB	0a6H
	DB	01bH
	DB	0aeH
	DB	03bH
	DB	0aeH
	DB	01bH
	DB	0aeH
	DB	03bH
	DB	0aeH
	DB	03bH
	DB	0aeH
	DB	01bH
	DB	0aeH
	DB	03aH
	DB	0aeH
	DB	03bH
	DB	0aeH
	DB	01bH
	DB	0a6H
	DB	01aH
	DB	0aeH
	DB	03bH
	DB	0aeH
	DB	01bH
	DB	0a6H
	DB	03bH
	DB	0aeH
	DB	03aH
	DB	0aeH
	DB	01bH
	DB	0aeH
	DB	03bH
	DB	0a6H
	DB	01bH
	DB	0aeH
	DB	03bH
	DB	0aeH
	DB	03bH
	DB	0aeH
	DB	01bH
	DB	0aeH
	DB	03bH
	DB	0aeH
	DB	01aH
	DB	0aeH
	DB	01bH
	DB	0aeH
	DB	03bH
	DB	0a6H
	DB	01aH
	DB	0aeH
	DB	01bH
	DB	0aeH
	DB	03bH
	DB	0a6H
	DB	03bH
	DB	0aeH
	DB	01aH
	DB	0aeH
	DB	03bH
	DB	0aeH
	DB	03bH
	DB	0a6H
	DB	01bH
	DB	0aeH
	DB	01bH
	DB	0aeH
	DB	03bH
	DB	0aeH
	DB	01bH
	DB	0aeH
	DB	03bH
	DB	0aeH
	DB	03aH
	DB	0aeH
	DB	01bH
	DB	0aeH
	DB	01bH
	DB	0a6H
	DB	03aH
	DB	0aeH
	DB	01bH
	DB	0aeH
	DB	03bH
	DB	0a6H
	DB	03bH
	DB	0aeH
	DB	01aH
	DB	0aeH
	DB	01bH
	DB	0aeH
	DB	03bH
	DB	0a6H
	DB	01bH
	DB	0aeH
	DB	01bH
	DB	0aeH
	DB	03bH
	DB	0aeH
	DB	03bH
	DB	0aeH
	DB	03bH
	DB	0aeH
	DB	01aH
	DB	0aeH
	DB	03bH
	DB	0aeH
	DB	01bH
	DB	0a6H
	DB	03aH
	DB	0aeH
	DB	01bH
	DB	0aeH
	DB	01bH
	DB	0a6H
	DB	03bH
	DB	0aeH
	DB	03bH
	DB	0aeH
	DB	01bH
	DB	0aeH
	DB	03bH
	DB	0aeH
	DB	01bH
	DB	0aeH
	DB	01bH
	DB	0aeH
	DB	01bH
	DB	0aeH
	DB	01bH
	DB	0aeH
	DB	03aH
	DB	0a6H
	DB	01bH
	DB	0aeH
	DB	01bH
	DB	0aeH
	DB	03bH
	DB	0a6H
	DB	03bH
	DB	0aeH
	DB	01bH
	DB	0aeH
	DB	01aH
	DB	0aeH
	DB	03bH
	DB	0aeH
	DB	01bH
	DB	0aeH
	DB	03aH
	DB	0aeH
	DB	03bH
	DB	0a6H
	DB	01bH
	DB	0aeH
	DB	03bH
	DB	0aeH
	DB	01bH
	DB	0aeH
	DB	03aH
	DB	0aeH
	DB	03bH
	DB	0aeH
	DB	01bH
	DB	0aeH
	DB	01bH
	DB	0aeH
	DB	03aH
	DB	0aeH
	DB	03bH
	DB	0aeH
	DB	01bH
	DB	0aeH
	DB	03bH
	DB	0aeH
	DB	01bH
	DB	0aeH
	DB	01bH
	DB	0aeH
	DB	03bH
	DB	0aeH
	DB	01bH
	DB	0aeH
	DB	01bH
	DB	0aeH
	DB	01bH
	DB	0aeH
	DB	03bH
	DB	0aeH
	DB	01bH
	DB	0aeH
	DB	03bH
	DB	0aeH
	DB	01bH
	DB	0aeH
	DB	03bH
	DB	0aeH
	DB	03bH
	DB	0aeH
	DB	01bH
	DB	0aeH
	DB	01bH
	DB	0aeH
	DB	03bH
	DB	0aeH
	DB	01bH
	DB	0aeH
	DB	03bH
	DB	0aeH
	DB	01bH
	DB	0aeH
	DB	03bH
	DB	0aeH
	DB	01bH
	DB	0aeH
	DB	01bH
	DB	0aeH
	DB	03bH
	DB	0aeH
	DB	01bH
	DB	0aeH
	DB	03bH
	DB	0aeH
	DB	03bH
	DB	0aeH
	DB	01bH
	DB	0aeH
	DB	03bH
	DB	0aeH
	DB	03bH
	DB	0aeH
	DB	01bH
	DB	0aeH
	DB	03bH
	DB	0aeH
	DB	03bH
	DB	0aeH
	DB	01bH
	DB	0aeH
	DB	03bH
	DB	0aeH
	DB	01bH
	DB	0aeH
	DB	03bH
	DB	0aeH
	DB	01bH
	DB	0aeH
	DB	01bH
	DB	0aeH
	DB	03bH
	DB	0aeH
	DB	01bH
	DB	0aeH
	DB	03bH
	DB	0aeH
	DB	03bH
	DB	0aeH
	DB	01bH
	DB	0aeH
	DB	03bH
	DB	0aeH
	DB	01bH
	DB	0aeH
	DB	03bH
	DB	0aeH
	DB	01bH
	DB	0aeH
	DB	01bH
	DB	0aeH
	DB	03bH
	DB	0aeH
	DB	01bH
	DB	0aeH
	DB	01bH
	DB	0aeH
	DB	03bH
	DB	0aeH
	DB	03bH
	DB	0aeH
	DB	03bH
	DB	0aeH
	DB	03aH
	DB	0aeH
	DB	03bH
	DB	0aeH
	DB	03bH
	DB	0aeH
	DB	03bH
	DB	0aeH
	DB	03bH
	DB	0aeH
	DB	03bH
	DB	0aeH
	DB	03bH
	DB	0aeH
	DB	03bH
	DB	0b6H
	DB	03bH
	DB	0b6H
	DB	05bH
	DB	0aeH
	DB	05bH
	DB	0b6H
	DB	03bH
	DB	0aeH
	DB	05bH
	DB	0b6H
	DB	05bH
	DB	0aeH
	DB	05cH
	DB	0b6H
	DB	03bH
	DB	0b6H
	DB	05cH
	DB	0b6H
	DB	05bH
	DB	0b6H
	DB	05cH
	DB	0b6H
	DB	05bH
	DB	0b6H
	DB	05bH
	DB	0b6H
	DB	07cH
	DB	0b6H
	DB	07cH
	DB	0b6H
	DB	05bH
	DB	0b6H
	DB	07bH
	DB	0beH
	DB	07cH
	DB	0beH
	DB	07bH
	DB	0b6H
	DB	07cH
	DB	0beH
	DB	07cH
	DB	0beH
	DB	07bH
	DB	0beH
	DB	07cH
	DB	0beH
	DB	09bH
	DB	0beH
	DB	09cH
	DB	0beH
	DB	07cH
	DB	0beH
	DB	09cH
	DB	0beH
	DB	09cH
	DB	0beH
	DB	09cH
	DB	0beH
	DB	09cH
	DB	0beH
	DB	09cH
	DB	0beH
	DB	09cH
	DB	0c6H
	DB	09cH
	DB	0beH
	DB	0bcH
	DB	0c6H
	DB	09cH
	DB	0c6H
	DB	0bcH
	DB	0c6H
	DB	0bcH
	DB	0c6H
	DB	09dH
	DB	0c6H
	DB	0bcH
	DB	0c6H
	DB	0bdH
	DB	0c6H
	DB	0bcH
	DB	0c6H
	DB	0bcH
	DB	0c6H
	DB	0ddH
	DB	0c6H
	DB	0ddH
	DB	0ceH
	DB	0bcH
	DB	0c6H
	DB	0dcH
	DB	0ceH
	DB	0ddH
	DB	0ceH
	DB	0ddH
	DB	0ceH
	DB	0dcH
	DB	0ceH
	DB	0ddH
	DB	0ceH
	DB	0ddH
	DB	0ceH
	DB	0dcH
	DB	0ceH
	DB	0fdH
	DB	0ceH
	DB	0fdH
	DB	0ceH
	DB	0fdH
	DB	0ceH
	DB	0fdH
	DB	0ceH
	DB	0fdH
	DB	0ceH
	DB	0fdH
	DB	0d6H
	DB	0fdH
	DB	0d6H
	DB	0fdH
	DB	0ceH
	DB	0fdH
	DB	0d6H
	DB	0fdH
	DB	0d6H
	DB	01dH
	DB	0d7H
	DB	01dH
	DB	0d7H
	DB	01dH
	DB	0d7H
	DB	01dH
	DB	0d7H
	DB	01dH
	DB	0d7H
	DB	01eH
	DB	0d7H
	DB	01dH
	DB	0d7H
	DB	01dH
	DB	0d7H
	DB	01eH
	DB	0dfH
	DB	01dH
	DB	0d7H
	DB	01eH
	DB	0dfH
	DB	01dH
	DB	0d7H
	DB	01dH
	DB	0d7H
	DB	03eH
	DB	0dfH
	DB	03eH
	DB	0d7H
	DB	01dH
	DB	0dfH
	DB	03eH
	DB	0dfH
	DB	01dH
	DB	0d7H
	DB	03dH
	DB	0dfH
	DB	01eH
	DB	0dfH
	DB	03eH
	DB	0d7H
	DB	03dH
	DB	0dfH
	DB	03eH
	DB	0dfH
	DB	01eH
	DB	0dfH
	DB	03dH
	DB	0dfH
	DB	03eH
	DB	0dfH
	DB	03dH
	DB	0dfH
	DB	03dH
	DB	0dfH
	DB	03eH
	DB	0dfH
	DB	03dH
	DB	0dfH
	DB	03dH
	DB	0dfH
	DB	03eH
	DB	0dfH
	DB	03eH
	DB	0dfH
	DB	03eH
	DB	0dfH
	DB	03dH
	DB	0dfH
	DB	03eH
	DB	0dfH
	DB	03eH
	DB	0dfH
	DB	03eH
	DB	0dfH
	DB	03dH
	DB	0dfH
	DB	03eH
	DB	0dfH
	DB	03eH
	DB	0dfH
	DB	03dH
	DB	0dfH
	DB	03eH
	DB	0dfH
	DB	05eH
	DB	0dfH
	DB	03eH
	DB	0dfH
	DB	05dH
	DB	0dfH
	DB	05eH
	DB	0e7H
	DB	03eH
	DB	0dfH
	DB	03dH
	DB	0dfH
	DB	05eH
	DB	0e7H
	DB	03eH
	DB	0e7H
	DB	03eH
	DB	0dfH
	DB	05eH
	DB	0dfH
	DB	03eH
	DB	0dfH
	DB	05eH
	DB	0e7H
	DB	03eH
	DB	0dfH
	DB	05dH
	DB	0dfH
	DB	05eH
	DB	0e7H
	DB	05eH
	DB	0dfH
	DB	05dH
	DB	0e7H
	DB	05eH
	DB	0dfH
	DB	05eH
	DB	0dfH
	DB	03dH
	DB	0e7H
	DB	05eH
	DB	0dfH
	DB	05eH
	DB	0dfH
	DB	05eH
	DB	0e7H
	DB	03eH
	DB	0dfH
	DB	05dH
	DB	0dfH
	DB	05eH
	DB	0e7H
	DB	03eH
	DB	0dfH
	DB	05dH
	DB	0e7H
	DB	05eH
	DB	0e7H
	DB	05eH
	DB	0e7H
	DB	03dH
	DB	0e7H
	DB	05eH
	DB	0dfH
	DB	05eH
	DB	0e7H
	DB	05eH
	DB	0dfH
	DB	05eH
	DB	0e7H
	DB	05eH
	DB	0e7H
	DB	05eH
	DB	0dfH
	DB	05eH
	DB	0dfH
	DB	05eH
	DB	0dfH
	DB	05eH
	DB	0dfH
	DB	05eH
	DB	0e7H
	DB	05eH
	DB	0e7H
	DB	05eH
	DB	0dfH
	DB	05eH
	DB	0e7H
	DB	05eH
	DB	0dfH
	DB	05eH
	DB	0e7H
	DB	05eH
	DB	0e7H
	DB	05eH
	DB	0dfH
	DB	05eH
	DB	0e7H
	DB	05eH
	DB	0e7H
	DB	05eH
	DB	0dfH
	DB	05eH
	DB	0e7H
	DB	05eH
	DB	0e7H
	DB	05eH
	DB	0dfH
	DB	05eH
	DB	0e7H
	DB	05eH
	DB	0dfH
	DB	05eH
	DB	0e7H
	DB	05eH
	DB	0dfH
	DB	05eH
	DB	0e7H
	DB	05eH
	DB	0dfH
	DB	05eH
	DB	0dfH
	DB	05eH
	DB	0e7H
	DB	05eH
	DB	0dfH
	DB	05eH
	DB	0dfH
	DB	05eH
	DB	0e7H
	DB	05eH
	DB	0dfH
	DB	05eH
	DB	0e7H
	DB	05eH
	DB	0dfH
	DB	05dH
	DB	0e7H
	DB	05eH
	DB	0e7H
	DB	05eH
	DB	0e7H
	DB	05dH
	DB	0e7H
	DB	05eH
	DB	0e7H
	DB	05eH
	DB	0e7H
	DB	05eH
	DB	0dfH
	DB	03eH
	DB	0dfH
	DB	05dH
	DB	0dfH
	DB	05eH
	DB	0e7H
	DB	05eH
	DB	0dfH
	DB	05eH
	DB	0dfH
	DB	03eH
	DB	0e7H
	DB	05eH
	DB	0e7H
	DB	05eH
	DB	0dfH
	DB	05eH
	DB	0e7H
	DB	05dH
	DB	0e7H
	DB	05eH
	DB	0dfH
	DB	05eH
	DB	0dfH
	DB	05eH
	DB	0dfH
	DB	03eH
	DB	0dfH
	DB	05eH
	DB	0e7H
	DB	03eH
	DB	0dfH
	DB	03eH
	DB	0dfH
	DB	03eH
	DB	0e7H
	DB	05eH
	DB	0dfH
	DB	03eH
	DB	0dfH
	DB	03eH
	DB	0dfH
	DB	05eH
	DB	0e7H
	DB	05eH
	DB	0dfH
	DB	03eH
	DB	0dfH
	DB	03eH
	DB	0e7H
	DB	05dH
	DB	0dfH
	DB	05eH
	DB	0dfH
	DB	03dH
	DB	0dfH
	DB	03eH
	DB	0dfH
	DB	03eH
	DB	0dfH
	DB	03eH
	DB	0dfH
	DB	03eH
	DB	0dfH
	DB	03eH
	DB	0dfH
	DB	03dH
	DB	0dfH
	DB	03eH
	DB	0dfH
	DB	03eH
	DB	0dfH
	DB	03eH
	DB	0dfH
	DB	03eH
	DB	0dfH
	DB	03eH
	DB	0dfH
	DB	03dH
	DB	0dfH
	DB	03dH
	DB	0dfH
	DB	03eH
	DB	0dfH
	DB	03dH
	DB	0dfH
	DB	03eH
	DB	0dfH
	DB	01eH
	DB	0dfH
	DB	03dH
	DB	0dfH
	DB	03eH
	DB	0dfH
	DB	03eH
	DB	0dfH
	DB	03dH
	DB	0dfH
	DB	01eH
	DB	0dfH
	DB	03eH
	DB	0d7H
	DB	03dH
	DB	0dfH
	DB	01dH
	DB	0dfH
	DB	03eH
	DB	0d7H
	DB	03dH
	DB	0d7H
	DB	01eH
	DB	0dfH
	DB	01dH
	DB	0d7H
	DB	03dH
	DB	0dfH
	DB	01eH
	DB	0dfH
	DB	01dH
	DB	0d7H
	DB	01dH
	DB	0d7H
	DB	01eH
	DB	0dfH
	DB	01dH
	DB	0d7H
	DB	01eH
	DB	0d7H
	DB	01dH
	DB	0d7H
	DB	01eH
	DB	0d7H
	DB	01dH
	DB	0d7H
	DB	0fdH
	DB	0d6H
	DB	01dH
	DB	0d7H
	DB	01dH
	DB	0d7H
	DB	0fdH
	DB	0d6H
	DB	0fdH
	DB	0d6H
	DB	0fdH
	DB	0d6H
	DB	0fdH
	DB	0ceH
	DB	0fdH
	DB	0ceH
	DB	0fdH
	DB	0d6H
	DB	0fdH
	DB	0ceH
	DB	0ddH
	DB	0ceH
	DB	0fdH
	DB	0ceH
	DB	0ddH
	DB	0ceH
	DB	0dcH
	DB	0ceH
	DB	0ddH
	DB	0ceH
	DB	0dcH
	DB	0ceH
	DB	0ddH
	DB	0ceH
	DB	0dcH
	DB	0c6H
	DB	0dcH
	DB	0ceH
	DB	0bdH
	DB	0ceH
	DB	0bdH
	DB	0c6H
	DB	0dcH
	DB	0c6H
	DB	0bdH
	DB	0c6H
	DB	0bcH
	DB	0c6H
	DB	0bcH
	DB	0c6H
	DB	0bcH
	DB	0c6H
	DB	0bcH
	DB	0c6H
	DB	09cH
	DB	0c6H
	DB	0bcH
	DB	0c6H
	DB	09cH
	DB	0c6H
	DB	0bcH
	DB	0c6H
	DB	09cH
	DB	0beH
	DB	09cH
	DB	0c6H
	DB	09cH
	DB	0beH
	DB	09cH
	DB	0beH
	DB	09cH
	DB	0beH
	DB	09cH
	DB	0beH
	DB	09cH
	DB	0beH
	DB	07cH
	DB	0beH
	DB	09cH
	DB	0beH
	DB	09cH
	DB	0beH
	DB	07cH
	DB	0b6H
	DB	07cH
	DB	0beH
	DB	07bH
	DB	0beH
	DB	07cH
	DB	0b6H
	DB	07cH
	DB	0beH
	DB	07cH
	DB	0beH
	DB	07bH
	DB	0b6H
	DB	05cH
	DB	0beH
	DB	07cH
	DB	0b6H
	DB	07bH
	DB	0b6H
	DB	05bH
	DB	0b6H
	DB	05cH
	DB	0b6H
	DB	05bH
	DB	0b6H
	DB	05cH
	DB	0b6H
	DB	05bH
	DB	0b6H
	DB	03bH
	DB	0b6H
	DB	05bH
	DB	0b6H
	DB	05cH
	DB	0aeH
	DB	03bH
	DB	0b6H
	DB	03bH
	DB	0b6H
	DB	05bH
	DB	0aeH
	DB	05bH
	DB	0aeH
	DB	03bH
	DB	0b6H
	DB	03bH
	DB	0b6H
	DB	03bH
	DB	0aeH
	DB	03bH
	DB	0aeH
	DB	03bH
	DB	0aeH
	DB	03bH
	DB	0aeH
	DB	03bH
	DB	0aeH
	DB	01bH
	DB	0aeH
	DB	03aH
	DB	0aeH
	DB	03bH
	DB	0aeH
	DB	03bH
	DB	0a6H
	DB	01aH
	DB	0aeH
	DB	03bH
	DB	0aeH
	DB	03bH
	DB	0aeH
	DB	01bH
	DB	0aeH
	DB	01bH
	DB	0aeH
	DB	03bH
	DB	0aeH
	DB	01bH
	DB	0a6H
	DB	01bH
	DB	0aeH
	DB	03bH
	DB	0aeH
	DB	03bH
	DB	0aeH
	DB	01bH
	DB	0aeH
	DB	03bH
	DB	0aeH
	DB	01bH
	DB	0aeH
	DB	01bH
	DB	0a6H
	DB	03bH
	DB	0aeH
	DB	01bH
	DB	0aeH
	DB	03bH
	DB	0aeH
	DB	01bH
	DB	0aeH
	DB	03bH
	DB	0aeH
	DB	01bH
	DB	0aeH
	DB	03bH
	DB	0aeH
	DB	03bH
	DB	0aeH
	DB	01bH
	DB	0aeH
	DB	01bH
	DB	0aeH
	DB	03bH
	DB	0aeH
	DB	03bH
	DB	0aeH
	DB	01bH
	DB	0aeH
	DB	01bH
	DB	0aeH
	DB	03bH
	DB	0aeH
	DB	01bH
	DB	0aeH
	DB	03bH
	DB	0aeH
	DB	03bH
	DB	0aeH
	DB	01bH
	DB	0aeH
	DB	03bH
	DB	0aeH
	DB	03bH
	DB	0aeH
	DB	01bH
	DB	0aeH
	DB	01bH
	DB	0aeH
	DB	03bH
	DB	0aeH
	DB	01bH
	DB	0aeH
	DB	01bH
	DB	0aeH
	DB	03bH
	DB	0aeH
	DB	01bH
	DB	0aeH
	DB	03bH
	DB	0aeH
	DB	03bH
	DB	0aeH
	DB	01bH
	DB	0aeH
	DB	01bH
	DB	0aeH
	DB	03bH
	DB	0aeH
	DB	01bH
	DB	0aeH
	DB	03bH
	DB	0aeH
	DB	03bH
	DB	0aeH
	DB	01bH
	DB	0aeH
	DB	01bH
	DB	0aeH
	DB	03bH
	DB	0aeH
	DB	01bH
	DB	0aeH
	DB	03bH
	DB	0aeH
	DB	03bH
	DB	0aeH
	DB	01bH
	DB	0aeH
	DB	03bH
	DB	0aeH
	DB	01bH
	DB	0aeH
	DB	01bH
	DB	0aeH
	DB	03bH
	DB	0aeH
	DB	01bH
	DB	0aeH
	DB	03bH
	DB	0aeH
	DB	01bH
	DB	0aeH
	DB	03bH
	DB	0aeH
	DB	03bH
	DB	0aeH
	DB	01bH
	DB	0aeH
	DB	03bH
	DB	0aeH
	DB	03aH
	DB	0aeH
	DB	01bH
	DB	0aeH
	DB	03bH
	DB	0a6H
	DB	03bH
	DB	0aeH
	DB	01bH
	DB	0aeH
	DB	03bH
	DB	0aeH
	DB	03bH
	DB	0aeH
	DB	01bH
	DB	0aeH
	DB	03bH
	DB	0aeH
	DB	03bH
	DB	0aeH
	DB	01bH
	DB	0aeH
	DB	01aH
	DB	0aeH
	DB	03bH
	DB	0aeH
	DB	01bH
	DB	0aeH
	DB	03bH
	DB	0a6H
	DB	01bH
	DB	0aeH
	DB	01bH
	DB	0aeH
	DB	03bH
	DB	0aeH
	DB	01bH
	DB	0aeH
	DB	03bH
	DB	0aeH
	DB	01bH
	DB	0aeH
	DB	03bH
	DB	0a6H
	DB	01bH
	DB	0aeH
	DB	01bH
	DB	0aeH
	DB	03bH
	DB	0a6H
	DB	01bH
	DB	0aeH
	DB	01bH
	DB	0aeH
	DB	03bH
	DB	0aeH
	DB	03bH
	DB	0a6H
	DB	01aH
	DB	0aeH
	DB	03bH
	DB	0aeH
	DB	03bH
	DB	0aeH
	DB	01aH
	DB	0aeH
	DB	03bH
	DB	0a6H
	DB	03bH
	DB	0aeH
	DB	01bH
	DB	0aeH
	DB	03aH
	DB	0a6H
	DB	01bH
	DB	0aeH
	DB	01bH
	DB	0aeH
	DB	03bH
	DB	0aeH
	DB	01bH
	DB	0aeH
	DB	03aH
	DB	0aeH
	DB	03bH
	DB	0aeH
	DB	01bH
	DB	0aeH
	DB	03aH
	DB	0a6H
	DB	01bH
	DB	0aeH
	DB	03bH
	DB	0aeH
	DB	03bH
	DB	0aeH
	DB	01bH
	DB	0a6H
	DB	03bH
	DB	0aeH
	DB	03bH
	DB	0aeH
	DB	01bH
	DB	0a6H
	DB	01aH
	DB	0aeH
	DB	03bH
	DB	0aeH
	DB	01bH
	DB	0aeH
	DB	01bH
	DB	0aeH
	DB	03aH
	DB	0aeH
	DB	01bH
	DB	0aeH
	DB	01bH
	DB	0aeH
	DB	03aH
	DB	0a6H
	DB	01bH
	DB	0aeH
	DB	03bH
	DB	0aeH
	DB	01bH
	DB	0aeH
	DB	03bH
	DB	0a6H
	DB	03bH
	DB	0aeH
	DB	01bH
	DB	0aeH
	DB	03bH
	DB	0a6H
	DB	01aH
	DB	0aeH
	DB	01bH
	DB	0aeH
	DB	03bH
	DB	0aeH
	DB	01bH
	DB	0aeH
	DB	03aH
	DB	0aeH
	DB	01bH
	DB	0aeH
	DB	03bH
	DB	0aeH
	DB	03aH
	DB	0a6H
	DB	01bH
	DB	0aeH
	DB	03bH
	DB	0aeH
	DB	03bH
	DB	0aeH
	DB	01bH
	DB	0a6H
	DB	03bH
	DB	0aeH
	DB	03bH
	DB	0aeH
	DB	01bH
	DB	0aeH
	DB	03bH
	DB	0aeH
	DB	03bH
	DB	0aeH
	DB	03bH
	DB	0aeH
	DB	03bH
	DB	0aeH
	DB	03bH
	DB	0aeH
	DB	03bH
	DB	0aeH
	DB	03bH
	DB	0aeH
	DB	03bH
	DB	0aeH
	DB	05bH
	DB	0b6H
	DB	03bH
	DB	0aeH
	DB	03bH
	DB	0b6H
	DB	05bH
	DB	0aeH
	DB	03cH
	DB	0b6H
	DB	05bH
	DB	0b6H
	DB	05bH
	DB	0b6H
	DB	03bH
	DB	0aeH
	DB	05bH
	DB	0b6H
	DB	05bH
	DB	0b6H
	DB	05bH
	DB	0b6H
	DB	05cH
	DB	0b6H
	DB	05cH
	DB	0b6H
	DB	07bH
	DB	0b6H
	DB	07cH
	DB	0b6H
	DB	05bH
	DB	0b6H
	DB	07cH
	DB	0b6H
	DB	07cH
	DB	0b6H
	DB	07cH
	DB	0beH
	DB	07bH
	DB	0b6H
	DB	07cH
	DB	0b6H
	DB	07cH
	DB	0beH
	DB	07cH
	DB	0b6H
	DB	07bH
	DB	0beH
	DB	09cH
	DB	0beH
	DB	07cH
	DB	0beH
	DB	09cH
	DB	0beH
	DB	09cH
	DB	0beH
	DB	09cH
	DB	0beH
	DB	09cH
	DB	0beH
	DB	09cH
	DB	0c6H
	DB	09cH
	DB	0c6H
	DB	09cH
	DB	0beH
	DB	0bcH
	DB	0c6H
	DB	09cH
	DB	0c6H
	DB	0bcH
	DB	0beH
	DB	0bcH
	DB	0c6H
	DB	0bdH
	DB	0c6H
	DB	0bcH
	DB	0c6H
	DB	0bdH
	DB	0c6H
	DB	0bcH
	DB	0c6H
	DB	0bcH
	DB	0c6H
	DB	0ddH
	DB	0c6H
	DB	0bdH
	DB	0ceH
	DB	0bcH
	DB	0ceH
	DB	0dcH
	DB	0c6H
	DB	0ddH
	DB	0c6H
	DB	0ddH
	DB	0ceH
	DB	0dcH
	DB	0ceH
	DB	0ddH
	DB	0ceH
	DB	0ddH
	DB	0ceH
	DB	0ddH
	DB	0ceH
	DB	0fdH
	DB	0ceH
	DB	0ddH
	DB	0ceH
	DB	0fdH
	DB	0ceH
	DB	0fdH
	DB	0ceH
	DB	0fdH
	DB	0d6H
	DB	0fdH
	DB	0d6H
	DB	0fdH
	DB	0ceH
	DB	0fdH
	DB	0d6H
	DB	0fdH
	DB	0d6H
	DB	01dH
	DB	0d7H
	DB	0fdH
	DB	0d6H
	DB	01dH
	DB	0d7H
	DB	01dH
	DB	0d7H
	DB	0fdH
	DB	0d6H
	DB	01eH
	DB	0d7H
	DB	01eH
	DB	0d7H
	DB	01dH
	DB	0d7H
	DB	01dH
	DB	0d7H
	DB	01eH
	DB	0dfH
	DB	01dH
	DB	0dfH
	DB	01dH
	DB	0d7H
	DB	03eH
	DB	0dfH
	DB	03eH
	DB	0dfH
	DB	01dH
	DB	0d7H
	DB	03eH
	DB	0dfH
	DB	01dH
	DB	0dfH
	DB	01dH
	DB	0d7H
	DB	03eH
	DB	0dfH
	DB	03eH
	DB	0d7H
	DB	03dH
	DB	0dfH
	DB	03dH
	DB	0dfH
	DB	03eH
	DB	0dfH
	DB	03dH
	DB	0d7H
	DB	01eH
	DB	0dfH
	DB	03eH
	DB	0dfH
	DB	03eH
	DB	0dfH
	DB	01eH
	DB	0dfH
	DB	03eH
	DB	0dfH
	DB	03eH
	DB	0d7H
	DB	03eH
	DB	0dfH
	DB	03dH
	DB	0dfH
	DB	03eH
	DB	0dfH
	DB	03eH
	DB	0dfH
	DB	03dH
	DB	0dfH
	DB	03eH
	DB	0dfH
	DB	03eH
	DB	0dfH
	DB	03dH
	DB	0dfH
	DB	03eH
	DB	0dfH
	DB	03eH
	DB	0dfH
	DB	03eH
	DB	0dfH
	DB	03dH
	DB	0dfH
	DB	05eH
	DB	0dfH
	DB	03eH
	DB	0dfH
	DB	03dH
	DB	0dfH
	DB	05eH
	DB	0dfH
	DB	03eH
	DB	0e7H
	DB	05eH
	DB	0dfH
	DB	03eH
	DB	0dfH
	DB	03eH
	DB	0e7H
	DB	05eH
	DB	0dfH
	DB	03eH
	DB	0dfH
	DB	05eH
	DB	0dfH
	DB	05eH
	DB	0e7H
	DB	03eH
	DB	0dfH
	DB	05eH
	DB	0dfH
	DB	05eH
	DB	0e7H
	DB	05eH
	DB	0e7H
	DB	05eH
	DB	0dfH
	DB	05eH
	DB	0e7H
	DB	05eH
	DB	0e7H
	DB	05eH
	DB	0dfH
	DB	05eH
	DB	0e7H
	DB	03eH
	DB	0e7H
	DB	05eH
	DB	0dfH
	DB	05eH
	DB	0dfH
	DB	05dH
	DB	0e7H
	DB	05eH
	DB	0e7H
	DB	05eH
	DB	0e7H
	DB	05eH
	DB	0e7H
	DB	05eH
	DB	0e7H
	DB	05eH
	DB	0e7H
	DB	05eH
	DB	0dfH
	DB	05eH
	DB	0dfH
	DB	05eH
	DB	0e7H
	DB	05eH
	DB	0dfH
	DB	05eH
	DB	0e7H
	DB	05eH
	DB	0e7H
	DB	05eH
	DB	0dfH
	DB	05eH
	DB	0dfH
	DB	05eH
	DB	0e7H
	DB	05eH
	DB	0e7H
	DB	05eH
	DB	0e7H
	DB	05eH
	DB	0e7H
	DB	05eH
	DB	0e7H
	DB	05eH
	DB	0e7H
	DB	05eH
	DB	0e7H
	DB	05eH
	DB	0e7H
	DB	05eH
	DB	0e7H
	DB	05eH
	DB	0e7H
	DB	05eH
	DB	0e7H
	DB	05eH
	DB	0e7H
	DB	05eH
	DB	0e7H
	DB	05eH
	DB	0e7H
	DB	05eH
	DB	0e7H
	DB	05eH
	DB	0e7H
	DB	05eH
	DB	0e7H
	DB	05eH
	DB	0e7H
	DB	05eH
	DB	0e7H
	DB	05eH
	DB	0e7H
	DB	05eH
	DB	0e7H
	DB	05eH
	DB	0e7H
	DB	05eH
	DB	0e7H
	DB	05eH
	DB	0e7H
	DB	05eH
	DB	0e7H
	DB	05eH
	DB	0e7H
	DB	05eH
	DB	0e7H
	DB	05eH
	DB	0dfH
	DB	05eH
	DB	0e7H
	DB	05eH
	DB	0e7H
	DB	05eH
	DB	0dfH
	DB	05eH
	DB	0e7H
	DB	05eH
	DB	0e7H
	DB	05eH
	DB	0dfH
	DB	05eH
	DB	0e7H
	DB	05eH
	DB	0dfH
	DB	05eH
	DB	0dfH
	DB	05eH
	DB	0e7H
	DB	05eH
	DB	0e7H
	DB	05eH
	DB	0e7H
	DB	05eH
	DB	0e7H
	DB	05eH
	DB	0e7H
	DB	03eH
	DB	0e7H
	DB	05eH
	DB	0dfH
	DB	05eH
	DB	0dfH
	DB	05eH
	DB	0e7H
	DB	03eH
	DB	0dfH
	DB	05eH
	DB	0e7H
	DB	03eH
	DB	0dfH
	DB	05eH
	DB	0e7H
	DB	05eH
	DB	0e7H
	DB	03eH
	DB	0e7H
	DB	05dH
	DB	0dfH
	DB	05eH
	DB	0e7H
	DB	05eH
	DB	0dfH
	DB	05eH
	DB	0dfH
	DB	03eH
	DB	0e7H
	DB	05eH
	DB	0dfH
	DB	05eH
	DB	0dfH
	DB	03eH
	DB	0e7H
	DB	05dH
	DB	0e7H
	DB	05dH
	DB	0dfH
	DB	03eH
	DB	0dfH
	DB	05eH
	DB	0e7H
	DB	05eH
	DB	0dfH
	DB	03eH
	DB	0dfH
	DB	03eH
	DB	0dfH
	DB	05eH
	DB	0dfH
	DB	03dH
	DB	0dfH
	DB	05eH
	DB	0dfH
	DB	03dH
	DB	0dfH
	DB	03eH
	DB	0dfH
	DB	03eH
	DB	0dfH
	DB	03eH
	DB	0dfH
	DB	03eH
	DB	0dfH
	DB	03dH
	DB	0dfH
	DB	03dH
	DB	0dfH
	DB	03eH
	DB	0dfH
	DB	03eH
	DB	0dfH
	DB	03eH
	DB	0dfH
	DB	03eH
	DB	0dfH
	DB	03dH
	DB	0d7H
	DB	03eH
	DB	0dfH
	DB	03dH
	DB	0dfH
	DB	03eH
	DB	0dfH
	DB	01dH
	DB	0d7H
	DB	01eH
	DB	0d7H
	DB	03dH
	DB	0dfH
	DB	03dH
	DB	0dfH
	DB	03eH
	DB	0dfH
	DB	03dH
	DB	0dfH
	DB	01eH
	DB	0d7H
	DB	01eH
	DB	0dfH
	DB	03dH
	DB	0dfH
	DB	01dH
	DB	0dfH
	DB	03eH
	DB	0dfH
	DB	03eH
	DB	0d7H
	DB	03eH
	DB	0d7H
	DB	01dH
	DB	0dfH
	DB	01dH
	DB	0dfH
	DB	03eH
	DB	0d7H
	DB	01dH
	DB	0d7H
	DB	01dH
	DB	0dfH
	DB	01dH
	DB	0d7H
	DB	01eH
	DB	0d7H
	DB	01dH
	DB	0d7H
	DB	01dH
	DB	0d7H
	DB	01dH
	DB	0d7H
	DB	01dH
	DB	0d7H
	DB	0fdH
	DB	0d6H
	DB	01dH
	DB	0d7H
	DB	0fdH
	DB	0d6H
	DB	0fdH
	DB	0d6H
	DB	0fdH
	DB	0d6H
	DB	0fdH
	DB	0ceH
	DB	0fdH
	DB	0d6H
	DB	0fdH
	DB	0ceH
	DB	0fdH
	DB	0ceH
	DB	0ddH
	DB	0ceH
	DB	0fdH
	DB	0ceH
	DB	0ddH
	DB	0ceH
	DB	0ddH
	DB	0ceH
	DB	0ddH
	DB	0ceH
	DB	0dcH
	DB	0ceH
	DB	0ddH
	DB	0ceH
	DB	0ddH
	DB	0c6H
	DB	0dcH
	DB	0ceH
	DB	0bcH
	DB	0ceH
	DB	0ddH
	DB	0c6H
	DB	0ddH
	DB	0ceH
	DB	0bcH
	DB	0c6H
	DB	0bdH
	DB	0c6H
	DB	0bdH
	DB	0c6H
	DB	0bcH
	DB	0c6H
	DB	0bcH
	DB	0c6H
	DB	0bdH
	DB	0c6H
	DB	0bcH
	DB	0c6H
	DB	09cH
	DB	0c6H
	DB	0bcH
	DB	0beH
	DB	09cH
	DB	0c6H
	DB	09cH
	DB	0c6H
	DB	09cH
	DB	0beH
	DB	09cH
	DB	0c6H
	DB	09cH
	DB	0beH
	DB	09cH
	DB	0beH
	DB	09cH
	DB	0beH
	DB	07cH
	DB	0beH
	DB	09cH
	DB	0beH
	DB	07bH
	DB	0beH
	DB	07cH
	DB	0beH
	DB	07cH
	DB	0beH
	DB	07bH
	DB	0b6H
	DB	07cH
	DB	0beH
	DB	07cH
	DB	0b6H
	DB	07bH
	DB	0b6H
	DB	05bH
	DB	0beH
	DB	05cH
	DB	0b6H
	DB	07cH
	DB	0b6H
	DB	07bH
	DB	0b6H
	DB	05bH
	DB	0b6H
	DB	05cH
	DB	0b6H
	DB	05bH
	DB	0b6H
	DB	05cH
	DB	0b6H
	DB	05bH
	DB	0b6H
	DB	05bH
	DB	0b6H
	DB	05cH
	DB	0b6H
	DB	05bH
	DB	0aeH
	DB	03bH
	DB	0b6H
	DB	03bH
	DB	0b6H
	DB	05bH
	DB	0aeH
	DB	03bH
	DB	0aeH
	DB	03bH
	DB	0b6H
	DB	03bH
	DB	0aeH
	DB	03bH
	DB	0aeH
	DB	03bH
	DB	0b6H
	DB	03bH
	DB	0aeH
	DB	03bH
	DB	0aeH
	DB	03bH
	DB	0aeH
	DB	03bH
	DB	0aeH
	DB	03bH
	DB	0aeH
	DB	03bH
	DB	0aeH
	DB	03bH
	DB	0aeH
	DB	01bH
	DB	0aeH
	DB	03bH
	DB	0a6H
	DB	01bH
	DB	0aeH
	DB	03bH
	DB	0aeH
	DB	03aH
	DB	0aeH
	DB	01bH
	DB	0aeH
	DB	01bH
	DB	0aeH
	DB	03aH
	DB	0aeH
	DB	01bH
	DB	0a6H
	DB	03bH
	DB	0aeH
	DB	03aH
	DB	0aeH
	DB	01bH
	DB	0aeH
	DB	03bH
	DB	0aeH
	DB	01aH
	DB	0aeH
	DB	01bH
	DB	0aeH
	DB	03bH
	DB	0a6H
	DB	01bH
	DB	0aeH
	DB	01bH
	DB	0aeH
	DB	03bH
	DB	0aeH
	DB	01bH
	DB	0aeH
	DB	03bH
	DB	0aeH
	DB	01aH
	DB	0aeH
	DB	01bH
	DB	0aeH
	DB	03bH
	DB	0a6H
	DB	01bH
	DB	0aeH
	DB	03aH
	DB	0aeH
	DB	03bH
	DB	0aeH
	DB	01bH
	DB	0a6H
	DB	01aH
	DB	0aeH
	DB	03bH
	DB	0aeH
	DB	01bH
	DB	0a6H
	DB	01bH
	DB	0aeH
	DB	03bH
	DB	0aeH
	DB	01bH
	DB	0aeH
	DB	03bH
	DB	0aeH
	DB	03bH
	DB	0aeH
	DB	01aH
	DB	0aeH
	DB	03bH
	DB	0aeH
	DB	03bH
	DB	0a6H
	DB	01bH
	DB	0aeH
	DB	01aH
	DB	0aeH
	DB	03bH
	DB	0aeH
	DB	03bH
	DB	0a6H
	DB	01aH
	DB	0aeH
	DB	03bH
	DB	0aeH
	DB	01bH
	DB	0a6H
	DB	01bH
	DB	0aeH
	DB	03bH
	DB	0aeH
	DB	03bH
	DB	0aeH
	DB	01bH
	DB	0aeH
	DB	03bH
	DB	0aeH
	DB	01aH
	DB	0aeH
	DB	01bH
	DB	0aeH
	DB	03bH
	DB	0a6H
	DB	01bH
	DB	0aeH
	DB	03aH
	DB	0aeH
	DB	03bH
	DB	0aeH
	DB	01bH
	DB	0a6H
	DB	03aH
	DB	0aeH
	DB	01bH
	DB	0aeH
	DB	01bH
	DB	0a6H
	DB	03bH
	DB	0aeH
	DB	01bH
	DB	0aeH
	DB	01bH
	DB	0aeH
	DB	03bH
	DB	0aeH
	DB	01bH
	DB	0aeH
	DB	01bH
	DB	0aeH
	DB	03bH
	DB	0aeH
	DB	01bH
	DB	0aeH
	DB	01aH
	DB	0aeH
	DB	03bH
	DB	0aeH
	DB	01bH
	DB	0aeH
	DB	03bH
	DB	0aeH
	DB	01bH
	DB	0aeH
	DB	03bH
	DB	0aeH
	DB	01bH
	DB	0aeH
	DB	03bH
	DB	0aeH
	DB	01bH
	DB	0aeH
	DB	03bH
	DB	0aeH
	DB	01bH
	DB	0aeH
	DB	03bH
	DB	0aeH
	DB	03bH
	DB	0aeH
	DB	01bH
	DB	0aeH
	DB	03bH
	DB	0aeH
	DB	01bH
	DB	0aeH
	DB	01bH
	DB	0aeH
	DB	03bH
	DB	0aeH
	DB	01aH
	DB	0aeH
	DB	03bH
	DB	0aeH
	DB	03bH
	DB	0aeH
	DB	01bH
	DB	0aeH
	DB	03bH
	DB	0aeH
	DB	03aH
	DB	0aeH
	DB	01bH
	DB	0aeH
	DB	01bH
	DB	0aeH
	DB	03bH
	DB	0aeH
	DB	01bH
	DB	0aeH
	DB	01bH
	DB	0a6H
	DB	03bH
	DB	0aeH
	DB	01bH
	DB	0aeH
	DB	03bH
	DB	0aeH
	DB	03bH
	DB	0aeH
	DB	01bH
	DB	0aeH
	DB	03bH
	DB	0aeH
	DB	03bH
	DB	0aeH
	DB	01aH
	DB	0a6H
	DB	03bH
	DB	0aeH
	DB	01bH
	DB	0aeH
	DB	01bH
	DB	0a6H
	DB	03bH
	DB	0aeH
	DB	03bH
	DB	0aeH
	DB	01bH
	DB	0aeH
	DB	01bH
	DB	0aeH
	DB	03aH
	DB	0aeH
	DB	01bH
	DB	0aeH
	DB	01bH
	DB	0aeH
	DB	03aH
	DB	0aeH
	DB	03bH
	DB	0aeH
	DB	01bH
	DB	0aeH
	DB	03bH
	DB	0aeH
	DB	03bH
	DB	0a6H
	DB	01bH
	DB	0aeH
	DB	03bH
	DB	0aeH
	DB	03bH
	DB	0a6H
	DB	01bH
	DB	0aeH
	DB	03bH
	DB	0aeH
	DB	01bH
	DB	0aeH
	DB	03bH
	DB	0aeH
	DB	01aH
	DB	0aeH
	DB	01bH
	DB	0aeH
	DB	03bH
	DB	0aeH
	DB	01aH
	DB	0aeH
	DB	03bH
	DB	0aeH
	DB	03bH
	DB	0aeH
	DB	01bH
	DB	0aeH
	DB	03bH
	DB	0a6H
	DB	01bH
	DB	0aeH
	DB	01bH
	DB	0aeH
	DB	03bH
	DB	0a6H
	DB	01bH
	DB	0aeH
	DB	01bH
	DB	0aeH
	DB	03bH
	DB	0aeH
	DB	01bH
	DB	0aeH
	DB	03aH
	DB	0aeH
	DB	01bH
	DB	0aeH
	DB	01bH
	DB	0aeH
	DB	03aH
	DB	0aeH
	DB	03bH
	DB	0a6H
	DB	03bH
	DB	0aeH
	DB	01bH
	DB	0aeH
	DB	03bH
	DB	0aeH
	DB	03bH
	DB	0aeH
	DB	03bH
	DB	0aeH
	DB	03bH
	DB	0aeH
	DB	03bH
	DB	0aeH
	DB	03bH
	DB	0b6H
	DB	03bH
	DB	0aeH
	DB	03bH
	DB	0aeH
	DB	05bH
	DB	0b6H
	DB	05bH
	DB	0aeH
	DB	03bH
	DB	0b6H
	DB	05bH
	DB	0b6H
	DB	05cH
	DB	0b6H
	DB	05bH
	DB	0b6H
	DB	05bH
	DB	0b6H
	DB	05cH
	DB	0b6H
	DB	05bH
	DB	0b6H
	DB	05bH
	DB	0b6H
	DB	05bH
	DB	0b6H
	DB	05cH
	DB	0b6H
	DB	07cH
	DB	0b6H
	DB	05bH
	DB	0b6H
	DB	07bH
	DB	0beH
	DB	07cH
	DB	0b6H
	DB	07cH
	DB	0beH
	DB	07bH
	DB	0beH
	DB	07cH
	DB	0beH
	DB	07cH
	DB	0beH
	DB	07cH
	DB	0beH
	DB	07cH
	DB	0beH
	DB	09cH
	DB	0beH
	DB	07cH
	DB	0beH
	DB	09cH
	DB	0beH
	DB	09cH
	DB	0beH
	DB	09cH
	DB	0beH
	DB	09cH
	DB	0beH
	DB	09cH
	DB	0c6H
	DB	09cH
	DB	0c6H
	DB	09cH
	DB	0beH
	DB	0bcH
	DB	0c6H
	DB	09cH
	DB	0c6H
	DB	0bcH
	DB	0c6H
	DB	0bcH
	DB	0c6H
	DB	0bcH
	DB	0c6H
	DB	0bcH
	DB	0c6H
	DB	0bdH
	DB	0c6H
	DB	0bcH
	DB	0c6H
	DB	0bcH
	DB	0c6H
	DB	0ddH
	DB	0c6H
	DB	0bdH
	DB	0c6H
	DB	0dcH
	DB	0ceH
	DB	0ddH
	DB	0ceH
	DB	0ddH
	DB	0ceH
	DB	0ddH
	DB	0ceH
	DB	0dcH
	DB	0ceH
	DB	0ddH
	DB	0ceH
	DB	0ddH
	DB	0ceH
	DB	0fdH
	DB	0ceH
	DB	0fdH
	DB	0ceH
	DB	0ddH
	DB	0ceH
	DB	0fdH
	DB	0ceH
	DB	0fdH
	DB	0ceH
	DB	0fdH
	DB	0d6H
	DB	0fdH
	DB	0d6H
	DB	0fdH
	DB	0d6H
	DB	0fdH
	DB	0ceH
	DB	0fdH
	DB	0d6H
	DB	01dH
	DB	0d7H
	DB	0fdH
	DB	0d6H
	DB	01dH
	DB	0d7H
	DB	01dH
	DB	0d7H
	DB	01dH
	DB	0d7H
	DB	01dH
	DB	0d7H
	DB	01eH
	DB	0d7H
	DB	01dH
	DB	0d7H
	DB	01dH
	DB	0dfH
	DB	01eH
	DB	0d7H
	DB	01dH
	DB	0dfH
	DB	01dH
	DB	0d7H
	DB	01dH
	DB	0d7H
	DB	03eH
	DB	0dfH
	DB	03dH
	DB	0d7H
	DB	01eH
	DB	0dfH
	DB	03dH
	DB	0dfH
	DB	03eH
	DB	0d7H
	DB	01eH
	DB	0dfH
	DB	03dH
	DB	0dfH
	DB	03eH
	DB	0dfH
	DB	01eH
	DB	0dfH
	DB	03dH
	DB	0dfH
	DB	03eH
	DB	0dfH
	DB	01eH
	DB	0dfH
	DB	03dH
	DB	0dfH
	DB	03dH
	DB	0dfH
	DB	03eH
	DB	0d7H
	DB	03dH
	DB	0dfH
	DB	03dH
	DB	0dfH
	DB	03eH
	DB	0dfH
	DB	03eH
	DB	0dfH
	DB	03dH
	DB	0dfH
	DB	03eH
	DB	0dfH
	DB	03eH
	DB	0dfH
	DB	03dH
	DB	0dfH
	DB	03eH
	DB	0dfH
	DB	03eH
	DB	0dfH
	DB	03eH
	DB	0dfH
	DB	03dH
	DB	0dfH
	DB	03eH
	DB	0dfH
	DB	05eH
	DB	0dfH
	DB	03eH
	DB	0dfH
	DB	03eH
	DB	0dfH
	DB	05eH
	DB	0e7H
	DB	05dH
	DB	0dfH
	DB	03eH
	DB	0dfH
	DB	05dH
	DB	0e7H
	DB	03eH
	DB	0dfH
	DB	05eH
	DB	0dfH
	DB	05eH
	DB	0e7H
	DB	03eH
	DB	0e7H
	DB	05eH
	DB	0dfH
	DB	03dH
	DB	0dfH
	DB	05eH
	DB	0e7H
	DB	05eH
	DB	0e7H
	DB	05dH
	DB	0dfH
	DB	03eH
	DB	0e7H
	DB	05eH
	DB	0dfH
	DB	03eH
	DB	0e7H
	DB	03eH
	DB	0dfH
	DB	05eH
	DB	0dfH
	DB	03eH
	DB	0e7H
	DB	05eH
	DB	0dfH
	DB	05eH
	DB	0e7H
	DB	05eH
	DB	0e7H
	DB	03eH
	DB	0e7H
	DB	03eH
	DB	0e7H
	DB	05eH
	DB	0dfH
	DB	05eH
	DB	0dfH
	DB	05eH
	DB	0e7H
	DB	05eH
	DB	0dfH
	DB	05eH
	DB	0e7H
	DB	05eH
	DB	0e7H
	DB	05eH
	DB	0dfH
	DB	05eH
	DB	0e7H
	DB	05eH
	DB	0e7H
	DB	05eH
	DB	0e7H
	DB	05eH
	DB	0e7H
	DB	05eH
	DB	0e7H
	DB	05eH
	DB	0e7H
	DB	05eH
	DB	0e7H
	DB	05eH
	DB	0e7H
	DB	05eH
	DB	0e7H
	DB	05eH
	DB	0e7H
	DB	05eH
	DB	0e7H
	DB	05eH
	DB	0dfH
	DB	05eH
	DB	0e7H
	DB	05eH
	DB	0e7H
	DB	05eH
	DB	0dfH
	DB	05eH
	DB	0e7H
	DB	05eH
	DB	0dfH
	DB	05eH
	DB	0e7H
	DB	05eH
	DB	0e7H
	DB	05eH
	DB	0dfH
	DB	05eH
	DB	0e7H
	DB	05eH
	DB	0e7H
	DB	05eH
	DB	0dfH
	DB	05eH
	DB	0e7H
	DB	05eH
	DB	0e7H
	DB	05eH
	DB	0dfH
	DB	05eH
	DB	0e7H
	DB	05eH
	DB	0e7H
	DB	05eH
	DB	0dfH
	DB	05eH
	DB	0e7H
	DB	05eH
	DB	0e7H
	DB	05eH
	DB	0e7H
	DB	05eH
	DB	0e7H
	DB	05eH
	DB	0e7H
	DB	05eH
	DB	0e7H
	DB	05eH
	DB	0e7H
	DB	05eH
	DB	0e7H
	DB	05eH
	DB	0e7H
	DB	05eH
	DB	0e7H
	DB	05eH
	DB	0e7H
	DB	05eH
	DB	0e7H
	DB	05eH
	DB	0dfH
	DB	05eH
	DB	0e7H
	DB	05eH
	DB	0dfH
	DB	05eH
	DB	0dfH
	DB	05eH
	DB	0e7H
	DB	05eH
	DB	0dfH
	DB	05eH
	DB	0e7H
	DB	05eH
	DB	0e7H
	DB	05eH
	DB	0e7H
	DB	05dH
	DB	0e7H
	DB	05eH
	DB	0e7H
	DB	05eH
	DB	0e7H
	DB	05dH
	DB	0dfH
	DB	03eH
	DB	0dfH
	DB	05eH
	DB	0dfH
	DB	05eH
	DB	0e7H
	DB	05eH
	DB	0dfH
	DB	05eH
	DB	0e7H
	DB	05eH
	DB	0e7H
	DB	05eH
	DB	0dfH
	DB	05dH
	DB	0e7H
	DB	05eH
	DB	0e7H
	DB	05eH
	DB	0dfH
	DB	03dH
	DB	0dfH
	DB	03eH
	DB	0e7H
	DB	05eH
	DB	0dfH
	DB	03eH
	DB	0dfH
	DB	03eH
	DB	0e7H
	DB	05dH
	DB	0dfH
	DB	03dH
	DB	0dfH
	DB	05eH
	DB	0e7H
	DB	03eH
	DB	0dfH
	DB	05eH
	DB	0e7H
	DB	03eH
	DB	0dfH
	DB	03dH
	DB	0dfH
	DB	05eH
	DB	0dfH
	DB	03eH
	DB	0dfH
	DB	03dH
	DB	0dfH
	DB	03eH
	DB	0dfH
	DB	03eH
	DB	0dfH
	DB	03eH
	DB	0dfH
	DB	03eH
	DB	0dfH
	DB	03dH
	DB	0dfH
	DB	03dH
	DB	0dfH
	DB	03eH
	DB	0dfH
	DB	03eH
	DB	0dfH
	DB	03dH
	DB	0dfH
	DB	03eH
	DB	0dfH
	DB	03eH
	DB	0dfH
	DB	03dH
	DB	0dfH
	DB	03eH
	DB	0dfH
	DB	03eH
	DB	0dfH
	DB	03eH
	DB	0dfH
	DB	01eH
	DB	0d7H
	DB	03dH
	DB	0dfH
	DB	03dH
	DB	0dfH
	DB	03eH
	DB	0d7H
	DB	03eH
	DB	0dfH
	DB	01dH
	DB	0dfH
	DB	01eH
	DB	0d7H
	DB	03dH
	DB	0dfH
	DB	01dH
	DB	0dfH
	DB	01eH
	DB	0d7H
	DB	03eH
	DB	0d7H
	DB	01dH
	DB	0dfH
	DB	01dH
	DB	0dfH
	DB	01eH
	DB	0d7H
	DB	01dH
	DB	0d7H
	DB	01eH
	DB	0dfH
	DB	01dH
	DB	0d7H
	DB	01eH
	DB	0d7H
	DB	01dH
	DB	0d7H
	DB	01dH
	DB	0d7H
	DB	01eH
	DB	0d7H
	DB	01dH
	DB	0d7H
	DB	0fdH
	DB	0d6H
	DB	01dH
	DB	0cfH
	DB	0fdH
	DB	0d6H
	DB	0fdH
	DB	0d6H
	DB	0fdH
	DB	0d6H
	DB	0fdH
	DB	0ceH
	DB	0fdH
	DB	0d6H
	DB	0fdH
	DB	0d6H
	DB	0fcH
	DB	0ceH
	DB	0ddH
	DB	0ceH
	DB	0fdH
	DB	0ceH
	DB	0fcH
	DB	0ceH
	DB	0ddH
	DB	0ceH
	DB	0ddH
	DB	0ceH
	DB	0ddH
	DB	0ceH
	DB	0ddH
	DB	0ceH
	DB	0ddH
	DB	0c6H
	DB	0dcH
	DB	0ceH
	DB	0bcH
	DB	0ceH
	DB	0bdH
	DB	0c6H
	DB	0dcH
	DB	0ceH
	DB	0bcH
	DB	0c6H
	DB	0bdH
	DB	0c6H
	DB	0bcH
	DB	0c6H
	DB	0bcH
	DB	0c6H
	DB	0bdH
	DB	0c6H
	DB	0bcH
	DB	0c6H
	DB	0bcH
	DB	0beH
	DB	09cH
	DB	0c6H
	DB	0bcH
	DB	0c6H
	DB	09cH
	DB	0beH
	DB	09cH
	DB	0c6H
	DB	09cH
	DB	0beH
	DB	09cH
	DB	0beH
	DB	09cH
	DB	0beH
	DB	09bH
	DB	0beH
	DB	09cH
	DB	0beH
	DB	07cH
	DB	0beH
	DB	09cH
	DB	0beH
	DB	07cH
	DB	0beH
	DB	07cH
	DB	0b6H
	DB	07bH
	DB	0beH
	DB	07bH
	DB	0beH
	DB	07cH
	DB	0beH
	DB	07cH
	DB	0b6H
	DB	07bH
	DB	0b6H
	DB	07bH
	DB	0beH
	DB	05cH
	DB	0b6H
	DB	07cH
	DB	0b6H
	DB	05bH
	DB	0b6H
	DB	05bH
	DB	0b6H
	DB	05cH
	DB	0b6H
	DB	05bH
	DB	0b6H
	DB	05cH
	DB	0b6H
	DB	05bH
	DB	0b6H
	DB	05bH
	DB	0b6H
	DB	05bH
	DB	0b6H
	DB	05cH
	DB	0aeH
	DB	03cH
	DB	0b6H
	DB	05bH
	DB	0b6H
	DB	05bH
	DB	0aeH
	DB	03bH
	DB	0aeH
	DB	05bH
	DB	0b6H
	DB	03bH
	DB	0aeH
	DB	03bH
	DB	0aeH
	DB	03bH
	DB	0aeH
	DB	03bH
	DB	0aeH
	DB	03bH
	DB	0aeH
	DB	03bH
	DB	0aeH
	DB	01bH
	DB	0aeH
	DB	03bH
	DB	0aeH
	DB	03bH
	DB	0aeH
	DB	03bH
	DB	0aeH
	DB	01aH
	DB	0aeH
	DB	01bH
	DB	0aeH
	DB	03bH
	DB	0aeH
	DB	01bH
	DB	0a6H
	DB	03bH
	DB	0aeH
	DB	03bH
	DB	0aeH
	DB	01bH
	DB	0aeH
	DB	01bH
	DB	0aeH
	DB	03bH
	DB	0aeH
	DB	01bH
	DB	0aeH
	DB	03bH
	DB	0aeH
	DB	03bH
	DB	0aeH
	DB	01bH
	DB	0aeH
	DB	03bH
	DB	0aeH
	DB	03aH
	DB	0aeH
	DB	01bH
	DB	0aeH
	DB	03bH
	DB	0aeH
	DB	03aH
	DB	0a6H
	DB	01bH
	DB	0aeH
	DB	01bH
	DB	0aeH
	DB	03bH
	DB	0a6H
	DB	03bH
	DB	0aeH
	DB	01bH
	DB	0aeH
	DB	01bH
	DB	0aeH
	DB	03bH
	DB	0aeH
	DB	01bH
	DB	0aeH
	DB	03bH
	DB	0aeH
	DB	03bH
	DB	0aeH
	DB	01bH
	DB	0aeH
	DB	03aH
	DB	0aeH
	DB	03bH
	DB	0aeH
	DB	01bH
	DB	0a6H
	DB	01aH
	DB	0aeH
	DB	03bH
	DB	0aeH
	DB	01bH
	DB	0a6H
	DB	01bH
	DB	0aeH
	DB	03bH
	DB	0aeH
	DB	03bH
	DB	0aeH
	DB	01bH
	DB	0aeH
	DB	01bH
	DB	0aeH
	DB	03bH
	DB	0aeH
	DB	01bH
	DB	0aeH
	DB	03bH
	DB	0aeH
	DB	03bH
	DB	0aeH
	DB	01aH
	DB	0aeH
	DB	03bH
	DB	0aeH
	DB	01bH
	DB	0a6H
	DB	01aH
	DB	0aeH
	DB	03bH
	DB	0aeH
	DB	03bH
	DB	0a6H
	DB	01bH
	DB	0aeH
	DB	03bH
	DB	0aeH
	DB	01bH
	DB	0aeH
	DB	01bH
	DB	0aeH
	DB	03bH
	DB	0aeH
	DB	01bH
	DB	0aeH
	DB	03bH
	DB	0aeH
	DB	03bH
	DB	0aeH
	DB	01bH
	DB	0aeH
	DB	03aH
	DB	0aeH
	DB	03bH
	DB	0aeH
	DB	01bH
	DB	0a6H
	DB	03aH
	DB	0aeH
	DB	03bH
	DB	0aeH
	DB	01bH
	DB	0a6H
	DB	03aH
	DB	0aeH
	DB	01bH
	DB	0aeH
	DB	03bH
	DB	0a6H
	DB	01bH
	DB	0aeH
	DB	01bH
	DB	0aeH
	DB	03bH
	DB	0a6H
	DB	01bH
	DB	0aeH
	DB	01bH
	DB	0aeH
	DB	03bH
	DB	0aeH
	DB	01aH
	DB	0a6H
	DB	01bH
	DB	0aeH
	DB	03bH
	DB	0aeH
	DB	03bH
	DB	0a6H
	DB	01bH
	DB	0aeH
	DB	01aH
	DB	0aeH
	DB	03bH
	DB	0aeH
	DB	03bH
	DB	0a6H
	DB	01aH
	DB	0aeH
	DB	03bH
	DB	0aeH
	DB	03bH
	DB	0a6H
	DB	01bH
	DB	0aeH
	DB	03bH
	DB	0aeH
	DB	01bH
	DB	0aeH
	DB	01bH
	DB	0a6H
	DB	03bH
	DB	0aeH
	DB	01bH
	DB	0aeH
	DB	03bH
	DB	0aeH
	DB	03bH
	DB	0a6H
	DB	01bH
	DB	0aeH
	DB	03bH
	DB	0aeH
	DB	03bH
	DB	0aeH
	DB	01aH
	DB	0aeH
	DB	03bH
	DB	0aeH
	DB	01bH
	DB	0aeH
	DB	01bH
	DB	0aeH
	DB	03aH
	DB	0aeH
	DB	01bH
	DB	0aeH
	DB	01bH
	DB	0aeH
	DB	03bH
	DB	0aeH
	DB	03bH
	DB	0aeH
	DB	01bH
	DB	0aeH
	DB	03bH
	DB	0aeH
	DB	01bH
	DB	0aeH
	DB	01bH
	DB	0aeH
	DB	03bH
	DB	0aeH
	DB	01bH
	DB	0aeH
	DB	03bH
	DB	0aeH
	DB	03bH
	DB	0a6H
	DB	01bH
	DB	0aeH
	DB	01bH
	DB	0aeH
	DB	03bH
	DB	0aeH
	DB	01bH
	DB	0aeH
	DB	01bH
	DB	0aeH
	DB	03bH
	DB	0aeH
	DB	01bH
	DB	0aeH
	DB	01aH
	DB	0aeH
	DB	03bH
	DB	0aeH
	DB	01bH
	DB	0aeH
	DB	03bH
	DB	0aeH
	DB	01bH
	DB	0aeH
	DB	03bH
	DB	0aeH
	DB	03bH
	DB	0aeH
	DB	01bH
	DB	0a6H
	DB	03bH
	DB	0aeH
	DB	01bH
	DB	0aeH
	DB	01bH
	DB	0aeH
	DB	03bH
	DB	0aeH
	DB	01bH
	DB	0aeH
	DB	03bH
	DB	0aeH
	DB	03bH
	DB	0aeH
	DB	01aH
	DB	0aeH
	DB	03bH
	DB	0aeH
	DB	03bH
	DB	0aeH
	DB	01bH
	DB	0aeH
	DB	03bH
	DB	0aeH
	DB	01bH
	DB	0aeH
	DB	03bH
	DB	0aeH
	DB	01bH
	DB	0a6H
	DB	03bH
	DB	0aeH
	DB	03bH
	DB	0aeH
	DB	03bH
	DB	0aeH
	DB	03bH
	DB	0aeH
	DB	03bH
	DB	0aeH
	DB	03bH
	DB	0aeH
	DB	03bH
	DB	0aeH
	DB	03bH
	DB	0aeH
	DB	03bH
	DB	0aeH
	DB	03bH
	DB	0aeH
	DB	03bH
	DB	0aeH
	DB	03bH
	DB	0b6H
	DB	05bH
	DB	0aeH
	DB	05bH
	DB	0b6H
	DB	03bH
	DB	0b6H
	DB	05bH
	DB	0aeH
	DB	05bH
	DB	0b6H
	DB	05bH
	DB	0aeH
	DB	03bH
	DB	0aeH
	DB	05cH
	DB	0b6H
	DB	05cH
	DB	0b6H
	DB	05bH
	DB	0b6H
	DB	05cH
	DB	0b6H
	DB	05cH
	DB	0b6H
	DB	05bH
	DB	0b6H
	DB	07bH
	DB	0b6H
	DB	05cH
	DB	0b6H
	DB	07bH
	DB	0b6H
	DB	07cH
	DB	0beH
	DB	05cH
	DB	0beH
	DB	07bH
	DB	0b6H
	DB	07bH
	DB	0beH
	DB	07cH
	DB	0beH
	DB	07cH
	DB	0beH
	DB	07bH
	DB	0beH
	DB	09bH
	DB	0beH
	DB	09cH
	DB	0beH
	DB	09cH
	DB	0beH
	DB	09cH
	DB	0beH
	DB	09cH
	DB	0beH
	DB	09cH
	DB	0beH
	DB	09cH
	DB	0beH
	DB	09cH
	DB	0c6H
	DB	09cH
	DB	0beH
	DB	0bcH
	DB	0c6H
	DB	09cH
	DB	0c6H
	DB	0bcH
	DB	0beH
	DB	0bcH
	DB	0c6H
	DB	0bdH
	DB	0c6H
	DB	0bcH
	DB	0c6H
	DB	0bcH
	DB	0c6H
	DB	0bdH
	DB	0c6H
	DB	0bcH
	DB	0c6H
	DB	0ddH
	DB	0c6H
	DB	0bdH
	DB	0ceH
	DB	0bcH
	DB	0ceH
	DB	0ddH
	DB	0c6H
	DB	0dcH
	DB	0c6H
	DB	0ddH
	DB	0ceH
	DB	0ddH
	DB	0ceH
	DB	0ddH
	DB	0ceH
	DB	0ddH
	DB	0ceH
	DB	0fcH
	DB	0ceH
	DB	0ddH
	DB	0ceH
	DB	0ddH
	DB	0ceH
	DB	0fcH
	DB	0ceH
	DB	0fdH
	DB	0ceH
	DB	0fdH
	DB	0d6H
	DB	0fdH
	DB	0ceH
	DB	0fdH
	DB	0d6H
	DB	0fdH
	DB	0d6H
	DB	0fdH
	DB	0d6H
	DB	01dH
	DB	0d7H
	DB	0fdH
	DB	0d6H
	DB	01dH
	DB	0d7H
	DB	01dH
	DB	0d7H
	DB	01eH
	DB	0d7H
	DB	01dH
	DB	0d7H
	DB	01eH
	DB	0d7H
	DB	01dH
	DB	0d7H
	DB	01dH
	DB	0dfH
	DB	01eH
	DB	0d7H
	DB	01dH
	DB	0dfH
	DB	03eH
	DB	0d7H
	DB	03eH
	DB	0dfH
	DB	03eH
	DB	0dfH
	DB	01dH
	DB	0d7H
	DB	01eH
	DB	0dfH
	DB	03dH
	DB	0dfH
	DB	01dH
	DB	0d7H
	DB	01eH
	DB	0dfH
	DB	03dH
	DB	0dfH
	DB	03dH
	DB	0dfH
	DB	03eH
	DB	0d7H
	DB	01dH
	DB	0dfH
	DB	03eH
	DB	0d7H
	DB	03eH
	DB	0dfH
	DB	03eH
	DB	0dfH
	DB	03dH
	DB	0dfH
	DB	03eH
	DB	0dfH
	DB	03eH
	DB	0dfH
	DB	03dH
	DB	0dfH
	DB	03eH
	DB	0dfH
	DB	03dH
	DB	0dfH
	DB	03eH
	DB	0dfH
	DB	03eH
	DB	0dfH
	DB	03eH
	DB	0dfH
	DB	03eH
	DB	0dfH
	DB	03eH
	DB	0dfH
	DB	03dH
	DB	0dfH
	DB	03eH
	DB	0dfH
	DB	05eH
	DB	0dfH
	DB	03eH
	DB	0dfH
	DB	03dH
	DB	0dfH
	DB	03eH
	DB	0dfH
	DB	05eH
	DB	0dfH
	DB	05dH
	DB	0dfH
	DB	03eH
	DB	0e7H
	DB	05eH
	DB	0dfH
	DB	05eH
	DB	0dfH
	DB	03eH
	DB	0e7H
	DB	05eH
	DB	0dfH
	DB	03dH
	DB	0dfH
	DB	05eH
	DB	0e7H
	DB	05eH
	DB	0dfH
	DB	05eH
	DB	0dfH
	DB	05eH
	DB	0e7H
	DB	05eH
	DB	0e7H
	DB	05eH
	DB	0dfH
	DB	03eH
	DB	0e7H
	DB	05eH
	DB	0dfH
	DB	05eH
	DB	0e7H
	DB	05dH
	DB	0dfH
	DB	05eH
	DB	0e7H
	DB	05eH
	DB	0e7H
	DB	05dH
	DB	0e7H
	DB	03eH
	DB	0dfH
	DB	05eH
	DB	0e7H
	DB	05eH
	DB	0e7H
	DB	05eH
	DB	0dfH
	DB	05eH
	DB	0e7H
	DB	05eH
	DB	0e7H
	DB	05eH
	DB	0dfH
	DB	05eH
	DB	0e7H
	DB	05eH
	DB	0dfH
	DB	05eH
	DB	0e7H
	DB	05eH
	DB	0e7H
	DB	05eH
	DB	0e7H
	DB	05eH
	DB	0e7H
	DB	05eH
	DB	0e7H
	DB	05eH
	DB	0dfH
	DB	05eH
	DB	0e7H
	DB	05eH
	DB	0e7H
	DB	05eH
	DB	0dfH
	DB	05eH
	DB	0e7H
	DB	05eH
	DB	0dfH
	DB	05eH
	DB	0dfH
	DB	05eH
	DB	0e7H
	DB	05eH
	DB	0e7H
	DB	05eH
	DB	0dfH
	DB	05eH
	DB	0e7H
	DB	05eH
	DB	0e7H
	DB	05eH
	DB	0e7H
	DB	05eH
	DB	0e7H
	DB	05eH
	DB	0dfH
	DB	05eH
	DB	0e7H
	DB	05eH
	DB	0e7H
	DB	05eH
	DB	0dfH
	DB	05eH
	DB	0e7H
	DB	05eH
	DB	0e7H
	DB	05eH
	DB	0dfH
	DB	05eH
	DB	0e7H
	DB	05eH
	DB	0e7H
	DB	05eH
	DB	0dfH
	DB	05eH
	DB	0e7H
	DB	05eH
	DB	0e7H
	DB	05eH
	DB	0dfH
	DB	05eH
	DB	0e7H
	DB	05eH
	DB	0dfH
	DB	05eH
	DB	0e7H
	DB	05eH
	DB	0dfH
	DB	05eH
	DB	0e7H
	DB	05eH
	DB	0e7H
	DB	05eH
	DB	0dfH
	DB	05eH
	DB	0e7H
	DB	05eH
	DB	0dfH
	DB	05eH
	DB	0dfH
	DB	05eH
	DB	0e7H
	DB	05eH
	DB	0e7H
	DB	05eH
	DB	0e7H
	DB	05eH
	DB	0e7H
	DB	05eH
	DB	0e7H
	DB	05eH
	DB	0e7H
	DB	05eH
	DB	0e7H
	DB	05eH
	DB	0dfH
	DB	05eH
	DB	0dfH
	DB	05eH
	DB	0e7H
	DB	05eH
	DB	0dfH
	DB	05eH
	DB	0dfH
	DB	05eH
	DB	0e7H
	DB	05eH
	DB	0e7H
	DB	05eH
	DB	0e7H
	DB	05eH
	DB	0e7H
	DB	05eH
	DB	0e7H
	DB	03dH
	DB	0dfH
	DB	05eH
	DB	0dfH
	DB	03eH
	DB	0e7H
	DB	05eH
	DB	0dfH
	DB	03eH
	DB	0e7H
	DB	05eH
	DB	0dfH
	DB	05eH
	DB	0e7H
	DB	05eH
	DB	0e7H
	DB	05eH
	DB	0dfH
	DB	05eH
	DB	0dfH
	DB	05eH
	DB	0e7H
	DB	03eH
	DB	0dfH
	DB	05eH
	DB	0e7H
	DB	03eH
	DB	0dfH
	DB	05eH
	DB	0dfH
	DB	03eH
	DB	0e7H
	DB	05dH
	DB	0dfH
	DB	05eH
	DB	0dfH
	DB	03eH
	DB	0e7H
	DB	05eH
	DB	0dfH
	DB	03eH
	DB	0dfH
	DB	03eH
	DB	0e7H
	DB	05dH
	DB	0dfH
	DB	05eH
	DB	0dfH
	DB	03eH
	DB	0dfH
	DB	03dH
	DB	0dfH
	DB	03eH
	DB	0dfH
	DB	03eH
	DB	0dfH
	DB	03eH
	DB	0dfH
	DB	03dH
	DB	0dfH
	DB	03eH
	DB	0dfH
	DB	03eH
	DB	0dfH
	DB	03dH
	DB	0dfH
	DB	03eH
	DB	0dfH
	DB	03eH
	DB	0dfH
	DB	03dH
	DB	0dfH
	DB	03dH
	DB	0dfH
	DB	03eH
	DB	0dfH
	DB	01eH
	DB	0dfH
	DB	03eH
	DB	0d7H
	DB	03dH
	DB	0dfH
	DB	03dH
	DB	0dfH
	DB	03dH
	DB	0dfH
	DB	03eH
	DB	0d7H
	DB	01eH
	DB	0d7H
	DB	03dH
	DB	0dfH
	DB	01dH
	DB	0dfH
	DB	03eH
	DB	0dfH
	DB	03dH
	DB	0d7H
	DB	03eH
	DB	0d7H
	DB	03eH
	DB	0dfH
	DB	01dH
	DB	0dfH
	DB	01dH
	DB	0d7H
	DB	01eH
	DB	0dfH
	DB	01dH
	DB	0dfH
	DB	01dH
	DB	0d7H
	DB	01eH
	DB	0d7H
	DB	01dH
	DB	0d7H
	DB	01dH
	DB	0d7H
	DB	01dH
	DB	0d7H
	DB	01dH
	DB	0d7H
	DB	0fdH
	DB	0d6H
	DB	01dH
	DB	0d7H
	DB	0fdH
	DB	0ceH
	DB	0fdH
	DB	0d6H
	DB	0fdH
	DB	0d6H
	DB	0fdH
	DB	0ceH
	DB	0fdH
	DB	0d6H
	DB	0fdH
	DB	0ceH
	DB	0fdH
	DB	0ceH
	DB	0ddH
	DB	0ceH
	DB	0fdH
	DB	0ceH
	DB	0ddH
	DB	0ceH
	DB	0ddH
	DB	0ceH
	DB	0dcH
	DB	0ceH
	DB	0dcH
	DB	0ceH
	DB	0ddH
	DB	0ceH
	DB	0ddH
	DB	0c6H
	DB	0ddH
	DB	0ceH
	DB	0bcH
	DB	0c6H
	DB	0ddH
	DB	0c6H
	DB	0ddH
	DB	0ceH
	DB	0bcH
	DB	0c6H
	DB	0bcH
	DB	0c6H
	DB	0bdH
	DB	0c6H
	DB	0bcH
	DB	0c6H
	DB	0bcH
	DB	0c6H
	DB	0bdH
	DB	0c6H
	DB	0bcH
	DB	0c6H
	DB	09cH
	DB	0c6H
	DB	0bcH
	DB	0beH
	DB	09cH
	DB	0c6H
	DB	09cH
	DB	0c6H
	DB	09cH
	DB	0beH
	DB	09cH
	DB	0beH
	DB	09cH
	DB	0beH
	DB	09cH
	DB	0beH
	DB	09cH
	DB	0beH
	DB	07cH
	DB	0beH
	DB	09bH
	DB	0beH
	DB	07cH
	DB	0beH
	DB	07cH
	DB	0beH
	DB	07cH
	DB	0beH
	DB	07cH
	DB	0beH
	DB	07cH
	DB	0b6H
	DB	07cH
	DB	0beH
	DB	07cH
	DB	0b6H
	DB	07bH
	DB	0beH
	DB	05cH
	DB	0b6H
	DB	07cH
	DB	0b6H
	DB	05bH
	DB	0b6H
	DB	05bH
	DB	0b6H
	DB	05bH
	DB	0b6H
	DB	05cH
	DB	0b6H
	DB	05bH
	DB	0b6H
	DB	05bH
	DB	0aeH
	DB	05bH
	DB	0b6H
	DB	05bH
	DB	0b6H
	DB	05bH
	DB	0aeH
	DB	03bH
	DB	0b6H
	DB	05bH
	DB	0b6H
	DB	05cH
	DB	0aeH
	DB	03bH
	DB	0b6H
	DB	03bH
	DB	0b6H
	DB	03bH
	DB	0aeH
	DB	03bH
	DB	0aeH
	DB	03bH
	DB	0aeH
	DB	03bH
	DB	0aeH
	DB	03bH
	DB	0aeH
	DB	03bH
	DB	0aeH
	DB	01bH
	DB	0aeH
	DB	03bH
	DB	0aeH
	DB	03bH
	DB	0aeH
	DB	01bH
	DB	0aeH
	DB	03bH
	DB	0aeH
	DB	01bH
	DB	0aeH
	DB	01bH
	DB	0aeH
	DB	03bH
	DB	0aeH
	DB	03bH
	DB	0aeH
	DB	01bH
	DB	0aeH
	DB	03bH
	DB	0aeH
	DB	01bH
	DB	0aeH
	DB	01bH
	DB	0a6H
	DB	03bH
	DB	0aeH
	DB	01bH
	DB	0aeH
	DB	03bH
	DB	0a6H
	DB	01bH
	DB	0aeH
	DB	03bH
	DB	0aeH
	DB	01bH
	DB	0aeH
	DB	03bH
	DB	0aeH
	DB	01bH
	DB	0aeH
	DB	03bH
	DB	0aeH
	DB	03bH
	DB	0aeH
	DB	01bH
	DB	0aeH
	DB	03bH
	DB	0aeH
	DB	03aH
	DB	0aeH
	DB	01bH
	DB	0aeH
	DB	01bH
	DB	0aeH
	DB	03bH
	DB	0a6H
	DB	01bH
	DB	0aeH
	DB	01bH
	DB	0aeH
	DB	03bH
	DB	0aeH
	DB	01bH
	DB	0aeH
	DB	03bH
	DB	0aeH
	DB	01bH
	DB	0aeH
	DB	03bH
	DB	0aeH
	DB	03bH
	DB	0aeH
	DB	01bH
	DB	0aeH
	DB	03bH
	DB	0aeH
	DB	01bH
	DB	0aeH
	DB	01aH
	DB	0aeH
	DB	03bH
	DB	0aeH
	DB	03bH
	DB	0a6H
	DB	01bH
	DB	0aeH
	DB	01bH
	DB	0aeH
	DB	03bH
	DB	0aeH
	DB	01bH
	DB	0aeH
	DB	03bH
	DB	0aeH
	DB	03bH
	DB	0aeH
	DB	01bH
	DB	0aeH
	DB	01bH
	DB	0aeH
	DB	03bH
	DB	0aeH
	DB	01bH
	DB	0aeH
	DB	03bH
	DB	0aeH
	DB	03bH
	DB	0aeH
	DB	01aH
	DB	0aeH
	DB	03bH
	DB	0aeH
	DB	01bH
	DB	0a6H
	DB	01bH
	DB	0aeH
	DB	03bH
	DB	0aeH
	DB	01bH
	DB	0aeH
	DB	01bH
	DB	0aeH
	DB	03bH
	DB	0aeH
	DB	01bH
	DB	0aeH
	DB	03bH
	DB	0aeH
	DB	01bH
	DB	0aeH
	DB	01bH
	DB	0aeH
	DB	03bH
	DB	0aeH
	DB	03bH
	DB	0aeH
	DB	01bH
	DB	0aeH
	DB	03bH
	DB	0aeH
	DB	03bH
	DB	0aeH
	DB	01bH
	DB	0aeH
	DB	03aH
	DB	0aeH
	DB	01bH
	DB	0aeH
	DB	03bH
	DB	0aeH
	DB	01bH
	DB	0aeH
	DB	03bH
	DB	0aeH
	DB	01bH
	DB	0aeH
	DB	03bH
	DB	0aeH
	DB	01aH
	DB	0aeH
	DB	03bH
	DB	0aeH
	DB	01bH
	DB	0aeH
	DB	01bH
	DB	0aeH
	DB	03bH
	DB	0aeH
	DB	01bH
	DB	0aeH
	DB	03bH
	DB	0aeH
	DB	01bH
	DB	0aeH
	DB	01aH
	DB	0aeH
	DB	03bH
	DB	0aeH
	DB	03bH
	DB	0aeH
	DB	01aH
	DB	0aeH
	DB	03bH
	DB	0aeH
	DB	01bH
	DB	0aeH
	DB	01bH
	DB	0aeH
	DB	03bH
	DB	0aeH
	DB	01aH
	DB	0aeH
	DB	01bH
	DB	0aeH
	DB	03bH
	DB	0aeH
	DB	01bH
	DB	0aeH
	DB	03bH
	DB	0a6H
	DB	03bH
	DB	0aeH
	DB	01bH
	DB	0aeH
	DB	03bH
	DB	0a6H
	DB	01bH
	DB	0aeH
	DB	01bH
	DB	0aeH
	DB	03bH
	DB	0a6H
	DB	01bH
	DB	0aeH
	DB	01aH
	DB	0aeH
	DB	03bH
	DB	0aeH
	DB	03bH
	DB	0aeH
	DB	01aH
	DB	0a6H
	DB	03bH
	DB	0aeH
	DB	01bH
	DB	0aeH
	DB	03aH
	DB	0aeH
	DB	01bH
	DB	0aeH
	DB	03bH
	DB	0aeH
	DB	03bH
	DB	0aeH
	DB	01bH
	DB	0a6H
	DB	03aH
	DB	0aeH
	DB	03bH
	DB	0aeH
	DB	01bH
	DB	0a6H
	DB	03bH
	DB	0aeH
	DB	03bH
	DB	0aeH
	DB	01bH
	DB	0aeH
	DB	01bH
	DB	0aeH
	DB	03aH
	DB	0a6H
	DB	01bH
	DB	0aeH
	DB	01bH
	DB	0aeH
	DB	03aH
	DB	0aeH
	DB	03bH
	DB	0aeH
	DB	01bH
	DB	0aeH
	DB	03bH
	DB	0aeH
	DB	03bH
	DB	0a6H
	DB	01aH
	DB	0aeH
	DB	01bH
	DB	0aeH
	DB	03bH
	DB	0a6H
	DB	01bH
	DB	0aeH
	DB	01bH
	DB	0aeH
	DB	03bH
	DB	0aeH
	DB	01bH
	DB	0aeH
	DB	03aH
	DB	0a6H
	DB	03bH
	DB	0aeH
	DB	01bH
	DB	0aeH
	DB	01aH
	DB	0aeH
	DB	03bH
	DB	0aeH
	DB	01bH
	DB	0aeH
	DB	03bH
	DB	0aeH
	DB	03bH
	DB	0aeH
	DB	01aH
	DB	0aeH
	DB	01bH
	DB	0aeH
	DB	03bH
	DB	0aeH
	DB	03bH
	DB	0aeH
	DB	03bH
	DB	0aeH
	DB	03bH
	DB	0aeH
	DB	03bH
	DB	0aeH
	DB	03bH
	DB	0b6H
	DB	03bH
	DB	0aeH
	DB	05bH
	DB	0aeH
	DB	03bH
	DB	0b6H
	DB	03bH
	DB	0aeH
	DB	05cH
	DB	0b6H
	DB	05cH
	DB	0b6H
	DB	05bH
	DB	0b6H
	DB	05bH
	DB	0b6H
	DB	05bH
	DB	0b6H
	DB	05bH
	DB	0b6H
	DB	05bH
	DB	0b6H
	DB	05cH
	DB	0b6H
	DB	05cH
	DB	0b6H
	DB	07bH
	DB	0b6H
	DB	07cH
	DB	0b6H
	DB	05bH
	DB	0b6H
	DB	07cH
	DB	0beH
	DB	07cH
	DB	0b6H
	DB	07cH
	DB	0b6H
	DB	07bH
	DB	0beH
	DB	07cH
	DB	0beH
	DB	07cH
	DB	0b6H
	DB	07cH
	DB	0beH
	DB	09cH
	DB	0beH
	DB	07cH
	DB	0beH
	DB	09cH
	DB	0beH
	DB	09cH
	DB	0beH
	DB	07cH
	DB	0beH
	DB	09cH
	DB	0beH
	DB	09cH
	DB	0c6H
	DB	09cH
	DB	0c6H
	DB	09cH
	DB	0beH
	DB	0bcH
	DB	0c6H
	DB	09cH
	DB	0c6H
	DB	09cH
	DB	0c6H
	DB	0bcH
	DB	0c6H
	DB	0bcH
	DB	0c6H
	DB	0bdH
	DB	0c6H
	DB	0bdH
	DB	0c6H
	DB	0bcH
	DB	0c6H
	DB	0bcH
	DB	0c6H
	DB	0bdH
	DB	0c6H
	DB	0dcH
	DB	0c6H
	DB	0dcH
	DB	0ceH
	DB	0ddH
	DB	0ceH
	DB	0ddH
	DB	0ceH
	DB	0dcH
	DB	0ceH
	DB	0dcH
	DB	0ceH
	DB	0ddH
	DB	0ceH
	DB	0ddH
	DB	0ceH
	DB	0fcH
	DB	0ceH
	DB	0ddH
	DB	0ceH
	DB	0fdH
	DB	0ceH
	DB	0fdH
	DB	0ceH
	DB	0fdH
	DB	0ceH
	DB	0fdH
	DB	0d6H
	DB	0fdH
	DB	0d6H
	DB	0fdH
	DB	0d6H
	DB	0fdH
	DB	0ceH
	DB	0fdH
	DB	0d6H
	DB	01dH
	DB	0d7H
	DB	0fdH
	DB	0d6H
	DB	01dH
	DB	0d7H
	DB	01dH
	DB	0d7H
	DB	01dH
	DB	0d7H
	DB	01eH
	DB	0d7H
	DB	01dH
	DB	0d7H
	DB	01dH
	DB	0d7H
	DB	01eH
	DB	0dfH
	DB	01dH
	DB	0dfH
	DB	01dH
	DB	0d7H
	DB	01dH
	DB	0d7H
	DB	03eH
	DB	0dfH
	DB	03dH
	DB	0d7H
	DB	01dH
	DB	0dfH
	DB	01eH
	DB	0dfH
	DB	03eH
	DB	0d7H
	DB	03dH
	DB	0dfH
	DB	03eH
	DB	0dfH
	DB	03eH
	DB	0d7H
	DB	03dH
	DB	0dfH
	DB	03eH
	DB	0dfH
	DB	03eH
	DB	0dfH
	DB	03dH
	DB	0dfH
	DB	01eH
	DB	0dfH
	DB	03dH
	DB	0dfH
	DB	03eH
	DB	0dfH
	DB	03eH
	DB	0d7H
	DB	03dH
	DB	0dfH
	DB	03eH
	DB	0dfH
	DB	03eH
	DB	0dfH
	DB	03eH
	DB	0dfH
	DB	03dH
	DB	0dfH
	DB	03eH
	DB	0dfH
	DB	03eH
	DB	0dfH
	DB	03dH
	DB	0dfH
	DB	03eH
	DB	0dfH
	DB	03eH
	DB	0dfH
	DB	03eH
	DB	0dfH
	DB	05dH
	DB	0dfH
	DB	03eH
	DB	0dfH
	DB	03eH
	DB	0dfH
	DB	05eH
	DB	0dfH
	DB	05dH
	DB	0e7H
	DB	03eH
	DB	0dfH
	DB	05eH
	DB	0e7H
	DB	03eH
	DB	0dfH
	DB	03eH
	DB	0dfH
	DB	05eH
	DB	0e7H
	DB	03eH
	DB	0dfH
	DB	03eH
	DB	0e7H
	DB	05eH
	DB	0dfH
	DB	05eH
	DB	0e7H
	DB	05dH
	DB	0e7H
	DB	03eH
	DB	0dfH
	DB	05eH
	DB	0e7H
	DB	05eH
	DB	0dfH
	DB	03eH
	DB	0dfH
	DB	05eH
	DB	0e7H
	DB	05eH
	DB	0dfH
	DB	05eH
	DB	0e7H
	DB	05eH
	DB	0e7H
	DB	05eH
	DB	0dfH
	DB	05eH
	DB	0e7H
	DB	05eH
	DB	0e7H
	DB	05eH
	DB	0dfH
	DB	05eH
	DB	0e7H
	DB	05eH
	DB	0dfH
	DB	05eH
	DB	0dfH
	DB	05eH
	DB	0e7H
	DB	05eH
	DB	0e7H
	DB	05eH
	DB	0e7H
	DB	05eH
	DB	0e7H
	DB	05eH
	DB	0e7H
	DB	05eH
	DB	0e7H
	DB	05eH
	DB	0e7H
	DB	05eH
	DB	0dfH
	DB	05eH
	DB	0e7H
	DB	05eH
	DB	0e7H
	DB	05eH
	DB	0dfH
	DB	05eH
	DB	0e7H
	DB	05eH
	DB	0e7H
	DB	05eH
	DB	0e7H
	DB	05eH
	DB	0e7H
	DB	05eH
	DB	0e7H
	DB	05eH
	DB	0e7H
	DB	05eH
	DB	0e7H
	DB	05eH
	DB	0e7H
	DB	05eH
	DB	0e7H
	DB	05eH
	DB	0e7H
	DB	05eH
	DB	0e7H
	DB	05eH
	DB	0e7H
	DB	05eH
	DB	0e7H
	DB	05eH
	DB	0e7H
	DB	05eH
	DB	0e7H
	DB	05eH
	DB	0e7H
	DB	05eH
	DB	0e7H
	DB	05eH
	DB	0e7H
	DB	05eH
	DB	0e7H
	DB	05eH
	DB	0e7H
	DB	05eH
	DB	0e7H
	DB	05eH
	DB	0e7H
	DB	05eH
	DB	0e7H
	DB	05eH
	DB	0e7H
	DB	05eH
	DB	0e7H
	DB	05eH
	DB	0e7H
	DB	05eH
	DB	0e7H
	DB	05eH
	DB	0e7H
	DB	05eH
	DB	0e7H
	DB	05eH
	DB	0e7H
	DB	05eH
	DB	0e7H
	DB	05eH
	DB	0e7H
	DB	05eH
	DB	0e7H
	DB	05eH
	DB	0e7H
	DB	05eH
	DB	0e7H
	DB	05eH
	DB	0e7H
	DB	05eH
	DB	0e7H
	DB	05eH
	DB	0dfH
	DB	05eH
	DB	0e7H
	DB	05eH
	DB	0e7H
	DB	05eH
	DB	0e7H
	DB	05eH
	DB	0e7H
	DB	05eH
	DB	0e7H
	DB	05eH
	DB	0e7H
	DB	05eH
	DB	0e7H
	DB	05eH
	DB	0e7H
	DB	05eH
	DB	0e7H
	DB	05eH
	DB	0dfH
	DB	05eH
	DB	0dfH
	DB	05eH
	DB	0e7H
	DB	05eH
	DB	0dfH
	DB	05eH
	DB	0e7H
	DB	05eH
	DB	0e7H
	DB	05eH
	DB	0e7H
	DB	05eH
	DB	0e7H
	DB	05eH
	DB	0dfH
	DB	03dH
	DB	0e7H
	DB	05eH
	DB	0dfH
	DB	05eH
	DB	0dfH
	DB	03eH
	DB	0e7H
	DB	05eH
	DB	0e7H
	DB	05eH
	DB	0dfH
	DB	05eH
	DB	0e7H
	DB	05eH
	DB	0e7H
	DB	05eH
	DB	0dfH
	DB	05eH
	DB	0dfH
	DB	03eH
	DB	0e7H
	DB	05eH
	DB	0dfH
	DB	03eH
	DB	0dfH
	DB	03eH
	DB	0e7H
	DB	05eH
	DB	0dfH
	DB	03dH
	DB	0e7H
	DB	05eH
	DB	0dfH
	DB	05eH
	DB	0dfH
	DB	03dH
	DB	0dfH
	DB	03eH
	DB	0dfH
	DB	03eH
	DB	0dfH
	DB	05dH
	DB	0dfH
	DB	03eH
	DB	0dfH
	DB	03eH
	DB	0dfH
	DB	03eH
	DB	0dfH
	DB	03eH
	DB	0dfH
	DB	03eH
	DB	0dfH
	DB	03eH
	DB	0dfH
	DB	03dH
	DB	0dfH
	DB	03eH
	DB	0dfH
	DB	03dH
	DB	0dfH
	DB	03eH
	DB	0dfH
	DB	03eH
	DB	0dfH
	DB	03dH
	DB	0dfH
	DB	03dH
	DB	0dfH
	DB	03eH
	DB	0dfH
	DB	01eH
	DB	0dfH
	DB	03eH
	DB	0dfH
	DB	01eH
	DB	0dfH
	DB	03dH
	DB	0dfH
	DB	03dH
	DB	0dfH
	DB	03eH
	DB	0dfH
	DB	03eH
	DB	0dfH
	DB	01dH
	DB	0d7H
	DB	01eH
	DB	0dfH
	DB	01dH
	DB	0dfH
	DB	03dH
	DB	0dfH
	DB	01eH
	DB	0d7H
	DB	03dH
	DB	0d7H
	DB	03dH
	DB	0dfH
	DB	01eH
	DB	0d7H
	DB	01dH
	DB	0dfH
	DB	01dH
	DB	0d7H
	DB	01eH
	DB	0dfH
	DB	01eH
	DB	0dfH
	DB	01dH
	DB	0d7H
	DB	01eH
	DB	0d7H
	DB	01dH
	DB	0d7H
	DB	01dH
	DB	0d7H
	DB	0fdH
	DB	0d6H
	DB	01dH
	DB	0d7H
	DB	01dH
	DB	0d7H
	DB	0fdH
	DB	0d6H
	DB	0fdH
	DB	0ceH
	DB	0fdH
	DB	0ceH
	DB	0fdH
	DB	0d6H
	DB	0fdH
	DB	0d6H
	DB	0fdH
	DB	0ceH
	DB	0ddH
	DB	0ceH
	DB	0fdH
	DB	0ceH
	DB	0fcH
	DB	0ceH
	DB	0ddH
	DB	0ceH
	DB	0ddH
	DB	0ceH
	DB	0dcH
	DB	0ceH
	DB	0ddH
	DB	0ceH
	DB	0ddH
	DB	0ceH
	DB	0dcH
	DB	0ceH
	DB	0bdH
	DB	0c6H
	DB	0bdH
	DB	0c6H
	DB	0dcH
	DB	0ceH
	DB	0bcH
	DB	0c6H
	DB	0bdH
	DB	0c6H
	DB	0bcH
	DB	0c6H
	DB	0bcH
	DB	0c6H
	DB	09cH
	DB	0c6H
	DB	0bdH
	DB	0c6H
	DB	09cH
	DB	0c6H
	DB	0bcH
	DB	0c6H
	DB	0bcH
	DB	0beH
	DB	09cH
	DB	0c6H
	DB	09cH
	DB	0c6H
	DB	09cH
	DB	0c6H
	DB	09cH
	DB	0beH
	DB	07cH
	DB	0beH
	DB	09cH
	DB	0beH
	DB	09cH
	DB	0beH
	DB	07cH
	DB	0beH
	DB	09cH
	DB	0beH
	DB	07cH
	DB	0beH
	DB	07cH
	DB	0b6H
	DB	07bH
	DB	0beH
	DB	07bH
	DB	0beH
	DB	07cH
	DB	0b6H
	DB	07cH
	DB	0beH
	DB	07bH
	DB	0b6H
	DB	05bH
	DB	0beH
	DB	07cH
	DB	0b6H
	DB	07cH
	DB	0b6H
	DB	05cH
	DB	0b6H
	DB	05bH
	DB	0b6H
	DB	05bH
	DB	0b6H
	DB	05cH
	DB	0b6H
	DB	05cH
	DB	0b6H
	DB	05bH
	DB	0b6H
	DB	05bH
	DB	0b6H
	DB	05cH
	DB	0aeH
	DB	05bH
	DB	0b6H
	DB	03bH
	DB	0aeH
	DB	03bH
	DB	0aeH
	DB	05bH
	DB	0aeH
	DB	03bH
	DB	0b6H
	DB	03bH
	DB	0aeH
	DB	05bH
	DB	0b6H
	DB	03bH
	DB	0aeH
	DB	03bH
	DB	0aeH
	DB	03bH
	DB	0aeH
	DB	03bH
	DB	0aeH
	DB	03bH
	DB	0aeH
	DB	03aH
	DB	0aeH
	DB	03bH
	DB	0aeH
	DB	03bH
	DB	0a6H
	DB	01bH
	DB	0aeH
	DB	03aH
	DB	0aeH
	DB	01bH
	DB	0aeH
	DB	01bH
	DB	0a6H
	DB	03aH
	DB	0aeH
	DB	01bH
	DB	0aeH
	DB	03bH
	DB	0a6H
	DB	03aH
	DB	0aeH
	DB	01bH
	DB	0aeH
	DB	03bH
	DB	0aeH
	DB	01aH
	DB	0aeH
	DB	01bH
	DB	0aeH
	DB	03bH
	DB	0aeH
	DB	01bH
	DB	0aeH
	DB	03bH
	DB	0a6H
	DB	01bH
	DB	0aeH
	DB	01bH
	DB	0aeH
	DB	03aH
	DB	0aeH
	DB	01bH
	DB	0aeH
	DB	01bH
	DB	0aeH
	DB	03bH
	DB	0aeH
	DB	01bH
	DB	0a6H
	DB	03bH
	DB	0aeH
	DB	03bH
	DB	0aeH
	DB	01aH
	DB	0aeH
	DB	03bH
	DB	0aeH
	DB	01bH
	DB	0aeH
	DB	03aH
	DB	0a6H
	DB	01bH
	DB	0aeH
	DB	01bH
	DB	0aeH
	DB	03bH
	DB	0aeH
	DB	01bH
	DB	0aeH
	DB	01aH
	DB	0aeH
	DB	03bH
	DB	0aeH
	DB	03bH
	DB	0a6H
	DB	01bH
	DB	0aeH
	DB	03bH
	DB	0aeH
	DB	01bH
	DB	0aeH
	DB	03bH
	DB	0aeH
	DB	01aH
	DB	0aeH
	DB	03bH
	DB	0aeH
	DB	01bH
	DB	0a6H
	DB	01aH
	DB	0aeH
	DB	03bH
	DB	0aeH
	DB	01bH
	DB	0a6H
	DB	03bH
	DB	0aeH
	DB	03bH
	DB	0aeH
	DB	01aH
	DB	0aeH
	DB	01bH
	DB	0aeH
	DB	03bH
	DB	0a6H
	DB	01bH
	DB	0aeH
	DB	03bH
	DB	0aeH
	DB	03bH
	DB	0aeH
	DB	01bH
	DB	0aeH
	DB	03aH
	DB	0aeH
	DB	03bH
	DB	0aeH
	DB	01bH
	DB	0a6H
	DB	03bH
	DB	0aeH
	DB	01bH
	DB	0aeH
	DB	03bH
	DB	0aeH
	DB	01bH
	DB	0aeH
	DB	03bH
	DB	0aeH
	DB	01aH
	DB	0aeH
	DB	03bH
	DB	0aeH
	DB	01bH
	DB	0aeH
	DB	01bH
	DB	0aeH
	DB	03aH
	DB	0aeH
	DB	01bH
	DB	0aeH
	DB	03bH
	DB	0aeH
	DB	03bH
	DB	0aeH
	DB	01bH
	DB	0aeH
	DB	01bH
	DB	0aeH
	DB	03bH
	DB	0aeH
	DB	03bH
	DB	0aeH
	DB	01bH
	DB	0aeH
	DB	01bH
	DB	0aeH
	DB	03bH
	DB	0aeH
	DB	03bH
	DB	0a6H
	DB	01bH
	DB	0aeH
	DB	03bH
	DB	0aeH
	DB	01bH
	DB	0aeH
	DB	03bH
	DB	0aeH
	DB	01bH
	DB	0aeH
	DB	03bH
	DB	0aeH
	DB	01bH
	DB	0a6H
	DB	03bH
	DB	0aeH
	DB	01bH
	DB	0aeH
	DB	03bH
	DB	0aeH
	DB	03bH
	DB	0a6H
	DB	01aH
	DB	0aeH
	DB	03bH
	DB	0aeH
	DB	03bH
	DB	0aeH
	DB	01bH
	DB	0a6H
	DB	03bH
	DB	0aeH
	DB	01bH
	DB	0aeH
	DB	01bH
	DB	0aeH
	DB	03bH
	DB	0aeH
	DB	01aH
	DB	0aeH
	DB	03bH
	DB	0aeH
	DB	03bH
	DB	0aeH
	DB	01bH
	DB	0aeH
	DB	03aH
	DB	0aeH
	DB	03bH
	DB	0aeH
	DB	01bH
	DB	0aeH
	DB	03bH
	DB	0aeH
	DB	03bH
	DB	0aeH
	DB	01bH
	DB	0aeH
	DB	03bH
	DB	0aeH
	DB	01bH
	DB	0aeH
	DB	03bH
	DB	0aeH
	DB	01bH
	DB	0a6H
	DB	01bH
	DB	0aeH
	DB	03bH
	DB	0aeH
	DB	01bH
	DB	0aeH
	DB	01bH
	DB	0aeH
	DB	03bH
	DB	0aeH
	DB	01bH
	DB	0aeH
	DB	01bH
	DB	0aeH
	DB	03aH
	DB	0aeH
	DB	03bH
	DB	0aeH
	DB	01bH
	DB	0aeH
	DB	03bH
	DB	0aeH
	DB	03bH
	DB	0aeH
	DB	01bH
	DB	0aeH
	DB	01bH
	DB	0aeH
	DB	03bH
	DB	0a6H
	DB	01bH
	DB	0aeH
	DB	01bH
	DB	0aeH
	DB	03bH
	DB	0aeH
	DB	03bH
	DB	0aeH
	DB	01bH
	DB	0aeH
	DB	03bH
	DB	0aeH
	DB	01bH
	DB	0aeH
	DB	03aH
	DB	0aeH
	DB	03bH
	DB	0aeH
	DB	01bH
	DB	0aeH
	DB	01bH
	DB	0aeH
	DB	03bH
	DB	0aeH
	DB	01bH
	DB	0aeH
	DB	03bH
	DB	0aeH
	DB	03bH
	DB	0a6H
	DB	01bH
	DB	0aeH
	DB	03bH
	DB	0aeH
	DB	03bH
	DB	0aeH
	DB	03bH
	DB	0aeH
	DB	03bH
	DB	0aeH
	DB	03bH
	DB	0aeH
	DB	03bH
	DB	0aeH
	DB	03bH
	DB	0aeH
	DB	03bH
	DB	0aeH
	DB	03bH
	DB	0aeH
	DB	03bH
	DB	0b6H
	DB	03bH
	DB	0b6H
	DB	03bH
	DB	0aeH
	DB	05bH
	DB	0b6H
	DB	05bH
	DB	0aeH
	DB	03bH
	DB	0b6H
	DB	05bH
	DB	0aeH
	DB	05bH
	DB	0b6H
	DB	03cH
	DB	0b6H
	DB	05cH
	DB	0b6H
	DB	05bH
	DB	0b6H
	DB	05bH
	DB	0b6H
	DB	05cH
	DB	0b6H
	DB	05bH
	DB	0b6H
	DB	07bH
	DB	0b6H
	DB	07cH
	DB	0b6H
	DB	05cH
	DB	0b6H
	DB	07cH
	DB	0beH
	DB	07bH
	DB	0beH
	DB	07cH
	DB	0b6H
	DB	07bH
	DB	0beH
	DB	07cH
	DB	0beH
	DB	07cH
	DB	0beH
	DB	07cH
	DB	0beH
	DB	09bH
	DB	0beH
	DB	09cH
	DB	0beH
	DB	09cH
	DB	0beH
	DB	09cH
	DB	0beH
	DB	07cH
	DB	0beH
	DB	09cH
	DB	0beH
	DB	09cH
	DB	0beH
	DB	09cH
	DB	0c6H
	DB	09cH
	DB	0beH
	DB	0bcH
	DB	0c6H
	DB	09cH
	DB	0c6H
	DB	0bcH
	DB	0beH
	DB	0bcH
	DB	0c6H
	DB	0bcH
	DB	0c6H
	DB	0bcH
	DB	0c6H
	DB	0bdH
	DB	0c6H
	DB	0bcH
	DB	0c6H
	DB	0bcH
	DB	0c6H
	DB	0ddH
	DB	0c6H
	DB	0bdH
	DB	0ceH
	DB	0bcH
	DB	0ceH
	DB	0ddH
	DB	0c6H
	DB	0ddH
	DB	0c6H
	DB	0dcH
	DB	0ceH
	DB	0ddH
	DB	0ceH
	DB	0ddH
	DB	0ceH
	DB	0ddH
	DB	0ceH
	DB	0fdH
	DB	0ceH
	DB	0ddH
	DB	0ceH
	DB	0fdH
	DB	0ceH
	DB	0fdH
	DB	0ceH
	DB	0fdH
	DB	0d6H
	DB	0fdH
	DB	0d6H
	DB	0fdH
	DB	0d6H
	DB	0fdH
	DB	0ceH
	DB	0fdH
	DB	0d6H
	DB	01dH
	DB	0d7H
	DB	01dH
	DB	0d7H
	DB	0fdH
	DB	0d6H
	DB	01dH
	DB	0d7H
	DB	01dH
	DB	0d7H
	DB	01dH
	DB	0d7H
	DB	01eH
	DB	0d7H
	DB	01dH
	DB	0d7H
	DB	01dH
	DB	0dfH
	DB	01eH
	DB	0d7H
	DB	01dH
	DB	0dfH
	DB	03eH
	DB	0d7H
	DB	01dH
	DB	0dfH
	DB	03eH
	DB	0dfH
	DB	01eH
	DB	0d7H
	DB	01dH
	DB	0dfH
	DB	03dH
	DB	0dfH
	DB	03eH
	DB	0d7H
	DB	01dH
	DB	0dfH
	DB	03dH
	DB	0dfH
	DB	03eH
	DB	0dfH
	DB	03dH
	DB	0dfH
	DB	01dH
	DB	0d7H
	DB	03eH
	DB	0dfH
	DB	03eH
	DB	0dfH
	DB	01dH
	DB	0dfH
	DB	03eH
	DB	0dfH
	DB	03dH
	DB	0dfH
	DB	03eH
	DB	0dfH
	DB	03eH
	DB	0dfH
	DB	03dH
	DB	0dfH
	DB	03dH
	DB	0dfH
	DB	03eH
	DB	0dfH
	DB	03eH
	DB	0dfH
	DB	03eH
	DB	0dfH
	DB	03eH
	DB	0dfH
	DB	03dH
	DB	0dfH
	DB	03eH
	DB	0dfH
	DB	05dH
	DB	0dfH
	DB	03eH
	DB	0dfH
	DB	03eH
	DB	0dfH
	DB	03eH
	DB	0dfH
	DB	05dH
	DB	0e7H
	DB	05eH
	DB	0dfH
	DB	05eH
	DB	0dfH
	DB	03eH
	DB	0e7H
	DB	03eH
	DB	0dfH
	DB	05eH
	DB	0e7H
	DB	05eH
	DB	0dfH
	DB	03dH
	DB	0e7H
	DB	05eH
	DB	0dfH
	DB	05eH
	DB	0dfH
	DB	05eH
	DB	0e7H
	DB	05eH
	DB	0e7H
	DB	05eH
	DB	0dfH
	DB	03eH
	DB	0dfH
	DB	05eH
	DB	0e7H
	DB	05eH
	DB	0dfH
	DB	03dH
	DB	0e7H
	DB	05eH
	DB	0e7H
	DB	05eH
	DB	0e7H
	DB	03dH
	DB	0e7H
	DB	05eH
	DB	0dfH
	DB	05eH
	DB	0e7H
	DB	05eH
	DB	0dfH
	DB	05eH
	DB	0e7H
	DB	05eH
	DB	0dfH
	DB	05eH
	DB	0e7H
	DB	05eH
	DB	0e7H
	DB	05eH
	DB	0e7H
	DB	05eH
	DB	0e7H
	DB	05eH
	DB	0e7H
	DB	05eH
	DB	0dfH
	DB	05eH
	DB	0e7H
	DB	05eH
	DB	0e7H
	DB	05eH
	DB	0dfH
	DB	05eH
	DB	0e7H
	DB	05eH
	DB	0e7H
	DB	05eH
	DB	0dfH
	DB	05eH
	DB	0e7H
	DB	05eH
	DB	0e7H
	DB	05eH
	DB	0e7H
	DB	05eH
	DB	0e7H
	DB	05eH
	DB	0e7H
	DB	05eH
	DB	0e7H
	DB	05eH
	DB	0e7H
	DB	05eH
	DB	0e7H
	DB	05eH
	DB	0e7H
	DB	05eH
	DB	0e7H
	DB	05eH
	DB	0e7H
	DB	05eH
	DB	0e7H
	DB	05eH
	DB	0e7H
	DB	07eH
	DB	0dfH
	DB	05eH
	DB	0e7H
	DB	05eH
	DB	0e7H
	DB	07eH
	DB	0e7H
	DB	05eH
	DB	0e7H
	DB	05eH
	DB	0e7H
	DB	07eH
	DB	0e7H
	DB	05eH
	DB	0e7H
	DB	05eH
	DB	0e7H
	DB	07eH
	DB	0e7H
	DB	05eH
	DB	0e7H
	DB	05eH
	DB	0e7H
	DB	07eH
	DB	0e7H
	DB	05eH
	DB	0e7H
	DB	05eH
	DB	0e7H
	DB	07eH
	DB	0e7H
	DB	05eH
	DB	0e7H
	DB	05eH
	DB	0e7H
	DB	07eH
	DB	0e7H
	DB	05eH
	DB	0e7H
	DB	05eH
	DB	0e7H
	DB	05eH
	DB	0e7H
	DB	05eH
	DB	0e7H
	DB	05eH
	DB	0e7H
	DB	05eH
	DB	0e7H
	DB	05eH
	DB	0e7H
	DB	05eH
	DB	0e7H
	DB	05eH
	DB	0e7H
	DB	05eH
	DB	0e7H
	DB	05eH
	DB	0dfH
	DB	05eH
	DB	0dfH
	DB	05eH
	DB	0e7H
	DB	05eH
	DB	0e7H
	DB	05eH
	DB	0dfH
	DB	05eH
	DB	0e7H
	DB	05eH
	DB	0e7H
	DB	05eH
	DB	0e7H
	DB	05eH
	DB	0e7H
	DB	05eH
	DB	0e7H
	DB	05eH
	DB	0e7H
	DB	05eH
	DB	0e7H
	DB	05eH
	DB	0dfH
	DB	05eH
	DB	0dfH
	DB	05eH
	DB	0e7H
	DB	05eH
	DB	0e7H
	DB	05eH
	DB	0e7H
	DB	05eH
	DB	0e7H
	DB	05eH
	DB	0e7H
	DB	05eH
	DB	0e7H
	DB	03dH
	DB	0dfH
	DB	05eH
	DB	0dfH
	DB	03eH
	DB	0e7H
	DB	03dH
	DB	0dfH
	DB	05eH
	DB	0e7H
	DB	05eH
	DB	0dfH
	DB	05eH
	DB	0e7H
	DB	05eH
	DB	0e7H
	DB	05eH
	DB	0dfH
	DB	03eH
	DB	0e7H
	DB	05eH
	DB	0dfH
	DB	03eH
	DB	0dfH
	DB	03eH
	DB	0e7H
	DB	05eH
	DB	0e7H
	DB	05dH
	DB	0dfH
	DB	03eH
	DB	0dfH
	DB	05eH
	DB	0e7H
	DB	05eH
	DB	0dfH
	DB	03eH
	DB	0dfH
	DB	03eH
	DB	0dfH
	DB	05dH
	DB	0dfH
	DB	05eH
	DB	0dfH
	DB	03dH
	DB	0dfH
	DB	03eH
	DB	0dfH
	DB	03eH
	DB	0dfH
	DB	03eH
	DB	0dfH
	DB	03dH
	DB	0dfH
	DB	03eH
	DB	0dfH
	DB	03eH
	DB	0dfH
	DB	03eH
	DB	0dfH
	DB	03eH
	DB	0dfH
	DB	03eH
	DB	0dfH
	DB	03dH
	DB	0dfH
	DB	03dH
	DB	0dfH
	DB	03eH
	DB	0dfH
	DB	03eH
	DB	0dfH
	DB	01eH
	DB	0d7H
	DB	03dH
	DB	0dfH
	DB	03dH
	DB	0dfH
	DB	03eH
	DB	0dfH
	DB	03eH
	DB	0d7H
	DB	01dH
	DB	0dfH
	DB	03eH
	DB	0dfH
	DB	01eH
	DB	0d7H
	DB	01dH
	DB	0dfH
	DB	03eH
	DB	0dfH
	DB	03eH
	DB	0d7H
	DB	01dH
	DB	0dfH
	DB	01dH
	DB	0d7H
	DB	03eH
	DB	0dfH
	DB	01dH
	DB	0d7H
	DB	01dH
	DB	0d7H
	DB	01eH
	DB	0d7H
	DB	01dH
	DB	0d7H
	DB	01dH
	DB	0d7H
	DB	01eH
	DB	0d7H
	DB	01dH
	DB	0d7H
	DB	0fdH
	DB	0d6H
	DB	0fdH
	DB	0d6H
	DB	01dH
	DB	0d7H
	DB	0fdH
	DB	0d6H
	DB	0fdH
	DB	0d6H
	DB	0fdH
	DB	0d6H
	DB	0fdH
	DB	0ceH
	DB	0fdH
	DB	0d6H
	DB	0fdH
	DB	0ceH
	DB	0fdH
	DB	0ceH
	DB	0ddH
	DB	0ceH
	DB	0fdH
	DB	0ceH
	DB	0ddH
	DB	0ceH
	DB	0ddH
	DB	0ceH
	DB	0dcH
	DB	0ceH
	DB	0ddH
	DB	0ceH
	DB	0dcH
	DB	0c6H
	DB	0ddH
	DB	0ceH
	DB	0bcH
	DB	0ceH
	DB	0ddH
	DB	0c6H
	DB	0bdH
	DB	0c6H
	DB	0bcH
	DB	0c6H
	DB	0bdH
	DB	0c6H
	DB	0bcH
	DB	0c6H
	DB	0bcH
	DB	0c6H
	DB	0bcH
	DB	0c6H
	DB	0bdH
	DB	0c6H
	DB	09cH
	DB	0c6H
	DB	09cH
	DB	0c6H
	DB	0bcH
	DB	0beH
	DB	09cH
	DB	0beH
	DB	09cH
	DB	0c6H
	DB	09cH
	DB	0c6H
	DB	09cH
	DB	0beH
	DB	09cH
	DB	0beH
	DB	09cH
	DB	0beH
	DB	09cH
	DB	0beH
	DB	09cH
	DB	0beH
	DB	09bH
	DB	0beH
	DB	07cH
	DB	0beH
	DB	07cH
	DB	0beH
	DB	07cH
	DB	0b6H
	DB	07bH
	DB	0beH
	DB	07cH
	DB	0beH
	DB	07cH
	DB	0b6H
	DB	07bH
	DB	0b6H
	DB	05bH
	DB	0beH
	DB	07cH
	DB	0b6H
	DB	07bH
	DB	0b6H
	DB	05bH
	DB	0b6H
	DB	05cH
	DB	0b6H
	DB	05bH
	DB	0b6H
	DB	05bH
	DB	0b6H
	DB	05cH
	DB	0b6H
	DB	03bH
	DB	0aeH
	DB	05bH
	DB	0b6H
	DB	05cH
	DB	0b6H
	DB	03bH
	DB	0b6H
	DB	03bH
	DB	0aeH
	DB	05bH
	DB	0b6H
	DB	03bH
	DB	0aeH
	DB	03bH
	DB	0aeH
	DB	03bH
	DB	0aeH
	DB	03bH
	DB	0b6H
	DB	03bH
	DB	0aeH
	DB	03bH
	DB	0aeH
	DB	03bH
	DB	0aeH
	DB	03bH
	DB	0aeH
	DB	01bH
	DB	0aeH
	DB	03bH
	DB	0aeH
	DB	03bH
	DB	0aeH
	DB	03bH
	DB	0aeH
	DB	01bH
	DB	0aeH
	DB	03bH
	DB	0aeH
	DB	03bH
	DB	0aeH
	DB	01bH
	DB	0aeH
	DB	01bH
	DB	0aeH
	DB	03bH
	DB	0aeH
	DB	01bH
	DB	0aeH
	DB	03bH
	DB	0aeH
	DB	03bH
	DB	0aeH
	DB	01bH
	DB	0aeH
	DB	03bH
	DB	0aeH
	DB	03aH
	DB	0aeH
	DB	01bH
	DB	0aeH
	DB	03bH
	DB	0aeH
	DB	03aH
	DB	0aeH
	DB	01bH
	DB	0a6H
	DB	03bH
	DB	0aeH
	DB	01bH
	DB	0aeH
	DB	03bH
	DB	0a6H
	DB	01aH
	DB	0aeH
	DB	01bH
	DB	0aeH
	DB	03bH
	DB	0aeH
	DB	01bH
	DB	0aeH
	DB	03bH
	DB	0aeH
	DB	03bH
	DB	0aeH
	DB	01bH
	DB	0aeH
	DB	03bH
	DB	0aeH
	DB	03bH
	DB	0aeH
	DB	01bH
	DB	0aeH
	DB	03bH
	DB	0a6H
	DB	03bH
	DB	0aeH
	DB	01bH
	DB	0aeH
	DB	03bH
	DB	0aeH
	DB	01bH
	DB	0aeH
	DB	03aH
	DB	0aeH
	DB	01bH
	DB	0aeH
	DB	03bH
	DB	0a6H
	DB	01bH
	DB	0aeH
	DB	03bH
	DB	0aeH
	DB	03bH
	DB	0aeH
	DB	01bH
	DB	0aeH
	DB	03bH
	DB	0aeH
	DB	01bH
	DB	0aeH
	DB	01bH
	DB	0aeH
	DB	03bH
	DB	0aeH
	DB	03bH
	DB	0aeH
	DB	01bH
	DB	0aeH
	DB	03bH
	DB	0aeH
	DB	01bH
	DB	0aeH
	DB	01aH
	DB	0aeH
	DB	03bH
	DB	0aeH
	DB	01bH
	DB	0a6H
	DB	01bH
	DB	0aeH
	DB	03bH
	DB	0aeH
	DB	01bH
	DB	0aeH
	DB	03aH
	DB	0aeH
	DB	01bH
	DB	0aeH
	DB	03bH
	DB	0a6H
	DB	01aH
	DB	0aeH
	DB	03bH
	DB	0aeH
	DB	03bH
	DB	0a6H
	DB	01bH
	DB	0aeH
	DB	03bH
	DB	0aeH
	DB	01bH
	DB	0a6H
	DB	03bH
	DB	0aeH
	DB	01bH
	DB	0aeH
	DB	01bH
	DB	0a6H
	DB	03bH
	DB	0aeH
	DB	01bH
	DB	0aeH
	DB	01bH
	DB	0aeH
	DB	01bH
	DB	0aeH
	DB	01bH
	DB	0aeH
	DB	03aH
	DB	0a6H
	DB	03bH
	DB	0aeH
	DB	01bH
	DB	0aeH
	DB	03bH
	DB	0aeH
	DB	01bH
	DB	0aeH
	DB	03aH
	DB	0aeH
	DB	03bH
	DB	0a6H
	DB	01bH
	DB	0aeH
	DB	01aH
	DB	0aeH
	DB	03bH
	DB	0a6H
	DB	03bH
	DB	0aeH
	DB	01bH
	DB	0aeH
	DB	01bH
	DB	0aeH
	DB	03bH
	DB	0aeH
	DB	01bH
	DB	0aeH
	DB	01bH
	DB	0aeH
	DB	03bH
	DB	0aeH
	DB	01bH
	DB	0aeH
	DB	01bH
	DB	0aeH
	DB	03bH
	DB	0aeH
	DB	03bH
	DB	0aeH
	DB	01aH
	DB	0aeH
	DB	03bH
	DB	0a6H
	DB	01bH
	DB	0aeH
	DB	01bH
	DB	0aeH
	DB	03bH
	DB	0aeH
	DB	01bH
	DB	0aeH
	DB	01bH
	DB	0aeH
	DB	03bH
	DB	0aeH
	DB	01bH
	DB	0aeH
	DB	01bH
	DB	0aeH
	DB	03bH
	DB	0a6H
	DB	01bH
	DB	0aeH
	DB	01bH
	DB	0aeH
	DB	03bH
	DB	0aeH
	DB	01bH
	DB	0aeH
	DB	03bH
	DB	0aeH
	DB	03bH
	DB	0aeH
	DB	01bH
	DB	0aeH
	DB	03aH
	DB	0aeH
	DB	03bH
	DB	0aeH
	DB	01bH
	DB	0aeH
	DB	03bH
	DB	0aeH
	DB	01bH
	DB	0aeH
	DB	01bH
	DB	0aeH
	DB	03bH
	DB	0aeH
	DB	01bH
	DB	0a6H
	DB	01bH
	DB	0aeH
	DB	03bH
	DB	0aeH
	DB	03bH
	DB	0aeH
	DB	01bH
	DB	0aeH
	DB	03bH
	DB	0aeH
	DB	03bH
	DB	0aeH
	DB	01bH
	DB	0aeH
	DB	01aH
	DB	0aeH
	DB	03bH
	DB	0aeH
	DB	01bH
	DB	0aeH
	DB	01bH
	DB	0aeH
	DB	03bH
	DB	0aeH
	DB	01bH
	DB	0aeH
	DB	01bH
	DB	0aeH
	DB	03bH
	DB	0a6H
	DB	03bH
	DB	0aeH
	DB	01bH
	DB	0aeH
	DB	01bH
	DB	0aeH
	DB	03bH
	DB	0aeH
	DB	01bH
	DB	0aeH
	DB	01bH
	DB	0aeH
	DB	03bH
	DB	0aeH
	DB	03aH
	DB	0aeH
	DB	01bH
	DB	0aeH
	DB	03bH
	DB	0aeH
	DB	03bH
	DB	0aeH
	DB	03bH
	DB	0aeH
	DB	03bH
	DB	0aeH
	DB	03bH
	DB	0aeH
	DB	03bH
	DB	0aeH
	DB	03bH
	DB	0aeH
	DB	03bH
	DB	0b6H
	DB	05bH
	DB	0aeH
	DB	05bH
	DB	0b6H
	DB	03bH
	DB	0aeH
	DB	05cH
	DB	0b6H
	DB	05bH
	DB	0b6H
	DB	05bH
	DB	0b6H
	DB	05bH
	DB	0aeH
	DB	05bH
	DB	0b6H
	DB	05cH
	DB	0b6H
	DB	05bH
	DB	0b6H
	DB	05cH
	DB	0b6H
	DB	05bH
	DB	0b6H
	DB	07cH
	DB	0b6H
	DB	07bH
	DB	0b6H
	DB	05bH
	DB	0b6H
	DB	07bH
	DB	0b6H
	DB	07cH
	DB	0beH
	DB	07cH
	DB	0b6H
	DB	07bH
	DB	0beH
	DB	07cH
	DB	0beH
	DB	07cH
	DB	0b6H
	DB	07cH
	DB	0beH
	DB	09cH
	DB	0beH
	DB	07cH
	DB	0beH
	DB	07cH
	DB	0beH
	DB	09cH
	DB	0beH
	DB	09cH
	DB	0beH
	DB	09cH
	DB	0beH
	DB	09cH
	DB	0c6H
	DB	09cH
	DB	0c6H
	DB	09cH
	DB	0beH
	DB	09cH
	DB	0c6H
	DB	0bcH
	DB	0c6H
	DB	09cH
	DB	0c6H
	DB	0bcH
	DB	0c6H
	DB	0bdH
	DB	0c6H
	DB	0bcH
	DB	0c6H
	DB	0bdH
	DB	0c6H
	DB	0bcH
	DB	0c6H
	DB	0bcH
	DB	0c6H
	DB	0bdH
	DB	0c6H
	DB	0ddH
	DB	0ceH
	DB	0dcH
	DB	0ceH
	DB	0ddH
	DB	0ceH
	DB	0ddH
	DB	0ceH
	DB	0dcH
	DB	0ceH
	DB	0ddH
	DB	0ceH
	DB	0ddH
	DB	0ceH
	DB	0ddH
	DB	0ceH
	DB	0fcH
	DB	0ceH
	DB	0ddH
	DB	0ceH
	DB	0fdH
	DB	0ceH
	DB	0fdH
	DB	0ceH
	DB	0fdH
	DB	0ceH
	DB	0fdH
	DB	0d6H
	DB	0fdH
	DB	0d6H
	DB	0fdH
	DB	0ceH
	DB	0fdH
	DB	0d6H
	DB	0fdH
	DB	0d6H
	DB	01dH
	DB	0d7H
	DB	01dH
	DB	0d7H
	DB	01dH
	DB	0d7H
	DB	01dH
	DB	0d7H
	DB	01eH
	DB	0d7H
	DB	01eH
	DB	0d7H
	DB	01dH
	DB	0d7H
	DB	01dH
	DB	0dfH
	DB	01eH
	DB	0d7H
	DB	01dH
	DB	0dfH
	DB	03dH
	DB	0d7H
	DB	03eH
	DB	0d7H
	DB	03eH
	DB	0dfH
	DB	03dH
	DB	0dfH
	DB	01eH
	DB	0d7H
	DB	01eH
	DB	0dfH
	DB	03dH
	DB	0d7H
	DB	01eH
	DB	0dfH
	DB	03eH
	DB	0dfH
	DB	03dH
	DB	0d7H
	DB	01eH
	DB	0dfH
	DB	03eH
	DB	0dfH
	DB	03eH
	DB	0dfH
	DB	01dH
	DB	0dfH
	DB	03eH
	DB	0dfH
	DB	03eH
	DB	0d7H
	DB	03dH
	DB	0dfH
	DB	03eH
	DB	0dfH
	DB	03dH
	DB	0dfH
	DB	03eH
	DB	0dfH
	DB	03eH
	DB	0dfH
	DB	03dH
	DB	0dfH
	DB	03eH
	DB	0dfH
	DB	03eH
	DB	0dfH
	DB	03dH
	DB	0dfH
	DB	03eH
	DB	0dfH
	DB	03eH
	DB	0dfH
	DB	05eH
	DB	0dfH
	DB	03eH
	DB	0dfH
	DB	03dH
	DB	0dfH
	DB	05eH
	DB	0dfH
	DB	05eH
	DB	0e7H
	DB	03eH
	DB	0dfH
	DB	03dH
	DB	0e7H
	DB	05eH
	DB	0dfH
	DB	03eH
	DB	0dfH
	DB	05eH
	DB	0e7H
	DB	03eH
	DB	0dfH
	DB	05eH
	DB	0dfH
	DB	05eH
	DB	0e7H
	DB	05eH
	DB	0e7H
	DB	05eH
	DB	0dfH
	DB	05dH
	DB	0e7H
	DB	05eH
	DB	0dfH
	DB	03eH
	DB	0dfH
	DB	05eH
	DB	0e7H
	DB	05eH
	DB	0e7H
	DB	05eH
	DB	0e7H
	DB	05eH
	DB	0dfH
	DB	05eH
	DB	0e7H
	DB	05eH
	DB	0dfH
	DB	05eH
	DB	0e7H
	DB	05eH
	DB	0e7H
	DB	05eH
	DB	0dfH
	DB	05eH
	DB	0e7H
	DB	05eH
	DB	0e7H
	DB	05eH
	DB	0e7H
	DB	05eH
	DB	0e7H
	DB	05eH
	DB	0e7H
	DB	05eH
	DB	0e7H
	DB	05eH
	DB	0e7H
	DB	05eH
	DB	0e7H
	DB	05eH
	DB	0dfH
	DB	05eH
	DB	0e7H
	DB	05eH
	DB	0e7H
	DB	05eH
	DB	0e7H
	DB	05eH
	DB	0e7H
	DB	05eH
	DB	0e7H
	DB	05eH
	DB	0e7H
	DB	05eH
	DB	0e7H
	DB	05eH
	DB	0e7H
	DB	05eH
	DB	0e7H
	DB	05eH
	DB	0e7H
	DB	05eH
	DB	0dfH
	DB	05eH
	DB	0e7H
	DB	05eH
	DB	0e7H
	DB	05eH
	DB	0dfH
	DB	07eH
	DB	0e7H
	DB	05eH
	DB	0e7H
	DB	05eH
	DB	0dfH
	DB	07eH
	DB	0e7H
	DB	05eH
	DB	0e7H
	DB	05eH
	DB	0e7H
	DB	05eH
	DB	0e7H
	DB	07eH
	DB	0e7H
	DB	05eH
	DB	0dfH
	DB	05eH
	DB	0e7H
	DB	05eH
	DB	0e7H
	DB	07eH
	DB	0e7H
	DB	05eH
	DB	0e7H
	DB	05eH
	DB	0e7H
	DB	07eH
	DB	0e7H
	DB	05eH
	DB	0e7H
	DB	05eH
	DB	0e7H
	DB	07eH
	DB	0e7H
	DB	05eH
	DB	0e7H
	DB	05eH
	DB	0dfH
	DB	07eH
	DB	0e7H
	DB	05eH
	DB	0e7H
	DB	05eH
	DB	0e7H
	DB	05eH
	DB	0e7H
	DB	05eH
	DB	0dfH
	DB	07eH
	DB	0e7H
	DB	05eH
	DB	0e7H
	DB	05eH
	DB	0dfH
	DB	05eH
	DB	0e7H
	DB	05eH
	DB	0e7H
	DB	05eH
	DB	0dfH
	DB	05eH
	DB	0e7H
	DB	05eH
	DB	0e7H
	DB	05eH
	DB	0e7H
	DB	05eH
	DB	0e7H
	DB	05eH
	DB	0e7H
	DB	05eH
	DB	0e7H
	DB	05eH
	DB	0e7H
	DB	05eH
	DB	0e7H
	DB	05eH
	DB	0dfH
	DB	05eH
	DB	0e7H
	DB	05eH
	DB	0e7H
	DB	05eH
	DB	0e7H
	DB	05eH
	DB	0e7H
	DB	05eH
	DB	0e7H
	DB	05eH
	DB	0e7H
	DB	05eH
	DB	0e7H
	DB	05eH
	DB	0e7H
	DB	05eH
	DB	0dfH
	DB	05eH
	DB	0dfH
	DB	05eH
	DB	0e7H
	DB	05eH
	DB	0dfH
	DB	05eH
	DB	0e7H
	DB	05eH
	DB	0e7H
	DB	05eH
	DB	0dfH
	DB	05eH
	DB	0e7H
	DB	05eH
	DB	0e7H
	DB	05eH
	DB	0e7H
	DB	05eH
	DB	0dfH
	DB	03dH
	DB	0e7H
	DB	05eH
	DB	0dfH
	DB	05eH
	DB	0e7H
	DB	05dH
	DB	0e7H
	DB	05eH
	DB	0dfH
	DB	05eH
	DB	0e7H
	DB	05eH
	DB	0dfH
	DB	03eH
	DB	0dfH
	DB	05eH
	DB	0e7H
	DB	03eH
	DB	0dfH
	DB	03eH
	DB	0e7H
	DB	05eH
	DB	0e7H
	DB	05dH
	DB	0dfH
	DB	03eH
	DB	0e7H
	DB	05eH
	DB	0dfH
	DB	03eH
	DB	0dfH
	DB	03dH
	DB	0e7H
	DB	03eH
	DB	0dfH
	DB	05eH
	DB	0dfH
	DB	03dH
	DB	0dfH
	DB	03eH
	DB	0dfH
	DB	03eH
	DB	0dfH
	DB	03eH
	DB	0dfH
	DB	03dH
	DB	0dfH
	DB	03dH
	DB	0dfH
	DB	03eH
	DB	0dfH
	DB	03eH
	DB	0dfH
	DB	03dH
	DB	0dfH
	DB	03eH
	DB	0d7H
	DB	03dH
	DB	0dfH
	DB	03eH
	DB	0dfH
	DB	03eH
	DB	0dfH
	DB	01eH
	DB	0dfH
	DB	03eH
	DB	0d7H
	DB	03dH
	DB	0dfH
	DB	03dH
	DB	0dfH
	DB	03eH
	DB	0dfH
	DB	03dH
	DB	0d7H
	DB	01dH
	DB	0dfH
	DB	03eH
	DB	0dfH
	DB	01dH
	DB	0dfH
	DB	01eH
	DB	0d7H
	DB	03eH
	DB	0d7H
	DB	03eH
	DB	0dfH
	DB	01dH
	DB	0d7H
	DB	01dH
	DB	0dfH
	DB	01dH
	DB	0d7H
	DB	01eH
	DB	0dfH
	DB	01dH
	DB	0dfH
	DB	01eH
	DB	0d7H
	DB	01dH
	DB	0d7H
	DB	01dH
	DB	0d7H
	DB	01eH
	DB	0d7H
	DB	01dH
	DB	0d7H
	DB	0fdH
	DB	0d6H
	DB	01dH
	DB	0d7H
	DB	0fdH
	DB	0d6H
	DB	0fdH
	DB	0ceH
	DB	0fdH
	DB	0d6H
	DB	0fdH
	DB	0d6H
	DB	0fcH
	DB	0ceH
	DB	0fdH
	DB	0d6H
	DB	0fdH
	DB	0ceH
	DB	0ddH
	DB	0ceH
	DB	0fdH
	DB	0ceH
	DB	0ddH
	DB	0ceH
	DB	0ddH
	DB	0ceH
	DB	0dcH
	DB	0ceH
	DB	0ddH
	DB	0ceH
	DB	0ddH
	DB	0c6H
	DB	0dcH
	DB	0ceH
	DB	0bcH
	DB	0ceH
	DB	0ddH
	DB	0c6H
	DB	0dcH
	DB	0ceH
	DB	0bcH
	DB	0c6H
	DB	0bdH
	DB	0c6H
	DB	0bdH
	DB	0c6H
	DB	0bcH
	DB	0c6H
	DB	0bcH
	DB	0c6H
	DB	0bcH
	DB	0c6H
	DB	09cH
	DB	0c6H
	DB	0bcH
	DB	0beH
	DB	09cH
	DB	0c6H
	DB	09cH
	DB	0beH
	DB	09cH
	DB	0c6H
	DB	09cH
	DB	0beH
	DB	09cH
	DB	0beH
	DB	09cH
	DB	0beH
	DB	09cH
	DB	0beH
	DB	07cH
	DB	0beH
	DB	07cH
	DB	0beH
	DB	09bH
	DB	0beH
	DB	07cH
	DB	0beH
	DB	07cH
	DB	0beH
	DB	07cH
	DB	0b6H
	DB	07bH
	DB	0beH
	DB	07cH
	DB	0beH
	DB	07cH
	DB	0b6H
	DB	07bH
	DB	0b6H
	DB	05cH
	DB	0b6H
	DB	07bH
	DB	0b6H
	DB	07cH
	DB	0b6H
	DB	05bH
	DB	0b6H
	DB	05bH
	DB	0b6H
	DB	05cH
	DB	0b6H
	DB	05bH
	DB	0b6H
	DB	05bH
	DB	0b6H
	DB	05bH
	DB	0b6H
	DB	05bH
	DB	0b6H
	DB	05cH
	DB	0aeH
	DB	05bH
	DB	0b6H
	DB	05bH
	DB	0b6H
	DB	05bH
	DB	0b6H
	DB	03bH
	DB	0aeH
	DB	03bH
	DB	0aeH
	DB	03bH
	DB	0aeH
	DB	03bH
	DB	0b6H
	DB	03bH
	DB	0aeH
	DB	03bH
	DB	0aeH
	DB	03bH
	DB	0aeH
	DB	03bH
	DB	0aeH
	DB	01bH
	DB	0aeH
	DB	03bH
	DB	0aeH
	DB	03aH
	DB	0aeH
	DB	01bH
	DB	0aeH
	DB	03bH
	DB	0a6H
	DB	03bH
	DB	0aeH
	DB	01bH
	DB	0aeH
	DB	03bH
	DB	0aeH
	DB	01aH
	DB	0aeH
	DB	01bH
	DB	0aeH
	DB	03bH
	DB	0a6H
	DB	01bH
	DB	0aeH
	DB	01bH
	DB	0aeH
	DB	03bH
	DB	0a6H
	DB	01bH
	DB	0aeH
	DB	01bH
	DB	0aeH
	DB	03bH
	DB	0aeH
	DB	01bH
	DB	0aeH
	DB	03bH
	DB	0aeH
	DB	01bH
	DB	0aeH
	DB	03bH
	DB	0aeH
	DB	03bH
	DB	0aeH
	DB	01bH
	DB	0aeH
	DB	03bH
	DB	0aeH
	DB	01bH
	DB	0aeH
	DB	01bH
	DB	0aeH
	DB	03bH
	DB	0a6H
	DB	01bH
	DB	0aeH
	DB	01bH
	DB	0aeH
	DB	03bH
	DB	0aeH
	DB	01bH
	DB	0aeH
	DB	01aH
	DB	0aeH
	DB	03bH
	DB	0aeH
	DB	01bH
	DB	0aeH
	DB	03bH
	DB	0a6H
	DB	01bH
	DB	0aeH
	DB	01bH
	DB	0aeH
	DB	03bH
	DB	0aeH
	DB	01bH
	DB	0aeH
	DB	03bH
	DB	0aeH
	DB	01bH
	DB	0aeH
	DB	01bH
	DB	0aeH
	DB	03bH
	DB	0aeH
	DB	03bH
	DB	0aeH
	DB	01bH
	DB	0aeH
	DB	03bH
	DB	0aeH
	DB	01aH
	DB	0aeH
	DB	01bH
	DB	0aeH
	DB	03bH
	DB	0a6H
	DB	01bH
	DB	0aeH
	DB	03bH
	DB	0aeH
	DB	03bH
	DB	0aeH
	DB	01bH
	DB	0aeH
	DB	03bH
	DB	0aeH
	DB	03bH
	DB	0aeH
	DB	01bH
	DB	0aeH
	DB	03bH
	DB	0aeH
	DB	01bH
	DB	0aeH
	DB	01bH
	DB	0aeH
	DB	03bH
	DB	0aeH
	DB	01bH
	DB	0aeH
	DB	03bH
	DB	0aeH
	DB	01bH
	DB	0aeH
	DB	01bH
	DB	0aeH
	DB	03bH
	DB	0aeH
	DB	01bH
	DB	0aeH
	DB	03aH
	DB	0aeH
	DB	03bH
	DB	0aeH
	DB	01bH
	DB	0aeH
	DB	03bH
	DB	0aeH
	DB	03bH
	DB	0aeH
	DB	01aH
	DB	0aeH
	DB	03bH
	DB	0aeH
	DB	03bH
	DB	0aeH
	DB	01bH
	DB	0aeH
	DB	01bH
	DB	0aeH
	DB	03bH
	DB	0aeH
	DB	01bH
	DB	0aeH
	DB	01bH
	DB	0a6H
	DB	03bH
	DB	0aeH
	DB	01bH
	DB	0aeH
	DB	01bH
	DB	0aeH
	DB	03bH
	DB	0aeH
	DB	03bH
	DB	0aeH
	DB	01bH
	DB	0aeH
	DB	01aH
	DB	0aeH
	DB	03bH
	DB	0aeH
	DB	03bH
	DB	0aeH
	DB	01aH
	DB	0a6H
	DB	03bH
	DB	0aeH
	DB	01bH
	DB	0aeH
	DB	03bH
	DB	0aeH
	DB	03bH
	DB	0a6H
	DB	01aH
	DB	0aeH
	DB	01bH
	DB	0aeH
	DB	03bH
	DB	0aeH
	DB	03bH
	DB	0aeH
	DB	01bH
	DB	0aeH
	DB	03bH
	DB	0aeH
	DB	03bH
	DB	0aeH
	DB	01bH
	DB	0a6H
	DB	03aH
	DB	0aeH
	DB	03bH
	DB	0aeH
	DB	01bH
	DB	0a6H
	DB	03bH
	DB	0aeH
	DB	03aH
	DB	0aeH
	DB	01bH
	DB	0aeH
	DB	03bH
	DB	0aeH
	DB	03aH
	DB	0a6H
	DB	01bH
	DB	0aeH
	DB	01bH
	DB	0aeH
	DB	03aH
	DB	0a6H
	DB	01bH
	DB	0aeH
	DB	01bH
	DB	0aeH
	DB	03bH
	DB	0a6H
	DB	01bH
	DB	0aeH
	DB	03aH
	DB	0aeH
	DB	03bH
	DB	0a6H
	DB	03bH
	DB	0aeH
	DB	01aH
	DB	0aeH
	DB	03bH
	DB	0aeH
	DB	01bH
	DB	0aeH
	DB	01aH
	DB	0aeH
	DB	03bH
	DB	0a6H
	DB	01bH
	DB	0aeH
	DB	01aH
	DB	0aeH
	DB	03bH
	DB	0a6H
	DB	03bH
	DB	0aeH
	DB	01bH
	DB	0aeH
	DB	03bH
	DB	0a6H
	DB	03bH
	DB	0aeH
	DB	01aH
	DB	0aeH
	DB	03bH
	DB	0a6H
	DB	03bH
	DB	0aeH
	DB	01aH
	DB	0aeH
	DB	03bH
	DB	0aeH
	DB	01bH
	DB	0aeH
	DB	03aH
	DB	0aeH
	DB	03bH
	DB	0a6H
	DB	01bH
	DB	0aeH
	DB	03aH
	DB	0aeH
	DB	03bH
	DB	0a6H
	DB	01bH
	DB	0aeH
	DB	03bH
	DB	0aeH
	DB	03bH
	DB	0a6H
	DB	01bH
	DB	0aeH
	DB	03bH
	DB	0aeH
	DB	03bH
	DB	0aeH
	DB	03bH
	DB	0aeH
	DB	03bH
	DB	0aeH
	DB	03bH
	DB	0aeH
	DB	03bH
	DB	0aeH
	DB	03bH
	DB	0b6H
	DB	03bH
	DB	0aeH
	DB	05bH
	DB	0aeH
	DB	03bH
	DB	0b6H
	DB	03bH
	DB	0aeH
	DB	05bH
	DB	0b6H
	DB	05cH
	DB	0b6H
	DB	03bH
	DB	0b6H
	DB	05bH
	DB	0b6H
	DB	05cH
	DB	0b6H
	DB	05bH
	DB	0b6H
	DB	05bH
	DB	0b6H
	DB	05bH
	DB	0b6H
	DB	05cH
	DB	0b6H
	DB	07cH
	DB	0b6H
	DB	05cH
	DB	0b6H
	DB	07bH
	DB	0beH
	DB	07cH
	DB	0b6H
	DB	07cH
	DB	0b6H
	DB	07bH
	DB	0beH
	DB	07cH
	DB	0beH
	DB	07cH
	DB	0beH
	DB	07bH
	DB	0b6H
	DB	09cH
	DB	0beH
	DB	09cH
	DB	0beH
	DB	07cH
	DB	0beH
	DB	09cH
	DB	0beH
	DB	09cH
	DB	0beH
	DB	09cH
	DB	0beH
	DB	09cH
	DB	0beH
	DB	09cH
	DB	0beH
	DB	09cH
	DB	0c6H
	DB	09cH
	DB	0c6H
	DB	0bcH
	DB	0beH
	DB	0bcH
	DB	0c6H
	DB	0bcH
	DB	0c6H
	DB	0bcH
	DB	0c6H
	DB	0bcH
	DB	0c6H
	DB	0bdH
	DB	0c6H
	DB	0bcH
	DB	0c6H
	DB	0bcH
	DB	0c6H
	DB	0ddH
	DB	0c6H
	DB	0bdH
	DB	0c6H
	DB	0bcH
	DB	0ceH
	DB	0dcH
	DB	0c6H
	DB	0ddH
	DB	0c6H
	DB	0ddH
	DB	0ceH
	DB	0dcH
	DB	0ceH
	DB	0ddH
	DB	0ceH
	DB	0ddH
	DB	0ceH
	DB	0dcH
	DB	0ceH
	DB	0fdH
	DB	0ceH
	DB	0fdH
	DB	0ceH
	DB	0fdH
	DB	0ceH
	DB	0ddH
	DB	0d6H
	DB	0fdH
	DB	0d6H
	DB	0fdH
	DB	0ceH
	DB	0fdH
	DB	0ceH
	DB	0fdH
	DB	0d6H
	DB	01dH
	DB	0d7H
	DB	0fdH
	DB	0d6H
	DB	01dH
	DB	0d7H
	DB	01dH
	DB	0d7H
	DB	0fdH
	DB	0d6H
	DB	01dH
	DB	0d7H
	DB	01eH
	DB	0d7H
	DB	01dH
	DB	0d7H
	DB	01dH
	DB	0dfH
	DB	01eH
	DB	0d7H
	DB	01eH
	DB	0dfH
	DB	01dH
	DB	0d7H
	DB	03eH
	DB	0dfH
	DB	01dH
	DB	0d7H
	DB	01dH
	DB	0dfH
	DB	03eH
	DB	0dfH
	DB	03dH
	DB	0d7H
	DB	01dH
	DB	0dfH
	DB	03eH
	DB	0dfH
	DB	03dH
	DB	0dfH
	DB	03eH
	DB	0dfH
	DB	03dH
	DB	0d7H
	DB	01eH
	DB	0dfH
	DB	03eH
	DB	0dfH
	DB	03dH
	DB	0dfH
	DB	03eH
	DB	0dfH
	DB	03eH
	DB	0dfH
	DB	03dH
	DB	0dfH
	DB	03eH
	DB	0dfH
	DB	03eH
	DB	0dfH
	DB	03dH
	DB	0dfH
	DB	03eH
	DB	0dfH
	DB	03eH
	DB	0dfH
	DB	03eH
	DB	0dfH
	DB	03eH
	DB	0dfH
	DB	03eH
	DB	0dfH
	DB	05dH
	DB	0dfH
	DB	03eH
	DB	0dfH
	DB	03eH
	DB	0dfH
	DB	03eH
	DB	0dfH
	DB	05eH
	DB	0e7H
	DB	05eH
	DB	0dfH
	DB	05dH
	DB	0dfH
	DB	03eH
	DB	0e7H
	DB	05eH
	DB	0dfH
	DB	03eH
	DB	0dfH
	DB	05eH
	DB	0e7H
	DB	05eH
	DB	0dfH
	DB	05dH
	DB	0dfH
	DB	05eH
	DB	0e7H
	DB	05eH
	DB	0e7H
	DB	05eH
	DB	0dfH
	DB	03eH
	DB	0dfH
	DB	03eH
	DB	0e7H
	DB	05eH
	DB	0dfH
	DB	05eH
	DB	0e7H
	DB	05eH
	DB	0e7H
	DB	05dH
	DB	0e7H
	DB	05eH
	DB	0dfH
	DB	05eH
	DB	0e7H
	DB	05eH
	DB	0e7H
	DB	05eH
	DB	0dfH
	DB	05eH
	DB	0dfH
	DB	05eH
	DB	0e7H
	DB	05eH
	DB	0e7H
	DB	05eH
	DB	0e7H
	DB	05eH
	DB	0e7H
	DB	05eH
	DB	0e7H
	DB	05eH
	DB	0dfH
	DB	05eH
	DB	0e7H
	DB	05eH
	DB	0dfH
	DB	05eH
	DB	0dfH
	DB	05eH
	DB	0e7H
	DB	05eH
	DB	0e7H
	DB	05eH
	DB	0e7H
	DB	05eH
	DB	0e7H
	DB	05eH
	DB	0e7H
	DB	05eH
	DB	0e7H
	DB	05eH
	DB	0e7H
	DB	05eH
	DB	0e7H
	DB	07eH
	DB	0e7H
	DB	05eH
	DB	0e7H
	DB	05eH
	DB	0e7H
	DB	07eH
	DB	0e7H
	DB	07eH
	DB	0e7H
	DB	05eH
	DB	0e7H
	DB	07eH
	DB	0e7H
	DB	05eH
	DB	0e7H
	DB	05eH
	DB	0e7H
	DB	07eH
	DB	0e7H
	DB	05eH
	DB	0e7H
	DB	05eH
	DB	0e7H
	DB	07eH
	DB	0e7H
	DB	07eH
	DB	0e7H
	DB	07eH
	DB	0e7H
	DB	07eH
	DB	0e7H
	DB	07eH
	DB	0e7H
	DB	07eH
	DB	0e7H
	DB	07eH
	DB	0e7H
	DB	07eH
	DB	0e7H
	DB	05eH
	DB	0e7H
	DB	07eH
	DB	0e7H
	DB	07eH
	DB	0e7H
	DB	05eH
	DB	0e7H
	DB	07eH
	DB	0e7H
	DB	07eH
	DB	0e7H
	DB	05eH
	DB	0e7H
	DB	07eH
	DB	0e7H
	DB	07eH
	DB	0e7H
	DB	05eH
	DB	0e7H
	DB	07eH
	DB	0e7H
	DB	07eH
	DB	0e7H
	DB	07eH
	DB	0e7H
	DB	05eH
	DB	0e7H
	DB	05eH
	DB	0e7H
	DB	07eH
	DB	0e7H
	DB	05eH
	DB	0e7H
	DB	07eH
	DB	0e7H
	DB	05eH
	DB	0e7H
	DB	07eH
	DB	0e7H
	DB	05eH
	DB	0e7H
	DB	05eH
	DB	0e7H
	DB	07eH
	DB	0e7H
	DB	05eH
	DB	0e7H
	DB	05eH
	DB	0e7H
	DB	05eH
	DB	0e7H
	DB	05eH
	DB	0e7H
	DB	05eH
	DB	0e7H
	DB	05eH
	DB	0e7H
	DB	05eH
	DB	0e7H
	DB	05eH
	DB	0e7H
	DB	05eH
	DB	0dfH
	DB	05eH
	DB	0dfH
	DB	05eH
	DB	0e7H
	DB	05eH
	DB	0dfH
	DB	05eH
	DB	0e7H
	DB	05eH
	DB	0e7H
	DB	05eH
	DB	0e7H
	DB	05eH
	DB	0e7H
	DB	05eH
	DB	0e7H
	DB	05eH
	DB	0dfH
	DB	05eH
	DB	0dfH
	DB	05eH
	DB	0e7H
	DB	05eH
	DB	0e7H
	DB	05eH
	DB	0dfH
	DB	05eH
	DB	0e7H
	DB	05eH
	DB	0dfH
	DB	05eH
	DB	0e7H
	DB	05eH
	DB	0e7H
	DB	03eH
	DB	0dfH
	DB	05eH
	DB	0dfH
	DB	05eH
	DB	0e7H
	DB	03eH
	DB	0dfH
	DB	05dH
	DB	0e7H
	DB	05eH
	DB	0e7H
	DB	05eH
	DB	0dfH
	DB	05eH
	DB	0dfH
	DB	03eH
	DB	0dfH
	DB	05eH
	DB	0dfH
	DB	03eH
	DB	0dfH
	DB	03eH
	DB	0e7H
	DB	05dH
	DB	0dfH
	DB	05eH
	DB	0dfH
	DB	03eH
	DB	0e7H
	DB	05eH
	DB	0dfH
	DB	03eH
	DB	0dfH
	DB	03eH
	DB	0dfH
	DB	05dH
	DB	0dfH
	DB	03eH
	DB	0dfH
	DB	03eH
	DB	0dfH
	DB	03eH
	DB	0dfH
	DB	03eH
	DB	0dfH
	DB	03dH
	DB	0dfH
	DB	03eH
	DB	0dfH
	DB	03dH
	DB	0dfH
	DB	03eH
	DB	0dfH
	DB	03eH
	DB	0dfH
	DB	03dH
	DB	0dfH
	DB	03dH
	DB	0dfH
	DB	03eH
	DB	0dfH
	DB	03dH
	DB	0dfH
	DB	01eH
	DB	0dfH
	DB	03eH
	DB	0d7H
	DB	03dH
	DB	0dfH
	DB	03eH
	DB	0dfH
	DB	03dH
	DB	0dfH
	DB	03eH
	DB	0d7H
	DB	01eH
	DB	0dfH
	DB	03dH
	DB	0d7H
	DB	01dH
	DB	0dfH
	DB	03eH
	DB	0dfH
	DB	03dH
	DB	0d7H
	DB	01eH
	DB	0dfH
	DB	01dH
	DB	0dfH
	DB	03eH
	DB	0d7H
	DB	01dH
	DB	0d7H
	DB	01dH
	DB	0dfH
	DB	01eH
	DB	0d7H
	DB	01dH
	DB	0d7H
	DB	01dH
	DB	0d7H
	DB	01dH
	DB	0d7H
	DB	01dH
	DB	0d7H
	DB	01dH
	DB	0d7H
	DB	0fdH
	DB	0d6H
	DB	01dH
	DB	0d7H
	DB	0fdH
	DB	0ceH
	DB	0fdH
	DB	0d6H
	DB	0fdH
	DB	0d6H
	DB	0fdH
	DB	0ceH
	DB	0ddH
	DB	0ceH
	DB	0fdH
	DB	0d6H
	DB	0fcH
	DB	0ceH
	DB	0ddH
	DB	0ceH
	DB	0fdH
	DB	0ceH
	DB	0ddH
	DB	0ceH
	DB	0ddH
	DB	0ceH
	DB	0dcH
	DB	0ceH
	DB	0ddH
	DB	0ceH
	DB	0ddH
	DB	0c6H
	DB	0dcH
	DB	0ceH
	DB	0bdH
	DB	0ceH
	DB	0ddH
	DB	0c6H
	DB	0dcH
	DB	0c6H
	DB	0bcH
	DB	0c6H
	DB	0bdH
	DB	0c6H
	DB	0bcH
	DB	0c6H
	DB	0bcH
	DB	0c6H
	DB	0bdH
	DB	0c6H
	DB	0bcH
	DB	0c6H
	DB	09cH
	DB	0c6H
	DB	0bcH
	DB	0c6H
	DB	09cH
	DB	0c6H
	DB	09cH
	DB	0beH
	DB	09cH
	DB	0c6H
	DB	09cH
	DB	0c6H
	DB	09cH
	DB	0beH
	DB	09bH
	DB	0beH
	DB	09cH
	DB	0beH
	DB	07cH
	DB	0beH
	DB	09cH
	DB	0beH
	DB	09cH
	DB	0beH
	DB	07cH
	DB	0beH
	DB	07cH
	DB	0beH
	DB	07bH
	DB	0b6H
	DB	07cH
	DB	0beH
	DB	07cH
	DB	0beH
	DB	07cH
	DB	0b6H
	DB	05bH
	DB	0beH
	DB	05cH
	DB	0b6H
	DB	07cH
	DB	0b6H
	DB	05cH
	DB	0b6H
	DB	05bH
	DB	0b6H
	DB	05cH
	DB	0b6H
	DB	05cH
	DB	0b6H
	DB	05bH
	DB	0b6H
	DB	05bH
	DB	0aeH
	DB	05cH
	DB	0b6H
	DB	03bH
	DB	0b6H
	DB	05bH
	DB	0aeH
	DB	03cH
	DB	0aeH
	DB	03bH
	DB	0b6H
	DB	05bH
	DB	0b6H
	DB	05bH
	DB	0aeH
	DB	03bH
	DB	0b6H
	DB	03bH
	DB	0aeH
	DB	03bH
	DB	0aeH
	DB	03bH
	DB	0aeH
	DB	03bH
	DB	0aeH
	DB	03bH
	DB	0aeH
	DB	03bH
	DB	0aeH
	DB	03bH
	DB	0aeH
	DB	03bH
	DB	0aeH
	DB	03bH
	DB	0aeH
	DB	01bH
	DB	0aeH
	DB	01aH
	DB	0aeH
	DB	03bH
	DB	0aeH
	DB	03bH
	DB	0a6H
	DB	01bH
	DB	0aeH
	DB	03bH
	DB	0aeH
	DB	03bH
	DB	0aeH
	DB	01aH
	DB	0aeH
	DB	03bH
	DB	0aeH
	DB	03bH
	DB	0aeH
	DB	01bH
	DB	0aeH
	DB	03bH
	DB	0a6H
	DB	01bH
	DB	0aeH
	DB	01bH
	DB	0aeH
	DB	03bH
	DB	0aeH
	DB	01aH
	DB	0aeH
	DB	01bH
	DB	0aeH
	DB	03bH
	DB	0aeH
	DB	03bH
	DB	0aeH
	DB	01bH
	DB	0aeH
	DB	03aH
	DB	0aeH
	DB	03bH
	DB	0aeH
	DB	01bH
	DB	0aeH
	DB	03aH
	DB	0aeH
	DB	03bH
	DB	0a6H
	DB	01bH
	DB	0aeH
	DB	03bH
	DB	0aeH
	DB	03bH
	DB	0a6H
	DB	01bH
	DB	0aeH
	DB	01aH
	DB	0aeH
	DB	03bH
	DB	0aeH
	DB	03bH
	DB	0aeH
	DB	01aH
	DB	0aeH
	DB	03bH
	DB	0a6H
	DB	03bH
	DB	0aeH
	DB	01aH
	DB	0aeH
	DB	03bH
	DB	0aeH
	DB	01bH
	DB	0a6H
	DB	01aH
	DB	0aeH
	DB	03bH
	DB	0aeH
	DB	01bH
	DB	0a6H
	DB	03bH
	DB	0aeH
	DB	03bH
	DB	0aeH
	DB	01bH
	DB	0aeH
	DB	03aH
	DB	0aeH
	DB	01bH
	DB	0aeH
	DB	01bH
	DB	0a6H
	DB	03aH
	DB	0aeH
	DB	01bH
	DB	0aeH
	DB	01bH
	DB	0a6H
	DB	03aH
	DB	0aeH
	DB	03bH
	DB	0aeH
	DB	01bH
	DB	0a6H
	DB	03aH
	DB	0aeH
	DB	03bH
	DB	0aeH
	DB	01bH
	DB	0a6H
	DB	03bH
	DB	0aeH
	DB	03bH
	DB	0aeH
	DB	01aH
	DB	0aeH
	DB	03bH
	DB	0aeH
	DB	01bH
	DB	0a6H
	DB	01bH
	DB	0aeH
	DB	03bH
	DB	0aeH
	DB	01bH
	DB	0aeH
	DB	03bH
	DB	0a6H
	DB	01bH
	DB	0aeH
	DB	01bH
	DB	0aeH
	DB	03bH
	DB	0a6H
	DB	01bH
	DB	0aeH
	DB	03bH
	DB	0aeH
	DB	01bH
	DB	0aeH
	DB	03bH
	DB	0aeH
	DB	03bH
	DB	0aeH
	DB	01aH
	DB	0aeH
	DB	03bH
	DB	0aeH
	DB	03bH
	DB	0aeH
	DB	01bH
	DB	0aeH
	DB	01bH
	DB	0aeH
	DB	03bH
	DB	0aeH
	DB	03bH
	DB	0aeH
	DB	01bH
	DB	0aeH
	DB	03bH
	DB	0aeH
	DB	03bH
	DB	0aeH
	DB	01bH
	DB	0aeH
	DB	03bH
	DB	0aeH
	DB	01bH
	DB	0aeH
	DB	03bH
	DB	0aeH
	DB	01aH
	DB	0aeH
	DB	03bH
	DB	0aeH
	DB	03bH
	DB	0aeH
	DB	01bH
	DB	0a6H
	DB	01bH
	DB	0aeH
	DB	03bH
	DB	0aeH
	DB	01bH
	DB	0aeH
	DB	03aH
	DB	0aeH
	DB	01bH
	DB	0aeH
	DB	01bH
	DB	0aeH
	DB	03bH
	DB	0aeH
	DB	01bH
	DB	0aeH
	DB	01bH
	DB	0aeH
	DB	03bH
	DB	0aeH
	DB	01bH
	DB	0aeH
	DB	01bH
	DB	0aeH
	DB	03bH
	DB	0aeH
	DB	03bH
	DB	0aeH
	DB	01bH
	DB	0aeH
	DB	03bH
	DB	0aeH
	DB	03bH
	DB	0aeH
	DB	01bH
	DB	0aeH
	DB	03bH
	DB	0aeH
	DB	01bH
	DB	0aeH
	DB	01bH
	DB	0aeH
	DB	01bH
	DB	0aeH
	DB	03bH
	DB	0aeH
	DB	01bH
	DB	0aeH
	DB	03bH
	DB	0a6H
	DB	03bH
	DB	0aeH
	DB	03bH
	DB	0aeH
	DB	01bH
	DB	0aeH
	DB	03bH
	DB	0aeH
	DB	03bH
	DB	0aeH
	DB	01bH
	DB	0aeH
	DB	01bH
	DB	0aeH
	DB	03aH
	DB	0aeH
	DB	01bH
	DB	0aeH
	DB	01bH
	DB	0aeH
	DB	03bH
	DB	0aeH
	DB	01bH
	DB	0aeH
	DB	03bH
	DB	0aeH
	DB	01bH
	DB	0aeH
	DB	03bH
	DB	0a6H
	DB	01bH
	DB	0aeH
	DB	01bH
	DB	0aeH
	DB	03bH
	DB	0aeH
	DB	01bH
	DB	0aeH
	DB	01bH
	DB	0aeH
	DB	03bH
	DB	0aeH
	DB	01bH
	DB	0aeH
	DB	03aH
	DB	0aeH
	DB	03bH
	DB	0aeH
	DB	03bH
	DB	0aeH
	DB	03bH
	DB	0aeH
	DB	03bH
	DB	0aeH
	DB	03bH
	DB	0aeH
	DB	03bH
	DB	0aeH
	DB	03bH
	DB	0aeH
	DB	03bH
	DB	0aeH
	DB	03bH
	DB	0b6H
	DB	03bH
	DB	0aeH
	DB	05bH
	DB	0aeH
	DB	05bH
	DB	0b6H
	DB	03bH
	DB	0aeH
	DB	05bH
	DB	0b6H
	DB	05bH
	DB	0aeH
	DB	05bH
	DB	0b6H
	DB	05cH
	DB	0aeH
	DB	05bH
	DB	0b6H
	DB	05cH
	DB	0b6H
	DB	05bH
	DB	0b6H
	DB	05cH
	DB	0b6H
	DB	05cH
	DB	0b6H
	DB	07bH
	DB	0b6H
	DB	07bH
	DB	0b6H
	DB	07cH
	DB	0b6H
	DB	07cH
	DB	0beH
	DB	07cH
	DB	0beH
	DB	07bH
	DB	0b6H
	DB	07cH
	DB	0beH
	DB	07cH
	DB	0beH
	DB	07cH
	DB	0b6H
	DB	07cH
	DB	0beH
	DB	09cH
	DB	0beH
	DB	07bH
	DB	0beH
	DB	09cH
	DB	0beH
	DB	09cH
	DB	0beH
	DB	09cH
	DB	0beH
	DB	09cH
	DB	0beH
	DB	09cH
	DB	0c6H
	DB	09cH
	DB	0beH
	DB	09cH
	DB	0c6H
	DB	0bcH
	DB	0c6H
	DB	09cH
	DB	0beH
	DB	0bcH
	DB	0c6H
	DB	0bcH
	DB	0c6H
	DB	0bcH
	DB	0c6H
	DB	0bdH
	DB	0c6H
	DB	0bcH
	DB	0c6H
	DB	0bcH
	DB	0c6H
	DB	0ddH
	DB	0c6H
	DB	0bdH
	DB	0ceH
	DB	0dcH
	DB	0ceH
	DB	0dcH
	DB	0ceH
	DB	0ddH
	DB	0c6H
	DB	0ddH
	DB	0ceH
	DB	0dcH
	DB	0ceH
	DB	0ddH
	DB	0ceH
	DB	0ddH
	DB	0ceH
	DB	0fdH
	DB	0ceH
	DB	0ddH
	DB	0ceH
	DB	0fdH
	DB	0ceH
	DB	0fdH
	DB	0ceH
	DB	0fdH
	DB	0ceH
	DB	0fdH
	DB	0d6H
	DB	0fdH
	DB	0d6H
	DB	0fdH
	DB	0d6H
	DB	0fdH
	DB	0d6H
	DB	01dH
	DB	0d7H
	DB	0fdH
	DB	0d6H
	DB	01dH
	DB	0d7H
	DB	01dH
	DB	0d7H
	DB	01eH
	DB	0d7H
	DB	01dH
	DB	0d7H
	DB	01eH
	DB	0d7H
	DB	01dH
	DB	0d7H
	DB	01dH
	DB	0dfH
	DB	01eH
	DB	0dfH
	DB	03dH
	DB	0d7H
	DB	01dH
	DB	0d7H
	DB	03eH
	DB	0dfH
	DB	03eH
	DB	0dfH
	DB	01dH
	DB	0dfH
	DB	01eH
	DB	0d7H
	DB	03eH
	DB	0dfH
	DB	01dH
	DB	0dfH
	DB	03eH
	DB	0dfH
	DB	03dH
	DB	0d7H
	DB	03eH
	DB	0dfH
	DB	03eH
	DB	0dfH
	DB	01dH
	DB	0dfH
	DB	03eH
	DB	0dfH
	DB	03dH
	DB	0dfH
	DB	03eH
	DB	0d7H
	DB	03eH
	DB	0dfH
	DB	03dH
	DB	0dfH
	DB	03eH
	DB	0dfH
	DB	03eH
	DB	0dfH
	DB	03dH
	DB	0dfH
	DB	03eH
	DB	0dfH
	DB	03eH
	DB	0dfH
	DB	03eH
	DB	0dfH
	DB	03dH
	DB	0dfH
	DB	03eH
	DB	0dfH
	DB	03eH
	DB	0dfH
	DB	05eH
	DB	0dfH
	DB	03dH
	DB	0dfH
	DB	05eH
	DB	0dfH
	DB	05dH
	DB	0e7H
	DB	03eH
	DB	0dfH
	DB	03eH
	DB	0e7H
	DB	03eH
	DB	0dfH
	DB	05eH
	DB	0dfH
	DB	03eH
	DB	0e7H
	DB	05eH
	DB	0dfH
	DB	05eH
	DB	0e7H
	DB	05eH
	DB	0e7H
	DB	03eH
	DB	0dfH
	DB	05eH
	DB	0e7H
	DB	05dH
	DB	0e7H
	DB	05eH
	DB	0dfH
	DB	05eH
	DB	0e7H
	DB	05dH
	DB	0e7H
	DB	03eH
	DB	0e7H
	DB	05eH
	DB	0dfH
	DB	05eH
	DB	0e7H
	DB	05eH
	DB	0dfH
	DB	05eH
	DB	0dfH
	DB	05eH
	DB	0e7H
	DB	05eH
	DB	0e7H
	DB	05eH
	DB	0e7H
	DB	05eH
	DB	0e7H
	DB	05eH
	DB	0e7H
	DB	05eH
	DB	0dfH
	DB	05eH
	DB	0e7H
	DB	05eH
	DB	0e7H
	DB	05eH
	DB	0dfH
	DB	05eH
	DB	0e7H
	DB	05eH
	DB	0e7H
	DB	05eH
	DB	0e7H
	DB	05eH
	DB	0e7H
	DB	05eH
	DB	0e7H
	DB	05eH
	DB	0e7H
	DB	07eH
	DB	0e7H
	DB	05eH
	DB	0e7H
	DB	05eH
	DB	0e7H
	DB	07eH
	DB	0dfH
	DB	05eH
	DB	0e7H
	DB	05eH
	DB	0e7H
	DB	07eH
	DB	0dfH
	DB	05eH
	DB	0e7H
	DB	05eH
	DB	0e7H
	DB	05eH
	DB	0e7H
	DB	07eH
	DB	0e7H
	DB	07eH
	DB	0e7H
	DB	07eH
	DB	0e7H
	DB	07eH
	DB	0e7H
	DB	07eH
	DB	0e7H
	DB	05eH
	DB	0e7H
	DB	07eH
	DB	0e7H
	DB	07eH
	DB	0e7H
	DB	05eH
	DB	0e7H
	DB	05eH
	DB	0e7H
	DB	05eH
	DB	0e7H
	DB	05eH
	DB	0e7H
	DB	05eH
	DB	0e7H
	DB	05eH
	DB	0e7H
	DB	07eH
	DB	0e7H
	DB	05eH
	DB	0e7H
	DB	05eH
	DB	0e7H
	DB	07eH
	DB	0e7H
	DB	05eH
	DB	0e7H
	DB	05eH
	DB	0e7H
	DB	07eH
	DB	0e7H
	DB	05eH
	DB	0e7H
	DB	05eH
	DB	0e7H
	DB	07eH
	DB	0e7H
	DB	05eH
	DB	0e7H
	DB	07eH
	DB	0e7H
	DB	05eH
	DB	0e7H
	DB	07eH
	DB	0e7H
	DB	07eH
	DB	0e7H
	DB	05eH
	DB	0e7H
	DB	07eH
	DB	0e7H
	DB	07eH
	DB	0e7H
	DB	07eH
	DB	0e7H
	DB	05eH
	DB	0e7H
	DB	07eH
	DB	0e7H
	DB	07eH
	DB	0e7H
	DB	07eH
	DB	0e7H
	DB	05eH
	DB	0e7H
	DB	05eH
	DB	0e7H
	DB	05eH
	DB	0e7H
	DB	07eH
	DB	0e7H
	DB	05eH
	DB	0e7H
	DB	07eH
	DB	0e7H
	DB	05eH
	DB	0e7H
	DB	05eH
	DB	0e7H
	DB	07eH
	DB	0e7H
	DB	05eH
	DB	0e7H
	DB	05eH
	DB	0e7H
	DB	05eH
	DB	0e7H
	DB	05eH
	DB	0e7H
	DB	05eH
	DB	0e7H
	DB	05eH
	DB	0e7H
	DB	05eH
	DB	0dfH
	DB	05eH
	DB	0e7H
	DB	05eH
	DB	0e7H
	DB	05eH
	DB	0e7H
	DB	05eH
	DB	0e7H
	DB	05eH
	DB	0e7H
	DB	05eH
	DB	0e7H
	DB	05eH
	DB	0e7H
	DB	05eH
	DB	0dfH
	DB	05eH
	DB	0e7H
	DB	05eH
	DB	0e7H
	DB	05eH
	DB	0dfH
	DB	05eH
	DB	0e7H
	DB	05eH
	DB	0e7H
	DB	03eH
	DB	0e7H
	DB	05eH
	DB	0dfH
	DB	05eH
	DB	0dfH
	DB	05eH
	DB	0e7H
	DB	05eH
	DB	0dfH
	DB	05dH
	DB	0e7H
	DB	05eH
	DB	0e7H
	DB	05eH
	DB	0e7H
	DB	05dH
	DB	0dfH
	DB	03eH
	DB	0dfH
	DB	03eH
	DB	0e7H
	DB	05eH
	DB	0dfH
	DB	03eH
	DB	0e7H
	DB	05dH
	DB	0dfH
	DB	05eH
	DB	0dfH
	DB	05eH
	DB	0dfH
	DB	03dH
	DB	0e7H
	DB	03eH
	DB	0dfH
	DB	05eH
	DB	0dfH
	DB	05dH
	DB	0dfH
	DB	03eH
	DB	0dfH
	DB	03eH
	DB	0dfH
	DB	03eH
	DB	0dfH
	DB	03eH
	DB	0dfH
	DB	03dH
	DB	0dfH
	DB	03eH
	DB	0dfH
	DB	03eH
	DB	0dfH
	DB	03eH
	DB	0dfH
	DB	03eH
	DB	0dfH
	DB	03dH
	DB	0dfH
	DB	03eH
	DB	0dfH
	DB	03dH
	DB	0dfH
	DB	01eH
	DB	0dfH
	DB	03eH
	DB	0dfH
	DB	01eH
	DB	0dfH
	DB	03dH
	DB	0d7H
	DB	03dH
	DB	0dfH
	DB	03eH
	DB	0dfH
	DB	01dH
	DB	0d7H
	DB	03dH
	DB	0dfH
	DB	01eH
	DB	0dfH
	DB	01dH
	DB	0dfH
	DB	03eH
	DB	0d7H
	DB	03eH
	DB	0d7H
	DB	01dH
	DB	0dfH
	DB	01dH
	DB	0d7H
	DB	03eH
	DB	0dfH
	DB	01dH
	DB	0d7H
	DB	01eH
	DB	0dfH
	DB	01eH
	DB	0d7H
	DB	01dH
	DB	0d7H
	DB	01dH
	DB	0d7H
	DB	01eH
	DB	0d7H
	DB	01dH
	DB	0d7H
	DB	0fdH
	DB	0d6H
	DB	01dH
	DB	0d7H
	DB	0fdH
	DB	0d6H
	DB	0fdH
	DB	0ceH
	DB	0fdH
	DB	0d6H
	DB	0fdH
	DB	0d6H
	DB	0fdH
	DB	0ceH
	DB	0fdH
	DB	0ceH
	DB	0fdH
	DB	0ceH
	DB	0ddH
	DB	0ceH
	DB	0fcH
	DB	0ceH
	DB	0ddH
	DB	0ceH
	DB	0ddH
	DB	0ceH
	DB	0dcH
	DB	0ceH
	DB	0ddH
	DB	0ceH
	DB	0ddH
	DB	0c6H
	DB	0dcH
	DB	0ceH
	DB	0bdH
	DB	0ceH
	DB	0bdH
	DB	0c6H
	DB	0dcH
	DB	0ceH
	DB	0bcH
	DB	0c6H
	DB	0bdH
	DB	0c6H
	DB	0bdH
	DB	0c6H
	DB	0bcH
	DB	0c6H
	DB	0bcH
	DB	0c6H
	DB	0bdH
	DB	0c6H
	DB	09cH
	DB	0beH
	DB	0bcH
	DB	0c6H
	DB	09cH
	DB	0c6H
	DB	09cH
	DB	0beH
	DB	09cH
	DB	0beH
	DB	09cH
	DB	0c6H
	DB	09cH
	DB	0beH
	DB	09cH
	DB	0beH
	DB	09cH
	DB	0beH
	DB	07cH
	DB	0beH
	DB	09cH
	DB	0beH
	DB	07bH
	DB	0beH
	DB	07cH
	DB	0beH
	DB	07cH
	DB	0beH
	DB	07bH
	DB	0b6H
	DB	07cH
	DB	0beH
	DB	07bH
	DB	0beH
	DB	07cH
	DB	0b6H
	DB	07bH
	DB	0beH
	DB	05bH
	DB	0b6H
	DB	07cH
	DB	0b6H
	DB	05bH
	DB	0b6H
	DB	05bH
	DB	0b6H
	DB	05cH
	DB	0b6H
	DB	05bH
	DB	0b6H
	DB	05cH
	DB	0b6H
	DB	05bH
	DB	0b6H
	DB	05bH
	DB	0b6H
	DB	05bH
	DB	0aeH
	DB	03cH
	DB	0b6H
	DB	03bH
	DB	0aeH
	DB	05bH
	DB	0aeH
	DB	05bH
	DB	0b6H
	DB	03bH
	DB	0aeH
	DB	03bH
	DB	0aeH
	DB	03bH
	DB	0aeH
	DB	03bH
	DB	0b6H
	DB	03bH
	DB	0aeH
	DB	03bH
	DB	0aeH
	DB	03bH
	DB	0aeH
	DB	01bH
	DB	0aeH
	DB	03bH
	DB	0aeH
	DB	03bH
	DB	0aeH
	DB	03bH
	DB	0aeH
	DB	01bH
	DB	0aeH
	DB	01bH
	DB	0aeH
	DB	03bH
	DB	0aeH
	DB	01bH
	DB	0aeH
	DB	03bH
	DB	0aeH
	DB	01bH
	DB	0aeH
	DB	01bH
	DB	0aeH
	DB	03bH
	DB	0aeH
	DB	01bH
	DB	0aeH
	DB	03aH
	DB	0aeH
	DB	03bH
	DB	0aeH
	DB	01bH
	DB	0aeH
	DB	03aH
	DB	0aeH
	DB	03bH
	DB	0a6H
	DB	01bH
	DB	0aeH
	DB	03bH
	DB	0aeH
	DB	01bH
	DB	0a6H
	DB	01bH
	DB	0aeH
	DB	03bH
	DB	0aeH
	DB	01bH
	DB	0a6H
	DB	03bH
	DB	0aeH
	DB	01bH
	DB	0aeH
	DB	01bH
	DB	0aeH
	DB	03bH
	DB	0aeH
	DB	01aH
	DB	0aeH
	DB	01bH
	DB	0aeH
	DB	03bH
	DB	0aeH
	DB	03bH
	DB	0aeH
	DB	01bH
	DB	0aeH
	DB	03bH
	DB	0aeH
	DB	01bH
	DB	0aeH
	DB	01bH
	DB	0aeH
	DB	03bH
	DB	0aeH
	DB	01bH
	DB	0aeH
	DB	01bH
	DB	0aeH
	DB	03bH
	DB	0aeH
	DB	03bH
	DB	0aeH
	DB	01bH
	DB	0aeH
	DB	03bH
	DB	0aeH
	DB	01aH
	DB	0aeH
	DB	01bH
	DB	0aeH
	DB	03bH
	DB	0a6H
	DB	03bH
	DB	0aeH
	DB	01bH
	DB	0aeH
	DB	03bH
	DB	0aeH
	DB	03bH
	DB	0aeH
	DB	01bH
	DB	0aeH
	DB	03bH
	DB	0aeH
	DB	01bH
	DB	0aeH
	DB	01bH
	DB	0aeH
	DB	03bH
	DB	0aeH
	DB	01bH
	DB	0aeH
	DB	01bH
	DB	0aeH
	DB	03bH
	DB	0aeH
	DB	01bH
	DB	0aeH
	DB	01aH
	DB	0aeH
	DB	03bH
	DB	0aeH
	DB	01bH
	DB	0a6H
	DB	03bH
	DB	0aeH
	DB	03bH
	DB	0aeH
	DB	01aH
	DB	0aeH
	DB	03bH
	DB	0aeH
	DB	01bH
	DB	0aeH
	DB	03aH
	DB	0aeH
	DB	03bH
	DB	0aeH
	DB	01bH
	DB	0aeH
	DB	03bH
	DB	0aeH
	DB	01bH
	DB	0aeH
	DB	01bH
	DB	0aeH
	DB	03bH
	DB	0aeH
	DB	01bH
	DB	0a6H
	DB	01bH
	DB	0aeH
	DB	03bH
	DB	0aeH
	DB	01bH
	DB	0aeH
	DB	03aH
	DB	0aeH
	DB	03bH
	DB	0a6H
	DB	01bH
	DB	0aeH
	DB	01aH
	DB	0aeH
	DB	03bH
	DB	0a6H
	DB	01bH
	DB	0aeH
	DB	01bH
	DB	0aeH
	DB	01bH
	DB	0a6H
	DB	03bH
	DB	0aeH
	DB	01bH
	DB	0aeH
	DB	03bH
	DB	0aeH
	DB	01bH
	DB	0a6H
	DB	01bH
	DB	0aeH
	DB	01bH
	DB	0aeH
	DB	03bH
	DB	0aeH
	DB	03bH
	DB	0aeH
	DB	01aH
	DB	0aeH
	DB	01bH
	DB	0aeH
	DB	03bH
	DB	0a6H
	DB	01bH
	DB	0aeH
	DB	03bH
	DB	0aeH
	DB	03bH
	DB	0aeH
	DB	01bH
	DB	0a6H
	DB	03bH
	DB	0aeH
	DB	03aH
	DB	0aeH
	DB	01bH
	DB	0aeH
	DB	03bH
	DB	0a6H
	DB	01bH
	DB	0aeH
	DB	01bH
	DB	0aeH
	DB	03bH
	DB	0aeH
	DB	01aH
	DB	0aeH
	DB	01bH
	DB	0aeH
	DB	03bH
	DB	0aeH
	DB	03bH
	DB	0aeH
	DB	01aH
	DB	0aeH
	DB	03bH
	DB	0aeH
	DB	03bH
	DB	0aeH
	DB	01bH
	DB	0aeH
	DB	01bH
	DB	0aeH
	DB	03bH
	DB	0aeH
	DB	01bH
	DB	0aeH
	DB	01bH
	DB	0aeH
	DB	03bH
	DB	0aeH
	DB	01bH
	DB	0aeH
	DB	01bH
	DB	0aeH
	DB	03bH
	DB	0aeH
	DB	03bH
	DB	0aeH
	DB	01bH
	DB	0aeH
	DB	03bH
	DB	0aeH
	DB	03bH
	DB	0aeH
	DB	01bH
	DB	0aeH
	DB	01bH
	DB	0aeH
	DB	03bH
	DB	0aeH
	DB	01bH
	DB	0aeH
	DB	01bH
	DB	0aeH
	DB	03bH
	DB	0aeH
	DB	03bH
	DB	0aeH
	DB	01bH
	DB	0aeH
	DB	03bH
	DB	0aeH
	DB	03bH
	DB	0aeH
	DB	01bH
	DB	0aeH
	DB	03bH
	DB	0aeH
	DB	01bH
	DB	0aeH
	DB	03bH
	DB	0aeH
	DB	03bH
	DB	0aeH
	DB	01aH
	DB	0aeH
	DB	03bH
	DB	0aeH
	DB	03bH
	DB	0aeH
	DB	03bH
	DB	0aeH
	DB	03bH
	DB	0aeH
	DB	03bH
	DB	0aeH
	DB	03bH
	DB	0aeH
	DB	03bH
	DB	0b6H
	DB	03bH
	DB	0aeH
	DB	05bH
	DB	0b6H
	DB	03bH
	DB	0b6H
	DB	05cH
	DB	0b6H
	DB	05bH
	DB	0aeH
	DB	05bH
	DB	0b6H
	DB	03cH
	DB	0b6H
	DB	05bH
	DB	0b6H
	DB	05bH
	DB	0b6H
	DB	05bH
	DB	0b6H
	DB	05cH
	DB	0b6H
	DB	05bH
	DB	0b6H
	DB	07cH
	DB	0b6H
	DB	07bH
	DB	0b6H
	DB	05bH
	DB	0b6H
	DB	07cH
	DB	0b6H
	DB	05bH
	DB	0beH
	DB	07bH
	DB	0b6H
	DB	07cH
	DB	0beH
	DB	07cH
	DB	0beH
	DB	07bH
	DB	0beH
	DB	07cH
	DB	0beH
	DB	09cH
	DB	0beH
	DB	07cH
	DB	0beH
	DB	09cH
	DB	0beH
	DB	09cH
	DB	0beH
	DB	09cH
	DB	0beH
	DB	09cH
	DB	0beH
	DB	09cH
	DB	0c6H
	DB	09cH
	DB	0c6H
	DB	09cH
	DB	0c6H
	DB	0bcH
	DB	0beH
	DB	0bcH
	DB	0c6H
	DB	0bcH
	DB	0c6H
	DB	09cH
	DB	0c6H
	DB	0bdH
	DB	0c6H
	DB	0bdH
	DB	0c6H
	DB	0bcH
	DB	0c6H
	DB	0bdH
	DB	0c6H
	DB	0bdH
	DB	0c6H
	DB	0dcH
	DB	0c6H
	DB	0bcH
	DB	0ceH
	DB	0ddH
	DB	0ceH
	DB	0ddH
	DB	0c6H
	DB	0ddH
	DB	0ceH
	DB	0dcH
	DB	0ceH
	DB	0ddH
	DB	0ceH
	DB	0ddH
	DB	0ceH
	DB	0fcH
	DB	0ceH
	DB	0ddH
	DB	0ceH
	DB	0fdH
	DB	0ceH
	DB	0fdH
	DB	0ceH
	DB	0ddH
	DB	0d6H
	DB	0fdH
	DB	0d6H
	DB	0fdH
	DB	0ceH
	DB	0fdH
	DB	0ceH
	DB	0fdH
	DB	0d6H
	DB	01dH
	DB	0d7H
	DB	0fdH
	DB	0d6H
	DB	01dH
	DB	0d7H
	DB	01dH
	DB	0d7H
	DB	01dH
	DB	0d7H
	DB	01eH
	DB	0d7H
	DB	01dH
	DB	0d7H
	DB	01dH
	DB	0d7H
	DB	01eH
	DB	0dfH
	DB	01dH
	DB	0d7H
	DB	01dH
	DB	0dfH
	DB	01eH
	DB	0d7H
	DB	03dH
	DB	0dfH
	DB	03dH
	DB	0dfH
	DB	01eH
	DB	0d7H
	DB	03dH
	DB	0dfH
	DB	03dH
	DB	0d7H
	DB	01eH
	DB	0d7H
	DB	03dH
	DB	0dfH
	DB	03eH
	DB	0dfH
	DB	03dH
	DB	0d7H
	DB	01eH
	DB	0dfH
	DB	03eH
	DB	0dfH
	DB	03dH
	DB	0dfH
	DB	03eH
	DB	0dfH
	DB	03eH
	DB	0dfH
	DB	03dH
	DB	0dfH
	DB	03eH
	DB	0dfH
	DB	03dH
	DB	0dfH
	DB	03eH
	DB	0dfH
	DB	03eH
	DB	0dfH
	DB	03eH
	DB	0dfH
	DB	03eH
	DB	0dfH
	DB	03dH
	DB	0dfH
	DB	03eH
	DB	0dfH
	DB	05eH
	DB	0dfH
	DB	03dH
	DB	0dfH
	DB	03eH
	DB	0dfH
	DB	05eH
	DB	0e7H
	DB	05eH
	DB	0dfH
	DB	03eH
	DB	0dfH
	DB	05dH
	DB	0dfH
	DB	05eH
	DB	0e7H
	DB	03eH
	DB	0dfH
	DB	05eH
	DB	0dfH
	DB	05eH
	DB	0e7H
	DB	05eH
	DB	0dfH
	DB	05dH
	DB	0e7H
	DB	03eH
	DB	0dfH
	DB	05eH
	DB	0e7H
	DB	05eH
	DB	0dfH
	DB	03eH
	DB	0dfH
	DB	05eH
	DB	0dfH
	DB	03eH
	DB	0e7H
	DB	05eH
	DB	0e7H
	DB	05eH
	DB	0dfH
	DB	05eH
	DB	0e7H
	DB	05eH
	DB	0e7H
	DB	05eH
	DB	0dfH
	DB	05eH
	DB	0e7H
	DB	05eH
	DB	0e7H
	DB	05eH
	DB	0e7H
	DB	05eH
	DB	0dfH
	DB	05eH
	DB	0e7H
	DB	05eH
	DB	0e7H
	DB	05eH
	DB	0e7H
	DB	05eH
	DB	0dfH
	DB	05eH
	DB	0e7H
	DB	05eH
	DB	0e7H
	DB	05eH
	DB	0e7H
	DB	05eH
	DB	0e7H
	DB	05eH
	DB	0e7H
	DB	05eH
	DB	0e7H
	DB	07eH
	DB	0e7H
	DB	05eH
	DB	0e7H
	DB	05eH
	DB	0e7H
	DB	07eH
	DB	0dfH
	DB	05eH
	DB	0e7H
	DB	05eH
	DB	0e7H
	DB	07eH
	DB	0e7H
	DB	05eH
	DB	0e7H
	DB	07eH
	DB	0e7H
	DB	07eH
	DB	0e7H
	DB	07eH
	DB	0e7H
	DB	07eH
	DB	0e7H
	DB	05eH
	DB	0e7H
	DB	05eH
	DB	0e7H
	DB	05eH
	DB	0e7H
	DB	05eH
	DB	0e7H
	DB	07eH
	DB	0e7H
	DB	05eH
	DB	0e7H
	DB	05eH
	DB	0e7H
	DB	07eH
	DB	0e7H
	DB	07eH
	DB	0e7H
	DB	05eH
	DB	0e7H
	DB	07eH
	DB	0e7H
	DB	07eH
	DB	0e7H
	DB	05eH
	DB	0e7H
	DB	07eH
	DB	0e7H
	DB	05eH
	DB	0e7H
	DB	05eH
	DB	0e7H
	DB	07eH
	DB	0e7H
	DB	07eH
	DB	0e7H
	DB	05eH
	DB	0e7H
	DB	07eH
	DB	0e7H
	DB	07eH
	DB	0e7H
	DB	05eH
	DB	0e7H
	DB	07eH
	DB	0e7H
	DB	07eH
	DB	0e7H
	DB	05eH
	DB	0e7H
	DB	07eH
	DB	0e7H
	DB	05eH
	DB	0e7H
	DB	05eH
	DB	0e7H
	DB	05eH
	DB	0e7H
	DB	07eH
	DB	0e7H
	DB	05eH
	DB	0e7H
	DB	05eH
	DB	0e7H
	DB	05eH
	DB	0e7H
	DB	07eH
	DB	0e7H
	DB	05eH
	DB	0e7H
	DB	05eH
	DB	0e7H
	DB	07eH
	DB	0e7H
	DB	05eH
	DB	0e7H
	DB	07eH
	DB	0e7H
	DB	07eH
	DB	0e7H
	DB	07eH
	DB	0e7H
	DB	07eH
	DB	0e7H
	DB	07eH
	DB	0e7H
	DB	05eH
	DB	0e7H
	DB	05eH
	DB	0e7H
	DB	05eH
	DB	0e7H
	DB	05eH
	DB	0dfH
	DB	07eH
	DB	0e7H
	DB	05eH
	DB	0e7H
	DB	05eH
	DB	0e7H
	DB	05eH
	DB	0e7H
	DB	05eH
	DB	0e7H
	DB	05eH
	DB	0e7H
	DB	05eH
	DB	0e7H
	DB	05eH
	DB	0e7H
	DB	05eH
	DB	0e7H
	DB	05eH
	DB	0dfH
	DB	05eH
	DB	0e7H
	DB	05eH
	DB	0e7H
	DB	05eH
	DB	0e7H
	DB	05eH
	DB	0e7H
	DB	05eH
	DB	0e7H
	DB	05eH
	DB	0e7H
	DB	05eH
	DB	0e7H
	DB	05eH
	DB	0dfH
	DB	05eH
	DB	0dfH
	DB	05eH
	DB	0e7H
	DB	05eH
	DB	0e7H
	DB	05dH
	DB	0e7H
	DB	05eH
	DB	0e7H
	DB	03eH
	DB	0dfH
	DB	03eH
	DB	0dfH
	DB	05eH
	DB	0e7H
	DB	05eH
	DB	0dfH
	DB	05eH
	DB	0e7H
	DB	05eH
	DB	0e7H
	DB	05eH
	DB	0e7H
	DB	05eH
	DB	0dfH
	DB	03eH
	DB	0dfH
	DB	03eH
	DB	0e7H
	DB	03eH
	DB	0dfH
	DB	05dH
	DB	0e7H
	DB	03eH
	DB	0dfH
	DB	05eH
	DB	0dfH
	DB	05eH
	DB	0e7H
	DB	03eH
	DB	0dfH
	DB	03dH
	DB	0dfH
	DB	05eH
	DB	0dfH
	DB	03eH
	DB	0dfH
	DB	05eH
	DB	0dfH
	DB	03eH
	DB	0dfH
	DB	03eH
	DB	0dfH
	DB	03eH
	DB	0dfH
	DB	03dH
	DB	0dfH
	DB	03eH
	DB	0dfH
	DB	03eH
	DB	0dfH
	DB	03dH
	DB	0dfH
	DB	03eH
	DB	0dfH
	DB	03eH
	DB	0dfH
	DB	03dH
	DB	0dfH
	DB	03eH
	DB	0dfH
	DB	03eH
	DB	0dfH
	DB	01eH
	DB	0dfH
	DB	03dH
	DB	0dfH
	DB	03eH
	DB	0dfH
	DB	03eH
	DB	0dfH
	DB	01dH
	DB	0d7H
	DB	03eH
	DB	0dfH
	DB	01dH
	DB	0dfH
	DB	03dH
	DB	0d7H
	DB	03eH
	DB	0dfH
	DB	01eH
	DB	0dfH
	DB	01dH
	DB	0d7H
	DB	01dH
	DB	0dfH
	DB	01dH
	DB	0dfH
	DB	01dH
	DB	0d7H
	DB	01eH
	DB	0dfH
	DB	01dH
	DB	0d7H
	DB	01eH
	DB	0d7H
	DB	01dH
	DB	0d7H
	DB	01dH
	DB	0d7H
	DB	01dH
	DB	0d7H
	DB	0fdH
	DB	0d6H
	DB	01dH
	DB	0d7H
	DB	0fdH
	DB	0d6H
	DB	0fdH
	DB	0ceH
	DB	0fdH
	DB	0d6H
	DB	0fdH
	DB	0d6H
	DB	0fdH
	DB	0ceH
	DB	0fdH
	DB	0d6H
	DB	0fdH
	DB	0ceH
	DB	0ddH
	DB	0ceH
	DB	0fdH
	DB	0ceH
	DB	0ddH
	DB	0ceH
	DB	0ddH
	DB	0ceH
	DB	0dcH
	DB	0ceH
	DB	0ddH
	DB	0ceH
	DB	0dcH
	DB	0c6H
	DB	0dcH
	DB	0ceH
	DB	0bdH
	DB	0ceH
	DB	0ddH
	DB	0c6H
	DB	0bcH
	DB	0c6H
	DB	0bcH
	DB	0c6H
	DB	0bdH
	DB	0c6H
	DB	0bcH
	DB	0c6H
	DB	0bcH
	DB	0c6H
	DB	0bdH
	DB	0c6H
	DB	0bcH
	DB	0c6H
	DB	0bcH
	DB	0c6H
	DB	0bcH
	DB	0beH
	DB	09cH
	DB	0c6H
	DB	09cH
	DB	0beH
	DB	09cH
	DB	0beH
	DB	09cH
	DB	0c6H
	DB	09cH
	DB	0beH
	DB	09cH
	DB	0beH
	DB	09cH
	DB	0beH
	DB	07cH
	DB	0beH
	DB	09bH
	DB	0beH
	DB	07cH
	DB	0beH
	DB	07cH
	DB	0beH
	DB	07cH
	DB	0beH
	DB	07bH
	DB	0b6H
	DB	07cH
	DB	0b6H
	DB	07cH
	DB	0beH
	DB	07cH
	DB	0b6H
	DB	05bH
	DB	0beH
	DB	07bH
	DB	0b6H
	DB	07cH
	DB	0b6H
	DB	05bH
	DB	0b6H
	DB	05bH
	DB	0b6H
	DB	05cH
	DB	0b6H
	DB	05bH
	DB	0b6H
	DB	05cH
	DB	0b6H
	DB	05bH
	DB	0b6H
	DB	05bH
	DB	0b6H
	DB	05bH
	DB	0b6H
	DB	03cH
	DB	0b6H
	DB	05bH
	DB	0aeH
	DB	03bH
	DB	0b6H
	DB	03bH
	DB	0aeH
	DB	05bH
	DB	0b6H
	DB	03bH
	DB	0aeH
	DB	03bH
	DB	0aeH
	DB	03bH
	DB	0aeH
	DB	03bH
	DB	0aeH
	DB	03bH
	DB	0aeH
	DB	03bH
	DB	0aeH
	DB	01aH
	DB	0aeH
	DB	03bH
	DB	0aeH
	DB	03bH
	DB	0aeH
	DB	01bH
	DB	0a6H
	DB	03aH
	DB	0aeH
	DB	01bH
	DB	0aeH
	DB	03bH
	DB	0aeH
	DB	01aH
	DB	0a6H
	DB	03bH
	DB	0aeH
	DB	03bH
	DB	0aeH
	DB	01bH
	DB	0a6H
	DB	01bH
	DB	0aeH
	DB	03bH
	DB	0aeH
	DB	01bH
	DB	0aeH
	DB	01bH
	DB	0aeH
	DB	03bH
	DB	0aeH
	DB	01bH
	DB	0aeH
	DB	03bH
	DB	0aeH
	DB	03bH
	DB	0aeH
	DB	01aH
	DB	0aeH
	DB	03bH
	DB	0aeH
	DB	01bH
	DB	0aeH
	DB	03bH
	DB	0aeH
	DB	01aH
	DB	0aeH
	DB	03bH
	DB	0aeH
	DB	01bH
	DB	0aeH
	DB	03bH
	DB	0aeH
	DB	03bH
	DB	0aeH
	DB	01bH
	DB	0aeH
	DB	01bH
	DB	0aeH
	DB	03bH
	DB	0aeH
	DB	01bH
	DB	0a6H
	DB	03bH
	DB	0aeH
	DB	03bH
	DB	0aeH
	DB	01bH
	DB	0a6H
	DB	03bH
	DB	0aeH
	DB	03bH
	DB	0aeH
	DB	01bH
	DB	0aeH
	DB	03bH
	DB	0a6H
	DB	01bH
	DB	0aeH
	DB	03bH
	DB	0aeH
	DB	03bH
	DB	0aeH
	DB	01bH
	DB	0aeH
	DB	01bH
	DB	0aeH
	DB	03bH
	DB	0aeH
	DB	01bH
	DB	0aeH
	DB	01bH
	DB	0aeH
	DB	03bH
	DB	0aeH
	DB	01bH
	DB	0aeH
	DB	03bH
	DB	0aeH
	DB	03bH
	DB	0aeH
	DB	01bH
	DB	0aeH
	DB	03bH
	DB	0aeH
	DB	03bH
	DB	0aeH
	DB	01bH
	DB	0aeH
	DB	03bH
	DB	0aeH
	DB	03bH
	DB	0aeH
	DB	01bH
	DB	0aeH
	DB	03bH
	DB	0aeH
	DB	01bH
	DB	0aeH
	DB	01bH
	DB	0aeH
	DB	03bH
	DB	0aeH
	DB	01bH
	DB	0aeH
	DB	03bH
	DB	0aeH
	DB	01bH
	DB	0a6H
	DB	01bH
	DB	0aeH
	DB	03bH
	DB	0aeH
	DB	01bH
	DB	0aeH
	DB	03bH
	DB	0aeH
	DB	01aH
	DB	0aeH
	DB	03bH
	DB	0aeH
	DB	01bH
	DB	0aeH
	DB	03bH
	DB	0aeH
	DB	01aH
	DB	0aeH
	DB	03bH
	DB	0aeH
	DB	01bH
	DB	0aeH
	DB	01bH
	DB	0a6H
	DB	03bH
	DB	0aeH
	DB	01bH
	DB	0aeH
	DB	03bH
	DB	0aeH
	DB	03bH
	DB	0aeH
	DB	01bH
	DB	0aeH
	DB	03aH
	DB	0aeH
	DB	03bH
	DB	0aeH
	DB	01bH
	DB	0aeH
	DB	03aH
	DB	0aeH
	DB	01bH
	DB	0aeH
	DB	03bH
	DB	0aeH
	DB	03aH
	DB	0aeH
	DB	01bH
	DB	0aeH
	DB	03bH
	DB	0aeH
	DB	01bH
	DB	0aeH
	DB	03bH
	DB	0aeH
	DB	03bH
	DB	0aeH
	DB	01bH
	DB	0aeH
	DB	03bH
	DB	0aeH
	DB	01bH
	DB	0aeH
	DB	03bH
	DB	0aeH
	DB	01aH
	DB	0aeH
	DB	01bH
	DB	0aeH
	DB	03bH
	DB	0aeH
	DB	01bH
	DB	0aeH
	DB	03bH
	DB	0aeH
	DB	03bH
	DB	0aeH
	DB	01aH
	DB	0aeH
	DB	03bH
	DB	0a6H
	DB	03bH
	DB	0aeH
	DB	01bH
	DB	0aeH
	DB	01bH
	DB	0a6H
	DB	03bH
	DB	0aeH
	DB	01bH
	DB	0aeH
	DB	01bH
	DB	0a6H
	DB	03bH
	DB	0aeH
	DB	03aH
	DB	0aeH
	DB	01bH
	DB	0a6H
	DB	03bH
	DB	0aeH
	DB	03aH
	DB	0aeH
	DB	01bH
	DB	0aeH
	DB	01bH
	DB	0aeH
	DB	03aH
	DB	0a6H
	DB	03bH
	DB	0aeH
	DB	01bH
	DB	0aeH
	DB	01aH
	DB	0a6H
	DB	03bH
	DB	0aeH
	DB	01bH
	DB	0aeH
	DB	01bH
	DB	0a6H
	DB	03bH
	DB	0aeH
	DB	03aH
	DB	0aeH
	DB	01bH
	DB	0a6H
	DB	03bH
	DB	0aeH
	DB	03aH
	DB	0aeH
	DB	01bH
	DB	0a6H
	DB	03bH
	DB	0aeH
	DB	01aH
	DB	0aeH
	DB	01bH
	DB	0a6H
	DB	03bH
	DB	0aeH
	DB	01aH
	DB	0aeH
	DB	03bH
	DB	0a6H
	DB	01bH
	DB	0aeH
	DB	03aH
	DB	0aeH
	DB	03bH
	DB	0a6H
	DB	03bH
	DB	0aeH
	DB	01bH
	DB	0aeH
	DB	03bH
	DB	0aeH
	DB	03bH
	DB	0aeH
	DB	03bH
	DB	0aeH
	DB	03bH
	DB	0aeH
	DB	03bH
	DB	0aeH
	DB	03bH
	DB	0b6H
	DB	05bH
	DB	0aeH
	DB	05bH
	DB	0b6H
	DB	03bH
	DB	0aeH
	DB	03bH
	DB	0aeH
	DB	05cH
	DB	0b6H
	DB	05bH
	DB	0b6H
	DB	03bH
	DB	0b6H
	DB	05cH
	DB	0b6H
	DB	05bH
	DB	0b6H
	DB	05cH
	DB	0b6H
	DB	05bH
	DB	0b6H
	DB	05bH
	DB	0b6H
	DB	07cH
	DB	0b6H
	DB	07bH
	DB	0b6H
	DB	05cH
	DB	0b6H
	DB	07cH
	DB	0beH
	DB	07cH
	DB	0beH
	DB	07cH
	DB	0b6H
	DB	07bH
	DB	0beH
	DB	07cH
	DB	0b6H
	DB	07cH
	DB	0beH
	DB	07cH
	DB	0beH
	DB	09bH
	DB	0beH
	DB	09cH
	DB	0beH
	DB	09cH
	DB	0beH
	DB	09cH
	DB	0beH
	DB	09cH
	DB	0beH
	DB	09cH
	DB	0beH
	DB	09cH
	DB	0beH
	DB	09cH
	DB	0c6H
	DB	09cH
	DB	0beH
	DB	0bcH
	DB	0c6H
	DB	09cH
	DB	0c6H
	DB	0bcH
	DB	0c6H
	DB	0bcH
	DB	0c6H
	DB	0bcH
	DB	0c6H
	DB	0bdH
	DB	0c6H
	DB	0bcH
	DB	0c6H
	DB	0bcH
	DB	0c6H
	DB	0bdH
	DB	0c6H
	DB	0ddH
	DB	0ceH
	DB	0bcH
	DB	0ceH
	DB	0dcH
	DB	0c6H
	DB	0ddH
	DB	0ceH
	DB	0ddH
	DB	0ceH
	DB	0dcH
	DB	0ceH
	DB	0ddH
	DB	0ceH
	DB	0ddH
	DB	0ceH
	DB	0ddH
	DB	0ceH
	DB	0fdH
	DB	0ceH
	DB	0fdH
	DB	0ceH
	DB	0fdH
	DB	0ceH
	DB	0fdH
	DB	0ceH
	DB	0fdH
	DB	0d6H
	DB	0fdH
	DB	0d6H
	DB	0fdH
	DB	0d6H
	DB	0fdH
	DB	0d6H
	DB	01dH
	DB	0d7H
	DB	0fdH
	DB	0d6H
	DB	01dH
	DB	0d7H
	DB	01dH
	DB	0d7H
	DB	01dH
	DB	0d7H
	DB	01eH
	DB	0d7H
	DB	01dH
	DB	0d7H
	DB	01dH
	DB	0dfH
	DB	01eH
	DB	0d7H
	DB	01dH
	DB	0dfH
	DB	03eH
	DB	0d7H
	DB	03eH
	DB	0d7H
	DB	03dH
	DB	0dfH
	DB	01eH
	DB	0dfH
	DB	01eH
	DB	0d7H
	DB	01dH
	DB	0dfH
	DB	03eH
	DB	0dfH
	DB	03eH
	DB	0dfH
	DB	03dH
	DB	0dfH
	DB	03eH
	DB	0dfH
	DB	03dH
	DB	0dfH
	DB	01eH
	DB	0dfH
	DB	03dH
	DB	0dfH
	DB	03eH
	DB	0dfH
	DB	03eH
	DB	0d7H
	DB	03dH
	DB	0dfH
	DB	03eH
	DB	0dfH
	DB	03eH
	DB	0dfH
	DB	03dH
	DB	0dfH
	DB	03eH
	DB	0dfH
	DB	03dH
	DB	0dfH
	DB	03eH
	DB	0dfH
	DB	03eH
	DB	0dfH
	DB	03dH
	DB	0dfH
	DB	03eH
	DB	0dfH
	DB	03eH
	DB	0dfH
	DB	05eH
	DB	0dfH
	DB	03eH
	DB	0dfH
	DB	05dH
	DB	0dfH
	DB	03eH
	DB	0dfH
	DB	03eH
	DB	0e7H
	DB	05eH
	DB	0e7H
	DB	03eH
	DB	0dfH
	DB	03eH
	DB	0dfH
	DB	05eH
	DB	0e7H
	DB	05dH
	DB	0dfH
	DB	05eH
	DB	0e7H
	DB	03eH
	DB	0e7H
	DB	05eH
	DB	0dfH
	DB	05eH
	DB	0dfH
	DB	05eH
	DB	0e7H
	DB	05dH
	DB	0e7H
	DB	05eH
	DB	0e7H
	DB	03eH
	DB	0e7H
	DB	05eH
	DB	0dfH
	DB	05eH
	DB	0e7H
	DB	05eH
	DB	0dfH
	DB	05eH
	DB	0dfH
	DB	05eH
	DB	0e7H
	DB	05eH
	DB	0e7H
	DB	05eH
	DB	0e7H
	DB	05eH
	DB	0e7H
	DB	05eH
	DB	0e7H
	DB	05eH
	DB	0e7H
	DB	05eH
	DB	0dfH
	DB	05eH
	DB	0e7H
	DB	05eH
	DB	0e7H
	DB	05eH
	DB	0e7H
	DB	05eH
	DB	0e7H
	DB	05eH
	DB	0e7H
	DB	05eH
	DB	0e7H
	DB	05eH
	DB	0e7H
	DB	07eH
	DB	0e7H
	DB	05eH
	DB	0e7H
	DB	05eH
	DB	0e7H
	DB	07eH
	DB	0e7H
	DB	05eH
	DB	0e7H
	DB	05eH
	DB	0e7H
	DB	07eH
	DB	0e7H
	DB	07eH
	DB	0e7H
	DB	05eH
	DB	0e7H
	DB	07eH
	DB	0e7H
	DB	05eH
	DB	0e7H
	DB	05eH
	DB	0e7H
	DB	05eH
	DB	0e7H
	DB	07eH
	DB	0e7H
	DB	07eH
	DB	0e7H
	DB	07eH
	DB	0e7H
	DB	05eH
	DB	0e7H
	DB	07eH
	DB	0e7H
	DB	05eH
	DB	0e7H
	DB	07eH
	DB	0e7H
	DB	05eH
	DB	0e7H
	DB	05eH
	DB	0e7H
	DB	07eH
	DB	0e7H
	DB	05eH
	DB	0e7H
	DB	07eH
	DB	0e7H
	DB	07eH
	DB	0e7H
	DB	05eH
	DB	0e7H
	DB	07eH
	DB	0e7H
	DB	07eH
	DB	0e7H
	DB	05eH
	DB	0e7H
	DB	07eH
	DB	0e7H
	DB	05eH
	DB	0e7H
	DB	05eH
	DB	0e7H
	DB	07eH
	DB	0e7H
	DB	05eH
	DB	0e7H
	DB	05eH
	DB	0e7H
	DB	07eH
	DB	0e7H
	DB	05eH
	DB	0e7H
	DB	07eH
	DB	0e7H
	DB	07eH
	DB	0e7H
	DB	05eH
	DB	0e7H
	DB	07eH
	DB	0e7H
	DB	07eH
	DB	0e7H
	DB	05eH
	DB	0e7H
	DB	07eH
	DB	0e7H
	DB	07eH
	DB	0e7H
	DB	05eH
	DB	0e7H
	DB	07eH
	DB	0e7H
	DB	07eH
	DB	0e7H
	DB	05eH
	DB	0e7H
	DB	05eH
	DB	0e7H
	DB	07eH
	DB	0e7H
	DB	05eH
	DB	0e7H
	DB	05eH
	DB	0e7H
	DB	05eH
	DB	0e7H
	DB	05eH
	DB	0e7H
	DB	07eH
	DB	0e7H
	DB	07eH
	DB	0e7H
	DB	07eH
	DB	0e7H
	DB	07eH
	DB	0e7H
	DB	07eH
	DB	0e7H
	DB	05eH
	DB	0e7H
	DB	05eH
	DB	0e7H
	DB	07eH
	DB	0e7H
	DB	07eH
	DB	0e7H
	DB	05eH
	DB	0e7H
	DB	07eH
	DB	0e7H
	DB	05eH
	DB	0e7H
	DB	05eH
	DB	0e7H
	DB	05eH
	DB	0e7H
	DB	05eH
	DB	0e7H
	DB	05eH
	DB	0e7H
	DB	05eH
	DB	0e7H
	DB	05eH
	DB	0dfH
	DB	05eH
	DB	0dfH
	DB	05eH
	DB	0e7H
	DB	05eH
	DB	0e7H
	DB	05eH
	DB	0e7H
	DB	05eH
	DB	0e7H
	DB	05eH
	DB	0e7H
	DB	05eH
	DB	0dfH
	DB	05eH
	DB	0dfH
	DB	05eH
	DB	0e7H
	DB	05eH
	DB	0e7H
	DB	05eH
	DB	0e7H
	DB	05eH
	DB	0e7H
	DB	03eH
	DB	0e7H
	DB	05eH
	DB	0dfH
	DB	03eH
	DB	0dfH
	DB	05eH
	DB	0e7H
	DB	05eH
	DB	0dfH
	DB	05eH
	DB	0e7H
	DB	05eH
	DB	0e7H
	DB	05eH
	DB	0dfH
	DB	05eH
	DB	0dfH
	DB	03eH
	DB	0e7H
	DB	03eH
	DB	0dfH
	DB	05eH
	DB	0dfH
	DB	03dH
	DB	0e7H
	DB	03eH
	DB	0dfH
	DB	05eH
	DB	0dfH
	DB	03dH
	DB	0e7H
	DB	03eH
	DB	0dfH
	DB	03dH
	DB	0dfH
	DB	05dH
	DB	0dfH
	DB	03eH
	DB	0dfH
	DB	03eH
	DB	0dfH
	DB	03dH
	DB	0dfH
	DB	03dH
	DB	0dfH
	DB	03eH
	DB	0dfH
	DB	03eH
	DB	0dfH
	DB	03dH
	DB	0dfH
	DB	03eH
	DB	0dfH
	DB	03dH
	DB	0d7H
	DB	03dH
	DB	0dfH
	DB	03eH
	DB	0dfH
	DB	03dH
	DB	0dfH
	DB	01eH
	DB	0d7H
	DB	03dH
	DB	0dfH
	DB	03eH
	DB	0dfH
	DB	03eH
	DB	0dfH
	DB	03dH
	DB	0d7H
	DB	01eH
	DB	0dfH
	DB	01dH
	DB	0dfH
	DB	03dH
	DB	0dfH
	DB	03eH
	DB	0d7H
	DB	03eH
	DB	0d7H
	DB	03eH
	DB	0dfH
	DB	01dH
	DB	0d7H
	DB	01dH
	DB	0d7H
	DB	01eH
	DB	0dfH
	DB	01dH
	DB	0d7H
	DB	01dH
	DB	0d7H
	DB	01eH
	DB	0d7H
	DB	01dH
	DB	0d7H
	DB	01eH
	DB	0d7H
	DB	01dH
	DB	0d7H
	DB	0fdH
	DB	0d6H
	DB	01dH
	DB	0d7H
	DB	0fdH
	DB	0d6H
	DB	0fdH
	DB	0ceH
	DB	0fdH
	DB	0d6H
	DB	0fdH
	DB	0d6H
	DB	0fdH
	DB	0ceH
	DB	0fdH
	DB	0ceH
	DB	0fdH
	DB	0ceH
	DB	0ddH
	DB	0ceH
	DB	0fcH
	DB	0ceH
	DB	0ddH
	DB	0ceH
	DB	0ddH
	DB	0ceH
	DB	0ddH
	DB	0ceH
	DB	0ddH
	DB	0ceH
	DB	0dcH
	DB	0c6H
	DB	0dcH
	DB	0ceH
	DB	0bdH
	DB	0ceH
	DB	0ddH
	DB	0c6H
	DB	0bcH
	DB	0c6H
	DB	0bcH
	DB	0c6H
	DB	0bdH
	DB	0c6H
	DB	0bcH
	DB	0c6H
	DB	0bcH
	DB	0c6H
	DB	0bcH
	DB	0c6H
	DB	0bdH
	DB	0c6H
	DB	09cH
	DB	0c6H
	DB	0bcH
	DB	0c6H
	DB	09cH
	DB	0c6H
	DB	09cH
	DB	0beH
	DB	09cH
	DB	0beH
	DB	09cH
	DB	0beH
	DB	09cH
	DB	0beH
	DB	09cH
	DB	0beH
	DB	09cH
	DB	0beH
	DB	07cH
	DB	0beH
	DB	09cH
	DB	0beH
	DB	07cH
	DB	0beH
	DB	07cH
	DB	0beH
	DB	07cH
	DB	0b6H
	DB	07bH
	DB	0beH
	DB	07cH
	DB	0beH
	DB	07cH
	DB	0b6H
	DB	07bH
	DB	0b6H
	DB	05cH
	DB	0beH
	DB	07cH
	DB	0b6H
	DB	07bH
	DB	0b6H
	DB	05bH
	DB	0b6H
	DB	05bH
	DB	0b6H
	DB	05bH
	DB	0b6H
	DB	05cH
	DB	0b6H
	DB	05bH
	DB	0b6H
	DB	05bH
	DB	0aeH
	DB	05bH
	DB	0b6H
	DB	05bH
	DB	0b6H
	DB	03cH
	DB	0aeH
	DB	05bH
	DB	0b6H
	DB	05bH
	DB	0b6H
	DB	03bH
	DB	0aeH
	DB	03bH
	DB	0b6H
	DB	03bH
	DB	0aeH
	DB	03bH
	DB	0aeH
	DB	03bH
	DB	0aeH
	DB	03bH
	DB	0aeH
	DB	03bH
	DB	0aeH
	DB	03bH
	DB	0aeH
	DB	03bH
	DB	0aeH
	DB	03bH
	DB	0aeH
	DB	03bH
	DB	0aeH
	DB	01bH
	DB	0aeH
	DB	03bH
	DB	0aeH
	DB	01bH
	DB	0aeH
	DB	01bH
	DB	0aeH
	DB	03bH
	DB	0aeH
	DB	03bH
	DB	0aeH
	DB	01aH
	DB	0aeH
	DB	03bH
	DB	0aeH
	DB	01bH
	DB	0a6H
	DB	03bH
	DB	0aeH
	DB	03bH
	DB	0aeH
	DB	01bH
	DB	0a6H
	DB	01bH
	DB	0aeH
	DB	03bH
	DB	0aeH
	DB	01bH
	DB	0aeH
	DB	03bH
	DB	0aeH
	DB	01bH
	DB	0aeH
	DB	03bH
	DB	0a6H
	DB	01bH
	DB	0aeH
	DB	03bH
	DB	0aeH
	DB	03bH
	DB	0a6H
	DB	01bH
	DB	0aeH
	DB	01bH
	DB	0aeH
	DB	03bH
	DB	0a6H
	DB	03aH
	DB	0aeH
	DB	01bH
	DB	0aeH
	DB	01bH
	DB	0aeH
	DB	03aH
	DB	0aeH
	DB	01bH
	DB	0aeH
	DB	01bH
	DB	0aeH
	DB	03aH
	DB	0aeH
	DB	01bH
	DB	0aeH
	DB	01bH
	DB	0aeH
	DB	03aH
	DB	0aeH
	DB	01bH
	DB	0aeH
	DB	01bH
	DB	0aeH
	DB	03aH
	DB	0aeH
	DB	01bH
	DB	0a6H
	DB	03bH
	DB	0aeH
	DB	03bH
	DB	0aeH
	DB	01aH
	DB	0aeH
	DB	03bH
	DB	0aeH
	DB	03bH
	DB	0a6H
	DB	01aH
	DB	0aeH
	DB	01bH
	DB	0aeH
	DB	03bH
	DB	0a6H
	DB	01aH
	DB	0aeH
	DB	01bH
	DB	0aeH
	DB	03bH
	DB	0a6H
	DB	01aH
	DB	0aeH
	DB	01bH
	DB	0aeH
	DB	03bH
	DB	0a6H
	DB	01aH
	DB	0aeH
	DB	03bH
	DB	0aeH
	DB	03bH
	DB	0a6H
	DB	01bH
	DB	0aeH
	DB	03bH
	DB	0aeH
	DB	01aH
	DB	0aeH
	DB	03bH
	DB	0aeH
	DB	03bH
	DB	0aeH
	DB	01bH
	DB	0aeH
	DB	03bH
	DB	0aeH
	DB	01bH
	DB	0aeH
	DB	03bH
	DB	0a6H
	DB	01bH
	DB	0aeH
	DB	03bH
	DB	0aeH
	DB	01bH
	DB	0aeH
	DB	03bH
	DB	0aeH
	DB	01bH
	DB	0aeH
	DB	03bH
	DB	0aeH
	DB	03bH
	DB	0aeH
	DB	01bH
	DB	0aeH
	DB	03bH
	DB	0aeH
	DB	01bH
	DB	0aeH
	DB	01bH
	DB	0aeH
	DB	03aH
	DB	0aeH
	DB	01bH
	DB	0aeH
	DB	01bH
	DB	0aeH
	DB	03bH
	DB	0aeH
	DB	03bH
	DB	0a6H
	DB	01bH
	DB	0aeH
	DB	01bH
	DB	0aeH
	DB	03bH
	DB	0a6H
	DB	01bH
	DB	0aeH
	DB	03bH
	DB	0aeH
	DB	03bH
	DB	0aeH
	DB	01bH
	DB	0a6H
	DB	01aH
	DB	0aeH
	DB	03bH
	DB	0aeH
	DB	01bH
	DB	0a6H
	DB	03bH
	DB	0aeH
	DB	01aH
	DB	0aeH
	DB	03bH
	DB	0a6H
	DB	01bH
	DB	0aeH
	DB	03bH
	DB	0aeH
	DB	03bH
	DB	0aeH
	DB	01bH
	DB	0a6H
	DB	01bH
	DB	0aeH
	DB	03bH
	DB	0aeH
	DB	01bH
	DB	0aeH
	DB	01bH
	DB	0aeH
	DB	03bH
	DB	0aeH
	DB	01bH
	DB	0aeH
	DB	03bH
	DB	0aeH
	DB	03aH
	DB	0aeH
	DB	01bH
	DB	0aeH
	DB	03bH
	DB	0aeH
	DB	01bH
	DB	0aeH
	DB	01bH
	DB	0aeH
	DB	03bH
	DB	0aeH
	DB	01bH
	DB	0aeH
	DB	03bH
	DB	0aeH
	DB	01bH
	DB	0a6H
	DB	03bH
	DB	0aeH
	DB	03bH
	DB	0aeH
	DB	01bH
	DB	0aeH
	DB	03bH
	DB	0aeH
	DB	03bH
	DB	0aeH
	DB	01bH
	DB	0aeH
	DB	03bH
	DB	0aeH
	DB	03aH
	DB	0aeH
	DB	01bH
	DB	0aeH
	DB	01bH
	DB	0aeH
	DB	03bH
	DB	0aeH
	DB	01bH
	DB	0aeH
	DB	03bH
	DB	0aeH
	DB	01bH
	DB	0aeH
	DB	03bH
	DB	0aeH
	DB	01bH
	DB	0aeH
	DB	03bH
	DB	0aeH
	DB	03bH
	DB	0aeH
	DB	01bH
	DB	0aeH
	DB	01bH
	DB	0aeH
	DB	03bH
	DB	0aeH
	DB	03bH
	DB	0aeH
	DB	03bH
	DB	0aeH
	DB	03bH
	DB	0aeH
	DB	03bH
	DB	0aeH
	DB	03bH
	DB	0aeH
	DB	03bH
	DB	0aeH
	DB	03bH
	DB	0aeH
	DB	03bH
	DB	0aeH
	DB	03bH
	DB	0aeH
	DB	03bH
	DB	0b6H
	DB	03bH
	DB	0aeH
	DB	05bH
	DB	0aeH
	DB	05bH
	DB	0b6H
	DB	03bH
	DB	0b6H
	DB	05bH
	DB	0aeH
	DB	05bH
	DB	0b6H
	DB	05bH
	DB	0b6H
	DB	05bH
	DB	0aeH
	DB	05cH
	DB	0b6H
	DB	05bH
	DB	0b6H
	DB	05cH
	DB	0b6H
	DB	05bH
	DB	0b6H
	DB	05cH
	DB	0b6H
	DB	07cH
	DB	0b6H
	DB	05bH
	DB	0b6H
	DB	07bH
	DB	0b6H
	DB	07cH
	DB	0beH
	DB	07bH
	DB	0b6H
	DB	07cH
	DB	0beH
	DB	07cH
	DB	0beH
	DB	07cH
	DB	0beH
	DB	07cH
	DB	0b6H
	DB	09cH
	DB	0beH
	DB	07cH
	DB	0beH
	DB	07cH
	DB	0beH
	DB	09cH
	DB	0beH
	DB	09bH
	DB	0beH
	DB	09cH
	DB	0beH
	DB	09cH
	DB	0c6H
	DB	09cH
	DB	0c6H
	DB	09cH
	DB	0beH
	DB	0bcH
	DB	0c6H
	DB	0bcH
	DB	0c6H
	DB	0bcH
	DB	0beH
	DB	0bcH
	DB	0c6H
	DB	0bcH
	DB	0c6H
	DB	0bdH
	DB	0c6H
	DB	0bcH
	DB	0c6H
	DB	0bcH
	DB	0c6H
	DB	0bcH
	DB	0c6H
	DB	0ddH
	DB	0c6H
	DB	0bcH
	DB	0ceH
	DB	0ddH
	DB	0c6H
	DB	0ddH
	DB	0ceH
	DB	0ddH
	DB	0ceH
	DB	0dcH
	DB	0ceH
	DB	0ddH
	DB	0ceH
	DB	0ddH
	DB	0ceH
	DB	0fdH
	DB	0ceH
	DB	0ddH
	DB	0ceH
	DB	0fdH
	DB	0ceH
	DB	0fdH
	DB	0ceH
	DB	0ddH
	DB	0d6H
	DB	0fdH
	DB	0d6H
	DB	0fdH
	DB	0ceH
	DB	0fdH
	DB	0ceH
	DB	0fdH
	DB	0d6H
	DB	01dH
	DB	0d7H
	DB	0fdH
	DB	0d6H
	DB	01dH
	DB	0d7H
	DB	01dH
	DB	0d7H
	DB	01dH
	DB	0d7H
	DB	01eH
	DB	0d7H
	DB	01eH
	DB	0d7H
	DB	01dH
	DB	0dfH
	DB	01eH
	DB	0d7H
	DB	01dH
	DB	0dfH
	DB	01dH
	DB	0dfH
	DB	03eH
	DB	0d7H
	DB	03dH
	DB	0dfH
	DB	01dH
	DB	0dfH
	DB	03eH
	DB	0d7H
	DB	03dH
	DB	0dfH
	DB	01dH
	DB	0d7H
	DB	03eH
	DB	0dfH
	DB	03dH
	DB	0dfH
	DB	01dH
	DB	0dfH
	DB	03eH
	DB	0d7H
	DB	03eH
	DB	0dfH
	DB	03eH
	DB	0dfH
	DB	03dH
	DB	0dfH
	DB	03eH
	DB	0dfH
	DB	03eH
	DB	0dfH
	DB	03dH
	DB	0dfH
	DB	03dH
	DB	0dfH
	DB	03eH
	DB	0dfH
	DB	03eH
	DB	0dfH
	DB	03eH
	DB	0dfH
	DB	03eH
	DB	0dfH
	DB	03dH
	DB	0dfH
	DB	03eH
	DB	0dfH
	DB	05eH
	DB	0dfH
	DB	03eH
	DB	0dfH
	DB	03dH
	DB	0dfH
	DB	05eH
	DB	0e7H
	DB	05eH
	DB	0dfH
	DB	03eH
	DB	0dfH
	DB	05dH
	DB	0e7H
	DB	05eH
	DB	0dfH
	DB	03eH
	DB	0dfH
	DB	05eH
	DB	0e7H
	DB	03eH
	DB	0dfH
	DB	05eH
	DB	0dfH
	DB	05eH
	DB	0e7H
	DB	03eH
	DB	0dfH
	DB	05eH
	DB	0e7H
	DB	05eH
	DB	0dfH
	DB	03eH
	DB	0e7H
	DB	05eH
	DB	0e7H
	DB	05eH
	DB	0dfH
	DB	05eH
	DB	0e7H
	DB	05eH
	DB	0e7H
	DB	05eH
	DB	0dfH
	DB	05eH
	DB	0e7H
	DB	05eH
	DB	0e7H
	DB	05eH
	DB	0e7H
	DB	05eH
	DB	0e7H
	DB	05eH
	DB	0e7H
	DB	05eH
	DB	0dfH
	DB	05eH
	DB	0e7H
	DB	05eH
	DB	0e7H
	DB	05eH
	DB	0dfH
	DB	05eH
	DB	0e7H
	DB	05eH
	DB	0e7H
	DB	05eH
	DB	0e7H
	DB	05eH
	DB	0e7H
	DB	05eH
	DB	0e7H
	DB	07eH
	DB	0e7H
	DB	05eH
	DB	0dfH
	DB	05eH
	DB	0e7H
	DB	07eH
	DB	0e7H
	DB	05eH
	DB	0e7H
	DB	07eH
	DB	0e7H
	DB	07eH
	DB	0e7H
	DB	05eH
	DB	0e7H
	DB	07eH
	DB	0e7H
	DB	07eH
	DB	0e7H
	DB	05eH
	DB	0e7H
	DB	05eH
	DB	0e7H
	DB	07eH
	DB	0e7H
	DB	07eH
	DB	0e7H
	DB	05eH
	DB	0e7H
	DB	05eH
	DB	0e7H
	DB	07eH
	DB	0e7H
	DB	05eH
	DB	0e7H
	DB	05eH
	DB	0e7H
	DB	07eH
	DB	0e7H
	DB	07eH
	DB	0e7H
	DB	05eH
	DB	0e7H
	DB	07eH
	DB	0e7H
	DB	07eH
	DB	0e7H
	DB	05eH
	DB	0e7H
	DB	05eH
	DB	0e7H
	DB	07eH
	DB	0e7H
	DB	07eH
	DB	0e7H
	DB	07eH
	DB	0e7H
	DB	07eH
	DB	0e7H
	DB	07eH
	DB	0e7H
	DB	07fH
	DB	0e7H
	DB	07fH
	DB	0e7H
	DB	07eH
	DB	0e7H
	DB	07fH
	DB	0e7H
	DB	07fH
	DB	0e7H
	DB	07eH
	DB	0e7H
	DB	07fH
	DB	0e7H
	DB	07fH
	DB	0e7H
	DB	07eH
	DB	0e7H
	DB	07fH
	DB	0e7H
	DB	07fH
	DB	0e7H
	DB	07eH
	DB	0e7H
	DB	07eH
	DB	0e7H
	DB	07eH
	DB	0e7H
	DB	07eH
	DB	0e7H
	DB	07eH
	DB	0e7H
	DB	05eH
	DB	0e7H
	DB	07eH
	DB	0e7H
	DB	05eH
	DB	0e7H
	DB	05eH
	DB	0e7H
	DB	07eH
	DB	0e7H
	DB	07eH
	DB	0e7H
	DB	05eH
	DB	0e7H
	DB	07eH
	DB	0e7H
	DB	07eH
	DB	0e7H
	DB	05eH
	DB	0e7H
	DB	07eH
	DB	0e7H
	DB	05eH
	DB	0e7H
	DB	05eH
	DB	0e7H
	DB	05eH
	DB	0e7H
	DB	05eH
	DB	0e7H
	DB	07eH
	DB	0e7H
	DB	05eH
	DB	0e7H
	DB	07eH
	DB	0e7H
	DB	07eH
	DB	0e7H
	DB	05eH
	DB	0e7H
	DB	07eH
	DB	0e7H
	DB	05eH
	DB	0e7H
	DB	05eH
	DB	0e7H
	DB	07eH
	DB	0dfH
	DB	05eH
	DB	0e7H
	DB	07eH
	DB	0e7H
	DB	05eH
	DB	0e7H
	DB	05eH
	DB	0e7H
	DB	07eH
	DB	0e7H
	DB	05eH
	DB	0e7H
	DB	05eH
	DB	0e7H
	DB	05eH
	DB	0dfH
	DB	05eH
	DB	0e7H
	DB	05eH
	DB	0dfH
	DB	05eH
	DB	0e7H
	DB	05eH
	DB	0e7H
	DB	05eH
	DB	0e7H
	DB	05eH
	DB	0e7H
	DB	05eH
	DB	0dfH
	DB	05eH
	DB	0dfH
	DB	05eH
	DB	0e7H
	DB	05eH
	DB	0dfH
	DB	05dH
	DB	0e7H
	DB	05eH
	DB	0e7H
	DB	05eH
	DB	0dfH
	DB	03dH
	DB	0dfH
	DB	05eH
	DB	0e7H
	DB	05eH
	DB	0dfH
	DB	05dH
	DB	0e7H
	DB	05eH
	DB	0dfH
	DB	05eH
	DB	0dfH
	DB	03eH
	DB	0e7H
	DB	05eH
	DB	0dfH
	DB	05eH
	DB	0e7H
	DB	03eH
	DB	0dfH
	DB	05eH
	DB	0e7H
	DB	05eH
	DB	0dfH
	DB	05eH
	DB	0dfH
	DB	03eH
	DB	0e7H
	DB	03eH
	DB	0dfH
	DB	03eH
	DB	0dfH
	DB	03eH
	DB	0dfH
	DB	05eH
	DB	0dfH
	DB	03eH
	DB	0dfH
	DB	03eH
	DB	0dfH
	DB	03eH
	DB	0dfH
	DB	03dH
	DB	0dfH
	DB	03eH
	DB	0dfH
	DB	03eH
	DB	0dfH
	DB	03eH
	DB	0dfH
	DB	03eH
	DB	0dfH
	DB	03dH
	DB	0dfH
	DB	03eH
	DB	0dfH
	DB	03eH
	DB	0dfH
	DB	01dH
	DB	0dfH
	DB	03eH
	DB	0d7H
	DB	03dH
	DB	0dfH
	DB	03dH
	DB	0dfH
	DB	03eH
	DB	0d7H
	DB	01eH
	DB	0dfH
	DB	01dH
	DB	0dfH
	DB	03dH
	DB	0d7H
	DB	01eH
	DB	0dfH
	DB	03eH
	DB	0dfH
	DB	03eH
	DB	0d7H
	DB	01dH
	DB	0dfH
	DB	03dH
	DB	0dfH
	DB	01eH
	DB	0d7H
	DB	01dH
	DB	0dfH
	DB	01eH
	DB	0dfH
	DB	01dH
	DB	0d7H
	DB	01dH
	DB	0d7H
	DB	01eH
	DB	0d7H
	DB	01dH
	DB	0d7H
	DB	0fdH
	DB	0d6H
	DB	01dH
	DB	0d7H
	DB	0fdH
	DB	0d6H
	DB	0fdH
	DB	0ceH
	DB	0fdH
	DB	0d6H
	DB	0fdH
	DB	0d6H
	DB	0ddH
	DB	0ceH
	DB	0fdH
	DB	0d6H
	DB	0fdH
	DB	0ceH
	DB	0ddH
	DB	0ceH
	DB	0fcH
	DB	0ceH
	DB	0ddH
	DB	0ceH
	DB	0ddH
	DB	0ceH
	DB	0ddH
	DB	0ceH
	DB	0ddH
	DB	0ceH
	DB	0ddH
	DB	0c6H
	DB	0dcH
	DB	0ceH
	DB	0bdH
	DB	0ceH
	DB	0ddH
	DB	0c6H
	DB	0bcH
	DB	0c6H
	DB	0bcH
	DB	0c6H
	DB	0bdH
	DB	0c6H
	DB	0bcH
	DB	0c6H
	DB	0bcH
	DB	0c6H
	DB	09cH
	DB	0c6H
	DB	0bdH
	DB	0beH
	DB	0bcH
	DB	0c6H
	DB	09cH
	DB	0c6H
	DB	09cH
	DB	0c6H
	DB	09cH
	DB	0c6H
	DB	09cH
	DB	0c6H
	DB	09cH
	DB	0beH
	DB	09cH
	DB	0beH
	DB	09cH
	DB	0beH
	DB	07cH
	DB	0beH
	DB	09bH
	DB	0beH
	DB	09bH
	DB	0beH
	DB	07cH
	DB	0b6H
	DB	07cH
	DB	0beH
	DB	07bH
	DB	0beH
	DB	07bH
	DB	0beH
	DB	07cH
	DB	0b6H
	DB	07cH
	DB	0b6H
	DB	07bH
	DB	0beH
	DB	05cH
	DB	0b6H
	DB	07cH
	DB	0b6H
	DB	05cH
	DB	0b6H
	DB	05bH
	DB	0b6H
	DB	05cH
	DB	0b6H
	DB	05bH
	DB	0b6H
	DB	05cH
	DB	0b6H
	DB	05bH
	DB	0aeH
	DB	05bH
	DB	0b6H
	DB	05bH
	DB	0aeH
	DB	05bH
	DB	0b6H
	DB	03bH
	DB	0aeH
	DB	05bH
	DB	0aeH
	DB	05cH
	DB	0aeH
	DB	03bH
	DB	0b6H
	DB	03bH
	DB	0aeH
	DB	03bH
	DB	0aeH
	DB	03bH
	DB	0b6H
	DB	03bH
	DB	0aeH
	DB	03bH
	DB	0aeH
	DB	03bH
	DB	0aeH
	DB	01bH
	DB	0aeH
	DB	03bH
	DB	0aeH
	DB	03bH
	DB	0aeH
	DB	03bH
	DB	0aeH
	DB	01bH
	DB	0a6H
	DB	03bH
	DB	0aeH
	DB	01bH
	DB	0aeH
	DB	01bH
	DB	0aeH
	DB	03bH
	DB	0aeH
	DB	01bH
	DB	0aeH
	DB	03bH
	DB	0aeH
	DB	01aH
	DB	0aeH
	DB	01bH
	DB	0aeH
	DB	03bH
	DB	0aeH
	DB	03aH
	DB	0aeH
	DB	01bH
	DB	0aeH
	DB	01bH
