; Listing generated by Microsoft (R) Optimizing Compiler Version 19.27.29112.0 

	TITLE	D:\hackTuesProject\project\TouchGFX\generated\images\src\__designer\image_Blue_Slider_Horizontal_Small_Indicators_slider_horizontal_small_square_knob.cpp
	.686P
	.XMM
	include listing.inc
	.model	flat

INCLUDELIB MSVCRTD
INCLUDELIB OLDNAMES

PUBLIC	?image_blue_slider_horizontal_small_indicators_slider_horizontal_small_square_knob@@3QBEB ; image_blue_slider_horizontal_small_indicators_slider_horizontal_small_square_knob
CONST	SEGMENT
?image_blue_slider_horizontal_small_indicators_slider_horizontal_small_square_knob@@3QBEB DB 00H ; image_blue_slider_horizontal_small_indicators_slider_horizontal_small_square_knob
	DB	00H
	DB	00H
	DB	00H
	DB	00H
	DB	00H
	DB	00H
	DB	04H
	DB	00H
	DB	00H
	DB	00H
	DB	08H
	DB	00H
	DB	00H
	DB	00H
	DB	08H
	DB	00H
	DB	00H
	DB	00H
	DB	0cH
	DB	00H
	DB	00H
	DB	00H
	DB	0cH
	DB	00H
	DB	00H
	DB	00H
	DB	0cH
	DB	00H
	DB	00H
	DB	00H
	DB	0cH
	DB	00H
	DB	00H
	DB	00H
	DB	0cH
	DB	00H
	DB	00H
	DB	00H
	DB	0cH
	DB	00H
	DB	00H
	DB	00H
	DB	0cH
	DB	00H
	DB	00H
	DB	00H
	DB	0cH
	DB	00H
	DB	00H
	DB	00H
	DB	0cH
	DB	00H
	DB	00H
	DB	00H
	DB	0cH
	DB	00H
	DB	00H
	DB	00H
	DB	0cH
	DB	00H
	DB	00H
	DB	00H
	DB	0cH
	DB	00H
	DB	00H
	DB	00H
	DB	0cH
	DB	00H
	DB	00H
	DB	00H
	DB	0cH
	DB	00H
	DB	00H
	DB	00H
	DB	0cH
	DB	00H
	DB	00H
	DB	00H
	DB	0cH
	DB	00H
	DB	00H
	DB	00H
	DB	0cH
	DB	00H
	DB	00H
	DB	00H
	DB	0cH
	DB	00H
	DB	00H
	DB	00H
	DB	0cH
	DB	00H
	DB	00H
	DB	00H
	DB	0cH
	DB	00H
	DB	00H
	DB	00H
	DB	0cH
	DB	00H
	DB	00H
	DB	00H
	DB	0cH
	DB	00H
	DB	00H
	DB	00H
	DB	0cH
	DB	00H
	DB	00H
	DB	00H
	DB	0cH
	DB	00H
	DB	00H
	DB	00H
	DB	0cH
	DB	00H
	DB	00H
	DB	00H
	DB	0cH
	DB	00H
	DB	00H
	DB	00H
	DB	0cH
	DB	00H
	DB	00H
	DB	00H
	DB	0cH
	DB	00H
	DB	00H
	DB	00H
	DB	0cH
	DB	00H
	DB	00H
	DB	00H
	DB	0cH
	DB	00H
	DB	00H
	DB	00H
	DB	0cH
	DB	00H
	DB	00H
	DB	00H
	DB	0cH
	DB	00H
	DB	00H
	DB	00H
	DB	0cH
	DB	00H
	DB	00H
	DB	00H
	DB	0cH
	DB	00H
	DB	00H
	DB	00H
	DB	0cH
	DB	00H
	DB	00H
	DB	00H
	DB	0cH
	DB	00H
	DB	00H
	DB	00H
	DB	0cH
	DB	00H
	DB	00H
	DB	00H
	DB	0cH
	DB	00H
	DB	00H
	DB	00H
	DB	0cH
	DB	00H
	DB	00H
	DB	00H
	DB	0cH
	DB	00H
	DB	00H
	DB	00H
	DB	0cH
	DB	00H
	DB	00H
	DB	00H
	DB	0cH
	DB	00H
	DB	00H
	DB	00H
	DB	0cH
	DB	00H
	DB	00H
	DB	00H
	DB	0cH
	DB	00H
	DB	00H
	DB	00H
	DB	0cH
	DB	00H
	DB	00H
	DB	00H
	DB	0cH
	DB	00H
	DB	00H
	DB	00H
	DB	08H
	DB	00H
	DB	00H
	DB	00H
	DB	08H
	DB	00H
	DB	00H
	DB	00H
	DB	04H
	DB	00H
	DB	00H
	DB	00H
	DB	00H
	DB	00H
	DB	00H
	DB	00H
	DB	04H
	DB	00H
	DB	00H
	DB	00H
	DB	0cH
	DB	0d8H
	DB	0b4H
	DB	058H
	DB	0ffH
	DB	0d8H
	DB	0b4H
	DB	058H
	DB	0ffH
	DB	0d8H
	DB	0b4H
	DB	058H
	DB	0ffH
	DB	0d8H
	DB	0b4H
	DB	058H
	DB	0ffH
	DB	0d8H
	DB	0b4H
	DB	058H
	DB	0ffH
	DB	0d8H
	DB	0b4H
	DB	058H
	DB	0ffH
	DB	0d8H
	DB	0b4H
	DB	058H
	DB	0ffH
	DB	0d8H
	DB	0b4H
	DB	058H
	DB	0ffH
	DB	0d8H
	DB	0b4H
	DB	058H
	DB	0ffH
	DB	0d8H
	DB	0b4H
	DB	058H
	DB	0ffH
	DB	0d8H
	DB	0b4H
	DB	058H
	DB	0ffH
	DB	0d8H
	DB	0b4H
	DB	058H
	DB	0ffH
	DB	0d8H
	DB	0b4H
	DB	058H
	DB	0ffH
	DB	0d8H
	DB	0b4H
	DB	058H
	DB	0ffH
	DB	0d8H
	DB	0b4H
	DB	058H
	DB	0ffH
	DB	0d8H
	DB	0b4H
	DB	058H
	DB	0ffH
	DB	0d8H
	DB	0b4H
	DB	058H
	DB	0ffH
	DB	0d8H
	DB	0b4H
	DB	058H
	DB	0ffH
	DB	0d8H
	DB	0b4H
	DB	058H
	DB	0ffH
	DB	0d8H
	DB	0b4H
	DB	058H
	DB	0ffH
	DB	0d8H
	DB	0b4H
	DB	058H
	DB	0ffH
	DB	0d8H
	DB	0b4H
	DB	058H
	DB	0ffH
	DB	0d8H
	DB	0b4H
	DB	058H
	DB	0ffH
	DB	0d8H
	DB	0b4H
	DB	058H
	DB	0ffH
	DB	0d8H
	DB	0b4H
	DB	058H
	DB	0ffH
	DB	0d8H
	DB	0b4H
	DB	058H
	DB	0ffH
	DB	0d8H
	DB	0b4H
	DB	058H
	DB	0ffH
	DB	0d8H
	DB	0b4H
	DB	058H
	DB	0ffH
	DB	0d8H
	DB	0b4H
	DB	058H
	DB	0ffH
	DB	0d8H
	DB	0b4H
	DB	058H
	DB	0ffH
	DB	0d8H
	DB	0b4H
	DB	058H
	DB	0ffH
	DB	0d8H
	DB	0b4H
	DB	058H
	DB	0ffH
	DB	0d8H
	DB	0b4H
	DB	058H
	DB	0ffH
	DB	0d8H
	DB	0b4H
	DB	058H
	DB	0ffH
	DB	0d8H
	DB	0b4H
	DB	058H
	DB	0ffH
	DB	0d8H
	DB	0b4H
	DB	058H
	DB	0ffH
	DB	0d8H
	DB	0b4H
	DB	058H
	DB	0ffH
	DB	0d8H
	DB	0b4H
	DB	058H
	DB	0ffH
	DB	0d8H
	DB	0b4H
	DB	058H
	DB	0ffH
	DB	0d8H
	DB	0b4H
	DB	058H
	DB	0ffH
	DB	0d8H
	DB	0b4H
	DB	058H
	DB	0ffH
	DB	0d8H
	DB	0b4H
	DB	058H
	DB	0ffH
	DB	0d8H
	DB	0b4H
	DB	058H
	DB	0ffH
	DB	0d8H
	DB	0b4H
	DB	058H
	DB	0ffH
	DB	0d8H
	DB	0b4H
	DB	058H
	DB	0ffH
	DB	0d8H
	DB	0b4H
	DB	058H
	DB	0ffH
	DB	0d8H
	DB	0b4H
	DB	058H
	DB	0ffH
	DB	0d8H
	DB	0b4H
	DB	058H
	DB	0ffH
	DB	0d8H
	DB	0b4H
	DB	058H
	DB	0ffH
	DB	0d8H
	DB	0b4H
	DB	058H
	DB	0ffH
	DB	00H
	DB	00H
	DB	00H
	DB	0cH
	DB	00H
	DB	00H
	DB	00H
	DB	04H
	DB	00H
	DB	00H
	DB	00H
	DB	08H
	DB	00H
	DB	00H
	DB	00H
	DB	018H
	DB	0d0H
	DB	0b4H
	DB	050H
	DB	0ffH
	DB	0d8H
	DB	0b4H
	DB	058H
	DB	0ffH
	DB	0d0H
	DB	0b4H
	DB	050H
	DB	0ffH
	DB	0d0H
	DB	0b4H
	DB	050H
	DB	0ffH
	DB	0d8H
	DB	0b4H
	DB	058H
	DB	0ffH
	DB	0d0H
	DB	0b4H
	DB	050H
	DB	0ffH
	DB	0d0H
	DB	0b4H
	DB	050H
	DB	0ffH
	DB	0d8H
	DB	0b4H
	DB	058H
	DB	0ffH
	DB	0d0H
	DB	0b4H
	DB	050H
	DB	0ffH
	DB	0d0H
	DB	0b4H
	DB	050H
	DB	0ffH
	DB	0d8H
	DB	0b4H
	DB	058H
	DB	0ffH
	DB	0d0H
	DB	0b4H
	DB	050H
	DB	0ffH
	DB	0d0H
	DB	0b4H
	DB	050H
	DB	0ffH
	DB	0d8H
	DB	0b4H
	DB	058H
	DB	0ffH
	DB	0d0H
	DB	0b4H
	DB	050H
	DB	0ffH
	DB	0d0H
	DB	0b4H
	DB	050H
	DB	0ffH
	DB	0d8H
	DB	0b4H
	DB	058H
	DB	0ffH
	DB	0d0H
	DB	0b4H
	DB	050H
	DB	0ffH
	DB	0d0H
	DB	0b4H
	DB	050H
	DB	0ffH
	DB	0d8H
	DB	0b4H
	DB	058H
	DB	0ffH
	DB	0d0H
	DB	0b4H
	DB	050H
	DB	0ffH
	DB	0d0H
	DB	0b4H
	DB	050H
	DB	0ffH
	DB	0d8H
	DB	0b4H
	DB	058H
	DB	0ffH
	DB	0d0H
	DB	0b4H
	DB	050H
	DB	0ffH
	DB	0d0H
	DB	0b4H
	DB	050H
	DB	0ffH
	DB	0d8H
	DB	0b4H
	DB	058H
	DB	0ffH
	DB	0d0H
	DB	0b4H
	DB	050H
	DB	0ffH
	DB	0d0H
	DB	0b4H
	DB	050H
	DB	0ffH
	DB	0d8H
	DB	0b4H
	DB	058H
	DB	0ffH
	DB	0d0H
	DB	0b4H
	DB	050H
	DB	0ffH
	DB	0d0H
	DB	0b4H
	DB	050H
	DB	0ffH
	DB	0d8H
	DB	0b4H
	DB	058H
	DB	0ffH
	DB	0d0H
	DB	0b4H
	DB	050H
	DB	0ffH
	DB	0d0H
	DB	0b4H
	DB	050H
	DB	0ffH
	DB	0d8H
	DB	0b4H
	DB	058H
	DB	0ffH
	DB	0d0H
	DB	0b4H
	DB	050H
	DB	0ffH
	DB	0d0H
	DB	0b4H
	DB	050H
	DB	0ffH
	DB	0d8H
	DB	0b4H
	DB	058H
	DB	0ffH
	DB	0d0H
	DB	0b4H
	DB	050H
	DB	0ffH
	DB	0d0H
	DB	0b4H
	DB	050H
	DB	0ffH
	DB	0d8H
	DB	0b4H
	DB	058H
	DB	0ffH
	DB	0d0H
	DB	0b4H
	DB	050H
	DB	0ffH
	DB	0d0H
	DB	0b4H
	DB	050H
	DB	0ffH
	DB	0d8H
	DB	0b4H
	DB	058H
	DB	0ffH
	DB	0d0H
	DB	0b4H
	DB	050H
	DB	0ffH
	DB	0d0H
	DB	0b4H
	DB	050H
	DB	0ffH
	DB	0d8H
	DB	0b4H
	DB	058H
	DB	0ffH
	DB	0d0H
	DB	0b4H
	DB	050H
	DB	0ffH
	DB	0d0H
	DB	0b4H
	DB	050H
	DB	0ffH
	DB	0d8H
	DB	0b4H
	DB	058H
	DB	0ffH
	DB	00H
	DB	00H
	DB	00H
	DB	018H
	DB	00H
	DB	00H
	DB	00H
	DB	08H
	DB	00H
	DB	00H
	DB	00H
	DB	08H
	DB	00H
	DB	00H
	DB	00H
	DB	020H
	DB	0c0H
	DB	094H
	DB	010H
	DB	0ffH
	DB	0c8H
	DB	098H
	DB	018H
	DB	0ffH
	DB	0c0H
	DB	098H
	DB	010H
	DB	0ffH
	DB	0c0H
	DB	094H
	DB	010H
	DB	0ffH
	DB	0c8H
	DB	098H
	DB	018H
	DB	0ffH
	DB	0c0H
	DB	098H
	DB	010H
	DB	0ffH
	DB	0c0H
	DB	094H
	DB	010H
	DB	0ffH
	DB	0c8H
	DB	098H
	DB	018H
	DB	0ffH
	DB	0c0H
	DB	098H
	DB	010H
	DB	0ffH
	DB	0c0H
	DB	098H
	DB	010H
	DB	0ffH
	DB	0c8H
	DB	094H
	DB	018H
	DB	0ffH
	DB	0c0H
	DB	098H
	DB	010H
	DB	0ffH
	DB	0c0H
	DB	098H
	DB	010H
	DB	0ffH
	DB	0c8H
	DB	094H
	DB	018H
	DB	0ffH
	DB	0c0H
	DB	098H
	DB	010H
	DB	0ffH
	DB	0c0H
	DB	098H
	DB	010H
	DB	0ffH
	DB	0c8H
	DB	098H
	DB	018H
	DB	0ffH
	DB	0c0H
	DB	094H
	DB	010H
	DB	0ffH
	DB	0c0H
	DB	098H
	DB	010H
	DB	0ffH
	DB	0c8H
	DB	098H
	DB	018H
	DB	0ffH
	DB	0c0H
	DB	094H
	DB	010H
	DB	0ffH
	DB	0c0H
	DB	098H
	DB	010H
	DB	0ffH
	DB	0c8H
	DB	098H
	DB	018H
	DB	0ffH
	DB	0c0H
	DB	098H
	DB	010H
	DB	0ffH
	DB	0c0H
	DB	094H
	DB	010H
	DB	0ffH
	DB	0c8H
	DB	098H
	DB	018H
	DB	0ffH
	DB	0c0H
	DB	098H
	DB	010H
	DB	0ffH
	DB	0c0H
	DB	094H
	DB	010H
	DB	0ffH
	DB	0c8H
	DB	098H
	DB	018H
	DB	0ffH
	DB	0c0H
	DB	098H
	DB	010H
	DB	0ffH
	DB	0c0H
	DB	098H
	DB	010H
	DB	0ffH
	DB	0c8H
	DB	094H
	DB	018H
	DB	0ffH
	DB	0c0H
	DB	098H
	DB	010H
	DB	0ffH
	DB	0c0H
	DB	098H
	DB	010H
	DB	0ffH
	DB	0c8H
	DB	094H
	DB	018H
	DB	0ffH
	DB	0c0H
	DB	098H
	DB	010H
	DB	0ffH
	DB	0c0H
	DB	098H
	DB	010H
	DB	0ffH
	DB	0c8H
	DB	098H
	DB	018H
	DB	0ffH
	DB	0c0H
	DB	094H
	DB	010H
	DB	0ffH
	DB	0c0H
	DB	098H
	DB	010H
	DB	0ffH
	DB	0c8H
	DB	098H
	DB	018H
	DB	0ffH
	DB	0c0H
	DB	094H
	DB	010H
	DB	0ffH
	DB	0c0H
	DB	098H
	DB	010H
	DB	0ffH
	DB	0c8H
	DB	098H
	DB	018H
	DB	0ffH
	DB	0c0H
	DB	098H
	DB	010H
	DB	0ffH
	DB	0c0H
	DB	094H
	DB	010H
	DB	0ffH
	DB	0c8H
	DB	098H
	DB	018H
	DB	0ffH
	DB	0c0H
	DB	098H
	DB	010H
	DB	0ffH
	DB	0c0H
	DB	094H
	DB	010H
	DB	0ffH
	DB	0c8H
	DB	098H
	DB	018H
	DB	0ffH
	DB	00H
	DB	00H
	DB	00H
	DB	020H
	DB	00H
	DB	00H
	DB	00H
	DB	08H
	DB	00H
	DB	00H
	DB	00H
	DB	0cH
	DB	00H
	DB	00H
	DB	00H
	DB	024H
	DB	0c0H
	DB	094H
	DB	010H
	DB	0ffH
	DB	0c0H
	DB	094H
	DB	010H
	DB	0ffH
	DB	0c8H
	DB	094H
	DB	018H
	DB	0ffH
	DB	0c0H
	DB	094H
	DB	010H
	DB	0ffH
	DB	0c8H
	DB	094H
	DB	018H
	DB	0ffH
	DB	0c0H
	DB	094H
	DB	010H
	DB	0ffH
	DB	0c0H
	DB	094H
	DB	010H
	DB	0ffH
	DB	0c8H
	DB	094H
	DB	018H
	DB	0ffH
	DB	0c0H
	DB	094H
	DB	010H
	DB	0ffH
	DB	0c8H
	DB	094H
	DB	018H
	DB	0ffH
	DB	0c0H
	DB	094H
	DB	010H
	DB	0ffH
	DB	0c0H
	DB	094H
	DB	010H
	DB	0ffH
	DB	0c8H
	DB	094H
	DB	018H
	DB	0ffH
	DB	0c0H
	DB	094H
	DB	010H
	DB	0ffH
	DB	0c8H
	DB	094H
	DB	018H
	DB	0ffH
	DB	0c0H
	DB	094H
	DB	010H
	DB	0ffH
	DB	0c0H
	DB	094H
	DB	010H
	DB	0ffH
	DB	0c8H
	DB	094H
	DB	018H
	DB	0ffH
	DB	0c0H
	DB	094H
	DB	010H
	DB	0ffH
	DB	0c8H
	DB	094H
	DB	018H
	DB	0ffH
	DB	0c0H
	DB	094H
	DB	010H
	DB	0ffH
	DB	0c0H
	DB	094H
	DB	010H
	DB	0ffH
	DB	0c8H
	DB	094H
	DB	018H
	DB	0ffH
	DB	0c0H
	DB	094H
	DB	010H
	DB	0ffH
	DB	0c8H
	DB	094H
	DB	018H
	DB	0ffH
	DB	0c0H
	DB	094H
	DB	010H
	DB	0ffH
	DB	0c0H
	DB	094H
	DB	010H
	DB	0ffH
	DB	0c8H
	DB	094H
	DB	018H
	DB	0ffH
	DB	0c0H
	DB	094H
	DB	010H
	DB	0ffH
	DB	0c8H
	DB	094H
	DB	018H
	DB	0ffH
	DB	0c0H
	DB	094H
	DB	010H
	DB	0ffH
	DB	0c0H
	DB	094H
	DB	010H
	DB	0ffH
	DB	0c8H
	DB	094H
	DB	018H
	DB	0ffH
	DB	0c0H
	DB	094H
	DB	010H
	DB	0ffH
	DB	0c8H
	DB	094H
	DB	018H
	DB	0ffH
	DB	0c0H
	DB	094H
	DB	010H
	DB	0ffH
	DB	0c0H
	DB	094H
	DB	010H
	DB	0ffH
	DB	0c8H
	DB	094H
	DB	018H
	DB	0ffH
	DB	0c0H
	DB	094H
	DB	010H
	DB	0ffH
	DB	0c8H
	DB	094H
	DB	018H
	DB	0ffH
	DB	0c0H
	DB	094H
	DB	010H
	DB	0ffH
	DB	0c0H
	DB	094H
	DB	010H
	DB	0ffH
	DB	0c8H
	DB	094H
	DB	018H
	DB	0ffH
	DB	0c0H
	DB	094H
	DB	010H
	DB	0ffH
	DB	0c8H
	DB	094H
	DB	018H
	DB	0ffH
	DB	0c0H
	DB	094H
	DB	010H
	DB	0ffH
	DB	0c0H
	DB	094H
	DB	010H
	DB	0ffH
	DB	0c8H
	DB	094H
	DB	018H
	DB	0ffH
	DB	0c0H
	DB	094H
	DB	010H
	DB	0ffH
	DB	0c0H
	DB	094H
	DB	010H
	DB	0ffH
	DB	00H
	DB	00H
	DB	00H
	DB	024H
	DB	00H
	DB	00H
	DB	00H
	DB	0cH
	DB	00H
	DB	00H
	DB	00H
	DB	0cH
	DB	00H
	DB	00H
	DB	00H
	DB	024H
	DB	0c0H
	DB	094H
	DB	010H
	DB	0ffH
	DB	0c0H
	DB	094H
	DB	010H
	DB	0ffH
	DB	0c0H
	DB	094H
	DB	010H
	DB	0ffH
	DB	0c0H
	DB	094H
	DB	010H
	DB	0ffH
	DB	0c0H
	DB	094H
	DB	010H
	DB	0ffH
	DB	0c0H
	DB	094H
	DB	010H
	DB	0ffH
	DB	0c0H
	DB	094H
	DB	010H
	DB	0ffH
	DB	0c0H
	DB	094H
	DB	010H
	DB	0ffH
	DB	0c0H
	DB	094H
	DB	010H
	DB	0ffH
	DB	0c0H
	DB	094H
	DB	010H
	DB	0ffH
	DB	0c0H
	DB	094H
	DB	010H
	DB	0ffH
	DB	0c0H
	DB	094H
	DB	010H
	DB	0ffH
	DB	0c0H
	DB	094H
	DB	010H
	DB	0ffH
	DB	0c0H
	DB	094H
	DB	010H
	DB	0ffH
	DB	0c0H
	DB	094H
	DB	010H
	DB	0ffH
	DB	0c0H
	DB	094H
	DB	010H
	DB	0ffH
	DB	0c0H
	DB	094H
	DB	010H
	DB	0ffH
	DB	0c0H
	DB	094H
	DB	010H
	DB	0ffH
	DB	0c0H
	DB	094H
	DB	010H
	DB	0ffH
	DB	0c0H
	DB	094H
	DB	010H
	DB	0ffH
	DB	0c0H
	DB	094H
	DB	010H
	DB	0ffH
	DB	0c0H
	DB	094H
	DB	010H
	DB	0ffH
	DB	0c0H
	DB	094H
	DB	010H
	DB	0ffH
	DB	0c0H
	DB	094H
	DB	010H
	DB	0ffH
	DB	0c0H
	DB	094H
	DB	010H
	DB	0ffH
	DB	0c0H
	DB	094H
	DB	010H
	DB	0ffH
	DB	0c0H
	DB	094H
	DB	010H
	DB	0ffH
	DB	0c0H
	DB	094H
	DB	010H
	DB	0ffH
	DB	0c0H
	DB	094H
	DB	010H
	DB	0ffH
	DB	0c0H
	DB	094H
	DB	010H
	DB	0ffH
	DB	0c0H
	DB	094H
	DB	010H
	DB	0ffH
	DB	0c0H
	DB	094H
	DB	010H
	DB	0ffH
	DB	0c0H
	DB	094H
	DB	010H
	DB	0ffH
	DB	0c0H
	DB	094H
	DB	010H
	DB	0ffH
	DB	0c0H
	DB	094H
	DB	010H
	DB	0ffH
	DB	0c0H
	DB	094H
	DB	010H
	DB	0ffH
	DB	0c0H
	DB	094H
	DB	010H
	DB	0ffH
	DB	0c0H
	DB	094H
	DB	010H
	DB	0ffH
	DB	0c0H
	DB	094H
	DB	010H
	DB	0ffH
	DB	0c0H
	DB	094H
	DB	010H
	DB	0ffH
	DB	0c0H
	DB	094H
	DB	010H
	DB	0ffH
	DB	0c0H
	DB	094H
	DB	010H
	DB	0ffH
	DB	0c0H
	DB	094H
	DB	010H
	DB	0ffH
	DB	0c0H
	DB	094H
	DB	010H
	DB	0ffH
	DB	0c0H
	DB	094H
	DB	010H
	DB	0ffH
	DB	0c0H
	DB	094H
	DB	010H
	DB	0ffH
	DB	0c0H
	DB	094H
	DB	010H
	DB	0ffH
	DB	0c0H
	DB	094H
	DB	010H
	DB	0ffH
	DB	0c0H
	DB	094H
	DB	010H
	DB	0ffH
	DB	0c0H
	DB	094H
	DB	010H
	DB	0ffH
	DB	00H
	DB	00H
	DB	00H
	DB	024H
	DB	00H
	DB	00H
	DB	00H
	DB	0cH
	DB	00H
	DB	00H
	DB	00H
	DB	0cH
	DB	00H
	DB	00H
	DB	00H
	DB	024H
	DB	0c0H
	DB	094H
	DB	010H
	DB	0ffH
	DB	0c0H
	DB	094H
	DB	018H
	DB	0ffH
	DB	0c0H
	DB	094H
	DB	010H
	DB	0ffH
	DB	0c0H
	DB	094H
	DB	010H
	DB	0ffH
	DB	0c0H
	DB	094H
	DB	018H
	DB	0ffH
	DB	0c8H
	DB	094H
	DB	018H
	DB	0ffH
	DB	0c0H
	DB	094H
	DB	010H
	DB	0ffH
	DB	0c0H
	DB	094H
	DB	010H
	DB	0ffH
	DB	0c0H
	DB	094H
	DB	018H
	DB	0ffH
	DB	0c0H
	DB	094H
	DB	010H
	DB	0ffH
	DB	0c8H
	DB	094H
	DB	018H
	DB	0ffH
	DB	0c0H
	DB	094H
	DB	018H
	DB	0ffH
	DB	0c0H
	DB	094H
	DB	010H
	DB	0ffH
	DB	0c0H
	DB	094H
	DB	010H
	DB	0ffH
	DB	0c0H
	DB	094H
	DB	018H
	DB	0ffH
	DB	0c8H
	DB	094H
	DB	018H
	DB	0ffH
	DB	0c0H
	DB	094H
	DB	010H
	DB	0ffH
	DB	0c0H
	DB	094H
	DB	010H
	DB	0ffH
	DB	0c0H
	DB	094H
	DB	018H
	DB	0ffH
	DB	0c0H
	DB	094H
	DB	010H
	DB	0ffH
	DB	0c8H
	DB	094H
	DB	018H
	DB	0ffH
	DB	0c0H
	DB	094H
	DB	018H
	DB	0ffH
	DB	0c0H
	DB	094H
	DB	010H
	DB	0ffH
	DB	0c0H
	DB	094H
	DB	010H
	DB	0ffH
	DB	0c0H
	DB	094H
	DB	018H
	DB	0ffH
	DB	0c8H
	DB	094H
	DB	018H
	DB	0ffH
	DB	0c0H
	DB	094H
	DB	010H
	DB	0ffH
	DB	0c0H
	DB	094H
	DB	010H
	DB	0ffH
	DB	0c0H
	DB	094H
	DB	018H
	DB	0ffH
	DB	0c0H
	DB	094H
	DB	010H
	DB	0ffH
	DB	0c8H
	DB	094H
	DB	018H
	DB	0ffH
	DB	0c0H
	DB	094H
	DB	018H
	DB	0ffH
	DB	0c0H
	DB	094H
	DB	010H
	DB	0ffH
	DB	0c0H
	DB	094H
	DB	010H
	DB	0ffH
	DB	0c0H
	DB	094H
	DB	018H
	DB	0ffH
	DB	0c8H
	DB	094H
	DB	018H
	DB	0ffH
	DB	0c0H
	DB	094H
	DB	010H
	DB	0ffH
	DB	0c0H
	DB	094H
	DB	010H
	DB	0ffH
	DB	0c0H
	DB	094H
	DB	018H
	DB	0ffH
	DB	0c0H
	DB	094H
	DB	010H
	DB	0ffH
	DB	0c8H
	DB	094H
	DB	018H
	DB	0ffH
	DB	0c0H
	DB	094H
	DB	018H
	DB	0ffH
	DB	0c0H
	DB	094H
	DB	010H
	DB	0ffH
	DB	0c0H
	DB	094H
	DB	010H
	DB	0ffH
	DB	0c0H
	DB	094H
	DB	018H
	DB	0ffH
	DB	0c8H
	DB	094H
	DB	018H
	DB	0ffH
	DB	0c0H
	DB	094H
	DB	010H
	DB	0ffH
	DB	0c0H
	DB	094H
	DB	018H
	DB	0ffH
	DB	0c0H
	DB	094H
	DB	010H
	DB	0ffH
	DB	0c0H
	DB	094H
	DB	010H
	DB	0ffH
	DB	00H
	DB	00H
	DB	00H
	DB	024H
	DB	00H
	DB	00H
	DB	00H
	DB	0cH
	DB	00H
	DB	00H
	DB	00H
	DB	0cH
	DB	00H
	DB	00H
	DB	00H
	DB	024H
	DB	0c0H
	DB	094H
	DB	010H
	DB	0ffH
	DB	0c0H
	DB	094H
	DB	010H
	DB	0ffH
	DB	0c0H
	DB	094H
	DB	010H
	DB	0ffH
	DB	0c0H
	DB	094H
	DB	010H
	DB	0ffH
	DB	0c0H
	DB	094H
	DB	010H
	DB	0ffH
	DB	0c0H
	DB	094H
	DB	010H
	DB	0ffH
	DB	0c0H
	DB	094H
	DB	010H
	DB	0ffH
	DB	0c0H
	DB	094H
	DB	010H
	DB	0ffH
	DB	0c0H
	DB	094H
	DB	010H
	DB	0ffH
	DB	0c0H
	DB	094H
	DB	010H
	DB	0ffH
	DB	0c0H
	DB	094H
	DB	010H
	DB	0ffH
	DB	0c0H
	DB	094H
	DB	010H
	DB	0ffH
	DB	0c0H
	DB	094H
	DB	010H
	DB	0ffH
	DB	0c0H
	DB	094H
	DB	010H
	DB	0ffH
	DB	0c0H
	DB	094H
	DB	010H
	DB	0ffH
	DB	0c0H
	DB	094H
	DB	010H
	DB	0ffH
	DB	0c0H
	DB	094H
	DB	010H
	DB	0ffH
	DB	0c0H
	DB	094H
	DB	010H
	DB	0ffH
	DB	0c0H
	DB	094H
	DB	010H
	DB	0ffH
	DB	0c0H
	DB	094H
	DB	010H
	DB	0ffH
	DB	0c0H
	DB	094H
	DB	010H
	DB	0ffH
	DB	0c0H
	DB	094H
	DB	010H
	DB	0ffH
	DB	0c0H
	DB	094H
	DB	010H
	DB	0ffH
	DB	0c0H
	DB	094H
	DB	010H
	DB	0ffH
	DB	0c0H
	DB	094H
	DB	010H
	DB	0ffH
	DB	0c0H
	DB	094H
	DB	010H
	DB	0ffH
	DB	0c0H
	DB	094H
	DB	010H
	DB	0ffH
	DB	0c0H
	DB	094H
	DB	010H
	DB	0ffH
	DB	0c0H
	DB	094H
	DB	010H
	DB	0ffH
	DB	0c0H
	DB	094H
	DB	010H
	DB	0ffH
	DB	0c0H
	DB	094H
	DB	010H
	DB	0ffH
	DB	0c0H
	DB	094H
	DB	010H
	DB	0ffH
	DB	0c0H
	DB	094H
	DB	010H
	DB	0ffH
	DB	0c0H
	DB	094H
	DB	010H
	DB	0ffH
	DB	0c0H
	DB	094H
	DB	010H
	DB	0ffH
	DB	0c0H
	DB	094H
	DB	010H
	DB	0ffH
	DB	0c0H
	DB	094H
	DB	010H
	DB	0ffH
	DB	0c0H
	DB	094H
	DB	010H
	DB	0ffH
	DB	0c0H
	DB	094H
	DB	010H
	DB	0ffH
	DB	0c0H
	DB	094H
	DB	010H
	DB	0ffH
	DB	0c0H
	DB	094H
	DB	010H
	DB	0ffH
	DB	0c0H
	DB	094H
	DB	010H
	DB	0ffH
	DB	0c0H
	DB	094H
	DB	010H
	DB	0ffH
	DB	0c0H
	DB	094H
	DB	010H
	DB	0ffH
	DB	0c0H
	DB	094H
	DB	010H
	DB	0ffH
	DB	0c0H
	DB	094H
	DB	010H
	DB	0ffH
	DB	0c0H
	DB	094H
	DB	010H
	DB	0ffH
	DB	0c0H
	DB	094H
	DB	010H
	DB	0ffH
	DB	0c0H
	DB	094H
	DB	010H
	DB	0ffH
	DB	0c0H
	DB	094H
	DB	010H
	DB	0ffH
	DB	00H
	DB	00H
	DB	00H
	DB	024H
	DB	00H
	DB	00H
	DB	00H
	DB	0cH
	DB	00H
	DB	00H
	DB	00H
	DB	0cH
	DB	00H
	DB	00H
	DB	00H
	DB	024H
	DB	0c0H
	DB	090H
	DB	010H
	DB	0ffH
	DB	0c0H
	DB	094H
	DB	010H
	DB	0ffH
	DB	0c0H
	DB	094H
	DB	010H
	DB	0ffH
	DB	0c0H
	DB	090H
	DB	010H
	DB	0ffH
	DB	0c0H
	DB	094H
	DB	010H
	DB	0ffH
	DB	0c0H
	DB	094H
	DB	010H
	DB	0ffH
	DB	0c0H
	DB	094H
	DB	010H
	DB	0ffH
	DB	0c0H
	DB	094H
	DB	010H
	DB	0ffH
	DB	0c0H
	DB	094H
	DB	010H
	DB	0ffH
	DB	0c0H
	DB	094H
	DB	010H
	DB	0ffH
	DB	0c0H
	DB	094H
	DB	010H
	DB	0ffH
	DB	0c0H
	DB	094H
	DB	010H
	DB	0ffH
	DB	0c0H
	DB	094H
	DB	010H
	DB	0ffH
	DB	0c0H
	DB	094H
	DB	010H
	DB	0ffH
	DB	0c0H
	DB	094H
	DB	010H
	DB	0ffH
	DB	0c0H
	DB	094H
	DB	010H
	DB	0ffH
	DB	0c0H
	DB	094H
	DB	010H
	DB	0ffH
	DB	0c0H
	DB	094H
	DB	010H
	DB	0ffH
	DB	0c0H
	DB	094H
	DB	010H
	DB	0ffH
	DB	0c0H
	DB	094H
	DB	010H
	DB	0ffH
	DB	0c0H
	DB	094H
	DB	010H
	DB	0ffH
	DB	0c0H
	DB	094H
	DB	010H
	DB	0ffH
	DB	0c0H
	DB	094H
	DB	010H
	DB	0ffH
	DB	0c0H
	DB	094H
	DB	010H
	DB	0ffH
	DB	0c0H
	DB	094H
	DB	010H
	DB	0ffH
	DB	0c0H
	DB	094H
	DB	010H
	DB	0ffH
	DB	0c0H
	DB	094H
	DB	010H
	DB	0ffH
	DB	0c0H
	DB	094H
	DB	010H
	DB	0ffH
	DB	0c0H
	DB	094H
	DB	010H
	DB	0ffH
	DB	0c0H
	DB	094H
	DB	010H
	DB	0ffH
	DB	0c0H
	DB	094H
	DB	010H
	DB	0ffH
	DB	0c0H
	DB	094H
	DB	010H
	DB	0ffH
	DB	0c0H
	DB	094H
	DB	010H
	DB	0ffH
	DB	0c0H
	DB	094H
	DB	010H
	DB	0ffH
	DB	0c0H
	DB	094H
	DB	010H
	DB	0ffH
	DB	0c0H
	DB	094H
	DB	010H
	DB	0ffH
	DB	0c0H
	DB	094H
	DB	010H
	DB	0ffH
	DB	0c0H
	DB	094H
	DB	010H
	DB	0ffH
	DB	0c0H
	DB	094H
	DB	010H
	DB	0ffH
	DB	0c0H
	DB	094H
	DB	010H
	DB	0ffH
	DB	0c0H
	DB	094H
	DB	010H
	DB	0ffH
	DB	0c0H
	DB	094H
	DB	010H
	DB	0ffH
	DB	0c0H
	DB	094H
	DB	010H
	DB	0ffH
	DB	0c0H
	DB	094H
	DB	010H
	DB	0ffH
	DB	0c0H
	DB	094H
	DB	010H
	DB	0ffH
	DB	0c0H
	DB	094H
	DB	010H
	DB	0ffH
	DB	0c0H
	DB	094H
	DB	010H
	DB	0ffH
	DB	0c0H
	DB	094H
	DB	010H
	DB	0ffH
	DB	0c0H
	DB	094H
	DB	010H
	DB	0ffH
	DB	0c0H
	DB	090H
	DB	010H
	DB	0ffH
	DB	00H
	DB	00H
	DB	00H
	DB	024H
	DB	00H
	DB	00H
	DB	00H
	DB	0cH
	DB	00H
	DB	00H
	DB	00H
	DB	0cH
	DB	00H
	DB	00H
	DB	00H
	DB	024H
	DB	0c0H
	DB	090H
	DB	010H
	DB	0ffH
	DB	0c0H
	DB	090H
	DB	010H
	DB	0ffH
	DB	0c0H
	DB	090H
	DB	010H
	DB	0ffH
	DB	0c0H
	DB	090H
	DB	010H
	DB	0ffH
	DB	0c0H
	DB	090H
	DB	010H
	DB	0ffH
	DB	0c0H
	DB	090H
	DB	010H
	DB	0ffH
	DB	0c0H
	DB	090H
	DB	010H
	DB	0ffH
	DB	0c0H
	DB	090H
	DB	010H
	DB	0ffH
	DB	0c0H
	DB	090H
	DB	010H
	DB	0ffH
	DB	0c0H
	DB	090H
	DB	010H
	DB	0ffH
	DB	0c0H
	DB	090H
	DB	010H
	DB	0ffH
	DB	0c0H
	DB	090H
	DB	010H
	DB	0ffH
	DB	0c0H
	DB	090H
	DB	010H
	DB	0ffH
	DB	0c0H
	DB	090H
	DB	010H
	DB	0ffH
	DB	0c0H
	DB	090H
	DB	010H
	DB	0ffH
	DB	0c0H
	DB	090H
	DB	010H
	DB	0ffH
	DB	0c0H
	DB	090H
	DB	010H
	DB	0ffH
	DB	0c0H
	DB	090H
	DB	010H
	DB	0ffH
	DB	0c0H
	DB	090H
	DB	010H
	DB	0ffH
	DB	0c0H
	DB	090H
	DB	010H
	DB	0ffH
	DB	0c0H
	DB	090H
	DB	010H
	DB	0ffH
	DB	0c0H
	DB	090H
	DB	010H
	DB	0ffH
	DB	0c0H
	DB	090H
	DB	010H
	DB	0ffH
	DB	0c0H
	DB	090H
	DB	010H
	DB	0ffH
	DB	0c0H
	DB	090H
	DB	010H
	DB	0ffH
	DB	0c0H
	DB	090H
	DB	010H
	DB	0ffH
	DB	0c0H
	DB	090H
	DB	010H
	DB	0ffH
	DB	0c0H
	DB	090H
	DB	010H
	DB	0ffH
	DB	0c0H
	DB	090H
	DB	010H
	DB	0ffH
	DB	0c0H
	DB	090H
	DB	010H
	DB	0ffH
	DB	0c0H
	DB	090H
	DB	010H
	DB	0ffH
	DB	0c0H
	DB	090H
	DB	010H
	DB	0ffH
	DB	0c0H
	DB	090H
	DB	010H
	DB	0ffH
	DB	0c0H
	DB	090H
	DB	010H
	DB	0ffH
	DB	0c0H
	DB	090H
	DB	010H
	DB	0ffH
	DB	0c0H
	DB	090H
	DB	010H
	DB	0ffH
	DB	0c0H
	DB	090H
	DB	010H
	DB	0ffH
	DB	0c0H
	DB	090H
	DB	010H
	DB	0ffH
	DB	0c0H
	DB	090H
	DB	010H
	DB	0ffH
	DB	0c0H
	DB	090H
	DB	010H
	DB	0ffH
	DB	0c0H
	DB	090H
	DB	010H
	DB	0ffH
	DB	0c0H
	DB	090H
	DB	010H
	DB	0ffH
	DB	0c0H
	DB	090H
	DB	010H
	DB	0ffH
	DB	0c0H
	DB	090H
	DB	010H
	DB	0ffH
	DB	0c0H
	DB	090H
	DB	010H
	DB	0ffH
	DB	0c0H
	DB	090H
	DB	010H
	DB	0ffH
	DB	0c0H
	DB	090H
	DB	010H
	DB	0ffH
	DB	0c0H
	DB	090H
	DB	010H
	DB	0ffH
	DB	0c0H
	DB	090H
	DB	010H
	DB	0ffH
	DB	0c0H
	DB	090H
	DB	010H
	DB	0ffH
	DB	00H
	DB	00H
	DB	00H
	DB	024H
	DB	00H
	DB	00H
	DB	00H
	DB	0cH
	DB	00H
	DB	00H
	DB	00H
	DB	0cH
	DB	00H
	DB	00H
	DB	00H
	DB	024H
	DB	0c0H
	DB	090H
	DB	010H
	DB	0ffH
	DB	0c0H
	DB	090H
	DB	010H
	DB	0ffH
	DB	0c0H
	DB	090H
	DB	010H
	DB	0ffH
	DB	0b8H
	DB	090H
	DB	010H
	DB	0ffH
	DB	0c0H
	DB	090H
	DB	010H
	DB	0ffH
	DB	0c0H
	DB	090H
	DB	010H
	DB	0ffH
	DB	0b8H
	DB	090H
	DB	010H
	DB	0ffH
	DB	0c0H
	DB	090H
	DB	010H
	DB	0ffH
	DB	0c0H
	DB	090H
	DB	010H
	DB	0ffH
	DB	0b8H
	DB	090H
	DB	010H
	DB	0ffH
	DB	0c0H
	DB	090H
	DB	010H
	DB	0ffH
	DB	0c0H
	DB	090H
	DB	010H
	DB	0ffH
	DB	0b8H
	DB	090H
	DB	010H
	DB	0ffH
	DB	0c0H
	DB	090H
	DB	010H
	DB	0ffH
	DB	0c0H
	DB	090H
	DB	010H
	DB	0ffH
	DB	0b8H
	DB	090H
	DB	010H
	DB	0ffH
	DB	0c0H
	DB	090H
	DB	010H
	DB	0ffH
	DB	0c0H
	DB	090H
	DB	010H
	DB	0ffH
	DB	0b8H
	DB	090H
	DB	010H
	DB	0ffH
	DB	0c0H
	DB	090H
	DB	010H
	DB	0ffH
	DB	0c0H
	DB	090H
	DB	010H
	DB	0ffH
	DB	0b8H
	DB	090H
	DB	010H
	DB	0ffH
	DB	0c0H
	DB	090H
	DB	010H
	DB	0ffH
	DB	0c0H
	DB	090H
	DB	010H
	DB	0ffH
	DB	0b8H
	DB	090H
	DB	010H
	DB	0ffH
	DB	0c0H
	DB	090H
	DB	010H
	DB	0ffH
	DB	0c0H
	DB	090H
	DB	010H
	DB	0ffH
	DB	0b8H
	DB	090H
	DB	010H
	DB	0ffH
	DB	0c0H
	DB	090H
	DB	010H
	DB	0ffH
	DB	0c0H
	DB	090H
	DB	010H
	DB	0ffH
	DB	0b8H
	DB	090H
	DB	010H
	DB	0ffH
	DB	0c0H
	DB	090H
	DB	010H
	DB	0ffH
	DB	0c0H
	DB	090H
	DB	010H
	DB	0ffH
	DB	0b8H
	DB	090H
	DB	010H
	DB	0ffH
	DB	0c0H
	DB	090H
	DB	010H
	DB	0ffH
	DB	0c0H
	DB	090H
	DB	010H
	DB	0ffH
	DB	0b8H
	DB	090H
	DB	010H
	DB	0ffH
	DB	0c0H
	DB	090H
	DB	010H
	DB	0ffH
	DB	0c0H
	DB	090H
	DB	010H
	DB	0ffH
	DB	0b8H
	DB	090H
	DB	010H
	DB	0ffH
	DB	0c0H
	DB	090H
	DB	010H
	DB	0ffH
	DB	0c0H
	DB	090H
	DB	010H
	DB	0ffH
	DB	0b8H
	DB	090H
	DB	010H
	DB	0ffH
	DB	0c0H
	DB	090H
	DB	010H
	DB	0ffH
	DB	0c0H
	DB	090H
	DB	010H
	DB	0ffH
	DB	0b8H
	DB	090H
	DB	010H
	DB	0ffH
	DB	0c0H
	DB	090H
	DB	010H
	DB	0ffH
	DB	0c0H
	DB	090H
	DB	010H
	DB	0ffH
	DB	0c0H
	DB	090H
	DB	010H
	DB	0ffH
	DB	0c0H
	DB	090H
	DB	010H
	DB	0ffH
	DB	00H
	DB	00H
	DB	00H
	DB	024H
	DB	00H
	DB	00H
	DB	00H
	DB	0cH
	DB	00H
	DB	00H
	DB	00H
	DB	0cH
	DB	00H
	DB	00H
	DB	00H
	DB	024H
	DB	0b8H
	DB	090H
	DB	010H
	DB	0ffH
	DB	0b8H
	DB	090H
	DB	010H
	DB	0ffH
	DB	0b8H
	DB	090H
	DB	010H
	DB	0ffH
	DB	0b8H
	DB	090H
	DB	010H
	DB	0ffH
	DB	0c0H
	DB	090H
	DB	010H
	DB	0ffH
	DB	0b8H
	DB	090H
	DB	010H
	DB	0ffH
	DB	0b8H
	DB	090H
	DB	010H
	DB	0ffH
	DB	0c0H
	DB	090H
	DB	010H
	DB	0ffH
	DB	0b8H
	DB	090H
	DB	010H
	DB	0ffH
	DB	0b8H
	DB	090H
	DB	010H
	DB	0ffH
	DB	0c0H
	DB	090H
	DB	010H
	DB	0ffH
	DB	0b8H
	DB	090H
	DB	010H
	DB	0ffH
	DB	0b8H
	DB	090H
	DB	010H
	DB	0ffH
	DB	0c0H
	DB	090H
	DB	010H
	DB	0ffH
	DB	0b8H
	DB	090H
	DB	010H
	DB	0ffH
	DB	0b8H
	DB	090H
	DB	010H
	DB	0ffH
	DB	0c0H
	DB	090H
	DB	010H
	DB	0ffH
	DB	0b8H
	DB	090H
	DB	010H
	DB	0ffH
	DB	0b8H
	DB	090H
	DB	010H
	DB	0ffH
	DB	0c0H
	DB	090H
	DB	010H
	DB	0ffH
	DB	0b8H
	DB	090H
	DB	010H
	DB	0ffH
	DB	0b8H
	DB	090H
	DB	010H
	DB	0ffH
	DB	0c0H
	DB	090H
	DB	010H
	DB	0ffH
	DB	0b8H
	DB	090H
	DB	010H
	DB	0ffH
	DB	0b8H
	DB	090H
	DB	010H
	DB	0ffH
	DB	0c0H
	DB	090H
	DB	010H
	DB	0ffH
	DB	0b8H
	DB	090H
	DB	010H
	DB	0ffH
	DB	0b8H
	DB	090H
	DB	010H
	DB	0ffH
	DB	0c0H
	DB	090H
	DB	010H
	DB	0ffH
	DB	0b8H
	DB	090H
	DB	010H
	DB	0ffH
	DB	0b8H
	DB	090H
	DB	010H
	DB	0ffH
	DB	0c0H
	DB	090H
	DB	010H
	DB	0ffH
	DB	0b8H
	DB	090H
	DB	010H
	DB	0ffH
	DB	0b8H
	DB	090H
	DB	010H
	DB	0ffH
	DB	0c0H
	DB	090H
	DB	010H
	DB	0ffH
	DB	0b8H
	DB	090H
	DB	010H
	DB	0ffH
	DB	0b8H
	DB	090H
	DB	010H
	DB	0ffH
	DB	0c0H
	DB	090H
	DB	010H
	DB	0ffH
	DB	0b8H
	DB	090H
	DB	010H
	DB	0ffH
	DB	0b8H
	DB	090H
	DB	010H
	DB	0ffH
	DB	0c0H
	DB	090H
	DB	010H
	DB	0ffH
	DB	0b8H
	DB	090H
	DB	010H
	DB	0ffH
	DB	0b8H
	DB	090H
	DB	010H
	DB	0ffH
	DB	0c0H
	DB	090H
	DB	010H
	DB	0ffH
	DB	0b8H
	DB	090H
	DB	010H
	DB	0ffH
	DB	0b8H
	DB	090H
	DB	010H
	DB	0ffH
	DB	0b8H
	DB	090H
	DB	010H
	DB	0ffH
	DB	0b8H
	DB	090H
	DB	010H
	DB	0ffH
	DB	0b8H
	DB	090H
	DB	010H
	DB	0ffH
	DB	0b8H
	DB	090H
	DB	010H
	DB	0ffH
	DB	00H
	DB	00H
	DB	00H
	DB	024H
	DB	00H
	DB	00H
	DB	00H
	DB	0cH
	DB	00H
	DB	00H
	DB	00H
	DB	0cH
	DB	00H
	DB	00H
	DB	00H
	DB	024H
	DB	0b8H
	DB	08cH
	DB	010H
	DB	0ffH
	DB	0b8H
	DB	08cH
	DB	08H
	DB	0ffH
	DB	0c0H
	DB	090H
	DB	08H
	DB	0ffH
	DB	0b8H
	DB	08cH
	DB	010H
	DB	0ffH
	DB	0b8H
	DB	08cH
	DB	08H
	DB	0ffH
	DB	0c0H
	DB	08cH
	DB	08H
	DB	0ffH
	DB	0b8H
	DB	08cH
	DB	010H
	DB	0ffH
	DB	0b8H
	DB	08cH
	DB	08H
	DB	0ffH
	DB	0b8H
	DB	08cH
	DB	08H
	DB	0ffH
	DB	0c0H
	DB	08cH
	DB	010H
	DB	0ffH
	DB	0b8H
	DB	08cH
	DB	08H
	DB	0ffH
	DB	0b8H
	DB	08cH
	DB	08H
	DB	0ffH
	DB	0b8H
	DB	08cH
	DB	010H
	DB	0ffH
	DB	0c0H
	DB	08cH
	DB	08H
	DB	0ffH
	DB	0b8H
	DB	08cH
	DB	08H
	DB	0ffH
	DB	0b8H
	DB	08cH
	DB	010H
	DB	0ffH
	DB	0b8H
	DB	08cH
	DB	08H
	DB	0ffH
	DB	0b8H
	DB	08cH
	DB	08H
	DB	0ffH
	DB	0c0H
	DB	08cH
	DB	010H
	DB	0ffH
	DB	0b8H
	DB	08cH
	DB	08H
	DB	0ffH
	DB	0b8H
	DB	08cH
	DB	08H
	DB	0ffH
	DB	0b8H
	DB	08cH
	DB	010H
	DB	0ffH
	DB	0c0H
	DB	08cH
	DB	08H
	DB	0ffH
	DB	0b8H
	DB	08cH
	DB	08H
	DB	0ffH
	DB	0b8H
	DB	08cH
	DB	010H
	DB	0ffH
	DB	0b8H
	DB	08cH
	DB	08H
	DB	0ffH
	DB	0b8H
	DB	08cH
	DB	08H
	DB	0ffH
	DB	0c0H
	DB	08cH
	DB	010H
	DB	0ffH
	DB	0b8H
	DB	08cH
	DB	08H
	DB	0ffH
	DB	0b8H
	DB	08cH
	DB	08H
	DB	0ffH
	DB	0b8H
	DB	08cH
	DB	010H
	DB	0ffH
	DB	0c0H
	DB	08cH
	DB	08H
	DB	0ffH
	DB	0b8H
	DB	08cH
	DB	08H
	DB	0ffH
	DB	0b8H
	DB	08cH
	DB	010H
	DB	0ffH
	DB	0b8H
	DB	08cH
	DB	08H
	DB	0ffH
	DB	0b8H
	DB	08cH
	DB	08H
	DB	0ffH
	DB	0c0H
	DB	08cH
	DB	010H
	DB	0ffH
	DB	0b8H
	DB	08cH
	DB	08H
	DB	0ffH
	DB	0b8H
	DB	08cH
	DB	08H
	DB	0ffH
	DB	0b8H
	DB	08cH
	DB	010H
	DB	0ffH
	DB	0c0H
	DB	08cH
	DB	08H
	DB	0ffH
	DB	0b8H
	DB	08cH
	DB	08H
	DB	0ffH
	DB	0b8H
	DB	08cH
	DB	010H
	DB	0ffH
	DB	0b8H
	DB	08cH
	DB	08H
	DB	0ffH
	DB	0c0H
	DB	08cH
	DB	08H
	DB	0ffH
	DB	0b8H
	DB	08cH
	DB	010H
	DB	0ffH
	DB	0c0H
	DB	08cH
	DB	08H
	DB	0ffH
	DB	0b8H
	DB	08cH
	DB	08H
	DB	0ffH
	DB	0b8H
	DB	08cH
	DB	010H
	DB	0ffH
	DB	0c0H
	DB	090H
	DB	010H
	DB	0ffH
	DB	00H
	DB	00H
	DB	00H
	DB	024H
	DB	00H
	DB	00H
	DB	00H
	DB	0cH
	DB	00H
	DB	00H
	DB	00H
	DB	0cH
	DB	00H
	DB	00H
	DB	00H
	DB	024H
	DB	0b8H
	DB	08cH
	DB	08H
	DB	0ffH
	DB	0c0H
	DB	08cH
	DB	010H
	DB	0ffH
	DB	0b8H
	DB	08cH
	DB	08H
	DB	0ffH
	DB	0b8H
	DB	08cH
	DB	010H
	DB	0ffH
	DB	0b8H
	DB	08cH
	DB	08H
	DB	0ffH
	DB	0b8H
	DB	090H
	DB	010H
	DB	0ffH
	DB	0c0H
	DB	08cH
	DB	08H
	DB	0ffH
	DB	0b8H
	DB	08cH
	DB	010H
	DB	0ffH
	DB	0b8H
	DB	08cH
	DB	08H
	DB	0ffH
	DB	0b8H
	DB	08cH
	DB	010H
	DB	0ffH
	DB	0b8H
	DB	08cH
	DB	08H
	DB	0ffH
	DB	0b8H
	DB	08cH
	DB	010H
	DB	0ffH
	DB	0c0H
	DB	08cH
	DB	08H
	DB	0ffH
	DB	0b8H
	DB	08cH
	DB	08H
	DB	0ffH
	DB	0b8H
	DB	08cH
	DB	010H
	DB	0ffH
	DB	0c0H
	DB	08cH
	DB	08H
	DB	0ffH
	DB	0b8H
	DB	08cH
	DB	010H
	DB	0ffH
	DB	0b8H
	DB	08cH
	DB	08H
	DB	0ffH
	DB	0b8H
	DB	08cH
	DB	010H
	DB	0ffH
	DB	0b8H
	DB	08cH
	DB	08H
	DB	0ffH
	DB	0b8H
	DB	08cH
	DB	010H
	DB	0ffH
	DB	0c0H
	DB	08cH
	DB	08H
	DB	0ffH
	DB	0b8H
	DB	08cH
	DB	08H
	DB	0ffH
	DB	0b8H
	DB	08cH
	DB	010H
	DB	0ffH
	DB	0c0H
	DB	08cH
	DB	08H
	DB	0ffH
	DB	0b8H
	DB	08cH
	DB	010H
	DB	0ffH
	DB	0b8H
	DB	08cH
	DB	08H
	DB	0ffH
	DB	0b8H
	DB	08cH
	DB	010H
	DB	0ffH
	DB	0b8H
	DB	08cH
	DB	08H
	DB	0ffH
	DB	0b8H
	DB	08cH
	DB	010H
	DB	0ffH
	DB	0c0H
	DB	08cH
	DB	08H
	DB	0ffH
	DB	0b8H
	DB	08cH
	DB	010H
	DB	0ffH
	DB	0b8H
	DB	08cH
	DB	08H
	DB	0ffH
	DB	0c0H
	DB	08cH
	DB	010H
	DB	0ffH
	DB	0b8H
	DB	08cH
	DB	08H
	DB	0ffH
	DB	0b8H
	DB	08cH
	DB	08H
	DB	0ffH
	DB	0b8H
	DB	08cH
	DB	010H
	DB	0ffH
	DB	0b8H
	DB	08cH
	DB	08H
	DB	0ffH
	DB	0b8H
	DB	08cH
	DB	010H
	DB	0ffH
	DB	0c0H
	DB	08cH
	DB	08H
	DB	0ffH
	DB	0b8H
	DB	08cH
	DB	010H
	DB	0ffH
	DB	0b8H
	DB	08cH
	DB	08H
	DB	0ffH
	DB	0b8H
	DB	08cH
	DB	010H
	DB	0ffH
	DB	0b8H
	DB	08cH
	DB	08H
	DB	0ffH
	DB	0b8H
	DB	08cH
	DB	08H
	DB	0ffH
	DB	0c0H
	DB	08cH
	DB	010H
	DB	0ffH
	DB	0b8H
	DB	08cH
	DB	08H
	DB	0ffH
	DB	0b8H
	DB	08cH
	DB	08H
	DB	0ffH
	DB	0b8H
	DB	08cH
	DB	010H
	DB	0ffH
	DB	0b8H
	DB	08cH
	DB	08H
	DB	0ffH
	DB	00H
	DB	00H
	DB	00H
	DB	024H
	DB	00H
	DB	00H
	DB	00H
	DB	0cH
	DB	00H
	DB	00H
	DB	00H
	DB	0cH
	DB	00H
	DB	00H
	DB	00H
	DB	024H
	DB	0b8H
	DB	08cH
	DB	08H
	DB	0ffH
	DB	0b8H
	DB	08cH
	DB	08H
	DB	0ffH
	DB	0b8H
	DB	08cH
	DB	010H
	DB	0ffH
	DB	0b8H
	DB	08cH
	DB	08H
	DB	0ffH
	DB	0b8H
	DB	08cH
	DB	08H
	DB	0ffH
	DB	0b8H
	DB	08cH
	DB	010H
	DB	0ffH
	DB	0b8H
	DB	08cH
	DB	08H
	DB	0ffH
	DB	0b8H
	DB	08cH
	DB	08H
	DB	0ffH
	DB	0b8H
	DB	08cH
	DB	010H
	DB	0ffH
	DB	0b8H
	DB	08cH
	DB	08H
	DB	0ffH
	DB	0b8H
	DB	08cH
	DB	08H
	DB	0ffH
	DB	0b8H
	DB	08cH
	DB	010H
	DB	0ffH
	DB	0b8H
	DB	08cH
	DB	08H
	DB	0ffH
	DB	0b8H
	DB	08cH
	DB	010H
	DB	0ffH
	DB	0b8H
	DB	08cH
	DB	08H
	DB	0ffH
	DB	0b8H
	DB	08cH
	DB	08H
	DB	0ffH
	DB	0b8H
	DB	08cH
	DB	010H
	DB	0ffH
	DB	0b8H
	DB	08cH
	DB	08H
	DB	0ffH
	DB	0b8H
	DB	08cH
	DB	08H
	DB	0ffH
	DB	0b8H
	DB	08cH
	DB	010H
	DB	0ffH
	DB	0b8H
	DB	08cH
	DB	08H
	DB	0ffH
	DB	0b8H
	DB	08cH
	DB	08H
	DB	0ffH
	DB	0b8H
	DB	08cH
	DB	010H
	DB	0ffH
	DB	0b8H
	DB	08cH
	DB	08H
	DB	0ffH
	DB	0b8H
	DB	08cH
	DB	08H
	DB	0ffH
	DB	0b8H
	DB	08cH
	DB	010H
	DB	0ffH
	DB	0b8H
	DB	08cH
	DB	08H
	DB	0ffH
	DB	0b8H
	DB	08cH
	DB	08H
	DB	0ffH
	DB	0b8H
	DB	08cH
	DB	010H
	DB	0ffH
	DB	0b8H
	DB	08cH
	DB	08H
	DB	0ffH
	DB	0b8H
	DB	08cH
	DB	08H
	DB	0ffH
	DB	0b8H
	DB	08cH
	DB	08H
	DB	0ffH
	DB	0b8H
	DB	08cH
	DB	010H
	DB	0ffH
	DB	0b8H
	DB	08cH
	DB	08H
	DB	0ffH
	DB	0b8H
	DB	08cH
	DB	010H
	DB	0ffH
	DB	0b8H
	DB	08cH
	DB	08H
	DB	0ffH
	DB	0b8H
	DB	08cH
	DB	08H
	DB	0ffH
	DB	0b8H
	DB	08cH
	DB	010H
	DB	0ffH
	DB	0b8H
	DB	08cH
	DB	08H
	DB	0ffH
	DB	0b8H
	DB	08cH
	DB	08H
	DB	0ffH
	DB	0b8H
	DB	08cH
	DB	010H
	DB	0ffH
	DB	0b8H
	DB	08cH
	DB	08H
	DB	0ffH
	DB	0c0H
	DB	08cH
	DB	08H
	DB	0ffH
	DB	0b8H
	DB	08cH
	DB	010H
	DB	0ffH
	DB	0b8H
	DB	08cH
	DB	08H
	DB	0ffH
	DB	0b8H
	DB	08cH
	DB	010H
	DB	0ffH
	DB	0b8H
	DB	08cH
	DB	08H
	DB	0ffH
	DB	0b8H
	DB	08cH
	DB	08H
	DB	0ffH
	DB	0b8H
	DB	08cH
	DB	08H
	DB	0ffH
	DB	0b8H
	DB	08cH
	DB	08H
	DB	0ffH
	DB	00H
	DB	00H
	DB	00H
	DB	024H
	DB	00H
	DB	00H
	DB	00H
	DB	0cH
	DB	00H
	DB	00H
	DB	00H
	DB	0cH
	DB	00H
	DB	00H
	DB	00H
	DB	024H
	DB	0b8H
	DB	08cH
	DB	08H
	DB	0ffH
	DB	0b8H
	DB	08cH
	DB	010H
	DB	0ffH
	DB	0b8H
	DB	08cH
	DB	08H
	DB	0ffH
	DB	0b8H
	DB	08cH
	DB	08H
	DB	0ffH
	DB	0b8H
	DB	08cH
	DB	010H
	DB	0ffH
	DB	0b8H
	DB	08cH
	DB	08H
	DB	0ffH
	DB	0b8H
	DB	08cH
	DB	08H
	DB	0ffH
	DB	0b8H
	DB	08cH
	DB	010H
	DB	0ffH
	DB	0b8H
	DB	08cH
	DB	08H
	DB	0ffH
	DB	0b8H
	DB	08cH
	DB	08H
	DB	0ffH
	DB	0b8H
	DB	08cH
	DB	010H
	DB	0ffH
	DB	0b8H
	DB	08cH
	DB	08H
	DB	0ffH
	DB	0b8H
	DB	08cH
	DB	08H
	DB	0ffH
	DB	0b8H
	DB	08cH
	DB	010H
	DB	0ffH
	DB	0b8H
	DB	08cH
	DB	08H
	DB	0ffH
	DB	0b8H
	DB	08cH
	DB	08H
	DB	0ffH
	DB	0b8H
	DB	08cH
	DB	010H
	DB	0ffH
	DB	0b8H
	DB	08cH
	DB	08H
	DB	0ffH
	DB	0b8H
	DB	08cH
	DB	08H
	DB	0ffH
	DB	0b8H
	DB	08cH
	DB	010H
	DB	0ffH
	DB	0b8H
	DB	08cH
	DB	08H
	DB	0ffH
	DB	0b8H
	DB	08cH
	DB	010H
	DB	0ffH
	DB	0b8H
	DB	08cH
	DB	010H
	DB	0ffH
	DB	0b8H
	DB	08cH
	DB	08H
	DB	0ffH
	DB	0b8H
	DB	08cH
	DB	08H
	DB	0ffH
	DB	0b8H
	DB	08cH
	DB	010H
	DB	0ffH
	DB	0b8H
	DB	08cH
	DB	08H
	DB	0ffH
	DB	0b8H
	DB	08cH
	DB	08H
	DB	0ffH
	DB	0b8H
	DB	08cH
	DB	010H
	DB	0ffH
	DB	0b8H
	DB	08cH
	DB	08H
	DB	0ffH
	DB	0b8H
	DB	08cH
	DB	010H
	DB	0ffH
	DB	0b8H
	DB	08cH
	DB	08H
	DB	0ffH
	DB	0b8H
	DB	08cH
	DB	08H
	DB	0ffH
	DB	0b8H
	DB	08cH
	DB	010H
	DB	0ffH
	DB	0b8H
	DB	08cH
	DB	08H
	DB	0ffH
	DB	0b8H
	DB	08cH
	DB	010H
	DB	0ffH
	DB	0b8H
	DB	08cH
	DB	08H
	DB	0ffH
	DB	0b8H
	DB	08cH
	DB	08H
	DB	0ffH
	DB	0b8H
	DB	08cH
	DB	010H
	DB	0ffH
	DB	0b8H
	DB	08cH
	DB	08H
	DB	0ffH
	DB	0b8H
	DB	08cH
	DB	08H
	DB	0ffH
	DB	0b8H
	DB	08cH
	DB	010H
	DB	0ffH
	DB	0b8H
	DB	08cH
	DB	08H
	DB	0ffH
	DB	0b8H
	DB	08cH
	DB	08H
	DB	0ffH
	DB	0b8H
	DB	08cH
	DB	010H
	DB	0ffH
	DB	0b8H
	DB	08cH
	DB	08H
	DB	0ffH
	DB	0b8H
	DB	08cH
	DB	010H
	DB	0ffH
	DB	0b8H
	DB	08cH
	DB	010H
	DB	0ffH
	DB	0b8H
	DB	08cH
	DB	08H
	DB	0ffH
	DB	0b8H
	DB	08cH
	DB	010H
	DB	0ffH
	DB	00H
	DB	00H
	DB	00H
	DB	024H
	DB	00H
	DB	00H
	DB	00H
	DB	0cH
	DB	00H
	DB	00H
	DB	00H
	DB	0cH
	DB	00H
	DB	00H
	DB	00H
	DB	024H
	DB	0b8H
	DB	088H
	DB	08H
	DB	0ffH
	DB	0b8H
	DB	088H
	DB	08H
	DB	0ffH
	DB	0b8H
	DB	088H
	DB	08H
	DB	0ffH
	DB	0b8H
	DB	088H
	DB	08H
	DB	0ffH
	DB	0b8H
	DB	088H
	DB	08H
	DB	0ffH
	DB	0b8H
	DB	088H
	DB	08H
	DB	0ffH
	DB	0b8H
	DB	088H
	DB	08H
	DB	0ffH
	DB	0b8H
	DB	088H
	DB	08H
	DB	0ffH
	DB	0b8H
	DB	088H
	DB	08H
	DB	0ffH
	DB	0b8H
	DB	088H
	DB	08H
	DB	0ffH
	DB	0b8H
	DB	088H
	DB	08H
	DB	0ffH
	DB	0b8H
	DB	088H
	DB	08H
	DB	0ffH
	DB	0b8H
	DB	088H
	DB	08H
	DB	0ffH
	DB	0b8H
	DB	088H
	DB	08H
	DB	0ffH
	DB	0b8H
	DB	088H
	DB	08H
	DB	0ffH
	DB	0b8H
	DB	088H
	DB	08H
	DB	0ffH
	DB	0b8H
	DB	088H
	DB	08H
	DB	0ffH
	DB	0b8H
	DB	088H
	DB	08H
	DB	0ffH
	DB	0b8H
	DB	088H
	DB	08H
	DB	0ffH
	DB	0b8H
	DB	088H
	DB	08H
	DB	0ffH
	DB	0b8H
	DB	088H
	DB	08H
	DB	0ffH
	DB	0b8H
	DB	088H
	DB	08H
	DB	0ffH
	DB	0b8H
	DB	088H
	DB	08H
	DB	0ffH
	DB	0b8H
	DB	088H
	DB	08H
	DB	0ffH
	DB	0b8H
	DB	088H
	DB	08H
	DB	0ffH
	DB	0b8H
	DB	088H
	DB	08H
	DB	0ffH
	DB	0b8H
	DB	088H
	DB	08H
	DB	0ffH
	DB	0b8H
	DB	088H
	DB	08H
	DB	0ffH
	DB	0b8H
	DB	088H
	DB	08H
	DB	0ffH
	DB	0b8H
	DB	088H
	DB	08H
	DB	0ffH
	DB	0b8H
	DB	088H
	DB	08H
	DB	0ffH
	DB	0b8H
	DB	088H
	DB	08H
	DB	0ffH
	DB	0b8H
	DB	088H
	DB	08H
	DB	0ffH
	DB	0b8H
	DB	088H
	DB	08H
	DB	0ffH
	DB	0b8H
	DB	088H
	DB	08H
	DB	0ffH
	DB	0b8H
	DB	088H
	DB	08H
	DB	0ffH
	DB	0b8H
	DB	088H
	DB	08H
	DB	0ffH
	DB	0b8H
	DB	088H
	DB	08H
	DB	0ffH
	DB	0b8H
	DB	088H
	DB	08H
	DB	0ffH
	DB	0b8H
	DB	088H
	DB	08H
	DB	0ffH
	DB	0b8H
	DB	088H
	DB	08H
	DB	0ffH
	DB	0b8H
	DB	088H
	DB	08H
	DB	0ffH
	DB	0b8H
	DB	088H
	DB	08H
	DB	0ffH
	DB	0b8H
	DB	088H
	DB	08H
	DB	0ffH
	DB	0b8H
	DB	088H
	DB	08H
	DB	0ffH
	DB	0b8H
	DB	088H
	DB	08H
	DB	0ffH
	DB	0b8H
	DB	088H
	DB	08H
	DB	0ffH
	DB	0b8H
	DB	088H
	DB	08H
	DB	0ffH
	DB	0b8H
	DB	088H
	DB	08H
	DB	0ffH
	DB	0b8H
	DB	088H
	DB	08H
	DB	0ffH
	DB	00H
	DB	00H
	DB	00H
	DB	024H
	DB	00H
	DB	00H
	DB	00H
	DB	0cH
	DB	00H
	DB	00H
	DB	00H
	DB	0cH
	DB	00H
	DB	00H
	DB	00H
	DB	024H
	DB	0b8H
	DB	088H
	DB	08H
	DB	0ffH
	DB	0b8H
	DB	088H
	DB	08H
	DB	0ffH
	DB	0b8H
	DB	088H
	DB	08H
	DB	0ffH
	DB	0b8H
	DB	088H
	DB	08H
	DB	0ffH
	DB	0b8H
	DB	088H
	DB	08H
	DB	0ffH
	DB	0b8H
	DB	088H
	DB	010H
	DB	0ffH
	DB	0b8H
	DB	088H
	DB	08H
	DB	0ffH
	DB	0b8H
	DB	088H
	DB	08H
	DB	0ffH
	DB	0b8H
	DB	088H
	DB	08H
	DB	0ffH
	DB	0b8H
	DB	088H
	DB	08H
	DB	0ffH
	DB	0b8H
	DB	088H
	DB	08H
	DB	0ffH
	DB	0b8H
	DB	088H
	DB	010H
	DB	0ffH
	DB	0b8H
	DB	088H
	DB	08H
	DB	0ffH
	DB	0b8H
	DB	088H
	DB	08H
	DB	0ffH
	DB	0b8H
	DB	088H
	DB	08H
	DB	0ffH
	DB	0b8H
	DB	088H
	DB	010H
	DB	0ffH
	DB	0b8H
	DB	088H
	DB	08H
	DB	0ffH
	DB	0b8H
	DB	088H
	DB	08H
	DB	0ffH
	DB	0b8H
	DB	088H
	DB	08H
	DB	0ffH
	DB	0b8H
	DB	088H
	DB	08H
	DB	0ffH
	DB	0b8H
	DB	088H
	DB	08H
	DB	0ffH
	DB	0b8H
	DB	088H
	DB	08H
	DB	0ffH
	DB	0b8H
	DB	088H
	DB	08H
	DB	0ffH
	DB	0b8H
	DB	088H
	DB	08H
	DB	0ffH
	DB	0b8H
	DB	088H
	DB	08H
	DB	0ffH
	DB	0b8H
	DB	088H
	DB	08H
	DB	0ffH
	DB	0b8H
	DB	088H
	DB	010H
	DB	0ffH
	DB	0b8H
	DB	088H
	DB	08H
	DB	0ffH
	DB	0b8H
	DB	088H
	DB	08H
	DB	0ffH
	DB	0b8H
	DB	088H
	DB	08H
	DB	0ffH
	DB	0b8H
	DB	088H
	DB	08H
	DB	0ffH
	DB	0b8H
	DB	088H
	DB	08H
	DB	0ffH
	DB	0b8H
	DB	088H
	DB	08H
	DB	0ffH
	DB	0b8H
	DB	088H
	DB	08H
	DB	0ffH
	DB	0b8H
	DB	088H
	DB	08H
	DB	0ffH
	DB	0b8H
	DB	088H
	DB	08H
	DB	0ffH
	DB	0b8H
	DB	088H
	DB	08H
	DB	0ffH
	DB	0b8H
	DB	088H
	DB	010H
	DB	0ffH
	DB	0b8H
	DB	088H
	DB	08H
	DB	0ffH
	DB	0b8H
	DB	088H
	DB	08H
	DB	0ffH
	DB	0b8H
	DB	088H
	DB	08H
	DB	0ffH
	DB	0b8H
	DB	088H
	DB	08H
	DB	0ffH
	DB	0b8H
	DB	088H
	DB	010H
	DB	0ffH
	DB	0b8H
	DB	088H
	DB	08H
	DB	0ffH
	DB	0b8H
	DB	088H
	DB	08H
	DB	0ffH
	DB	0b8H
	DB	088H
	DB	08H
	DB	0ffH
	DB	0b8H
	DB	088H
	DB	08H
	DB	0ffH
	DB	0b8H
	DB	088H
	DB	08H
	DB	0ffH
	DB	0b8H
	DB	088H
	DB	08H
	DB	0ffH
	DB	0b8H
	DB	088H
	DB	08H
	DB	0ffH
	DB	00H
	DB	00H
	DB	00H
	DB	024H
	DB	00H
	DB	00H
	DB	00H
	DB	0cH
	DB	00H
	DB	00H
	DB	00H
	DB	0cH
	DB	00H
	DB	00H
	DB	00H
	DB	024H
	DB	0b8H
	DB	088H
	DB	08H
	DB	0ffH
	DB	0b0H
	DB	088H
	DB	08H
	DB	0ffH
	DB	0b8H
	DB	088H
	DB	08H
	DB	0ffH
	DB	0b8H
	DB	088H
	DB	08H
	DB	0ffH
	DB	0b0H
	DB	088H
	DB	08H
	DB	0ffH
	DB	0b8H
	DB	088H
	DB	08H
	DB	0ffH
	DB	0b8H
	DB	088H
	DB	08H
	DB	0ffH
	DB	0b8H
	DB	088H
	DB	08H
	DB	0ffH
	DB	0b8H
	DB	088H
	DB	08H
	DB	0ffH
	DB	0b8H
	DB	088H
	DB	08H
	DB	0ffH
	DB	0b8H
	DB	088H
	DB	08H
	DB	0ffH
	DB	0b8H
	DB	088H
	DB	08H
	DB	0ffH
	DB	0b8H
	DB	088H
	DB	08H
	DB	0ffH
	DB	0b0H
	DB	088H
	DB	08H
	DB	0ffH
	DB	0b8H
	DB	088H
	DB	08H
	DB	0ffH
	DB	0b8H
	DB	088H
	DB	08H
	DB	0ffH
	DB	0b8H
	DB	088H
	DB	08H
	DB	0ffH
	DB	0b8H
	DB	088H
	DB	08H
	DB	0ffH
	DB	0b8H
	DB	088H
	DB	08H
	DB	0ffH
	DB	0b8H
	DB	088H
	DB	08H
	DB	0ffH
	DB	0b8H
	DB	088H
	DB	08H
	DB	0ffH
	DB	0b8H
	DB	088H
	DB	08H
	DB	0ffH
	DB	0b0H
	DB	088H
	DB	08H
	DB	0ffH
	DB	0b8H
	DB	088H
	DB	08H
	DB	0ffH
	DB	0b8H
	DB	088H
	DB	08H
	DB	0ffH
	DB	0b8H
	DB	088H
	DB	08H
	DB	0ffH
	DB	0b8H
	DB	088H
	DB	08H
	DB	0ffH
	DB	0b8H
	DB	088H
	DB	08H
	DB	0ffH
	DB	0b8H
	DB	088H
	DB	08H
	DB	0ffH
	DB	0b8H
	DB	088H
	DB	08H
	DB	0ffH
	DB	0b8H
	DB	088H
	DB	08H
	DB	0ffH
	DB	0b0H
	DB	088H
	DB	08H
	DB	0ffH
	DB	0b8H
	DB	088H
	DB	08H
	DB	0ffH
	DB	0b8H
	DB	088H
	DB	08H
	DB	0ffH
	DB	0b8H
	DB	088H
	DB	08H
	DB	0ffH
	DB	0b8H
	DB	088H
	DB	08H
	DB	0ffH
	DB	0b8H
	DB	088H
	DB	08H
	DB	0ffH
	DB	0b8H
	DB	088H
	DB	08H
	DB	0ffH
	DB	0b8H
	DB	088H
	DB	08H
	DB	0ffH
	DB	0b8H
	DB	088H
	DB	08H
	DB	0ffH
	DB	0b0H
	DB	088H
	DB	08H
	DB	0ffH
	DB	0b8H
	DB	088H
	DB	08H
	DB	0ffH
	DB	0b8H
	DB	088H
	DB	08H
	DB	0ffH
	DB	0b0H
	DB	088H
	DB	08H
	DB	0ffH
	DB	0b8H
	DB	088H
	DB	08H
	DB	0ffH
	DB	0b8H
	DB	088H
	DB	08H
	DB	0ffH
	DB	0b0H
	DB	088H
	DB	08H
	DB	0ffH
	DB	0b8H
	DB	088H
	DB	08H
	DB	0ffH
	DB	0b8H
	DB	088H
	DB	08H
	DB	0ffH
	DB	0b8H
	DB	088H
	DB	08H
	DB	0ffH
	DB	00H
	DB	00H
	DB	00H
	DB	024H
	DB	00H
	DB	00H
	DB	00H
	DB	0cH
	DB	00H
	DB	00H
	DB	00H
	DB	0cH
	DB	00H
	DB	00H
	DB	00H
	DB	024H
	DB	0b0H
	DB	084H
	DB	08H
	DB	0ffH
	DB	0b0H
	DB	084H
	DB	08H
	DB	0ffH
	DB	0b0H
	DB	084H
	DB	08H
	DB	0ffH
	DB	0b8H
	DB	084H
	DB	08H
	DB	0ffH
	DB	0b0H
	DB	084H
	DB	08H
	DB	0ffH
	DB	0b0H
	DB	084H
	DB	08H
	DB	0ffH
	DB	0b0H
	DB	084H
	DB	08H
	DB	0ffH
	DB	0b0H
	DB	084H
	DB	08H
	DB	0ffH
	DB	0b0H
	DB	088H
	DB	08H
	DB	0ffH
	DB	0b0H
	DB	084H
	DB	08H
	DB	0ffH
	DB	0b0H
	DB	084H
	DB	08H
	DB	0ffH
	DB	0b0H
	DB	088H
	DB	08H
	DB	0ffH
	DB	0b0H
	DB	084H
	DB	08H
	DB	0ffH
	DB	0b0H
	DB	084H
	DB	08H
	DB	0ffH
	DB	0b0H
	DB	088H
	DB	08H
	DB	0ffH
	DB	0b0H
	DB	084H
	DB	08H
	DB	0ffH
	DB	0b0H
	DB	084H
	DB	08H
	DB	0ffH
	DB	0b0H
	DB	088H
	DB	08H
	DB	0ffH
	DB	0b0H
	DB	084H
	DB	08H
	DB	0ffH
	DB	0b0H
	DB	084H
	DB	08H
	DB	0ffH
	DB	0b0H
	DB	088H
	DB	08H
	DB	0ffH
	DB	0b0H
	DB	084H
	DB	08H
	DB	0ffH
	DB	0b8H
	DB	084H
	DB	08H
	DB	0ffH
	DB	0b0H
	DB	088H
	DB	08H
	DB	0ffH
	DB	0b0H
	DB	084H
	DB	08H
	DB	0ffH
	DB	0b0H
	DB	084H
	DB	08H
	DB	0ffH
	DB	0b0H
	DB	088H
	DB	08H
	DB	0ffH
	DB	0b0H
	DB	084H
	DB	08H
	DB	0ffH
	DB	0b0H
	DB	084H
	DB	08H
	DB	0ffH
	DB	0b0H
	DB	088H
	DB	08H
	DB	0ffH
	DB	0b0H
	DB	084H
	DB	08H
	DB	0ffH
	DB	0b8H
	DB	084H
	DB	08H
	DB	0ffH
	DB	0b0H
	DB	088H
	DB	08H
	DB	0ffH
	DB	0b0H
	DB	084H
	DB	08H
	DB	0ffH
	DB	0b0H
	DB	084H
	DB	08H
	DB	0ffH
	DB	0b0H
	DB	088H
	DB	08H
	DB	0ffH
	DB	0b0H
	DB	084H
	DB	08H
	DB	0ffH
	DB	0b0H
	DB	084H
	DB	08H
	DB	0ffH
	DB	0b0H
	DB	088H
	DB	08H
	DB	0ffH
	DB	0b0H
	DB	084H
	DB	08H
	DB	0ffH
	DB	0b0H
	DB	084H
	DB	08H
	DB	0ffH
	DB	0b8H
	DB	088H
	DB	08H
	DB	0ffH
	DB	0b0H
	DB	084H
	DB	08H
	DB	0ffH
	DB	0b0H
	DB	084H
	DB	08H
	DB	0ffH
	DB	0b0H
	DB	088H
	DB	08H
	DB	0ffH
	DB	0b0H
	DB	084H
	DB	08H
	DB	0ffH
	DB	0b8H
	DB	084H
	DB	08H
	DB	0ffH
	DB	0b0H
	DB	088H
	DB	08H
	DB	0ffH
	DB	0b0H
	DB	084H
	DB	08H
	DB	0ffH
	DB	0b0H
	DB	084H
	DB	08H
	DB	0ffH
	DB	00H
	DB	00H
	DB	00H
	DB	024H
	DB	00H
	DB	00H
	DB	00H
	DB	0cH
	DB	00H
	DB	00H
	DB	00H
	DB	0cH
	DB	00H
	DB	00H
	DB	00H
	DB	024H
	DB	0b0H
	DB	084H
	DB	08H
	DB	0ffH
	DB	0b8H
	DB	084H
	DB	08H
	DB	0ffH
	DB	0b0H
	DB	084H
	DB	08H
	DB	0ffH
	DB	0b0H
	DB	084H
	DB	08H
	DB	0ffH
	DB	0b8H
	DB	088H
	DB	08H
	DB	0ffH
	DB	0b0H
	DB	084H
	DB	08H
	DB	0ffH
	DB	0b0H
	DB	084H
	DB	08H
	DB	0ffH
	DB	0b8H
	DB	084H
	DB	08H
	DB	0ffH
	DB	0b0H
	DB	084H
	DB	08H
	DB	0ffH
	DB	0b0H
	DB	084H
	DB	08H
	DB	0ffH
	DB	0b8H
	DB	084H
	DB	08H
	DB	0ffH
	DB	0b0H
	DB	084H
	DB	08H
	DB	0ffH
	DB	0b8H
	DB	084H
	DB	08H
	DB	0ffH
	DB	0b8H
	DB	084H
	DB	08H
	DB	0ffH
	DB	0b0H
	DB	084H
	DB	08H
	DB	0ffH
	DB	0b0H
	DB	084H
	DB	08H
	DB	0ffH
	DB	0b8H
	DB	084H
	DB	08H
	DB	0ffH
	DB	0b0H
	DB	084H
	DB	08H
	DB	0ffH
	DB	0b0H
	DB	084H
	DB	08H
	DB	0ffH
	DB	0b8H
	DB	084H
	DB	08H
	DB	0ffH
	DB	0b0H
	DB	084H
	DB	08H
	DB	0ffH
	DB	0b0H
	DB	084H
	DB	08H
	DB	0ffH
	DB	0b8H
	DB	084H
	DB	08H
	DB	0ffH
	DB	0b0H
	DB	084H
	DB	08H
	DB	0ffH
	DB	0b0H
	DB	084H
	DB	08H
	DB	0ffH
	DB	0b8H
	DB	084H
	DB	08H
	DB	0ffH
	DB	0b0H
	DB	084H
	DB	08H
	DB	0ffH
	DB	0b0H
	DB	084H
	DB	08H
	DB	0ffH
	DB	0b8H
	DB	084H
	DB	08H
	DB	0ffH
	DB	0b0H
	DB	084H
	DB	08H
	DB	0ffH
	DB	0b0H
	DB	084H
	DB	08H
	DB	0ffH
	DB	0b8H
	DB	084H
	DB	08H
	DB	0ffH
	DB	0b0H
	DB	084H
	DB	08H
	DB	0ffH
	DB	0b0H
	DB	084H
	DB	08H
	DB	0ffH
	DB	0b8H
	DB	084H
	DB	08H
	DB	0ffH
	DB	0b0H
	DB	084H
	DB	08H
	DB	0ffH
	DB	0b0H
	DB	084H
	DB	08H
	DB	0ffH
	DB	0b8H
	DB	084H
	DB	08H
	DB	0ffH
	DB	0b0H
	DB	084H
	DB	08H
	DB	0ffH
	DB	0b0H
	DB	084H
	DB	08H
	DB	0ffH
	DB	0b8H
	DB	084H
	DB	08H
	DB	0ffH
	DB	0b0H
	DB	084H
	DB	08H
	DB	0ffH
	DB	0b0H
	DB	084H
	DB	08H
	DB	0ffH
	DB	0b8H
	DB	084H
	DB	08H
	DB	0ffH
	DB	0b0H
	DB	084H
	DB	08H
	DB	0ffH
	DB	0b0H
	DB	084H
	DB	08H
	DB	0ffH
	DB	0b8H
	DB	084H
	DB	08H
	DB	0ffH
	DB	0b0H
	DB	084H
	DB	08H
	DB	0ffH
	DB	0b0H
	DB	084H
	DB	08H
	DB	0ffH
	DB	0b8H
	DB	084H
	DB	08H
	DB	0ffH
	DB	00H
	DB	00H
	DB	00H
	DB	024H
	DB	00H
	DB	00H
	DB	00H
	DB	0cH
	DB	00H
	DB	00H
	DB	00H
	DB	0cH
	DB	00H
	DB	00H
	DB	00H
	DB	024H
	DB	0b0H
	DB	084H
	DB	08H
	DB	0ffH
	DB	0b0H
	DB	084H
	DB	08H
	DB	0ffH
	DB	0b0H
	DB	084H
	DB	08H
	DB	0ffH
	DB	0b0H
	DB	084H
	DB	08H
	DB	0ffH
	DB	0b8H
	DB	084H
	DB	08H
	DB	0ffH
	DB	0b0H
	DB	084H
	DB	08H
	DB	0ffH
	DB	0b0H
	DB	084H
	DB	08H
	DB	0ffH
	DB	0b8H
	DB	084H
	DB	08H
	DB	0ffH
	DB	0b0H
	DB	084H
	DB	08H
	DB	0ffH
	DB	0b0H
	DB	084H
	DB	08H
	DB	0ffH
	DB	0b0H
	DB	084H
	DB	08H
	DB	0ffH
	DB	0b0H
	DB	084H
	DB	08H
	DB	0ffH
	DB	0b0H
	DB	084H
	DB	08H
	DB	0ffH
	DB	0b0H
	DB	084H
	DB	08H
	DB	0ffH
	DB	0b0H
	DB	084H
	DB	08H
	DB	0ffH
	DB	0b8H
	DB	084H
	DB	08H
	DB	0ffH
	DB	0b0H
	DB	084H
	DB	08H
	DB	0ffH
	DB	0b0H
	DB	084H
	DB	08H
	DB	0ffH
	DB	0b8H
	DB	084H
	DB	08H
	DB	0ffH
	DB	0b0H
	DB	084H
	DB	08H
	DB	0ffH
	DB	0b0H
	DB	084H
	DB	08H
	DB	0ffH
	DB	0b0H
	DB	084H
	DB	08H
	DB	0ffH
	DB	0b0H
	DB	084H
	DB	08H
	DB	0ffH
	DB	0b0H
	DB	084H
	DB	08H
	DB	0ffH
	DB	0b0H
	DB	084H
	DB	08H
	DB	0ffH
	DB	0b8H
	DB	084H
	DB	08H
	DB	0ffH
	DB	0b0H
	DB	084H
	DB	08H
	DB	0ffH
	DB	0b0H
	DB	084H
	DB	08H
	DB	0ffH
	DB	0b8H
	DB	084H
	DB	08H
	DB	0ffH
	DB	0b0H
	DB	084H
	DB	08H
	DB	0ffH
	DB	0b0H
	DB	084H
	DB	08H
	DB	0ffH
	DB	0b0H
	DB	084H
	DB	08H
	DB	0ffH
	DB	0b0H
	DB	084H
	DB	08H
	DB	0ffH
	DB	0b0H
	DB	084H
	DB	08H
	DB	0ffH
	DB	0b8H
	DB	084H
	DB	08H
	DB	0ffH
	DB	0b0H
	DB	084H
	DB	08H
	DB	0ffH
	DB	0b0H
	DB	084H
	DB	08H
	DB	0ffH
	DB	0b8H
	DB	084H
	DB	08H
	DB	0ffH
	DB	0b0H
	DB	084H
	DB	08H
	DB	0ffH
	DB	0b0H
	DB	084H
	DB	08H
	DB	0ffH
	DB	0b0H
	DB	084H
	DB	08H
	DB	0ffH
	DB	0b0H
	DB	084H
	DB	08H
	DB	0ffH
	DB	0b0H
	DB	084H
	DB	08H
	DB	0ffH
	DB	0b8H
	DB	084H
	DB	08H
	DB	0ffH
	DB	0b0H
	DB	084H
	DB	08H
	DB	0ffH
	DB	0b0H
	DB	084H
	DB	08H
	DB	0ffH
	DB	0b0H
	DB	084H
	DB	08H
	DB	0ffH
	DB	0b0H
	DB	084H
	DB	08H
	DB	0ffH
	DB	0b0H
	DB	084H
	DB	08H
	DB	0ffH
	DB	0b0H
	DB	084H
	DB	08H
	DB	0ffH
	DB	00H
	DB	00H
	DB	00H
	DB	024H
	DB	00H
	DB	00H
	DB	00H
	DB	0cH
	DB	00H
	DB	00H
	DB	00H
	DB	0cH
	DB	00H
	DB	00H
	DB	00H
	DB	024H
	DB	0b0H
	DB	084H
	DB	00H
	DB	0ffH
	DB	0b0H
	DB	084H
	DB	08H
	DB	0ffH
	DB	0b0H
	DB	084H
	DB	00H
	DB	0ffH
	DB	0b0H
	DB	084H
	DB	00H
	DB	0ffH
	DB	0b0H
	DB	084H
	DB	08H
	DB	0ffH
	DB	0b0H
	DB	084H
	DB	00H
	DB	0ffH
	DB	0b0H
	DB	084H
	DB	00H
	DB	0ffH
	DB	0b0H
	DB	084H
	DB	08H
	DB	0ffH
	DB	0b0H
	DB	084H
	DB	00H
	DB	0ffH
	DB	0b0H
	DB	084H
	DB	00H
	DB	0ffH
	DB	0b0H
	DB	084H
	DB	08H
	DB	0ffH
	DB	0b0H
	DB	084H
	DB	00H
	DB	0ffH
	DB	0b0H
	DB	084H
	DB	00H
	DB	0ffH
	DB	0b0H
	DB	084H
	DB	08H
	DB	0ffH
	DB	0b0H
	DB	084H
	DB	00H
	DB	0ffH
	DB	0b0H
	DB	084H
	DB	00H
	DB	0ffH
	DB	0b0H
	DB	084H
	DB	08H
	DB	0ffH
	DB	0b0H
	DB	084H
	DB	00H
	DB	0ffH
	DB	0b0H
	DB	084H
	DB	00H
	DB	0ffH
	DB	0b0H
	DB	084H
	DB	08H
	DB	0ffH
	DB	0b0H
	DB	084H
	DB	00H
	DB	0ffH
	DB	0b0H
	DB	084H
	DB	00H
	DB	0ffH
	DB	0b0H
	DB	084H
	DB	08H
	DB	0ffH
	DB	0b0H
	DB	084H
	DB	00H
	DB	0ffH
	DB	0b0H
	DB	084H
	DB	00H
	DB	0ffH
	DB	0b0H
	DB	084H
	DB	08H
	DB	0ffH
	DB	0b0H
	DB	084H
	DB	00H
	DB	0ffH
	DB	0b0H
	DB	084H
	DB	00H
	DB	0ffH
	DB	0b0H
	DB	084H
	DB	08H
	DB	0ffH
	DB	0b0H
	DB	084H
	DB	00H
	DB	0ffH
	DB	0b0H
	DB	084H
	DB	00H
	DB	0ffH
	DB	0b0H
	DB	084H
	DB	08H
	DB	0ffH
	DB	0b0H
	DB	084H
	DB	00H
	DB	0ffH
	DB	0b0H
	DB	084H
	DB	08H
	DB	0ffH
	DB	0b0H
	DB	084H
	DB	00H
	DB	0ffH
	DB	0b0H
	DB	084H
	DB	00H
	DB	0ffH
	DB	0b0H
	DB	084H
	DB	08H
	DB	0ffH
	DB	0b0H
	DB	084H
	DB	00H
	DB	0ffH
	DB	0b0H
	DB	084H
	DB	00H
	DB	0ffH
	DB	0b0H
	DB	084H
	DB	08H
	DB	0ffH
	DB	0b0H
	DB	084H
	DB	00H
	DB	0ffH
	DB	0b0H
	DB	084H
	DB	00H
	DB	0ffH
	DB	0b0H
	DB	084H
	DB	08H
	DB	0ffH
	DB	0b0H
	DB	084H
	DB	00H
	DB	0ffH
	DB	0b0H
	DB	084H
	DB	00H
	DB	0ffH
	DB	0b0H
	DB	084H
	DB	08H
	DB	0ffH
	DB	0b0H
	DB	084H
	DB	00H
	DB	0ffH
	DB	0b0H
	DB	084H
	DB	00H
	DB	0ffH
	DB	0b0H
	DB	084H
	DB	08H
	DB	0ffH
	DB	0b0H
	DB	084H
	DB	00H
	DB	0ffH
	DB	00H
	DB	00H
	DB	00H
	DB	024H
	DB	00H
	DB	00H
	DB	00H
	DB	0cH
	DB	00H
	DB	00H
	DB	00H
	DB	0cH
	DB	00H
	DB	00H
	DB	00H
	DB	024H
	DB	0b0H
	DB	080H
	DB	00H
	DB	0ffH
	DB	0b0H
	DB	084H
	DB	08H
	DB	0ffH
	DB	0b0H
	DB	084H
	DB	00H
	DB	0ffH
	DB	0b0H
	DB	080H
	DB	00H
	DB	0ffH
	DB	0b0H
	DB	084H
	DB	08H
	DB	0ffH
	DB	0b0H
	DB	084H
	DB	00H
	DB	0ffH
	DB	0b0H
	DB	080H
	DB	00H
	DB	0ffH
	DB	0b0H
	DB	084H
	DB	08H
	DB	0ffH
	DB	0b0H
	DB	084H
	DB	00H
	DB	0ffH
	DB	0b0H
	DB	080H
	DB	00H
	DB	0ffH
	DB	0b0H
	DB	084H
	DB	08H
	DB	0ffH
	DB	0b0H
	DB	084H
	DB	00H
	DB	0ffH
	DB	0b0H
	DB	080H
	DB	00H
	DB	0ffH
	DB	0b0H
	DB	084H
	DB	08H
	DB	0ffH
	DB	0b0H
	DB	084H
	DB	00H
	DB	0ffH
	DB	0b0H
	DB	080H
	DB	00H
	DB	0ffH
	DB	0b0H
	DB	084H
	DB	08H
	DB	0ffH
	DB	0b0H
	DB	084H
	DB	00H
	DB	0ffH
	DB	0b0H
	DB	080H
	DB	00H
	DB	0ffH
	DB	0b0H
	DB	084H
	DB	08H
	DB	0ffH
	DB	0b0H
	DB	084H
	DB	00H
	DB	0ffH
	DB	0b0H
	DB	080H
	DB	08H
	DB	0ffH
	DB	0b0H
	DB	084H
	DB	00H
	DB	0ffH
	DB	0b0H
	DB	084H
	DB	08H
	DB	0ffH
	DB	0b0H
	DB	080H
	DB	00H
	DB	0ffH
	DB	0b0H
	DB	084H
	DB	08H
	DB	0ffH
	DB	0b0H
	DB	084H
	DB	00H
	DB	0ffH
	DB	0b0H
	DB	080H
	DB	00H
	DB	0ffH
	DB	0b0H
	DB	084H
	DB	08H
	DB	0ffH
	DB	0b0H
	DB	084H
	DB	00H
	DB	0ffH
	DB	0b0H
	DB	080H
	DB	08H
	DB	0ffH
	DB	0b0H
	DB	084H
	DB	00H
	DB	0ffH
	DB	0b0H
	DB	084H
	DB	00H
	DB	0ffH
	DB	0b0H
	DB	080H
	DB	08H
	DB	0ffH
	DB	0b0H
	DB	084H
	DB	00H
	DB	0ffH
	DB	0b0H
	DB	084H
	DB	08H
	DB	0ffH
	DB	0b0H
	DB	080H
	DB	00H
	DB	0ffH
	DB	0b0H
	DB	084H
	DB	00H
	DB	0ffH
	DB	0b0H
	DB	084H
	DB	08H
	DB	0ffH
	DB	0b0H
	DB	080H
	DB	00H
	DB	0ffH
	DB	0b0H
	DB	084H
	DB	00H
	DB	0ffH
	DB	0b0H
	DB	084H
	DB	08H
	DB	0ffH
	DB	0b0H
	DB	080H
	DB	00H
	DB	0ffH
	DB	0b0H
	DB	084H
	DB	00H
	DB	0ffH
	DB	0b0H
	DB	084H
	DB	08H
	DB	0ffH
	DB	0b0H
	DB	080H
	DB	00H
	DB	0ffH
	DB	0b0H
	DB	084H
	DB	00H
	DB	0ffH
	DB	0b0H
	DB	084H
	DB	08H
	DB	0ffH
	DB	0b0H
	DB	080H
	DB	00H
	DB	0ffH
	DB	0b0H
	DB	084H
	DB	08H
	DB	0ffH
	DB	00H
	DB	00H
	DB	00H
	DB	024H
	DB	00H
	DB	00H
	DB	00H
	DB	0cH
	DB	00H
	DB	00H
	DB	00H
	DB	0cH
	DB	00H
	DB	00H
	DB	00H
	DB	024H
	DB	0b0H
	DB	080H
	DB	08H
	DB	0ffH
	DB	0b0H
	DB	084H
	DB	08H
	DB	0ffH
	DB	0b0H
	DB	080H
	DB	00H
	DB	0ffH
	DB	0b0H
	DB	080H
	DB	08H
	DB	0ffH
	DB	0b0H
	DB	084H
	DB	08H
	DB	0ffH
	DB	0b0H
	DB	080H
	DB	08H
	DB	0ffH
	DB	0b0H
	DB	080H
	DB	00H
	DB	0ffH
	DB	0b0H
	DB	084H
	DB	08H
	DB	0ffH
	DB	0b0H
	DB	080H
	DB	08H
	DB	0ffH
	DB	0b0H
	DB	080H
	DB	08H
	DB	0ffH
	DB	0b0H
	DB	084H
	DB	08H
	DB	0ffH
	DB	0b0H
	DB	080H
	DB	00H
	DB	0ffH
	DB	0b0H
	DB	080H
	DB	08H
	DB	0ffH
	DB	0b0H
	DB	084H
	DB	08H
	DB	0ffH
	DB	0b0H
	DB	080H
	DB	00H
	DB	0ffH
	DB	0b0H
	DB	080H
	DB	08H
	DB	0ffH
	DB	0b0H
	DB	084H
	DB	08H
	DB	0ffH
	DB	0b0H
	DB	080H
	DB	08H
	DB	0ffH
	DB	0b0H
	DB	080H
	DB	08H
	DB	0ffH
	DB	0b0H
	DB	084H
	DB	00H
	DB	0ffH
	DB	0b0H
	DB	080H
	DB	08H
	DB	0ffH
	DB	0b0H
	DB	080H
	DB	08H
	DB	0ffH
	DB	0b0H
	DB	084H
	DB	00H
	DB	0ffH
	DB	0b0H
	DB	080H
	DB	08H
	DB	0ffH
	DB	0b0H
	DB	080H
	DB	08H
	DB	0ffH
	DB	0b0H
	DB	084H
	DB	00H
	DB	0ffH
	DB	0b0H
	DB	080H
	DB	08H
	DB	0ffH
	DB	0b0H
	DB	080H
	DB	08H
	DB	0ffH
	DB	0b0H
	DB	084H
	DB	00H
	DB	0ffH
	DB	0b0H
	DB	080H
	DB	08H
	DB	0ffH
	DB	0b0H
	DB	080H
	DB	08H
	DB	0ffH
	DB	0b0H
	DB	084H
	DB	00H
	DB	0ffH
	DB	0b0H
	DB	080H
	DB	08H
	DB	0ffH
	DB	0b0H
	DB	080H
	DB	08H
	DB	0ffH
	DB	0b0H
	DB	084H
	DB	00H
	DB	0ffH
	DB	0b0H
	DB	080H
	DB	08H
	DB	0ffH
	DB	0b0H
	DB	080H
	DB	08H
	DB	0ffH
	DB	0b0H
	DB	084H
	DB	08H
	DB	0ffH
	DB	0b0H
	DB	080H
	DB	08H
	DB	0ffH
	DB	0b0H
	DB	080H
	DB	00H
	DB	0ffH
	DB	0b0H
	DB	084H
	DB	08H
	DB	0ffH
	DB	0b0H
	DB	080H
	DB	08H
	DB	0ffH
	DB	0b0H
	DB	080H
	DB	00H
	DB	0ffH
	DB	0b0H
	DB	084H
	DB	08H
	DB	0ffH
	DB	0b0H
	DB	080H
	DB	08H
	DB	0ffH
	DB	0b0H
	DB	080H
	DB	08H
	DB	0ffH
	DB	0b0H
	DB	084H
	DB	08H
	DB	0ffH
	DB	0b0H
	DB	080H
	DB	00H
	DB	0ffH
	DB	0b0H
	DB	080H
	DB	08H
	DB	0ffH
	DB	0b0H
	DB	084H
	DB	00H
	DB	0ffH
	DB	00H
	DB	00H
	DB	00H
	DB	024H
	DB	00H
	DB	00H
	DB	00H
	DB	0cH
	DB	00H
	DB	00H
	DB	00H
	DB	0cH
	DB	00H
	DB	00H
	DB	00H
	DB	024H
	DB	0b0H
	DB	080H
	DB	00H
	DB	0ffH
	DB	0b0H
	DB	080H
	DB	00H
	DB	0ffH
	DB	0b0H
	DB	080H
	DB	00H
	DB	0ffH
	DB	0b0H
	DB	080H
	DB	00H
	DB	0ffH
	DB	0b0H
	DB	080H
	DB	00H
	DB	0ffH
	DB	0b0H
	DB	080H
	DB	00H
	DB	0ffH
	DB	0b0H
	DB	080H
	DB	00H
	DB	0ffH
	DB	0b0H
	DB	080H
	DB	00H
	DB	0ffH
	DB	0b0H
	DB	080H
	DB	00H
	DB	0ffH
	DB	0b0H
	DB	080H
	DB	00H
	DB	0ffH
	DB	0b0H
	DB	080H
	DB	00H
	DB	0ffH
	DB	0b0H
	DB	080H
	DB	00H
	DB	0ffH
	DB	0b0H
	DB	080H
	DB	00H
	DB	0ffH
	DB	0b0H
	DB	080H
	DB	00H
	DB	0ffH
	DB	0b0H
	DB	080H
	DB	00H
	DB	0ffH
	DB	0b0H
	DB	080H
	DB	00H
	DB	0ffH
	DB	0b0H
	DB	080H
	DB	00H
	DB	0ffH
	DB	0b0H
	DB	080H
	DB	00H
	DB	0ffH
	DB	0b0H
	DB	080H
	DB	00H
	DB	0ffH
	DB	0b0H
	DB	080H
	DB	00H
	DB	0ffH
	DB	0b0H
	DB	080H
	DB	00H
	DB	0ffH
	DB	0b0H
	DB	080H
	DB	00H
	DB	0ffH
	DB	0b0H
	DB	080H
	DB	00H
	DB	0ffH
	DB	0b0H
	DB	080H
	DB	00H
	DB	0ffH
	DB	0b0H
	DB	080H
	DB	00H
	DB	0ffH
	DB	0b0H
	DB	080H
	DB	00H
	DB	0ffH
	DB	0b0H
	DB	080H
	DB	00H
	DB	0ffH
	DB	0b0H
	DB	080H
	DB	00H
	DB	0ffH
	DB	0b0H
	DB	080H
	DB	00H
	DB	0ffH
	DB	0b0H
	DB	080H
	DB	00H
	DB	0ffH
	DB	0b0H
	DB	080H
	DB	00H
	DB	0ffH
	DB	0b0H
	DB	080H
	DB	00H
	DB	0ffH
	DB	0b0H
	DB	080H
	DB	00H
	DB	0ffH
	DB	0b0H
	DB	080H
	DB	00H
	DB	0ffH
	DB	0b0H
	DB	080H
	DB	00H
	DB	0ffH
	DB	0b0H
	DB	080H
	DB	00H
	DB	0ffH
	DB	0b0H
	DB	080H
	DB	00H
	DB	0ffH
	DB	0b0H
	DB	080H
	DB	00H
	DB	0ffH
	DB	0b0H
	DB	080H
	DB	00H
	DB	0ffH
	DB	0b0H
	DB	080H
	DB	00H
	DB	0ffH
	DB	0b0H
	DB	080H
	DB	00H
	DB	0ffH
	DB	0b0H
	DB	080H
	DB	00H
	DB	0ffH
	DB	0b0H
	DB	080H
	DB	00H
	DB	0ffH
	DB	0b0H
	DB	080H
	DB	00H
	DB	0ffH
	DB	0b0H
	DB	080H
	DB	00H
	DB	0ffH
	DB	0b0H
	DB	080H
	DB	00H
	DB	0ffH
	DB	0b0H
	DB	080H
	DB	00H
	DB	0ffH
	DB	0b0H
	DB	080H
	DB	00H
	DB	0ffH
	DB	0b0H
	DB	080H
	DB	00H
	DB	0ffH
	DB	0b0H
	DB	080H
	DB	08H
	DB	0ffH
	DB	00H
	DB	00H
	DB	00H
	DB	024H
	DB	00H
	DB	00H
	DB	00H
	DB	0cH
	DB	00H
	DB	00H
	DB	00H
	DB	0cH
	DB	00H
	DB	00H
	DB	00H
	DB	024H
	DB	0b0H
	DB	080H
	DB	00H
	DB	0ffH
	DB	0b0H
	DB	080H
	DB	00H
	DB	0ffH
	DB	0a8H
	DB	080H
	DB	00H
	DB	0ffH
	DB	0b0H
	DB	080H
	DB	08H
	DB	0ffH
	DB	0b0H
	DB	080H
	DB	00H
	DB	0ffH
	DB	0a8H
	DB	080H
	DB	00H
	DB	0ffH
	DB	0b0H
	DB	080H
	DB	08H
	DB	0ffH
	DB	0b0H
	DB	080H
	DB	00H
	DB	0ffH
	DB	0a8H
	DB	080H
	DB	00H
	DB	0ffH
	DB	0b0H
	DB	080H
	DB	00H
	DB	0ffH
	DB	0b0H
	DB	080H
	DB	00H
	DB	0ffH
	DB	0b0H
	DB	080H
	DB	08H
	DB	0ffH
	DB	0b0H
	DB	080H
	DB	00H
	DB	0ffH
	DB	0b0H
	DB	080H
	DB	00H
	DB	0ffH
	DB	0b0H
	DB	080H
	DB	08H
	DB	0ffH
	DB	0a8H
	DB	080H
	DB	00H
	DB	0ffH
	DB	0b0H
	DB	080H
	DB	00H
	DB	0ffH
	DB	0b0H
	DB	080H
	DB	00H
	DB	0ffH
	DB	0a8H
	DB	080H
	DB	00H
	DB	0ffH
	DB	0b0H
	DB	080H
	DB	08H
	DB	0ffH
	DB	0b0H
	DB	080H
	DB	00H
	DB	0ffH
	DB	0b0H
	DB	080H
	DB	00H
	DB	0ffH
	DB	0b0H
	DB	080H
	DB	08H
	DB	0ffH
	DB	0b0H
	DB	080H
	DB	00H
	DB	0ffH
	DB	0b0H
	DB	080H
	DB	00H
	DB	0ffH
	DB	0a8H
	DB	080H
	DB	08H
	DB	0ffH
	DB	0b0H
	DB	080H
	DB	00H
	DB	0ffH
	DB	0b0H
	DB	080H
	DB	00H
	DB	0ffH
	DB	0a8H
	DB	080H
	DB	08H
	DB	0ffH
	DB	0b0H
	DB	080H
	DB	00H
	DB	0ffH
	DB	0b0H
	DB	080H
	DB	00H
	DB	0ffH
	DB	0a8H
	DB	080H
	DB	08H
	DB	0ffH
	DB	0b0H
	DB	080H
	DB	00H
	DB	0ffH
	DB	0b0H
	DB	080H
	DB	00H
	DB	0ffH
	DB	0a8H
	DB	080H
	DB	08H
	DB	0ffH
	DB	0b0H
	DB	080H
	DB	00H
	DB	0ffH
	DB	0b0H
	DB	080H
	DB	00H
	DB	0ffH
	DB	0a8H
	DB	080H
	DB	00H
	DB	0ffH
	DB	0b0H
	DB	080H
	DB	00H
	DB	0ffH
	DB	0b0H
	DB	080H
	DB	08H
	DB	0ffH
	DB	0b0H
	DB	080H
	DB	00H
	DB	0ffH
	DB	0b0H
	DB	080H
	DB	00H
	DB	0ffH
	DB	0b0H
	DB	080H
	DB	08H
	DB	0ffH
	DB	0b0H
	DB	080H
	DB	00H
	DB	0ffH
	DB	0b0H
	DB	080H
	DB	00H
	DB	0ffH
	DB	0b0H
	DB	080H
	DB	00H
	DB	0ffH
	DB	0b0H
	DB	080H
	DB	00H
	DB	0ffH
	DB	0b0H
	DB	080H
	DB	00H
	DB	0ffH
	DB	0b0H
	DB	080H
	DB	00H
	DB	0ffH
	DB	0b0H
	DB	080H
	DB	00H
	DB	0ffH
	DB	00H
	DB	00H
	DB	00H
	DB	024H
	DB	00H
	DB	00H
	DB	00H
	DB	0cH
	DB	00H
	DB	00H
	DB	00H
	DB	0cH
	DB	00H
	DB	00H
	DB	00H
	DB	024H
	DB	0a8H
	DB	080H
	DB	00H
	DB	0ffH
	DB	0a8H
	DB	080H
	DB	08H
	DB	0ffH
	DB	0a8H
	DB	080H
	DB	00H
	DB	0ffH
	DB	0b0H
	DB	080H
	DB	00H
	DB	0ffH
	DB	0a8H
	DB	080H
	DB	08H
	DB	0ffH
	DB	0a8H
	DB	080H
	DB	00H
	DB	0ffH
	DB	0b0H
	DB	080H
	DB	00H
	DB	0ffH
	DB	0a8H
	DB	080H
	DB	08H
	DB	0ffH
	DB	0a8H
	DB	080H
	DB	00H
	DB	0ffH
	DB	0a8H
	DB	080H
	DB	08H
	DB	0ffH
	DB	0a8H
	DB	080H
	DB	00H
	DB	0ffH
	DB	0a8H
	DB	080H
	DB	00H
	DB	0ffH
	DB	0a8H
	DB	080H
	DB	08H
	DB	0ffH
	DB	0a8H
	DB	080H
	DB	00H
	DB	0ffH
	DB	0a8H
	DB	080H
	DB	00H
	DB	0ffH
	DB	0b0H
	DB	080H
	DB	08H
	DB	0ffH
	DB	0a8H
	DB	080H
	DB	00H
	DB	0ffH
	DB	0a8H
	DB	080H
	DB	08H
	DB	0ffH
	DB	0b0H
	DB	080H
	DB	00H
	DB	0ffH
	DB	0a8H
	DB	080H
	DB	00H
	DB	0ffH
	DB	0a8H
	DB	080H
	DB	08H
	DB	0ffH
	DB	0a8H
	DB	080H
	DB	00H
	DB	0ffH
	DB	0a8H
	DB	080H
	DB	00H
	DB	0ffH
	DB	0a8H
	DB	080H
	DB	08H
	DB	0ffH
	DB	0a8H
	DB	080H
	DB	00H
	DB	0ffH
	DB	0a8H
	DB	080H
	DB	00H
	DB	0ffH
	DB	0b0H
	DB	080H
	DB	08H
	DB	0ffH
	DB	0a8H
	DB	080H
	DB	00H
	DB	0ffH
	DB	0a8H
	DB	080H
	DB	00H
	DB	0ffH
	DB	0b0H
	DB	080H
	DB	08H
	DB	0ffH
	DB	0a8H
	DB	080H
	DB	00H
	DB	0ffH
	DB	0a8H
	DB	080H
	DB	00H
	DB	0ffH
	DB	0b0H
	DB	080H
	DB	08H
	DB	0ffH
	DB	0a8H
	DB	080H
	DB	00H
	DB	0ffH
	DB	0a8H
	DB	080H
	DB	00H
	DB	0ffH
	DB	0b0H
	DB	080H
	DB	08H
	DB	0ffH
	DB	0a8H
	DB	080H
	DB	00H
	DB	0ffH
	DB	0a8H
	DB	080H
	DB	08H
	DB	0ffH
	DB	0a8H
	DB	080H
	DB	00H
	DB	0ffH
	DB	0a8H
	DB	080H
	DB	00H
	DB	0ffH
	DB	0a8H
	DB	080H
	DB	08H
	DB	0ffH
	DB	0a8H
	DB	080H
	DB	00H
	DB	0ffH
	DB	0a8H
	DB	080H
	DB	00H
	DB	0ffH
	DB	0a8H
	DB	080H
	DB	08H
	DB	0ffH
	DB	0a8H
	DB	080H
	DB	00H
	DB	0ffH
	DB	0a8H
	DB	080H
	DB	08H
	DB	0ffH
	DB	0a8H
	DB	080H
	DB	08H
	DB	0ffH
	DB	0a8H
	DB	080H
	DB	00H
	DB	0ffH
	DB	0a8H
	DB	080H
	DB	08H
	DB	0ffH
	DB	0a8H
	DB	080H
	DB	00H
	DB	0ffH
	DB	00H
	DB	00H
	DB	00H
	DB	024H
	DB	00H
	DB	00H
	DB	00H
	DB	0cH
	DB	00H
	DB	00H
	DB	00H
	DB	0cH
	DB	00H
	DB	00H
	DB	00H
	DB	024H
	DB	0b0H
	DB	080H
	DB	00H
	DB	0ffH
	DB	0a8H
	DB	080H
	DB	00H
	DB	0ffH
	DB	0b0H
	DB	080H
	DB	00H
	DB	0ffH
	DB	0b0H
	DB	080H
	DB	00H
	DB	0ffH
	DB	0a8H
	DB	080H
	DB	00H
	DB	0ffH
	DB	0b0H
	DB	080H
	DB	00H
	DB	0ffH
	DB	0b0H
	DB	080H
	DB	00H
	DB	0ffH
	DB	0a8H
	DB	080H
	DB	00H
	DB	0ffH
	DB	0b0H
	DB	080H
	DB	00H
	DB	0ffH
	DB	0b0H
	DB	080H
	DB	00H
	DB	0ffH
	DB	0b0H
	DB	080H
	DB	00H
	DB	0ffH
	DB	0a8H
	DB	080H
	DB	00H
	DB	0ffH
	DB	0b0H
	DB	080H
	DB	00H
	DB	0ffH
	DB	0b0H
	DB	080H
	DB	00H
	DB	0ffH
	DB	0a8H
	DB	080H
	DB	00H
	DB	0ffH
	DB	0b0H
	DB	080H
	DB	00H
	DB	0ffH
	DB	0a8H
	DB	080H
	DB	00H
	DB	0ffH
	DB	0b0H
	DB	080H
	DB	00H
	DB	0ffH
	DB	0b0H
	DB	080H
	DB	00H
	DB	0ffH
	DB	0a8H
	DB	080H
	DB	00H
	DB	0ffH
	DB	0b0H
	DB	080H
	DB	00H
	DB	0ffH
	DB	0b0H
	DB	080H
	DB	00H
	DB	0ffH
	DB	0a8H
	DB	080H
	DB	00H
	DB	0ffH
	DB	0b0H
	DB	080H
	DB	00H
	DB	0ffH
	DB	0b0H
	DB	080H
	DB	00H
	DB	0ffH
	DB	0a8H
	DB	080H
	DB	00H
	DB	0ffH
	DB	0b0H
	DB	080H
	DB	00H
	DB	0ffH
	DB	0a8H
	DB	080H
	DB	00H
	DB	0ffH
	DB	0b0H
	DB	080H
	DB	00H
	DB	0ffH
	DB	0b0H
	DB	080H
	DB	00H
	DB	0ffH
	DB	0a8H
	DB	080H
	DB	00H
	DB	0ffH
	DB	0b0H
	DB	080H
	DB	00H
	DB	0ffH
	DB	0b0H
	DB	080H
	DB	00H
	DB	0ffH
	DB	0a8H
	DB	080H
	DB	00H
	DB	0ffH
	DB	0b0H
	DB	080H
	DB	00H
	DB	0ffH
	DB	0b0H
	DB	080H
	DB	00H
	DB	0ffH
	DB	0a8H
	DB	080H
	DB	00H
	DB	0ffH
	DB	0b0H
	DB	080H
	DB	00H
	DB	0ffH
	DB	0b0H
	DB	080H
	DB	00H
	DB	0ffH
	DB	0b0H
	DB	080H
	DB	00H
	DB	0ffH
	DB	0a8H
	DB	080H
	DB	00H
	DB	0ffH
	DB	0b0H
	DB	080H
	DB	00H
	DB	0ffH
	DB	0b0H
	DB	080H
	DB	00H
	DB	0ffH
	DB	0a8H
	DB	080H
	DB	00H
	DB	0ffH
	DB	0b0H
	DB	080H
	DB	00H
	DB	0ffH
	DB	0b0H
	DB	080H
	DB	00H
	DB	0ffH
	DB	0a8H
	DB	080H
	DB	00H
	DB	0ffH
	DB	0b0H
	DB	080H
	DB	00H
	DB	0ffH
	DB	0b0H
	DB	080H
	DB	00H
	DB	0ffH
	DB	0a8H
	DB	080H
	DB	00H
	DB	0ffH
	DB	00H
	DB	00H
	DB	00H
	DB	024H
	DB	00H
	DB	00H
	DB	00H
	DB	0cH
	DB	00H
	DB	00H
	DB	00H
	DB	0cH
	DB	00H
	DB	00H
	DB	00H
	DB	024H
	DB	090H
	DB	068H
	DB	00H
	DB	0ffH
	DB	088H
	DB	068H
	DB	00H
	DB	0ffH
	DB	090H
	DB	064H
	DB	00H
	DB	0ffH
	DB	088H
	DB	068H
	DB	00H
	DB	0ffH
	DB	088H
	DB	068H
	DB	00H
	DB	0ffH
	DB	090H
	DB	064H
	DB	00H
	DB	0ffH
	DB	088H
	DB	068H
	DB	00H
	DB	0ffH
	DB	088H
	DB	068H
	DB	00H
	DB	0ffH
	DB	090H
	DB	068H
	DB	00H
	DB	0ffH
	DB	090H
	DB	068H
	DB	00H
	DB	0ffH
	DB	088H
	DB	068H
	DB	00H
	DB	0ffH
	DB	090H
	DB	064H
	DB	00H
	DB	0ffH
	DB	090H
	DB	068H
	DB	00H
	DB	0ffH
	DB	088H
	DB	068H
	DB	00H
	DB	0ffH
	DB	090H
	DB	068H
	DB	00H
	DB	0ffH
	DB	088H
	DB	068H
	DB	00H
	DB	0ffH
	DB	090H
	DB	068H
	DB	00H
	DB	0ffH
	DB	088H
	DB	068H
	DB	00H
	DB	0ffH
	DB	088H
	DB	068H
	DB	00H
	DB	0ffH
	DB	090H
	DB	068H
	DB	00H
	DB	0ffH
	DB	088H
	DB	068H
	DB	00H
	DB	0ffH
	DB	090H
	DB	068H
	DB	00H
	DB	0ffH
	DB	088H
	DB	068H
	DB	00H
	DB	0ffH
	DB	090H
	DB	068H
	DB	00H
	DB	0ffH
	DB	090H
	DB	068H
	DB	00H
	DB	0ffH
	DB	088H
	DB	068H
	DB	00H
	DB	0ffH
	DB	090H
	DB	068H
	DB	00H
	DB	0ffH
	DB	088H
	DB	068H
	DB	00H
	DB	0ffH
	DB	088H
	DB	068H
	DB	00H
	DB	0ffH
	DB	090H
	DB	068H
	DB	00H
	DB	0ffH
	DB	088H
	DB	068H
	DB	00H
	DB	0ffH
	DB	088H
	DB	068H
	DB	00H
	DB	0ffH
	DB	090H
	DB	068H
	DB	00H
	DB	0ffH
	DB	088H
	DB	068H
	DB	00H
	DB	0ffH
	DB	088H
	DB	068H
	DB	00H
	DB	0ffH
	DB	090H
	DB	068H
	DB	00H
	DB	0ffH
	DB	088H
	DB	068H
	DB	00H
	DB	0ffH
	DB	090H
	DB	068H
	DB	00H
	DB	0ffH
	DB	090H
	DB	068H
	DB	00H
	DB	0ffH
	DB	088H
	DB	068H
	DB	00H
	DB	0ffH
	DB	090H
	DB	068H
	DB	00H
	DB	0ffH
	DB	088H
	DB	068H
	DB	00H
	DB	0ffH
	DB	090H
	DB	068H
	DB	00H
	DB	0ffH
	DB	088H
	DB	068H
	DB	00H
	DB	0ffH
	DB	090H
	DB	068H
	DB	00H
	DB	0ffH
	DB	090H
	DB	068H
	DB	00H
	DB	0ffH
	DB	088H
	DB	068H
	DB	00H
	DB	0ffH
	DB	090H
	DB	064H
	DB	00H
	DB	0ffH
	DB	090H
	DB	068H
	DB	00H
	DB	0ffH
	DB	088H
	DB	068H
	DB	00H
	DB	0ffH
	DB	00H
	DB	00H
	DB	00H
	DB	024H
	DB	00H
	DB	00H
	DB	00H
	DB	0cH
	DB	00H
	DB	00H
	DB	00H
	DB	08H
	DB	00H
	DB	00H
	DB	00H
	DB	020H
	DB	088H
	DB	064H
	DB	00H
	DB	0ffH
	DB	088H
	DB	064H
	DB	00H
	DB	0ffH
	DB	088H
	DB	064H
	DB	00H
	DB	0ffH
	DB	088H
	DB	064H
	DB	00H
	DB	0ffH
	DB	090H
	DB	064H
	DB	00H
	DB	0ffH
	DB	088H
	DB	064H
	DB	00H
	DB	0ffH
	DB	088H
	DB	064H
	DB	00H
	DB	0ffH
	DB	088H
	DB	064H
	DB	00H
	DB	0ffH
	DB	088H
	DB	064H
	DB	00H
	DB	0ffH
	DB	088H
	DB	064H
	DB	00H
	DB	0ffH
	DB	088H
	DB	064H
	DB	00H
	DB	0ffH
	DB	088H
	DB	064H
	DB	00H
	DB	0ffH
	DB	088H
	DB	064H
	DB	00H
	DB	0ffH
	DB	088H
	DB	064H
	DB	00H
	DB	0ffH
	DB	088H
	DB	064H
	DB	00H
	DB	0ffH
	DB	088H
	DB	064H
	DB	00H
	DB	0ffH
	DB	090H
	DB	064H
	DB	00H
	DB	0ffH
	DB	088H
	DB	064H
	DB	00H
	DB	0ffH
	DB	088H
	DB	064H
	DB	00H
	DB	0ffH
	DB	088H
	DB	064H
	DB	00H
	DB	0ffH
	DB	088H
	DB	064H
	DB	00H
	DB	0ffH
	DB	088H
	DB	064H
	DB	00H
	DB	0ffH
	DB	088H
	DB	064H
	DB	00H
	DB	0ffH
	DB	088H
	DB	064H
	DB	00H
	DB	0ffH
	DB	088H
	DB	064H
	DB	00H
	DB	0ffH
	DB	088H
	DB	064H
	DB	00H
	DB	0ffH
	DB	090H
	DB	064H
	DB	00H
	DB	0ffH
	DB	088H
	DB	064H
	DB	00H
	DB	0ffH
	DB	088H
	DB	064H
	DB	00H
	DB	0ffH
	DB	090H
	DB	064H
	DB	00H
	DB	0ffH
	DB	088H
	DB	064H
	DB	00H
	DB	0ffH
	DB	088H
	DB	064H
	DB	00H
	DB	0ffH
	DB	088H
	DB	064H
	DB	00H
	DB	0ffH
	DB	090H
	DB	064H
	DB	00H
	DB	0ffH
	DB	088H
	DB	064H
	DB	00H
	DB	0ffH
	DB	088H
	DB	064H
	DB	00H
	DB	0ffH
	DB	088H
	DB	064H
	DB	00H
	DB	0ffH
	DB	088H
	DB	064H
	DB	00H
	DB	0ffH
	DB	088H
	DB	064H
	DB	00H
	DB	0ffH
	DB	088H
	DB	064H
	DB	00H
	DB	0ffH
	DB	088H
	DB	064H
	DB	00H
	DB	0ffH
	DB	088H
	DB	064H
	DB	00H
	DB	0ffH
	DB	088H
	DB	064H
	DB	00H
	DB	0ffH
	DB	088H
	DB	064H
	DB	00H
	DB	0ffH
	DB	088H
	DB	064H
	DB	00H
	DB	0ffH
	DB	088H
	DB	064H
	DB	00H
	DB	0ffH
	DB	088H
	DB	064H
	DB	00H
	DB	0ffH
	DB	088H
	DB	064H
	DB	00H
	DB	0ffH
	DB	088H
	DB	064H
	DB	00H
	DB	0ffH
	DB	088H
	DB	064H
	DB	00H
	DB	0ffH
	DB	00H
	DB	00H
	DB	00H
	DB	020H
	DB	00H
	DB	00H
	DB	00H
	DB	08H
	DB	00H
	DB	00H
	DB	00H
	DB	08H
	DB	00H
	DB	00H
	DB	00H
	DB	018H
	DB	00H
	DB	00H
	DB	00H
	DB	030H
	DB	00H
	DB	00H
	DB	00H
	DB	041H
	DB	00H
	DB	00H
	DB	00H
	DB	045H
	DB	00H
	DB	00H
	DB	00H
	DB	045H
	DB	00H
	DB	00H
	DB	00H
	DB	049H
	DB	00H
	DB	00H
	DB	00H
	DB	045H
	DB	00H
	DB	00H
	DB	00H
	DB	045H
	DB	00H
	DB	00H
	DB	00H
	DB	049H
	DB	00H
	DB	00H
	DB	00H
	DB	045H
	DB	00H
	DB	00H
	DB	00H
	DB	045H
	DB	00H
	DB	00H
	DB	00H
	DB	049H
	DB	00H
	DB	00H
	DB	00H
	DB	045H
	DB	00H
	DB	00H
	DB	00H
	DB	045H
	DB	00H
	DB	00H
	DB	00H
	DB	049H
	DB	00H
	DB	00H
	DB	00H
	DB	045H
	DB	00H
	DB	00H
	DB	00H
	DB	045H
	DB	00H
	DB	00H
	DB	00H
	DB	049H
	DB	00H
	DB	00H
	DB	00H
	DB	045H
	DB	00H
	DB	00H
	DB	00H
	DB	045H
	DB	00H
	DB	00H
	DB	00H
	DB	049H
	DB	00H
	DB	00H
	DB	00H
	DB	045H
	DB	00H
	DB	00H
	DB	00H
	DB	045H
	DB	00H
	DB	00H
	DB	00H
	DB	049H
	DB	00H
	DB	00H
	DB	00H
	DB	045H
	DB	00H
	DB	00H
	DB	00H
	DB	045H
	DB	00H
	DB	00H
	DB	00H
	DB	049H
	DB	00H
	DB	00H
	DB	00H
	DB	045H
	DB	00H
	DB	00H
	DB	00H
	DB	045H
	DB	00H
	DB	00H
	DB	00H
	DB	049H
	DB	00H
	DB	00H
	DB	00H
	DB	045H
	DB	00H
	DB	00H
	DB	00H
	DB	045H
	DB	00H
	DB	00H
	DB	00H
	DB	049H
	DB	00H
	DB	00H
	DB	00H
	DB	045H
	DB	00H
	DB	00H
	DB	00H
	DB	045H
	DB	00H
	DB	00H
	DB	00H
	DB	049H
	DB	00H
	DB	00H
	DB	00H
	DB	045H
	DB	00H
	DB	00H
	DB	00H
	DB	045H
	DB	00H
	DB	00H
	DB	00H
	DB	049H
	DB	00H
	DB	00H
	DB	00H
	DB	045H
	DB	00H
	DB	00H
	DB	00H
	DB	045H
	DB	00H
	DB	00H
	DB	00H
	DB	049H
	DB	00H
	DB	00H
	DB	00H
	DB	045H
	DB	00H
	DB	00H
	DB	00H
	DB	045H
	DB	00H
	DB	00H
	DB	00H
	DB	049H
	DB	00H
	DB	00H
	DB	00H
	DB	045H
	DB	00H
	DB	00H
	DB	00H
	DB	045H
	DB	00H
	DB	00H
	DB	00H
	DB	049H
	DB	00H
	DB	00H
	DB	00H
	DB	045H
	DB	00H
	DB	00H
	DB	00H
	DB	041H
	DB	00H
	DB	00H
	DB	00H
	DB	030H
	DB	00H
	DB	00H
	DB	00H
	DB	018H
	DB	00H
	DB	00H
	DB	00H
	DB	08H
	DB	00H
	DB	00H
	DB	00H
	DB	04H
	DB	00H
	DB	00H
	DB	00H
	DB	0cH
	DB	00H
	DB	00H
	DB	00H
	DB	018H
	DB	00H
	DB	00H
	DB	00H
	DB	020H
	DB	00H
	DB	00H
	DB	00H
	DB	024H
	DB	00H
	DB	00H
	DB	00H
	DB	024H
	DB	00H
	DB	00H
	DB	00H
	DB	024H
	DB	00H
	DB	00H
	DB	00H
	DB	024H
	DB	00H
	DB	00H
	DB	00H
	DB	024H
	DB	00H
	DB	00H
	DB	00H
	DB	024H
	DB	00H
	DB	00H
	DB	00H
	DB	024H
	DB	00H
	DB	00H
	DB	00H
	DB	024H
	DB	00H
	DB	00H
	DB	00H
	DB	024H
	DB	00H
	DB	00H
	DB	00H
	DB	024H
	DB	00H
	DB	00H
	DB	00H
	DB	024H
	DB	00H
	DB	00H
	DB	00H
	DB	024H
	DB	00H
	DB	00H
	DB	00H
	DB	024H
	DB	00H
	DB	00H
	DB	00H
	DB	024H
	DB	00H
	DB	00H
	DB	00H
	DB	024H
	DB	00H
	DB	00H
	DB	00H
	DB	024H
	DB	00H
	DB	00H
	DB	00H
	DB	024H
	DB	00H
	DB	00H
	DB	00H
	DB	024H
	DB	00H
	DB	00H
	DB	00H
	DB	024H
	DB	00H
	DB	00H
	DB	00H
	DB	024H
	DB	00H
	DB	00H
	DB	00H
	DB	024H
	DB	00H
	DB	00H
	DB	00H
	DB	024H
	DB	00H
	DB	00H
	DB	00H
	DB	024H
	DB	00H
	DB	00H
	DB	00H
	DB	024H
	DB	00H
	DB	00H
	DB	00H
	DB	024H
	DB	00H
	DB	00H
	DB	00H
	DB	024H
	DB	00H
	DB	00H
	DB	00H
	DB	024H
	DB	00H
	DB	00H
	DB	00H
	DB	024H
	DB	00H
	DB	00H
	DB	00H
	DB	024H
	DB	00H
	DB	00H
	DB	00H
	DB	024H
	DB	00H
	DB	00H
	DB	00H
	DB	024H
	DB	00H
	DB	00H
	DB	00H
	DB	024H
	DB	00H
	DB	00H
	DB	00H
	DB	024H
	DB	00H
	DB	00H
	DB	00H
	DB	024H
	DB	00H
	DB	00H
	DB	00H
	DB	024H
	DB	00H
	DB	00H
	DB	00H
	DB	024H
	DB	00H
	DB	00H
	DB	00H
	DB	024H
	DB	00H
	DB	00H
	DB	00H
	DB	024H
	DB	00H
	DB	00H
	DB	00H
	DB	024H
	DB	00H
	DB	00H
	DB	00H
	DB	024H
	DB	00H
	DB	00H
	DB	00H
	DB	024H
	DB	00H
	DB	00H
	DB	00H
	DB	024H
	DB	00H
	DB	00H
	DB	00H
	DB	024H
	DB	00H
	DB	00H
	DB	00H
	DB	024H
	DB	00H
	DB	00H
	DB	00H
	DB	024H
	DB	00H
	DB	00H
	DB	00H
	DB	024H
	DB	00H
	DB	00H
	DB	00H
	DB	020H
	DB	00H
	DB	00H
	DB	00H
	DB	018H
	DB	00H
	DB	00H
	DB	00H
	DB	0cH
	DB	00H
	DB	00H
	DB	00H
	DB	04H
	DB	00H
	DB	00H
	DB	00H
	DB	00H
	DB	00H
	DB	00H
	DB	00H
	DB	04H
	DB	00H
	DB	00H
	DB	00H
	DB	08H
	DB	00H
	DB	00H
	DB	00H
	DB	08H
	DB	00H
	DB	00H
	DB	00H
	DB	0cH
	DB	00H
	DB	00H
	DB	00H
	DB	0cH
	DB	00H
	DB	00H
	DB	00H
	DB	0cH
	DB	00H
	DB	00H
	DB	00H
	DB	0cH
	DB	00H
	DB	00H
	DB	00H
	DB	0cH
	DB	00H
	DB	00H
	DB	00H
	DB	0cH
	DB	00H
	DB	00H
	DB	00H
	DB	0cH
	DB	00H
	DB	00H
	DB	00H
	DB	0cH
	DB	00H
	DB	00H
	DB	00H
	DB	0cH
	DB	00H
	DB	00H
	DB	00H
	DB	0cH
	DB	00H
	DB	00H
	DB	00H
	DB	0cH
	DB	00H
	DB	00H
	DB	00H
	DB	0cH
	DB	00H
	DB	00H
	DB	00H
	DB	0cH
	DB	00H
	DB	00H
	DB	00H
	DB	0cH
	DB	00H
	DB	00H
	DB	00H
	DB	0cH
	DB	00H
	DB	00H
	DB	00H
	DB	0cH
	DB	00H
	DB	00H
	DB	00H
	DB	0cH
	DB	00H
	DB	00H
	DB	00H
	DB	0cH
	DB	00H
	DB	00H
	DB	00H
	DB	0cH
	DB	00H
	DB	00H
	DB	00H
	DB	0cH
	DB	00H
	DB	00H
	DB	00H
	DB	0cH
	DB	00H
	DB	00H
	DB	00H
	DB	0cH
	DB	00H
	DB	00H
	DB	00H
	DB	0cH
	DB	00H
	DB	00H
	DB	00H
	DB	0cH
	DB	00H
	DB	00H
	DB	00H
	DB	0cH
	DB	00H
	DB	00H
	DB	00H
	DB	0cH
	DB	00H
	DB	00H
	DB	00H
	DB	0cH
	DB	00H
	DB	00H
	DB	00H
	DB	0cH
	DB	00H
	DB	00H
	DB	00H
	DB	0cH
	DB	00H
	DB	00H
	DB	00H
	DB	0cH
	DB	00H
	DB	00H
	DB	00H
	DB	0cH
	DB	00H
	DB	00H
	DB	00H
	DB	0cH
	DB	00H
	DB	00H
	DB	00H
	DB	0cH
	DB	00H
	DB	00H
	DB	00H
	DB	0cH
	DB	00H
	DB	00H
	DB	00H
	DB	0cH
	DB	00H
	DB	00H
	DB	00H
	DB	0cH
	DB	00H
	DB	00H
	DB	00H
	DB	0cH
	DB	00H
	DB	00H
	DB	00H
	DB	0cH
	DB	00H
	DB	00H
	DB	00H
	DB	0cH
	DB	00H
	DB	00H
	DB	00H
	DB	0cH
	DB	00H
	DB	00H
	DB	00H
	DB	0cH
	DB	00H
	DB	00H
	DB	00H
	DB	0cH
	DB	00H
	DB	00H
	DB	00H
	DB	0cH
	DB	00H
	DB	00H
	DB	00H
	DB	0cH
	DB	00H
	DB	00H
	DB	00H
	DB	0cH
	DB	00H
	DB	00H
	DB	00H
	DB	0cH
	DB	00H
	DB	00H
	DB	00H
	DB	08H
	DB	00H
	DB	00H
	DB	00H
	DB	08H
	DB	00H
	DB	00H
	DB	00H
	DB	04H
	DB	00H
	DB	00H
	DB	00H
	DB	00H
CONST	ENDS
END
