; Listing generated by Microsoft (R) Optimizing Compiler Version 19.27.29112.0 

	TITLE	D:\hackTuesProject\project\TouchGFX\generated\images\src\MainScreen\image_info_air_humidity.cpp
	.686P
	.XMM
	include listing.inc
	.model	flat

INCLUDELIB MSVCRTD
INCLUDELIB OLDNAMES

PUBLIC	?image_info_air_humidity@@3QBEB			; image_info_air_humidity
CONST	SEGMENT
?image_info_air_humidity@@3QBEB DB 0d0H			; image_info_air_humidity
	DB	0b0H
	DB	088H
	DB	00H
	DB	0d0H
	DB	0b0H
	DB	088H
	DB	00H
	DB	0d0H
	DB	0b0H
	DB	088H
	DB	00H
	DB	0d0H
	DB	0b0H
	DB	088H
	DB	00H
	DB	0d0H
	DB	0b0H
	DB	088H
	DB	00H
	DB	0d0H
	DB	0b0H
	DB	088H
	DB	00H
	DB	0d0H
	DB	0b0H
	DB	088H
	DB	00H
	DB	0d0H
	DB	0b0H
	DB	088H
	DB	00H
	DB	0d0H
	DB	0b0H
	DB	088H
	DB	00H
	DB	0d0H
	DB	0b0H
	DB	088H
	DB	00H
	DB	0d0H
	DB	0b0H
	DB	088H
	DB	00H
	DB	0d0H
	DB	0b0H
	DB	088H
	DB	00H
	DB	0d0H
	DB	0b0H
	DB	088H
	DB	020H
	DB	0d0H
	DB	0b0H
	DB	088H
	DB	069H
	DB	0d0H
	DB	0b0H
	DB	088H
	DB	0aeH
	DB	0d0H
	DB	0b0H
	DB	088H
	DB	0dfH
	DB	0d0H
	DB	0b0H
	DB	088H
	DB	0f7H
	DB	0d0H
	DB	0b0H
	DB	088H
	DB	0ffH
	DB	0d0H
	DB	0b0H
	DB	088H
	DB	0ffH
	DB	0d0H
	DB	0b0H
	DB	088H
	DB	0ffH
	DB	0d0H
	DB	0b0H
	DB	088H
	DB	0ffH
	DB	0d0H
	DB	0b0H
	DB	088H
	DB	0ffH
	DB	0d0H
	DB	0b0H
	DB	088H
	DB	0ffH
	DB	0d0H
	DB	0b0H
	DB	088H
	DB	0ffH
	DB	0d0H
	DB	0b0H
	DB	088H
	DB	0ffH
	DB	0d0H
	DB	0b0H
	DB	088H
	DB	0ffH
	DB	0d0H
	DB	0b0H
	DB	088H
	DB	0ffH
	DB	0d0H
	DB	0b0H
	DB	088H
	DB	0ffH
	DB	0d0H
	DB	0b0H
	DB	088H
	DB	0ffH
	DB	0d0H
	DB	0b0H
	DB	088H
	DB	0ffH
	DB	0d0H
	DB	0b0H
	DB	088H
	DB	0ffH
	DB	0d0H
	DB	0b0H
	DB	088H
	DB	0ffH
	DB	0d0H
	DB	0b0H
	DB	088H
	DB	0ffH
	DB	0d0H
	DB	0b0H
	DB	088H
	DB	0ffH
	DB	0d0H
	DB	0b0H
	DB	088H
	DB	0ffH
	DB	0d0H
	DB	0b0H
	DB	088H
	DB	0ffH
	DB	0d0H
	DB	0b0H
	DB	088H
	DB	0ffH
	DB	0d0H
	DB	0b0H
	DB	088H
	DB	0ffH
	DB	0d0H
	DB	0b0H
	DB	088H
	DB	0ffH
	DB	0d0H
	DB	0b0H
	DB	088H
	DB	0ffH
	DB	0d0H
	DB	0b0H
	DB	088H
	DB	0ffH
	DB	0d0H
	DB	0b0H
	DB	088H
	DB	0ffH
	DB	0d0H
	DB	0b0H
	DB	088H
	DB	0ffH
	DB	0d0H
	DB	0b0H
	DB	088H
	DB	0ffH
	DB	0d0H
	DB	0b0H
	DB	088H
	DB	0ffH
	DB	0d0H
	DB	0b0H
	DB	088H
	DB	0ffH
	DB	0d0H
	DB	0b0H
	DB	088H
	DB	0ffH
	DB	0d0H
	DB	0b0H
	DB	088H
	DB	0ffH
	DB	0d0H
	DB	0b0H
	DB	088H
	DB	0ffH
	DB	0d0H
	DB	0b0H
	DB	088H
	DB	0ffH
	DB	0d0H
	DB	0b0H
	DB	088H
	DB	0ffH
	DB	0d0H
	DB	0b0H
	DB	088H
	DB	0ffH
	DB	0d0H
	DB	0b0H
	DB	088H
	DB	0ffH
	DB	0d0H
	DB	0b0H
	DB	088H
	DB	0ffH
	DB	0d0H
	DB	0b0H
	DB	088H
	DB	0ffH
	DB	0d0H
	DB	0b0H
	DB	088H
	DB	0ffH
	DB	0d0H
	DB	0b0H
	DB	088H
	DB	0ffH
	DB	0d0H
	DB	0b0H
	DB	088H
	DB	0ffH
	DB	0d0H
	DB	0b0H
	DB	088H
	DB	0ffH
	DB	0d0H
	DB	0b0H
	DB	088H
	DB	0ffH
	DB	0d0H
	DB	0b0H
	DB	088H
	DB	0ffH
	DB	0d0H
	DB	0b0H
	DB	088H
	DB	0ffH
	DB	0d0H
	DB	0b0H
	DB	088H
	DB	0ffH
	DB	0d0H
	DB	0b0H
	DB	088H
	DB	0ffH
	DB	0d0H
	DB	0b0H
	DB	088H
	DB	0ffH
	DB	0d0H
	DB	0b0H
	DB	088H
	DB	0ffH
	DB	0d0H
	DB	0b0H
	DB	088H
	DB	0ffH
	DB	0d0H
	DB	0b0H
	DB	088H
	DB	0ffH
	DB	0d0H
	DB	0b0H
	DB	088H
	DB	0ffH
	DB	0d0H
	DB	0b0H
	DB	088H
	DB	0ffH
	DB	0d0H
	DB	0b0H
	DB	088H
	DB	0ffH
	DB	0d0H
	DB	0b0H
	DB	088H
	DB	0ffH
	DB	0d0H
	DB	0b0H
	DB	088H
	DB	0ffH
	DB	0d0H
	DB	0b0H
	DB	088H
	DB	0ffH
	DB	0d0H
	DB	0b0H
	DB	088H
	DB	0ffH
	DB	0d0H
	DB	0b0H
	DB	088H
	DB	0ffH
	DB	0d0H
	DB	0b0H
	DB	088H
	DB	0ffH
	DB	0d0H
	DB	0b0H
	DB	088H
	DB	0ffH
	DB	0d0H
	DB	0b0H
	DB	088H
	DB	0ffH
	DB	0d0H
	DB	0b0H
	DB	088H
	DB	0ffH
	DB	0d0H
	DB	0b0H
	DB	088H
	DB	0ffH
	DB	0d0H
	DB	0b0H
	DB	088H
	DB	0ffH
	DB	0d0H
	DB	0b0H
	DB	088H
	DB	0f7H
	DB	0d0H
	DB	0b0H
	DB	088H
	DB	0ebH
	DB	0d0H
	DB	0b0H
	DB	088H
	DB	0cbH
	DB	0d0H
	DB	0b0H
	DB	088H
	DB	0a2H
	DB	0d0H
	DB	0b0H
	DB	088H
	DB	069H
	DB	0d0H
	DB	0b0H
	DB	088H
	DB	020H
	DB	0f8H
	DB	0fcH
	DB	0f8H
	DB	00H
	DB	0f8H
	DB	0fcH
	DB	0f8H
	DB	00H
	DB	0f8H
	DB	0fcH
	DB	0f8H
	DB	00H
	DB	0f8H
	DB	0fcH
	DB	0f8H
	DB	00H
	DB	0f8H
	DB	0fcH
	DB	0f8H
	DB	00H
	DB	0f8H
	DB	0fcH
	DB	0f8H
	DB	00H
	DB	0f8H
	DB	0fcH
	DB	0f8H
	DB	00H
	DB	0f8H
	DB	0fcH
	DB	0f8H
	DB	00H
	DB	0f8H
	DB	0fcH
	DB	0f8H
	DB	00H
	DB	0f8H
	DB	0fcH
	DB	0f8H
	DB	00H
	DB	0f8H
	DB	0fcH
	DB	0f8H
	DB	00H
	DB	0f8H
	DB	0fcH
	DB	0f8H
	DB	00H
	DB	0d0H
	DB	0b0H
	DB	088H
	DB	00H
	DB	0d0H
	DB	0b0H
	DB	090H
	DB	00H
	DB	0c8H
	DB	0b0H
	DB	090H
	DB	00H
	DB	0d0H
	DB	0b0H
	DB	088H
	DB	00H
	DB	0d0H
	DB	0b0H
	DB	090H
	DB	00H
	DB	0c8H
	DB	0b0H
	DB	090H
	DB	00H
	DB	0d0H
	DB	0b0H
	DB	088H
	DB	00H
	DB	0d0H
	DB	0b0H
	DB	090H
	DB	00H
	DB	0c8H
	DB	0b0H
	DB	090H
	DB	00H
	DB	0d0H
	DB	0b0H
	DB	088H
	DB	04H
	DB	0d0H
	DB	0b0H
	DB	090H
	DB	059H
	DB	0c8H
	DB	0b0H
	DB	090H
	DB	0c7H
	DB	0d0H
	DB	0b0H
	DB	088H
	DB	0ffH
	DB	0d0H
	DB	0b0H
	DB	090H
	DB	0ffH
	DB	0c8H
	DB	0b0H
	DB	090H
	DB	0ffH
	DB	0d0H
	DB	0b0H
	DB	088H
	DB	0ffH
	DB	0d0H
	DB	0b0H
	DB	090H
	DB	0ffH
	DB	0c8H
	DB	0b0H
	DB	090H
	DB	0ffH
	DB	0d0H
	DB	0b0H
	DB	088H
	DB	0ffH
	DB	0d0H
	DB	0b0H
	DB	090H
	DB	0ffH
	DB	0c8H
	DB	0b0H
	DB	090H
	DB	0ffH
	DB	0d0H
	DB	0b0H
	DB	088H
	DB	0ffH
	DB	0d0H
	DB	0b0H
	DB	090H
	DB	0ffH
	DB	0c8H
	DB	0b0H
	DB	090H
	DB	0ffH
	DB	0d0H
	DB	0b0H
	DB	088H
	DB	0ffH
	DB	0d0H
	DB	0b0H
	DB	090H
	DB	0ffH
	DB	0c8H
	DB	0b0H
	DB	090H
	DB	0ffH
	DB	0d0H
	DB	0b0H
	DB	088H
	DB	0ffH
	DB	0d0H
	DB	0b0H
	DB	090H
	DB	0ffH
	DB	0c8H
	DB	0b0H
	DB	090H
	DB	0ffH
	DB	0d0H
	DB	0b0H
	DB	088H
	DB	0ffH
	DB	0d0H
	DB	0b0H
	DB	090H
	DB	0ffH
	DB	0c8H
	DB	0b0H
	DB	090H
	DB	0ffH
	DB	0d0H
	DB	0b0H
	DB	088H
	DB	0ffH
	DB	0d0H
	DB	0b0H
	DB	090H
	DB	0ffH
	DB	0c8H
	DB	0b0H
	DB	090H
	DB	0ffH
	DB	0d0H
	DB	0b0H
	DB	088H
	DB	0ffH
	DB	0d0H
	DB	0b0H
	DB	090H
	DB	0ffH
	DB	0c8H
	DB	0b0H
	DB	090H
	DB	0ffH
	DB	0d0H
	DB	0b0H
	DB	088H
	DB	0ffH
	DB	0d0H
	DB	0b0H
	DB	090H
	DB	0ffH
	DB	0c8H
	DB	0b0H
	DB	090H
	DB	0ffH
	DB	0d0H
	DB	0b0H
	DB	088H
	DB	0ffH
	DB	0d0H
	DB	0b0H
	DB	090H
	DB	0ffH
	DB	0c8H
	DB	0b0H
	DB	090H
	DB	0ffH
	DB	0d0H
	DB	0b0H
	DB	088H
	DB	0ffH
	DB	0d0H
	DB	0b0H
	DB	090H
	DB	0ffH
	DB	0c8H
	DB	0b0H
	DB	090H
	DB	0ffH
	DB	0d0H
	DB	0b0H
	DB	088H
	DB	0ffH
	DB	0d0H
	DB	0b0H
	DB	090H
	DB	0ffH
	DB	0c8H
	DB	0b0H
	DB	090H
	DB	0ffH
	DB	0d0H
	DB	0b0H
	DB	088H
	DB	0ffH
	DB	0d0H
	DB	0b0H
	DB	090H
	DB	0ffH
	DB	0c8H
	DB	0b0H
	DB	090H
	DB	0ffH
	DB	0d0H
	DB	0b0H
	DB	088H
	DB	0ffH
	DB	0d0H
	DB	0b0H
	DB	090H
	DB	0ffH
	DB	0c8H
	DB	0b0H
	DB	090H
	DB	0ffH
	DB	0d0H
	DB	0b0H
	DB	088H
	DB	0ffH
	DB	0d0H
	DB	0b0H
	DB	090H
	DB	0ffH
	DB	0c8H
	DB	0b0H
	DB	090H
	DB	0ffH
	DB	0d0H
	DB	0b0H
	DB	088H
	DB	0ffH
	DB	0d0H
	DB	0b0H
	DB	090H
	DB	0ffH
	DB	0c8H
	DB	0b0H
	DB	090H
	DB	0ffH
	DB	0d0H
	DB	0b0H
	DB	088H
	DB	0ffH
	DB	0d0H
	DB	0b0H
	DB	090H
	DB	0ffH
	DB	0c8H
	DB	0b0H
	DB	090H
	DB	0ffH
	DB	0d0H
	DB	0b0H
	DB	088H
	DB	0ffH
	DB	0d0H
	DB	0b0H
	DB	090H
	DB	0ffH
	DB	0c8H
	DB	0b0H
	DB	090H
	DB	0ffH
	DB	0d0H
	DB	0b0H
	DB	088H
	DB	0ffH
	DB	0d0H
	DB	0b0H
	DB	090H
	DB	0ffH
	DB	0c8H
	DB	0b0H
	DB	090H
	DB	0ffH
	DB	0d0H
	DB	0b0H
	DB	088H
	DB	0ffH
	DB	0d0H
	DB	0b0H
	DB	090H
	DB	0ffH
	DB	0c8H
	DB	0b0H
	DB	090H
	DB	0ffH
	DB	0d0H
	DB	0b0H
	DB	088H
	DB	0ffH
	DB	0d0H
	DB	0b0H
	DB	090H
	DB	0ffH
	DB	0c8H
	DB	0b0H
	DB	090H
	DB	0ffH
	DB	0d0H
	DB	0b0H
	DB	088H
	DB	0ffH
	DB	0d0H
	DB	0b0H
	DB	090H
	DB	0ffH
	DB	0c8H
	DB	0b0H
	DB	090H
	DB	0ffH
	DB	0d0H
	DB	0b0H
	DB	088H
	DB	0ffH
	DB	0d0H
	DB	0b0H
	DB	090H
	DB	0ffH
	DB	0c8H
	DB	0b0H
	DB	090H
	DB	0ffH
	DB	0d0H
	DB	0b0H
	DB	088H
	DB	0ffH
	DB	0d0H
	DB	0b0H
	DB	090H
	DB	0ffH
	DB	0c8H
	DB	0b0H
	DB	090H
	DB	0ffH
	DB	0d0H
	DB	0b0H
	DB	088H
	DB	0ffH
	DB	0d0H
	DB	0b0H
	DB	088H
	DB	0c3H
	DB	0d0H
	DB	0b0H
	DB	088H
	DB	059H
	DB	0d0H
	DB	0b0H
	DB	088H
	DB	04H
	DB	0f8H
	DB	0fcH
	DB	0f8H
	DB	00H
	DB	0f8H
	DB	0fcH
	DB	0f8H
	DB	00H
	DB	0f8H
	DB	0fcH
	DB	0f8H
	DB	00H
	DB	0f8H
	DB	0fcH
	DB	0f8H
	DB	00H
	DB	0f8H
	DB	0fcH
	DB	0f8H
	DB	00H
	DB	0f8H
	DB	0fcH
	DB	0f8H
	DB	00H
	DB	0f8H
	DB	0fcH
	DB	0f8H
	DB	00H
	DB	0f8H
	DB	0fcH
	DB	0f8H
	DB	00H
	DB	0f8H
	DB	0fcH
	DB	0f8H
	DB	00H
	DB	0d0H
	DB	0b0H
	DB	088H
	DB	00H
	DB	0c8H
	DB	0b0H
	DB	088H
	DB	00H
	DB	0d0H
	DB	0b4H
	DB	090H
	DB	00H
	DB	0d0H
	DB	0b0H
	DB	088H
	DB	00H
	DB	0c8H
	DB	0b4H
	DB	088H
	DB	00H
	DB	0d0H
	DB	0b0H
	DB	090H
	DB	00H
	DB	0d0H
	DB	0b4H
	DB	088H
	DB	00H
	DB	0b8H
	DB	08cH
	DB	050H
	DB	00H
	DB	0d0H
	DB	0b0H
	DB	090H
	DB	045H
	DB	0d0H
	DB	0b4H
	DB	088H
	DB	0d7H
	DB	0c8H
	DB	0b0H
	DB	088H
	DB	0ffH
	DB	0d0H
	DB	0b4H
	DB	090H
	DB	0ffH
	DB	0d0H
	DB	0b0H
	DB	088H
	DB	0ffH
	DB	0c8H
	DB	0b4H
	DB	088H
	DB	0ffH
	DB	0d0H
	DB	0b0H
	DB	090H
	DB	0ffH
	DB	0d0H
	DB	0b4H
	DB	088H
	DB	0ffH
	DB	0c8H
	DB	0b0H
	DB	088H
	DB	0ffH
	DB	0d0H
	DB	0b4H
	DB	090H
	DB	0ffH
	DB	0d0H
	DB	0b0H
	DB	088H
	DB	0ffH
	DB	0c8H
	DB	0b4H
	DB	088H
	DB	0ffH
	DB	0d0H
	DB	0b0H
	DB	090H
	DB	0ffH
	DB	0d0H
	DB	0b4H
	DB	088H
	DB	0ffH
	DB	0c8H
	DB	0b0H
	DB	088H
	DB	0ffH
	DB	0d0H
	DB	0b4H
	DB	090H
	DB	0ffH
	DB	0d0H
	DB	0b0H
	DB	088H
	DB	0ffH
	DB	0c8H
	DB	0b4H
	DB	088H
	DB	0ffH
	DB	0d8H
	DB	0c0H
	DB	0a0H
	DB	0ffH
	DB	0f0H
	DB	0ecH
	DB	0e0H
	DB	0ffH
	DB	0f8H
	DB	0fcH
	DB	0f8H
	DB	0ffH
	DB	0f8H
	DB	0fcH
	DB	0f8H
	DB	0ffH
	DB	0f8H
	DB	0fcH
	DB	0f8H
	DB	0ffH
	DB	0f8H
	DB	0fcH
	DB	0f8H
	DB	0ffH
	DB	0f8H
	DB	0fcH
	DB	0f8H
	DB	0ffH
	DB	0f8H
	DB	0fcH
	DB	0f8H
	DB	0ffH
	DB	0f8H
	DB	0fcH
	DB	0f8H
	DB	0ffH
	DB	0f8H
	DB	0fcH
	DB	0f8H
	DB	0ffH
	DB	0f8H
	DB	0fcH
	DB	0f8H
	DB	0ffH
	DB	0f8H
	DB	0fcH
	DB	0f8H
	DB	0ffH
	DB	0f8H
	DB	0fcH
	DB	0f8H
	DB	0ffH
	DB	0f8H
	DB	0fcH
	DB	0f8H
	DB	0ffH
	DB	0f8H
	DB	0fcH
	DB	0f8H
	DB	0ffH
	DB	0f8H
	DB	0fcH
	DB	0f8H
	DB	0ffH
	DB	0f8H
	DB	0fcH
	DB	0f8H
	DB	0ffH
	DB	0f8H
	DB	0fcH
	DB	0f8H
	DB	0ffH
	DB	0f8H
	DB	0fcH
	DB	0f8H
	DB	0ffH
	DB	0f8H
	DB	0fcH
	DB	0f8H
	DB	0ffH
	DB	0f8H
	DB	0fcH
	DB	0f8H
	DB	0ffH
	DB	0f8H
	DB	0fcH
	DB	0f8H
	DB	0ffH
	DB	0f8H
	DB	0fcH
	DB	0f8H
	DB	0ffH
	DB	0f8H
	DB	0fcH
	DB	0f8H
	DB	0ffH
	DB	0f8H
	DB	0fcH
	DB	0f8H
	DB	0ffH
	DB	0f8H
	DB	0fcH
	DB	0f8H
	DB	0ffH
	DB	0f8H
	DB	0fcH
	DB	0f8H
	DB	0ffH
	DB	0f8H
	DB	0fcH
	DB	0f8H
	DB	0ffH
	DB	0f8H
	DB	0fcH
	DB	0f8H
	DB	0ffH
	DB	0f8H
	DB	0fcH
	DB	0f8H
	DB	0ffH
	DB	0f8H
	DB	0fcH
	DB	0f8H
	DB	0ffH
	DB	0f8H
	DB	0fcH
	DB	0f8H
	DB	0ffH
	DB	0f8H
	DB	0fcH
	DB	0f8H
	DB	0ffH
	DB	0f8H
	DB	0fcH
	DB	0f8H
	DB	0ffH
	DB	0f8H
	DB	0fcH
	DB	0f8H
	DB	0ffH
	DB	0f8H
	DB	0fcH
	DB	0f8H
	DB	0ffH
	DB	0f8H
	DB	0fcH
	DB	0f8H
	DB	0ffH
	DB	0f8H
	DB	0fcH
	DB	0f8H
	DB	0ffH
	DB	0f8H
	DB	0fcH
	DB	0f8H
	DB	0ffH
	DB	0f8H
	DB	0fcH
	DB	0f8H
	DB	0ffH
	DB	0f8H
	DB	0fcH
	DB	0f8H
	DB	0ffH
	DB	0f8H
	DB	0fcH
	DB	0f8H
	DB	0ffH
	DB	0f8H
	DB	0fcH
	DB	0f8H
	DB	0ffH
	DB	0f8H
	DB	0fcH
	DB	0f8H
	DB	0ffH
	DB	0f8H
	DB	0fcH
	DB	0f8H
	DB	0ffH
	DB	0f8H
	DB	0fcH
	DB	0f8H
	DB	0ffH
	DB	0f8H
	DB	0fcH
	DB	0f8H
	DB	0ffH
	DB	0f8H
	DB	0fcH
	DB	0f8H
	DB	0ffH
	DB	0f8H
	DB	0fcH
	DB	0f8H
	DB	0ffH
	DB	0f8H
	DB	0fcH
	DB	0f8H
	DB	0ffH
	DB	0f8H
	DB	0fcH
	DB	0f8H
	DB	0ffH
	DB	0f8H
	DB	0fcH
	DB	0f8H
	DB	0ffH
	DB	0f8H
	DB	0fcH
	DB	0f8H
	DB	0ffH
	DB	0f8H
	DB	0fcH
	DB	0f8H
	DB	0ffH
	DB	0f8H
	DB	0fcH
	DB	0f8H
	DB	0ffH
	DB	0f8H
	DB	0fcH
	DB	0f8H
	DB	0ffH
	DB	0f8H
	DB	0fcH
	DB	0f8H
	DB	0ffH
	DB	0f8H
	DB	0f8H
	DB	0f8H
	DB	0ffH
	DB	0f0H
	DB	0f0H
	DB	0e8H
	DB	0ffH
	DB	0e8H
	DB	0e0H
	DB	0d0H
	DB	0ffH
	DB	0e0H
	DB	0ccH
	DB	0b0H
	DB	0ffH
	DB	0d0H
	DB	0b8H
	DB	090H
	DB	0ffH
	DB	0c8H
	DB	0b0H
	DB	090H
	DB	0ffH
	DB	0d0H
	DB	0b0H
	DB	090H
	DB	0ffH
	DB	0d0H
	DB	0b0H
	DB	088H
	DB	0d7H
	DB	0d0H
	DB	0b0H
	DB	088H
	DB	045H
	DB	0f8H
	DB	0fcH
	DB	0f8H
	DB	00H
	DB	0f8H
	DB	0fcH
	DB	0f8H
	DB	00H
	DB	0f8H
	DB	0fcH
	DB	0f8H
	DB	00H
	DB	0f8H
	DB	0fcH
	DB	0f8H
	DB	00H
	DB	0f8H
	DB	0fcH
	DB	0f8H
	DB	00H
	DB	0f8H
	DB	0fcH
	DB	0f8H
	DB	00H
	DB	0f8H
	DB	0fcH
	DB	0f8H
	DB	00H
	DB	0f8H
	DB	0fcH
	DB	0f8H
	DB	00H
	DB	0d0H
	DB	0b0H
	DB	088H
	DB	00H
	DB	0d0H
	DB	0b0H
	DB	088H
	DB	00H
	DB	0d0H
	DB	0b0H
	DB	090H
	DB	00H
	DB	0d0H
	DB	0b0H
	DB	088H
	DB	00H
	DB	0d0H
	DB	0b0H
	DB	088H
	DB	00H
	DB	0d0H
	DB	0b0H
	DB	088H
	DB	00H
	DB	0d0H
	DB	0b0H
	DB	090H
	DB	08H
	DB	0c8H
	DB	0b0H
	DB	088H
	DB	09aH
	DB	0d0H
	DB	0b4H
	DB	088H
	DB	0ffH
	DB	0d0H
	DB	0b0H
	DB	090H
	DB	0ffH
	DB	0d0H
	DB	0b0H
	DB	088H
	DB	0ffH
	DB	0d0H
	DB	0b0H
	DB	088H
	DB	0ffH
	DB	0d0H
	DB	0b4H
	DB	090H
	DB	0ffH
	DB	0d0H
	DB	0b0H
	DB	088H
	DB	0ffH
	DB	0d0H
	DB	0b0H
	DB	088H
	DB	0ffH
	DB	0c8H
	DB	0b0H
	DB	090H
	DB	0ffH
	DB	0d0H
	DB	0b0H
	DB	088H
	DB	0ffH
	DB	0d0H
	DB	0b0H
	DB	088H
	DB	0ffH
	DB	0c8H
	DB	0b0H
	DB	088H
	DB	0ffH
	DB	0d0H
	DB	0b0H
	DB	088H
	DB	0ffH
	DB	0d0H
	DB	0b0H
	DB	088H
	DB	0ffH
	DB	0d0H
	DB	0b0H
	DB	090H
	DB	0ffH
	DB	0c8H
	DB	0b4H
	DB	088H
	DB	0ffH
	DB	0d0H
	DB	0b0H
	DB	088H
	DB	0ffH
	DB	0d0H
	DB	0b0H
	DB	090H
	DB	0ffH
	DB	0d0H
	DB	0b0H
	DB	088H
	DB	0ffH
	DB	0d0H
	DB	0b0H
	DB	088H
	DB	0ffH
	DB	0d0H
	DB	0b0H
	DB	088H
	DB	0ffH
	DB	0e0H
	DB	0d0H
	DB	0b8H
	DB	0ffH
	DB	0f8H
	DB	0fcH
	DB	0f8H
	DB	0ffH
	DB	0f8H
	DB	0fcH
	DB	0f8H
	DB	0ffH
	DB	0f8H
	DB	0fcH
	DB	0f8H
	DB	0ffH
	DB	0f8H
	DB	0fcH
	DB	0f8H
	DB	0ffH
	DB	0f8H
	DB	0fcH
	DB	0f8H
	DB	0ffH
	DB	0f8H
	DB	0fcH
	DB	0f8H
	DB	0ffH
	DB	0f8H
	DB	0fcH
	DB	0f8H
	DB	0ffH
	DB	0f8H
	DB	0fcH
	DB	0f8H
	DB	0ffH
	DB	0f8H
	DB	0fcH
	DB	0f8H
	DB	0ffH
	DB	0f8H
	DB	0fcH
	DB	0f8H
	DB	0ffH
	DB	0f8H
	DB	0fcH
	DB	0f8H
	DB	0ffH
	DB	0f8H
	DB	0fcH
	DB	0f8H
	DB	0ffH
	DB	0f8H
	DB	0fcH
	DB	0f8H
	DB	0ffH
	DB	0f8H
	DB	0fcH
	DB	0f8H
	DB	0ffH
	DB	0f8H
	DB	0fcH
	DB	0f8H
	DB	0ffH
	DB	0f8H
	DB	0fcH
	DB	0f8H
	DB	0ffH
	DB	0f8H
	DB	0fcH
	DB	0f8H
	DB	0ffH
	DB	0f8H
	DB	0fcH
	DB	0f8H
	DB	0ffH
	DB	0f8H
	DB	0fcH
	DB	0f8H
	DB	0ffH
	DB	0f8H
	DB	0fcH
	DB	0f8H
	DB	0ffH
	DB	0f8H
	DB	0fcH
	DB	0f8H
	DB	0ffH
	DB	0f8H
	DB	0fcH
	DB	0f8H
	DB	0ffH
	DB	0f8H
	DB	0fcH
	DB	0f8H
	DB	0ffH
	DB	0f8H
	DB	0fcH
	DB	0f8H
	DB	0ffH
	DB	0f8H
	DB	0fcH
	DB	0f8H
	DB	0ffH
	DB	0f8H
	DB	0fcH
	DB	0f8H
	DB	0ffH
	DB	0f8H
	DB	0fcH
	DB	0f8H
	DB	0ffH
	DB	0f8H
	DB	0fcH
	DB	0f8H
	DB	0ffH
	DB	0f8H
	DB	0fcH
	DB	0f8H
	DB	0ffH
	DB	0f8H
	DB	0fcH
	DB	0f8H
	DB	0ffH
	DB	0f8H
	DB	0fcH
	DB	0f8H
	DB	0ffH
	DB	0f8H
	DB	0fcH
	DB	0f8H
	DB	0ffH
	DB	0f8H
	DB	0fcH
	DB	0f8H
	DB	0ffH
	DB	0f8H
	DB	0fcH
	DB	0f8H
	DB	0ffH
	DB	0f8H
	DB	0fcH
	DB	0f8H
	DB	0ffH
	DB	0f8H
	DB	0fcH
	DB	0f8H
	DB	0ffH
	DB	0f8H
	DB	0fcH
	DB	0f8H
	DB	0ffH
	DB	0f8H
	DB	0fcH
	DB	0f8H
	DB	0ffH
	DB	0f8H
	DB	0fcH
	DB	0f8H
	DB	0ffH
	DB	0f8H
	DB	0fcH
	DB	0f8H
	DB	0ffH
	DB	0f8H
	DB	0fcH
	DB	0f8H
	DB	0ffH
	DB	0f8H
	DB	0fcH
	DB	0f8H
	DB	0ffH
	DB	0f8H
	DB	0fcH
	DB	0f8H
	DB	0ffH
	DB	0f8H
	DB	0fcH
	DB	0f8H
	DB	0ffH
	DB	0f8H
	DB	0fcH
	DB	0f8H
	DB	0ffH
	DB	0f8H
	DB	0fcH
	DB	0f8H
	DB	0ffH
	DB	0f8H
	DB	0fcH
	DB	0f8H
	DB	0ffH
	DB	0f8H
	DB	0fcH
	DB	0f8H
	DB	0ffH
	DB	0f8H
	DB	0fcH
	DB	0f8H
	DB	0ffH
	DB	0f8H
	DB	0fcH
	DB	0f8H
	DB	0ffH
	DB	0f8H
	DB	0fcH
	DB	0f8H
	DB	0ffH
	DB	0f8H
	DB	0fcH
	DB	0f8H
	DB	0ffH
	DB	0f8H
	DB	0fcH
	DB	0f8H
	DB	0ffH
	DB	0f8H
	DB	0fcH
	DB	0f8H
	DB	0ffH
	DB	0f8H
	DB	0fcH
	DB	0f8H
	DB	0ffH
	DB	0f8H
	DB	0fcH
	DB	0f8H
	DB	0ffH
	DB	0f8H
	DB	0fcH
	DB	0f8H
	DB	0ffH
	DB	0f8H
	DB	0fcH
	DB	0f8H
	DB	0ffH
	DB	0f8H
	DB	0fcH
	DB	0f8H
	DB	0ffH
	DB	0e8H
	DB	0e0H
	DB	0d0H
	DB	0ffH
	DB	0d0H
	DB	0bcH
	DB	0a0H
	DB	0ffH
	DB	0d0H
	DB	0b4H
	DB	088H
	DB	0ffH
	DB	0d0H
	DB	0b0H
	DB	090H
	DB	0ffH
	DB	0c8H
	DB	0b0H
	DB	088H
	DB	09aH
	DB	0d0H
	DB	0b0H
	DB	088H
	DB	08H
	DB	0f8H
	DB	0fcH
	DB	0f8H
	DB	00H
	DB	0f8H
	DB	0fcH
	DB	0f8H
	DB	00H
	DB	0f8H
	DB	0fcH
	DB	0f8H
	DB	00H
	DB	0f8H
	DB	0fcH
	DB	0f8H
	DB	00H
	DB	0f8H
	DB	0fcH
	DB	0f8H
	DB	00H
	DB	0f8H
	DB	0fcH
	DB	0f8H
	DB	00H
	DB	0d0H
	DB	0b0H
	DB	088H
	DB	00H
	DB	0c8H
	DB	0b0H
	DB	090H
	DB	00H
	DB	0d0H
	DB	0b4H
	DB	088H
	DB	00H
	DB	0c8H
	DB	0b0H
	DB	090H
	DB	00H
	DB	0d0H
	DB	0b0H
	DB	088H
	DB	00H
	DB	0d0H
	DB	0b4H
	DB	090H
	DB	014H
	DB	0c8H
	DB	0b0H
	DB	088H
	DB	0cbH
	DB	0d0H
	DB	0b0H
	DB	088H
	DB	0ffH
	DB	0d0H
	DB	0b0H
	DB	090H
	DB	0ffH
	DB	0c8H
	DB	0b0H
	DB	088H
	DB	0ffH
	DB	0d0H
	DB	0b0H
	DB	088H
	DB	0ffH
	DB	0c8H
	DB	0b0H
	DB	090H
	DB	0ffH
	DB	0d0H
	DB	0b0H
	DB	088H
	DB	0ffH
	DB	0c8H
	DB	0b0H
	DB	088H
	DB	0ffH
	DB	0c8H
	DB	0b0H
	DB	088H
	DB	0ffH
	DB	0c8H
	DB	0b0H
	DB	088H
	DB	0ffH
	DB	0c8H
	DB	0acH
	DB	088H
	DB	0ffH
	DB	0c8H
	DB	0acH
	DB	088H
	DB	0ffH
	DB	0c8H
	DB	0acH
	DB	088H
	DB	0ffH
	DB	0c8H
	DB	0acH
	DB	088H
	DB	0ffH
	DB	0c8H
	DB	0b0H
	DB	088H
	DB	0ffH
	DB	0d0H
	DB	0b0H
	DB	088H
	DB	0ffH
	DB	0d0H
	DB	0b0H
	DB	090H
	DB	0ffH
	DB	0d0H
	DB	0b0H
	DB	088H
	DB	0ffH
	DB	0c8H
	DB	0b0H
	DB	088H
	DB	0ffH
	DB	0d0H
	DB	0b0H
	DB	090H
	DB	0ffH
	DB	0d0H
	DB	0b0H
	DB	090H
	DB	0ffH
	DB	0c8H
	DB	0b0H
	DB	088H
	DB	0ffH
	DB	0d0H
	DB	0b4H
	DB	090H
	DB	0ffH
	DB	0d8H
	DB	0c4H
	DB	0a0H
	DB	0ffH
	DB	0f8H
	DB	0f8H
	DB	0f8H
	DB	0ffH
	DB	0f8H
	DB	0fcH
	DB	0f8H
	DB	0ffH
	DB	0f8H
	DB	0fcH
	DB	0f8H
	DB	0ffH
	DB	0f8H
	DB	0fcH
	DB	0f8H
	DB	0ffH
	DB	0f8H
	DB	0fcH
	DB	0f8H
	DB	0ffH
	DB	0f8H
	DB	0fcH
	DB	0f8H
	DB	0ffH
	DB	0f8H
	DB	0fcH
	DB	0f8H
	DB	0ffH
	DB	0f8H
	DB	0fcH
	DB	0f8H
	DB	0ffH
	DB	0f8H
	DB	0fcH
	DB	0f8H
	DB	0ffH
	DB	0f8H
	DB	0fcH
	DB	0f8H
	DB	0ffH
	DB	0f8H
	DB	0fcH
	DB	0f8H
	DB	0ffH
	DB	0f8H
	DB	0fcH
	DB	0f8H
	DB	0ffH
	DB	0f8H
	DB	0fcH
	DB	0f8H
	DB	0ffH
	DB	0f8H
	DB	0fcH
	DB	0f8H
	DB	0ffH
	DB	0f8H
	DB	0fcH
	DB	0f8H
	DB	0ffH
	DB	0f8H
	DB	0fcH
	DB	0f8H
	DB	0ffH
	DB	0f8H
	DB	0fcH
	DB	0f8H
	DB	0ffH
	DB	0f8H
	DB	0fcH
	DB	0f8H
	DB	0ffH
	DB	0f8H
	DB	0fcH
	DB	0f8H
	DB	0ffH
	DB	0f8H
	DB	0fcH
	DB	0f8H
	DB	0ffH
	DB	0f8H
	DB	0fcH
	DB	0f8H
	DB	0ffH
	DB	0f8H
	DB	0fcH
	DB	0f8H
	DB	0ffH
	DB	0f8H
	DB	0fcH
	DB	0f8H
	DB	0ffH
	DB	0f8H
	DB	0fcH
	DB	0f8H
	DB	0ffH
	DB	0f8H
	DB	0fcH
	DB	0f8H
	DB	0ffH
	DB	0f8H
	DB	0fcH
	DB	0f8H
	DB	0ffH
	DB	0f8H
	DB	0fcH
	DB	0f8H
	DB	0ffH
	DB	0f8H
	DB	0fcH
	DB	0f8H
	DB	0ffH
	DB	0f8H
	DB	0fcH
	DB	0f8H
	DB	0ffH
	DB	0f8H
	DB	0fcH
	DB	0f8H
	DB	0ffH
	DB	0f8H
	DB	0fcH
	DB	0f8H
	DB	0ffH
	DB	0f8H
	DB	0fcH
	DB	0f8H
	DB	0ffH
	DB	0f8H
	DB	0fcH
	DB	0f8H
	DB	0ffH
	DB	0f8H
	DB	0fcH
	DB	0f8H
	DB	0ffH
	DB	0f8H
	DB	0fcH
	DB	0f8H
	DB	0ffH
	DB	0f8H
	DB	0fcH
	DB	0f8H
	DB	0ffH
	DB	0f8H
	DB	0fcH
	DB	0f8H
	DB	0ffH
	DB	0f8H
	DB	0fcH
	DB	0f8H
	DB	0ffH
	DB	0f8H
	DB	0fcH
	DB	0f8H
	DB	0ffH
	DB	0f8H
	DB	0fcH
	DB	0f8H
	DB	0ffH
	DB	0f8H
	DB	0fcH
	DB	0f8H
	DB	0ffH
	DB	0f8H
	DB	0fcH
	DB	0f8H
	DB	0ffH
	DB	0f8H
	DB	0fcH
	DB	0f8H
	DB	0ffH
	DB	0f8H
	DB	0fcH
	DB	0f8H
	DB	0ffH
	DB	0f8H
	DB	0fcH
	DB	0f8H
	DB	0ffH
	DB	0f8H
	DB	0fcH
	DB	0f8H
	DB	0ffH
	DB	0f8H
	DB	0fcH
	DB	0f8H
	DB	0ffH
	DB	0f8H
	DB	0fcH
	DB	0f8H
	DB	0ffH
	DB	0f8H
	DB	0fcH
	DB	0f8H
	DB	0ffH
	DB	0f8H
	DB	0fcH
	DB	0f8H
	DB	0ffH
	DB	0f8H
	DB	0fcH
	DB	0f8H
	DB	0ffH
	DB	0f8H
	DB	0fcH
	DB	0f8H
	DB	0ffH
	DB	0f8H
	DB	0fcH
	DB	0f8H
	DB	0ffH
	DB	0f8H
	DB	0fcH
	DB	0f8H
	DB	0ffH
	DB	0f8H
	DB	0fcH
	DB	0f8H
	DB	0ffH
	DB	0f8H
	DB	0fcH
	DB	0f8H
	DB	0ffH
	DB	0f8H
	DB	0fcH
	DB	0f8H
	DB	0ffH
	DB	0f8H
	DB	0fcH
	DB	0f8H
	DB	0ffH
	DB	0f8H
	DB	0fcH
	DB	0f8H
	DB	0ffH
	DB	0f8H
	DB	0fcH
	DB	0f8H
	DB	0ffH
	DB	0e8H
	DB	0dcH
	DB	0c8H
	DB	0ffH
	DB	0d0H
	DB	0b4H
	DB	090H
	DB	0ffH
	DB	0d0H
	DB	0b0H
	DB	090H
	DB	0ffH
	DB	0d0H
	DB	0b0H
	DB	088H
	DB	0cbH
	DB	0d0H
	DB	0b0H
	DB	088H
	DB	014H
	DB	0f8H
	DB	0fcH
	DB	0f8H
	DB	00H
	DB	0f8H
	DB	0fcH
	DB	0f8H
	DB	00H
	DB	0f8H
	DB	0fcH
	DB	0f8H
	DB	00H
	DB	0f8H
	DB	0fcH
	DB	0f8H
	DB	00H
	DB	0f8H
	DB	0fcH
	DB	0f8H
	DB	00H
	DB	0d0H
	DB	0b0H
	DB	088H
	DB	00H
	DB	0d0H
	DB	0b0H
	DB	088H
	DB	00H
	DB	0d0H
	DB	0b4H
	DB	090H
	DB	00H
	DB	0c8H
	DB	0b0H
	DB	088H
	DB	00H
	DB	0d0H
	DB	0b0H
	DB	088H
	DB	014H
	DB	0d0H
	DB	0b4H
	DB	090H
	DB	0d7H
	DB	0d0H
	DB	0b0H
	DB	088H
	DB	0ffH
	DB	0d0H
	DB	0b0H
	DB	090H
	DB	0ffH
	DB	0d0H
	DB	0b4H
	DB	088H
	DB	0ffH
	DB	0d0H
	DB	0b4H
	DB	088H
	DB	0ffH
	DB	0c8H
	DB	0b0H
	DB	090H
	DB	0ffH
	DB	0d0H
	DB	0b4H
	DB	088H
	DB	0ffH
	DB	0d0H
	DB	0b0H
	DB	090H
	DB	0ffH
	DB	0d0H
	DB	0b0H
	DB	088H
	DB	0ffH
	DB	0c8H
	DB	0acH
	DB	088H
	DB	0ffH
	DB	0c8H
	DB	0acH
	DB	080H
	DB	0ffH
	DB	0c8H
	DB	0a8H
	DB	080H
	DB	0ffH
	DB	0c8H
	DB	0a8H
	DB	080H
	DB	0ffH
	DB	0c8H
	DB	0a8H
	DB	080H
	DB	0ffH
	DB	0c8H
	DB	0a8H
	DB	080H
	DB	0ffH
	DB	0c8H
	DB	0acH
	DB	080H
	DB	0ffH
	DB	0c8H
	DB	0acH
	DB	088H
	DB	0ffH
	DB	0d0H
	DB	0b0H
	DB	088H
	DB	0ffH
	DB	0c8H
	DB	0b0H
	DB	090H
	DB	0ffH
	DB	0d0H
	DB	0b4H
	DB	088H
	DB	0ffH
	DB	0d0H
	DB	0b4H
	DB	088H
	DB	0ffH
	DB	0c8H
	DB	0b0H
	DB	090H
	DB	0ffH
	DB	0d0H
	DB	0b0H
	DB	088H
	DB	0ffH
	DB	0d0H
	DB	0b0H
	DB	088H
	DB	0ffH
	DB	0d0H
	DB	0b0H
	DB	090H
	DB	0ffH
	DB	0d0H
	DB	0bcH
	DB	0a0H
	DB	0ffH
	DB	0f8H
	DB	0fcH
	DB	0f8H
	DB	0ffH
	DB	0f8H
	DB	0fcH
	DB	0f8H
	DB	0ffH
	DB	0f8H
	DB	0fcH
	DB	0f8H
	DB	0ffH
	DB	0f8H
	DB	0fcH
	DB	0f8H
	DB	0ffH
	DB	0f8H
	DB	0fcH
	DB	0f8H
	DB	0ffH
	DB	0f8H
	DB	0fcH
	DB	0f8H
	DB	0ffH
	DB	0f8H
	DB	0fcH
	DB	0f8H
	DB	0ffH
	DB	0f8H
	DB	0fcH
	DB	0f8H
	DB	0ffH
	DB	0f8H
	DB	0fcH
	DB	0f8H
	DB	0ffH
	DB	0f8H
	DB	0fcH
	DB	0f8H
	DB	0ffH
	DB	0f8H
	DB	0fcH
	DB	0f8H
	DB	0ffH
	DB	0f8H
	DB	0fcH
	DB	0f8H
	DB	0ffH
	DB	0f8H
	DB	0fcH
	DB	0f8H
	DB	0ffH
	DB	0f8H
	DB	0fcH
	DB	0f8H
	DB	0ffH
	DB	0f8H
	DB	0fcH
	DB	0f8H
	DB	0ffH
	DB	0f8H
	DB	0fcH
	DB	0f8H
	DB	0ffH
	DB	0f8H
	DB	0fcH
	DB	0f8H
	DB	0ffH
	DB	0f8H
	DB	0fcH
	DB	0f8H
	DB	0ffH
	DB	0f8H
	DB	0fcH
	DB	0f8H
	DB	0ffH
	DB	0f8H
	DB	0fcH
	DB	0f8H
	DB	0ffH
	DB	0f8H
	DB	0fcH
	DB	0f8H
	DB	0ffH
	DB	0f8H
	DB	0fcH
	DB	0f8H
	DB	0ffH
	DB	0f8H
	DB	0fcH
	DB	0f8H
	DB	0ffH
	DB	0f8H
	DB	0fcH
	DB	0f8H
	DB	0ffH
	DB	0f8H
	DB	0fcH
	DB	0f8H
	DB	0ffH
	DB	0f8H
	DB	0fcH
	DB	0f8H
	DB	0ffH
	DB	0f8H
	DB	0fcH
	DB	0f8H
	DB	0ffH
	DB	0f8H
	DB	0fcH
	DB	0f8H
	DB	0ffH
	DB	0f8H
	DB	0fcH
	DB	0f8H
	DB	0ffH
	DB	0f8H
	DB	0fcH
	DB	0f8H
	DB	0ffH
	DB	0f8H
	DB	0fcH
	DB	0f8H
	DB	0ffH
	DB	0f8H
	DB	0fcH
	DB	0f8H
	DB	0ffH
	DB	0f8H
	DB	0fcH
	DB	0f8H
	DB	0ffH
	DB	0f8H
	DB	0fcH
	DB	0f8H
	DB	0ffH
	DB	0f8H
	DB	0fcH
	DB	0f8H
	DB	0ffH
	DB	0f8H
	DB	0fcH
	DB	0f8H
	DB	0ffH
	DB	0f8H
	DB	0fcH
	DB	0f8H
	DB	0ffH
	DB	0f8H
	DB	0fcH
	DB	0f8H
	DB	0ffH
	DB	0f8H
	DB	0fcH
	DB	0f8H
	DB	0ffH
	DB	0f8H
	DB	0fcH
	DB	0f8H
	DB	0ffH
	DB	0f8H
	DB	0fcH
	DB	0f8H
	DB	0ffH
	DB	0f8H
	DB	0fcH
	DB	0f8H
	DB	0ffH
	DB	0f8H
	DB	0fcH
	DB	0f8H
	DB	0ffH
	DB	0f8H
	DB	0fcH
	DB	0f8H
	DB	0ffH
	DB	0f8H
	DB	0fcH
	DB	0f8H
	DB	0ffH
	DB	0f8H
	DB	0fcH
	DB	0f8H
	DB	0ffH
	DB	0f8H
	DB	0fcH
	DB	0f8H
	DB	0ffH
	DB	0f8H
	DB	0fcH
	DB	0f8H
	DB	0ffH
	DB	0f8H
	DB	0fcH
	DB	0f8H
	DB	0ffH
	DB	0f8H
	DB	0fcH
	DB	0f8H
	DB	0ffH
	DB	0f8H
	DB	0fcH
	DB	0f8H
	DB	0ffH
	DB	0f8H
	DB	0fcH
	DB	0f8H
	DB	0ffH
	DB	0f8H
	DB	0fcH
	DB	0f8H
	DB	0ffH
	DB	0f8H
	DB	0fcH
	DB	0f8H
	DB	0ffH
	DB	0f8H
	DB	0fcH
	DB	0f8H
	DB	0ffH
	DB	0f8H
	DB	0fcH
	DB	0f8H
	DB	0ffH
	DB	0f8H
	DB	0fcH
	DB	0f8H
	DB	0ffH
	DB	0f8H
	DB	0fcH
	DB	0f8H
	DB	0ffH
	DB	0f8H
	DB	0fcH
	DB	0f8H
	DB	0ffH
	DB	0f8H
	DB	0fcH
	DB	0f8H
	DB	0ffH
	DB	0f8H
	DB	0f0H
	DB	0e8H
	DB	0ffH
	DB	0d0H
	DB	0bcH
	DB	0a0H
	DB	0ffH
	DB	0d0H
	DB	0b4H
	DB	088H
	DB	0ffH
	DB	0d0H
	DB	0b0H
	DB	090H
	DB	0d7H
	DB	0c8H
	DB	0b0H
	DB	088H
	DB	014H
	DB	0f8H
	DB	0fcH
	DB	0f8H
	DB	00H
	DB	0f8H
	DB	0fcH
	DB	0f8H
	DB	00H
	DB	0f8H
	DB	0fcH
	DB	0f8H
	DB	00H
	DB	0f8H
	DB	0fcH
	DB	0f8H
	DB	00H
	DB	0d0H
	DB	0b0H
	DB	088H
	DB	00H
	DB	0d0H
	DB	0b0H
	DB	090H
	DB	00H
	DB	0d0H
	DB	0b0H
	DB	088H
	DB	00H
	DB	0d0H
	DB	0b0H
	DB	088H
	DB	08H
	DB	0c8H
	DB	0b0H
	DB	090H
	DB	0c7H
	DB	0d0H
	DB	0b0H
	DB	088H
	DB	0ffH
	DB	0c8H
	DB	0b4H
	DB	088H
	DB	0ffH
	DB	0d0H
	DB	0b0H
	DB	090H
	DB	0ffH
	DB	0d0H
	DB	0b0H
	DB	088H
	DB	0ffH
	DB	0d0H
	DB	0b0H
	DB	090H
	DB	0ffH
	DB	0d0H
	DB	0b0H
	DB	088H
	DB	0ffH
	DB	0d0H
	DB	0b0H
	DB	088H
	DB	0ffH
	DB	0c8H
	DB	0b0H
	DB	088H
	DB	0ffH
	DB	0c8H
	DB	0acH
	DB	088H
	DB	0ffH
	DB	0c8H
	DB	0a8H
	DB	080H
	DB	0ffH
	DB	0d0H
	DB	0b4H
	DB	090H
	DB	0ffH
	DB	0f0H
	DB	0e0H
	DB	0d8H
	DB	0ffH
	DB	0f8H
	DB	0f8H
	DB	0f8H
	DB	0ffH
	DB	0f8H
	DB	0fcH
	DB	0f8H
	DB	0ffH
	DB	0f0H
	DB	0e0H
	DB	0d0H
	DB	0ffH
	DB	0d0H
	DB	0b0H
	DB	090H
	DB	0ffH
	DB	0c8H
	DB	0a8H
	DB	080H
	DB	0ffH
	DB	0c8H
	DB	0acH
	DB	088H
	DB	0ffH
	DB	0d0H
	DB	0b0H
	DB	088H
	DB	0ffH
	DB	0d0H
	DB	0b0H
	DB	088H
	DB	0ffH
	DB	0d0H
	DB	0b0H
	DB	090H
	DB	0ffH
	DB	0d0H
	DB	0b4H
	DB	088H
	DB	0ffH
	DB	0d0H
	DB	0b0H
	DB	088H
	DB	0ffH
	DB	0d0H
	DB	0b0H
	DB	088H
	DB	0ffH
	DB	0c8H
	DB	0b0H
	DB	088H
	DB	0ffH
	DB	0d0H
	DB	0b4H
	DB	088H
	DB	0ffH
	DB	0d8H
	DB	0c4H
	DB	0a0H
	DB	0ffH
	DB	0f8H
	DB	0fcH
	DB	0f8H
	DB	0ffH
	DB	0f8H
	DB	0fcH
	DB	0f8H
	DB	0ffH
	DB	0f8H
	DB	0fcH
	DB	0f8H
	DB	0ffH
	DB	0f8H
	DB	0fcH
	DB	0f8H
	DB	0ffH
	DB	0f8H
	DB	0fcH
	DB	0f8H
	DB	0ffH
	DB	0f8H
	DB	0fcH
	DB	0f8H
	DB	0ffH
	DB	0f8H
	DB	0fcH
	DB	0f8H
	DB	0ffH
	DB	0f8H
	DB	0fcH
	DB	0f8H
	DB	0ffH
	DB	0f8H
	DB	0fcH
	DB	0f8H
	DB	0ffH
	DB	0f8H
	DB	0fcH
	DB	0f8H
	DB	0ffH
	DB	0f8H
	DB	0fcH
	DB	0f8H
	DB	0ffH
	DB	0f8H
	DB	0fcH
	DB	0f8H
	DB	0ffH
	DB	0f8H
	DB	0fcH
	DB	0f8H
	DB	0ffH
	DB	0f8H
	DB	0fcH
	DB	0f8H
	DB	0ffH
	DB	0f8H
	DB	0fcH
	DB	0f8H
	DB	0ffH
	DB	0f8H
	DB	0fcH
	DB	0f8H
	DB	0ffH
	DB	0f8H
	DB	0fcH
	DB	0f8H
	DB	0ffH
	DB	0f8H
	DB	0fcH
	DB	0f8H
	DB	0ffH
	DB	0f8H
	DB	0fcH
	DB	0f8H
	DB	0ffH
	DB	0f8H
	DB	0fcH
	DB	0f8H
	DB	0ffH
	DB	0f8H
	DB	0fcH
	DB	0f8H
	DB	0ffH
	DB	0f8H
	DB	0fcH
	DB	0f8H
	DB	0ffH
	DB	0f8H
	DB	0fcH
	DB	0f8H
	DB	0ffH
	DB	0f8H
	DB	0fcH
	DB	0f8H
	DB	0ffH
	DB	0f8H
	DB	0fcH
	DB	0f8H
	DB	0ffH
	DB	0f8H
	DB	0fcH
	DB	0f8H
	DB	0ffH
	DB	0f8H
	DB	0fcH
	DB	0f8H
	DB	0ffH
	DB	0f8H
	DB	0fcH
	DB	0f8H
	DB	0ffH
	DB	0f8H
	DB	0fcH
	DB	0f8H
	DB	0ffH
	DB	0f8H
	DB	0fcH
	DB	0f8H
	DB	0ffH
	DB	0f8H
	DB	0fcH
	DB	0f8H
	DB	0ffH
	DB	0f8H
	DB	0fcH
	DB	0f8H
	DB	0ffH
	DB	0f8H
	DB	0fcH
	DB	0f8H
	DB	0ffH
	DB	0f8H
	DB	0fcH
	DB	0f8H
	DB	0ffH
	DB	0f8H
	DB	0fcH
	DB	0f8H
	DB	0ffH
	DB	0f8H
	DB	0fcH
	DB	0f8H
	DB	0ffH
	DB	0f8H
	DB	0fcH
	DB	0f8H
	DB	0ffH
	DB	0f8H
	DB	0fcH
	DB	0f8H
	DB	0ffH
	DB	0f8H
	DB	0fcH
	DB	0f8H
	DB	0ffH
	DB	0f8H
	DB	0fcH
	DB	0f8H
	DB	0ffH
	DB	0f8H
	DB	0fcH
	DB	0f8H
	DB	0ffH
	DB	0f8H
	DB	0fcH
	DB	0f8H
	DB	0ffH
	DB	0f8H
	DB	0fcH
	DB	0f8H
	DB	0ffH
	DB	0f8H
	DB	0fcH
	DB	0f8H
	DB	0ffH
	DB	0f8H
	DB	0fcH
	DB	0f8H
	DB	0ffH
	DB	0f8H
	DB	0fcH
	DB	0f8H
	DB	0ffH
	DB	0f8H
	DB	0fcH
	DB	0f8H
	DB	0ffH
	DB	0f8H
	DB	0fcH
	DB	0f8H
	DB	0ffH
	DB	0f8H
	DB	0fcH
	DB	0f8H
	DB	0ffH
	DB	0f8H
	DB	0fcH
	DB	0f8H
	DB	0ffH
	DB	0f8H
	DB	0fcH
	DB	0f8H
	DB	0ffH
	DB	0f8H
	DB	0fcH
	DB	0f8H
	DB	0ffH
	DB	0f8H
	DB	0fcH
	DB	0f8H
	DB	0ffH
	DB	0f8H
	DB	0fcH
	DB	0f8H
	DB	0ffH
	DB	0f8H
	DB	0fcH
	DB	0f8H
	DB	0ffH
	DB	0f8H
	DB	0fcH
	DB	0f8H
	DB	0ffH
	DB	0f8H
	DB	0fcH
	DB	0f8H
	DB	0ffH
	DB	0f8H
	DB	0fcH
	DB	0f8H
	DB	0ffH
	DB	0f8H
	DB	0fcH
	DB	0f8H
	DB	0ffH
	DB	0f8H
	DB	0fcH
	DB	0f8H
	DB	0ffH
	DB	0f8H
	DB	0f8H
	DB	0f0H
	DB	0ffH
	DB	0d8H
	DB	0c0H
	DB	0a0H
	DB	0ffH
	DB	0d0H
	DB	0b0H
	DB	090H
	DB	0ffH
	DB	0d0H
	DB	0b0H
	DB	088H
	DB	0c7H
	DB	0d0H
	DB	0b0H
	DB	088H
	DB	08H
	DB	0f8H
	DB	0fcH
	DB	0f8H
	DB	00H
	DB	0f8H
	DB	0fcH
	DB	0f8H
	DB	00H
	DB	0f8H
	DB	0fcH
	DB	0f8H
	DB	00H
	DB	0d0H
	DB	0b0H
	DB	088H
	DB	00H
	DB	0c8H
	DB	0b4H
	DB	090H
	DB	00H
	DB	0d0H
	DB	0b0H
	DB	088H
	DB	00H
	DB	0d0H
	DB	0b4H
	DB	090H
	DB	09aH
	DB	0d0H
	DB	0b0H
	DB	088H
	DB	0ffH
	DB	0d0H
	DB	0b0H
	DB	088H
	DB	0ffH
	DB	0c8H
	DB	0b0H
	DB	090H
	DB	0ffH
	DB	0d0H
	DB	0b0H
	DB	088H
	DB	0ffH
	DB	0c8H
	DB	0b0H
	DB	088H
	DB	0ffH
	DB	0c8H
	DB	0b4H
	DB	090H
	DB	0ffH
	DB	0d0H
	DB	0b0H
	DB	088H
	DB	0ffH
	DB	0c8H
	DB	0b0H
	DB	090H
	DB	0ffH
	DB	0c8H
	DB	0b0H
	DB	088H
	DB	0ffH
	DB	0c8H
	DB	0acH
	DB	088H
	DB	0ffH
	DB	0d0H
	DB	0b4H
	DB	090H
	DB	0ffH
	DB	0f8H
	DB	0f8H
	DB	0f8H
	DB	0ffH
	DB	0f8H
	DB	0fcH
	DB	0f8H
	DB	0ffH
	DB	0f8H
	DB	0fcH
	DB	0f8H
	DB	0ffH
	DB	0f8H
	DB	0fcH
	DB	0f8H
	DB	0ffH
	DB	0f8H
	DB	0fcH
	DB	0f8H
	DB	0ffH
	DB	0f8H
	DB	0f8H
	DB	0f8H
	DB	0ffH
	DB	0d0H
	DB	0b4H
	DB	090H
	DB	0ffH
	DB	0c8H
	DB	0acH
	DB	088H
	DB	0ffH
	DB	0c8H
	DB	0b0H
	DB	088H
	DB	0ffH
	DB	0c8H
	DB	0b0H
	DB	088H
	DB	0ffH
	DB	0d0H
	DB	0b0H
	DB	090H
	DB	0ffH
	DB	0c8H
	DB	0b0H
	DB	088H
	DB	0ffH
	DB	0d0H
	DB	0b4H
	DB	090H
	DB	0ffH
	DB	0d0H
	DB	0b0H
	DB	090H
	DB	0ffH
	DB	0d0H
	DB	0b0H
	DB	088H
	DB	0ffH
	DB	0d0H
	DB	0b0H
	DB	088H
	DB	0ffH
	DB	0d0H
	DB	0b0H
	DB	090H
	DB	0ffH
	DB	0e0H
	DB	0d0H
	DB	0b8H
	DB	0ffH
	DB	0f8H
	DB	0fcH
	DB	0f8H
	DB	0ffH
	DB	0f8H
	DB	0fcH
	DB	0f8H
	DB	0ffH
	DB	0f8H
	DB	0fcH
	DB	0f8H
	DB	0ffH
	DB	0f8H
	DB	0fcH
	DB	0f8H
	DB	0ffH
	DB	0f8H
	DB	0fcH
	DB	0f8H
	DB	0ffH
	DB	0f8H
	DB	0fcH
	DB	0f8H
	DB	0ffH
	DB	0f8H
	DB	0fcH
	DB	0f8H
	DB	0ffH
	DB	0f8H
	DB	0fcH
	DB	0f8H
	DB	0ffH
	DB	0f8H
	DB	0fcH
	DB	0f8H
	DB	0ffH
	DB	0f8H
	DB	0fcH
	DB	0f8H
	DB	0ffH
	DB	0f8H
	DB	0fcH
	DB	0f8H
	DB	0ffH
	DB	0f8H
	DB	0fcH
	DB	0f8H
	DB	0ffH
	DB	0f8H
	DB	0fcH
	DB	0f8H
	DB	0ffH
	DB	0f8H
	DB	0fcH
	DB	0f8H
	DB	0ffH
	DB	0f8H
	DB	0fcH
	DB	0f8H
	DB	0ffH
	DB	0f8H
	DB	0fcH
	DB	0f8H
	DB	0ffH
	DB	0f8H
	DB	0fcH
	DB	0f8H
	DB	0ffH
	DB	0f8H
	DB	0fcH
	DB	0f8H
	DB	0ffH
	DB	0f8H
	DB	0fcH
	DB	0f8H
	DB	0ffH
	DB	0f8H
	DB	0fcH
	DB	0f8H
	DB	0ffH
	DB	0f8H
	DB	0fcH
	DB	0f8H
	DB	0ffH
	DB	0f8H
	DB	0fcH
	DB	0f8H
	DB	0ffH
	DB	0f8H
	DB	0fcH
	DB	0f8H
	DB	0ffH
	DB	0f8H
	DB	0fcH
	DB	0f8H
	DB	0ffH
	DB	0f8H
	DB	0fcH
	DB	0f8H
	DB	0ffH
	DB	0f8H
	DB	0fcH
	DB	0f8H
	DB	0ffH
	DB	0f8H
	DB	0fcH
	DB	0f8H
	DB	0ffH
	DB	0f8H
	DB	0fcH
	DB	0f8H
	DB	0ffH
	DB	0f8H
	DB	0fcH
	DB	0f8H
	DB	0ffH
	DB	0f8H
	DB	0fcH
	DB	0f8H
	DB	0ffH
	DB	0f8H
	DB	0fcH
	DB	0f8H
	DB	0ffH
	DB	0f8H
	DB	0fcH
	DB	0f8H
	DB	0ffH
	DB	0f8H
	DB	0fcH
	DB	0f8H
	DB	0ffH
	DB	0f8H
	DB	0fcH
	DB	0f8H
	DB	0ffH
	DB	0f8H
	DB	0fcH
	DB	0f8H
	DB	0ffH
	DB	0f8H
	DB	0fcH
	DB	0f8H
	DB	0ffH
	DB	0f8H
	DB	0fcH
	DB	0f8H
	DB	0ffH
	DB	0f8H
	DB	0fcH
	DB	0f8H
	DB	0ffH
	DB	0f8H
	DB	0fcH
	DB	0f8H
	DB	0ffH
	DB	0f8H
	DB	0fcH
	DB	0f8H
	DB	0ffH
	DB	0f8H
	DB	0fcH
	DB	0f8H
	DB	0ffH
	DB	0f8H
	DB	0fcH
	DB	0f8H
	DB	0ffH
	DB	0f8H
	DB	0fcH
	DB	0f8H
	DB	0ffH
	DB	0f8H
	DB	0fcH
	DB	0f8H
	DB	0ffH
	DB	0f8H
	DB	0fcH
	DB	0f8H
	DB	0ffH
	DB	0f8H
	DB	0fcH
	DB	0f8H
	DB	0ffH
	DB	0f8H
	DB	0fcH
	DB	0f8H
	DB	0ffH
	DB	0f8H
	DB	0fcH
	DB	0f8H
	DB	0ffH
	DB	0f8H
	DB	0fcH
	DB	0f8H
	DB	0ffH
	DB	0f8H
	DB	0fcH
	DB	0f8H
	DB	0ffH
	DB	0f8H
	DB	0fcH
	DB	0f8H
	DB	0ffH
	DB	0f8H
	DB	0fcH
	DB	0f8H
	DB	0ffH
	DB	0f8H
	DB	0fcH
	DB	0f8H
	DB	0ffH
	DB	0f8H
	DB	0fcH
	DB	0f8H
	DB	0ffH
	DB	0f8H
	DB	0fcH
	DB	0f8H
	DB	0ffH
	DB	0f8H
	DB	0fcH
	DB	0f8H
	DB	0ffH
	DB	0f8H
	DB	0fcH
	DB	0f8H
	DB	0ffH
	DB	0f8H
	DB	0fcH
	DB	0f8H
	DB	0ffH
	DB	0f8H
	DB	0fcH
	DB	0f8H
	DB	0ffH
	DB	0f8H
	DB	0fcH
	DB	0f8H
	DB	0ffH
	DB	0f8H
	DB	0f8H
	DB	0f8H
	DB	0ffH
	DB	0d0H
	DB	0bcH
	DB	098H
	DB	0ffH
	DB	0d0H
	DB	0b4H
	DB	090H
	DB	0ffH
	DB	0d0H
	DB	0b0H
	DB	088H
	DB	09aH
	DB	0f8H
	DB	0fcH
	DB	0f8H
	DB	00H
	DB	0f8H
	DB	0fcH
	DB	0f8H
	DB	00H
	DB	0f8H
	DB	0fcH
	DB	0f8H
	DB	00H
	DB	0d0H
	DB	0b0H
	DB	088H
	DB	00H
	DB	0c8H
	DB	0b0H
	DB	088H
	DB	00H
	DB	0d0H
	DB	0b0H
	DB	090H
	DB	045H
	DB	0d0H
	DB	0b4H
	DB	088H
	DB	0ffH
	DB	0c8H
	DB	0b0H
	DB	088H
	DB	0ffH
	DB	0d0H
	DB	0b0H
	DB	090H
	DB	0ffH
	DB	0d0H
	DB	0b4H
	DB	090H
	DB	0ffH
	DB	0d0H
	DB	0b0H
	DB	088H
	DB	0ffH
	DB	0d0H
	DB	0b0H
	DB	088H
	DB	0ffH
	DB	0d0H
	DB	0b4H
	DB	090H
	DB	0ffH
	DB	0d0H
	DB	0b0H
	DB	088H
	DB	0ffH
	DB	0d0H
	DB	0b0H
	DB	088H
	DB	0ffH
	DB	0c8H
	DB	0acH
	DB	088H
	DB	0ffH
	DB	0c8H
	DB	0a8H
	DB	080H
	DB	0ffH
	DB	0f0H
	DB	0e0H
	DB	0d0H
	DB	0ffH
	DB	0f8H
	DB	0fcH
	DB	0f8H
	DB	0ffH
	DB	0f8H
	DB	0fcH
	DB	0f8H
	DB	0ffH
	DB	0f8H
	DB	0fcH
	DB	0f8H
	DB	0ffH
	DB	0f8H
	DB	0fcH
	DB	0f8H
	DB	0ffH
	DB	0f8H
	DB	0fcH
	DB	0f8H
	DB	0ffH
	DB	0f8H
	DB	0fcH
	DB	0f8H
	DB	0ffH
	DB	0e8H
	DB	0e0H
	DB	0d8H
	DB	0ffH
	DB	0c8H
	DB	0a8H
	DB	080H
	DB	0ffH
	DB	0c8H
	DB	0acH
	DB	088H
	DB	0ffH
	DB	0d0H
	DB	0b0H
	DB	088H
	DB	0ffH
	DB	0d0H
	DB	0b0H
	DB	088H
	DB	0ffH
	DB	0d0H
	DB	0b0H
	DB	090H
	DB	0ffH
	DB	0c8H
	DB	0b0H
	DB	088H
	DB	0ffH
	DB	0d0H
	DB	0b4H
	DB	090H
	DB	0ffH
	DB	0d0H
	DB	0b0H
	DB	088H
	DB	0ffH
	DB	0c8H
	DB	0b0H
	DB	090H
	DB	0ffH
	DB	0d0H
	DB	0b0H
	DB	088H
	DB	0ffH
	DB	0d0H
	DB	0b0H
	DB	088H
	DB	0ffH
	DB	0f0H
	DB	0ecH
	DB	0e0H
	DB	0ffH
	DB	0f8H
	DB	0fcH
	DB	0f8H
	DB	0ffH
	DB	0f8H
	DB	0fcH
	DB	0f8H
	DB	0ffH
	DB	0f8H
	DB	0fcH
	DB	0f8H
	DB	0ffH
	DB	0f8H
	DB	0fcH
	DB	0f8H
	DB	0ffH
	DB	0f8H
	DB	0fcH
	DB	0f8H
	DB	0ffH
	DB	0f8H
	DB	0fcH
	DB	0f8H
	DB	0ffH
	DB	0f8H
	DB	0fcH
	DB	0f8H
	DB	0ffH
	DB	0f8H
	DB	0fcH
	DB	0f8H
	DB	0ffH
	DB	0f8H
	DB	0fcH
	DB	0f8H
	DB	0ffH
	DB	0f8H
	DB	0fcH
	DB	0f8H
	DB	0ffH
	DB	0f8H
	DB	0fcH
	DB	0f8H
	DB	0ffH
	DB	0f8H
	DB	0fcH
	DB	0f8H
	DB	0ffH
	DB	0f8H
	DB	0fcH
	DB	0f8H
	DB	0ffH
	DB	0f8H
	DB	0fcH
	DB	0f8H
	DB	0ffH
	DB	0f8H
	DB	0fcH
	DB	0f8H
	DB	0ffH
	DB	0f8H
	DB	0fcH
	DB	0f8H
	DB	0ffH
	DB	0f8H
	DB	0fcH
	DB	0f8H
	DB	0ffH
	DB	0f8H
	DB	0fcH
	DB	0f8H
	DB	0ffH
	DB	0f8H
	DB	0fcH
	DB	0f8H
	DB	0ffH
	DB	0f8H
	DB	0fcH
	DB	0f8H
	DB	0ffH
	DB	0f8H
	DB	0fcH
	DB	0f8H
	DB	0ffH
	DB	0f8H
	DB	0fcH
	DB	0f8H
	DB	0ffH
	DB	0f8H
	DB	0fcH
	DB	0f8H
	DB	0ffH
	DB	0f8H
	DB	0fcH
	DB	0f8H
	DB	0ffH
	DB	0f8H
	DB	0fcH
	DB	0f8H
	DB	0ffH
	DB	0f8H
	DB	0fcH
	DB	0f8H
	DB	0ffH
	DB	0f8H
	DB	0fcH
	DB	0f8H
	DB	0ffH
	DB	0f8H
	DB	0fcH
	DB	0f8H
	DB	0ffH
	DB	0f8H
	DB	0fcH
	DB	0f8H
	DB	0ffH
	DB	0f8H
	DB	0fcH
	DB	0f8H
	DB	0ffH
	DB	0f8H
	DB	0fcH
	DB	0f8H
	DB	0ffH
	DB	0f8H
	DB	0fcH
	DB	0f8H
	DB	0ffH
	DB	0f8H
	DB	0fcH
	DB	0f8H
	DB	0ffH
	DB	0f8H
	DB	0fcH
	DB	0f8H
	DB	0ffH
	DB	0f8H
	DB	0fcH
	DB	0f8H
	DB	0ffH
	DB	0f8H
	DB	0fcH
	DB	0f8H
	DB	0ffH
	DB	0f8H
	DB	0fcH
	DB	0f8H
	DB	0ffH
	DB	0f8H
	DB	0fcH
	DB	0f8H
	DB	0ffH
	DB	0f8H
	DB	0fcH
	DB	0f8H
	DB	0ffH
	DB	0f8H
	DB	0fcH
	DB	0f8H
	DB	0ffH
	DB	0f8H
	DB	0fcH
	DB	0f8H
	DB	0ffH
	DB	0f8H
	DB	0fcH
	DB	0f8H
	DB	0ffH
	DB	0f8H
	DB	0fcH
	DB	0f8H
	DB	0ffH
	DB	0f8H
	DB	0fcH
	DB	0f8H
	DB	0ffH
	DB	0f8H
	DB	0fcH
	DB	0f8H
	DB	0ffH
	DB	0f8H
	DB	0fcH
	DB	0f8H
	DB	0ffH
	DB	0f8H
	DB	0fcH
	DB	0f8H
	DB	0ffH
	DB	0f8H
	DB	0fcH
	DB	0f8H
	DB	0ffH
	DB	0f8H
	DB	0fcH
	DB	0f8H
	DB	0ffH
	DB	0f8H
	DB	0fcH
	DB	0f8H
	DB	0ffH
	DB	0f8H
	DB	0fcH
	DB	0f8H
	DB	0ffH
	DB	0f8H
	DB	0fcH
	DB	0f8H
	DB	0ffH
	DB	0f8H
	DB	0fcH
	DB	0f8H
	DB	0ffH
	DB	0f8H
	DB	0fcH
	DB	0f8H
	DB	0ffH
	DB	0f8H
	DB	0fcH
	DB	0f8H
	DB	0ffH
	DB	0f8H
	DB	0fcH
	DB	0f8H
	DB	0ffH
	DB	0f8H
	DB	0fcH
	DB	0f8H
	DB	0ffH
	DB	0f8H
	DB	0fcH
	DB	0f8H
	DB	0ffH
	DB	0f8H
	DB	0fcH
	DB	0f8H
	DB	0ffH
	DB	0f8H
	DB	0fcH
	DB	0f8H
	DB	0ffH
	DB	0f8H
	DB	0f0H
	DB	0e8H
	DB	0ffH
	DB	0d0H
	DB	0b4H
	DB	090H
	DB	0ffH
	DB	0c8H
	DB	0b0H
	DB	090H
	DB	0ffH
	DB	0d0H
	DB	0b0H
	DB	088H
	DB	045H
	DB	0f8H
	DB	0fcH
	DB	0f8H
	DB	00H
	DB	0f8H
	DB	0fcH
	DB	0f8H
	DB	00H
	DB	0d0H
	DB	0b0H
	DB	088H
	DB	00H
	DB	0d0H
	DB	0b0H
	DB	090H
	DB	00H
	DB	0d0H
	DB	0b0H
	DB	088H
	DB	0d7H
	DB	0c8H
	DB	0b0H
	DB	088H
	DB	0ffH
	DB	0d0H
	DB	0b0H
	DB	090H
	DB	0ffH
	DB	0d0H
	DB	0b4H
	DB	088H
	DB	0ffH
	DB	0d0H
	DB	0b0H
	DB	088H
	DB	0ffH
	DB	0c8H
	DB	0b0H
	DB	090H
	DB	0ffH
	DB	0d0H
	DB	0b4H
	DB	088H
	DB	0ffH
	DB	0d0H
	DB	0b0H
	DB	088H
	DB	0ffH
	DB	0d0H
	DB	0b0H
	DB	090H
	DB	0ffH
	DB	0d0H
	DB	0b0H
	DB	088H
	DB	0ffH
	DB	0c8H
	DB	0acH
	DB	088H
	DB	0ffH
	DB	0c8H
	DB	0a8H
	DB	080H
	DB	0ffH
	DB	0f8H
	DB	0f8H
	DB	0f8H
	DB	0ffH
	DB	0f8H
	DB	0fcH
	DB	0f8H
	DB	0ffH
	DB	0f8H
	DB	0fcH
	DB	0f8H
	DB	0ffH
	DB	0f8H
	DB	0fcH
	DB	0f8H
	DB	0ffH
	DB	0f8H
	DB	0fcH
	DB	0f8H
	DB	0ffH
	DB	0f8H
	DB	0fcH
	DB	0f8H
	DB	0ffH
	DB	0f8H
	DB	0fcH
	DB	0f8H
	DB	0ffH
	DB	0f8H
	DB	0fcH
	DB	0f8H
	DB	0ffH
	DB	0c8H
	DB	0a4H
	DB	080H
	DB	0ffH
	DB	0c8H
	DB	0acH
	DB	088H
	DB	0ffH
	DB	0d0H
	DB	0b0H
	DB	088H
	DB	0ffH
	DB	0d0H
	DB	0b4H
	DB	088H
	DB	0ffH
	DB	0d0H
	DB	0b0H
	DB	088H
	DB	0ffH
	DB	0c8H
	DB	0b0H
	DB	088H
	DB	0ffH
	DB	0d0H
	DB	0b4H
	DB	088H
	DB	0ffH
	DB	0d0H
	DB	0b0H
	DB	090H
	DB	0ffH
	DB	0c8H
	DB	0b4H
	DB	088H
	DB	0ffH
	DB	0d0H
	DB	0b0H
	DB	088H
	DB	0ffH
	DB	0d0H
	DB	0b0H
	DB	090H
	DB	0ffH
	DB	0d8H
	DB	0c0H
	DB	0a0H
	DB	0ffH
	DB	0f8H
	DB	0fcH
	DB	0f8H
	DB	0ffH
	DB	0f8H
	DB	0fcH
	DB	0f8H
	DB	0ffH
	DB	0f8H
	DB	0fcH
	DB	0f8H
	DB	0ffH
	DB	0f8H
	DB	0fcH
	DB	0f8H
	DB	0ffH
	DB	0f8H
	DB	0fcH
	DB	0f8H
	DB	0ffH
	DB	0f8H
	DB	0fcH
	DB	0f8H
	DB	0ffH
	DB	0f8H
	DB	0fcH
	DB	0f8H
	DB	0ffH
	DB	0f8H
	DB	0fcH
	DB	0f8H
	DB	0ffH
	DB	0f8H
	DB	0fcH
	DB	0f8H
	DB	0ffH
	DB	0f8H
	DB	0fcH
	DB	0f8H
	DB	0ffH
	DB	0f8H
	DB	0fcH
	DB	0f8H
	DB	0ffH
	DB	0f8H
	DB	0fcH
	DB	0f8H
	DB	0ffH
	DB	0f8H
	DB	0fcH
	DB	0f8H
	DB	0ffH
	DB	0f8H
	DB	0fcH
	DB	0f8H
	DB	0ffH
	DB	0f8H
	DB	0fcH
	DB	0f8H
	DB	0ffH
	DB	0f8H
	DB	0fcH
	DB	0f8H
	DB	0ffH
	DB	0f8H
	DB	0fcH
	DB	0f8H
	DB	0ffH
	DB	0f8H
	DB	0fcH
	DB	0f8H
	DB	0ffH
	DB	0f8H
	DB	0fcH
	DB	0f8H
	DB	0ffH
	DB	0f8H
	DB	0fcH
	DB	0f8H
	DB	0ffH
	DB	0f8H
	DB	0fcH
	DB	0f8H
	DB	0ffH
	DB	0f8H
	DB	0fcH
	DB	0f8H
	DB	0ffH
	DB	0f8H
	DB	0fcH
	DB	0f8H
	DB	0ffH
	DB	0f8H
	DB	0fcH
	DB	0f8H
	DB	0ffH
	DB	0f8H
	DB	0fcH
	DB	0f8H
	DB	0ffH
	DB	0f8H
	DB	0fcH
	DB	0f8H
	DB	0ffH
	DB	0f8H
	DB	0fcH
	DB	0f8H
	DB	0ffH
	DB	0f8H
	DB	0fcH
	DB	0f8H
	DB	0ffH
	DB	0f8H
	DB	0fcH
	DB	0f8H
	DB	0ffH
	DB	0f8H
	DB	0fcH
	DB	0f8H
	DB	0ffH
	DB	0f8H
	DB	0fcH
	DB	0f8H
	DB	0ffH
	DB	0f8H
	DB	0fcH
	DB	0f8H
	DB	0ffH
	DB	0f8H
	DB	0fcH
	DB	0f8H
	DB	0ffH
	DB	0f8H
	DB	0fcH
	DB	0f8H
	DB	0ffH
	DB	0f8H
	DB	0fcH
	DB	0f8H
	DB	0ffH
	DB	0f8H
	DB	0fcH
	DB	0f8H
	DB	0ffH
	DB	0f8H
	DB	0fcH
	DB	0f8H
	DB	0ffH
	DB	0f8H
	DB	0fcH
	DB	0f8H
	DB	0ffH
	DB	0f8H
	DB	0fcH
	DB	0f8H
	DB	0ffH
	DB	0f8H
	DB	0fcH
	DB	0f8H
	DB	0ffH
	DB	0f8H
	DB	0fcH
	DB	0f8H
	DB	0ffH
	DB	0f8H
	DB	0fcH
	DB	0f8H
	DB	0ffH
	DB	0f8H
	DB	0fcH
	DB	0f8H
	DB	0ffH
	DB	0f8H
	DB	0fcH
	DB	0f8H
	DB	0ffH
	DB	0f8H
	DB	0fcH
	DB	0f8H
	DB	0ffH
	DB	0f8H
	DB	0fcH
	DB	0f8H
	DB	0ffH
	DB	0f8H
	DB	0fcH
	DB	0f8H
	DB	0ffH
	DB	0f8H
	DB	0fcH
	DB	0f8H
	DB	0ffH
	DB	0f8H
	DB	0fcH
	DB	0f8H
	DB	0ffH
	DB	0f8H
	DB	0fcH
	DB	0f8H
	DB	0ffH
	DB	0f8H
	DB	0fcH
	DB	0f8H
	DB	0ffH
	DB	0f8H
	DB	0fcH
	DB	0f8H
	DB	0ffH
	DB	0f8H
	DB	0fcH
	DB	0f8H
	DB	0ffH
	DB	0f8H
	DB	0fcH
	DB	0f8H
	DB	0ffH
	DB	0f8H
	DB	0fcH
	DB	0f8H
	DB	0ffH
	DB	0f8H
	DB	0fcH
	DB	0f8H
	DB	0ffH
	DB	0f8H
	DB	0fcH
	DB	0f8H
	DB	0ffH
	DB	0f8H
	DB	0fcH
	DB	0f8H
	DB	0ffH
	DB	0f8H
	DB	0fcH
	DB	0f8H
	DB	0ffH
	DB	0f8H
	DB	0fcH
	DB	0f8H
	DB	0ffH
	DB	0f8H
	DB	0fcH
	DB	0f8H
	DB	0ffH
	DB	0e8H
	DB	0dcH
	DB	0c8H
	DB	0ffH
	DB	0d0H
	DB	0b0H
	DB	088H
	DB	0ffH
	DB	0d0H
	DB	0b0H
	DB	090H
	DB	0d7H
	DB	0d0H
	DB	0b0H
	DB	088H
	DB	04H
	DB	0f8H
	DB	0fcH
	DB	0f8H
	DB	00H
	DB	0d0H
	DB	0b0H
	DB	088H
	DB	00H
	DB	0d0H
	DB	0b4H
	DB	090H
	DB	059H
	DB	0c8H
	DB	0b0H
	DB	088H
	DB	0ffH
	DB	0d0H
	DB	0b0H
	DB	090H
	DB	0ffH
	DB	0d0H
	DB	0b4H
	DB	088H
	DB	0ffH
	DB	0d0H
	DB	0b0H
	DB	088H
	DB	0ffH
	DB	0c8H
	DB	0b0H
	DB	088H
	DB	0ffH
	DB	0d0H
	DB	0b0H
	DB	090H
	DB	0ffH
	DB	0d0H
	DB	0b0H
	DB	088H
	DB	0ffH
	DB	0c8H
	DB	0b0H
	DB	088H
	DB	0ffH
	DB	0d0H
	DB	0b4H
	DB	090H
	DB	0ffH
	DB	0c8H
	DB	0b0H
	DB	088H
	DB	0ffH
	DB	0c8H
	DB	0acH
	DB	080H
	DB	0ffH
	DB	0c8H
	DB	0a4H
	DB	080H
	DB	0ffH
	DB	0f8H
	DB	0fcH
	DB	0f8H
	DB	0ffH
	DB	0f8H
	DB	0fcH
	DB	0f8H
	DB	0ffH
	DB	0f8H
	DB	0fcH
	DB	0f8H
	DB	0ffH
	DB	0f8H
	DB	0fcH
	DB	0f8H
	DB	0ffH
	DB	0f8H
	DB	0fcH
	DB	0f8H
	DB	0ffH
	DB	0f8H
	DB	0fcH
	DB	0f8H
	DB	0ffH
	DB	0f8H
	DB	0fcH
	DB	0f8H
	DB	0ffH
	DB	0f8H
	DB	0fcH
	DB	0f8H
	DB	0ffH
	DB	0c8H
	DB	0a4H
	DB	078H
	DB	0ffH
	DB	0c8H
	DB	0acH
	DB	080H
	DB	0ffH
	DB	0c8H
	DB	0b0H
	DB	088H
	DB	0ffH
	DB	0d0H
	DB	0b0H
	DB	090H
	DB	0ffH
	DB	0d0H
	DB	0b0H
	DB	090H
	DB	0ffH
	DB	0d0H
	DB	0b0H
	DB	088H
	DB	0ffH
	DB	0d0H
	DB	0b0H
	DB	088H
	DB	0ffH
	DB	0d0H
	DB	0b0H
	DB	090H
	DB	0ffH
	DB	0d0H
	DB	0b0H
	DB	088H
	DB	0ffH
	DB	0c8H
	DB	0b4H
	DB	088H
	DB	0ffH
	DB	0d0H
	DB	0b0H
	DB	090H
	DB	0ffH
	DB	0d0H
	DB	0b0H
	DB	088H
	DB	0ffH
	DB	0e8H
	DB	0e4H
	DB	0d8H
	DB	0ffH
	DB	0f8H
	DB	0fcH
	DB	0f8H
	DB	0ffH
	DB	0f8H
	DB	0fcH
	DB	0f8H
	DB	0ffH
	DB	0f8H
	DB	0fcH
	DB	0f8H
	DB	0ffH
	DB	0f8H
	DB	0fcH
	DB	0f8H
	DB	0ffH
	DB	0f8H
	DB	0fcH
	DB	0f8H
	DB	0ffH
	DB	0f8H
	DB	0fcH
	DB	0f8H
	DB	0ffH
	DB	0f8H
	DB	0fcH
	DB	0f8H
	DB	0ffH
	DB	0f8H
	DB	0fcH
	DB	0f8H
	DB	0ffH
	DB	0f8H
	DB	0fcH
	DB	0f8H
	DB	0ffH
	DB	0f8H
	DB	0fcH
	DB	0f8H
	DB	0ffH
	DB	0f8H
	DB	0fcH
	DB	0f8H
	DB	0ffH
	DB	0f8H
	DB	0fcH
	DB	0f8H
	DB	0ffH
	DB	0f8H
	DB	0fcH
	DB	0f8H
	DB	0ffH
	DB	0f8H
	DB	0fcH
	DB	0f8H
	DB	0ffH
	DB	0f8H
	DB	0fcH
	DB	0f8H
	DB	0ffH
	DB	0f8H
	DB	0fcH
	DB	0f8H
	DB	0ffH
	DB	0f8H
	DB	0fcH
	DB	0f8H
	DB	0ffH
	DB	0f8H
	DB	0fcH
	DB	0f8H
	DB	0ffH
	DB	0f8H
	DB	0fcH
	DB	0f8H
	DB	0ffH
	DB	0f8H
	DB	0fcH
	DB	0f8H
	DB	0ffH
	DB	0f8H
	DB	0fcH
	DB	0f8H
	DB	0ffH
	DB	0f8H
	DB	0fcH
	DB	0f8H
	DB	0ffH
	DB	0f8H
	DB	0fcH
	DB	0f8H
	DB	0ffH
	DB	0f8H
	DB	0fcH
	DB	0f8H
	DB	0ffH
	DB	0f8H
	DB	0fcH
	DB	0f8H
	DB	0ffH
	DB	0f8H
	DB	0fcH
	DB	0f8H
	DB	0ffH
	DB	0f8H
	DB	0fcH
	DB	0f8H
	DB	0ffH
	DB	0f8H
	DB	0fcH
	DB	0f8H
	DB	0ffH
	DB	0f8H
	DB	0fcH
	DB	0f8H
	DB	0ffH
	DB	0f8H
	DB	0fcH
	DB	0f8H
	DB	0ffH
	DB	0f8H
	DB	0fcH
	DB	0f8H
	DB	0ffH
	DB	0f8H
	DB	0fcH
	DB	0f8H
	DB	0ffH
	DB	0f8H
	DB	0fcH
	DB	0f8H
	DB	0ffH
	DB	0f8H
	DB	0fcH
	DB	0f8H
	DB	0ffH
	DB	0f8H
	DB	0fcH
	DB	0f8H
	DB	0ffH
	DB	0f8H
	DB	0fcH
	DB	0f8H
	DB	0ffH
	DB	0f8H
	DB	0fcH
	DB	0f8H
	DB	0ffH
	DB	0f8H
	DB	0fcH
	DB	0f8H
	DB	0ffH
	DB	0f8H
	DB	0fcH
	DB	0f8H
	DB	0ffH
	DB	0f8H
	DB	0fcH
	DB	0f8H
	DB	0ffH
	DB	0f8H
	DB	0fcH
	DB	0f8H
	DB	0ffH
	DB	0f8H
	DB	0fcH
	DB	0f8H
	DB	0ffH
	DB	0f8H
	DB	0fcH
	DB	0f8H
	DB	0ffH
	DB	0f8H
	DB	0fcH
	DB	0f8H
	DB	0ffH
	DB	0f8H
	DB	0fcH
	DB	0f8H
	DB	0ffH
	DB	0f8H
	DB	0fcH
	DB	0f8H
	DB	0ffH
	DB	0f8H
	DB	0fcH
	DB	0f8H
	DB	0ffH
	DB	0f8H
	DB	0fcH
	DB	0f8H
	DB	0ffH
	DB	0f8H
	DB	0fcH
	DB	0f8H
	DB	0ffH
	DB	0f8H
	DB	0fcH
	DB	0f8H
	DB	0ffH
	DB	0f8H
	DB	0fcH
	DB	0f8H
	DB	0ffH
	DB	0f8H
	DB	0fcH
	DB	0f8H
	DB	0ffH
	DB	0f8H
	DB	0fcH
	DB	0f8H
	DB	0ffH
	DB	0f8H
	DB	0fcH
	DB	0f8H
	DB	0ffH
	DB	0f8H
	DB	0fcH
	DB	0f8H
	DB	0ffH
	DB	0f8H
	DB	0fcH
	DB	0f8H
	DB	0ffH
	DB	0f8H
	DB	0fcH
	DB	0f8H
	DB	0ffH
	DB	0f8H
	DB	0fcH
	DB	0f8H
	DB	0ffH
	DB	0f8H
	DB	0fcH
	DB	0f8H
	DB	0ffH
	DB	0f8H
	DB	0fcH
	DB	0f8H
	DB	0ffH
	DB	0f8H
	DB	0fcH
	DB	0f8H
	DB	0ffH
	DB	0d0H
	DB	0bcH
	DB	098H
	DB	0ffH
	DB	0d0H
	DB	0b0H
	DB	088H
	DB	0ffH
	DB	0d0H
	DB	0b4H
	DB	090H
	DB	059H
	DB	0f8H
	DB	0fcH
	DB	0f8H
	DB	00H
	DB	0d0H
	DB	0b0H
	DB	088H
	DB	00H
	DB	0d0H
	DB	0b0H
	DB	088H
	DB	0c3H
	DB	0d0H
	DB	0b4H
	DB	090H
	DB	0ffH
	DB	0d0H
	DB	0b0H
	DB	088H
	DB	0ffH
	DB	0c8H
	DB	0b0H
	DB	090H
	DB	0ffH
	DB	0d0H
	DB	0b0H
	DB	088H
	DB	0ffH
	DB	0d0H
	DB	0b4H
	DB	090H
	DB	0ffH
	DB	0d0H
	DB	0b0H
	DB	088H
	DB	0ffH
	DB	0d0H
	DB	0b0H
	DB	090H
	DB	0ffH
	DB	0d0H
	DB	0b0H
	DB	088H
	DB	0ffH
	DB	0d0H
	DB	0b0H
	DB	088H
	DB	0ffH
	DB	0c8H
	DB	0b0H
	DB	088H
	DB	0ffH
	DB	0c8H
	DB	0acH
	DB	080H
	DB	0ffH
	DB	0c8H
	DB	0a4H
	DB	078H
	DB	0ffH
	DB	0f8H
	DB	0fcH
	DB	0f8H
	DB	0ffH
	DB	0f8H
	DB	0fcH
	DB	0f8H
	DB	0ffH
	DB	0f8H
	DB	0fcH
	DB	0f8H
	DB	0ffH
	DB	0d0H
	DB	0b0H
	DB	090H
	DB	0ffH
	DB	0d0H
	DB	0b0H
	DB	090H
	DB	0ffH
	DB	0f8H
	DB	0fcH
	DB	0f8H
	DB	0ffH
	DB	0f8H
	DB	0fcH
	DB	0f8H
	DB	0ffH
	DB	0f8H
	DB	0fcH
	DB	0f8H
	DB	0ffH
	DB	0c8H
	DB	0a4H
	DB	080H
	DB	0ffH
	DB	0c8H
	DB	0acH
	DB	080H
	DB	0ffH
	DB	0c8H
	DB	0b0H
	DB	088H
	DB	0ffH
	DB	0d0H
	DB	0b0H
	DB	090H
	DB	0ffH
	DB	0d0H
	DB	0b0H
	DB	088H
	DB	0ffH
	DB	0c8H
	DB	0b4H
	DB	088H
	DB	0ffH
	DB	0d0H
	DB	0b0H
	DB	090H
	DB	0ffH
	DB	0d0H
	DB	0b0H
	DB	088H
	DB	0ffH
	DB	0c8H
	DB	0b0H
	DB	090H
	DB	0ffH
	DB	0d0H
	DB	0b0H
	DB	088H
	DB	0ffH
	DB	0d0H
	DB	0b0H
	DB	088H
	DB	0ffH
	DB	0c8H
	DB	0b0H
	DB	088H
	DB	0ffH
	DB	0d8H
	DB	0c4H
	DB	0a8H
	DB	0ffH
	DB	0f8H
	DB	0fcH
	DB	0f8H
	DB	0ffH
	DB	0f8H
	DB	0fcH
	DB	0f8H
	DB	0ffH
	DB	0f8H
	DB	0fcH
	DB	0f8H
	DB	0ffH
	DB	0f8H
	DB	0fcH
	DB	0f8H
	DB	0ffH
	DB	0f8H
	DB	0fcH
	DB	0f8H
	DB	0ffH
	DB	0f8H
	DB	0fcH
	DB	0f8H
	DB	0ffH
	DB	0f8H
	DB	0fcH
	DB	0f8H
	DB	0ffH
	DB	0f8H
	DB	0fcH
	DB	0f8H
	DB	0ffH
	DB	0f8H
	DB	0fcH
	DB	0f8H
	DB	0ffH
	DB	0f8H
	DB	0fcH
	DB	0f8H
	DB	0ffH
	DB	0f8H
	DB	0fcH
	DB	0f8H
	DB	0ffH
	DB	0f8H
	DB	0fcH
	DB	0f8H
	DB	0ffH
	DB	0f8H
	DB	0fcH
	DB	0f8H
	DB	0ffH
	DB	0f8H
	DB	0fcH
	DB	0f8H
	DB	0ffH
	DB	0f8H
	DB	0fcH
	DB	0f8H
	DB	0ffH
	DB	0f8H
	DB	0fcH
	DB	0f8H
	DB	0ffH
	DB	0f8H
	DB	0fcH
	DB	0f8H
	DB	0ffH
	DB	0f8H
	DB	0fcH
	DB	0f8H
	DB	0ffH
	DB	0f8H
	DB	0fcH
	DB	0f8H
	DB	0ffH
	DB	0f8H
	DB	0fcH
	DB	0f8H
	DB	0ffH
	DB	0f8H
	DB	0fcH
	DB	0f8H
	DB	0ffH
	DB	0f8H
	DB	0fcH
	DB	0f8H
	DB	0ffH
	DB	0f8H
	DB	0fcH
	DB	0f8H
	DB	0ffH
	DB	0f8H
	DB	0fcH
	DB	0f8H
	DB	0ffH
	DB	0f8H
	DB	0fcH
	DB	0f8H
	DB	0ffH
	DB	0f8H
	DB	0fcH
	DB	0f8H
	DB	0ffH
	DB	0f8H
	DB	0fcH
	DB	0f8H
	DB	0ffH
	DB	0f8H
	DB	0fcH
	DB	0f8H
	DB	0ffH
	DB	0f8H
	DB	0fcH
	DB	0f8H
	DB	0ffH
	DB	0f8H
	DB	0fcH
	DB	0f8H
	DB	0ffH
	DB	0f8H
	DB	0fcH
	DB	0f8H
	DB	0ffH
	DB	0f8H
	DB	0fcH
	DB	0f8H
	DB	0ffH
	DB	0f8H
	DB	0fcH
	DB	0f8H
	DB	0ffH
	DB	0f8H
	DB	0fcH
	DB	0f8H
	DB	0ffH
	DB	0f8H
	DB	0fcH
	DB	0f8H
	DB	0ffH
	DB	0f8H
	DB	0fcH
	DB	0f8H
	DB	0ffH
	DB	0f8H
	DB	0fcH
	DB	0f8H
	DB	0ffH
	DB	0f8H
	DB	0fcH
	DB	0f8H
	DB	0ffH
	DB	0f8H
	DB	0fcH
	DB	0f8H
	DB	0ffH
	DB	0f8H
	DB	0fcH
	DB	0f8H
	DB	0ffH
	DB	0f8H
	DB	0fcH
	DB	0f8H
	DB	0ffH
	DB	0f8H
	DB	0fcH
	DB	0f8H
	DB	0ffH
	DB	0f8H
	DB	0fcH
	DB	0f8H
	DB	0ffH
	DB	0f8H
	DB	0fcH
	DB	0f8H
	DB	0ffH
	DB	0f8H
	DB	0fcH
	DB	0f8H
	DB	0ffH
	DB	0f8H
	DB	0fcH
	DB	0f8H
	DB	0ffH
	DB	0f8H
	DB	0fcH
	DB	0f8H
	DB	0ffH
	DB	0f8H
	DB	0fcH
	DB	0f8H
	DB	0ffH
	DB	0f8H
	DB	0fcH
	DB	0f8H
	DB	0ffH
	DB	0f8H
	DB	0fcH
	DB	0f8H
	DB	0ffH
	DB	0f8H
	DB	0fcH
	DB	0f8H
	DB	0ffH
	DB	0f8H
	DB	0fcH
	DB	0f8H
	DB	0ffH
	DB	0f8H
	DB	0fcH
	DB	0f8H
	DB	0ffH
	DB	0f8H
	DB	0fcH
	DB	0f8H
	DB	0ffH
	DB	0f8H
	DB	0fcH
	DB	0f8H
	DB	0ffH
	DB	0f8H
	DB	0fcH
	DB	0f8H
	DB	0ffH
	DB	0f8H
	DB	0fcH
	DB	0f8H
	DB	0ffH
	DB	0f8H
	DB	0fcH
	DB	0f8H
	DB	0ffH
	DB	0f8H
	DB	0fcH
	DB	0f8H
	DB	0ffH
	DB	0f8H
	DB	0fcH
	DB	0f8H
	DB	0ffH
	DB	0f8H
	DB	0fcH
	DB	0f8H
	DB	0ffH
	DB	0e8H
	DB	0e0H
	DB	0d0H
	DB	0ffH
	DB	0d0H
	DB	0b0H
	DB	090H
	DB	0ffH
	DB	0c8H
	DB	0b0H
	DB	088H
	DB	0c3H
	DB	0f8H
	DB	0fcH
	DB	0f8H
	DB	00H
	DB	0d0H
	DB	0b0H
	DB	088H
	DB	020H
	DB	0c8H
	DB	0b0H
	DB	090H
	DB	0ffH
	DB	0d0H
	DB	0b0H
	DB	088H
	DB	0ffH
	DB	0d0H
	DB	0b0H
	DB	088H
	DB	0ffH
	DB	0c8H
	DB	0b0H
	DB	090H
	DB	0ffH
	DB	0d0H
	DB	0b4H
	DB	088H
	DB	0ffH
	DB	0d0H
	DB	0b0H
	DB	088H
	DB	0ffH
	DB	0c8H
	DB	0b4H
	DB	090H
	DB	0ffH
	DB	0d0H
	DB	0b0H
	DB	088H
	DB	0ffH
	DB	0d0H
	DB	0b4H
	DB	090H
	DB	0ffH
	DB	0d0H
	DB	0b0H
	DB	088H
	DB	0ffH
	DB	0c8H
	DB	0b0H
	DB	088H
	DB	0ffH
	DB	0c8H
	DB	0acH
	DB	088H
	DB	0ffH
	DB	0c8H
	DB	0a4H
	DB	080H
	DB	0ffH
	DB	0f8H
	DB	0fcH
	DB	0f8H
	DB	0ffH
	DB	0f8H
	DB	0fcH
	DB	0f8H
	DB	0ffH
	DB	0f8H
	DB	0fcH
	DB	0f8H
	DB	0ffH
	DB	0c0H
	DB	098H
	DB	070H
	DB	0ffH
	DB	0c0H
	DB	098H
	DB	070H
	DB	0ffH
	DB	0f8H
	DB	0fcH
	DB	0f8H
	DB	0ffH
	DB	0f8H
	DB	0fcH
	DB	0f8H
	DB	0ffH
	DB	0f8H
	DB	0fcH
	DB	0f8H
	DB	0ffH
	DB	0c8H
	DB	0a4H
	DB	080H
	DB	0ffH
	DB	0c8H
	DB	0acH
	DB	088H
	DB	0ffH
	DB	0c8H
	DB	0b0H
	DB	088H
	DB	0ffH
	DB	0d0H
	DB	0b0H
	DB	088H
	DB	0ffH
	DB	0d0H
	DB	0b0H
	DB	088H
	DB	0ffH
	DB	0c8H
	DB	0b4H
	DB	090H
	DB	0ffH
	DB	0d0H
	DB	0b0H
	DB	088H
	DB	0ffH
	DB	0d0H
	DB	0b4H
	DB	088H
	DB	0ffH
	DB	0d0H
	DB	0b4H
	DB	090H
	DB	0ffH
	DB	0d0H
	DB	0b0H
	DB	090H
	DB	0ffH
	DB	0d0H
	DB	0b0H
	DB	088H
	DB	0ffH
	DB	0d0H
	DB	0b4H
	DB	090H
	DB	0ffH
	DB	0d0H
	DB	0b4H
	DB	090H
	DB	0ffH
	DB	0f8H
	DB	0f4H
	DB	0f0H
	DB	0ffH
	DB	0f8H
	DB	0fcH
	DB	0f8H
	DB	0ffH
	DB	0f8H
	DB	0fcH
	DB	0f8H
	DB	0ffH
	DB	0f8H
	DB	0fcH
	DB	0f8H
	DB	0ffH
	DB	0f8H
	DB	0fcH
	DB	0f8H
	DB	0ffH
	DB	0f8H
	DB	0fcH
	DB	0f8H
	DB	0ffH
	DB	0f8H
	DB	0fcH
	DB	0f8H
	DB	0ffH
	DB	0f8H
	DB	0fcH
	DB	0f8H
	DB	0ffH
	DB	0f8H
	DB	0fcH
	DB	0f8H
	DB	0ffH
	DB	0f8H
	DB	0fcH
	DB	0f8H
	DB	0ffH
	DB	0f8H
	DB	0fcH
	DB	0f8H
	DB	0ffH
	DB	0f8H
	DB	0fcH
	DB	0f8H
	DB	0ffH
	DB	0f8H
	DB	0fcH
	DB	0f8H
	DB	0ffH
	DB	0f8H
	DB	0fcH
	DB	0f8H
	DB	0ffH
	DB	0f8H
	DB	0fcH
	DB	0f8H
	DB	0ffH
	DB	0f8H
	DB	0fcH
	DB	0f8H
	DB	0ffH
	DB	0f8H
	DB	0fcH
	DB	0f8H
	DB	0ffH
	DB	0f8H
	DB	0fcH
	DB	0f8H
	DB	0ffH
	DB	0f8H
	DB	0fcH
	DB	0f8H
	DB	0ffH
	DB	0f8H
	DB	0fcH
	DB	0f8H
	DB	0ffH
	DB	0f8H
	DB	0fcH
	DB	0f8H
	DB	0ffH
	DB	0f8H
	DB	0fcH
	DB	0f8H
	DB	0ffH
	DB	0f8H
	DB	0fcH
	DB	0f8H
	DB	0ffH
	DB	0f8H
	DB	0fcH
	DB	0f8H
	DB	0ffH
	DB	0f8H
	DB	0fcH
	DB	0f8H
	DB	0ffH
	DB	0f8H
	DB	0fcH
	DB	0f8H
	DB	0ffH
	DB	0f8H
	DB	0fcH
	DB	0f8H
	DB	0ffH
	DB	0f8H
	DB	0fcH
	DB	0f8H
	DB	0ffH
	DB	0f8H
	DB	0fcH
	DB	0f8H
	DB	0ffH
	DB	0f8H
	DB	0fcH
	DB	0f8H
	DB	0ffH
	DB	0f8H
	DB	0fcH
	DB	0f8H
	DB	0ffH
	DB	0f8H
	DB	0fcH
	DB	0f8H
	DB	0ffH
	DB	0f8H
	DB	0fcH
	DB	0f8H
	DB	0ffH
	DB	0f8H
	DB	0fcH
	DB	0f8H
	DB	0ffH
	DB	0f8H
	DB	0fcH
	DB	0f8H
	DB	0ffH
	DB	0f8H
	DB	0fcH
	DB	0f8H
	DB	0ffH
	DB	0f8H
	DB	0fcH
	DB	0f8H
	DB	0ffH
	DB	0f8H
	DB	0fcH
	DB	0f8H
	DB	0ffH
	DB	0f8H
	DB	0fcH
	DB	0f8H
	DB	0ffH
	DB	0f8H
	DB	0fcH
	DB	0f8H
	DB	0ffH
	DB	0f8H
	DB	0fcH
	DB	0f8H
	DB	0ffH
	DB	0f8H
	DB	0fcH
	DB	0f8H
	DB	0ffH
	DB	0f8H
	DB	0fcH
	DB	0f8H
	DB	0ffH
	DB	0f8H
	DB	0fcH
	DB	0f8H
	DB	0ffH
	DB	0f8H
	DB	0fcH
	DB	0f8H
	DB	0ffH
	DB	0f8H
	DB	0fcH
	DB	0f8H
	DB	0ffH
	DB	0f8H
	DB	0fcH
	DB	0f8H
	DB	0ffH
	DB	0f8H
	DB	0fcH
	DB	0f8H
	DB	0ffH
	DB	0f8H
	DB	0fcH
	DB	0f8H
	DB	0ffH
	DB	0f8H
	DB	0fcH
	DB	0f8H
	DB	0ffH
	DB	0f8H
	DB	0fcH
	DB	0f8H
	DB	0ffH
	DB	0f8H
	DB	0fcH
	DB	0f8H
	DB	0ffH
	DB	0f8H
	DB	0fcH
	DB	0f8H
	DB	0ffH
	DB	0f8H
	DB	0fcH
	DB	0f8H
	DB	0ffH
	DB	0f8H
	DB	0fcH
	DB	0f8H
	DB	0ffH
	DB	0f8H
	DB	0fcH
	DB	0f8H
	DB	0ffH
	DB	0f8H
	DB	0fcH
	DB	0f8H
	DB	0ffH
	DB	0f8H
	DB	0fcH
	DB	0f8H
	DB	0ffH
	DB	0f8H
	DB	0fcH
	DB	0f8H
	DB	0ffH
	DB	0f8H
	DB	0fcH
	DB	0f8H
	DB	0ffH
	DB	0f8H
	DB	0fcH
	DB	0f8H
	DB	0ffH
	DB	0f8H
	DB	0fcH
	DB	0f8H
	DB	0ffH
	DB	0d0H
	DB	0b4H
	DB	090H
	DB	0ffH
	DB	0d0H
	DB	0b0H
	DB	088H
	DB	0ffH
	DB	0d0H
	DB	0b0H
	DB	088H
	DB	020H
	DB	0d0H
	DB	0b0H
	DB	088H
	DB	069H
	DB	0c8H
	DB	0b0H
	DB	090H
	DB	0ffH
	DB	0d0H
	DB	0b4H
	DB	088H
	DB	0ffH
	DB	0d0H
	DB	0b0H
	DB	088H
	DB	0ffH
	DB	0d0H
	DB	0b0H
	DB	090H
	DB	0ffH
	DB	0d0H
	DB	0b0H
	DB	088H
	DB	0ffH
	DB	0c8H
	DB	0b0H
	DB	088H
	DB	0ffH
	DB	0d0H
	DB	0b0H
	DB	090H
	DB	0ffH
	DB	0c8H
	DB	0b0H
	DB	088H
	DB	0ffH
	DB	0d0H
	DB	0b0H
	DB	088H
	DB	0ffH
	DB	0d0H
	DB	0b0H
	DB	090H
	DB	0ffH
	DB	0c8H
	DB	0b0H
	DB	088H
	DB	0ffH
	DB	0c8H
	DB	0a8H
	DB	080H
	DB	0ffH
	DB	0c8H
	DB	0a4H
	DB	078H
	DB	0ffH
	DB	0f8H
	DB	0fcH
	DB	0f8H
	DB	0ffH
	DB	0f8H
	DB	0fcH
	DB	0f8H
	DB	0ffH
	DB	0f8H
	DB	0fcH
	DB	0f8H
	DB	0ffH
	DB	0c0H
	DB	09cH
	DB	070H
	DB	0ffH
	DB	0c0H
	DB	09cH
	DB	070H
	DB	0ffH
	DB	0f8H
	DB	0fcH
	DB	0f8H
	DB	0ffH
	DB	0f8H
	DB	0fcH
	DB	0f8H
	DB	0ffH
	DB	0f8H
	DB	0fcH
	DB	0f8H
	DB	0ffH
	DB	0c0H
	DB	0a4H
	DB	078H
	DB	0ffH
	DB	0c8H
	DB	0a8H
	DB	080H
	DB	0ffH
	DB	0d0H
	DB	0b0H
	DB	088H
	DB	0ffH
	DB	0d0H
	DB	0b0H
	DB	088H
	DB	0ffH
	DB	0d0H
	DB	0b0H
	DB	090H
	DB	0ffH
	DB	0d0H
	DB	0b0H
	DB	090H
	DB	0ffH
	DB	0c8H
	DB	0b0H
	DB	088H
	DB	0ffH
	DB	0d0H
	DB	0b0H
	DB	088H
	DB	0ffH
	DB	0d0H
	DB	0b0H
	DB	088H
	DB	0ffH
	DB	0c8H
	DB	0b0H
	DB	088H
	DB	0ffH
	DB	0d0H
	DB	0b4H
	DB	088H
	DB	0ffH
	DB	0d0H
	DB	0b0H
	DB	088H
	DB	0ffH
	DB	0d0H
	DB	0b0H
	DB	088H
	DB	0ffH
	DB	0e8H
	DB	0e0H
	DB	0d0H
	DB	0ffH
	DB	0f8H
	DB	0fcH
	DB	0f8H
	DB	0ffH
	DB	0f8H
	DB	0fcH
	DB	0f8H
	DB	0ffH
	DB	0f8H
	DB	0fcH
	DB	0f8H
	DB	0ffH
	DB	0f8H
	DB	0fcH
	DB	0f8H
	DB	0ffH
	DB	0f8H
	DB	0fcH
	DB	0f8H
	DB	0ffH
	DB	0f8H
	DB	0fcH
	DB	0f8H
	DB	0ffH
	DB	0f8H
	DB	0fcH
	DB	0f8H
	DB	0ffH
	DB	0f8H
	DB	0fcH
	DB	0f8H
	DB	0ffH
	DB	0f8H
	DB	0fcH
	DB	0f8H
	DB	0ffH
	DB	0f8H
	DB	0fcH
	DB	0f8H
	DB	0ffH
	DB	0f8H
	DB	0fcH
	DB	0f8H
	DB	0ffH
	DB	0f8H
	DB	0fcH
	DB	0f8H
	DB	0ffH
	DB	0f8H
	DB	0fcH
	DB	0f8H
	DB	0ffH
	DB	0f8H
	DB	0fcH
	DB	0f8H
	DB	0ffH
	DB	0f8H
	DB	0fcH
	DB	0f8H
	DB	0ffH
	DB	0f8H
	DB	0fcH
	DB	0f8H
	DB	0ffH
	DB	0f8H
	DB	0fcH
	DB	0f8H
	DB	0ffH
	DB	0f8H
	DB	0fcH
	DB	0f8H
	DB	0ffH
	DB	0f8H
	DB	0fcH
	DB	0f8H
	DB	0ffH
	DB	0f8H
	DB	0fcH
	DB	0f8H
	DB	0ffH
	DB	0f8H
	DB	0fcH
	DB	0f8H
	DB	0ffH
	DB	0f8H
	DB	0fcH
	DB	0f8H
	DB	0ffH
	DB	0f8H
	DB	0fcH
	DB	0f8H
	DB	0ffH
	DB	0f8H
	DB	0fcH
	DB	0f8H
	DB	0ffH
	DB	0f8H
	DB	0fcH
	DB	0f8H
	DB	0ffH
	DB	0f8H
	DB	0fcH
	DB	0f8H
	DB	0ffH
	DB	0f8H
	DB	0fcH
	DB	0f8H
	DB	0ffH
	DB	0f8H
	DB	0fcH
	DB	0f8H
	DB	0ffH
	DB	0f8H
	DB	0fcH
	DB	0f8H
	DB	0ffH
	DB	0f8H
	DB	0fcH
	DB	0f8H
	DB	0ffH
	DB	0f8H
	DB	0fcH
	DB	0f8H
	DB	0ffH
	DB	0f8H
	DB	0fcH
	DB	0f8H
	DB	0ffH
	DB	0f8H
	DB	0fcH
	DB	0f8H
	DB	0ffH
	DB	0f8H
	DB	0fcH
	DB	0f8H
	DB	0ffH
	DB	0f8H
	DB	0fcH
	DB	0f8H
	DB	0ffH
	DB	0f8H
	DB	0fcH
	DB	0f8H
	DB	0ffH
	DB	0f8H
	DB	0fcH
	DB	0f8H
	DB	0ffH
	DB	0f8H
	DB	0fcH
	DB	0f8H
	DB	0ffH
	DB	0f8H
	DB	0fcH
	DB	0f8H
	DB	0ffH
	DB	0f8H
	DB	0fcH
	DB	0f8H
	DB	0ffH
	DB	0f8H
	DB	0fcH
	DB	0f8H
	DB	0ffH
	DB	0e0H
	DB	0e4H
	DB	0e0H
	DB	0ffH
	DB	090H
	DB	084H
	DB	078H
	DB	0ffH
	DB	078H
	DB	068H
	DB	058H
	DB	0ffH
	DB	0b8H
	DB	0b8H
	DB	0b0H
	DB	0ffH
	DB	0f8H
	DB	0fcH
	DB	0f8H
	DB	0ffH
	DB	0c0H
	DB	0b8H
	DB	0b0H
	DB	0ffH
	DB	080H
	DB	078H
	DB	068H
	DB	0ffH
	DB	080H
	DB	074H
	DB	068H
	DB	0ffH
	DB	080H
	DB	074H
	DB	068H
	DB	0ffH
	DB	080H
	DB	078H
	DB	068H
	DB	0ffH
	DB	080H
	DB	074H
	DB	068H
	DB	0ffH
	DB	0f8H
	DB	0fcH
	DB	0f8H
	DB	0ffH
	DB	0f8H
	DB	0fcH
	DB	0f8H
	DB	0ffH
	DB	0f8H
	DB	0fcH
	DB	0f8H
	DB	0ffH
	DB	0f8H
	DB	0fcH
	DB	0f8H
	DB	0ffH
	DB	0f8H
	DB	0fcH
	DB	0f8H
	DB	0ffH
	DB	0f8H
	DB	0fcH
	DB	0f8H
	DB	0ffH
	DB	0f8H
	DB	0fcH
	DB	0f8H
	DB	0ffH
	DB	0f8H
	DB	0fcH
	DB	0f8H
	DB	0ffH
	DB	0f8H
	DB	0fcH
	DB	0f8H
	DB	0ffH
	DB	0e0H
	DB	0ccH
	DB	0b8H
	DB	0ffH
	DB	0d0H
	DB	0b4H
	DB	088H
	DB	0ffH
	DB	0d0H
	DB	0b0H
	DB	090H
	DB	069H
	DB	0d0H
	DB	0b0H
	DB	088H
	DB	0a2H
	DB	0d0H
	DB	0b0H
	DB	088H
	DB	0ffH
	DB	0d0H
	DB	0b4H
	DB	090H
	DB	0ffH
	DB	0c8H
	DB	0b0H
	DB	088H
	DB	0ffH
	DB	0d0H
	DB	0b0H
	DB	088H
	DB	0ffH
	DB	0d0H
	DB	0b4H
	DB	090H
	DB	0ffH
	DB	0d0H
	DB	0b0H
	DB	088H
	DB	0ffH
	DB	0d0H
	DB	0b0H
	DB	088H
	DB	0ffH
	DB	0d0H
	DB	0b4H
	DB	090H
	DB	0ffH
	DB	0c8H
	DB	0b0H
	DB	088H
	DB	0ffH
	DB	0d0H
	DB	0b0H
	DB	090H
	DB	0ffH
	DB	0d0H
	DB	0b0H
	DB	088H
	DB	0ffH
	DB	0c8H
	DB	0acH
	DB	080H
	DB	0ffH
	DB	0c0H
	DB	0a4H
	DB	078H
	DB	0ffH
	DB	0f8H
	DB	0fcH
	DB	0f8H
	DB	0ffH
	DB	0f8H
	DB	0fcH
	DB	0f8H
	DB	0ffH
	DB	0f8H
	DB	0fcH
	DB	0f8H
	DB	0ffH
	DB	0c0H
	DB	09cH
	DB	070H
	DB	0ffH
	DB	0c0H
	DB	09cH
	DB	070H
	DB	0ffH
	DB	0f8H
	DB	0fcH
	DB	0f8H
	DB	0ffH
	DB	0f8H
	DB	0fcH
	DB	0f8H
	DB	0ffH
	DB	0f8H
	DB	0fcH
	DB	0f8H
	DB	0ffH
	DB	0c0H
	DB	0a4H
	DB	078H
	DB	0ffH
	DB	0c8H
	DB	0a8H
	DB	080H
	DB	0ffH
	DB	0d0H
	DB	0b0H
	DB	088H
	DB	0ffH
	DB	0d0H
	DB	0b0H
	DB	090H
	DB	0ffH
	DB	0c8H
	DB	0b0H
	DB	088H
	DB	0ffH
	DB	0d0H
	DB	0b4H
	DB	088H
	DB	0ffH
	DB	0d0H
	DB	0b0H
	DB	090H
	DB	0ffH
	DB	0c8H
	DB	0b0H
	DB	090H
	DB	0ffH
	DB	0d0H
	DB	0b0H
	DB	088H
	DB	0ffH
	DB	0d0H
	DB	0b0H
	DB	090H
	DB	0ffH
	DB	0c8H
	DB	0b0H
	DB	090H
	DB	0ffH
	DB	0d0H
	DB	0b0H
	DB	088H
	DB	0ffH
	DB	0d0H
	DB	0b0H
	DB	088H
	DB	0ffH
	DB	0e0H
	DB	0ccH
	DB	0b8H
	DB	0ffH
	DB	0f8H
	DB	0fcH
	DB	0f8H
	DB	0ffH
	DB	0f8H
	DB	0fcH
	DB	0f8H
	DB	0ffH
	DB	0f8H
	DB	0fcH
	DB	0f8H
	DB	0ffH
	DB	0f8H
	DB	0fcH
	DB	0f8H
	DB	0ffH
	DB	0f8H
	DB	0fcH
	DB	0f8H
	DB	0ffH
	DB	0f8H
	DB	0fcH
	DB	0f8H
	DB	0ffH
	DB	0f8H
	DB	0fcH
	DB	0f8H
	DB	0ffH
	DB	0f8H
	DB	0fcH
	DB	0f8H
	DB	0ffH
	DB	0f8H
	DB	0fcH
	DB	0f8H
	DB	0ffH
	DB	0f8H
	DB	0fcH
	DB	0f8H
	DB	0ffH
	DB	0f8H
	DB	0fcH
	DB	0f8H
	DB	0ffH
	DB	0f8H
	DB	0fcH
	DB	0f8H
	DB	0ffH
	DB	0f8H
	DB	0fcH
	DB	0f8H
	DB	0ffH
	DB	0f8H
	DB	0fcH
	DB	0f8H
	DB	0ffH
	DB	0f8H
	DB	0fcH
	DB	0f8H
	DB	0ffH
	DB	0f8H
	DB	0fcH
	DB	0f8H
	DB	0ffH
	DB	0f8H
	DB	0fcH
	DB	0f8H
	DB	0ffH
	DB	0f8H
	DB	0fcH
	DB	0f8H
	DB	0ffH
	DB	0f8H
	DB	0fcH
	DB	0f8H
	DB	0ffH
	DB	0f8H
	DB	0fcH
	DB	0f8H
	DB	0ffH
	DB	0f8H
	DB	0fcH
	DB	0f8H
	DB	0ffH
	DB	0f8H
	DB	0fcH
	DB	0f8H
	DB	0ffH
	DB	0f8H
	DB	0fcH
	DB	0f8H
	DB	0ffH
	DB	0f8H
	DB	0fcH
	DB	0f8H
	DB	0ffH
	DB	0f8H
	DB	0fcH
	DB	0f8H
	DB	0ffH
	DB	0f8H
	DB	0fcH
	DB	0f8H
	DB	0ffH
	DB	0f8H
	DB	0fcH
	DB	0f8H
	DB	0ffH
	DB	0f8H
	DB	0fcH
	DB	0f8H
	DB	0ffH
	DB	0f8H
	DB	0fcH
	DB	0f8H
	DB	0ffH
	DB	0f8H
	DB	0fcH
	DB	0f8H
	DB	0ffH
	DB	0f8H
	DB	0fcH
	DB	0f8H
	DB	0ffH
	DB	0f8H
	DB	0fcH
	DB	0f8H
	DB	0ffH
	DB	0f8H
	DB	0fcH
	DB	0f8H
	DB	0ffH
	DB	0f8H
	DB	0fcH
	DB	0f8H
	DB	0ffH
	DB	0f8H
	DB	0fcH
	DB	0f8H
	DB	0ffH
	DB	0f8H
	DB	0fcH
	DB	0f8H
	DB	0ffH
	DB	0f8H
	DB	0fcH
	DB	0f8H
	DB	0ffH
	DB	0f8H
	DB	0fcH
	DB	0f8H
	DB	0ffH
	DB	0f8H
	DB	0fcH
	DB	0f8H
	DB	0ffH
	DB	0f8H
	DB	0fcH
	DB	0f8H
	DB	0ffH
	DB	0f8H
	DB	0fcH
	DB	0f8H
	DB	0ffH
	DB	090H
	DB	084H
	DB	078H
	DB	0ffH
	DB	0c8H
	DB	0c4H
	DB	0c0H
	DB	0ffH
	DB	0e8H
	DB	0ecH
	DB	0f0H
	DB	0ffH
	DB	068H
	DB	054H
	DB	048H
	DB	0ffH
	DB	0f8H
	DB	0fcH
	DB	0f8H
	DB	0ffH
	DB	0b0H
	DB	0acH
	DB	0a8H
	DB	0ffH
	DB	058H
	DB	040H
	DB	030H
	DB	0ffH
	DB	058H
	DB	040H
	DB	030H
	DB	0ffH
	DB	058H
	DB	040H
	DB	030H
	DB	0ffH
	DB	058H
	DB	040H
	DB	030H
	DB	0ffH
	DB	058H
	DB	044H
	DB	030H
	DB	0ffH
	DB	0f8H
	DB	0f4H
	DB	0f8H
	DB	0ffH
	DB	0f8H
	DB	0fcH
	DB	0f8H
	DB	0ffH
	DB	0f8H
	DB	0fcH
	DB	0f8H
	DB	0ffH
	DB	0f8H
	DB	0fcH
	DB	0f8H
	DB	0ffH
	DB	0f8H
	DB	0fcH
	DB	0f8H
	DB	0ffH
	DB	0f8H
	DB	0fcH
	DB	0f8H
	DB	0ffH
	DB	0f8H
	DB	0fcH
	DB	0f8H
	DB	0ffH
	DB	0f8H
	DB	0fcH
	DB	0f8H
	DB	0ffH
	DB	0f8H
	DB	0fcH
	DB	0f8H
	DB	0ffH
	DB	0e8H
	DB	0e0H
	DB	0d0H
	DB	0ffH
	DB	0d0H
	DB	0b0H
	DB	088H
	DB	0ffH
	DB	0d0H
	DB	0b0H
	DB	088H
	DB	0a6H
	DB	0d0H
	DB	0b0H
	DB	088H
	DB	0cfH
	DB	0d0H
	DB	0b0H
	DB	090H
	DB	0ffH
	DB	0c8H
	DB	0b0H
	DB	088H
	DB	0ffH
	DB	0d0H
	DB	0b0H
	DB	090H
	DB	0ffH
	DB	0d0H
	DB	0b4H
	DB	088H
	DB	0ffH
	DB	0c8H
	DB	0b0H
	DB	090H
	DB	0ffH
	DB	0d0H
	DB	0b0H
	DB	088H
	DB	0ffH
	DB	0d0H
	DB	0b4H
	DB	088H
	DB	0ffH
	DB	0d0H
	DB	0b0H
	DB	090H
	DB	0ffH
	DB	0d0H
	DB	0b0H
	DB	088H
	DB	0ffH
	DB	0c8H
	DB	0b0H
	DB	088H
	DB	0ffH
	DB	0c8H
	DB	0acH
	DB	088H
	DB	0ffH
	DB	0c8H
	DB	0a8H
	DB	080H
	DB	0ffH
	DB	0c0H
	DB	0a0H
	DB	078H
	DB	0ffH
	DB	0f8H
	DB	0fcH
	DB	0f8H
	DB	0ffH
	DB	0f8H
	DB	0fcH
	DB	0f8H
	DB	0ffH
	DB	0f8H
	DB	0fcH
	DB	0f8H
	DB	0ffH
	DB	0c0H
	DB	09cH
	DB	078H
	DB	0ffH
	DB	0c0H
	DB	09cH
	DB	078H
	DB	0ffH
	DB	0f8H
	DB	0fcH
	DB	0f8H
	DB	0ffH
	DB	0f8H
	DB	0fcH
	DB	0f8H
	DB	0ffH
	DB	0f8H
	DB	0fcH
	DB	0f8H
	DB	0ffH
	DB	0c0H
	DB	0a0H
	DB	078H
	DB	0ffH
	DB	0c8H
	DB	0a8H
	DB	080H
	DB	0ffH
	DB	0c8H
	DB	0acH
	DB	088H
	DB	0ffH
	DB	0d0H
	DB	0b0H
	DB	088H
	DB	0ffH
	DB	0d0H
	DB	0b0H
	DB	088H
	DB	0ffH
	DB	0d0H
	DB	0b4H
	DB	088H
	DB	0ffH
	DB	0d0H
	DB	0b0H
	DB	088H
	DB	0ffH
	DB	0d0H
	DB	0b4H
	DB	090H
	DB	0ffH
	DB	0d0H
	DB	0b4H
	DB	088H
	DB	0ffH
	DB	0d0H
	DB	0b0H
	DB	088H
	DB	0ffH
	DB	0c8H
	DB	0b0H
	DB	090H
	DB	0ffH
	DB	0d0H
	DB	0b4H
	DB	088H
	DB	0ffH
	DB	0d0H
	DB	0b0H
	DB	090H
	DB	0ffH
	DB	0d8H
	DB	0c0H
	DB	0a0H
	DB	0ffH
	DB	0f8H
	DB	0fcH
	DB	0f8H
	DB	0ffH
	DB	0f8H
	DB	0fcH
	DB	0f8H
	DB	0ffH
	DB	0f8H
	DB	0fcH
	DB	0f8H
	DB	0ffH
	DB	0f8H
	DB	0fcH
	DB	0f8H
	DB	0ffH
	DB	0f8H
	DB	0fcH
	DB	0f8H
	DB	0ffH
	DB	0f8H
	DB	0fcH
	DB	0f8H
	DB	0ffH
	DB	0f8H
	DB	0fcH
	DB	0f8H
	DB	0ffH
	DB	0f8H
	DB	0fcH
	DB	0f8H
	DB	0ffH
	DB	0f8H
	DB	0fcH
	DB	0f8H
	DB	0ffH
	DB	0f8H
	DB	0fcH
	DB	0f8H
	DB	0ffH
	DB	0f8H
	DB	0fcH
	DB	0f8H
	DB	0ffH
	DB	0f8H
	DB	0fcH
	DB	0f8H
	DB	0ffH
	DB	0f8H
	DB	0fcH
	DB	0f8H
	DB	0ffH
	DB	0f8H
	DB	0fcH
	DB	0f8H
	DB	0ffH
	DB	0f8H
	DB	0fcH
	DB	0f8H
	DB	0ffH
	DB	0f8H
	DB	0fcH
	DB	0f8H
	DB	0ffH
	DB	0f8H
	DB	0fcH
	DB	0f8H
	DB	0ffH
	DB	0f8H
	DB	0fcH
	DB	0f8H
	DB	0ffH
	DB	0f8H
	DB	0fcH
	DB	0f8H
	DB	0ffH
	DB	0f8H
	DB	0fcH
	DB	0f8H
	DB	0ffH
	DB	0f8H
	DB	0fcH
	DB	0f8H
	DB	0ffH
	DB	0f8H
	DB	0fcH
	DB	0f8H
	DB	0ffH
	DB	0f8H
	DB	0fcH
	DB	0f8H
	DB	0ffH
	DB	0f8H
	DB	0fcH
	DB	0f8H
	DB	0ffH
	DB	0f8H
	DB	0fcH
	DB	0f8H
	DB	0ffH
	DB	0f8H
	DB	0fcH
	DB	0f8H
	DB	0ffH
	DB	0f8H
	DB	0fcH
	DB	0f8H
	DB	0ffH
	DB	0f8H
	DB	0fcH
	DB	0f8H
	DB	0ffH
	DB	0f8H
	DB	0fcH
	DB	0f8H
	DB	0ffH
	DB	0f8H
	DB	0fcH
	DB	0f8H
	DB	0ffH
	DB	0f8H
	DB	0fcH
	DB	0f8H
	DB	0ffH
	DB	0f8H
	DB	0fcH
	DB	0f8H
	DB	0ffH
	DB	0f8H
	DB	0fcH
	DB	0f8H
	DB	0ffH
	DB	0f8H
	DB	0fcH
	DB	0f8H
	DB	0ffH
	DB	0f8H
	DB	0fcH
	DB	0f8H
	DB	0ffH
	DB	0f8H
	DB	0fcH
	DB	0f8H
	DB	0ffH
	DB	0f8H
	DB	0fcH
	DB	0f8H
	DB	0ffH
	DB	0f8H
	DB	0fcH
	DB	0f8H
	DB	0ffH
	DB	0f8H
	DB	0fcH
	DB	0f8H
	DB	0ffH
	DB	0f8H
	DB	0fcH
	DB	0f8H
	DB	0ffH
	DB	0f8H
	DB	0fcH
	DB	0f8H
	DB	0ffH
	DB	098H
	DB	094H
	DB	088H
	DB	0ffH
	DB	0c0H
	DB	0b8H
	DB	0b0H
	DB	0ffH
	DB	0d8H
	DB	0d8H
	DB	0d8H
	DB	0ffH
	DB	078H
	DB	064H
	DB	058H
	DB	0ffH
	DB	0f8H
	DB	0fcH
	DB	0f8H
	DB	0ffH
	DB	0b0H
	DB	0acH
	DB	0a8H
	DB	0ffH
	DB	058H
	DB	040H
	DB	030H
	DB	0ffH
	DB	0b0H
	DB	0acH
	DB	0a8H
	DB	0ffH
	DB	0f8H
	DB	0f4H
	DB	0f8H
	DB	0ffH
	DB	0f8H
	DB	0f4H
	DB	0f8H
	DB	0ffH
	DB	0f8H
	DB	0f4H
	DB	0f8H
	DB	0ffH
	DB	0f8H
	DB	0fcH
	DB	0f8H
	DB	0ffH
	DB	0f8H
	DB	0fcH
	DB	0f8H
	DB	0ffH
	DB	0f8H
	DB	0fcH
	DB	0f8H
	DB	0ffH
	DB	0f8H
	DB	0fcH
	DB	0f8H
	DB	0ffH
	DB	0f8H
	DB	0fcH
	DB	0f8H
	DB	0ffH
	DB	0f8H
	DB	0fcH
	DB	0f8H
	DB	0ffH
	DB	0f8H
	DB	0fcH
	DB	0f8H
	DB	0ffH
	DB	0f8H
	DB	0fcH
	DB	0f8H
	DB	0ffH
	DB	0f8H
	DB	0fcH
	DB	0f8H
	DB	0ffH
	DB	0f0H
	DB	0f0H
	DB	0e8H
	DB	0ffH
	DB	0d0H
	DB	0b0H
	DB	088H
	DB	0ffH
	DB	0d0H
	DB	0b0H
	DB	090H
	DB	0cfH
	DB	0d0H
	DB	0b0H
	DB	088H
	DB	0ebH
	DB	0d0H
	DB	0b0H
	DB	088H
	DB	0ffH
	DB	0c8H
	DB	0b4H
	DB	090H
	DB	0ffH
	DB	0d0H
	DB	0b0H
	DB	088H
	DB	0ffH
	DB	0d0H
	DB	0b0H
	DB	088H
	DB	0ffH
	DB	0c8H
	DB	0b0H
	DB	090H
	DB	0ffH
	DB	0d0H
	DB	0b0H
	DB	088H
	DB	0ffH
	DB	0c8H
	DB	0b0H
	DB	090H
	DB	0ffH
	DB	0d0H
	DB	0b4H
	DB	088H
	DB	0ffH
	DB	0d0H
	DB	0b0H
	DB	088H
	DB	0ffH
	DB	0c8H
	DB	0b0H
	DB	088H
	DB	0ffH
	DB	0c8H
	DB	0acH
	DB	088H
	DB	0ffH
	DB	0c8H
	DB	0a4H
	DB	080H
	DB	0ffH
	DB	0d8H
	DB	0bcH
	DB	0a0H
	DB	0ffH
	DB	0f8H
	DB	0fcH
	DB	0f8H
	DB	0ffH
	DB	0f8H
	DB	0fcH
	DB	0f8H
	DB	0ffH
	DB	0f8H
	DB	0fcH
	DB	0f8H
	DB	0ffH
	DB	0c0H
	DB	0a0H
	DB	078H
	DB	0ffH
	DB	0c0H
	DB	0a0H
	DB	078H
	DB	0ffH
	DB	0f8H
	DB	0fcH
	DB	0f8H
	DB	0ffH
	DB	0f8H
	DB	0fcH
	DB	0f8H
	DB	0ffH
	DB	0f8H
	DB	0fcH
	DB	0f8H
	DB	0ffH
	DB	0d8H
	DB	0bcH
	DB	0a0H
	DB	0ffH
	DB	0c8H
	DB	0a4H
	DB	080H
	DB	0ffH
	DB	0c8H
	DB	0acH
	DB	088H
	DB	0ffH
	DB	0c8H
	DB	0b0H
	DB	088H
	DB	0ffH
	DB	0d0H
	DB	0b0H
	DB	090H
	DB	0ffH
	DB	0c8H
	DB	0b0H
	DB	090H
	DB	0ffH
	DB	0d0H
	DB	0b0H
	DB	088H
	DB	0ffH
	DB	0d0H
	DB	0b0H
	DB	088H
	DB	0ffH
	DB	0c8H
	DB	0b0H
	DB	090H
	DB	0ffH
	DB	0d0H
	DB	0b0H
	DB	088H
	DB	0ffH
	DB	0d0H
	DB	0b4H
	DB	088H
	DB	0ffH
	DB	0c8H
	DB	0b0H
	DB	090H
	DB	0ffH
	DB	0d0H
	DB	0b0H
	DB	088H
	DB	0ffH
	DB	0d0H
	DB	0b8H
	DB	098H
	DB	0ffH
	DB	0f8H
	DB	0fcH
	DB	0f8H
	DB	0ffH
	DB	0f8H
	DB	0fcH
	DB	0f8H
	DB	0ffH
	DB	0f8H
	DB	0fcH
	DB	0f8H
	DB	0ffH
	DB	0f8H
	DB	0fcH
	DB	0f8H
	DB	0ffH
	DB	0f8H
	DB	0fcH
	DB	0f8H
	DB	0ffH
	DB	0f8H
	DB	0fcH
	DB	0f8H
	DB	0ffH
	DB	0f8H
	DB	0fcH
	DB	0f8H
	DB	0ffH
	DB	0f8H
	DB	0fcH
	DB	0f8H
	DB	0ffH
	DB	0f8H
	DB	0fcH
	DB	0f8H
	DB	0ffH
	DB	0f8H
	DB	0fcH
	DB	0f8H
	DB	0ffH
	DB	0f8H
	DB	0fcH
	DB	0f8H
	DB	0ffH
	DB	0f8H
	DB	0fcH
	DB	0f8H
	DB	0ffH
	DB	0f8H
	DB	0fcH
	DB	0f8H
	DB	0ffH
	DB	0f8H
	DB	0fcH
	DB	0f8H
	DB	0ffH
	DB	0f8H
	DB	0fcH
	DB	0f8H
	DB	0ffH
	DB	0f8H
	DB	0fcH
	DB	0f8H
	DB	0ffH
	DB	0f8H
	DB	0fcH
	DB	0f8H
	DB	0ffH
	DB	0f8H
	DB	0fcH
	DB	0f8H
	DB	0ffH
	DB	0f8H
	DB	0fcH
	DB	0f8H
	DB	0ffH
	DB	0f8H
	DB	0fcH
	DB	0f8H
	DB	0ffH
	DB	0f8H
	DB	0fcH
	DB	0f8H
	DB	0ffH
	DB	0f8H
	DB	0fcH
	DB	0f8H
	DB	0ffH
	DB	0f8H
	DB	0fcH
	DB	0f8H
	DB	0ffH
	DB	0f8H
	DB	0fcH
	DB	0f8H
	DB	0ffH
	DB	0f8H
	DB	0fcH
	DB	0f8H
	DB	0ffH
	DB	0f8H
	DB	0fcH
	DB	0f8H
	DB	0ffH
	DB	0f8H
	DB	0fcH
	DB	0f8H
	DB	0ffH
	DB	0f8H
	DB	0fcH
	DB	0f8H
	DB	0ffH
	DB	0f8H
	DB	0fcH
	DB	0f8H
	DB	0ffH
	DB	0f8H
	DB	0fcH
	DB	0f8H
	DB	0ffH
	DB	0f8H
	DB	0fcH
	DB	0f8H
	DB	0ffH
	DB	0f8H
	DB	0fcH
	DB	0f8H
	DB	0ffH
	DB	0f8H
	DB	0fcH
	DB	0f8H
	DB	0ffH
	DB	0f8H
	DB	0fcH
	DB	0f8H
	DB	0ffH
	DB	0f8H
	DB	0fcH
	DB	0f8H
	DB	0ffH
	DB	0f8H
	DB	0fcH
	DB	0f8H
	DB	0ffH
	DB	0f8H
	DB	0fcH
	DB	0f8H
	DB	0ffH
	DB	0f8H
	DB	0fcH
	DB	0f8H
	DB	0ffH
	DB	0f8H
	DB	0fcH
	DB	0f8H
	DB	0ffH
	DB	0f8H
	DB	0fcH
	DB	0f8H
	DB	0ffH
	DB	0f8H
	DB	0fcH
	DB	0f8H
	DB	0ffH
	DB	0f8H
	DB	0f4H
	DB	0f8H
	DB	0ffH
	DB	090H
	DB	084H
	DB	078H
	DB	0ffH
	DB	080H
	DB	074H
	DB	068H
	DB	0ffH
	DB	0e8H
	DB	0e4H
	DB	0e0H
	DB	0ffH
	DB	0f8H
	DB	0fcH
	DB	0f8H
	DB	0ffH
	DB	0b0H
	DB	0acH
	DB	0a0H
	DB	0ffH
	DB	058H
	DB	040H
	DB	030H
	DB	0ffH
	DB	0b0H
	DB	0acH
	DB	0a0H
	DB	0ffH
	DB	0f8H
	DB	0f8H
	DB	0f0H
	DB	0ffH
	DB	0f8H
	DB	0f4H
	DB	0f8H
	DB	0ffH
	DB	0f8H
	DB	0fcH
	DB	0f8H
	DB	0ffH
	DB	0f8H
	DB	0fcH
	DB	0f8H
	DB	0ffH
	DB	0f8H
	DB	0fcH
	DB	0f8H
	DB	0ffH
	DB	0f8H
	DB	0fcH
	DB	0f8H
	DB	0ffH
	DB	0f8H
	DB	0fcH
	DB	0f8H
	DB	0ffH
	DB	0f8H
	DB	0fcH
	DB	0f8H
	DB	0ffH
	DB	0f8H
	DB	0fcH
	DB	0f8H
	DB	0ffH
	DB	0f8H
	DB	0fcH
	DB	0f8H
	DB	0ffH
	DB	0f8H
	DB	0fcH
	DB	0f8H
	DB	0ffH
	DB	0f8H
	DB	0fcH
	DB	0f8H
	DB	0ffH
	DB	0f8H
	DB	0f8H
	DB	0f8H
	DB	0ffH
	DB	0d0H
	DB	0b0H
	DB	088H
	DB	0ffH
	DB	0c8H
	DB	0b0H
	DB	088H
	DB	0ebH
	DB	0d0H
	DB	0b0H
	DB	088H
	DB	0f7H
	DB	0d0H
	DB	0b0H
	DB	090H
	DB	0ffH
	DB	0d0H
	DB	0b4H
	DB	088H
	DB	0ffH
	DB	0d0H
	DB	0b0H
	DB	088H
	DB	0ffH
	DB	0d0H
	DB	0b0H
	DB	090H
	DB	0ffH
	DB	0d0H
	DB	0b4H
	DB	088H
	DB	0ffH
	DB	0d0H
	DB	0b0H
	DB	088H
	DB	0ffH
	DB	0d0H
	DB	0b0H
	DB	090H
	DB	0ffH
	DB	0c8H
	DB	0b0H
	DB	088H
	DB	0ffH
	DB	0d0H
	DB	0b0H
	DB	088H
	DB	0ffH
	DB	0c8H
	DB	0acH
	DB	088H
	DB	0ffH
	DB	0c8H
	DB	0a8H
	DB	080H
	DB	0ffH
	DB	0d8H
	DB	0c0H
	DB	0a8H
	DB	0ffH
	DB	0f8H
	DB	0fcH
	DB	0f8H
	DB	0ffH
	DB	0f8H
	DB	0fcH
	DB	0f8H
	DB	0ffH
	DB	0f8H
	DB	0fcH
	DB	0f8H
	DB	0ffH
	DB	0f8H
	DB	0fcH
	DB	0f8H
	DB	0ffH
	DB	0c0H
	DB	0a0H
	DB	078H
	DB	0ffH
	DB	0c0H
	DB	0a0H
	DB	078H
	DB	0ffH
	DB	0f8H
	DB	0fcH
	DB	0f8H
	DB	0ffH
	DB	0f8H
	DB	0fcH
	DB	0f8H
	DB	0ffH
	DB	0f8H
	DB	0fcH
	DB	0f8H
	DB	0ffH
	DB	0f8H
	DB	0fcH
	DB	0f8H
	DB	0ffH
	DB	0d8H
	DB	0c0H
	DB	0a8H
	DB	0ffH
	DB	0c8H
	DB	0a8H
	DB	080H
	DB	0ffH
	DB	0c8H
	DB	0acH
	DB	088H
	DB	0ffH
	DB	0d0H
	DB	0b0H
	DB	088H
	DB	0ffH
	DB	0d0H
	DB	0b0H
	DB	088H
	DB	0ffH
	DB	0c8H
	DB	0b4H
	DB	090H
	DB	0ffH
	DB	0d0H
	DB	0b0H
	DB	088H
	DB	0ffH
	DB	0d0H
	DB	0b0H
	DB	088H
	DB	0ffH
	DB	0d0H
	DB	0b0H
	DB	090H
	DB	0ffH
	DB	0d0H
	DB	0b0H
	DB	088H
	DB	0ffH
	DB	0d0H
	DB	0b4H
	DB	088H
	DB	0ffH
	DB	0c8H
	DB	0b0H
	DB	088H
	DB	0ffH
	DB	0d0H
	DB	0b4H
	DB	090H
	DB	0ffH
	DB	0f8H
	DB	0fcH
	DB	0f8H
	DB	0ffH
	DB	0f8H
	DB	0fcH
	DB	0f8H
	DB	0ffH
	DB	0f8H
	DB	0fcH
	DB	0f8H
	DB	0ffH
	DB	0f8H
	DB	0fcH
	DB	0f8H
	DB	0ffH
	DB	0f8H
	DB	0fcH
	DB	0f8H
	DB	0ffH
	DB	0f8H
	DB	0fcH
	DB	0f8H
	DB	0ffH
	DB	0f8H
	DB	0fcH
	DB	0f8H
	DB	0ffH
	DB	0f8H
	DB	0fcH
	DB	0f8H
	DB	0ffH
	DB	0f8H
	DB	0fcH
	DB	0f8H
	DB	0ffH
	DB	0f8H
	DB	0fcH
	DB	0f8H
	DB	0ffH
	DB	0f8H
	DB	0fcH
	DB	0f8H
	DB	0ffH
	DB	0f8H
	DB	0fcH
	DB	0f8H
	DB	0ffH
	DB	0f8H
	DB	0fcH
	DB	0f8H
	DB	0ffH
	DB	0f8H
	DB	0fcH
	DB	0f8H
	DB	0ffH
	DB	0f8H
	DB	0fcH
	DB	0f8H
	DB	0ffH
	DB	0f8H
	DB	0fcH
	DB	0f8H
	DB	0ffH
	DB	0f8H
	DB	0fcH
	DB	0f8H
	DB	0ffH
	DB	0f8H
	DB	0fcH
	DB	0f8H
	DB	0ffH
	DB	0f8H
	DB	0fcH
	DB	0f8H
	DB	0ffH
	DB	0f8H
	DB	0fcH
	DB	0f8H
	DB	0ffH
	DB	0f8H
	DB	0fcH
	DB	0f8H
	DB	0ffH
	DB	0f8H
	DB	0fcH
	DB	0f8H
	DB	0ffH
	DB	0f8H
	DB	0fcH
	DB	0f8H
	DB	0ffH
	DB	0f8H
	DB	0fcH
	DB	0f8H
	DB	0ffH
	DB	0f8H
	DB	0fcH
	DB	0f8H
	DB	0ffH
	DB	0f8H
	DB	0fcH
	DB	0f8H
	DB	0ffH
	DB	0f8H
	DB	0fcH
	DB	0f8H
	DB	0ffH
	DB	0f8H
	DB	0fcH
	DB	0f8H
	DB	0ffH
	DB	0f8H
	DB	0fcH
	DB	0f8H
	DB	0ffH
	DB	0f8H
	DB	0fcH
	DB	0f8H
	DB	0ffH
	DB	0f8H
	DB	0fcH
	DB	0f8H
	DB	0ffH
	DB	0f8H
	DB	0fcH
	DB	0f8H
	DB	0ffH
	DB	0f8H
	DB	0fcH
	DB	0f8H
	DB	0ffH
	DB	0f8H
	DB	0fcH
	DB	0f8H
	DB	0ffH
	DB	0f8H
	DB	0fcH
	DB	0f8H
	DB	0ffH
	DB	0f8H
	DB	0fcH
	DB	0f8H
	DB	0ffH
	DB	0f8H
	DB	0fcH
	DB	0f8H
	DB	0ffH
	DB	0f8H
	DB	0fcH
	DB	0f8H
	DB	0ffH
	DB	0f8H
	DB	0fcH
	DB	0f8H
	DB	0ffH
	DB	0f8H
	DB	0fcH
	DB	0f8H
	DB	0ffH
	DB	0f8H
	DB	0fcH
	DB	0f8H
	DB	0ffH
	DB	0f8H
	DB	0fcH
	DB	0f8H
	DB	0ffH
	DB	0f8H
	DB	0fcH
	DB	0f8H
	DB	0ffH
	DB	0f8H
	DB	0fcH
	DB	0f8H
	DB	0ffH
	DB	0f8H
	DB	0fcH
	DB	0f8H
	DB	0ffH
	DB	0f8H
	DB	0fcH
	DB	0f8H
	DB	0ffH
	DB	0b0H
	DB	0acH
	DB	0a8H
	DB	0ffH
	DB	058H
	DB	040H
	DB	030H
	DB	0ffH
	DB	058H
	DB	040H
	DB	030H
	DB	0ffH
	DB	058H
	DB	040H
	DB	030H
	DB	0ffH
	DB	058H
	DB	044H
	DB	030H
	DB	0ffH
	DB	068H
	DB	054H
	DB	040H
	DB	0ffH
	DB	0f8H
	DB	0fcH
	DB	0f8H
	DB	0ffH
	DB	0f8H
	DB	0fcH
	DB	0f8H
	DB	0ffH
	DB	0f8H
	DB	0fcH
	DB	0f8H
	DB	0ffH
	DB	0f8H
	DB	0fcH
	DB	0f8H
	DB	0ffH
	DB	0f8H
	DB	0fcH
	DB	0f8H
	DB	0ffH
	DB	0f8H
	DB	0fcH
	DB	0f8H
	DB	0ffH
	DB	0f8H
	DB	0fcH
	DB	0f8H
	DB	0ffH
	DB	0f8H
	DB	0fcH
	DB	0f8H
	DB	0ffH
	DB	0f8H
	DB	0fcH
	DB	0f8H
	DB	0ffH
	DB	0f8H
	DB	0fcH
	DB	0f8H
	DB	0ffH
	DB	0d0H
	DB	0b4H
	DB	090H
	DB	0ffH
	DB	0d0H
	DB	0b0H
	DB	088H
	DB	0f7H
	DB	0d0H
	DB	0b0H
	DB	088H
	DB	0fbH
	DB	0c8H
	DB	0b0H
	DB	090H
	DB	0ffH
	DB	0d0H
	DB	0b0H
	DB	088H
	DB	0ffH
	DB	0c8H
	DB	0b0H
	DB	088H
	DB	0ffH
	DB	0d0H
	DB	0b4H
	DB	090H
	DB	0ffH
	DB	0d0H
	DB	0b0H
	DB	088H
	DB	0ffH
	DB	0c8H
	DB	0b4H
	DB	088H
	DB	0ffH
	DB	0d0H
	DB	0b0H
	DB	090H
	DB	0ffH
	DB	0d0H
	DB	0b0H
	DB	090H
	DB	0ffH
	DB	0c8H
	DB	0b0H
	DB	088H
	DB	0ffH
	DB	0c8H
	DB	0acH
	DB	080H
	DB	0ffH
	DB	0d0H
	DB	0acH
	DB	088H
	DB	0ffH
	DB	0f8H
	DB	0fcH
	DB	0f8H
	DB	0ffH
	DB	0f8H
	DB	0fcH
	DB	0f8H
	DB	0ffH
	DB	0f8H
	DB	0fcH
	DB	0f8H
	DB	0ffH
	DB	0f8H
	DB	0f4H
	DB	0f0H
	DB	0ffH
	DB	0d8H
	DB	0c0H
	DB	0a0H
	DB	0ffH
	DB	0c8H
	DB	0a4H
	DB	078H
	DB	0ffH
	DB	0c8H
	DB	0a4H
	DB	078H
	DB	0ffH
	DB	0d0H
	DB	0bcH
	DB	0a0H
	DB	0ffH
	DB	0f0H
	DB	0ecH
	DB	0e8H
	DB	0ffH
	DB	0f8H
	DB	0fcH
	DB	0f8H
	DB	0ffH
	DB	0f8H
	DB	0fcH
	DB	0f8H
	DB	0ffH
	DB	0f8H
	DB	0fcH
	DB	0f8H
	DB	0ffH
	DB	0c8H
	DB	0acH
	DB	088H
	DB	0ffH
	DB	0c8H
	DB	0acH
	DB	080H
	DB	0ffH
	DB	0d0H
	DB	0b0H
	DB	088H
	DB	0ffH
	DB	0d0H
	DB	0b0H
	DB	088H
	DB	0ffH
	DB	0d0H
	DB	0b0H
	DB	090H
	DB	0ffH
	DB	0c8H
	DB	0b4H
	DB	088H
	DB	0ffH
	DB	0d0H
	DB	0b0H
	DB	088H
	DB	0ffH
	DB	0c8H
	DB	0b0H
	DB	090H
	DB	0ffH
	DB	0d0H
	DB	0b4H
	DB	090H
	DB	0ffH
	DB	0d0H
	DB	0b0H
	DB	088H
	DB	0ffH
	DB	0d0H
	DB	0b0H
	DB	088H
	DB	0ffH
	DB	0d0H
	DB	0b4H
	DB	090H
	DB	0ffH
	DB	0f8H
	DB	0fcH
	DB	0f8H
	DB	0ffH
	DB	0f8H
	DB	0fcH
	DB	0f8H
	DB	0ffH
	DB	0f8H
	DB	0fcH
	DB	0f8H
	DB	0ffH
	DB	0f8H
	DB	0fcH
	DB	0f8H
	DB	0ffH
	DB	0f8H
	DB	0fcH
	DB	0f8H
	DB	0ffH
	DB	0f8H
	DB	0fcH
	DB	0f8H
	DB	0ffH
	DB	0f8H
	DB	0fcH
	DB	0f8H
	DB	0ffH
	DB	0f8H
	DB	0fcH
	DB	0f8H
	DB	0ffH
	DB	0f8H
	DB	0fcH
	DB	0f8H
	DB	0ffH
	DB	0f8H
	DB	0fcH
	DB	0f8H
	DB	0ffH
	DB	0f8H
	DB	0fcH
	DB	0f8H
	DB	0ffH
	DB	0f8H
	DB	0fcH
	DB	0f8H
	DB	0ffH
	DB	0f8H
	DB	0fcH
	DB	0f8H
	DB	0ffH
	DB	0f8H
	DB	0fcH
	DB	0f8H
	DB	0ffH
	DB	0f8H
	DB	0fcH
	DB	0f8H
	DB	0ffH
	DB	0f8H
	DB	0fcH
	DB	0f8H
	DB	0ffH
	DB	0f8H
	DB	0fcH
	DB	0f8H
	DB	0ffH
	DB	0f8H
	DB	0fcH
	DB	0f8H
	DB	0ffH
	DB	0f8H
	DB	0fcH
	DB	0f8H
	DB	0ffH
	DB	0f8H
	DB	0fcH
	DB	0f8H
	DB	0ffH
	DB	0f8H
	DB	0fcH
	DB	0f8H
	DB	0ffH
	DB	0f8H
	DB	0fcH
	DB	0f8H
	DB	0ffH
	DB	0f8H
	DB	0fcH
	DB	0f8H
	DB	0ffH
	DB	0f8H
	DB	0fcH
	DB	0f8H
	DB	0ffH
	DB	0f8H
	DB	0fcH
	DB	0f8H
	DB	0ffH
	DB	0f8H
	DB	0fcH
	DB	0f8H
	DB	0ffH
	DB	0f8H
	DB	0fcH
	DB	0f8H
	DB	0ffH
	DB	0f8H
	DB	0fcH
	DB	0f8H
	DB	0ffH
	DB	0f8H
	DB	0fcH
	DB	0f8H
	DB	0ffH
	DB	0f8H
	DB	0fcH
	DB	0f8H
	DB	0ffH
	DB	0f8H
	DB	0fcH
	DB	0f8H
	DB	0ffH
	DB	0f8H
	DB	0fcH
	DB	0f8H
	DB	0ffH
	DB	0f8H
	DB	0fcH
	DB	0f8H
	DB	0ffH
	DB	0f8H
	DB	0fcH
	DB	0f8H
	DB	0ffH
	DB	0f8H
	DB	0fcH
	DB	0f8H
	DB	0ffH
	DB	0f8H
	DB	0fcH
	DB	0f8H
	DB	0ffH
	DB	0f8H
	DB	0fcH
	DB	0f8H
	DB	0ffH
	DB	0f8H
	DB	0fcH
	DB	0f8H
	DB	0ffH
	DB	0f8H
	DB	0fcH
	DB	0f8H
	DB	0ffH
	DB	0f8H
	DB	0fcH
	DB	0f8H
	DB	0ffH
	DB	0f8H
	DB	0fcH
	DB	0f8H
	DB	0ffH
	DB	0f8H
	DB	0fcH
	DB	0f8H
	DB	0ffH
	DB	0f8H
	DB	0fcH
	DB	0f8H
	DB	0ffH
	DB	0f8H
	DB	0fcH
	DB	0f8H
	DB	0ffH
	DB	0f8H
	DB	0fcH
	DB	0f8H
	DB	0ffH
	DB	0f8H
	DB	0fcH
	DB	0f8H
	DB	0ffH
	DB	0b0H
	DB	0acH
	DB	0a8H
	DB	0ffH
	DB	058H
	DB	040H
	DB	030H
	DB	0ffH
	DB	058H
	DB	040H
	DB	030H
	DB	0ffH
	DB	058H
	DB	040H
	DB	030H
	DB	0ffH
	DB	058H
	DB	040H
	DB	030H
	DB	0ffH
	DB	068H
	DB	054H
	DB	048H
	DB	0ffH
	DB	0f8H
	DB	0fcH
	DB	0f8H
	DB	0ffH
	DB	0f8H
	DB	0fcH
	DB	0f8H
	DB	0ffH
	DB	0f8H
	DB	0fcH
	DB	0f8H
	DB	0ffH
	DB	0f8H
	DB	0fcH
	DB	0f8H
	DB	0ffH
	DB	0f8H
	DB	0fcH
	DB	0f8H
	DB	0ffH
	DB	0f8H
	DB	0fcH
	DB	0f8H
	DB	0ffH
	DB	0f8H
	DB	0fcH
	DB	0f8H
	DB	0ffH
	DB	0f8H
	DB	0fcH
	DB	0f8H
	DB	0ffH
	DB	0f8H
	DB	0fcH
	DB	0f8H
	DB	0ffH
	DB	0f8H
	DB	0fcH
	DB	0f8H
	DB	0ffH
	DB	0d0H
	DB	0b0H
	DB	088H
	DB	0ffH
	DB	0d0H
	DB	0b0H
	DB	090H
	DB	0fbH
	DB	0d0H
	DB	0b0H
	DB	088H
	DB	0ebH
	DB	0d0H
	DB	0b0H
	DB	088H
	DB	0ffH
	DB	0c8H
	DB	0b4H
	DB	090H
	DB	0ffH
	DB	0d0H
	DB	0b0H
	DB	088H
	DB	0ffH
	DB	0d0H
	DB	0b0H
	DB	090H
	DB	0ffH
	DB	0c8H
	DB	0b0H
	DB	088H
	DB	0ffH
	DB	0d0H
	DB	0b0H
	DB	088H
	DB	0ffH
	DB	0d0H
	DB	0b4H
	DB	088H
	DB	0ffH
	DB	0d0H
	DB	0b0H
	DB	088H
	DB	0ffH
	DB	0c8H
	DB	0acH
	DB	088H
	DB	0ffH
	DB	0c8H
	DB	0a8H
	DB	080H
	DB	0ffH
	DB	0e0H
	DB	0d4H
	DB	0c0H
	DB	0ffH
	DB	0f8H
	DB	0fcH
	DB	0f8H
	DB	0ffH
	DB	0f8H
	DB	0fcH
	DB	0f8H
	DB	0ffH
	DB	0f8H
	DB	0f0H
	DB	0e8H
	DB	0ffH
	DB	0c8H
	DB	0a4H
	DB	080H
	DB	0ffH
	DB	0c0H
	DB	0a0H
	DB	078H
	DB	0ffH
	DB	0c0H
	DB	0a0H
	DB	078H
	DB	0ffH
	DB	0c8H
	DB	0a4H
	DB	078H
	DB	0ffH
	DB	0c0H
	DB	0a0H
	DB	078H
	DB	0ffH
	DB	0c8H
	DB	0a4H
	DB	080H
	DB	0ffH
	DB	0f8H
	DB	0f0H
	DB	0e8H
	DB	0ffH
	DB	0f8H
	DB	0fcH
	DB	0f8H
	DB	0ffH
	DB	0f8H
	DB	0fcH
	DB	0f8H
	DB	0ffH
	DB	0e0H
	DB	0d4H
	DB	0c0H
	DB	0ffH
	DB	0c8H
	DB	0a8H
	DB	080H
	DB	0ffH
	DB	0c8H
	DB	0acH
	DB	088H
	DB	0ffH
	DB	0d0H
	DB	0b0H
	DB	088H
	DB	0ffH
	DB	0d0H
	DB	0b0H
	DB	088H
	DB	0ffH
	DB	0d0H
	DB	0b0H
	DB	090H
	DB	0ffH
	DB	0d0H
	DB	0b4H
	DB	088H
	DB	0ffH
	DB	0c8H
	DB	0b0H
	DB	088H
	DB	0ffH
	DB	0d0H
	DB	0b0H
	DB	090H
	DB	0ffH
	DB	0d0H
	DB	0b0H
	DB	088H
	DB	0ffH
	DB	0c8H
	DB	0b0H
	DB	090H
	DB	0ffH
	DB	0d0H
	DB	0b8H
	DB	098H
	DB	0ffH
	DB	0f8H
	DB	0fcH
	DB	0f8H
	DB	0ffH
	DB	0f8H
	DB	0fcH
	DB	0f8H
	DB	0ffH
	DB	0f8H
	DB	0fcH
	DB	0f8H
	DB	0ffH
	DB	0f8H
	DB	0fcH
	DB	0f8H
	DB	0ffH
	DB	0f8H
	DB	0fcH
	DB	0f8H
	DB	0ffH
	DB	0f8H
	DB	0fcH
	DB	0f8H
	DB	0ffH
	DB	0f8H
	DB	0fcH
	DB	0f8H
	DB	0ffH
	DB	0f8H
	DB	0fcH
	DB	0f8H
	DB	0ffH
	DB	0f8H
	DB	0fcH
	DB	0f8H
	DB	0ffH
	DB	0f8H
	DB	0fcH
	DB	0f8H
	DB	0ffH
	DB	0f8H
	DB	0fcH
	DB	0f8H
	DB	0ffH
	DB	0f8H
	DB	0fcH
	DB	0f8H
	DB	0ffH
	DB	0f8H
	DB	0fcH
	DB	0f8H
	DB	0ffH
	DB	0f8H
	DB	0fcH
	DB	0f8H
	DB	0ffH
	DB	0f8H
	DB	0fcH
	DB	0f8H
	DB	0ffH
	DB	0f8H
	DB	0fcH
	DB	0f8H
	DB	0ffH
	DB	0f8H
	DB	0fcH
	DB	0f8H
	DB	0ffH
	DB	0f8H
	DB	0fcH
	DB	0f8H
	DB	0ffH
	DB	0f8H
	DB	0fcH
	DB	0f8H
	DB	0ffH
	DB	0f8H
	DB	0fcH
	DB	0f8H
	DB	0ffH
	DB	0f8H
	DB	0fcH
	DB	0f8H
	DB	0ffH
	DB	0f8H
	DB	0fcH
	DB	0f8H
	DB	0ffH
	DB	0f8H
	DB	0fcH
	DB	0f8H
	DB	0ffH
	DB	0f8H
	DB	0fcH
	DB	0f8H
	DB	0ffH
	DB	0f8H
	DB	0fcH
	DB	0f8H
	DB	0ffH
	DB	0f8H
	DB	0fcH
	DB	0f8H
	DB	0ffH
	DB	0f8H
	DB	0fcH
	DB	0f8H
	DB	0ffH
	DB	0f8H
	DB	0fcH
	DB	0f8H
	DB	0ffH
	DB	0f8H
	DB	0fcH
	DB	0f8H
	DB	0ffH
	DB	0f8H
	DB	0fcH
	DB	0f8H
	DB	0ffH
	DB	0f8H
	DB	0fcH
	DB	0f8H
	DB	0ffH
	DB	0f8H
	DB	0fcH
	DB	0f8H
	DB	0ffH
	DB	0f8H
	DB	0fcH
	DB	0f8H
	DB	0ffH
	DB	0f8H
	DB	0fcH
	DB	0f8H
	DB	0ffH
	DB	0f8H
	DB	0fcH
	DB	0f8H
	DB	0ffH
	DB	0f8H
	DB	0fcH
	DB	0f8H
	DB	0ffH
	DB	0f8H
	DB	0fcH
	DB	0f8H
	DB	0ffH
	DB	0f8H
	DB	0fcH
	DB	0f8H
	DB	0ffH
	DB	0f8H
	DB	0fcH
	DB	0f8H
	DB	0ffH
	DB	0f8H
	DB	0fcH
	DB	0f8H
	DB	0ffH
	DB	0f8H
	DB	0fcH
	DB	0f8H
	DB	0ffH
	DB	0f8H
	DB	0fcH
	DB	0f8H
	DB	0ffH
	DB	0f8H
	DB	0fcH
	DB	0f8H
	DB	0ffH
	DB	0f8H
	DB	0fcH
	DB	0f8H
	DB	0ffH
	DB	0f8H
	DB	0fcH
	DB	0f8H
	DB	0ffH
	DB	0f8H
	DB	0fcH
	DB	0f8H
	DB	0ffH
	DB	0b0H
	DB	0acH
	DB	0a0H
	DB	0ffH
	DB	058H
	DB	040H
	DB	030H
	DB	0ffH
	DB	0b0H
	DB	0acH
	DB	0a0H
	DB	0ffH
	DB	0f8H
	DB	0f4H
	DB	0f0H
	DB	0ffH
	DB	0f8H
	DB	0f4H
	DB	0f0H
	DB	0ffH
	DB	0f8H
	DB	0fcH
	DB	0f8H
	DB	0ffH
	DB	0f8H
	DB	0fcH
	DB	0f8H
	DB	0ffH
	DB	0f8H
	DB	0fcH
	DB	0f8H
	DB	0ffH
	DB	0f8H
	DB	0fcH
	DB	0f8H
	DB	0ffH
	DB	0f8H
	DB	0fcH
	DB	0f8H
	DB	0ffH
	DB	0f8H
	DB	0fcH
	DB	0f8H
	DB	0ffH
	DB	0f8H
	DB	0fcH
	DB	0f8H
	DB	0ffH
	DB	0f8H
	DB	0fcH
	DB	0f8H
	DB	0ffH
	DB	0f8H
	DB	0fcH
	DB	0f8H
	DB	0ffH
	DB	0f8H
	DB	0fcH
	DB	0f8H
	DB	0ffH
	DB	0f8H
	DB	0f8H
	DB	0f8H
	DB	0ffH
	DB	0d0H
	DB	0b0H
	DB	088H
	DB	0ffH
	DB	0c8H
	DB	0b0H
	DB	088H
	DB	0ebH
	DB	0d0H
	DB	0b0H
	DB	088H
	DB	0cfH
	DB	0d0H
	DB	0b0H
	DB	090H
	DB	0ffH
	DB	0d0H
	DB	0b4H
	DB	088H
	DB	0ffH
	DB	0d0H
	DB	0b0H
	DB	088H
	DB	0ffH
	DB	0d0H
	DB	0b0H
	DB	090H
	DB	0ffH
	DB	0d0H
	DB	0b0H
	DB	090H
	DB	0ffH
	DB	0d0H
	DB	0b0H
	DB	088H
	DB	0ffH
	DB	0d0H
	DB	0b0H
	DB	090H
	DB	0ffH
	DB	0c8H
	DB	0b0H
	DB	088H
	DB	0ffH
	DB	0c8H
	DB	0acH
	DB	088H
	DB	0ffH
	DB	0c8H
	DB	0a8H
	DB	080H
	DB	0ffH
	DB	0f8H
	DB	0ecH
	DB	0e8H
	DB	0ffH
	DB	0f8H
	DB	0fcH
	DB	0f8H
	DB	0ffH
	DB	0f8H
	DB	0fcH
	DB	0f8H
	DB	0ffH
	DB	0d8H
	DB	0bcH
	DB	0a0H
	DB	0ffH
	DB	0c0H
	DB	0a0H
	DB	078H
	DB	0ffH
	DB	0d8H
	DB	0bcH
	DB	0a0H
	DB	0ffH
	DB	0f8H
	DB	0f4H
	DB	0f0H
	DB	0ffH
	DB	0f8H
	DB	0f4H
	DB	0f0H
	DB	0ffH
	DB	0d0H
	DB	0bcH
	DB	0a0H
	DB	0ffH
	DB	0c0H
	DB	0a0H
	DB	078H
	DB	0ffH
	DB	0d8H
	DB	0bcH
	DB	0a0H
	DB	0ffH
	DB	0f8H
	DB	0fcH
	DB	0f8H
	DB	0ffH
	DB	0f8H
	DB	0fcH
	DB	0f8H
	DB	0ffH
	DB	0f8H
	DB	0f0H
	DB	0e8H
	DB	0ffH
	DB	0c8H
	DB	0a4H
	DB	080H
	DB	0ffH
	DB	0c8H
	DB	0acH
	DB	088H
	DB	0ffH
	DB	0c8H
	DB	0b0H
	DB	088H
	DB	0ffH
	DB	0d0H
	DB	0b0H
	DB	088H
	DB	0ffH
	DB	0d0H
	DB	0b0H
	DB	090H
	DB	0ffH
	DB	0d0H
	DB	0b0H
	DB	088H
	DB	0ffH
	DB	0d0H
	DB	0b4H
	DB	088H
	DB	0ffH
	DB	0d0H
	DB	0b0H
	DB	088H
	DB	0ffH
	DB	0c8H
	DB	0b0H
	DB	088H
	DB	0ffH
	DB	0d0H
	DB	0b4H
	DB	088H
	DB	0ffH
	DB	0d8H
	DB	0c0H
	DB	0a0H
	DB	0ffH
	DB	0f8H
	DB	0fcH
	DB	0f8H
	DB	0ffH
	DB	0f8H
	DB	0fcH
	DB	0f8H
	DB	0ffH
	DB	0f8H
	DB	0fcH
	DB	0f8H
	DB	0ffH
	DB	0f8H
	DB	0fcH
	DB	0f8H
	DB	0ffH
	DB	0f8H
	DB	0fcH
	DB	0f8H
	DB	0ffH
	DB	0f8H
	DB	0fcH
	DB	0f8H
	DB	0ffH
	DB	0f8H
	DB	0fcH
	DB	0f8H
	DB	0ffH
	DB	0f8H
	DB	0fcH
	DB	0f8H
	DB	0ffH
	DB	0f8H
	DB	0fcH
	DB	0f8H
	DB	0ffH
	DB	0f8H
	DB	0fcH
	DB	0f8H
	DB	0ffH
	DB	0f8H
	DB	0fcH
	DB	0f8H
	DB	0ffH
	DB	0f8H
	DB	0fcH
	DB	0f8H
	DB	0ffH
	DB	0f8H
	DB	0fcH
	DB	0f8H
	DB	0ffH
	DB	0f8H
	DB	0fcH
	DB	0f8H
	DB	0ffH
	DB	0f8H
	DB	0fcH
	DB	0f8H
	DB	0ffH
	DB	0f8H
	DB	0fcH
	DB	0f8H
	DB	0ffH
	DB	0f8H
	DB	0fcH
	DB	0f8H
	DB	0ffH
	DB	0f8H
	DB	0fcH
	DB	0f8H
	DB	0ffH
	DB	0f8H
	DB	0fcH
	DB	0f8H
	DB	0ffH
	DB	0f8H
	DB	0fcH
	DB	0f8H
	DB	0ffH
	DB	0f8H
	DB	0fcH
	DB	0f8H
	DB	0ffH
	DB	0f8H
	DB	0fcH
	DB	0f8H
	DB	0ffH
	DB	0f8H
	DB	0fcH
	DB	0f8H
	DB	0ffH
	DB	0f8H
	DB	0fcH
	DB	0f8H
	DB	0ffH
	DB	0f8H
	DB	0fcH
	DB	0f8H
	DB	0ffH
	DB	0f8H
	DB	0fcH
	DB	0f8H
	DB	0ffH
	DB	0f8H
	DB	0fcH
	DB	0f8H
	DB	0ffH
	DB	0f8H
	DB	0fcH
	DB	0f8H
	DB	0ffH
	DB	0f8H
	DB	0fcH
	DB	0f8H
	DB	0ffH
	DB	0f8H
	DB	0fcH
	DB	0f8H
	DB	0ffH
	DB	0f8H
	DB	0fcH
	DB	0f8H
	DB	0ffH
	DB	0f8H
	DB	0fcH
	DB	0f8H
	DB	0ffH
	DB	0f8H
	DB	0fcH
	DB	0f8H
	DB	0ffH
	DB	0f8H
	DB	0fcH
	DB	0f8H
	DB	0ffH
	DB	0f8H
	DB	0fcH
	DB	0f8H
	DB	0ffH
	DB	0f8H
	DB	0fcH
	DB	0f8H
	DB	0ffH
	DB	0f8H
	DB	0fcH
	DB	0f8H
	DB	0ffH
	DB	0f8H
	DB	0fcH
	DB	0f8H
	DB	0ffH
	DB	0f8H
	DB	0fcH
	DB	0f8H
	DB	0ffH
	DB	0f8H
	DB	0fcH
	DB	0f8H
	DB	0ffH
	DB	0f8H
	DB	0fcH
	DB	0f8H
	DB	0ffH
	DB	0f8H
	DB	0fcH
	DB	0f8H
	DB	0ffH
	DB	0f8H
	DB	0fcH
	DB	0f8H
	DB	0ffH
	DB	0f8H
	DB	0fcH
	DB	0f8H
	DB	0ffH
	DB	0f8H
	DB	0fcH
	DB	0f8H
	DB	0ffH
	DB	0f8H
	DB	0fcH
	DB	0f8H
	DB	0ffH
	DB	0b0H
	DB	0acH
	DB	0a8H
	DB	0ffH
	DB	058H
	DB	040H
	DB	030H
	DB	0ffH
	DB	0b0H
	DB	0acH
	DB	0a0H
	DB	0ffH
	DB	0f8H
	DB	0fcH
	DB	0f8H
	DB	0ffH
	DB	0f8H
	DB	0fcH
	DB	0f8H
	DB	0ffH
	DB	0f8H
	DB	0fcH
	DB	0f8H
	DB	0ffH
	DB	0f8H
	DB	0fcH
	DB	0f8H
	DB	0ffH
	DB	0f8H
	DB	0fcH
	DB	0f8H
	DB	0ffH
	DB	0f8H
	DB	0fcH
	DB	0f8H
	DB	0ffH
	DB	0f8H
	DB	0fcH
	DB	0f8H
	DB	0ffH
	DB	0f8H
	DB	0fcH
	DB	0f8H
	DB	0ffH
	DB	0f8H
	DB	0fcH
	DB	0f8H
	DB	0ffH
	DB	0f8H
	DB	0fcH
	DB	0f8H
	DB	0ffH
	DB	0f8H
	DB	0fcH
	DB	0f8H
	DB	0ffH
	DB	0f8H
	DB	0fcH
	DB	0f8H
	DB	0ffH
	DB	0f0H
	DB	0f0H
	DB	0e8H
	DB	0ffH
	DB	0d0H
	DB	0b0H
	DB	088H
	DB	0ffH
	DB	0d0H
	DB	0b0H
	DB	088H
	DB	0cfH
	DB	0d0H
	DB	0b0H
	DB	088H
	DB	0a6H
	DB	0c8H
	DB	0b0H
	DB	090H
	DB	0ffH
	DB	0d0H
	DB	0b0H
	DB	088H
	DB	0ffH
	DB	0c8H
	DB	0b4H
	DB	088H
	DB	0ffH
	DB	0d0H
	DB	0b0H
	DB	088H
	DB	0ffH
	DB	0c8H
	DB	0b4H
	DB	090H
	DB	0ffH
	DB	0d0H
	DB	0b0H
	DB	088H
	DB	0ffH
	DB	0d0H
	DB	0b0H
	DB	088H
	DB	0ffH
	DB	0c8H
	DB	0b0H
	DB	088H
	DB	0ffH
	DB	0c8H
	DB	0acH
	DB	088H
	DB	0ffH
	DB	0c8H
	DB	0a4H
	DB	080H
	DB	0ffH
	DB	0f8H
	DB	0fcH
	DB	0f8H
	DB	0ffH
	DB	0f8H
	DB	0fcH
	DB	0f8H
	DB	0ffH
	DB	0f8H
	DB	0fcH
	DB	0f8H
	DB	0ffH
	DB	0c0H
	DB	0a4H
	DB	078H
	DB	0ffH
	DB	0c0H
	DB	0a0H
	DB	078H
	DB	0ffH
	DB	0f8H
	DB	0f8H
	DB	0f0H
	DB	0ffH
	DB	0f8H
	DB	0fcH
	DB	0f8H
	DB	0ffH
	DB	0f8H
	DB	0fcH
	DB	0f8H
	DB	0ffH
	DB	0f8H
	DB	0f4H
	DB	0f0H
	DB	0ffH
	DB	0c0H
	DB	0a0H
	DB	078H
	DB	0ffH
	DB	0c0H
	DB	0a0H
	DB	078H
	DB	0ffH
	DB	0f8H
	DB	0fcH
	DB	0f8H
	DB	0ffH
	DB	0f8H
	DB	0fcH
	DB	0f8H
	DB	0ffH
	DB	0f8H
	DB	0fcH
	DB	0f8H
	DB	0ffH
	DB	0c8H
	DB	0a4H
	DB	080H
	DB	0ffH
	DB	0c8H
	DB	0acH
	DB	088H
	DB	0ffH
	DB	0d0H
	DB	0b0H
	DB	088H
	DB	0ffH
	DB	0d0H
	DB	0b4H
	DB	088H
	DB	0ffH
	DB	0c8H
	DB	0b0H
	DB	090H
	DB	0ffH
	DB	0c8H
	DB	0b0H
	DB	090H
	DB	0ffH
	DB	0d0H
	DB	0b0H
	DB	088H
	DB	0ffH
	DB	0d0H
	DB	0b4H
	DB	090H
	DB	0ffH
	DB	0d0H
	DB	0b0H
	DB	090H
	DB	0ffH
	DB	0d0H
	DB	0b0H
	DB	088H
	DB	0ffH
	DB	0e0H
	DB	0ccH
	DB	0b8H
	DB	0ffH
	DB	0f8H
	DB	0fcH
	DB	0f8H
	DB	0ffH
	DB	0f8H
	DB	0fcH
	DB	0f8H
	DB	0ffH
	DB	0f8H
	DB	0fcH
	DB	0f8H
	DB	0ffH
	DB	0f8H
	DB	0fcH
	DB	0f8H
	DB	0ffH
	DB	0f8H
	DB	0fcH
	DB	0f8H
	DB	0ffH
	DB	0f8H
	DB	0fcH
	DB	0f8H
	DB	0ffH
	DB	0f8H
	DB	0fcH
	DB	0f8H
	DB	0ffH
	DB	0f8H
	DB	0fcH
	DB	0f8H
	DB	0ffH
	DB	0f8H
	DB	0fcH
	DB	0f8H
	DB	0ffH
	DB	0f8H
	DB	0fcH
	DB	0f8H
	DB	0ffH
	DB	0f8H
	DB	0fcH
	DB	0f8H
	DB	0ffH
	DB	0f8H
	DB	0fcH
	DB	0f8H
	DB	0ffH
	DB	0f8H
	DB	0fcH
	DB	0f8H
	DB	0ffH
	DB	0f8H
	DB	0fcH
	DB	0f8H
	DB	0ffH
	DB	0f8H
	DB	0fcH
	DB	0f8H
	DB	0ffH
	DB	0f8H
	DB	0fcH
	DB	0f8H
	DB	0ffH
	DB	0f8H
	DB	0fcH
	DB	0f8H
	DB	0ffH
	DB	0f8H
	DB	0fcH
	DB	0f8H
	DB	0ffH
	DB	0f8H
	DB	0fcH
	DB	0f8H
	DB	0ffH
	DB	0f8H
	DB	0fcH
	DB	0f8H
	DB	0ffH
	DB	0f8H
	DB	0fcH
	DB	0f8H
	DB	0ffH
	DB	0f8H
	DB	0fcH
	DB	0f8H
	DB	0ffH
	DB	0f8H
	DB	0fcH
	DB	0f8H
	DB	0ffH
	DB	0f8H
	DB	0fcH
	DB	0f8H
	DB	0ffH
	DB	0f8H
	DB	0fcH
	DB	0f8H
	DB	0ffH
	DB	0f8H
	DB	0fcH
	DB	0f8H
	DB	0ffH
	DB	0f8H
	DB	0fcH
	DB	0f8H
	DB	0ffH
	DB	0f8H
	DB	0fcH
	DB	0f8H
	DB	0ffH
	DB	0f8H
	DB	0fcH
	DB	0f8H
	DB	0ffH
	DB	0f8H
	DB	0fcH
	DB	0f8H
	DB	0ffH
	DB	0f8H
	DB	0fcH
	DB	0f8H
	DB	0ffH
	DB	0f8H
	DB	0fcH
	DB	0f8H
	DB	0ffH
	DB	0f8H
	DB	0fcH
	DB	0f8H
	DB	0ffH
	DB	0f8H
	DB	0fcH
	DB	0f8H
	DB	0ffH
	DB	0f8H
	DB	0fcH
	DB	0f8H
	DB	0ffH
	DB	0f8H
	DB	0fcH
	DB	0f8H
	DB	0ffH
	DB	0f8H
	DB	0fcH
	DB	0f8H
	DB	0ffH
	DB	0f8H
	DB	0fcH
	DB	0f8H
	DB	0ffH
	DB	0f8H
	DB	0fcH
	DB	0f8H
	DB	0ffH
	DB	0f8H
	DB	0fcH
	DB	0f8H
	DB	0ffH
	DB	0f8H
	DB	0fcH
	DB	0f8H
	DB	0ffH
	DB	0f8H
	DB	0fcH
	DB	0f8H
	DB	0ffH
	DB	0f8H
	DB	0fcH
	DB	0f8H
	DB	0ffH
	DB	0f8H
	DB	0fcH
	DB	0f8H
	DB	0ffH
	DB	0f8H
	DB	0fcH
	DB	0f8H
	DB	0ffH
	DB	0f8H
	DB	0fcH
	DB	0f8H
	DB	0ffH
	DB	0b0H
	DB	0acH
	DB	0a8H
	DB	0ffH
	DB	058H
	DB	040H
	DB	030H
	DB	0ffH
	DB	0b8H
	DB	0acH
	DB	0a8H
	DB	0ffH
	DB	0f8H
	DB	0fcH
	DB	0f8H
	DB	0ffH
	DB	0f8H
	DB	0fcH
	DB	0f8H
	DB	0ffH
	DB	0f8H
	DB	0fcH
	DB	0f8H
	DB	0ffH
	DB	0f8H
	DB	0fcH
	DB	0f8H
	DB	0ffH
	DB	0f8H
	DB	0fcH
	DB	0f8H
	DB	0ffH
	DB	0f8H
	DB	0fcH
	DB	0f8H
	DB	0ffH
	DB	0f8H
	DB	0fcH
	DB	0f8H
	DB	0ffH
	DB	0f8H
	DB	0fcH
	DB	0f8H
	DB	0ffH
	DB	0f8H
	DB	0fcH
	DB	0f8H
	DB	0ffH
	DB	0f8H
	DB	0fcH
	DB	0f8H
	DB	0ffH
	DB	0f8H
	DB	0fcH
	DB	0f8H
	DB	0ffH
	DB	0f8H
	DB	0fcH
	DB	0f8H
	DB	0ffH
	DB	0e8H
	DB	0e0H
	DB	0d0H
	DB	0ffH
	DB	0d0H
	DB	0b0H
	DB	090H
	DB	0ffH
	DB	0d0H
	DB	0b0H
	DB	088H
	DB	0a6H
	DB	0d0H
	DB	0b0H
	DB	088H
	DB	069H
	DB	0d0H
	DB	0b0H
	DB	090H
	DB	0ffH
	DB	0d0H
	DB	0b0H
	DB	090H
	DB	0ffH
	DB	0d0H
	DB	0b0H
	DB	088H
	DB	0ffH
	DB	0c8H
	DB	0b0H
	DB	088H
	DB	0ffH
	DB	0d0H
	DB	0b4H
	DB	090H
	DB	0ffH
	DB	0d0H
	DB	0b0H
	DB	088H
	DB	0ffH
	DB	0d0H
	DB	0b0H
	DB	088H
	DB	0ffH
	DB	0d0H
	DB	0b0H
	DB	088H
	DB	0ffH
	DB	0c8H
	DB	0acH
	DB	088H
	DB	0ffH
	DB	0c8H
	DB	0a4H
	DB	080H
	DB	0ffH
	DB	0f8H
	DB	0fcH
	DB	0f8H
	DB	0ffH
	DB	0f8H
	DB	0fcH
	DB	0f8H
	DB	0ffH
	DB	0f8H
	DB	0fcH
	DB	0f8H
	DB	0ffH
	DB	0c0H
	DB	0a0H
	DB	078H
	DB	0ffH
	DB	0c0H
	DB	0a0H
	DB	078H
	DB	0ffH
	DB	0f8H
	DB	0f4H
	DB	0f0H
	DB	0ffH
	DB	0f8H
	DB	0fcH
	DB	0f8H
	DB	0ffH
	DB	0f8H
	DB	0fcH
	DB	0f8H
	DB	0ffH
	DB	0f8H
	DB	0f8H
	DB	0f0H
	DB	0ffH
	DB	0c0H
	DB	0a0H
	DB	078H
	DB	0ffH
	DB	0c0H
	DB	0a0H
	DB	078H
	DB	0ffH
	DB	0f8H
	DB	0fcH
	DB	0f8H
	DB	0ffH
	DB	0f8H
	DB	0fcH
	DB	0f8H
	DB	0ffH
	DB	0f8H
	DB	0fcH
	DB	0f8H
	DB	0ffH
	DB	0c8H
	DB	0a4H
	DB	078H
	DB	0ffH
	DB	0c8H
	DB	0acH
	DB	088H
	DB	0ffH
	DB	0d0H
	DB	0b0H
	DB	088H
	DB	0ffH
	DB	0d0H
	DB	0b0H
	DB	088H
	DB	0ffH
	DB	0d0H
	DB	0b4H
	DB	088H
	DB	0ffH
	DB	0d0H
	DB	0b0H
	DB	088H
	DB	0ffH
	DB	0c8H
	DB	0b0H
	DB	090H
	DB	0ffH
	DB	0d0H
	DB	0b0H
	DB	088H
	DB	0ffH
	DB	0d0H
	DB	0b0H
	DB	088H
	DB	0ffH
	DB	0c8H
	DB	0b0H
	DB	090H
	DB	0ffH
	DB	0e8H
	DB	0e0H
	DB	0d0H
	DB	0ffH
	DB	0f8H
	DB	0fcH
	DB	0f8H
	DB	0ffH
	DB	0f8H
	DB	0fcH
	DB	0f8H
	DB	0ffH
	DB	0f8H
	DB	0fcH
	DB	0f8H
	DB	0ffH
	DB	0f8H
	DB	0fcH
	DB	0f8H
	DB	0ffH
	DB	0f8H
	DB	0fcH
	DB	0f8H
	DB	0ffH
	DB	0f8H
	DB	0fcH
	DB	0f8H
	DB	0ffH
	DB	0f8H
	DB	0fcH
	DB	0f8H
	DB	0ffH
	DB	0f8H
	DB	0fcH
	DB	0f8H
	DB	0ffH
	DB	0f8H
	DB	0fcH
	DB	0f8H
	DB	0ffH
	DB	0f8H
	DB	0fcH
	DB	0f8H
	DB	0ffH
	DB	0f8H
	DB	0fcH
	DB	0f8H
	DB	0ffH
	DB	0f8H
	DB	0fcH
	DB	0f8H
	DB	0ffH
	DB	0f8H
	DB	0fcH
	DB	0f8H
	DB	0ffH
	DB	0f8H
	DB	0fcH
	DB	0f8H
	DB	0ffH
	DB	0f8H
	DB	0fcH
	DB	0f8H
	DB	0ffH
	DB	0f8H
	DB	0fcH
	DB	0f8H
	DB	0ffH
	DB	0f8H
	DB	0fcH
	DB	0f8H
	DB	0ffH
	DB	0f8H
	DB	0fcH
	DB	0f8H
	DB	0ffH
	DB	0f8H
	DB	0fcH
	DB	0f8H
	DB	0ffH
	DB	0f8H
	DB	0fcH
	DB	0f8H
	DB	0ffH
	DB	0f8H
	DB	0fcH
	DB	0f8H
	DB	0ffH
	DB	0f8H
	DB	0fcH
	DB	0f8H
	DB	0ffH
	DB	0f8H
	DB	0fcH
	DB	0f8H
	DB	0ffH
	DB	0f8H
	DB	0fcH
	DB	0f8H
	DB	0ffH
	DB	0f8H
	DB	0fcH
	DB	0f8H
	DB	0ffH
	DB	0f8H
	DB	0fcH
	DB	0f8H
	DB	0ffH
	DB	0f8H
	DB	0fcH
	DB	0f8H
	DB	0ffH
	DB	0f8H
	DB	0fcH
	DB	0f8H
	DB	0ffH
	DB	0f8H
	DB	0fcH
	DB	0f8H
	DB	0ffH
	DB	0f8H
	DB	0fcH
	DB	0f8H
	DB	0ffH
	DB	0f8H
	DB	0fcH
	DB	0f8H
	DB	0ffH
	DB	0f8H
	DB	0fcH
	DB	0f8H
	DB	0ffH
	DB	0f8H
	DB	0fcH
	DB	0f8H
	DB	0ffH
	DB	0f8H
	DB	0fcH
	DB	0f8H
	DB	0ffH
	DB	0f8H
	DB	0fcH
	DB	0f8H
	DB	0ffH
	DB	0f8H
	DB	0fcH
	DB	0f8H
	DB	0ffH
	DB	0f8H
	DB	0fcH
	DB	0f8H
	DB	0ffH
	DB	0f8H
	DB	0fcH
	DB	0f8H
	DB	0ffH
	DB	0f8H
	DB	0fcH
	DB	0f8H
	DB	0ffH
	DB	0f8H
	DB	0fcH
	DB	0f8H
	DB	0ffH
	DB	0f8H
	DB	0fcH
	DB	0f8H
	DB	0ffH
	DB	0f8H
	DB	0fcH
	DB	0f8H
	DB	0ffH
	DB	0f8H
	DB	0fcH
	DB	0f8H
	DB	0ffH
	DB	0f8H
	DB	0fcH
	DB	0f8H
	DB	0ffH
	DB	0f8H
	DB	0fcH
	DB	0f8H
	DB	0ffH
	DB	0f8H
	DB	0fcH
	DB	0f8H
	DB	0ffH
	DB	0b0H
	DB	0acH
	DB	0a0H
	DB	0ffH
	DB	058H
	DB	040H
	DB	030H
	DB	0ffH
	DB	0b0H
	DB	0acH
	DB	0a8H
	DB	0ffH
	DB	0f8H
	DB	0fcH
	DB	0f8H
	DB	0ffH
	DB	0f8H
	DB	0fcH
	DB	0f8H
	DB	0ffH
	DB	0f8H
	DB	0fcH
	DB	0f8H
	DB	0ffH
	DB	0f8H
	DB	0fcH
	DB	0f8H
	DB	0ffH
	DB	0f8H
	DB	0fcH
	DB	0f8H
	DB	0ffH
	DB	0f8H
	DB	0fcH
	DB	0f8H
	DB	0ffH
	DB	0f8H
	DB	0fcH
	DB	0f8H
	DB	0ffH
	DB	0f8H
	DB	0fcH
	DB	0f8H
	DB	0ffH
	DB	0f8H
	DB	0fcH
	DB	0f8H
	DB	0ffH
	DB	0f8H
	DB	0fcH
	DB	0f8H
	DB	0ffH
	DB	0f8H
	DB	0fcH
	DB	0f8H
	DB	0ffH
	DB	0f8H
	DB	0fcH
	DB	0f8H
	DB	0ffH
	DB	0e0H
	DB	0ccH
	DB	0b0H
	DB	0ffH
	DB	0d0H
	DB	0b4H
	DB	088H
	DB	0ffH
	DB	0d0H
	DB	0b0H
	DB	090H
	DB	069H
	DB	0d0H
	DB	0b0H
	DB	088H
	DB	020H
	DB	0c8H
	DB	0b4H
	DB	088H
	DB	0ffH
	DB	0d0H
	DB	0b0H
	DB	090H
	DB	0ffH
	DB	0d0H
	DB	0b0H
	DB	088H
	DB	0ffH
	DB	0d0H
	DB	0b0H
	DB	090H
	DB	0ffH
	DB	0d0H
	DB	0b0H
	DB	088H
	DB	0ffH
	DB	0c8H
	DB	0b4H
	DB	090H
	DB	0ffH
	DB	0d0H
	DB	0b0H
	DB	090H
	DB	0ffH
	DB	0d0H
	DB	0b0H
	DB	088H
	DB	0ffH
	DB	0c8H
	DB	0acH
	DB	088H
	DB	0ffH
	DB	0c8H
	DB	0a8H
	DB	080H
	DB	0ffH
	DB	0f8H
	DB	0f0H
	DB	0e8H
	DB	0ffH
	DB	0f8H
	DB	0fcH
	DB	0f8H
	DB	0ffH
	DB	0f8H
	DB	0fcH
	DB	0f8H
	DB	0ffH
	DB	0d8H
	DB	0bcH
	DB	0a0H
	DB	0ffH
	DB	0c0H
	DB	09cH
	DB	078H
	DB	0ffH
	DB	0d8H
	DB	0bcH
	DB	0a0H
	DB	0ffH
	DB	0f8H
	DB	0f8H
	DB	0f8H
	DB	0ffH
	DB	0f8H
	DB	0f4H
	DB	0f0H
	DB	0ffH
	DB	0d0H
	DB	0bcH
	DB	0a0H
	DB	0ffH
	DB	0c0H
	DB	09cH
	DB	078H
	DB	0ffH
	DB	0d8H
	DB	0bcH
	DB	0a0H
	DB	0ffH
	DB	0f8H
	DB	0fcH
	DB	0f8H
	DB	0ffH
	DB	0f8H
	DB	0fcH
	DB	0f8H
	DB	0ffH
	DB	0f0H
	DB	0f0H
	DB	0e8H
	DB	0ffH
	DB	0c8H
	DB	0a8H
	DB	080H
	DB	0ffH
	DB	0c8H
	DB	0acH
	DB	080H
	DB	0ffH
	DB	0c8H
	DB	0b0H
	DB	088H
	DB	0ffH
	DB	0d0H
	DB	0b0H
	DB	090H
	DB	0ffH
	DB	0d0H
	DB	0b0H
	DB	088H
	DB	0ffH
	DB	0d0H
	DB	0b4H
	DB	088H
	DB	0ffH
	DB	0d0H
	DB	0b0H
	DB	090H
	DB	0ffH
	DB	0c8H
	DB	0b4H
	DB	088H
	DB	0ffH
	DB	0d0H
	DB	0b0H
	DB	088H
	DB	0ffH
	DB	0d0H
	DB	0b4H
	DB	090H
	DB	0ffH
	DB	0f8H
	DB	0f4H
	DB	0f0H
	DB	0ffH
	DB	0f8H
	DB	0fcH
	DB	0f8H
	DB	0ffH
	DB	0f8H
	DB	0fcH
	DB	0f8H
	DB	0ffH
	DB	0f8H
	DB	0fcH
	DB	0f8H
	DB	0ffH
	DB	0f8H
	DB	0fcH
	DB	0f8H
	DB	0ffH
	DB	0f8H
	DB	0fcH
	DB	0f8H
	DB	0ffH
	DB	0f8H
	DB	0fcH
	DB	0f8H
	DB	0ffH
	DB	0f8H
	DB	0fcH
	DB	0f8H
	DB	0ffH
	DB	0f8H
	DB	0fcH
	DB	0f8H
	DB	0ffH
	DB	0f8H
	DB	0fcH
	DB	0f8H
	DB	0ffH
	DB	0f8H
	DB	0fcH
	DB	0f8H
	DB	0ffH
	DB	0f8H
	DB	0fcH
	DB	0f8H
	DB	0ffH
	DB	0f8H
	DB	0fcH
	DB	0f8H
	DB	0ffH
	DB	0f8H
	DB	0fcH
	DB	0f8H
	DB	0ffH
	DB	0f8H
	DB	0fcH
	DB	0f8H
	DB	0ffH
	DB	0f8H
	DB	0fcH
	DB	0f8H
	DB	0ffH
	DB	0f8H
	DB	0fcH
	DB	0f8H
	DB	0ffH
	DB	0f8H
	DB	0fcH
	DB	0f8H
	DB	0ffH
	DB	0f8H
	DB	0fcH
	DB	0f8H
	DB	0ffH
	DB	0f8H
	DB	0fcH
	DB	0f8H
	DB	0ffH
	DB	0f8H
	DB	0fcH
	DB	0f8H
	DB	0ffH
	DB	0f8H
	DB	0fcH
	DB	0f8H
	DB	0ffH
	DB	0f8H
	DB	0fcH
	DB	0f8H
	DB	0ffH
	DB	0f8H
	DB	0fcH
	DB	0f8H
	DB	0ffH
	DB	0f8H
	DB	0fcH
	DB	0f8H
	DB	0ffH
	DB	0f8H
	DB	0fcH
	DB	0f8H
	DB	0ffH
	DB	0f8H
	DB	0fcH
	DB	0f8H
	DB	0ffH
	DB	0f8H
	DB	0fcH
	DB	0f8H
	DB	0ffH
	DB	0f8H
	DB	0fcH
	DB	0f8H
	DB	0ffH
	DB	0f8H
	DB	0fcH
	DB	0f8H
	DB	0ffH
	DB	0f8H
	DB	0fcH
	DB	0f8H
	DB	0ffH
	DB	0f8H
	DB	0fcH
	DB	0f8H
	DB	0ffH
	DB	0f8H
	DB	0fcH
	DB	0f8H
	DB	0ffH
	DB	0f8H
	DB	0fcH
	DB	0f8H
	DB	0ffH
	DB	0f8H
	DB	0fcH
	DB	0f8H
	DB	0ffH
	DB	0f8H
	DB	0fcH
	DB	0f8H
	DB	0ffH
	DB	0f8H
	DB	0fcH
	DB	0f8H
	DB	0ffH
	DB	0f8H
	DB	0fcH
	DB	0f8H
	DB	0ffH
	DB	0f8H
	DB	0fcH
	DB	0f8H
	DB	0ffH
	DB	0f8H
	DB	0fcH
	DB	0f8H
	DB	0ffH
	DB	0f8H
	DB	0fcH
	DB	0f8H
	DB	0ffH
	DB	0f8H
	DB	0fcH
	DB	0f8H
	DB	0ffH
	DB	0f8H
	DB	0fcH
	DB	0f8H
	DB	0ffH
	DB	0f8H
	DB	0fcH
	DB	0f8H
	DB	0ffH
	DB	0f8H
	DB	0fcH
	DB	0f8H
	DB	0ffH
	DB	0f8H
	DB	0fcH
	DB	0f8H
	DB	0ffH
	DB	0f8H
	DB	0fcH
	DB	0f8H
	DB	0ffH
	DB	0f8H
	DB	0fcH
	DB	0f8H
	DB	0ffH
	DB	0f8H
	DB	0f4H
	DB	0f0H
	DB	0ffH
	DB	0f8H
	DB	0fcH
	DB	0f8H
	DB	0ffH
	DB	0f8H
	DB	0fcH
	DB	0f8H
	DB	0ffH
	DB	0f8H
	DB	0fcH
	DB	0f8H
	DB	0ffH
	DB	0f8H
	DB	0fcH
	DB	0f8H
	DB	0ffH
	DB	0f8H
	DB	0fcH
	DB	0f8H
	DB	0ffH
	DB	0f8H
	DB	0fcH
	DB	0f8H
	DB	0ffH
	DB	0f8H
	DB	0fcH
	DB	0f8H
	DB	0ffH
	DB	0f8H
	DB	0fcH
	DB	0f8H
	DB	0ffH
	DB	0f8H
	DB	0fcH
	DB	0f8H
	DB	0ffH
	DB	0f8H
	DB	0fcH
	DB	0f8H
	DB	0ffH
	DB	0f8H
	DB	0fcH
	DB	0f8H
	DB	0ffH
	DB	0f8H
	DB	0fcH
	DB	0f8H
	DB	0ffH
	DB	0f8H
	DB	0fcH
	DB	0f8H
	DB	0ffH
	DB	0d0H
	DB	0b4H
	DB	090H
	DB	0ffH
	DB	0d0H
	DB	0b0H
	DB	088H
	DB	0ffH
	DB	0d0H
	DB	0b0H
	DB	088H
	DB	020H
	DB	0d0H
	DB	0b0H
	DB	088H
	DB	00H
	DB	0d0H
	DB	0b0H
	DB	088H
	DB	0c3H
	DB	0c8H
	DB	0b4H
	DB	088H
	DB	0ffH
	DB	0d0H
	DB	0b4H
	DB	090H
	DB	0ffH
	DB	0d0H
	DB	0b0H
	DB	088H
	DB	0ffH
	DB	0c8H
	DB	0b0H
	DB	088H
	DB	0ffH
	DB	0d0H
	DB	0b0H
	DB	088H
	DB	0ffH
	DB	0d0H
	DB	0b4H
	DB	088H
	DB	0ffH
	DB	0c8H
	DB	0b0H
	DB	088H
	DB	0ffH
	DB	0c8H
	DB	0acH
	DB	088H
	DB	0ffH
	DB	0c8H
	DB	0a8H
	DB	080H
	DB	0ffH
	DB	0e0H
	DB	0d4H
	DB	0c0H
	DB	0ffH
	DB	0f8H
	DB	0fcH
	DB	0f8H
	DB	0ffH
	DB	0f8H
	DB	0fcH
	DB	0f8H
	DB	0ffH
	DB	0f8H
	DB	0f0H
	DB	0e8H
	DB	0ffH
	DB	0c0H
	DB	0a4H
	DB	080H
	DB	0ffH
	DB	0c0H
	DB	0a0H
	DB	078H
	DB	0ffH
	DB	0c0H
	DB	0a0H
	DB	078H
	DB	0ffH
	DB	0c0H
	DB	0a0H
	DB	078H
	DB	0ffH
	DB	0c0H
	DB	09cH
	DB	078H
	DB	0ffH
	DB	0c8H
	DB	0a4H
	DB	078H
	DB	0ffH
	DB	0f8H
	DB	0f0H
	DB	0e8H
	DB	0ffH
	DB	0f8H
	DB	0fcH
	DB	0f8H
	DB	0ffH
	DB	0f8H
	DB	0fcH
	DB	0f8H
	DB	0ffH
	DB	0e0H
	DB	0d4H
	DB	0c0H
	DB	0ffH
	DB	0c8H
	DB	0a8H
	DB	080H
	DB	0ffH
	DB	0c8H
	DB	0acH
	DB	088H
	DB	0ffH
	DB	0d0H
	DB	0b0H
	DB	088H
	DB	0ffH
	DB	0d0H
	DB	0b0H
	DB	090H
	DB	0ffH
	DB	0c8H
	DB	0b0H
	DB	090H
	DB	0ffH
	DB	0d0H
	DB	0b0H
	DB	088H
	DB	0ffH
	DB	0d0H
	DB	0b0H
	DB	088H
	DB	0ffH
	DB	0d0H
	DB	0b0H
	DB	090H
	DB	0ffH
	DB	0d0H
	DB	0b4H
	DB	088H
	DB	0ffH
	DB	0d8H
	DB	0c4H
	DB	0a8H
	DB	0ffH
	DB	0f8H
	DB	0fcH
	DB	0f8H
	DB	0ffH
	DB	0f8H
	DB	0fcH
	DB	0f8H
	DB	0ffH
	DB	0f8H
	DB	0fcH
	DB	0f8H
	DB	0ffH
	DB	0f8H
	DB	0fcH
	DB	0f8H
	DB	0ffH
	DB	0f8H
	DB	0fcH
	DB	0f8H
	DB	0ffH
	DB	0f8H
	DB	0fcH
	DB	0f8H
	DB	0ffH
	DB	0f8H
	DB	0fcH
	DB	0f8H
	DB	0ffH
	DB	0f8H
	DB	0fcH
	DB	0f8H
	DB	0ffH
	DB	0f8H
	DB	0fcH
	DB	0f8H
	DB	0ffH
	DB	0f8H
	DB	0fcH
	DB	0f8H
	DB	0ffH
	DB	0f8H
	DB	0fcH
	DB	0f8H
	DB	0ffH
	DB	0f8H
	DB	0fcH
	DB	0f8H
	DB	0ffH
	DB	0f8H
	DB	0fcH
	DB	0f8H
	DB	0ffH
	DB	0f8H
	DB	0fcH
	DB	0f8H
	DB	0ffH
	DB	0f8H
	DB	0fcH
	DB	0f8H
	DB	0ffH
	DB	0f8H
	DB	0fcH
	DB	0f8H
	DB	0ffH
	DB	0f8H
	DB	0fcH
	DB	0f8H
	DB	0ffH
	DB	0f8H
	DB	0fcH
	DB	0f8H
	DB	0ffH
	DB	0f8H
	DB	0fcH
	DB	0f8H
	DB	0ffH
	DB	0f8H
	DB	0fcH
	DB	0f8H
	DB	0ffH
	DB	0f8H
	DB	0fcH
	DB	0f8H
	DB	0ffH
	DB	0f8H
	DB	0fcH
	DB	0f8H
	DB	0ffH
	DB	0f8H
	DB	0fcH
	DB	0f8H
	DB	0ffH
	DB	0f8H
	DB	0fcH
	DB	0f8H
	DB	0ffH
	DB	0f8H
	DB	0fcH
	DB	0f8H
	DB	0ffH
	DB	0f8H
	DB	0fcH
	DB	0f8H
	DB	0ffH
	DB	0f8H
	DB	0fcH
	DB	0f8H
	DB	0ffH
	DB	0f8H
	DB	0fcH
	DB	0f8H
	DB	0ffH
	DB	0f8H
	DB	0fcH
	DB	0f8H
	DB	0ffH
	DB	0f8H
	DB	0fcH
	DB	0f8H
	DB	0ffH
	DB	0f8H
	DB	0fcH
	DB	0f8H
	DB	0ffH
	DB	0f8H
	DB	0fcH
	DB	0f8H
	DB	0ffH
	DB	0f8H
	DB	0fcH
	DB	0f8H
	DB	0ffH
	DB	0f8H
	DB	0fcH
	DB	0f8H
	DB	0ffH
	DB	0f8H
	DB	0fcH
	DB	0f8H
	DB	0ffH
	DB	0f8H
	DB	0fcH
	DB	0f8H
	DB	0ffH
	DB	0f8H
	DB	0fcH
	DB	0f8H
	DB	0ffH
	DB	0f8H
	DB	0fcH
	DB	0f8H
	DB	0ffH
	DB	0f8H
	DB	0fcH
	DB	0f8H
	DB	0ffH
	DB	0f8H
	DB	0fcH
	DB	0f8H
	DB	0ffH
	DB	0f8H
	DB	0fcH
	DB	0f8H
	DB	0ffH
	DB	0f8H
	DB	0fcH
	DB	0f8H
	DB	0ffH
	DB	0f8H
	DB	0fcH
	DB	0f8H
	DB	0ffH
	DB	0f8H
	DB	0fcH
	DB	0f8H
	DB	0ffH
	DB	0f8H
	DB	0fcH
	DB	0f8H
	DB	0ffH
	DB	0f8H
	DB	0fcH
	DB	0f8H
	DB	0ffH
	DB	0f8H
	DB	0fcH
	DB	0f8H
	DB	0ffH
	DB	0f8H
	DB	0fcH
	DB	0f8H
	DB	0ffH
	DB	0f8H
	DB	0fcH
	DB	0f8H
	DB	0ffH
	DB	0f8H
	DB	0fcH
	DB	0f8H
	DB	0ffH
	DB	0f8H
	DB	0fcH
	DB	0f8H
	DB	0ffH
	DB	0f8H
	DB	0fcH
	DB	0f8H
	DB	0ffH
	DB	0f8H
	DB	0fcH
	DB	0f8H
	DB	0ffH
	DB	0f8H
	DB	0fcH
	DB	0f8H
	DB	0ffH
	DB	0f8H
	DB	0fcH
	DB	0f8H
	DB	0ffH
	DB	0f8H
	DB	0fcH
	DB	0f8H
	DB	0ffH
	DB	0f8H
	DB	0fcH
	DB	0f8H
	DB	0ffH
	DB	0f8H
	DB	0fcH
	DB	0f8H
	DB	0ffH
	DB	0f8H
	DB	0fcH
	DB	0f8H
	DB	0ffH
	DB	0f8H
	DB	0fcH
	DB	0f8H
	DB	0ffH
	DB	0f8H
	DB	0fcH
	DB	0f8H
	DB	0ffH
	DB	0e8H
	DB	0e0H
	DB	0d0H
	DB	0ffH
	DB	0d0H
	DB	0b4H
	DB	090H
	DB	0ffH
	DB	0d0H
	DB	0b0H
	DB	090H
	DB	0c3H
	DB	0f8H
	DB	0fcH
	DB	0f8H
	DB	00H
	DB	0d0H
	DB	0b0H
	DB	090H
	DB	00H
	DB	0d0H
	DB	0b0H
	DB	088H
	DB	059H
	DB	0d0H
	DB	0b0H
	DB	088H
	DB	0ffH
	DB	0c8H
	DB	0b0H
	DB	090H
	DB	0ffH
	DB	0d0H
	DB	0b4H
	DB	088H
	DB	0ffH
	DB	0d0H
	DB	0b0H
	DB	090H
	DB	0ffH
	DB	0d0H
	DB	0b0H
	DB	088H
	DB	0ffH
	DB	0d0H
	DB	0b0H
	DB	088H
	DB	0ffH
	DB	0d0H
	DB	0b0H
	DB	090H
	DB	0ffH
	DB	0c8H
	DB	0b0H
	DB	088H
	DB	0ffH
	DB	0c8H
	DB	0acH
	DB	080H
	DB	0ffH
	DB	0d0H
	DB	0b0H
	DB	088H
	DB	0ffH
	DB	0f8H
	DB	0f8H
	DB	0f8H
	DB	0ffH
	DB	0f8H
	DB	0fcH
	DB	0f8H
	DB	0ffH
	DB	0f8H
	DB	0fcH
	DB	0f8H
	DB	0ffH
	DB	0f8H
	DB	0f0H
	DB	0e8H
	DB	0ffH
	DB	0d8H
	DB	0bcH
	DB	0a0H
	DB	0ffH
	DB	0c0H
	DB	0a0H
	DB	078H
	DB	0ffH
	DB	0c8H
	DB	0a0H
	DB	078H
	DB	0ffH
	DB	0d8H
	DB	0bcH
	DB	0a0H
	DB	0ffH
	DB	0f8H
	DB	0f0H
	DB	0e8H
	DB	0ffH
	DB	0f8H
	DB	0fcH
	DB	0f8H
	DB	0ffH
	DB	0f8H
	DB	0fcH
	DB	0f8H
	DB	0ffH
	DB	0f8H
	DB	0fcH
	DB	0f8H
	DB	0ffH
	DB	0d0H
	DB	0acH
	DB	088H
	DB	0ffH
	DB	0c8H
	DB	0a8H
	DB	080H
	DB	0ffH
	DB	0d0H
	DB	0b0H
	DB	088H
	DB	0ffH
	DB	0d0H
	DB	0b0H
	DB	088H
	DB	0ffH
	DB	0d0H
	DB	0b4H
	DB	088H
	DB	0ffH
	DB	0c8H
	DB	0b0H
	DB	090H
	DB	0ffH
	DB	0d0H
	DB	0b0H
	DB	088H
	DB	0ffH
	DB	0d0H
	DB	0b4H
	DB	088H
	DB	0ffH
	DB	0c8H
	DB	0b0H
	DB	090H
	DB	0ffH
	DB	0d0H
	DB	0b0H
	DB	088H
	DB	0ffH
	DB	0f0H
	DB	0e4H
	DB	0d8H
	DB	0ffH
	DB	0f8H
	DB	0fcH
	DB	0f8H
	DB	0ffH
	DB	0f8H
	DB	0fcH
	DB	0f8H
	DB	0ffH
	DB	0f8H
	DB	0fcH
	DB	0f8H
	DB	0ffH
	DB	0f8H
	DB	0fcH
	DB	0f8H
	DB	0ffH
	DB	0f8H
	DB	0fcH
	DB	0f8H
	DB	0ffH
	DB	0f8H
	DB	0fcH
	DB	0f8H
	DB	0ffH
	DB	0f8H
	DB	0fcH
	DB	0f8H
	DB	0ffH
	DB	0f8H
	DB	0fcH
	DB	0f8H
	DB	0ffH
	DB	0f8H
	DB	0fcH
	DB	0f8H
	DB	0ffH
	DB	0f8H
	DB	0fcH
	DB	0f8H
	DB	0ffH
	DB	0f8H
	DB	0fcH
	DB	0f8H
	DB	0ffH
	DB	0f8H
	DB	0fcH
	DB	0f8H
	DB	0ffH
	DB	0f8H
	DB	0fcH
	DB	0f8H
	DB	0ffH
	DB	0f8H
	DB	0fcH
	DB	0f8H
	DB	0ffH
	DB	0f8H
	DB	0fcH
	DB	0f8H
	DB	0ffH
	DB	0f8H
	DB	0fcH
	DB	0f8H
	DB	0ffH
	DB	0f8H
	DB	0fcH
	DB	0f8H
	DB	0ffH
	DB	0f8H
	DB	0fcH
	DB	0f8H
	DB	0ffH
	DB	0f8H
	DB	0fcH
	DB	0f8H
	DB	0ffH
	DB	0f8H
	DB	0fcH
	DB	0f8H
	DB	0ffH
	DB	0f8H
	DB	0fcH
	DB	0f8H
	DB	0ffH
	DB	0f8H
	DB	0fcH
	DB	0f8H
	DB	0ffH
	DB	0f8H
	DB	0fcH
	DB	0f8H
	DB	0ffH
	DB	0f8H
	DB	0fcH
	DB	0f8H
	DB	0ffH
	DB	0f8H
	DB	0fcH
	DB	0f8H
	DB	0ffH
	DB	0f8H
	DB	0fcH
	DB	0f8H
	DB	0ffH
	DB	0f8H
	DB	0fcH
	DB	0f8H
	DB	0ffH
	DB	0f8H
	DB	0fcH
	DB	0f8H
	DB	0ffH
	DB	0f8H
	DB	0fcH
	DB	0f8H
	DB	0ffH
	DB	0f8H
	DB	0fcH
	DB	0f8H
	DB	0ffH
	DB	0f8H
	DB	0fcH
	DB	0f8H
	DB	0ffH
	DB	0f8H
	DB	0fcH
	DB	0f8H
	DB	0ffH
	DB	0f8H
	DB	0fcH
	DB	0f8H
	DB	0ffH
	DB	0f8H
	DB	0fcH
	DB	0f8H
	DB	0ffH
	DB	0f8H
	DB	0fcH
	DB	0f8H
	DB	0ffH
	DB	0f8H
	DB	0fcH
	DB	0f8H
	DB	0ffH
	DB	0f8H
	DB	0fcH
	DB	0f8H
	DB	0ffH
	DB	0f8H
	DB	0fcH
	DB	0f8H
	DB	0ffH
	DB	0f8H
	DB	0fcH
	DB	0f8H
	DB	0ffH
	DB	0f8H
	DB	0fcH
	DB	0f8H
	DB	0ffH
	DB	0f8H
	DB	0fcH
	DB	0f8H
	DB	0ffH
	DB	0f8H
	DB	0fcH
	DB	0f8H
	DB	0ffH
	DB	0f8H
	DB	0fcH
	DB	0f8H
	DB	0ffH
	DB	0f8H
	DB	0fcH
	DB	0f8H
	DB	0ffH
	DB	0f8H
	DB	0fcH
	DB	0f8H
	DB	0ffH
	DB	0f8H
	DB	0fcH
	DB	0f8H
	DB	0ffH
	DB	0f8H
	DB	0fcH
	DB	0f8H
	DB	0ffH
	DB	0f8H
	DB	0fcH
	DB	0f8H
	DB	0ffH
	DB	0f8H
	DB	0fcH
	DB	0f8H
	DB	0ffH
	DB	0f8H
	DB	0fcH
	DB	0f8H
	DB	0ffH
	DB	0f8H
	DB	0fcH
	DB	0f8H
	DB	0ffH
	DB	0f8H
	DB	0fcH
	DB	0f8H
	DB	0ffH
	DB	0f8H
	DB	0fcH
	DB	0f8H
	DB	0ffH
	DB	0f8H
	DB	0fcH
	DB	0f8H
	DB	0ffH
	DB	0f8H
	DB	0fcH
	DB	0f8H
	DB	0ffH
	DB	0f8H
	DB	0fcH
	DB	0f8H
	DB	0ffH
	DB	0f8H
	DB	0fcH
	DB	0f8H
	DB	0ffH
	DB	0f8H
	DB	0fcH
	DB	0f8H
	DB	0ffH
	DB	0f8H
	DB	0fcH
	DB	0f8H
	DB	0ffH
	DB	0f8H
	DB	0fcH
	DB	0f8H
	DB	0ffH
	DB	0f8H
	DB	0fcH
	DB	0f8H
	DB	0ffH
	DB	0d8H
	DB	0bcH
	DB	098H
	DB	0ffH
	DB	0d0H
	DB	0b0H
	DB	088H
	DB	0ffH
	DB	0c8H
	DB	0b0H
	DB	088H
	DB	059H
	DB	0f8H
	DB	0fcH
	DB	0f8H
	DB	00H
	DB	0d0H
	DB	0b0H
	DB	088H
	DB	00H
	DB	0c8H
	DB	0b0H
	DB	090H
	DB	04H
	DB	0d0H
	DB	0b0H
	DB	088H
	DB	0d7H
	DB	0d0H
	DB	0b0H
	DB	088H
	DB	0ffH
	DB	0d0H
	DB	0b0H
	DB	090H
	DB	0ffH
	DB	0c8H
	DB	0b4H
	DB	088H
	DB	0ffH
	DB	0d0H
	DB	0b0H
	DB	090H
	DB	0ffH
	DB	0d0H
	DB	0b0H
	DB	090H
	DB	0ffH
	DB	0d0H
	DB	0b4H
	DB	088H
	DB	0ffH
	DB	0d0H
	DB	0b0H
	DB	088H
	DB	0ffH
	DB	0c8H
	DB	0acH
	DB	088H
	DB	0ffH
	DB	0c8H
	DB	0a8H
	DB	080H
	DB	0ffH
	DB	0d8H
	DB	0c4H
	DB	0a8H
	DB	0ffH
	DB	0f8H
	DB	0fcH
	DB	0f8H
	DB	0ffH
	DB	0f8H
	DB	0fcH
	DB	0f8H
	DB	0ffH
	DB	0f8H
	DB	0fcH
	DB	0f8H
	DB	0ffH
	DB	0f8H
	DB	0fcH
	DB	0f8H
	DB	0ffH
	DB	0f8H
	DB	0fcH
	DB	0f8H
	DB	0ffH
	DB	0f8H
	DB	0fcH
	DB	0f8H
	DB	0ffH
	DB	0f8H
	DB	0fcH
	DB	0f8H
	DB	0ffH
	DB	0f8H
	DB	0fcH
	DB	0f8H
	DB	0ffH
	DB	0f8H
	DB	0fcH
	DB	0f8H
	DB	0ffH
	DB	0f8H
	DB	0fcH
	DB	0f8H
	DB	0ffH
	DB	0d8H
	DB	0c4H
	DB	0a8H
	DB	0ffH
	DB	0c8H
	DB	0a8H
	DB	080H
	DB	0ffH
	DB	0c8H
	DB	0acH
	DB	088H
	DB	0ffH
	DB	0d0H
	DB	0b0H
	DB	088H
	DB	0ffH
	DB	0d0H
	DB	0b0H
	DB	090H
	DB	0ffH
	DB	0d0H
	DB	0b0H
	DB	088H
	DB	0ffH
	DB	0d0H
	DB	0b4H
	DB	088H
	DB	0ffH
	DB	0d0H
	DB	0b0H
	DB	090H
	DB	0ffH
	DB	0c8H
	DB	0b0H
	DB	088H
	DB	0ffH
	DB	0d0H
	DB	0b0H
	DB	088H
	DB	0ffH
	DB	0d8H
	DB	0c0H
	DB	0a0H
	DB	0ffH
	DB	0f8H
	DB	0fcH
	DB	0f8H
	DB	0ffH
	DB	0f8H
	DB	0fcH
	DB	0f8H
	DB	0ffH
	DB	0f8H
	DB	0fcH
	DB	0f8H
	DB	0ffH
	DB	0f8H
	DB	0fcH
	DB	0f8H
	DB	0ffH
	DB	0f8H
	DB	0fcH
	DB	0f8H
	DB	0ffH
	DB	0f8H
	DB	0fcH
	DB	0f8H
	DB	0ffH
	DB	0f8H
	DB	0fcH
	DB	0f8H
	DB	0ffH
	DB	0f8H
	DB	0fcH
	DB	0f8H
	DB	0ffH
	DB	0f8H
	DB	0fcH
	DB	0f8H
	DB	0ffH
	DB	0f8H
	DB	0fcH
	DB	0f8H
	DB	0ffH
	DB	0f8H
	DB	0fcH
	DB	0f8H
	DB	0ffH
	DB	0f8H
	DB	0fcH
	DB	0f8H
	DB	0ffH
	DB	0f8H
	DB	0fcH
	DB	0f8H
	DB	0ffH
	DB	0f8H
	DB	0fcH
	DB	0f8H
	DB	0ffH
	DB	0f8H
	DB	0fcH
	DB	0f8H
	DB	0ffH
	DB	0f8H
	DB	0fcH
	DB	0f8H
	DB	0ffH
	DB	0f8H
	DB	0fcH
	DB	0f8H
	DB	0ffH
	DB	0f8H
	DB	0fcH
	DB	0f8H
	DB	0ffH
	DB	0f8H
	DB	0fcH
	DB	0f8H
	DB	0ffH
	DB	0f8H
	DB	0fcH
	DB	0f8H
	DB	0ffH
	DB	0f8H
	DB	0fcH
	DB	0f8H
	DB	0ffH
	DB	0f8H
	DB	0fcH
	DB	0f8H
	DB	0ffH
	DB	0f8H
	DB	0fcH
	DB	0f8H
	DB	0ffH
	DB	0f8H
	DB	0fcH
	DB	0f8H
	DB	0ffH
	DB	0f8H
	DB	0fcH
	DB	0f8H
	DB	0ffH
	DB	0f8H
	DB	0fcH
	DB	0f8H
	DB	0ffH
	DB	0f8H
	DB	0fcH
	DB	0f8H
	DB	0ffH
	DB	0f8H
	DB	0fcH
	DB	0f8H
	DB	0ffH
	DB	0f8H
	DB	0fcH
	DB	0f8H
	DB	0ffH
	DB	0f8H
	DB	0fcH
	DB	0f8H
	DB	0ffH
	DB	0f8H
	DB	0fcH
	DB	0f8H
	DB	0ffH
	DB	0f8H
	DB	0fcH
	DB	0f8H
	DB	0ffH
	DB	0f8H
	DB	0fcH
	DB	0f8H
	DB	0ffH
	DB	0f8H
	DB	0fcH
	DB	0f8H
	DB	0ffH
	DB	0f8H
	DB	0fcH
	DB	0f8H
	DB	0ffH
	DB	0f8H
	DB	0fcH
	DB	0f8H
	DB	0ffH
	DB	0f8H
	DB	0fcH
	DB	0f8H
	DB	0ffH
	DB	0f8H
	DB	0fcH
	DB	0f8H
	DB	0ffH
	DB	0f8H
	DB	0fcH
	DB	0f8H
	DB	0ffH
	DB	0f8H
	DB	0fcH
	DB	0f8H
	DB	0ffH
	DB	0f8H
	DB	0fcH
	DB	0f8H
	DB	0ffH
	DB	0f8H
	DB	0fcH
	DB	0f8H
	DB	0ffH
	DB	0f8H
	DB	0fcH
	DB	0f8H
	DB	0ffH
	DB	0f8H
	DB	0fcH
	DB	0f8H
	DB	0ffH
	DB	0f8H
	DB	0fcH
	DB	0f8H
	DB	0ffH
	DB	0f8H
	DB	0fcH
	DB	0f8H
	DB	0ffH
	DB	0f8H
	DB	0fcH
	DB	0f8H
	DB	0ffH
	DB	0f8H
	DB	0fcH
	DB	0f8H
	DB	0ffH
	DB	0f8H
	DB	0fcH
	DB	0f8H
	DB	0ffH
	DB	0f8H
	DB	0fcH
	DB	0f8H
	DB	0ffH
	DB	0f8H
	DB	0fcH
	DB	0f8H
	DB	0ffH
	DB	0f8H
	DB	0fcH
	DB	0f8H
	DB	0ffH
	DB	0f8H
	DB	0fcH
	DB	0f8H
	DB	0ffH
	DB	0f8H
	DB	0fcH
	DB	0f8H
	DB	0ffH
	DB	0f8H
	DB	0fcH
	DB	0f8H
	DB	0ffH
	DB	0f8H
	DB	0fcH
	DB	0f8H
	DB	0ffH
	DB	0f8H
	DB	0fcH
	DB	0f8H
	DB	0ffH
	DB	0f8H
	DB	0fcH
	DB	0f8H
	DB	0ffH
	DB	0f8H
	DB	0fcH
	DB	0f8H
	DB	0ffH
	DB	0f8H
	DB	0fcH
	DB	0f8H
	DB	0ffH
	DB	0f8H
	DB	0fcH
	DB	0f8H
	DB	0ffH
	DB	0e8H
	DB	0dcH
	DB	0c8H
	DB	0ffH
	DB	0d0H
	DB	0b0H
	DB	090H
	DB	0ffH
	DB	0d0H
	DB	0b0H
	DB	088H
	DB	0d7H
	DB	0d0H
	DB	0b4H
	DB	088H
	DB	04H
	DB	0f8H
	DB	0fcH
	DB	0f8H
	DB	00H
	DB	0d0H
	DB	0b0H
	DB	088H
	DB	00H
	DB	0d0H
	DB	0b4H
	DB	090H
	DB	00H
	DB	0c8H
	DB	0b0H
	DB	088H
	DB	045H
	DB	0d0H
	DB	0b0H
	DB	088H
	DB	0ffH
	DB	0d0H
	DB	0b0H
	DB	090H
	DB	0ffH
	DB	0c8H
	DB	0b4H
	DB	088H
	DB	0ffH
	DB	0d0H
	DB	0b0H
	DB	088H
	DB	0ffH
	DB	0c8H
	DB	0b0H
	DB	088H
	DB	0ffH
	DB	0d0H
	DB	0b0H
	DB	088H
	DB	0ffH
	DB	0d0H
	DB	0b0H
	DB	090H
	DB	0ffH
	DB	0c8H
	DB	0b0H
	DB	088H
	DB	0ffH
	DB	0c8H
	DB	0acH
	DB	088H
	DB	0ffH
	DB	0c8H
	DB	0a8H
	DB	080H
	DB	0ffH
	DB	0d8H
	DB	0c4H
	DB	0a8H
	DB	0ffH
	DB	0f8H
	DB	0f8H
	DB	0f8H
	DB	0ffH
	DB	0f8H
	DB	0fcH
	DB	0f8H
	DB	0ffH
	DB	0f8H
	DB	0fcH
	DB	0f8H
	DB	0ffH
	DB	0f8H
	DB	0fcH
	DB	0f8H
	DB	0ffH
	DB	0f8H
	DB	0fcH
	DB	0f8H
	DB	0ffH
	DB	0f8H
	DB	0fcH
	DB	0f8H
	DB	0ffH
	DB	0f8H
	DB	0fcH
	DB	0f8H
	DB	0ffH
	DB	0f8H
	DB	0fcH
	DB	0f8H
	DB	0ffH
	DB	0d8H
	DB	0c4H
	DB	0a8H
	DB	0ffH
	DB	0c8H
	DB	0a8H
	DB	080H
	DB	0ffH
	DB	0c8H
	DB	0acH
	DB	088H
	DB	0ffH
	DB	0c8H
	DB	0b0H
	DB	088H
	DB	0ffH
	DB	0d0H
	DB	0b0H
	DB	090H
	DB	0ffH
	DB	0d0H
	DB	0b0H
	DB	088H
	DB	0ffH
	DB	0c8H
	DB	0b0H
	DB	090H
	DB	0ffH
	DB	0d0H
	DB	0b4H
	DB	088H
	DB	0ffH
	DB	0d0H
	DB	0b0H
	DB	090H
	DB	0ffH
	DB	0d0H
	DB	0b0H
	DB	088H
	DB	0ffH
	DB	0c8H
	DB	0b0H
	DB	088H
	DB	0ffH
	DB	0f0H
	DB	0ecH
	DB	0e0H
	DB	0ffH
	DB	0f8H
	DB	0fcH
	DB	0f8H
	DB	0ffH
	DB	0f8H
	DB	0fcH
	DB	0f8H
	DB	0ffH
	DB	0f8H
	DB	0fcH
	DB	0f8H
	DB	0ffH
	DB	0f8H
	DB	0fcH
	DB	0f8H
	DB	0ffH
	DB	0f8H
	DB	0fcH
	DB	0f8H
	DB	0ffH
	DB	0f8H
	DB	0fcH
	DB	0f8H
	DB	0ffH
	DB	0f8H
	DB	0fcH
	DB	0f8H
	DB	0ffH
	DB	0f8H
	DB	0fcH
	DB	0f8H
	DB	0ffH
	DB	0f8H
	DB	0fcH
	DB	0f8H
	DB	0ffH
	DB	0f8H
	DB	0fcH
	DB	0f8H
	DB	0ffH
	DB	0f8H
	DB	0fcH
	DB	0f8H
	DB	0ffH
	DB	0f8H
	DB	0fcH
	DB	0f8H
	DB	0ffH
	DB	0f8H
	DB	0fcH
	DB	0f8H
	DB	0ffH
	DB	0f8H
	DB	0fcH
	DB	0f8H
	DB	0ffH
	DB	0f8H
	DB	0fcH
	DB	0f8H
	DB	0ffH
	DB	0f8H
	DB	0fcH
	DB	0f8H
	DB	0ffH
	DB	0f8H
	DB	0fcH
	DB	0f8H
	DB	0ffH
	DB	0f8H
	DB	0fcH
	DB	0f8H
	DB	0ffH
	DB	0f8H
	DB	0fcH
	DB	0f8H
	DB	0ffH
	DB	0f8H
	DB	0fcH
	DB	0f8H
	DB	0ffH
	DB	0f8H
	DB	0fcH
	DB	0f8H
	DB	0ffH
	DB	0f8H
	DB	0fcH
	DB	0f8H
	DB	0ffH
	DB	0f8H
	DB	0fcH
	DB	0f8H
	DB	0ffH
	DB	0f8H
	DB	0fcH
	DB	0f8H
	DB	0ffH
	DB	0f8H
	DB	0fcH
	DB	0f8H
	DB	0ffH
	DB	0f8H
	DB	0fcH
	DB	0f8H
	DB	0ffH
	DB	0f8H
	DB	0fcH
	DB	0f8H
	DB	0ffH
	DB	0f8H
	DB	0fcH
	DB	0f8H
	DB	0ffH
	DB	0f8H
	DB	0fcH
	DB	0f8H
	DB	0ffH
	DB	0f8H
	DB	0fcH
	DB	0f8H
	DB	0ffH
	DB	0f8H
	DB	0fcH
	DB	0f8H
	DB	0ffH
	DB	0f8H
	DB	0fcH
	DB	0f8H
	DB	0ffH
	DB	0f8H
	DB	0fcH
	DB	0f8H
	DB	0ffH
	DB	0f8H
	DB	0fcH
	DB	0f8H
	DB	0ffH
	DB	0f8H
	DB	0fcH
	DB	0f8H
	DB	0ffH
	DB	0f8H
	DB	0fcH
	DB	0f8H
	DB	0ffH
	DB	0f8H
	DB	0fcH
	DB	0f8H
	DB	0ffH
	DB	0f8H
	DB	0fcH
	DB	0f8H
	DB	0ffH
	DB	0f8H
	DB	0fcH
	DB	0f8H
	DB	0ffH
	DB	0f8H
	DB	0fcH
	DB	0f8H
	DB	0ffH
	DB	0f8H
	DB	0fcH
	DB	0f8H
	DB	0ffH
	DB	0f8H
	DB	0fcH
	DB	0f8H
	DB	0ffH
	DB	0f8H
	DB	0fcH
	DB	0f8H
	DB	0ffH
	DB	0f8H
	DB	0fcH
	DB	0f8H
	DB	0ffH
	DB	0f8H
	DB	0fcH
	DB	0f8H
	DB	0ffH
	DB	0f8H
	DB	0fcH
	DB	0f8H
	DB	0ffH
	DB	0f8H
	DB	0fcH
	DB	0f8H
	DB	0ffH
	DB	0f8H
	DB	0fcH
	DB	0f8H
	DB	0ffH
	DB	0f8H
	DB	0fcH
	DB	0f8H
	DB	0ffH
	DB	0f8H
	DB	0fcH
	DB	0f8H
	DB	0ffH
	DB	0f8H
	DB	0fcH
	DB	0f8H
	DB	0ffH
	DB	0f8H
	DB	0fcH
	DB	0f8H
	DB	0ffH
	DB	0f8H
	DB	0fcH
	DB	0f8H
	DB	0ffH
	DB	0f8H
	DB	0fcH
	DB	0f8H
	DB	0ffH
	DB	0f8H
	DB	0fcH
	DB	0f8H
	DB	0ffH
	DB	0f8H
	DB	0fcH
	DB	0f8H
	DB	0ffH
	DB	0f8H
	DB	0fcH
	DB	0f8H
	DB	0ffH
	DB	0f8H
	DB	0fcH
	DB	0f8H
	DB	0ffH
	DB	0f8H
	DB	0fcH
	DB	0f8H
	DB	0ffH
	DB	0f8H
	DB	0fcH
	DB	0f8H
	DB	0ffH
	DB	0f8H
	DB	0f0H
	DB	0e8H
	DB	0ffH
	DB	0d0H
	DB	0b4H
	DB	090H
	DB	0ffH
	DB	0c8H
	DB	0b0H
	DB	090H
	DB	0ffH
	DB	0d0H
	DB	0b0H
	DB	090H
	DB	045H
	DB	0f8H
	DB	0fcH
	DB	0f8H
	DB	00H
	DB	0f8H
	DB	0fcH
	DB	0f8H
	DB	00H
	DB	0d0H
	DB	0b0H
	DB	088H
	DB	00H
	DB	0d0H
	DB	0b0H
	DB	088H
	DB	00H
	DB	0d0H
	DB	0b4H
	DB	090H
	DB	00H
	DB	0d0H
	DB	0b0H
	DB	088H
	DB	09eH
	DB	0d0H
	DB	0b0H
	DB	088H
	DB	0ffH
	DB	0d0H
	DB	0b0H
	DB	090H
	DB	0ffH
	DB	0d0H
	DB	0b4H
	DB	088H
	DB	0ffH
	DB	0d0H
	DB	0b0H
	DB	090H
	DB	0ffH
	DB	0c8H
	DB	0b0H
	DB	088H
	DB	0ffH
	DB	0d0H
	DB	0b0H
	DB	088H
	DB	0ffH
	DB	0d0H
	DB	0b0H
	DB	088H
	DB	0ffH
	DB	0c8H
	DB	0b0H
	DB	088H
	DB	0ffH
	DB	0c8H
	DB	0acH
	DB	088H
	DB	0ffH
	DB	0c8H
	DB	0a8H
	DB	080H
	DB	0ffH
	DB	0c8H
	DB	0acH
	DB	088H
	DB	0ffH
	DB	0e0H
	DB	0d4H
	DB	0c0H
	DB	0ffH
	DB	0f8H
	DB	0ecH
	DB	0e8H
	DB	0ffH
	DB	0f8H
	DB	0fcH
	DB	0f8H
	DB	0ffH
	DB	0f8H
	DB	0fcH
	DB	0f8H
	DB	0ffH
	DB	0f0H
	DB	0ecH
	DB	0e8H
	DB	0ffH
	DB	0e0H
	DB	0d4H
	DB	0c0H
	DB	0ffH
	DB	0c8H
	DB	0acH
	DB	088H
	DB	0ffH
	DB	0c8H
	DB	0a8H
	DB	080H
	DB	0ffH
	DB	0c8H
	DB	0acH
	DB	088H
	DB	0ffH
	DB	0d0H
	DB	0b0H
	DB	088H
	DB	0ffH
	DB	0d0H
	DB	0b0H
	DB	088H
	DB	0ffH
	DB	0d0H
	DB	0b0H
	DB	088H
	DB	0ffH
	DB	0c8H
	DB	0b4H
	DB	088H
	DB	0ffH
	DB	0d0H
	DB	0b0H
	DB	088H
	DB	0ffH
	DB	0d0H
	DB	0b0H
	DB	090H
	DB	0ffH
	DB	0c8H
	DB	0b4H
	DB	088H
	DB	0ffH
	DB	0d0H
	DB	0b0H
	DB	090H
	DB	0ffH
	DB	0e0H
	DB	0d0H
	DB	0b8H
	DB	0ffH
	DB	0f8H
	DB	0fcH
	DB	0f8H
	DB	0ffH
	DB	0f8H
	DB	0fcH
	DB	0f8H
	DB	0ffH
	DB	0f8H
	DB	0fcH
	DB	0f8H
	DB	0ffH
	DB	0f8H
	DB	0fcH
	DB	0f8H
	DB	0ffH
	DB	0f8H
	DB	0fcH
	DB	0f8H
	DB	0ffH
	DB	0f8H
	DB	0fcH
	DB	0f8H
	DB	0ffH
	DB	0f8H
	DB	0fcH
	DB	0f8H
	DB	0ffH
	DB	0f8H
	DB	0fcH
	DB	0f8H
	DB	0ffH
	DB	0f8H
	DB	0fcH
	DB	0f8H
	DB	0ffH
	DB	0f8H
	DB	0fcH
	DB	0f8H
	DB	0ffH
	DB	0f8H
	DB	0fcH
	DB	0f8H
	DB	0ffH
	DB	0f8H
	DB	0fcH
	DB	0f8H
	DB	0ffH
	DB	0f8H
	DB	0fcH
	DB	0f8H
	DB	0ffH
	DB	0f8H
	DB	0fcH
	DB	0f8H
	DB	0ffH
	DB	0f8H
	DB	0fcH
	DB	0f8H
	DB	0ffH
	DB	0f8H
	DB	0fcH
	DB	0f8H
	DB	0ffH
	DB	0f8H
	DB	0fcH
	DB	0f8H
	DB	0ffH
	DB	0f8H
	DB	0fcH
	DB	0f8H
	DB	0ffH
	DB	0f8H
	DB	0fcH
	DB	0f8H
	DB	0ffH
	DB	0f8H
	DB	0fcH
	DB	0f8H
	DB	0ffH
	DB	0f8H
	DB	0fcH
	DB	0f8H
	DB	0ffH
	DB	0f8H
	DB	0fcH
	DB	0f8H
	DB	0ffH
	DB	0f8H
	DB	0fcH
	DB	0f8H
	DB	0ffH
	DB	0f8H
	DB	0fcH
	DB	0f8H
	DB	0ffH
	DB	0f8H
	DB	0fcH
	DB	0f8H
	DB	0ffH
	DB	0f8H
	DB	0fcH
	DB	0f8H
	DB	0ffH
	DB	0f8H
	DB	0fcH
	DB	0f8H
	DB	0ffH
	DB	0f8H
	DB	0fcH
	DB	0f8H
	DB	0ffH
	DB	0f8H
	DB	0fcH
	DB	0f8H
	DB	0ffH
	DB	0f8H
	DB	0fcH
	DB	0f8H
	DB	0ffH
	DB	0f8H
	DB	0fcH
	DB	0f8H
	DB	0ffH
	DB	0f8H
	DB	0fcH
	DB	0f8H
	DB	0ffH
	DB	0f8H
	DB	0fcH
	DB	0f8H
	DB	0ffH
	DB	0f8H
	DB	0fcH
	DB	0f8H
	DB	0ffH
	DB	0f8H
	DB	0fcH
	DB	0f8H
	DB	0ffH
	DB	0f8H
	DB	0fcH
	DB	0f8H
	DB	0ffH
	DB	0f8H
	DB	0fcH
	DB	0f8H
	DB	0ffH
	DB	0f8H
	DB	0fcH
	DB	0f8H
	DB	0ffH
	DB	0f8H
	DB	0fcH
	DB	0f8H
	DB	0ffH
	DB	0f8H
	DB	0fcH
	DB	0f8H
	DB	0ffH
	DB	0f8H
	DB	0fcH
	DB	0f8H
	DB	0ffH
	DB	0f8H
	DB	0fcH
	DB	0f8H
	DB	0ffH
	DB	0f8H
	DB	0fcH
	DB	0f8H
	DB	0ffH
	DB	0f8H
	DB	0fcH
	DB	0f8H
	DB	0ffH
	DB	0f8H
	DB	0fcH
	DB	0f8H
	DB	0ffH
	DB	0f8H
	DB	0fcH
	DB	0f8H
	DB	0ffH
	DB	0f8H
	DB	0fcH
	DB	0f8H
	DB	0ffH
	DB	0f8H
	DB	0fcH
	DB	0f8H
	DB	0ffH
	DB	0f8H
	DB	0fcH
	DB	0f8H
	DB	0ffH
	DB	0f8H
	DB	0fcH
	DB	0f8H
	DB	0ffH
	DB	0f8H
	DB	0fcH
	DB	0f8H
	DB	0ffH
	DB	0f8H
	DB	0fcH
	DB	0f8H
	DB	0ffH
	DB	0f8H
	DB	0fcH
	DB	0f8H
	DB	0ffH
	DB	0f8H
	DB	0fcH
	DB	0f8H
	DB	0ffH
	DB	0f8H
	DB	0fcH
	DB	0f8H
	DB	0ffH
	DB	0f8H
	DB	0fcH
	DB	0f8H
	DB	0ffH
	DB	0f8H
	DB	0fcH
	DB	0f8H
	DB	0ffH
	DB	0f8H
	DB	0fcH
	DB	0f8H
	DB	0ffH
	DB	0f8H
	DB	0fcH
	DB	0f8H
	DB	0ffH
	DB	0f8H
	DB	0fcH
	DB	0f8H
	DB	0ffH
	DB	0f8H
	DB	0f8H
	DB	0f8H
	DB	0ffH
	DB	0d8H
	DB	0bcH
	DB	098H
	DB	0ffH
	DB	0d0H
	DB	0b4H
	DB	088H
	DB	0ffH
	DB	0d0H
	DB	0b0H
	DB	088H
	DB	09eH
	DB	0f8H
	DB	0fcH
	DB	0f8H
	DB	00H
	DB	0f8H
	DB	0fcH
	DB	0f8H
	DB	00H
	DB	0f8H
	DB	0fcH
	DB	0f8H
	DB	00H
	DB	0d0H
	DB	0b0H
	DB	088H
	DB	00H
	DB	0c8H
	DB	0b0H
	DB	090H
	DB	00H
	DB	0d0H
	DB	0b0H
	DB	090H
	DB	00H
	DB	0c8H
	DB	0b4H
	DB	088H
	DB	08H
	DB	0d0H
	DB	0b0H
	DB	088H
	DB	0c7H
	DB	0d0H
	DB	0b0H
	DB	090H
	DB	0ffH
	DB	0c8H
	DB	0b0H
	DB	088H
	DB	0ffH
	DB	0d0H
	DB	0b4H
	DB	090H
	DB	0ffH
	DB	0d0H
	DB	0b0H
	DB	090H
	DB	0ffH
	DB	0d0H
	DB	0b0H
	DB	088H
	DB	0ffH
	DB	0d0H
	DB	0b0H
	DB	088H
	DB	0ffH
	DB	0d0H
	DB	0b0H
	DB	088H
	DB	0ffH
	DB	0d0H
	DB	0b0H
	DB	088H
	DB	0ffH
	DB	0c8H
	DB	0acH
	DB	088H
	DB	0ffH
	DB	0c8H
	DB	0acH
	DB	080H
	DB	0ffH
	DB	0c8H
	DB	0a8H
	DB	080H
	DB	0ffH
	DB	0c8H
	DB	0a4H
	DB	080H
	DB	0ffH
	DB	0c8H
	DB	0a4H
	DB	080H
	DB	0ffH
	DB	0c8H
	DB	0a4H
	DB	078H
	DB	0ffH
	DB	0c8H
	DB	0a8H
	DB	080H
	DB	0ffH
	DB	0c8H
	DB	0a8H
	DB	080H
	DB	0ffH
	DB	0c8H
	DB	0a8H
	DB	080H
	DB	0ffH
	DB	0c8H
	DB	0acH
	DB	088H
	DB	0ffH
	DB	0d0H
	DB	0b0H
	DB	088H
	DB	0ffH
	DB	0d0H
	DB	0b0H
	DB	088H
	DB	0ffH
	DB	0d0H
	DB	0b0H
	DB	090H
	DB	0ffH
	DB	0d0H
	DB	0b0H
	DB	090H
	DB	0ffH
	DB	0d0H
	DB	0b0H
	DB	088H
	DB	0ffH
	DB	0d0H
	DB	0b0H
	DB	090H
	DB	0ffH
	DB	0c8H
	DB	0b0H
	DB	088H
	DB	0ffH
	DB	0d0H
	DB	0b0H
	DB	088H
	DB	0ffH
	DB	0d8H
	DB	0c4H
	DB	0a8H
	DB	0ffH
	DB	0f8H
	DB	0fcH
	DB	0f8H
	DB	0ffH
	DB	0f8H
	DB	0fcH
	DB	0f8H
	DB	0ffH
	DB	0f8H
	DB	0fcH
	DB	0f8H
	DB	0ffH
	DB	0f8H
	DB	0fcH
	DB	0f8H
	DB	0ffH
	DB	0f8H
	DB	0fcH
	DB	0f8H
	DB	0ffH
	DB	0f8H
	DB	0fcH
	DB	0f8H
	DB	0ffH
	DB	0f8H
	DB	0fcH
	DB	0f8H
	DB	0ffH
	DB	0f8H
	DB	0fcH
	DB	0f8H
	DB	0ffH
	DB	0f8H
	DB	0fcH
	DB	0f8H
	DB	0ffH
	DB	0f8H
	DB	0fcH
	DB	0f8H
	DB	0ffH
	DB	0f8H
	DB	0fcH
	DB	0f8H
	DB	0ffH
	DB	0f8H
	DB	0fcH
	DB	0f8H
	DB	0ffH
	DB	0f8H
	DB	0fcH
	DB	0f8H
	DB	0ffH
	DB	0f8H
	DB	0fcH
	DB	0f8H
	DB	0ffH
	DB	0f8H
	DB	0fcH
	DB	0f8H
	DB	0ffH
	DB	0f8H
	DB	0fcH
	DB	0f8H
	DB	0ffH
	DB	0f8H
	DB	0fcH
	DB	0f8H
	DB	0ffH
	DB	0f8H
	DB	0fcH
	DB	0f8H
	DB	0ffH
	DB	0f8H
	DB	0fcH
	DB	0f8H
	DB	0ffH
	DB	0f8H
	DB	0fcH
	DB	0f8H
	DB	0ffH
	DB	0f8H
	DB	0fcH
	DB	0f8H
	DB	0ffH
	DB	0f8H
	DB	0fcH
	DB	0f8H
	DB	0ffH
	DB	0f8H
	DB	0fcH
	DB	0f8H
	DB	0ffH
	DB	0f8H
	DB	0fcH
	DB	0f8H
	DB	0ffH
	DB	0f8H
	DB	0fcH
	DB	0f8H
	DB	0ffH
	DB	0f8H
	DB	0fcH
	DB	0f8H
	DB	0ffH
	DB	0f8H
	DB	0fcH
	DB	0f8H
	DB	0ffH
	DB	0f8H
	DB	0fcH
	DB	0f8H
	DB	0ffH
	DB	0f8H
	DB	0fcH
	DB	0f8H
	DB	0ffH
	DB	0f8H
	DB	0fcH
	DB	0f8H
	DB	0ffH
	DB	0f8H
	DB	0fcH
	DB	0f8H
	DB	0ffH
	DB	0f8H
	DB	0fcH
	DB	0f8H
	DB	0ffH
	DB	0f8H
	DB	0fcH
	DB	0f8H
	DB	0ffH
	DB	0f8H
	DB	0fcH
	DB	0f8H
	DB	0ffH
	DB	0f8H
	DB	0fcH
	DB	0f8H
	DB	0ffH
	DB	0f8H
	DB	0fcH
	DB	0f8H
	DB	0ffH
	DB	0f8H
	DB	0fcH
	DB	0f8H
	DB	0ffH
	DB	0f8H
	DB	0fcH
	DB	0f8H
	DB	0ffH
	DB	0f8H
	DB	0fcH
	DB	0f8H
	DB	0ffH
	DB	0f8H
	DB	0fcH
	DB	0f8H
	DB	0ffH
	DB	0f8H
	DB	0fcH
	DB	0f8H
	DB	0ffH
	DB	0f8H
	DB	0fcH
	DB	0f8H
	DB	0ffH
	DB	0f8H
	DB	0fcH
	DB	0f8H
	DB	0ffH
	DB	0f8H
	DB	0fcH
	DB	0f8H
	DB	0ffH
	DB	0f8H
	DB	0fcH
	DB	0f8H
	DB	0ffH
	DB	0f8H
	DB	0fcH
	DB	0f8H
	DB	0ffH
	DB	0f8H
	DB	0fcH
	DB	0f8H
	DB	0ffH
	DB	0f8H
	DB	0fcH
	DB	0f8H
	DB	0ffH
	DB	0f8H
	DB	0fcH
	DB	0f8H
	DB	0ffH
	DB	0f8H
	DB	0fcH
	DB	0f8H
	DB	0ffH
	DB	0f8H
	DB	0fcH
	DB	0f8H
	DB	0ffH
	DB	0f8H
	DB	0fcH
	DB	0f8H
	DB	0ffH
	DB	0f8H
	DB	0fcH
	DB	0f8H
	DB	0ffH
	DB	0f8H
	DB	0fcH
	DB	0f8H
	DB	0ffH
	DB	0f8H
	DB	0fcH
	DB	0f8H
	DB	0ffH
	DB	0f8H
	DB	0fcH
	DB	0f8H
	DB	0ffH
	DB	0f8H
	DB	0fcH
	DB	0f8H
	DB	0ffH
	DB	0f8H
	DB	0fcH
	DB	0f8H
	DB	0ffH
	DB	0f8H
	DB	0fcH
	DB	0f8H
	DB	0ffH
	DB	0f8H
	DB	0fcH
	DB	0f8H
	DB	0ffH
	DB	0f8H
	DB	0f8H
	DB	0f0H
	DB	0ffH
	DB	0d8H
	DB	0c0H
	DB	0a0H
	DB	0ffH
	DB	0d0H
	DB	0b0H
	DB	090H
	DB	0ffH
	DB	0c8H
	DB	0b0H
	DB	088H
	DB	0c7H
	DB	0d0H
	DB	0b4H
	DB	088H
	DB	08H
	DB	0f8H
	DB	0fcH
	DB	0f8H
	DB	00H
	DB	0f8H
	DB	0fcH
	DB	0f8H
	DB	00H
	DB	0f8H
	DB	0fcH
	DB	0f8H
	DB	00H
	DB	0d0H
	DB	0b0H
	DB	088H
	DB	00H
	DB	0d0H
	DB	0b0H
	DB	088H
	DB	00H
	DB	0c8H
	DB	0b0H
	DB	088H
	DB	00H
	DB	0d0H
	DB	0b4H
	DB	090H
	DB	00H
	DB	0d0H
	DB	0b0H
	DB	088H
	DB	014H
	DB	0c8H
	DB	0b0H
	DB	088H
	DB	0d7H
	DB	0d0H
	DB	0b0H
	DB	088H
	DB	0ffH
	DB	0d0H
	DB	0b4H
	DB	088H
	DB	0ffH
	DB	0c8H
	DB	0b0H
	DB	090H
	DB	0ffH
	DB	0d0H
	DB	0b0H
	DB	088H
	DB	0ffH
	DB	0d0H
	DB	0b4H
	DB	090H
	DB	0ffH
	DB	0d0H
	DB	0b0H
	DB	090H
	DB	0ffH
	DB	0c8H
	DB	0b0H
	DB	088H
	DB	0ffH
	DB	0d0H
	DB	0b0H
	DB	088H
	DB	0ffH
	DB	0d0H
	DB	0b0H
	DB	088H
	DB	0ffH
	DB	0c8H
	DB	0acH
	DB	088H
	DB	0ffH
	DB	0c8H
	DB	0acH
	DB	088H
	DB	0ffH
	DB	0c8H
	DB	0acH
	DB	080H
	DB	0ffH
	DB	0c8H
	DB	0acH
	DB	088H
	DB	0ffH
	DB	0c8H
	DB	0acH
	DB	088H
	DB	0ffH
	DB	0d0H
	DB	0acH
	DB	088H
	DB	0ffH
	DB	0d0H
	DB	0b0H
	DB	088H
	DB	0ffH
	DB	0d0H
	DB	0b0H
	DB	088H
	DB	0ffH
	DB	0c8H
	DB	0b0H
	DB	088H
	DB	0ffH
	DB	0d0H
	DB	0b0H
	DB	088H
	DB	0ffH
	DB	0c8H
	DB	0b0H
	DB	090H
	DB	0ffH
	DB	0d0H
	DB	0b4H
	DB	088H
	DB	0ffH
	DB	0d0H
	DB	0b0H
	DB	088H
	DB	0ffH
	DB	0c8H
	DB	0b4H
	DB	090H
	DB	0ffH
	DB	0d0H
	DB	0b0H
	DB	088H
	DB	0ffH
	DB	0d8H
	DB	0bcH
	DB	0a0H
	DB	0ffH
	DB	0f8H
	DB	0f8H
	DB	0f8H
	DB	0ffH
	DB	0f8H
	DB	0fcH
	DB	0f8H
	DB	0ffH
	DB	0f8H
	DB	0fcH
	DB	0f8H
	DB	0ffH
	DB	0f8H
	DB	0fcH
	DB	0f8H
	DB	0ffH
	DB	0f8H
	DB	0fcH
	DB	0f8H
	DB	0ffH
	DB	0f8H
	DB	0fcH
	DB	0f8H
	DB	0ffH
	DB	0f8H
	DB	0fcH
	DB	0f8H
	DB	0ffH
	DB	0f8H
	DB	0fcH
	DB	0f8H
	DB	0ffH
	DB	0f8H
	DB	0fcH
	DB	0f8H
	DB	0ffH
	DB	0f8H
	DB	0fcH
	DB	0f8H
	DB	0ffH
	DB	0f8H
	DB	0fcH
	DB	0f8H
	DB	0ffH
	DB	0f8H
	DB	0fcH
	DB	0f8H
	DB	0ffH
	DB	0f8H
	DB	0fcH
	DB	0f8H
	DB	0ffH
	DB	0f8H
	DB	0fcH
	DB	0f8H
	DB	0ffH
	DB	0f8H
	DB	0fcH
	DB	0f8H
	DB	0ffH
	DB	0f8H
	DB	0fcH
	DB	0f8H
	DB	0ffH
	DB	0f8H
	DB	0fcH
	DB	0f8H
	DB	0ffH
	DB	0f8H
	DB	0fcH
	DB	0f8H
	DB	0ffH
	DB	0f8H
	DB	0fcH
	DB	0f8H
	DB	0ffH
	DB	0f8H
	DB	0fcH
	DB	0f8H
	DB	0ffH
	DB	0f8H
	DB	0fcH
	DB	0f8H
	DB	0ffH
	DB	0f8H
	DB	0fcH
	DB	0f8H
	DB	0ffH
	DB	0f8H
	DB	0fcH
	DB	0f8H
	DB	0ffH
	DB	0f8H
	DB	0fcH
	DB	0f8H
	DB	0ffH
	DB	0f8H
	DB	0fcH
	DB	0f8H
	DB	0ffH
	DB	0f8H
	DB	0fcH
	DB	0f8H
	DB	0ffH
	DB	0f8H
	DB	0fcH
	DB	0f8H
	DB	0ffH
	DB	0f8H
	DB	0fcH
	DB	0f8H
	DB	0ffH
	DB	0f8H
	DB	0fcH
	DB	0f8H
	DB	0ffH
	DB	0f8H
	DB	0fcH
	DB	0f8H
	DB	0ffH
	DB	0f8H
	DB	0fcH
	DB	0f8H
	DB	0ffH
	DB	0f8H
	DB	0fcH
	DB	0f8H
	DB	0ffH
	DB	0f8H
	DB	0fcH
	DB	0f8H
	DB	0ffH
	DB	0f8H
	DB	0fcH
	DB	0f8H
	DB	0ffH
	DB	0f8H
	DB	0fcH
	DB	0f8H
	DB	0ffH
	DB	0f8H
	DB	0fcH
	DB	0f8H
	DB	0ffH
	DB	0f8H
	DB	0fcH
	DB	0f8H
	DB	0ffH
	DB	0f8H
	DB	0fcH
	DB	0f8H
	DB	0ffH
	DB	0f8H
	DB	0fcH
	DB	0f8H
	DB	0ffH
	DB	0f8H
	DB	0fcH
	DB	0f8H
	DB	0ffH
	DB	0f8H
	DB	0fcH
	DB	0f8H
	DB	0ffH
	DB	0f8H
	DB	0fcH
	DB	0f8H
	DB	0ffH
	DB	0f8H
	DB	0fcH
	DB	0f8H
	DB	0ffH
	DB	0f8H
	DB	0fcH
	DB	0f8H
	DB	0ffH
	DB	0f8H
	DB	0fcH
	DB	0f8H
	DB	0ffH
	DB	0f8H
	DB	0fcH
	DB	0f8H
	DB	0ffH
	DB	0f8H
	DB	0fcH
	DB	0f8H
	DB	0ffH
	DB	0f8H
	DB	0fcH
	DB	0f8H
	DB	0ffH
	DB	0f8H
	DB	0fcH
	DB	0f8H
	DB	0ffH
	DB	0f8H
	DB	0fcH
	DB	0f8H
	DB	0ffH
	DB	0f8H
	DB	0fcH
	DB	0f8H
	DB	0ffH
	DB	0f8H
	DB	0fcH
	DB	0f8H
	DB	0ffH
	DB	0f8H
	DB	0fcH
	DB	0f8H
	DB	0ffH
	DB	0f8H
	DB	0fcH
	DB	0f8H
	DB	0ffH
	DB	0f8H
	DB	0fcH
	DB	0f8H
	DB	0ffH
	DB	0f8H
	DB	0fcH
	DB	0f8H
	DB	0ffH
	DB	0f8H
	DB	0fcH
	DB	0f8H
	DB	0ffH
	DB	0f8H
	DB	0fcH
	DB	0f8H
	DB	0ffH
	DB	0f8H
	DB	0fcH
	DB	0f8H
	DB	0ffH
	DB	0f8H
	DB	0fcH
	DB	0f8H
	DB	0ffH
	DB	0f8H
	DB	0f0H
	DB	0e8H
	DB	0ffH
	DB	0d0H
	DB	0bcH
	DB	098H
	DB	0ffH
	DB	0d0H
	DB	0b0H
	DB	088H
	DB	0ffH
	DB	0d0H
	DB	0b0H
	DB	090H
	DB	0d7H
	DB	0c8H
	DB	0b0H
	DB	090H
	DB	014H
	DB	0f8H
	DB	0fcH
	DB	0f8H
	DB	00H
	DB	0f8H
	DB	0fcH
	DB	0f8H
	DB	00H
	DB	0f8H
	DB	0fcH
	DB	0f8H
	DB	00H
	DB	0f8H
	DB	0fcH
	DB	0f8H
	DB	00H
	DB	0d0H
	DB	0b0H
	DB	088H
	DB	00H
	DB	0d0H
	DB	0b0H
	DB	090H
	DB	00H
	DB	0d0H
	DB	0b4H
	DB	088H
	DB	00H
	DB	0d0H
	DB	0b0H
	DB	090H
	DB	00H
	DB	0d0H
	DB	0b0H
	DB	090H
	DB	00H
	DB	0d0H
	DB	0b4H
	DB	088H
	DB	018H
	DB	0d0H
	DB	0b0H
	DB	090H
	DB	0cbH
	DB	0d0H
	DB	0b0H
	DB	088H
	DB	0ffH
	DB	0c8H
	DB	0b0H
	DB	088H
	DB	0ffH
	DB	0d0H
	DB	0b4H
	DB	088H
	DB	0ffH
	DB	0d0H
	DB	0b0H
	DB	090H
	DB	0ffH
	DB	0c8H
	DB	0b0H
	DB	088H
	DB	0ffH
	DB	0d0H
	DB	0b0H
	DB	088H
	DB	0ffH
	DB	0d0H
	DB	0b0H
	DB	090H
	DB	0ffH
	DB	0d0H
	DB	0b0H
	DB	088H
	DB	0ffH
	DB	0d0H
	DB	0b0H
	DB	088H
	DB	0ffH
	DB	0d0H
	DB	0b0H
	DB	088H
	DB	0ffH
	DB	0d0H
	DB	0b0H
	DB	088H
	DB	0ffH
	DB	0d0H
	DB	0b0H
	DB	088H
	DB	0ffH
	DB	0c8H
	DB	0b0H
	DB	088H
	DB	0ffH
	DB	0d0H
	DB	0b0H
	DB	088H
	DB	0ffH
	DB	0d0H
	DB	0b0H
	DB	088H
	DB	0ffH
	DB	0d0H
	DB	0b0H
	DB	090H
	DB	0ffH
	DB	0d0H
	DB	0b0H
	DB	090H
	DB	0ffH
	DB	0d0H
	DB	0b0H
	DB	088H
	DB	0ffH
	DB	0d0H
	DB	0b4H
	DB	088H
	DB	0ffH
	DB	0c8H
	DB	0b0H
	DB	088H
	DB	0ffH
	DB	0d0H
	DB	0b0H
	DB	090H
	DB	0ffH
	DB	0d0H
	DB	0b0H
	DB	088H
	DB	0ffH
	DB	0d8H
	DB	0c4H
	DB	0a0H
	DB	0ffH
	DB	0f8H
	DB	0f8H
	DB	0f8H
	DB	0ffH
	DB	0f8H
	DB	0fcH
	DB	0f8H
	DB	0ffH
	DB	0f8H
	DB	0fcH
	DB	0f8H
	DB	0ffH
	DB	0f8H
	DB	0fcH
	DB	0f8H
	DB	0ffH
	DB	0f8H
	DB	0fcH
	DB	0f8H
	DB	0ffH
	DB	0f8H
	DB	0fcH
	DB	0f8H
	DB	0ffH
	DB	0f8H
	DB	0fcH
	DB	0f8H
	DB	0ffH
	DB	0f8H
	DB	0fcH
	DB	0f8H
	DB	0ffH
	DB	0f8H
	DB	0fcH
	DB	0f8H
	DB	0ffH
	DB	0f8H
	DB	0fcH
	DB	0f8H
	DB	0ffH
	DB	0f8H
	DB	0fcH
	DB	0f8H
	DB	0ffH
	DB	0f8H
	DB	0fcH
	DB	0f8H
	DB	0ffH
	DB	0f8H
	DB	0fcH
	DB	0f8H
	DB	0ffH
	DB	0f8H
	DB	0fcH
	DB	0f8H
	DB	0ffH
	DB	0f8H
	DB	0fcH
	DB	0f8H
	DB	0ffH
	DB	0f8H
	DB	0fcH
	DB	0f8H
	DB	0ffH
	DB	0f8H
	DB	0fcH
	DB	0f8H
	DB	0ffH
	DB	0f8H
	DB	0fcH
	DB	0f8H
	DB	0ffH
	DB	0f8H
	DB	0fcH
	DB	0f8H
	DB	0ffH
	DB	0f8H
	DB	0fcH
	DB	0f8H
	DB	0ffH
	DB	0f8H
	DB	0fcH
	DB	0f8H
	DB	0ffH
	DB	0f8H
	DB	0fcH
	DB	0f8H
	DB	0ffH
	DB	0f8H
	DB	0fcH
	DB	0f8H
	DB	0ffH
	DB	0f8H
	DB	0fcH
	DB	0f8H
	DB	0ffH
	DB	0f8H
	DB	0fcH
	DB	0f8H
	DB	0ffH
	DB	0f8H
	DB	0fcH
	DB	0f8H
	DB	0ffH
	DB	0f8H
	DB	0fcH
	DB	0f8H
	DB	0ffH
	DB	0f8H
	DB	0fcH
	DB	0f8H
	DB	0ffH
	DB	0f8H
	DB	0fcH
	DB	0f8H
	DB	0ffH
	DB	0f8H
	DB	0fcH
	DB	0f8H
	DB	0ffH
	DB	0f8H
	DB	0fcH
	DB	0f8H
	DB	0ffH
	DB	0f8H
	DB	0fcH
	DB	0f8H
	DB	0ffH
	DB	0f8H
	DB	0fcH
	DB	0f8H
	DB	0ffH
	DB	0f8H
	DB	0fcH
	DB	0f8H
	DB	0ffH
	DB	0f8H
	DB	0fcH
	DB	0f8H
	DB	0ffH
	DB	0f8H
	DB	0fcH
	DB	0f8H
	DB	0ffH
	DB	0f8H
	DB	0fcH
	DB	0f8H
	DB	0ffH
	DB	0f8H
	DB	0fcH
	DB	0f8H
	DB	0ffH
	DB	0f8H
	DB	0fcH
	DB	0f8H
	DB	0ffH
	DB	0f8H
	DB	0fcH
	DB	0f8H
	DB	0ffH
	DB	0f8H
	DB	0fcH
	DB	0f8H
	DB	0ffH
	DB	0f8H
	DB	0fcH
	DB	0f8H
	DB	0ffH
	DB	0f8H
	DB	0fcH
	DB	0f8H
	DB	0ffH
	DB	0f8H
	DB	0fcH
	DB	0f8H
	DB	0ffH
	DB	0f8H
	DB	0fcH
	DB	0f8H
	DB	0ffH
	DB	0f8H
	DB	0fcH
	DB	0f8H
	DB	0ffH
	DB	0f8H
	DB	0fcH
	DB	0f8H
	DB	0ffH
	DB	0f8H
	DB	0fcH
	DB	0f8H
	DB	0ffH
	DB	0f8H
	DB	0fcH
	DB	0f8H
	DB	0ffH
	DB	0f8H
	DB	0fcH
	DB	0f8H
	DB	0ffH
	DB	0f8H
	DB	0fcH
	DB	0f8H
	DB	0ffH
	DB	0f8H
	DB	0fcH
	DB	0f8H
	DB	0ffH
	DB	0f8H
	DB	0fcH
	DB	0f8H
	DB	0ffH
	DB	0f8H
	DB	0fcH
	DB	0f8H
	DB	0ffH
	DB	0f8H
	DB	0fcH
	DB	0f8H
	DB	0ffH
	DB	0f8H
	DB	0fcH
	DB	0f8H
	DB	0ffH
	DB	0f8H
	DB	0fcH
	DB	0f8H
	DB	0ffH
	DB	0f8H
	DB	0fcH
	DB	0f8H
	DB	0ffH
	DB	0f8H
	DB	0fcH
	DB	0f8H
	DB	0ffH
	DB	0f8H
	DB	0fcH
	DB	0f8H
	DB	0ffH
	DB	0e8H
	DB	0dcH
	DB	0c8H
	DB	0ffH
	DB	0d0H
	DB	0b4H
	DB	090H
	DB	0ffH
	DB	0d0H
	DB	0b0H
	DB	090H
	DB	0ffH
	DB	0d0H
	DB	0b4H
	DB	088H
	DB	0cbH
	DB	0d0H
	DB	0b0H
	DB	088H
	DB	018H
	DB	0f8H
	DB	0fcH
	DB	0f8H
	DB	00H
	DB	0f8H
	DB	0fcH
	DB	0f8H
	DB	00H
	DB	0f8H
	DB	0fcH
	DB	0f8H
	DB	00H
	DB	0f8H
	DB	0fcH
	DB	0f8H
	DB	00H
	DB	0f8H
	DB	0fcH
	DB	0f8H
	DB	00H
	DB	0d0H
	DB	0b0H
	DB	088H
	DB	00H
	DB	0c8H
	DB	0b0H
	DB	090H
	DB	00H
	DB	0d0H
	DB	0b0H
	DB	088H
	DB	00H
	DB	0c8H
	DB	0b0H
	DB	088H
	DB	00H
	DB	0d0H
	DB	0b0H
	DB	088H
	DB	00H
	DB	0c8H
	DB	0b4H
	DB	090H
	DB	00H
	DB	0d0H
	DB	0b0H
	DB	088H
	DB	08H
	DB	0d0H
	DB	0b0H
	DB	090H
	DB	09aH
	DB	0d0H
	DB	0b0H
	DB	088H
	DB	0ffH
	DB	0d0H
	DB	0b0H
	DB	090H
	DB	0ffH
	DB	0c8H
	DB	0b0H
	DB	088H
	DB	0ffH
	DB	0d0H
	DB	0b0H
	DB	088H
	DB	0ffH
	DB	0d0H
	DB	0b4H
	DB	090H
	DB	0ffH
	DB	0d0H
	DB	0b0H
	DB	088H
	DB	0ffH
	DB	0c8H
	DB	0b0H
	DB	090H
	DB	0ffH
	DB	0d0H
	DB	0b0H
	DB	088H
	DB	0ffH
	DB	0d0H
	DB	0b0H
	DB	088H
	DB	0ffH
	DB	0d0H
	DB	0b0H
	DB	090H
	DB	0ffH
	DB	0d0H
	DB	0b0H
	DB	088H
	DB	0ffH
	DB	0d0H
	DB	0b0H
	DB	088H
	DB	0ffH
	DB	0d0H
	DB	0b0H
	DB	088H
	DB	0ffH
	DB	0c8H
	DB	0b0H
	DB	088H
	DB	0ffH
	DB	0d0H
	DB	0b4H
	DB	090H
	DB	0ffH
	DB	0d0H
	DB	0b0H
	DB	088H
	DB	0ffH
	DB	0c8H
	DB	0b0H
	DB	090H
	DB	0ffH
	DB	0d0H
	DB	0b0H
	DB	088H
	DB	0ffH
	DB	0d0H
	DB	0b0H
	DB	090H
	DB	0ffH
	DB	0d0H
	DB	0b0H
	DB	088H
	DB	0ffH
	DB	0e0H
	DB	0d0H
	DB	0b8H
	DB	0ffH
	DB	0f8H
	DB	0fcH
	DB	0f8H
	DB	0ffH
	DB	0f8H
	DB	0fcH
	DB	0f8H
	DB	0ffH
	DB	0f8H
	DB	0fcH
	DB	0f8H
	DB	0ffH
	DB	0f8H
	DB	0fcH
	DB	0f8H
	DB	0ffH
	DB	0f8H
	DB	0fcH
	DB	0f8H
	DB	0ffH
	DB	0f8H
	DB	0fcH
	DB	0f8H
	DB	0ffH
	DB	0f8H
	DB	0fcH
	DB	0f8H
	DB	0ffH
	DB	0f8H
	DB	0fcH
	DB	0f8H
	DB	0ffH
	DB	0f8H
	DB	0fcH
	DB	0f8H
	DB	0ffH
	DB	0f8H
	DB	0fcH
	DB	0f8H
	DB	0ffH
	DB	0f8H
	DB	0fcH
	DB	0f8H
	DB	0ffH
	DB	0f8H
	DB	0fcH
	DB	0f8H
	DB	0ffH
	DB	0f8H
	DB	0fcH
	DB	0f8H
	DB	0ffH
	DB	0f8H
	DB	0fcH
	DB	0f8H
	DB	0ffH
	DB	0f8H
	DB	0fcH
	DB	0f8H
	DB	0ffH
	DB	0f8H
	DB	0fcH
	DB	0f8H
	DB	0ffH
	DB	0f8H
	DB	0fcH
	DB	0f8H
	DB	0ffH
	DB	0f8H
	DB	0fcH
	DB	0f8H
	DB	0ffH
	DB	0f8H
	DB	0fcH
	DB	0f8H
	DB	0ffH
	DB	0f8H
	DB	0fcH
	DB	0f8H
	DB	0ffH
	DB	0f8H
	DB	0fcH
	DB	0f8H
	DB	0ffH
	DB	0f8H
	DB	0fcH
	DB	0f8H
	DB	0ffH
	DB	0f8H
	DB	0fcH
	DB	0f8H
	DB	0ffH
	DB	0f8H
	DB	0fcH
	DB	0f8H
	DB	0ffH
	DB	0f8H
	DB	0fcH
	DB	0f8H
	DB	0ffH
	DB	0f8H
	DB	0fcH
	DB	0f8H
	DB	0ffH
	DB	0f8H
	DB	0fcH
	DB	0f8H
	DB	0ffH
	DB	0f8H
	DB	0fcH
	DB	0f8H
	DB	0ffH
	DB	0f8H
	DB	0fcH
	DB	0f8H
	DB	0ffH
	DB	0f8H
	DB	0fcH
	DB	0f8H
	DB	0ffH
	DB	0f8H
	DB	0fcH
	DB	0f8H
	DB	0ffH
	DB	0f8H
	DB	0fcH
	DB	0f8H
	DB	0ffH
	DB	0f8H
	DB	0fcH
	DB	0f8H
	DB	0ffH
	DB	0f8H
	DB	0fcH
	DB	0f8H
	DB	0ffH
	DB	0f8H
	DB	0fcH
	DB	0f8H
	DB	0ffH
	DB	0f8H
	DB	0fcH
	DB	0f8H
	DB	0ffH
	DB	0f8H
	DB	0fcH
	DB	0f8H
	DB	0ffH
	DB	0f8H
	DB	0fcH
	DB	0f8H
	DB	0ffH
	DB	0f8H
	DB	0fcH
	DB	0f8H
	DB	0ffH
	DB	0f8H
	DB	0fcH
	DB	0f8H
	DB	0ffH
	DB	0f8H
	DB	0fcH
	DB	0f8H
	DB	0ffH
	DB	0f8H
	DB	0fcH
	DB	0f8H
	DB	0ffH
	DB	0f8H
	DB	0fcH
	DB	0f8H
	DB	0ffH
	DB	0f8H
	DB	0fcH
	DB	0f8H
	DB	0ffH
	DB	0f8H
	DB	0fcH
	DB	0f8H
	DB	0ffH
	DB	0f8H
	DB	0fcH
	DB	0f8H
	DB	0ffH
	DB	0f8H
	DB	0fcH
	DB	0f8H
	DB	0ffH
	DB	0f8H
	DB	0fcH
	DB	0f8H
	DB	0ffH
	DB	0f8H
	DB	0fcH
	DB	0f8H
	DB	0ffH
	DB	0f8H
	DB	0fcH
	DB	0f8H
	DB	0ffH
	DB	0f8H
	DB	0fcH
	DB	0f8H
	DB	0ffH
	DB	0f8H
	DB	0fcH
	DB	0f8H
	DB	0ffH
	DB	0f8H
	DB	0fcH
	DB	0f8H
	DB	0ffH
	DB	0f8H
	DB	0fcH
	DB	0f8H
	DB	0ffH
	DB	0f8H
	DB	0fcH
	DB	0f8H
	DB	0ffH
	DB	0f8H
	DB	0fcH
	DB	0f8H
	DB	0ffH
	DB	0f8H
	DB	0fcH
	DB	0f8H
	DB	0ffH
	DB	0f8H
	DB	0fcH
	DB	0f8H
	DB	0ffH
	DB	0f8H
	DB	0fcH
	DB	0f8H
	DB	0ffH
	DB	0f0H
	DB	0e0H
	DB	0d0H
	DB	0ffH
	DB	0d8H
	DB	0bcH
	DB	098H
	DB	0ffH
	DB	0d0H
	DB	0b0H
	DB	088H
	DB	0ffH
	DB	0d0H
	DB	0b0H
	DB	090H
	DB	0ffH
	DB	0d0H
	DB	0b0H
	DB	088H
	DB	09aH
	DB	0c8H
	DB	0b4H
	DB	088H
	DB	08H
	DB	0f8H
	DB	0fcH
	DB	0f8H
	DB	00H
	DB	0f8H
	DB	0fcH
	DB	0f8H
	DB	00H
	DB	0f8H
	DB	0fcH
	DB	0f8H
	DB	00H
	DB	0f8H
	DB	0fcH
	DB	0f8H
	DB	00H
	DB	0f8H
	DB	0fcH
	DB	0f8H
	DB	00H
	DB	0f8H
	DB	0fcH
	DB	0f8H
	DB	00H
	DB	0d0H
	DB	0b0H
	DB	088H
	DB	00H
	DB	0d0H
	DB	0b4H
	DB	088H
	DB	00H
	DB	0d0H
	DB	0b0H
	DB	090H
	DB	00H
	DB	0d0H
	DB	0b0H
	DB	088H
	DB	00H
	DB	0c8H
	DB	0b4H
	DB	088H
	DB	00H
	DB	0d0H
	DB	0b0H
	DB	088H
	DB	00H
	DB	0d0H
	DB	0b0H
	DB	090H
	DB	00H
	DB	0b8H
	DB	08cH
	DB	050H
	DB	00H
	DB	0d0H
	DB	0b4H
	DB	088H
	DB	045H
	DB	0d0H
	DB	0b0H
	DB	090H
	DB	0d7H
	DB	0d0H
	DB	0b0H
	DB	088H
	DB	0ffH
	DB	0d0H
	DB	0b4H
	DB	088H
	DB	0ffH
	DB	0d0H
	DB	0b0H
	DB	090H
	DB	0ffH
	DB	0c8H
	DB	0b0H
	DB	088H
	DB	0ffH
	DB	0d0H
	DB	0b4H
	DB	088H
	DB	0ffH
	DB	0d0H
	DB	0b0H
	DB	090H
	DB	0ffH
	DB	0c8H
	DB	0b4H
	DB	088H
	DB	0ffH
	DB	0c8H
	DB	0b0H
	DB	088H
	DB	0ffH
	DB	0d0H
	DB	0b4H
	DB	090H
	DB	0ffH
	DB	0d0H
	DB	0b0H
	DB	090H
	DB	0ffH
	DB	0c8H
	DB	0b0H
	DB	088H
	DB	0ffH
	DB	0d0H
	DB	0b4H
	DB	090H
	DB	0ffH
	DB	0d0H
	DB	0b0H
	DB	088H
	DB	0ffH
	DB	0c8H
	DB	0b0H
	DB	088H
	DB	0ffH
	DB	0d0H
	DB	0b4H
	DB	088H
	DB	0ffH
	DB	0d0H
	DB	0b0H
	DB	090H
	DB	0ffH
	DB	0d0H
	DB	0c0H
	DB	0a0H
	DB	0ffH
	DB	0f0H
	DB	0ecH
	DB	0e0H
	DB	0ffH
	DB	0f8H
	DB	0fcH
	DB	0f8H
	DB	0ffH
	DB	0f8H
	DB	0fcH
	DB	0f8H
	DB	0ffH
	DB	0f8H
	DB	0fcH
	DB	0f8H
	DB	0ffH
	DB	0f8H
	DB	0fcH
	DB	0f8H
	DB	0ffH
	DB	0f8H
	DB	0fcH
	DB	0f8H
	DB	0ffH
	DB	0f8H
	DB	0fcH
	DB	0f8H
	DB	0ffH
	DB	0f8H
	DB	0fcH
	DB	0f8H
	DB	0ffH
	DB	0f8H
	DB	0fcH
	DB	0f8H
	DB	0ffH
	DB	0f8H
	DB	0fcH
	DB	0f8H
	DB	0ffH
	DB	0f8H
	DB	0fcH
	DB	0f8H
	DB	0ffH
	DB	0f8H
	DB	0fcH
	DB	0f8H
	DB	0ffH
	DB	0f8H
	DB	0fcH
	DB	0f8H
	DB	0ffH
	DB	0f8H
	DB	0fcH
	DB	0f8H
	DB	0ffH
	DB	0f8H
	DB	0fcH
	DB	0f8H
	DB	0ffH
	DB	0f8H
	DB	0fcH
	DB	0f8H
	DB	0ffH
	DB	0f8H
	DB	0fcH
	DB	0f8H
	DB	0ffH
	DB	0f8H
	DB	0fcH
	DB	0f8H
	DB	0ffH
	DB	0f8H
	DB	0fcH
	DB	0f8H
	DB	0ffH
	DB	0f8H
	DB	0fcH
	DB	0f8H
	DB	0ffH
	DB	0f8H
	DB	0fcH
	DB	0f8H
	DB	0ffH
	DB	0f8H
	DB	0fcH
	DB	0f8H
	DB	0ffH
	DB	0f8H
	DB	0fcH
	DB	0f8H
	DB	0ffH
	DB	0f8H
	DB	0fcH
	DB	0f8H
	DB	0ffH
	DB	0f8H
	DB	0fcH
	DB	0f8H
	DB	0ffH
	DB	0f8H
	DB	0fcH
	DB	0f8H
	DB	0ffH
	DB	0f8H
	DB	0fcH
	DB	0f8H
	DB	0ffH
	DB	0f8H
	DB	0fcH
	DB	0f8H
	DB	0ffH
	DB	0f8H
	DB	0fcH
	DB	0f8H
	DB	0ffH
	DB	0f8H
	DB	0fcH
	DB	0f8H
	DB	0ffH
	DB	0f8H
	DB	0fcH
	DB	0f8H
	DB	0ffH
	DB	0f8H
	DB	0fcH
	DB	0f8H
	DB	0ffH
	DB	0f8H
	DB	0fcH
	DB	0f8H
	DB	0ffH
	DB	0f8H
	DB	0fcH
	DB	0f8H
	DB	0ffH
	DB	0f8H
	DB	0fcH
	DB	0f8H
	DB	0ffH
	DB	0f8H
	DB	0fcH
	DB	0f8H
	DB	0ffH
	DB	0f8H
	DB	0fcH
	DB	0f8H
	DB	0ffH
	DB	0f8H
	DB	0fcH
	DB	0f8H
	DB	0ffH
	DB	0f8H
	DB	0fcH
	DB	0f8H
	DB	0ffH
	DB	0f8H
	DB	0fcH
	DB	0f8H
	DB	0ffH
	DB	0f8H
	DB	0fcH
	DB	0f8H
	DB	0ffH
	DB	0f8H
	DB	0fcH
	DB	0f8H
	DB	0ffH
	DB	0f8H
	DB	0fcH
	DB	0f8H
	DB	0ffH
	DB	0f8H
	DB	0fcH
	DB	0f8H
	DB	0ffH
	DB	0f8H
	DB	0fcH
	DB	0f8H
	DB	0ffH
	DB	0f8H
	DB	0fcH
	DB	0f8H
	DB	0ffH
	DB	0f8H
	DB	0fcH
	DB	0f8H
	DB	0ffH
	DB	0f8H
	DB	0fcH
	DB	0f8H
	DB	0ffH
	DB	0f8H
	DB	0fcH
	DB	0f8H
	DB	0ffH
	DB	0f8H
	DB	0fcH
	DB	0f8H
	DB	0ffH
	DB	0f8H
	DB	0fcH
	DB	0f8H
	DB	0ffH
	DB	0f8H
	DB	0fcH
	DB	0f8H
	DB	0ffH
	DB	0f8H
	DB	0fcH
	DB	0f8H
	DB	0ffH
	DB	0f8H
	DB	0fcH
	DB	0f8H
	DB	0ffH
	DB	0f8H
	DB	0fcH
	DB	0f8H
	DB	0ffH
	DB	0f8H
	DB	0fcH
	DB	0f8H
	DB	0ffH
	DB	0f8H
	DB	0f8H
	DB	0f8H
	DB	0ffH
	DB	0f8H
	DB	0f0H
	DB	0e8H
	DB	0ffH
	DB	0e8H
	DB	0e0H
	DB	0d0H
	DB	0ffH
	DB	0e0H
	DB	0ccH
	DB	0b0H
	DB	0ffH
	DB	0d0H
	DB	0b4H
	DB	090H
	DB	0ffH
	DB	0d0H
	DB	0b0H
	DB	090H
	DB	0ffH
	DB	0d0H
	DB	0b4H
	DB	088H
	DB	0ffH
	DB	0c8H
	DB	0b0H
	DB	088H
	DB	0d7H
	DB	0d0H
	DB	0b0H
	DB	090H
	DB	045H
	DB	0f8H
	DB	0fcH
	DB	0f8H
	DB	00H
	DB	0f8H
	DB	0fcH
	DB	0f8H
	DB	00H
	DB	0f8H
	DB	0fcH
	DB	0f8H
	DB	00H
	DB	0f8H
	DB	0fcH
	DB	0f8H
	DB	00H
	DB	0f8H
	DB	0fcH
	DB	0f8H
	DB	00H
	DB	0f8H
	DB	0fcH
	DB	0f8H
	DB	00H
	DB	0f8H
	DB	0fcH
	DB	0f8H
	DB	00H
	DB	0f8H
	DB	0fcH
	DB	0f8H
	DB	00H
	DB	0d0H
	DB	0b0H
	DB	088H
	DB	00H
	DB	0c8H
	DB	0b0H
	DB	090H
	DB	00H
	DB	0d0H
	DB	0b4H
	DB	088H
	DB	00H
	DB	0d0H
	DB	0b0H
	DB	090H
	DB	00H
	DB	0d0H
	DB	0b0H
	DB	090H
	DB	00H
	DB	0d0H
	DB	0b0H
	DB	088H
	DB	00H
	DB	0d0H
	DB	0b0H
	DB	088H
	DB	00H
	DB	0c8H
	DB	0b4H
	DB	090H
	DB	00H
	DB	0d0H
	DB	0b0H
	DB	088H
	DB	00H
	DB	0c8H
	DB	0b0H
	DB	088H
	DB	04H
	DB	0d0H
	DB	0b4H
	DB	090H
	DB	059H
	DB	0d0H
	DB	0b0H
	DB	088H
	DB	0c7H
	DB	0c8H
	DB	0b0H
	DB	088H
	DB	0ffH
	DB	0d0H
	DB	0b0H
	DB	090H
	DB	0ffH
	DB	0d0H
	DB	0b0H
	DB	088H
	DB	0ffH
	DB	0d0H
	DB	0b4H
	DB	090H
	DB	0ffH
	DB	0d0H
	DB	0b0H
	DB	088H
	DB	0ffH
	DB	0d0H
	DB	0b0H
	DB	088H
	DB	0ffH
	DB	0d0H
	DB	0b4H
	DB	090H
	DB	0ffH
	DB	0c8H
	DB	0b0H
	DB	088H
	DB	0ffH
	DB	0d0H
	DB	0b0H
	DB	088H
	DB	0ffH
	DB	0d0H
	DB	0b4H
	DB	090H
	DB	0ffH
	DB	0d0H
	DB	0b0H
	DB	088H
	DB	0ffH
	DB	0d0H
	DB	0b0H
	DB	088H
	DB	0ffH
	DB	0d0H
	DB	0b0H
	DB	090H
	DB	0ffH
	DB	0d0H
	DB	0b0H
	DB	088H
	DB	0ffH
	DB	0d0H
	DB	0b0H
	DB	088H
	DB	0ffH
	DB	0d0H
	DB	0b0H
	DB	088H
	DB	0ffH
	DB	0d0H
	DB	0b0H
	DB	090H
	DB	0ffH
	DB	0d0H
	DB	0b0H
	DB	088H
	DB	0ffH
	DB	0d0H
	DB	0b0H
	DB	088H
	DB	0ffH
	DB	0d0H
	DB	0b0H
	DB	088H
	DB	0ffH
	DB	0d0H
	DB	0b0H
	DB	088H
	DB	0ffH
	DB	0d0H
	DB	0b0H
	DB	088H
	DB	0ffH
	DB	0d0H
	DB	0b0H
	DB	088H
	DB	0ffH
	DB	0d0H
	DB	0b0H
	DB	088H
	DB	0ffH
	DB	0d0H
	DB	0b0H
	DB	088H
	DB	0ffH
	DB	0d0H
	DB	0b0H
	DB	088H
	DB	0ffH
	DB	0c8H
	DB	0b0H
	DB	088H
	DB	0ffH
	DB	0d0H
	DB	0b0H
	DB	088H
	DB	0ffH
	DB	0d0H
	DB	0b0H
	DB	088H
	DB	0ffH
	DB	0d0H
	DB	0b0H
	DB	088H
	DB	0ffH
	DB	0c8H
	DB	0b4H
	DB	088H
	DB	0ffH
	DB	0d0H
	DB	0b0H
	DB	088H
	DB	0ffH
	DB	0d0H
	DB	0b0H
	DB	088H
	DB	0ffH
	DB	0d0H
	DB	0b4H
	DB	088H
	DB	0ffH
	DB	0c8H
	DB	0b0H
	DB	088H
	DB	0ffH
	DB	0d0H
	DB	0b0H
	DB	088H
	DB	0ffH
	DB	0d0H
	DB	0b4H
	DB	088H
	DB	0ffH
	DB	0c8H
	DB	0b0H
	DB	088H
	DB	0ffH
	DB	0d0H
	DB	0b4H
	DB	088H
	DB	0ffH
	DB	0d0H
	DB	0b0H
	DB	090H
	DB	0ffH
	DB	0c8H
	DB	0b4H
	DB	088H
	DB	0ffH
	DB	0d0H
	DB	0b0H
	DB	088H
	DB	0ffH
	DB	0d0H
	DB	0b4H
	DB	088H
	DB	0ffH
	DB	0c8H
	DB	0b0H
	DB	088H
	DB	0ffH
	DB	0d0H
	DB	0b4H
	DB	090H
	DB	0ffH
	DB	0d0H
	DB	0b0H
	DB	088H
	DB	0ffH
	DB	0c8H
	DB	0b4H
	DB	088H
	DB	0ffH
	DB	0d0H
	DB	0b4H
	DB	088H
	DB	0ffH
	DB	0d0H
	DB	0b0H
	DB	088H
	DB	0ffH
	DB	0c8H
	DB	0b4H
	DB	090H
	DB	0ffH
	DB	0d0H
	DB	0b0H
	DB	088H
	DB	0ffH
	DB	0d0H
	DB	0b4H
	DB	088H
	DB	0ffH
	DB	0c8H
	DB	0b4H
	DB	088H
	DB	0ffH
	DB	0d0H
	DB	0b0H
	DB	090H
	DB	0ffH
	DB	0d0H
	DB	0b4H
	DB	088H
	DB	0ffH
	DB	0c8H
	DB	0b0H
	DB	088H
	DB	0ffH
	DB	0d0H
	DB	0b4H
	DB	088H
	DB	0ffH
	DB	0d0H
	DB	0b4H
	DB	090H
	DB	0ffH
	DB	0c8H
	DB	0b0H
	DB	088H
	DB	0ffH
	DB	0d0H
	DB	0b4H
	DB	088H
	DB	0ffH
	DB	0d0H
	DB	0b0H
	DB	088H
	DB	0ffH
	DB	0c8H
	DB	0b4H
	DB	090H
	DB	0ffH
	DB	0d0H
	DB	0b0H
	DB	088H
	DB	0ffH
	DB	0d0H
	DB	0b4H
	DB	088H
	DB	0ffH
	DB	0d0H
	DB	0b0H
	DB	088H
	DB	0ffH
	DB	0d0H
	DB	0b0H
	DB	090H
	DB	0ffH
	DB	0d0H
	DB	0b4H
	DB	088H
	DB	0ffH
	DB	0d0H
	DB	0b0H
	DB	088H
	DB	0ffH
	DB	0d0H
	DB	0b0H
	DB	090H
	DB	0ffH
	DB	0d0H
	DB	0b4H
	DB	088H
	DB	0ffH
	DB	0d0H
	DB	0b0H
	DB	088H
	DB	0ffH
	DB	0d0H
	DB	0b0H
	DB	088H
	DB	0ffH
	DB	0d0H
	DB	0b0H
	DB	088H
	DB	0ffH
	DB	0d0H
	DB	0b0H
	DB	090H
	DB	0ffH
	DB	0d0H
	DB	0b4H
	DB	088H
	DB	0ffH
	DB	0d0H
	DB	0b0H
	DB	088H
	DB	0ffH
	DB	0c8H
	DB	0b0H
	DB	090H
	DB	0c7H
	DB	0d0H
	DB	0b4H
	DB	088H
	DB	059H
	DB	0d0H
	DB	0b0H
	DB	090H
	DB	04H
	DB	0f8H
	DB	0fcH
	DB	0f8H
	DB	00H
	DB	0f8H
	DB	0fcH
	DB	0f8H
	DB	00H
	DB	0f8H
	DB	0fcH
	DB	0f8H
	DB	00H
	DB	0f8H
	DB	0fcH
	DB	0f8H
	DB	00H
	DB	0f8H
	DB	0fcH
	DB	0f8H
	DB	00H
	DB	0f8H
	DB	0fcH
	DB	0f8H
	DB	00H
	DB	0f8H
	DB	0fcH
	DB	0f8H
	DB	00H
	DB	0f8H
	DB	0fcH
	DB	0f8H
	DB	00H
	DB	0f8H
	DB	0fcH
	DB	0f8H
	DB	00H
	DB	0d0H
	DB	0b0H
	DB	088H
	DB	00H
	DB	0d0H
	DB	0b0H
	DB	088H
	DB	00H
	DB	0c8H
	DB	0b0H
	DB	088H
	DB	00H
	DB	0d0H
	DB	0b0H
	DB	088H
	DB	00H
	DB	0d0H
	DB	0b4H
	DB	090H
	DB	00H
	DB	0c8H
	DB	0b0H
	DB	088H
	DB	00H
	DB	0d0H
	DB	0b0H
	DB	088H
	DB	00H
	DB	0d0H
	DB	0b0H
	DB	090H
	DB	00H
	DB	0d0H
	DB	0b0H
	DB	088H
	DB	00H
	DB	0d0H
	DB	0b0H
	DB	090H
	DB	00H
	DB	0c8H
	DB	0b0H
	DB	090H
	DB	00H
	DB	0d0H
	DB	0b0H
	DB	088H
	DB	00H
	DB	0d0H
	DB	0b4H
	DB	088H
	DB	020H
	DB	0d0H
	DB	0b0H
	DB	090H
	DB	069H
	DB	0c8H
	DB	0b0H
	DB	088H
	DB	0b2H
	DB	0d0H
	DB	0b0H
	DB	088H
	DB	0e3H
	DB	0d0H
	DB	0b0H
	DB	090H
	DB	0f7H
	DB	0d0H
	DB	0b0H
	DB	088H
	DB	0ffH
	DB	0c8H
	DB	0b0H
	DB	088H
	DB	0ffH
	DB	0d0H
	DB	0b0H
	DB	090H
	DB	0ffH
	DB	0d0H
	DB	0b0H
	DB	088H
	DB	0ffH
	DB	0c8H
	DB	0b0H
	DB	088H
	DB	0ffH
	DB	0d0H
	DB	0b4H
	DB	090H
	DB	0ffH
	DB	0d0H
	DB	0b0H
	DB	088H
	DB	0ffH
	DB	0c8H
	DB	0b0H
	DB	090H
	DB	0ffH
	DB	0d0H
	DB	0b4H
	DB	088H
	DB	0ffH
	DB	0d0H
	DB	0b0H
	DB	088H
	DB	0ffH
	DB	0c8H
	DB	0b0H
	DB	090H
	DB	0ffH
	DB	0d0H
	DB	0b4H
	DB	088H
	DB	0ffH
	DB	0c8H
	DB	0b0H
	DB	090H
	DB	0ffH
	DB	0c8H
	DB	0b4H
	DB	090H
	DB	0ffH
	DB	0d0H
	DB	0b0H
	DB	088H
	DB	0ffH
	DB	0c8H
	DB	0b4H
	DB	090H
	DB	0ffH
	DB	0d0H
	DB	0b0H
	DB	090H
	DB	0ffH
	DB	0c8H
	DB	0b4H
	DB	088H
	DB	0ffH
	DB	0c8H
	DB	0b0H
	DB	090H
	DB	0ffH
	DB	0d0H
	DB	0b0H
	DB	090H
	DB	0ffH
	DB	0d0H
	DB	0b4H
	DB	088H
	DB	0ffH
	DB	0d0H
	DB	0b0H
	DB	090H
	DB	0ffH
	DB	0c8H
	DB	0b4H
	DB	090H
	DB	0ffH
	DB	0d0H
	DB	0b0H
	DB	088H
	DB	0ffH
	DB	0d0H
	DB	0b0H
	DB	090H
	DB	0ffH
	DB	0d0H
	DB	0b0H
	DB	090H
	DB	0ffH
	DB	0c8H
	DB	0b0H
	DB	088H
	DB	0ffH
	DB	0d0H
	DB	0b0H
	DB	090H
	DB	0ffH
	DB	0d0H
	DB	0b4H
	DB	090H
	DB	0ffH
	DB	0d0H
	DB	0b0H
	DB	088H
	DB	0ffH
	DB	0d0H
	DB	0b0H
	DB	090H
	DB	0ffH
	DB	0d0H
	DB	0b0H
	DB	090H
	DB	0ffH
	DB	0d0H
	DB	0b0H
	DB	088H
	DB	0ffH
	DB	0d0H
	DB	0b0H
	DB	090H
	DB	0ffH
	DB	0d0H
	DB	0b0H
	DB	088H
	DB	0ffH
	DB	0d0H
	DB	0b0H
	DB	088H
	DB	0ffH
	DB	0d0H
	DB	0b0H
	DB	090H
	DB	0ffH
	DB	0d0H
	DB	0b0H
	DB	090H
	DB	0ffH
	DB	0d0H
	DB	0b0H
	DB	088H
	DB	0ffH
	DB	0d0H
	DB	0b0H
	DB	088H
	DB	0ffH
	DB	0d0H
	DB	0b0H
	DB	090H
	DB	0ffH
	DB	0d0H
	DB	0b0H
	DB	090H
	DB	0ffH
	DB	0d0H
	DB	0b0H
	DB	088H
	DB	0ffH
	DB	0d0H
	DB	0b0H
	DB	090H
	DB	0ffH
	DB	0d0H
	DB	0b0H
	DB	088H
	DB	0ffH
	DB	0d0H
	DB	0b0H
	DB	088H
	DB	0ffH
	DB	0d0H
	DB	0b0H
	DB	090H
	DB	0ffH
	DB	0d0H
	DB	0b0H
	DB	088H
	DB	0ffH
	DB	0d0H
	DB	0b0H
	DB	088H
	DB	0ffH
	DB	0d0H
	DB	0b0H
	DB	090H
	DB	0ffH
	DB	0d0H
	DB	0b0H
	DB	088H
	DB	0ffH
	DB	0d0H
	DB	0b0H
	DB	090H
	DB	0ffH
	DB	0d0H
	DB	0b0H
	DB	088H
	DB	0ffH
	DB	0d0H
	DB	0b0H
	DB	088H
	DB	0ffH
	DB	0d0H
	DB	0b0H
	DB	090H
	DB	0ffH
	DB	0d0H
	DB	0b0H
	DB	088H
	DB	0ffH
	DB	0d0H
	DB	0b0H
	DB	088H
	DB	0ffH
	DB	0c8H
	DB	0b0H
	DB	090H
	DB	0ffH
	DB	0d0H
	DB	0b0H
	DB	088H
	DB	0ffH
	DB	0c8H
	DB	0b4H
	DB	090H
	DB	0ffH
	DB	0c8H
	DB	0b0H
	DB	088H
	DB	0ffH
	DB	0d0H
	DB	0b0H
	DB	088H
	DB	0ffH
	DB	0c8H
	DB	0b0H
	DB	090H
	DB	0ffH
	DB	0d0H
	DB	0b0H
	DB	088H
	DB	0ffH
	DB	0d0H
	DB	0b0H
	DB	088H
	DB	0ffH
	DB	0c8H
	DB	0b4H
	DB	090H
	DB	0fbH
	DB	0d0H
	DB	0b0H
	DB	088H
	DB	0ebH
	DB	0d0H
	DB	0b0H
	DB	088H
	DB	0cfH
	DB	0c8H
	DB	0b4H
	DB	090H
	DB	0a6H
	DB	0d0H
	DB	0b0H
	DB	088H
	DB	069H
	DB	0d0H
	DB	0b0H
	DB	088H
	DB	020H
	DB	0f8H
	DB	0fcH
	DB	0f8H
	DB	00H
	DB	0f8H
	DB	0fcH
	DB	0f8H
	DB	00H
	DB	0f8H
	DB	0fcH
	DB	0f8H
	DB	00H
	DB	0f8H
	DB	0fcH
	DB	0f8H
	DB	00H
	DB	0f8H
	DB	0fcH
	DB	0f8H
	DB	00H
	DB	0f8H
	DB	0fcH
	DB	0f8H
	DB	00H
	DB	0f8H
	DB	0fcH
	DB	0f8H
	DB	00H
	DB	0f8H
	DB	0fcH
	DB	0f8H
	DB	00H
	DB	0f8H
	DB	0fcH
	DB	0f8H
	DB	00H
	DB	0f8H
	DB	0fcH
	DB	0f8H
	DB	00H
	DB	0f8H
	DB	0fcH
	DB	0f8H
	DB	00H
	DB	0f8H
	DB	0fcH
	DB	0f8H
	DB	00H
	DB	0d0H
	DB	0b0H
	DB	090H
	DB	00H
	DB	0d0H
	DB	0b0H
	DB	088H
	DB	00H
	DB	0d0H
	DB	0b0H
	DB	090H
	DB	00H
	DB	0c8H
	DB	0b4H
	DB	088H
	DB	00H
	DB	0d0H
	DB	0b0H
	DB	088H
	DB	00H
	DB	0d0H
	DB	0b0H
	DB	090H
	DB	00H
	DB	0c8H
	DB	0b4H
	DB	088H
	DB	00H
	DB	0d0H
	DB	0b0H
	DB	088H
	DB	00H
	DB	0d0H
	DB	0b4H
	DB	090H
	DB	00H
	DB	0d0H
	DB	0b0H
	DB	088H
	DB	00H
	DB	0d0H
	DB	0b0H
	DB	088H
	DB	00H
	DB	0c8H
	DB	0b4H
	DB	090H
	DB	00H
	DB	0d0H
	DB	0b0H
	DB	088H
	DB	00H
	DB	0d0H
	DB	0b0H
	DB	088H
	DB	00H
	DB	0c8H
	DB	0b4H
	DB	090H
	DB	00H
	DB	0d0H
	DB	0b0H
	DB	088H
	DB	00H
	DB	0d0H
	DB	0b0H
	DB	090H
	DB	00H
	DB	0c8H
	DB	0b4H
	DB	088H
	DB	00H
	DB	0d0H
	DB	0b0H
	DB	088H
	DB	00H
	DB	0d0H
	DB	0b4H
	DB	090H
	DB	00H
	DB	0d0H
	DB	0b0H
	DB	088H
	DB	00H
	DB	0d0H
	DB	0b0H
	DB	090H
	DB	00H
	DB	0c8H
	DB	0b0H
	DB	088H
	DB	00H
	DB	0d0H
	DB	0b4H
	DB	088H
	DB	00H
	DB	0d0H
	DB	0b0H
	DB	090H
	DB	00H
	DB	0c8H
	DB	0b0H
	DB	088H
	DB	00H
	DB	0d0H
	DB	0b4H
	DB	090H
	DB	00H
	DB	0d0H
	DB	0b0H
	DB	088H
	DB	00H
	DB	0d0H
	DB	0b0H
	DB	088H
	DB	00H
	DB	0d0H
	DB	0b0H
	DB	088H
	DB	00H
	DB	0d0H
	DB	0b0H
	DB	090H
	DB	00H
	DB	0d0H
	DB	0b4H
	DB	088H
	DB	00H
	DB	0d0H
	DB	0b0H
	DB	088H
	DB	00H
	DB	0d0H
	DB	0b0H
	DB	090H
	DB	00H
	DB	0d0H
	DB	0b0H
	DB	088H
	DB	00H
	DB	0d0H
	DB	0b4H
	DB	088H
	DB	00H
	DB	0c8H
	DB	0b0H
	DB	090H
	DB	00H
	DB	0d0H
	DB	0b0H
	DB	088H
	DB	00H
	DB	0f8H
	DB	0fcH
	DB	0f8H
	DB	00H
	DB	0f8H
	DB	0fcH
	DB	0f8H
	DB	00H
	DB	0f8H
	DB	0fcH
	DB	0f8H
	DB	00H
	DB	0f8H
	DB	0fcH
	DB	0f8H
	DB	00H
	DB	0f8H
	DB	0fcH
	DB	0f8H
	DB	00H
	DB	0f8H
	DB	0fcH
	DB	0f8H
	DB	00H
	DB	0f8H
	DB	0fcH
	DB	0f8H
	DB	00H
	DB	0f8H
	DB	0fcH
	DB	0f8H
	DB	00H
	DB	0f8H
	DB	0fcH
	DB	0f8H
	DB	00H
	DB	0f8H
	DB	0fcH
	DB	0f8H
	DB	00H
	DB	0f8H
	DB	0fcH
	DB	0f8H
	DB	00H
	DB	0f8H
	DB	0fcH
	DB	0f8H
	DB	00H
	DB	0f8H
	DB	0fcH
	DB	0f8H
	DB	00H
	DB	0f8H
	DB	0fcH
	DB	0f8H
	DB	00H
	DB	0f8H
	DB	0fcH
	DB	0f8H
	DB	00H
	DB	0f8H
	DB	0fcH
	DB	0f8H
	DB	00H
	DB	0f8H
	DB	0fcH
	DB	0f8H
	DB	00H
	DB	0f8H
	DB	0fcH
	DB	0f8H
	DB	00H
	DB	0f8H
	DB	0fcH
	DB	0f8H
	DB	00H
	DB	0f8H
	DB	0fcH
	DB	0f8H
	DB	00H
	DB	0f8H
	DB	0fcH
	DB	0f8H
	DB	00H
	DB	0f8H
	DB	0fcH
	DB	0f8H
	DB	00H
	DB	0f8H
	DB	0fcH
	DB	0f8H
	DB	00H
	DB	0f8H
	DB	0fcH
	DB	0f8H
	DB	00H
	DB	0f8H
	DB	0fcH
	DB	0f8H
	DB	00H
	DB	0f8H
	DB	0fcH
	DB	0f8H
	DB	00H
	DB	0f8H
	DB	0fcH
	DB	0f8H
	DB	00H
	DB	0f8H
	DB	0fcH
	DB	0f8H
	DB	00H
	DB	0f8H
	DB	0fcH
	DB	0f8H
	DB	00H
	DB	0f8H
	DB	0fcH
	DB	0f8H
	DB	00H
	DB	0f8H
	DB	0fcH
	DB	0f8H
	DB	00H
	DB	0f8H
	DB	0fcH
	DB	0f8H
	DB	00H
	DB	0f8H
	DB	0fcH
	DB	0f8H
	DB	00H
	DB	0f8H
	DB	0fcH
	DB	0f8H
	DB	00H
	DB	0f8H
	DB	0fcH
	DB	0f8H
	DB	00H
	DB	0f8H
	DB	0fcH
	DB	0f8H
	DB	00H
	DB	0f8H
	DB	0fcH
	DB	0f8H
	DB	00H
	DB	0f8H
	DB	0fcH
	DB	0f8H
	DB	00H
	DB	0f8H
	DB	0fcH
	DB	0f8H
	DB	00H
	DB	0f8H
	DB	0fcH
	DB	0f8H
	DB	00H
	DB	0f8H
	DB	0fcH
	DB	0f8H
	DB	00H
	DB	0f8H
	DB	0fcH
	DB	0f8H
	DB	00H
	DB	0f8H
	DB	0fcH
	DB	0f8H
	DB	00H
	DB	0f8H
	DB	0fcH
	DB	0f8H
	DB	00H
	DB	0f8H
	DB	0fcH
	DB	0f8H
	DB	00H
	DB	0f8H
	DB	0fcH
	DB	0f8H
	DB	00H
	DB	0f8H
	DB	0fcH
	DB	0f8H
	DB	00H
	DB	0f8H
	DB	0fcH
	DB	0f8H
	DB	00H
	DB	0f8H
	DB	0fcH
	DB	0f8H
	DB	00H
	DB	0f8H
	DB	0fcH
	DB	0f8H
	DB	00H
	DB	0f8H
	DB	0fcH
	DB	0f8H
	DB	00H
	DB	0f8H
	DB	0fcH
	DB	0f8H
	DB	00H
	DB	0f8H
	DB	0fcH
	DB	0f8H
	DB	00H
	DB	0f8H
	DB	0fcH
	DB	0f8H
	DB	00H
	DB	0f8H
	DB	0fcH
	DB	0f8H
	DB	00H
	DB	0f8H
	DB	0fcH
	DB	0f8H
	DB	00H
	DB	0f8H
	DB	0fcH
	DB	0f8H
	DB	00H
	DB	0f8H
	DB	0fcH
	DB	0f8H
	DB	00H
	DB	0f8H
	DB	0fcH
	DB	0f8H
	DB	00H
	DB	0f8H
	DB	0fcH
	DB	0f8H
	DB	00H
	DB	0f8H
	DB	0fcH
	DB	0f8H
	DB	00H
	DB	0f8H
	DB	0fcH
	DB	0f8H
	DB	00H
	DB	0f8H
	DB	0fcH
	DB	0f8H
	DB	00H
	DB	0f8H
	DB	0fcH
	DB	0f8H
	DB	00H
	DB	0f8H
	DB	0fcH
	DB	0f8H
	DB	00H
	DB	0f8H
	DB	0fcH
	DB	0f8H
	DB	00H
	DB	0f8H
	DB	0fcH
	DB	0f8H
	DB	00H
	DB	0f8H
	DB	0fcH
	DB	0f8H
	DB	00H
	DB	0f8H
	DB	0fcH
	DB	0f8H
	DB	00H
	DB	0f8H
	DB	0fcH
	DB	0f8H
	DB	00H
	DB	0f8H
	DB	0fcH
	DB	0f8H
	DB	00H
	DB	0f8H
	DB	0fcH
	DB	0f8H
	DB	00H
	DB	0f8H
	DB	0fcH
	DB	0f8H
	DB	00H
	DB	0f8H
	DB	0fcH
	DB	0f8H
	DB	00H
	DB	0f8H
	DB	0fcH
	DB	0f8H
	DB	00H
	DB	0f8H
	DB	0fcH
	DB	0f8H
	DB	00H
	DB	0f8H
	DB	0fcH
	DB	0f8H
	DB	00H
	DB	0f8H
	DB	0fcH
	DB	0f8H
	DB	00H
	DB	0f8H
	DB	0fcH
	DB	0f8H
	DB	00H
	DB	0f8H
	DB	0fcH
	DB	0f8H
	DB	00H
	DB	0f8H
	DB	0fcH
	DB	0f8H
	DB	00H
	DB	0f8H
	DB	0fcH
	DB	0f8H
	DB	00H
	DB	0f8H
	DB	0fcH
	DB	0f8H
	DB	00H
	DB	0f8H
	DB	0fcH
	DB	0f8H
	DB	00H
	DB	0f8H
	DB	0fcH
	DB	0f8H
	DB	00H
	DB	0f8H
	DB	0fcH
	DB	0f8H
	DB	00H
	DB	0f8H
	DB	0fcH
	DB	0f8H
	DB	00H
	DB	0f8H
	DB	0fcH
	DB	0f8H
	DB	00H
	DB	0f8H
	DB	0fcH
	DB	0f8H
	DB	00H
	DB	0f8H
	DB	0fcH
	DB	0f8H
	DB	00H
	DB	0f8H
	DB	0fcH
	DB	0f8H
	DB	00H
	DB	0f8H
	DB	0fcH
	DB	0f8H
	DB	00H
	DB	0f8H
	DB	0fcH
	DB	0f8H
	DB	00H
	DB	0f8H
	DB	0fcH
	DB	0f8H
	DB	00H
	DB	0f8H
	DB	0fcH
	DB	0f8H
	DB	00H
	DB	0f8H
	DB	0fcH
	DB	0f8H
	DB	00H
	DB	0f8H
	DB	0fcH
	DB	0f8H
	DB	00H
	DB	0f8H
	DB	0fcH
	DB	0f8H
	DB	00H
	DB	0f8H
	DB	0fcH
	DB	0f8H
	DB	00H
	DB	0f8H
	DB	0fcH
	DB	0f8H
	DB	00H
	DB	0f8H
	DB	0fcH
	DB	0f8H
	DB	00H
	DB	0f8H
	DB	0fcH
	DB	0f8H
	DB	00H
	DB	0f8H
	DB	0fcH
	DB	0f8H
	DB	00H
	DB	0f8H
	DB	0fcH
	DB	0f8H
	DB	00H
	DB	0f8H
	DB	0fcH
	DB	0f8H
	DB	00H
	DB	0f8H
	DB	0fcH
	DB	0f8H
	DB	00H
	DB	0f8H
	DB	0fcH
	DB	0f8H
	DB	00H
	DB	0f8H
	DB	0fcH
	DB	0f8H
	DB	00H
	DB	0f8H
	DB	0fcH
	DB	0f8H
	DB	00H
	DB	0f8H
	DB	0fcH
	DB	0f8H
	DB	00H
	DB	0f8H
	DB	0fcH
	DB	0f8H
	DB	00H
	DB	0f8H
	DB	0fcH
	DB	0f8H
	DB	00H
	DB	0f8H
	DB	0fcH
	DB	0f8H
	DB	00H
	DB	0f8H
	DB	0fcH
	DB	0f8H
	DB	00H
	DB	0f8H
	DB	0fcH
	DB	0f8H
	DB	00H
	DB	0f8H
	DB	0fcH
	DB	0f8H
	DB	00H
	DB	0f8H
	DB	0fcH
	DB	0f8H
	DB	00H
	DB	0f8H
	DB	0fcH
	DB	0f8H
	DB	00H
	DB	0f8H
	DB	0fcH
	DB	0f8H
	DB	00H
	DB	0f8H
	DB	0fcH
	DB	0f8H
	DB	00H
	DB	0f8H
	DB	0fcH
	DB	0f8H
	DB	00H
	DB	0f8H
	DB	0fcH
	DB	0f8H
	DB	00H
	DB	0f8H
	DB	0fcH
	DB	0f8H
	DB	00H
	DB	0f8H
	DB	0fcH
	DB	0f8H
	DB	00H
	DB	0f8H
	DB	0fcH
	DB	0f8H
	DB	00H
	DB	0f8H
	DB	0fcH
	DB	0f8H
	DB	00H
	DB	0f8H
	DB	0fcH
	DB	0f8H
	DB	00H
	DB	0f8H
	DB	0fcH
	DB	0f8H
	DB	00H
	DB	0f8H
	DB	0fcH
	DB	0f8H
	DB	00H
	DB	0f8H
	DB	0fcH
	DB	0f8H
	DB	00H
	DB	0f8H
	DB	0fcH
	DB	0f8H
	DB	00H
	DB	0f8H
	DB	0fcH
	DB	0f8H
	DB	00H
	DB	0f8H
	DB	0fcH
	DB	0f8H
	DB	00H
	DB	0f8H
	DB	0fcH
	DB	0f8H
	DB	00H
	DB	0f8H
	DB	0fcH
	DB	0f8H
	DB	00H
	DB	0f8H
	DB	0fcH
	DB	0f8H
	DB	00H
	DB	0f8H
	DB	0fcH
	DB	0f8H
	DB	00H
	DB	0f8H
	DB	0fcH
	DB	0f8H
	DB	00H
	DB	0f8H
	DB	0fcH
	DB	0f8H
	DB	00H
	DB	0f8H
	DB	0fcH
	DB	0f8H
	DB	00H
	DB	0f8H
	DB	0fcH
	DB	0f8H
	DB	00H
	DB	0f8H
	DB	0fcH
	DB	0f8H
	DB	00H
	DB	0f8H
	DB	0fcH
	DB	0f8H
	DB	00H
	DB	0f8H
	DB	0fcH
	DB	0f8H
	DB	00H
	DB	0f8H
	DB	0fcH
	DB	0f8H
	DB	00H
	DB	0f8H
	DB	0fcH
	DB	0f8H
	DB	00H
	DB	0f8H
	DB	0fcH
	DB	0f8H
	DB	00H
	DB	0f8H
	DB	0fcH
	DB	0f8H
	DB	00H
	DB	0f8H
	DB	0fcH
	DB	0f8H
	DB	00H
	DB	0f8H
	DB	0fcH
	DB	0f8H
	DB	00H
	DB	0f8H
	DB	0fcH
	DB	0f8H
	DB	00H
	DB	0f8H
	DB	0fcH
	DB	0f8H
	DB	00H
	DB	0f8H
	DB	0fcH
	DB	0f8H
	DB	00H
	DB	0f8H
	DB	0fcH
	DB	0f8H
	DB	00H
	DB	0f8H
	DB	0fcH
	DB	0f8H
	DB	00H
	DB	0f8H
	DB	0fcH
	DB	0f8H
	DB	00H
	DB	0f8H
	DB	0fcH
	DB	0f8H
	DB	00H
	DB	0f8H
	DB	0fcH
	DB	0f8H
	DB	00H
	DB	0f8H
	DB	0fcH
	DB	0f8H
	DB	00H
	DB	0f8H
	DB	0fcH
	DB	0f8H
	DB	00H
	DB	0f8H
	DB	0fcH
	DB	0f8H
	DB	00H
	DB	0f8H
	DB	0fcH
	DB	0f8H
	DB	00H
	DB	0f8H
	DB	0fcH
	DB	0f8H
	DB	00H
	DB	0f8H
	DB	0fcH
	DB	0f8H
	DB	00H
	DB	0f8H
	DB	0fcH
	DB	0f8H
	DB	00H
	DB	0f8H
	DB	0fcH
	DB	0f8H
	DB	00H
	DB	0f8H
	DB	0fcH
	DB	0f8H
	DB	00H
	DB	0f8H
	DB	0fcH
	DB	0f8H
	DB	00H
	DB	0f8H
	DB	0fcH
	DB	0f8H
	DB	00H
	DB	0f8H
	DB	0fcH
	DB	0f8H
	DB	00H
	DB	0f8H
	DB	0fcH
	DB	0f8H
	DB	00H
	DB	0f8H
	DB	0fcH
	DB	0f8H
	DB	00H
	DB	0f8H
	DB	0fcH
	DB	0f8H
	DB	00H
	DB	0f8H
	DB	0fcH
	DB	0f8H
	DB	00H
	DB	0f8H
	DB	0fcH
	DB	0f8H
	DB	00H
	DB	0f8H
	DB	0fcH
	DB	0f8H
	DB	00H
	DB	0f8H
	DB	0fcH
	DB	0f8H
	DB	00H
	DB	0f8H
	DB	0fcH
	DB	0f8H
	DB	00H
	DB	0f8H
	DB	0fcH
	DB	0f8H
	DB	00H
	DB	0f8H
	DB	0fcH
	DB	0f8H
	DB	00H
	DB	0f8H
	DB	0fcH
	DB	0f8H
	DB	00H
	DB	0f8H
	DB	0fcH
	DB	0f8H
	DB	00H
	DB	0f8H
	DB	0fcH
	DB	0f8H
	DB	00H
	DB	0f8H
	DB	0fcH
	DB	0f8H
	DB	00H
	DB	0f8H
	DB	0fcH
	DB	0f8H
	DB	00H
	DB	0f8H
	DB	0fcH
	DB	0f8H
	DB	00H
	DB	0f8H
	DB	0fcH
	DB	0f8H
	DB	00H
	DB	0f8H
	DB	0fcH
	DB	0f8H
	DB	00H
	DB	0f8H
	DB	0fcH
	DB	0f8H
	DB	00H
	DB	0f8H
	DB	0fcH
	DB	0f8H
	DB	00H
	DB	0f8H
	DB	0fcH
	DB	0f8H
	DB	00H
	DB	0f8H
	DB	0fcH
	DB	0f8H
	DB	00H
	DB	0f8H
	DB	0fcH
	DB	0f8H
	DB	00H
	DB	0f8H
	DB	0fcH
	DB	0f8H
	DB	00H
	DB	0f8H
	DB	0fcH
	DB	0f8H
	DB	00H
	DB	0f8H
	DB	0fcH
	DB	0f8H
	DB	00H
	DB	0f8H
	DB	0fcH
	DB	0f8H
	DB	00H
	DB	0f8H
	DB	0fcH
	DB	0f8H
	DB	00H
	DB	0f8H
	DB	0fcH
	DB	0f8H
	DB	00H
	DB	0f8H
	DB	0fcH
	DB	0f8H
	DB	00H
	DB	0f8H
	DB	0fcH
	DB	0f8H
	DB	00H
	DB	0f8H
	DB	0fcH
	DB	0f8H
	DB	00H
	DB	0f8H
	DB	0fcH
	DB	0f8H
	DB	00H
	DB	0f8H
	DB	0fcH
	DB	0f8H
	DB	00H
	DB	0f8H
	DB	0fcH
	DB	0f8H
	DB	00H
	DB	0f8H
	DB	0fcH
	DB	0f8H
	DB	00H
	DB	0f8H
	DB	0fcH
	DB	0f8H
	DB	00H
	DB	0f8H
	DB	0fcH
	DB	0f8H
	DB	00H
	DB	0f8H
	DB	0fcH
	DB	0f8H
	DB	00H
	DB	0f8H
	DB	0fcH
	DB	0f8H
	DB	00H
	DB	0f8H
	DB	0fcH
	DB	0f8H
	DB	00H
	DB	0f8H
	DB	0fcH
	DB	0f8H
	DB	00H
	DB	0f8H
	DB	0fcH
	DB	0f8H
	DB	00H
	DB	0f8H
	DB	0fcH
	DB	0f8H
	DB	00H
	DB	0f8H
	DB	0fcH
	DB	0f8H
	DB	00H
	DB	0f8H
	DB	0fcH
	DB	0f8H
	DB	00H
	DB	0f8H
	DB	0fcH
	DB	0f8H
	DB	00H
	DB	0f8H
	DB	0fcH
	DB	0f8H
	DB	00H
	DB	0f8H
	DB	0fcH
	DB	0f8H
	DB	00H
	DB	0f8H
	DB	0fcH
	DB	0f8H
	DB	00H
	DB	0f8H
	DB	0fcH
	DB	0f8H
	DB	00H
	DB	0f8H
	DB	0fcH
	DB	0f8H
	DB	00H
	DB	0f8H
	DB	0fcH
	DB	0f8H
	DB	00H
	DB	0f8H
	DB	0fcH
	DB	0f8H
	DB	00H
	DB	0f8H
	DB	0fcH
	DB	0f8H
	DB	00H
	DB	0f8H
	DB	0fcH
	DB	0f8H
	DB	00H
	DB	0f8H
	DB	0fcH
	DB	0f8H
	DB	00H
	DB	0f8H
	DB	0fcH
	DB	0f8H
	DB	00H
	DB	0f8H
	DB	0fcH
	DB	0f8H
	DB	00H
	DB	0f8H
	DB	0fcH
	DB	0f8H
	DB	00H
	DB	0f8H
	DB	0fcH
	DB	0f8H
	DB	00H
	DB	0f8H
	DB	0fcH
	DB	0f8H
	DB	00H
	DB	0f8H
	DB	0fcH
	DB	0f8H
	DB	00H
	DB	0f8H
	DB	0fcH
	DB	0f8H
	DB	00H
	DB	0f8H
	DB	0fcH
	DB	0f8H
	DB	00H
	DB	0f8H
	DB	0fcH
	DB	0f8H
	DB	00H
	DB	0f8H
	DB	0fcH
	DB	0f8H
	DB	00H
	DB	0f8H
	DB	0fcH
	DB	0f8H
	DB	00H
	DB	0f8H
	DB	0fcH
	DB	0f8H
	DB	00H
	DB	0f8H
	DB	0fcH
	DB	0f8H
	DB	00H
	DB	0f8H
	DB	0fcH
	DB	0f8H
	DB	00H
	DB	0f8H
	DB	0fcH
	DB	0f8H
	DB	00H
	DB	0f8H
	DB	0fcH
	DB	0f8H
	DB	00H
	DB	0f8H
	DB	0fcH
	DB	0f8H
	DB	00H
	DB	0f8H
	DB	0fcH
	DB	0f8H
	DB	00H
	DB	0f8H
	DB	0fcH
	DB	0f8H
	DB	00H
	DB	0f8H
	DB	0fcH
	DB	0f8H
	DB	00H
	DB	0f8H
	DB	0fcH
	DB	0f8H
	DB	00H
	DB	0f8H
	DB	0fcH
	DB	0f8H
	DB	00H
	DB	0f8H
	DB	0fcH
	DB	0f8H
	DB	00H
	DB	0f8H
	DB	0fcH
	DB	0f8H
	DB	00H
	DB	0f8H
	DB	0fcH
	DB	0f8H
	DB	00H
	DB	0f8H
	DB	0fcH
	DB	0f8H
	DB	00H
	DB	0f8H
	DB	0fcH
	DB	0f8H
	DB	00H
	DB	0f8H
	DB	0fcH
	DB	0f8H
	DB	00H
	DB	0f8H
	DB	0fcH
	DB	0f8H
	DB	00H
	DB	0f8H
	DB	0fcH
	DB	0f8H
	DB	00H
	DB	0f8H
	DB	0fcH
	DB	0f8H
	DB	00H
	DB	0f8H
	DB	0fcH
	DB	0f8H
	DB	00H
	DB	0f8H
	DB	0fcH
	DB	0f8H
	DB	00H
	DB	0f8H
	DB	0fcH
	DB	0f8H
	DB	00H
	DB	0f8H
	DB	0fcH
	DB	0f8H
	DB	00H
	DB	0f8H
	DB	0fcH
	DB	0f8H
	DB	00H
	DB	0f8H
	DB	0fcH
	DB	0f8H
	DB	00H
	DB	0f8H
	DB	0fcH
	DB	0f8H
	DB	00H
	DB	0f8H
	DB	0fcH
	DB	0f8H
	DB	00H
	DB	0f8H
	DB	0fcH
	DB	0f8H
	DB	00H
	DB	0f8H
	DB	0fcH
	DB	0f8H
	DB	00H
	DB	0f8H
	DB	0fcH
	DB	0f8H
	DB	00H
	DB	0f8H
	DB	0fcH
	DB	0f8H
	DB	00H
	DB	0f8H
	DB	0fcH
	DB	0f8H
	DB	00H
	DB	0f8H
	DB	0fcH
	DB	0f8H
	DB	00H
	DB	0f8H
	DB	0fcH
	DB	0f8H
	DB	00H
	DB	0f8H
	DB	0fcH
	DB	0f8H
	DB	00H
	DB	0f8H
	DB	0fcH
	DB	0f8H
	DB	00H
	DB	0f8H
	DB	0fcH
	DB	0f8H
	DB	00H
	DB	0f8H
	DB	0fcH
	DB	0f8H
	DB	00H
	DB	0f8H
	DB	0fcH
	DB	0f8H
	DB	00H
	DB	0f8H
	DB	0fcH
	DB	0f8H
	DB	00H
	DB	0f8H
	DB	0fcH
	DB	0f8H
	DB	00H
	DB	0f8H
	DB	0fcH
	DB	0f8H
	DB	00H
	DB	0f8H
	DB	0fcH
	DB	0f8H
	DB	00H
	DB	0f8H
	DB	0fcH
	DB	0f8H
	DB	00H
	DB	0f8H
	DB	0fcH
	DB	0f8H
	DB	00H
	DB	0f8H
	DB	0fcH
	DB	0f8H
	DB	00H
	DB	0f8H
	DB	0fcH
	DB	0f8H
	DB	00H
	DB	0f8H
	DB	0fcH
	DB	0f8H
	DB	00H
	DB	0f8H
	DB	0fcH
	DB	0f8H
	DB	00H
	DB	0f8H
	DB	0fcH
	DB	0f8H
	DB	00H
	DB	0f8H
	DB	0fcH
	DB	0f8H
	DB	00H
	DB	0f8H
	DB	0fcH
	DB	0f8H
	DB	00H
	DB	0f8H
	DB	0fcH
	DB	0f8H
	DB	00H
	DB	0f8H
	DB	0fcH
	DB	0f8H
	DB	00H
	DB	0f8H
	DB	0fcH
	DB	0f8H
	DB	00H
	DB	0f8H
	DB	0fcH
	DB	0f8H
	DB	00H
	DB	0f8H
	DB	0fcH
	DB	0f8H
	DB	00H
	DB	0f8H
	DB	0fcH
	DB	0f8H
	DB	00H
	DB	0f8H
	DB	0fcH
	DB	0f8H
	DB	00H
	DB	0f8H
	DB	0fcH
	DB	0f8H
	DB	00H
	DB	0f8H
	DB	0fcH
	DB	0f8H
	DB	00H
	DB	0f8H
	DB	0fcH
	DB	0f8H
	DB	00H
	DB	0f8H
	DB	0fcH
	DB	0f8H
	DB	00H
	DB	0f8H
	DB	0fcH
	DB	0f8H
	DB	00H
	DB	0f8H
	DB	0fcH
	DB	0f8H
	DB	00H
	DB	0f8H
	DB	0fcH
	DB	0f8H
	DB	00H
	DB	0f8H
	DB	0fcH
	DB	0f8H
	DB	00H
	DB	0f8H
	DB	0fcH
	DB	0f8H
	DB	00H
	DB	0f8H
	DB	0fcH
	DB	0f8H
	DB	00H
	DB	0f8H
	DB	0fcH
	DB	0f8H
	DB	00H
	DB	0f8H
	DB	0fcH
	DB	0f8H
	DB	00H
	DB	0f8H
	DB	0fcH
	DB	0f8H
	DB	00H
	DB	0f8H
	DB	0fcH
	DB	0f8H
	DB	00H
	DB	0f8H
	DB	0fcH
	DB	0f8H
	DB	00H
	DB	0f8H
	DB	0fcH
	DB	0f8H
	DB	00H
	DB	0f8H
	DB	0fcH
	DB	0f8H
	DB	00H
	DB	0f8H
	DB	0fcH
	DB	0f8H
	DB	00H
	DB	0f8H
	DB	0fcH
	DB	0f8H
	DB	00H
	DB	0f8H
	DB	0fcH
	DB	0f8H
	DB	00H
	DB	0f8H
	DB	0fcH
	DB	0f8H
	DB	00H
	DB	0f8H
	DB	0fcH
	DB	0f8H
	DB	00H
	DB	0f8H
	DB	0fcH
	DB	0f8H
	DB	00H
	DB	0f8H
	DB	0fcH
	DB	0f8H
	DB	00H
	DB	0f8H
	DB	0fcH
	DB	0f8H
	DB	00H
	DB	0f8H
	DB	0fcH
	DB	0f8H
	DB	00H
	DB	0f8H
	DB	0fcH
	DB	0f8H
	DB	00H
	DB	0f8H
	DB	0fcH
	DB	0f8H
	DB	00H
	DB	0f8H
	DB	0fcH
	DB	0f8H
	DB	00H
	DB	0f8H
	DB	0fcH
	DB	0f8H
	DB	00H
	DB	0f8H
	DB	0fcH
	DB	0f8H
	DB	00H
	DB	0f8H
	DB	0fcH
	DB	0f8H
	DB	00H
	DB	0f8H
	DB	0fcH
	DB	0f8H
	DB	00H
	DB	0f8H
	DB	0fcH
	DB	0f8H
	DB	00H
	DB	0f8H
	DB	0fcH
	DB	0f8H
	DB	00H
	DB	0f8H
	DB	0fcH
	DB	0f8H
	DB	00H
	DB	0f8H
	DB	0fcH
	DB	0f8H
	DB	00H
	DB	0f8H
	DB	0fcH
	DB	0f8H
	DB	00H
	DB	0f8H
	DB	0fcH
	DB	0f8H
	DB	00H
	DB	0f8H
	DB	0fcH
	DB	0f8H
	DB	00H
	DB	0f8H
	DB	0fcH
	DB	0f8H
	DB	00H
	DB	0f8H
	DB	0fcH
	DB	0f8H
	DB	00H
	DB	0f8H
	DB	0fcH
	DB	0f8H
	DB	00H
	DB	0f8H
	DB	0fcH
	DB	0f8H
	DB	00H
	DB	0f8H
	DB	0fcH
	DB	0f8H
	DB	00H
	DB	0f8H
	DB	0fcH
	DB	0f8H
	DB	00H
	DB	0f8H
	DB	0fcH
	DB	0f8H
	DB	00H
	DB	0f8H
	DB	0fcH
	DB	0f8H
	DB	00H
	DB	0f8H
	DB	0fcH
	DB	0f8H
	DB	00H
	DB	0f8H
	DB	0fcH
	DB	0f8H
	DB	00H
	DB	0f8H
	DB	0fcH
	DB	0f8H
	DB	00H
	DB	0f8H
	DB	0fcH
	DB	0f8H
	DB	00H
	DB	0f8H
	DB	0fcH
	DB	0f8H
	DB	00H
	DB	0f8H
	DB	0fcH
	DB	0f8H
	DB	00H
	DB	0f8H
	DB	0fcH
	DB	0f8H
	DB	00H
	DB	0f8H
	DB	0fcH
	DB	0f8H
	DB	00H
	DB	0f8H
	DB	0fcH
	DB	0f8H
	DB	00H
	DB	0f8H
	DB	0fcH
	DB	0f8H
	DB	00H
	DB	0f8H
	DB	0fcH
	DB	0f8H
	DB	00H
	DB	0f8H
	DB	0fcH
	DB	0f8H
	DB	00H
	DB	0f8H
	DB	0fcH
	DB	0f8H
	DB	00H
	DB	0f8H
	DB	0fcH
	DB	0f8H
	DB	00H
	DB	0f8H
	DB	0fcH
	DB	0f8H
	DB	00H
	DB	0f8H
	DB	0fcH
	DB	0f8H
	DB	00H
	DB	0f8H
	DB	0fcH
	DB	0f8H
	DB	00H
	DB	0f8H
	DB	0fcH
	DB	0f8H
	DB	00H
	DB	0f8H
	DB	0fcH
	DB	0f8H
	DB	00H
	DB	0f8H
	DB	0fcH
	DB	0f8H
	DB	00H
	DB	0f8H
	DB	0fcH
	DB	0f8H
	DB	00H
	DB	0f8H
	DB	0fcH
	DB	0f8H
	DB	00H
	DB	0f8H
	DB	0fcH
	DB	0f8H
	DB	00H
	DB	0f8H
	DB	0fcH
	DB	0f8H
	DB	00H
	DB	0f8H
	DB	0fcH
	DB	0f8H
	DB	00H
	DB	0f8H
	DB	0fcH
	DB	0f8H
	DB	00H
	DB	0f8H
	DB	0fcH
	DB	0f8H
	DB	00H
	DB	0f8H
	DB	0fcH
	DB	0f8H
	DB	00H
	DB	0f8H
	DB	0fcH
	DB	0f8H
	DB	00H
	DB	0f8H
	DB	0fcH
	DB	0f8H
	DB	00H
	DB	0f8H
	DB	0fcH
	DB	0f8H
	DB	00H
	DB	0f8H
	DB	0fcH
	DB	0f8H
	DB	00H
	DB	0f8H
	DB	0fcH
	DB	0f8H
	DB	00H
	DB	0f8H
	DB	0fcH
	DB	0f8H
	DB	00H
	DB	0f8H
	DB	0fcH
	DB	0f8H
	DB	00H
	DB	0f8H
	DB	0fcH
	DB	0f8H
	DB	00H
	DB	0f8H
	DB	0fcH
	DB	0f8H
	DB	00H
	DB	0f8H
	DB	0fcH
	DB	0f8H
	DB	00H
	DB	0f8H
	DB	0fcH
	DB	0f8H
	DB	00H
	DB	0f8H
	DB	0fcH
	DB	0f8H
	DB	00H
	DB	0f8H
	DB	0fcH
	DB	0f8H
	DB	00H
	DB	0f8H
	DB	0fcH
	DB	0f8H
	DB	00H
	DB	0f8H
	DB	0fcH
	DB	0f8H
	DB	00H
	DB	0f8H
	DB	0fcH
	DB	0f8H
	DB	00H
	DB	0f8H
	DB	0fcH
	DB	0f8H
	DB	00H
	DB	0f8H
	DB	0fcH
	DB	0f8H
	DB	00H
	DB	0f8H
	DB	0fcH
	DB	0f8H
	DB	00H
	DB	0f8H
	DB	0fcH
	DB	0f8H
	DB	00H
	DB	0f8H
	DB	0fcH
	DB	0f8H
	DB	00H
	DB	0f8H
	DB	0fcH
	DB	0f8H
	DB	00H
	DB	0f8H
	DB	0fcH
	DB	0f8H
	DB	00H
	DB	0f8H
	DB	0fcH
	DB	0f8H
	DB	00H
	DB	0f8H
	DB	0fcH
	DB	0f8H
	DB	00H
	DB	0f8H
	DB	0fcH
	DB	0f8H
	DB	00H
	DB	0f8H
	DB	0fcH
	DB	0f8H
	DB	00H
	DB	0f8H
	DB	0fcH
	DB	0f8H
	DB	00H
	DB	0f8H
	DB	0fcH
	DB	0f8H
	DB	00H
	DB	0f8H
	DB	0fcH
	DB	0f8H
	DB	00H
	DB	0f8H
	DB	0fcH
	DB	0f8H
	DB	00H
	DB	0f8H
	DB	0fcH
	DB	0f8H
	DB	00H
	DB	0f8H
	DB	0fcH
	DB	0f8H
	DB	00H
	DB	0f8H
	DB	0fcH
	DB	0f8H
	DB	00H
	DB	0f8H
	DB	0fcH
	DB	0f8H
	DB	00H
	DB	0f8H
	DB	0fcH
	DB	0f8H
	DB	00H
	DB	0f8H
	DB	0fcH
	DB	0f8H
	DB	00H
	DB	0f8H
	DB	0fcH
	DB	0f8H
	DB	00H
	DB	0f8H
	DB	0fcH
	DB	0f8H
	DB	00H
	DB	0f8H
	DB	0fcH
	DB	0f8H
	DB	00H
	DB	0f8H
	DB	0fcH
	DB	0f8H
	DB	00H
	DB	0f8H
	DB	0fcH
	DB	0f8H
	DB	00H
	DB	0f8H
	DB	0fcH
	DB	0f8H
	DB	00H
	DB	0f8H
	DB	0fcH
	DB	0f8H
	DB	00H
	DB	0f8H
	DB	0fcH
	DB	0f8H
	DB	00H
	DB	0f8H
	DB	0fcH
	DB	0f8H
	DB	00H
	DB	0f8H
	DB	0fcH
	DB	0f8H
	DB	00H
	DB	0f8H
	DB	0fcH
	DB	0f8H
	DB	00H
	DB	0f8H
	DB	0fcH
	DB	0f8H
	DB	00H
	DB	0f8H
	DB	0fcH
	DB	0f8H
	DB	00H
	DB	0f8H
	DB	0fcH
	DB	0f8H
	DB	00H
	DB	0f8H
	DB	0fcH
	DB	0f8H
	DB	00H
	DB	0f8H
	DB	0fcH
	DB	0f8H
	DB	00H
	DB	0f8H
	DB	0fcH
	DB	0f8H
	DB	00H
	DB	0f8H
	DB	0fcH
	DB	0f8H
	DB	00H
	DB	0f8H
	DB	0fcH
	DB	0f8H
	DB	00H
	DB	0f8H
	DB	0fcH
	DB	0f8H
	DB	00H
	DB	0f8H
	DB	0fcH
	DB	0f8H
	DB	00H
	DB	0f8H
	DB	0fcH
	DB	0f8H
	DB	00H
	DB	0f8H
	DB	0fcH
	DB	0f8H
	DB	00H
	DB	0f8H
	DB	0fcH
	DB	0f8H
	DB	00H
	DB	0f8H
	DB	0fcH
	DB	0f8H
	DB	00H
	DB	0f8H
	DB	0fcH
	DB	0f8H
	DB	00H
	DB	0f8H
	DB	0fcH
	DB	0f8H
	DB	00H
	DB	0f8H
	DB	0fcH
	DB	0f8H
	DB	00H
	DB	0f8H
	DB	0fcH
	DB	0f8H
	DB	00H
	DB	0f8H
	DB	0fcH
	DB	0f8H
	DB	00H
	DB	0f8H
	DB	0fcH
	DB	0f8H
	DB	00H
	DB	0f8H
	DB	0fcH
	DB	0f8H
	DB	00H
	DB	0f8H
	DB	0fcH
	DB	0f8H
	DB	00H
	DB	0f8H
	DB	0fcH
	DB	0f8H
	DB	00H
	DB	0f8H
	DB	0fcH
	DB	0f8H
	DB	00H
	DB	0f8H
	DB	0fcH
	DB	0f8H
	DB	00H
	DB	0f8H
	DB	0fcH
	DB	0f8H
	DB	00H
	DB	0f8H
	DB	0fcH
	DB	0f8H
	DB	00H
	DB	0f8H
	DB	0fcH
	DB	0f8H
	DB	00H
	DB	0f8H
	DB	0fcH
	DB	0f8H
	DB	00H
	DB	0f8H
	DB	0fcH
	DB	0f8H
	DB	00H
	DB	0f8H
	DB	0fcH
	DB	0f8H
	DB	00H
	DB	0f8H
	DB	0fcH
	DB	0f8H
	DB	00H
	DB	0f8H
	DB	0fcH
	DB	0f8H
	DB	00H
	DB	0f8H
	DB	0fcH
	DB	0f8H
	DB	00H
	DB	0f8H
	DB	0fcH
	DB	0f8H
	DB	00H
	DB	0f8H
	DB	0fcH
	DB	0f8H
	DB	00H
	DB	0f8H
	DB	0fcH
	DB	0f8H
	DB	00H
	DB	0f8H
	DB	0fcH
	DB	0f8H
	DB	00H
	DB	0f8H
	DB	0fcH
	DB	0f8H
	DB	00H
	DB	0f8H
	DB	0fcH
	DB	0f8H
	DB	00H
	DB	0f8H
	DB	0fcH
	DB	0f8H
	DB	00H
	DB	0f8H
	DB	0fcH
	DB	0f8H
	DB	00H
	DB	0f8H
	DB	0fcH
	DB	0f8H
	DB	00H
	DB	0f8H
	DB	0fcH
	DB	0f8H
	DB	00H
	DB	0f8H
	DB	0fcH
	DB	0f8H
	DB	00H
	DB	0f8H
	DB	0fcH
	DB	0f8H
	DB	00H
	DB	0f8H
	DB	0fcH
	DB	0f8H
	DB	00H
	DB	0f8H
	DB	0fcH
	DB	0f8H
	DB	00H
	DB	0f8H
	DB	0fcH
	DB	0f8H
	DB	00H
	DB	0f8H
	DB	0fcH
	DB	0f8H
	DB	00H
	DB	0f8H
	DB	0fcH
	DB	0f8H
	DB	00H
	DB	0f8H
	DB	0fcH
	DB	0f8H
	DB	00H
	DB	0f8H
	DB	0fcH
	DB	0f8H
	DB	00H
	DB	0f8H
	DB	0fcH
	DB	0f8H
	DB	00H
	DB	0f8H
	DB	0fcH
	DB	0f8H
	DB	00H
	DB	0f8H
	DB	0fcH
	DB	0f8H
	DB	00H
	DB	0f8H
	DB	0fcH
	DB	0f8H
	DB	00H
	DB	0f8H
	DB	0fcH
	DB	0f8H
	DB	00H
	DB	0f8H
	DB	0fcH
	DB	0f8H
	DB	00H
	DB	0f8H
	DB	0fcH
	DB	0f8H
	DB	00H
	DB	0f8H
	DB	0fcH
	DB	0f8H
	DB	00H
	DB	0f8H
	DB	0fcH
	DB	0f8H
	DB	00H
	DB	0f8H
	DB	0fcH
	DB	0f8H
	DB	00H
	DB	0f8H
	DB	0fcH
	DB	0f8H
	DB	00H
	DB	0f8H
	DB	0fcH
	DB	0f8H
	DB	00H
	DB	0f8H
	DB	0fcH
	DB	0f8H
	DB	00H
	DB	0f8H
	DB	0fcH
	DB	0f8H
	DB	00H
	DB	0f8H
	DB	0fcH
	DB	0f8H
	DB	00H
	DB	0f8H
	DB	0fcH
	DB	0f8H
	DB	00H
	DB	0f8H
	DB	0fcH
	DB	0f8H
	DB	00H
	DB	0f8H
	DB	0fcH
	DB	0f8H
	DB	00H
	DB	0f8H
	DB	0fcH
	DB	0f8H
	DB	00H
	DB	0f8H
	DB	0fcH
	DB	0f8H
	DB	00H
	DB	0f8H
	DB	0fcH
	DB	0f8H
	DB	00H
	DB	0f8H
	DB	0fcH
	DB	0f8H
	DB	00H
	DB	0f8H
	DB	0fcH
	DB	0f8H
	DB	00H
	DB	0f8H
	DB	0fcH
	DB	0f8H
	DB	00H
	DB	0f8H
	DB	0fcH
	DB	0f8H
	DB	00H
	DB	0f8H
	DB	0fcH
	DB	0f8H
	DB	00H
	DB	0f8H
	DB	0fcH
	DB	0f8H
	DB	00H
	DB	0f8H
	DB	0fcH
	DB	0f8H
	DB	00H
	DB	0f8H
	DB	0fcH
	DB	0f8H
	DB	00H
	DB	0f8H
	DB	0fcH
	DB	0f8H
	DB	00H
	DB	0f8H
	DB	0fcH
	DB	0f8H
	DB	00H
	DB	0f8H
	DB	0fcH
	DB	0f8H
	DB	00H
	DB	0f8H
	DB	0fcH
	DB	0f8H
	DB	00H
	DB	0f8H
	DB	0fcH
	DB	0f8H
	DB	00H
	DB	0f8H
	DB	0fcH
	DB	0f8H
	DB	00H
	DB	0f8H
	DB	0fcH
	DB	0f8H
	DB	00H
	DB	0f8H
	DB	0fcH
	DB	0f8H
	DB	00H
	DB	0f8H
	DB	0fcH
	DB	0f8H
	DB	00H
	DB	0f8H
	DB	0fcH
	DB	0f8H
	DB	00H
	DB	0f8H
	DB	0fcH
	DB	0f8H
	DB	00H
	DB	0f8H
	DB	0fcH
	DB	0f8H
	DB	00H
	DB	0f8H
	DB	0fcH
	DB	0f8H
	DB	00H
	DB	0f8H
	DB	0fcH
	DB	0f8H
	DB	00H
	DB	0f8H
	DB	0fcH
	DB	0f8H
	DB	00H
	DB	0f8H
	DB	0fcH
	DB	0f8H
	DB	00H
	DB	0f8H
	DB	0fcH
	DB	0f8H
	DB	00H
	DB	0f8H
	DB	0fcH
	DB	0f8H
	DB	00H
	DB	0f8H
	DB	0fcH
	DB	0f8H
	DB	00H
	DB	0f8H
	DB	0fcH
	DB	0f8H
	DB	00H
	DB	0f8H
	DB	0fcH
	DB	0f8H
	DB	00H
	DB	0f8H
	DB	0fcH
	DB	0f8H
	DB	00H
	DB	0f8H
	DB	0fcH
	DB	0f8H
	DB	00H
	DB	0f8H
	DB	0fcH
	DB	0f8H
	DB	00H
	DB	0f8H
	DB	0fcH
	DB	0f8H
	DB	00H
	DB	0f8H
	DB	0fcH
	DB	0f8H
	DB	00H
	DB	0f8H
	DB	0fcH
	DB	0f8H
	DB	00H
	DB	0f8H
	DB	0fcH
	DB	0f8H
	DB	00H
	DB	0f8H
	DB	0fcH
	DB	0f8H
	DB	00H
	DB	0f8H
	DB	0fcH
	DB	0f8H
	DB	00H
	DB	0f8H
	DB	0fcH
	DB	0f8H
	DB	00H
	DB	0f8H
	DB	0fcH
	DB	0f8H
	DB	00H
	DB	0f8H
	DB	0fcH
	DB	0f8H
	DB	00H
	DB	0f8H
	DB	0fcH
	DB	0f8H
	DB	00H
	DB	0f8H
	DB	0fcH
	DB	0f8H
	DB	00H
	DB	0f8H
	DB	0fcH
	DB	0f8H
	DB	00H
	DB	0f8H
	DB	0fcH
	DB	0f8H
	DB	00H
	DB	0f8H
	DB	0fcH
	DB	0f8H
	DB	00H
	DB	0f8H
	DB	0fcH
	DB	0f8H
	DB	00H
	DB	0f8H
	DB	0fcH
	DB	0f8H
	DB	00H
	DB	0f8H
	DB	0fcH
	DB	0f8H
	DB	00H
	DB	0f8H
	DB	0fcH
	DB	0f8H
	DB	00H
	DB	0f8H
	DB	0fcH
	DB	0f8H
	DB	00H
	DB	0f8H
	DB	0fcH
	DB	0f8H
	DB	00H
	DB	0f8H
	DB	0fcH
	DB	0f8H
	DB	00H
	DB	0f8H
	DB	0fcH
	DB	0f8H
	DB	00H
	DB	0f8H
	DB	0fcH
	DB	0f8H
	DB	00H
	DB	0f8H
	DB	0fcH
	DB	0f8H
	DB	00H
	DB	0f8H
	DB	0fcH
	DB	0f8H
	DB	00H
	DB	0f8H
	DB	0fcH
	DB	0f8H
	DB	00H
	DB	0f8H
	DB	0fcH
	DB	0f8H
	DB	00H
	DB	0f8H
	DB	0fcH
	DB	0f8H
	DB	00H
	DB	0f8H
	DB	0fcH
	DB	0f8H
	DB	00H
	DB	0f8H
	DB	0fcH
	DB	0f8H
	DB	00H
	DB	0f8H
	DB	0fcH
	DB	0f8H
	DB	00H
	DB	0f8H
	DB	0fcH
	DB	0f8H
	DB	00H
	DB	0f8H
	DB	0fcH
	DB	0f8H
	DB	00H
	DB	0f8H
	DB	0fcH
	DB	0f8H
	DB	00H
	DB	0f8H
	DB	0fcH
	DB	0f8H
	DB	00H
	DB	0f8H
	DB	0fcH
	DB	0f8H
	DB	00H
	DB	0f8H
	DB	0fcH
	DB	0f8H
	DB	00H
	DB	0f8H
	DB	0fcH
	DB	0f8H
	DB	00H
	DB	0f8H
	DB	0fcH
	DB	0f8H
	DB	00H
	DB	0f8H
	DB	0fcH
	DB	0f8H
	DB	00H
	DB	0f8H
	DB	0fcH
	DB	0f8H
	DB	00H
	DB	0f8H
	DB	0fcH
	DB	0f8H
	DB	00H
	DB	0f8H
	DB	0fcH
	DB	0f8H
	DB	00H
	DB	0f8H
	DB	0fcH
	DB	0f8H
	DB	00H
	DB	0f8H
	DB	0fcH
	DB	0f8H
	DB	00H
	DB	0f8H
	DB	0fcH
	DB	0f8H
	DB	00H
	DB	0f8H
	DB	0fcH
	DB	0f8H
	DB	00H
	DB	0f8H
	DB	0fcH
	DB	0f8H
	DB	00H
	DB	0f8H
	DB	0fcH
	DB	0f8H
	DB	00H
	DB	0f8H
	DB	0fcH
	DB	0f8H
	DB	00H
	DB	0f8H
	DB	0fcH
	DB	0f8H
	DB	00H
	DB	0f8H
	DB	0fcH
	DB	0f8H
	DB	00H
	DB	0f8H
	DB	0fcH
	DB	0f8H
	DB	00H
	DB	0f8H
	DB	0fcH
	DB	0f8H
	DB	00H
	DB	0f8H
	DB	0fcH
	DB	0f8H
	DB	00H
	DB	0f8H
	DB	0fcH
	DB	0f8H
	DB	00H
	DB	0f8H
	DB	0fcH
	DB	0f8H
	DB	00H
	DB	0f8H
	DB	0fcH
	DB	0f8H
	DB	00H
	DB	0f8H
	DB	0fcH
	DB	0f8H
	DB	00H
	DB	0f8H
	DB	0fcH
	DB	0f8H
	DB	00H
	DB	0f8H
	DB	0fcH
	DB	0f8H
	DB	00H
	DB	0f8H
	DB	0fcH
	DB	0f8H
	DB	00H
	DB	0f8H
	DB	0fcH
	DB	0f8H
	DB	00H
	DB	0f8H
	DB	0fcH
	DB	0f8H
	DB	00H
	DB	0f8H
	DB	0fcH
	DB	0f8H
	DB	00H
	DB	0f8H
	DB	0fcH
	DB	0f8H
	DB	00H
	DB	0f8H
	DB	0fcH
	DB	0f8H
	DB	00H
	DB	0f8H
	DB	0fcH
	DB	0f8H
	DB	00H
	DB	0f8H
	DB	0fcH
	DB	0f8H
	DB	00H
	DB	0f8H
	DB	0fcH
	DB	0f8H
	DB	00H
	DB	0f8H
	DB	0fcH
	DB	0f8H
	DB	00H
	DB	0f8H
	DB	0fcH
	DB	0f8H
	DB	00H
	DB	0f8H
	DB	0fcH
	DB	0f8H
	DB	00H
	DB	0f8H
	DB	0fcH
	DB	0f8H
	DB	00H
	DB	0f8H
	DB	0fcH
	DB	0f8H
	DB	00H
	DB	0f8H
	DB	0fcH
	DB	0f8H
	DB	00H
	DB	0f8H
	DB	0fcH
	DB	0f8H
	DB	00H
	DB	0f8H
	DB	0fcH
	DB	0f8H
	DB	00H
	DB	0f8H
	DB	0fcH
	DB	0f8H
	DB	00H
	DB	0f8H
	DB	0fcH
	DB	0f8H
	DB	00H
	DB	0f8H
	DB	0fcH
	DB	0f8H
	DB	00H
	DB	0f8H
	DB	0fcH
	DB	0f8H
	DB	00H
	DB	0f8H
	DB	0fcH
	DB	0f8H
	DB	00H
	DB	0f8H
	DB	0fcH
	DB	0f8H
	DB	00H
	DB	0f8H
	DB	0fcH
	DB	0f8H
	DB	00H
	DB	0f8H
	DB	0fcH
	DB	0f8H
	DB	00H
	DB	0f8H
	DB	0fcH
	DB	0f8H
	DB	00H
	DB	0f8H
	DB	0fcH
	DB	0f8H
	DB	00H
	DB	0f8H
	DB	0fcH
	DB	0f8H
	DB	00H
	DB	0f8H
	DB	0fcH
	DB	0f8H
	DB	00H
	DB	0f8H
	DB	0fcH
	DB	0f8H
	DB	00H
	DB	0f8H
	DB	0fcH
	DB	0f8H
	DB	00H
	DB	0f8H
	DB	0fcH
	DB	0f8H
	DB	00H
	DB	0f8H
	DB	0fcH
	DB	0f8H
	DB	00H
	DB	0f8H
	DB	0fcH
	DB	0f8H
	DB	00H
	DB	0f8H
	DB	0fcH
	DB	0f8H
	DB	00H
	DB	0f8H
	DB	0fcH
	DB	0f8H
	DB	00H
	DB	0f8H
	DB	0fcH
	DB	0f8H
	DB	00H
	DB	0f8H
	DB	0fcH
	DB	0f8H
	DB	00H
	DB	0f8H
	DB	0fcH
	DB	0f8H
	DB	00H
	DB	0f8H
	DB	0fcH
	DB	0f8H
	DB	00H
	DB	0f8H
	DB	0fcH
	DB	0f8H
	DB	00H
	DB	0f8H
	DB	0fcH
	DB	0f8H
	DB	00H
	DB	0f8H
	DB	0fcH
	DB	0f8H
	DB	00H
	DB	0f8H
	DB	0fcH
	DB	0f8H
	DB	00H
	DB	0f8H
	DB	0fcH
	DB	0f8H
	DB	00H
	DB	0f8H
	DB	0fcH
	DB	0f8H
	DB	00H
	DB	0f8H
	DB	0fcH
	DB	0f8H
	DB	00H
	DB	0f8H
	DB	0fcH
	DB	0f8H
	DB	00H
	DB	0f8H
	DB	0fcH
	DB	0f8H
	DB	00H
	DB	0f8H
	DB	0fcH
	DB	0f8H
	DB	00H
	DB	0f8H
	DB	0fcH
	DB	0f8H
	DB	00H
	DB	0f8H
	DB	0fcH
	DB	0f8H
	DB	00H
	DB	0f8H
	DB	0fcH
	DB	0f8H
	DB	00H
	DB	0f8H
	DB	0fcH
	DB	0f8H
	DB	00H
	DB	0f8H
	DB	0fcH
	DB	0f8H
	DB	00H
	DB	0f8H
	DB	0fcH
	DB	0f8H
	DB	00H
	DB	0f8H
	DB	0fcH
	DB	0f8H
	DB	00H
	DB	0f8H
	DB	0fcH
	DB	0f8H
	DB	00H
	DB	0f8H
	DB	0fcH
	DB	0f8H
	DB	00H
	DB	0f8H
	DB	0fcH
	DB	0f8H
	DB	00H
	DB	0f8H
	DB	0fcH
	DB	0f8H
	DB	00H
	DB	0f8H
	DB	0fcH
	DB	0f8H
	DB	00H
	DB	0f8H
	DB	0fcH
	DB	0f8H
	DB	00H
	DB	0f8H
	DB	0fcH
	DB	0f8H
	DB	00H
	DB	0f8H
	DB	0fcH
	DB	0f8H
	DB	00H
	DB	0f8H
	DB	0fcH
	DB	0f8H
	DB	00H
	DB	0f8H
	DB	0fcH
	DB	0f8H
	DB	00H
	DB	0f8H
	DB	0fcH
	DB	0f8H
	DB	00H
	DB	0f8H
	DB	0fcH
	DB	0f8H
	DB	00H
	DB	0f8H
	DB	0fcH
	DB	0f8H
	DB	00H
	DB	0f8H
	DB	0fcH
	DB	0f8H
	DB	00H
	DB	0f8H
	DB	0fcH
	DB	0f8H
	DB	00H
	DB	0f8H
	DB	0fcH
	DB	0f8H
	DB	00H
	DB	0d0H
	DB	0b0H
	DB	088H
	DB	00H
	DB	0d0H
	DB	0b0H
	DB	088H
	DB	00H
	DB	0d0H
	DB	0b0H
	DB	088H
	DB	00H
	DB	0d0H
	DB	0b0H
	DB	090H
	DB	00H
	DB	0d0H
	DB	0b0H
	DB	088H
	DB	00H
	DB	0d0H
	DB	0b0H
	DB	088H
	DB	00H
	DB	0c8H
	DB	0b0H
	DB	090H
	DB	00H
	DB	0d0H
	DB	0b0H
	DB	088H
	DB	00H
	DB	0d0H
	DB	0b0H
	DB	088H
	DB	00H
	DB	0c8H
	DB	0b0H
	DB	090H
	DB	00H
	DB	0d0H
	DB	0b0H
	DB	088H
	DB	00H
	DB	0d0H
	DB	0b4H
	DB	088H
	DB	00H
	DB	0c8H
	DB	0b0H
	DB	090H
	DB	00H
	DB	0d0H
	DB	0b0H
	DB	088H
	DB	00H
	DB	0d0H
	DB	0b0H
	DB	088H
	DB	00H
	DB	0d0H
	DB	0b4H
	DB	090H
	DB	00H
	DB	0d0H
	DB	0b0H
	DB	088H
	DB	00H
	DB	0c8H
	DB	0b0H
	DB	088H
	DB	00H
	DB	0d0H
	DB	0b0H
	DB	090H
	DB	00H
	DB	0d0H
	DB	0b4H
	DB	088H
	DB	00H
	DB	0d0H
	DB	0b0H
	DB	088H
	DB	00H
	DB	0c8H
	DB	0b0H
	DB	090H
	DB	00H
	DB	0d0H
	DB	0b0H
	DB	088H
	DB	00H
	DB	0d0H
	DB	0b4H
	DB	088H
	DB	00H
	DB	0d0H
	DB	0b0H
	DB	090H
	DB	00H
	DB	0c8H
	DB	0b0H
	DB	088H
	DB	00H
	DB	0d0H
	DB	0b0H
	DB	088H
	DB	00H
	DB	0d0H
	DB	0b0H
	DB	090H
	DB	00H
	DB	0c8H
	DB	0b4H
	DB	088H
	DB	00H
	DB	0d0H
	DB	0b0H
	DB	088H
	DB	00H
	DB	0d0H
	DB	0b0H
	DB	090H
	DB	00H
	DB	0c8H
	DB	0b0H
	DB	088H
	DB	00H
	DB	0d0H
	DB	0b0H
	DB	088H
	DB	00H
	DB	0d0H
	DB	0b0H
	DB	090H
	DB	00H
	DB	0c8H
	DB	0b0H
	DB	088H
	DB	00H
	DB	0d0H
	DB	0b4H
	DB	088H
	DB	00H
	DB	0d0H
	DB	0b0H
	DB	090H
	DB	00H
	DB	0d0H
	DB	0b0H
	DB	088H
	DB	00H
	DB	0f8H
	DB	0fcH
	DB	0f8H
	DB	00H
	DB	0f8H
	DB	0fcH
	DB	0f8H
	DB	00H
	DB	0f8H
	DB	0fcH
	DB	0f8H
	DB	00H
	DB	0f8H
	DB	0fcH
	DB	0f8H
	DB	00H
	DB	0f8H
	DB	0fcH
	DB	0f8H
	DB	00H
	DB	0f8H
	DB	0fcH
	DB	0f8H
	DB	00H
	DB	0f8H
	DB	0fcH
	DB	0f8H
	DB	00H
	DB	0f8H
	DB	0fcH
	DB	0f8H
	DB	00H
	DB	0f8H
	DB	0fcH
	DB	0f8H
	DB	00H
	DB	0f8H
	DB	0fcH
	DB	0f8H
	DB	00H
	DB	0f8H
	DB	0fcH
	DB	0f8H
	DB	00H
	DB	0f8H
	DB	0fcH
	DB	0f8H
	DB	00H
	DB	0f8H
	DB	0fcH
	DB	0f8H
	DB	00H
	DB	0f8H
	DB	0fcH
	DB	0f8H
	DB	00H
	DB	0f8H
	DB	0fcH
	DB	0f8H
	DB	00H
	DB	0f8H
	DB	0fcH
	DB	0f8H
	DB	00H
	DB	0f8H
	DB	0fcH
	DB	0f8H
	DB	00H
	DB	0f8H
	DB	0fcH
	DB	0f8H
	DB	00H
	DB	0f8H
	DB	0fcH
	DB	0f8H
	DB	00H
	DB	0f8H
	DB	0fcH
	DB	0f8H
	DB	00H
	DB	0f8H
	DB	0fcH
	DB	0f8H
	DB	00H
	DB	0f8H
	DB	0fcH
	DB	0f8H
	DB	00H
	DB	0f8H
	DB	0fcH
	DB	0f8H
	DB	00H
	DB	0f8H
	DB	0fcH
	DB	0f8H
	DB	00H
	DB	0f8H
	DB	0fcH
	DB	0f8H
	DB	00H
	DB	0f8H
	DB	0fcH
	DB	0f8H
	DB	00H
	DB	0f8H
	DB	0fcH
	DB	0f8H
	DB	00H
	DB	0f8H
	DB	0fcH
	DB	0f8H
	DB	00H
	DB	0f8H
	DB	0fcH
	DB	0f8H
	DB	00H
	DB	0f8H
	DB	0fcH
	DB	0f8H
	DB	00H
	DB	0f8H
	DB	0fcH
	DB	0f8H
	DB	00H
	DB	0f8H
	DB	0fcH
	DB	0f8H
	DB	00H
	DB	0f8H
	DB	0fcH
	DB	0f8H
	DB	00H
	DB	0f8H
	DB	0fcH
	DB	0f8H
	DB	00H
	DB	0f8H
	DB	0fcH
	DB	0f8H
	DB	00H
	DB	0f8H
	DB	0fcH
	DB	0f8H
	DB	00H
	DB	0f8H
	DB	0fcH
	DB	0f8H
	DB	00H
	DB	0f8H
	DB	0fcH
	DB	0f8H
	DB	00H
	DB	0f8H
	DB	0fcH
	DB	0f8H
	DB	00H
	DB	0f8H
	DB	0fcH
	DB	0f8H
	DB	00H
	DB	0f8H
	DB	0fcH
	DB	0f8H
	DB	00H
	DB	0f8H
	DB	0fcH
	DB	0f8H
	DB	00H
	DB	0f8H
	DB	0fcH
	DB	0f8H
	DB	00H
	DB	0f8H
	DB	0fcH
	DB	0f8H
	DB	00H
	DB	0f8H
	DB	0fcH
	DB	0f8H
	DB	00H
	DB	0f8H
	DB	0fcH
	DB	0f8H
	DB	00H
	DB	0f8H
	DB	0fcH
	DB	0f8H
	DB	00H
	DB	0f8H
	DB	0fcH
	DB	0f8H
	DB	00H
	DB	0f8H
	DB	0fcH
	DB	0f8H
	DB	00H
	DB	0f8H
	DB	0fcH
	DB	0f8H
	DB	00H
	DB	0f8H
	DB	0fcH
	DB	0f8H
	DB	00H
	DB	0f8H
	DB	0fcH
	DB	0f8H
	DB	00H
	DB	0f8H
	DB	0fcH
	DB	0f8H
	DB	00H
	DB	0f8H
	DB	0fcH
	DB	0f8H
	DB	00H
	DB	0f8H
	DB	0fcH
	DB	0f8H
	DB	00H
	DB	0f8H
	DB	0fcH
	DB	0f8H
	DB	00H
	DB	0f8H
	DB	0fcH
	DB	0f8H
	DB	00H
	DB	0f8H
	DB	0fcH
	DB	0f8H
	DB	00H
	DB	0f8H
	DB	0fcH
	DB	0f8H
	DB	00H
	DB	0f8H
	DB	0fcH
	DB	0f8H
	DB	00H
	DB	0f8H
	DB	0fcH
	DB	0f8H
	DB	00H
	DB	0f8H
	DB	0fcH
	DB	0f8H
	DB	00H
	DB	0d0H
	DB	0b0H
	DB	088H
	DB	00H
	DB	0c8H
	DB	0b0H
	DB	090H
	DB	00H
	DB	0d0H
	DB	0b4H
	DB	088H
	DB	00H
	DB	0c8H
	DB	0b0H
	DB	090H
	DB	00H
	DB	0d0H
	DB	0b0H
	DB	088H
	DB	00H
	DB	0d0H
	DB	0b4H
	DB	088H
	DB	00H
	DB	0d0H
	DB	0b4H
	DB	090H
	DB	00H
	DB	0d0H
	DB	0b0H
	DB	088H
	DB	00H
	DB	0d0H
	DB	0b4H
	DB	090H
	DB	00H
	DB	0d0H
	DB	0b0H
	DB	088H
	DB	00H
	DB	0d0H
	DB	0b0H
	DB	088H
	DB	00H
	DB	0d0H
	DB	0b0H
	DB	090H
	DB	00H
	DB	0d0H
	DB	0b4H
	DB	088H
	DB	020H
	DB	0c8H
	DB	0b0H
	DB	090H
	DB	069H
	DB	0d0H
	DB	0b0H
	DB	088H
	DB	0aeH
	DB	0d0H
	DB	0b0H
	DB	090H
	DB	0e3H
	DB	0c8H
	DB	0b4H
	DB	088H
	DB	0f7H
	DB	0d0H
	DB	0b0H
	DB	088H
	DB	0ffH
	DB	0d0H
	DB	0b0H
	DB	090H
	DB	0ffH
	DB	0d0H
	DB	0b0H
	DB	088H
	DB	0ffH
	DB	0c8H
	DB	0b4H
	DB	090H
	DB	0ffH
	DB	0d0H
	DB	0b0H
	DB	088H
	DB	0ffH
	DB	0d0H
	DB	0b0H
	DB	088H
	DB	0ffH
	DB	0d0H
	DB	0b0H
	DB	090H
	DB	0ffH
	DB	0c8H
	DB	0b4H
	DB	088H
	DB	0ffH
	DB	0d0H
	DB	0b0H
	DB	088H
	DB	0ffH
	DB	0d0H
	DB	0b0H
	DB	090H
	DB	0ffH
	DB	0d0H
	DB	0b4H
	DB	088H
	DB	0ffH
	DB	0d0H
	DB	0b0H
	DB	088H
	DB	0ffH
	DB	0d0H
	DB	0b0H
	DB	090H
	DB	0ffH
	DB	0c8H
	DB	0b4H
	DB	088H
	DB	0ffH
	DB	0d0H
	DB	0b0H
	DB	088H
	DB	0ffH
	DB	0d0H
	DB	0b4H
	DB	090H
	DB	0ffH
	DB	0d0H
	DB	0b0H
	DB	088H
	DB	0ffH
	DB	0c8H
	DB	0b0H
	DB	088H
	DB	0ffH
	DB	0d0H
	DB	0b0H
	DB	090H
	DB	0ffH
	DB	0d0H
	DB	0b4H
	DB	088H
	DB	0ffH
	DB	0c8H
	DB	0b0H
	DB	088H
	DB	0ffH
	DB	0d0H
	DB	0b0H
	DB	090H
	DB	0ffH
	DB	0d0H
	DB	0b4H
	DB	088H
	DB	0ffH
	DB	0c8H
	DB	0b0H
	DB	088H
	DB	0ffH
	DB	0d0H
	DB	0b0H
	DB	090H
	DB	0ffH
	DB	0d0H
	DB	0b4H
	DB	088H
	DB	0ffH
	DB	0d0H
	DB	0b0H
	DB	088H
	DB	0ffH
	DB	0c8H
	DB	0b0H
	DB	090H
	DB	0ffH
	DB	0d0H
	DB	0b4H
	DB	088H
	DB	0ffH
	DB	0d0H
	DB	0b0H
	DB	088H
	DB	0ffH
	DB	0c8H
	DB	0b0H
	DB	090H
	DB	0ffH
	DB	0d0H
	DB	0b4H
	DB	088H
	DB	0ffH
	DB	0c8H
	DB	0b0H
	DB	088H
	DB	0ffH
	DB	0d0H
	DB	0b0H
	DB	090H
	DB	0ffH
	DB	0c8H
	DB	0b4H
	DB	088H
	DB	0ffH
	DB	0d0H
	DB	0b0H
	DB	088H
	DB	0ffH
	DB	0c8H
	DB	0b4H
	DB	090H
	DB	0ffH
	DB	0c8H
	DB	0b0H
	DB	088H
	DB	0ffH
	DB	0d0H
	DB	0b4H
	DB	088H
	DB	0ffH
	DB	0c8H
	DB	0b0H
	DB	090H
	DB	0ffH
	DB	0c8H
	DB	0b0H
	DB	088H
	DB	0ffH
	DB	0d0H
	DB	0b4H
	DB	088H
	DB	0ffH
	DB	0c8H
	DB	0b0H
	DB	090H
	DB	0ffH
	DB	0c8H
	DB	0b0H
	DB	088H
	DB	0ffH
	DB	0d0H
	DB	0b4H
	DB	088H
	DB	0ffH
	DB	0c8H
	DB	0b0H
	DB	090H
	DB	0ffH
	DB	0c8H
	DB	0b0H
	DB	088H
	DB	0ffH
	DB	0d0H
	DB	0b4H
	DB	088H
	DB	0ffH
	DB	0c8H
	DB	0b0H
	DB	090H
	DB	0ffH
	DB	0c8H
	DB	0b0H
	DB	088H
	DB	0ffH
	DB	0d0H
	DB	0b4H
	DB	088H
	DB	0ffH
	DB	0c8H
	DB	0b0H
	DB	090H
	DB	0ffH
	DB	0c8H
	DB	0b0H
	DB	088H
	DB	0ffH
	DB	0d0H
	DB	0b4H
	DB	090H
	DB	0ffH
	DB	0c8H
	DB	0b0H
	DB	088H
	DB	0ffH
	DB	0d0H
	DB	0b0H
	DB	088H
	DB	0ffH
	DB	0d0H
	DB	0b4H
	DB	090H
	DB	0ffH
	DB	0c8H
	DB	0b0H
	DB	088H
	DB	0ffH
	DB	0d0H
	DB	0b0H
	DB	090H
	DB	0ffH
	DB	0d0H
	DB	0b4H
	DB	088H
	DB	0ffH
	DB	0d0H
	DB	0b0H
	DB	088H
	DB	0ffH
	DB	0d0H
	DB	0b0H
	DB	090H
	DB	0ffH
	DB	0d0H
	DB	0b4H
	DB	088H
	DB	0ffH
	DB	0d0H
	DB	0b0H
	DB	090H
	DB	0ffH
	DB	0d0H
	DB	0b0H
	DB	088H
	DB	0ffH
	DB	0d0H
	DB	0b4H
	DB	090H
	DB	0f7H
	DB	0c8H
	DB	0b0H
	DB	088H
	DB	0ebH
	DB	0d0H
	DB	0b0H
	DB	090H
	DB	0cbH
	DB	0d0H
	DB	0b4H
	DB	088H
	DB	0a6H
	DB	0c8H
	DB	0b0H
	DB	090H
	DB	069H
	DB	0d0H
	DB	0b0H
	DB	088H
	DB	020H
	DB	0f8H
	DB	0fcH
	DB	0f8H
	DB	00H
	DB	0f8H
	DB	0fcH
	DB	0f8H
	DB	00H
	DB	0f8H
	DB	0fcH
	DB	0f8H
	DB	00H
	DB	0f8H
	DB	0fcH
	DB	0f8H
	DB	00H
	DB	0f8H
	DB	0fcH
	DB	0f8H
	DB	00H
	DB	0f8H
	DB	0fcH
	DB	0f8H
	DB	00H
	DB	0f8H
	DB	0fcH
	DB	0f8H
	DB	00H
	DB	0f8H
	DB	0fcH
	DB	0f8H
	DB	00H
	DB	0f8H
	DB	0fcH
	DB	0f8H
	DB	00H
	DB	0f8H
	DB	0fcH
	DB	0f8H
	DB	00H
	DB	0f8H
	DB	0fcH
	DB	0f8H
	DB	00H
	DB	0f8H
	DB	0fcH
	DB	0f8H
	DB	00H
	DB	0d0H
	DB	0b0H
	DB	088H
	DB	00H
	DB	0d0H
	DB	0b0H
	DB	090H
	DB	00H
	DB	0d0H
	DB	0b0H
	DB	088H
	DB	00H
	DB	0c8H
	DB	0b4H
	DB	088H
	DB	00H
	DB	0d0H
	DB	0b0H
	DB	090H
	DB	00H
	DB	0d0H
	DB	0b0H
	DB	088H
	DB	00H
	DB	0c8H
	DB	0b0H
	DB	088H
	DB	00H
	DB	0d0H
	DB	0b0H
	DB	090H
	DB	00H
	DB	0c8H
	DB	0b4H
	DB	088H
	DB	00H
	DB	0d0H
	DB	0b0H
	DB	090H
	DB	04H
	DB	0c8H
	DB	0b0H
	DB	088H
	DB	059H
	DB	0d0H
	DB	0b0H
	DB	088H
	DB	0c7H
	DB	0d0H
	DB	0b0H
	DB	090H
	DB	0ffH
	DB	0d0H
	DB	0b4H
	DB	088H
	DB	0ffH
	DB	0c8H
	DB	0b0H
	DB	088H
	DB	0ffH
	DB	0d0H
	DB	0b0H
	DB	090H
	DB	0ffH
	DB	0d0H
	DB	0b0H
	DB	088H
	DB	0ffH
	DB	0d0H
	DB	0b4H
	DB	090H
	DB	0ffH
	DB	0d0H
	DB	0b0H
	DB	088H
	DB	0ffH
	DB	0c8H
	DB	0b0H
	DB	088H
	DB	0ffH
	DB	0d0H
	DB	0b0H
	DB	090H
	DB	0ffH
	DB	0d0H
	DB	0b4H
	DB	088H
	DB	0ffH
	DB	0d0H
	DB	0b0H
	DB	090H
	DB	0ffH
	DB	0c8H
	DB	0b0H
	DB	090H
	DB	0ffH
	DB	0d0H
	DB	0b0H
	DB	088H
	DB	0ffH
	DB	0d0H
	DB	0b4H
	DB	090H
	DB	0ffH
	DB	0c8H
	DB	0b0H
	DB	088H
	DB	0ffH
	DB	0d0H
	DB	0b0H
	DB	090H
	DB	0ffH
	DB	0d0H
	DB	0b0H
	DB	088H
	DB	0ffH
	DB	0c8H
	DB	0b0H
	DB	090H
	DB	0ffH
	DB	0d0H
	DB	0b0H
	DB	088H
	DB	0ffH
	DB	0d0H
	DB	0b4H
	DB	090H
	DB	0ffH
	DB	0d0H
	DB	0b0H
	DB	088H
	DB	0ffH
	DB	0c8H
	DB	0b0H
	DB	090H
	DB	0ffH
	DB	0d0H
	DB	0b4H
	DB	088H
	DB	0ffH
	DB	0d0H
	DB	0b0H
	DB	090H
	DB	0ffH
	DB	0d0H
	DB	0b0H
	DB	088H
	DB	0ffH
	DB	0c8H
	DB	0b0H
	DB	088H
	DB	0ffH
	DB	0d0H
	DB	0b0H
	DB	090H
	DB	0ffH
	DB	0d0H
	DB	0b4H
	DB	088H
	DB	0ffH
	DB	0d0H
	DB	0b0H
	DB	088H
	DB	0ffH
	DB	0c8H
	DB	0b0H
	DB	090H
	DB	0ffH
	DB	0d0H
	DB	0b0H
	DB	088H
	DB	0ffH
	DB	0d0H
	DB	0b0H
	DB	088H
	DB	0ffH
	DB	0d0H
	DB	0b4H
	DB	090H
	DB	0ffH
	DB	0d0H
	DB	0b0H
	DB	088H
	DB	0ffH
	DB	0d0H
	DB	0b0H
	DB	088H
	DB	0ffH
	DB	0d0H
	DB	0b0H
	DB	090H
	DB	0ffH
	DB	0d0H
	DB	0b4H
	DB	088H
	DB	0ffH
	DB	0d0H
	DB	0b0H
	DB	088H
	DB	0ffH
	DB	0d0H
	DB	0b0H
	DB	090H
	DB	0ffH
	DB	0d0H
	DB	0b0H
	DB	088H
	DB	0ffH
	DB	0d0H
	DB	0b0H
	DB	088H
	DB	0ffH
	DB	0d0H
	DB	0b0H
	DB	090H
	DB	0ffH
	DB	0d0H
	DB	0b0H
	DB	088H
	DB	0ffH
	DB	0d0H
	DB	0b0H
	DB	088H
	DB	0ffH
	DB	0d0H
	DB	0b4H
	DB	090H
	DB	0ffH
	DB	0d0H
	DB	0b0H
	DB	088H
	DB	0ffH
	DB	0d0H
	DB	0b0H
	DB	088H
	DB	0ffH
	DB	0d0H
	DB	0b4H
	DB	090H
	DB	0ffH
	DB	0d0H
	DB	0b0H
	DB	088H
	DB	0ffH
	DB	0d0H
	DB	0b0H
	DB	088H
	DB	0ffH
	DB	0d0H
	DB	0b4H
	DB	090H
	DB	0ffH
	DB	0d0H
	DB	0b0H
	DB	088H
	DB	0ffH
	DB	0d0H
	DB	0b0H
	DB	090H
	DB	0ffH
	DB	0d0H
	DB	0b0H
	DB	088H
	DB	0ffH
	DB	0d0H
	DB	0b4H
	DB	090H
	DB	0ffH
	DB	0d0H
	DB	0b0H
	DB	088H
	DB	0ffH
	DB	0d0H
	DB	0b0H
	DB	088H
	DB	0ffH
	DB	0d0H
	DB	0b0H
	DB	090H
	DB	0ffH
	DB	0d0H
	DB	0b4H
	DB	088H
	DB	0ffH
	DB	0d0H
	DB	0b0H
	DB	090H
	DB	0ffH
	DB	0c8H
	DB	0b0H
	DB	088H
	DB	0ffH
	DB	0d0H
	DB	0b4H
	DB	088H
	DB	0ffH
	DB	0d0H
	DB	0b0H
	DB	090H
	DB	0ffH
	DB	0c8H
	DB	0b0H
	DB	088H
	DB	0ffH
	DB	0d0H
	DB	0b4H
	DB	090H
	DB	0ffH
	DB	0c8H
	DB	0b0H
	DB	088H
	DB	0ffH
	DB	0d0H
	DB	0b0H
	DB	088H
	DB	0ffH
	DB	0c8H
	DB	0b0H
	DB	090H
	DB	0ffH
	DB	0c8H
	DB	0b0H
	DB	088H
	DB	0ffH
	DB	0d0H
	DB	0b0H
	DB	088H
	DB	0ffH
	DB	0d0H
	DB	0b4H
	DB	088H
	DB	0ffH
	DB	0d0H
	DB	0b0H
	DB	090H
	DB	0ffH
	DB	0d0H
	DB	0b0H
	DB	088H
	DB	0ffH
	DB	0d0H
	DB	0b0H
	DB	088H
	DB	0ffH
	DB	0d0H
	DB	0b0H
	DB	090H
	DB	0ffH
	DB	0d0H
	DB	0b4H
	DB	088H
	DB	0ffH
	DB	0c8H
	DB	0b0H
	DB	090H
	DB	0c3H
	DB	0d0H
	DB	0b0H
	DB	088H
	DB	059H
	DB	0d0H
	DB	0b0H
	DB	090H
	DB	04H
	DB	0f8H
	DB	0fcH
	DB	0f8H
	DB	00H
	DB	0f8H
	DB	0fcH
	DB	0f8H
	DB	00H
	DB	0f8H
	DB	0fcH
	DB	0f8H
	DB	00H
	DB	0f8H
	DB	0fcH
	DB	0f8H
	DB	00H
	DB	0f8H
	DB	0fcH
	DB	0f8H
	DB	00H
	DB	0f8H
	DB	0fcH
	DB	0f8H
	DB	00H
	DB	0f8H
	DB	0fcH
	DB	0f8H
	DB	00H
	DB	0f8H
	DB	0fcH
	DB	0f8H
	DB	00H
	DB	0f8H
	DB	0fcH
	DB	0f8H
	DB	00H
	DB	0d0H
	DB	0b0H
	DB	088H
	DB	00H
	DB	0d0H
	DB	0b0H
	DB	088H
	DB	00H
	DB	0d0H
	DB	0b0H
	DB	090H
	DB	00H
	DB	0d0H
	DB	0b0H
	DB	088H
	DB	00H
	DB	0b8H
	DB	08cH
	DB	058H
	DB	00H
	DB	0b8H
	DB	08cH
	DB	050H
	DB	00H
	DB	0c0H
	DB	08cH
	DB	058H
	DB	00H
	DB	0b8H
	DB	08cH
	DB	050H
	DB	00H
	DB	0d0H
	DB	0b0H
	DB	088H
	DB	045H
	DB	0d0H
	DB	0b0H
	DB	090H
	DB	0d7H
	DB	0d0H
	DB	0b4H
	DB	088H
	DB	0ffH
	DB	0c8H
	DB	0b0H
	DB	088H
	DB	0ffH
	DB	0d0H
	DB	0b0H
	DB	090H
	DB	0ffH
	DB	0d0H
	DB	0b0H
	DB	088H
	DB	0ffH
	DB	0d0H
	DB	0b4H
	DB	088H
	DB	0ffH
	DB	0c8H
	DB	0b0H
	DB	090H
	DB	0ffH
	DB	0d0H
	DB	0b0H
	DB	088H
	DB	0ffH
	DB	0d0H
	DB	0b0H
	DB	088H
	DB	0ffH
	DB	0c8H
	DB	0b4H
	DB	090H
	DB	0ffH
	DB	0d0H
	DB	0b0H
	DB	088H
	DB	0ffH
	DB	0d0H
	DB	0b0H
	DB	088H
	DB	0ffH
	DB	0d0H
	DB	0b0H
	DB	090H
	DB	0ffH
	DB	0c8H
	DB	0b4H
	DB	088H
	DB	0ffH
	DB	0d0H
	DB	0b0H
	DB	088H
	DB	0ffH
	DB	0d0H
	DB	0b0H
	DB	088H
	DB	0ffH
	DB	0d0H
	DB	0b0H
	DB	088H
	DB	0ffH
	DB	0d0H
	DB	0c0H
	DB	0a0H
	DB	0ffH
	DB	0f0H
	DB	0ecH
	DB	0e0H
	DB	0ffH
	DB	0f8H
	DB	0fcH
	DB	0f8H
	DB	0ffH
	DB	0f8H
	DB	0fcH
	DB	0f8H
	DB	0ffH
	DB	0f8H
	DB	0fcH
	DB	0f8H
	DB	0ffH
	DB	0f8H
	DB	0fcH
	DB	0f8H
	DB	0ffH
	DB	0f8H
	DB	0fcH
	DB	0f8H
	DB	0ffH
	DB	0f8H
	DB	0fcH
	DB	0f8H
	DB	0ffH
	DB	0f8H
	DB	0fcH
	DB	0f8H
	DB	0ffH
	DB	0f8H
	DB	0fcH
	DB	0f8H
	DB	0ffH
	DB	0f8H
	DB	0fcH
	DB	0f8H
	DB	0ffH
	DB	0f8H
	DB	0fcH
	DB	0f8H
	DB	0ffH
	DB	0f8H
	DB	0fcH
	DB	0f8H
	DB	0ffH
	DB	0f8H
	DB	0fcH
	DB	0f8H
	DB	0ffH
	DB	0f8H
	DB	0fcH
	DB	0f8H
	DB	0ffH
	DB	0f8H
	DB	0fcH
	DB	0f8H
	DB	0ffH
	DB	0f8H
	DB	0fcH
	DB	0f8H
	DB	0ffH
	DB	0f8H
	DB	0fcH
	DB	0f8H
	DB	0ffH
	DB	0f8H
	DB	0fcH
	DB	0f8H
	DB	0ffH
	DB	0f8H
	DB	0fcH
	DB	0f8H
	DB	0ffH
	DB	0f8H
	DB	0fcH
	DB	0f8H
	DB	0ffH
	DB	0f8H
	DB	0fcH
	DB	0f8H
	DB	0ffH
	DB	0f8H
	DB	0fcH
	DB	0f8H
	DB	0ffH
	DB	0f8H
	DB	0fcH
	DB	0f8H
	DB	0ffH
	DB	0f8H
	DB	0fcH
	DB	0f8H
	DB	0ffH
	DB	0f8H
	DB	0fcH
	DB	0f8H
	DB	0ffH
	DB	0f8H
	DB	0fcH
	DB	0f8H
	DB	0ffH
	DB	0f8H
	DB	0fcH
	DB	0f8H
	DB	0ffH
	DB	0f8H
	DB	0fcH
	DB	0f8H
	DB	0ffH
	DB	0f8H
	DB	0fcH
	DB	0f8H
	DB	0ffH
	DB	0f8H
	DB	0fcH
	DB	0f8H
	DB	0ffH
	DB	0f8H
	DB	0fcH
	DB	0f8H
	DB	0ffH
	DB	0f8H
	DB	0fcH
	DB	0f8H
	DB	0ffH
	DB	0f8H
	DB	0fcH
	DB	0f8H
	DB	0ffH
	DB	0f8H
	DB	0fcH
	DB	0f8H
	DB	0ffH
	DB	0f8H
	DB	0fcH
	DB	0f8H
	DB	0ffH
	DB	0f8H
	DB	0fcH
	DB	0f8H
	DB	0ffH
	DB	0f8H
	DB	0fcH
	DB	0f8H
	DB	0ffH
	DB	0f8H
	DB	0fcH
	DB	0f8H
	DB	0ffH
	DB	0f8H
	DB	0fcH
	DB	0f8H
	DB	0ffH
	DB	0f8H
	DB	0fcH
	DB	0f8H
	DB	0ffH
	DB	0f8H
	DB	0fcH
	DB	0f8H
	DB	0ffH
	DB	0f8H
	DB	0fcH
	DB	0f8H
	DB	0ffH
	DB	0f8H
	DB	0fcH
	DB	0f8H
	DB	0ffH
	DB	0f8H
	DB	0fcH
	DB	0f8H
	DB	0ffH
	DB	0f8H
	DB	0fcH
	DB	0f8H
	DB	0ffH
	DB	0f8H
	DB	0fcH
	DB	0f8H
	DB	0ffH
	DB	0f8H
	DB	0fcH
	DB	0f8H
	DB	0ffH
	DB	0f8H
	DB	0fcH
	DB	0f8H
	DB	0ffH
	DB	0f8H
	DB	0fcH
	DB	0f8H
	DB	0ffH
	DB	0f8H
	DB	0fcH
	DB	0f8H
	DB	0ffH
	DB	0f8H
	DB	0fcH
	DB	0f8H
	DB	0ffH
	DB	0f8H
	DB	0fcH
	DB	0f8H
	DB	0ffH
	DB	0f8H
	DB	0fcH
	DB	0f8H
	DB	0ffH
	DB	0f8H
	DB	0fcH
	DB	0f8H
	DB	0ffH
	DB	0f8H
	DB	0fcH
	DB	0f8H
	DB	0ffH
	DB	0f8H
	DB	0fcH
	DB	0f8H
	DB	0ffH
	DB	0f8H
	DB	0f8H
	DB	0f8H
	DB	0ffH
	DB	0f0H
	DB	0f0H
	DB	0e8H
	DB	0ffH
	DB	0e8H
	DB	0e0H
	DB	0d0H
	DB	0ffH
	DB	0e0H
	DB	0ccH
	DB	0b0H
	DB	0ffH
	DB	0d0H
	DB	0b4H
	DB	090H
	DB	0ffH
	DB	0d0H
	DB	0b4H
	DB	088H
	DB	0ffH
	DB	0d0H
	DB	0b0H
	DB	090H
	DB	0ffH
	DB	0c8H
	DB	0b0H
	DB	088H
	DB	0d7H
	DB	0d0H
	DB	0b4H
	DB	088H
	DB	045H
	DB	0f8H
	DB	0fcH
	DB	0f8H
	DB	00H
	DB	0f8H
	DB	0fcH
	DB	0f8H
	DB	00H
	DB	0f8H
	DB	0fcH
	DB	0f8H
	DB	00H
	DB	0f8H
	DB	0fcH
	DB	0f8H
	DB	00H
	DB	0f8H
	DB	0fcH
	DB	0f8H
	DB	00H
	DB	0f8H
	DB	0fcH
	DB	0f8H
	DB	00H
	DB	0f8H
	DB	0fcH
	DB	0f8H
	DB	00H
	DB	0f8H
	DB	0fcH
	DB	0f8H
	DB	00H
	DB	0d0H
	DB	0b0H
	DB	088H
	DB	00H
	DB	0c8H
	DB	0b4H
	DB	090H
	DB	00H
	DB	0d0H
	DB	0b0H
	DB	088H
	DB	00H
	DB	0d0H
	DB	0b0H
	DB	088H
	DB	00H
	DB	0b8H
	DB	08cH
	DB	050H
	DB	00H
	DB	0c0H
	DB	08cH
	DB	058H
	DB	00H
	DB	0d0H
	DB	0b0H
	DB	088H
	DB	08H
	DB	0d0H
	DB	0b0H
	DB	088H
	DB	09aH
	DB	0d0H
	DB	0b0H
	DB	090H
	DB	0ffH
	DB	0d0H
	DB	0b0H
	DB	088H
	DB	0ffH
	DB	0d0H
	DB	0b4H
	DB	090H
	DB	0ffH
	DB	0c8H
	DB	0b0H
	DB	088H
	DB	0ffH
	DB	0d0H
	DB	0b0H
	DB	090H
	DB	0ffH
	DB	0d0H
	DB	0b4H
	DB	088H
	DB	0ffH
	DB	0d0H
	DB	0b0H
	DB	088H
	DB	0ffH
	DB	0d0H
	DB	0b0H
	DB	090H
	DB	0ffH
	DB	0c8H
	DB	0b0H
	DB	088H
	DB	0ffH
	DB	0d0H
	DB	0b0H
	DB	088H
	DB	0ffH
	DB	0d0H
	DB	0b0H
	DB	090H
	DB	0ffH
	DB	0d0H
	DB	0b4H
	DB	088H
	DB	0ffH
	DB	0c8H
	DB	0b0H
	DB	088H
	DB	0ffH
	DB	0d0H
	DB	0b0H
	DB	090H
	DB	0ffH
	DB	0d0H
	DB	0b0H
	DB	088H
	DB	0ffH
	DB	0d0H
	DB	0b4H
	DB	088H
	DB	0ffH
	DB	0d0H
	DB	0b0H
	DB	090H
	DB	0ffH
	DB	0d0H
	DB	0b0H
	DB	088H
	DB	0ffH
	DB	0d0H
	DB	0b0H
	DB	090H
	DB	0ffH
	DB	0d0H
	DB	0b0H
	DB	088H
	DB	0ffH
	DB	0e0H
	DB	0d0H
	DB	0b8H
	DB	0ffH
	DB	0f8H
	DB	0fcH
	DB	0f8H
	DB	0ffH
	DB	0f8H
	DB	0fcH
	DB	0f8H
	DB	0ffH
	DB	0f8H
	DB	0fcH
	DB	0f8H
	DB	0ffH
	DB	0f8H
	DB	0fcH
	DB	0f8H
	DB	0ffH
	DB	0f8H
	DB	0fcH
	DB	0f8H
	DB	0ffH
	DB	0f8H
	DB	0fcH
	DB	0f8H
	DB	0ffH
	DB	0f8H
	DB	0fcH
	DB	0f8H
	DB	0ffH
	DB	0f8H
	DB	0fcH
	DB	0f8H
	DB	0ffH
	DB	0f8H
	DB	0fcH
	DB	0f8H
	DB	0ffH
	DB	0f8H
	DB	0fcH
	DB	0f8H
	DB	0ffH
	DB	0f8H
	DB	0fcH
	DB	0f8H
	DB	0ffH
	DB	0f8H
	DB	0fcH
	DB	0f8H
	DB	0ffH
	DB	0f8H
	DB	0fcH
	DB	0f8H
	DB	0ffH
	DB	0f8H
	DB	0fcH
	DB	0f8H
	DB	0ffH
	DB	0f8H
	DB	0fcH
	DB	0f8H
	DB	0ffH
	DB	0f8H
	DB	0fcH
	DB	0f8H
	DB	0ffH
	DB	0f8H
	DB	0fcH
	DB	0f8H
	DB	0ffH
	DB	0f8H
	DB	0fcH
	DB	0f8H
	DB	0ffH
	DB	0f8H
	DB	0fcH
	DB	0f8H
	DB	0ffH
	DB	0f8H
	DB	0fcH
	DB	0f8H
	DB	0ffH
	DB	0f8H
	DB	0fcH
	DB	0f8H
	DB	0ffH
	DB	0f8H
	DB	0fcH
	DB	0f8H
	DB	0ffH
	DB	0f8H
	DB	0fcH
	DB	0f8H
	DB	0ffH
	DB	0f8H
	DB	0fcH
	DB	0f8H
	DB	0ffH
	DB	0f8H
	DB	0fcH
	DB	0f8H
	DB	0ffH
	DB	0f8H
	DB	0fcH
	DB	0f8H
	DB	0ffH
	DB	0f8H
	DB	0fcH
	DB	0f8H
	DB	0ffH
	DB	0f8H
	DB	0fcH
	DB	0f8H
	DB	0ffH
	DB	0f8H
	DB	0fcH
	DB	0f8H
	DB	0ffH
	DB	0f8H
	DB	0fcH
	DB	0f8H
	DB	0ffH
	DB	0f8H
	DB	0fcH
	DB	0f8H
	DB	0ffH
	DB	0f8H
	DB	0fcH
	DB	0f8H
	DB	0ffH
	DB	0f8H
	DB	0fcH
	DB	0f8H
	DB	0ffH
	DB	0f8H
	DB	0fcH
	DB	0f8H
	DB	0ffH
	DB	0f8H
	DB	0fcH
	DB	0f8H
	DB	0ffH
	DB	0f8H
	DB	0fcH
	DB	0f8H
	DB	0ffH
	DB	0f8H
	DB	0fcH
	DB	0f8H
	DB	0ffH
	DB	0f8H
	DB	0fcH
	DB	0f8H
	DB	0ffH
	DB	0f8H
	DB	0fcH
	DB	0f8H
	DB	0ffH
	DB	0f8H
	DB	0fcH
	DB	0f8H
	DB	0ffH
	DB	0f8H
	DB	0fcH
	DB	0f8H
	DB	0ffH
	DB	0f8H
	DB	0fcH
	DB	0f8H
	DB	0ffH
	DB	0f8H
	DB	0fcH
	DB	0f8H
	DB	0ffH
	DB	0f8H
	DB	0fcH
	DB	0f8H
	DB	0ffH
	DB	0f8H
	DB	0fcH
	DB	0f8H
	DB	0ffH
	DB	0f8H
	DB	0fcH
	DB	0f8H
	DB	0ffH
	DB	0f8H
	DB	0fcH
	DB	0f8H
	DB	0ffH
	DB	0f8H
	DB	0fcH
	DB	0f8H
	DB	0ffH
	DB	0f8H
	DB	0fcH
	DB	0f8H
	DB	0ffH
	DB	0f8H
	DB	0fcH
	DB	0f8H
	DB	0ffH
	DB	0f8H
	DB	0fcH
	DB	0f8H
	DB	0ffH
	DB	0f8H
	DB	0fcH
	DB	0f8H
	DB	0ffH
	DB	0f8H
	DB	0fcH
	DB	0f8H
	DB	0ffH
	DB	0f8H
	DB	0fcH
	DB	0f8H
	DB	0ffH
	DB	0f8H
	DB	0fcH
	DB	0f8H
	DB	0ffH
	DB	0f8H
	DB	0fcH
	DB	0f8H
	DB	0ffH
	DB	0f8H
	DB	0fcH
	DB	0f8H
	DB	0ffH
	DB	0f8H
	DB	0fcH
	DB	0f8H
	DB	0ffH
	DB	0f8H
	DB	0fcH
	DB	0f8H
	DB	0ffH
	DB	0e8H
	DB	0e0H
	DB	0d0H
	DB	0ffH
	DB	0d0H
	DB	0bcH
	DB	0a0H
	DB	0ffH
	DB	0d0H
	DB	0b0H
	DB	088H
	DB	0ffH
	DB	0d0H
	DB	0b0H
	DB	088H
	DB	0ffH
	DB	0d0H
	DB	0b0H
	DB	090H
	DB	09aH
	DB	0c8H
	DB	0b0H
	DB	088H
	DB	08H
	DB	0f8H
	DB	0fcH
	DB	0f8H
	DB	00H
	DB	0f8H
	DB	0fcH
	DB	0f8H
	DB	00H
	DB	0f8H
	DB	0fcH
	DB	0f8H
	DB	00H
	DB	0f8H
	DB	0fcH
	DB	0f8H
	DB	00H
	DB	0f8H
	DB	0fcH
	DB	0f8H
	DB	00H
	DB	0f8H
	DB	0fcH
	DB	0f8H
	DB	00H
	DB	0d0H
	DB	0b0H
	DB	088H
	DB	00H
	DB	0c8H
	DB	0b0H
	DB	090H
	DB	00H
	DB	0d0H
	DB	0b4H
	DB	088H
	DB	00H
	DB	0d0H
	DB	0b0H
	DB	090H
	DB	00H
	DB	0b8H
	DB	08cH
	DB	050H
	DB	00H
	DB	0d0H
	DB	0b0H
	DB	088H
	DB	014H
	DB	0d0H
	DB	0b0H
	DB	090H
	DB	0cbH
	DB	0d0H
	DB	0b0H
	DB	088H
	DB	0ffH
	DB	0c8H
	DB	0b4H
	DB	088H
	DB	0ffH
	DB	0d0H
	DB	0b0H
	DB	090H
	DB	0ffH
	DB	0d0H
	DB	0b0H
	DB	088H
	DB	0ffH
	DB	0d0H
	DB	0b0H
	DB	088H
	DB	0ffH
	DB	0c8H
	DB	0b4H
	DB	090H
	DB	0ffH
	DB	0d0H
	DB	0b0H
	DB	088H
	DB	0ffH
	DB	0d0H
	DB	0b0H
	DB	090H
	DB	0ffH
	DB	0c8H
	DB	0b4H
	DB	088H
	DB	0ffH
	DB	0d0H
	DB	0b0H
	DB	088H
	DB	0ffH
	DB	0c8H
	DB	0b0H
	DB	088H
	DB	0ffH
	DB	0d0H
	DB	0b0H
	DB	088H
	DB	0ffH
	DB	0c8H
	DB	0b0H
	DB	090H
	DB	0ffH
	DB	0d0H
	DB	0b0H
	DB	088H
	DB	0ffH
	DB	0d0H
	DB	0b0H
	DB	088H
	DB	0ffH
	DB	0c8H
	DB	0b0H
	DB	090H
	DB	0ffH
	DB	0d0H
	DB	0b0H
	DB	090H
	DB	0ffH
	DB	0c8H
	DB	0b4H
	DB	088H
	DB	0ffH
	DB	0d0H
	DB	0b0H
	DB	090H
	DB	0ffH
	DB	0d0H
	DB	0b0H
	DB	088H
	DB	0ffH
	DB	0d0H
	DB	0b0H
	DB	088H
	DB	0ffH
	DB	0d0H
	DB	0b4H
	DB	090H
	DB	0ffH
	DB	0d8H
	DB	0c4H
	DB	0a0H
	DB	0ffH
	DB	0f8H
	DB	0f8H
	DB	0f8H
	DB	0ffH
	DB	0f8H
	DB	0fcH
	DB	0f8H
	DB	0ffH
	DB	0f8H
	DB	0fcH
	DB	0f8H
	DB	0ffH
	DB	0f8H
	DB	0fcH
	DB	0f8H
	DB	0ffH
	DB	0f8H
	DB	0fcH
	DB	0f8H
	DB	0ffH
	DB	0f8H
	DB	0fcH
	DB	0f8H
	DB	0ffH
	DB	0f8H
	DB	0fcH
	DB	0f8H
	DB	0ffH
	DB	0f8H
	DB	0fcH
	DB	0f8H
	DB	0ffH
	DB	0f8H
	DB	0fcH
	DB	0f8H
	DB	0ffH
	DB	0f8H
	DB	0fcH
	DB	0f8H
	DB	0ffH
	DB	0f8H
	DB	0fcH
	DB	0f8H
	DB	0ffH
	DB	0f8H
	DB	0fcH
	DB	0f8H
	DB	0ffH
	DB	0f8H
	DB	0fcH
	DB	0f8H
	DB	0ffH
	DB	0f8H
	DB	0fcH
	DB	0f8H
	DB	0ffH
	DB	0f8H
	DB	0fcH
	DB	0f8H
	DB	0ffH
	DB	0f8H
	DB	0fcH
	DB	0f8H
	DB	0ffH
	DB	0f8H
	DB	0fcH
	DB	0f8H
	DB	0ffH
	DB	0f8H
	DB	0fcH
	DB	0f8H
	DB	0ffH
	DB	0f8H
	DB	0fcH
	DB	0f8H
	DB	0ffH
	DB	0f8H
	DB	0fcH
	DB	0f8H
	DB	0ffH
	DB	0f8H
	DB	0fcH
	DB	0f8H
	DB	0ffH
	DB	0f8H
	DB	0fcH
	DB	0f8H
	DB	0ffH
	DB	0f8H
	DB	0fcH
	DB	0f8H
	DB	0ffH
	DB	0f8H
	DB	0fcH
	DB	0f8H
	DB	0ffH
	DB	0f8H
	DB	0fcH
	DB	0f8H
	DB	0ffH
	DB	0f8H
	DB	0fcH
	DB	0f8H
	DB	0ffH
	DB	0f8H
	DB	0fcH
	DB	0f8H
	DB	0ffH
	DB	0f8H
	DB	0fcH
	DB	0f8H
	DB	0ffH
	DB	0f8H
	DB	0fcH
	DB	0f8H
	DB	0ffH
	DB	0f8H
	DB	0fcH
	DB	0f8H
	DB	0ffH
	DB	0f8H
	DB	0fcH
	DB	0f8H
	DB	0ffH
	DB	0f8H
	DB	0fcH
	DB	0f8H
	DB	0ffH
	DB	0f8H
	DB	0fcH
	DB	0f8H
	DB	0ffH
	DB	0f8H
	DB	0fcH
	DB	0f8H
	DB	0ffH
	DB	0f8H
	DB	0fcH
	DB	0f8H
	DB	0ffH
	DB	0f8H
	DB	0fcH
	DB	0f8H
	DB	0ffH
	DB	0f8H
	DB	0fcH
	DB	0f8H
	DB	0ffH
	DB	0f8H
	DB	0fcH
	DB	0f8H
	DB	0ffH
	DB	0f8H
	DB	0fcH
	DB	0f8H
	DB	0ffH
	DB	0f8H
	DB	0fcH
	DB	0f8H
	DB	0ffH
	DB	0f8H
	DB	0fcH
	DB	0f8H
	DB	0ffH
	DB	0f8H
	DB	0fcH
	DB	0f8H
	DB	0ffH
	DB	0f8H
	DB	0fcH
	DB	0f8H
	DB	0ffH
	DB	0f8H
	DB	0fcH
	DB	0f8H
	DB	0ffH
	DB	0f8H
	DB	0fcH
	DB	0f8H
	DB	0ffH
	DB	0f8H
	DB	0fcH
	DB	0f8H
	DB	0ffH
	DB	0f8H
	DB	0fcH
	DB	0f8H
	DB	0ffH
	DB	0f8H
	DB	0fcH
	DB	0f8H
	DB	0ffH
	DB	0f8H
	DB	0fcH
	DB	0f8H
	DB	0ffH
	DB	0f8H
	DB	0fcH
	DB	0f8H
	DB	0ffH
	DB	0f8H
	DB	0fcH
	DB	0f8H
	DB	0ffH
	DB	0f8H
	DB	0fcH
	DB	0f8H
	DB	0ffH
	DB	0f8H
	DB	0fcH
	DB	0f8H
	DB	0ffH
	DB	0f8H
	DB	0fcH
	DB	0f8H
	DB	0ffH
	DB	0f8H
	DB	0fcH
	DB	0f8H
	DB	0ffH
	DB	0f8H
	DB	0fcH
	DB	0f8H
	DB	0ffH
	DB	0f8H
	DB	0fcH
	DB	0f8H
	DB	0ffH
	DB	0f8H
	DB	0fcH
	DB	0f8H
	DB	0ffH
	DB	0f8H
	DB	0fcH
	DB	0f8H
	DB	0ffH
	DB	0f8H
	DB	0fcH
	DB	0f8H
	DB	0ffH
	DB	0e8H
	DB	0dcH
	DB	0c8H
	DB	0ffH
	DB	0d0H
	DB	0b4H
	DB	090H
	DB	0ffH
	DB	0d0H
	DB	0b4H
	DB	090H
	DB	0ffH
	DB	0d0H
	DB	0b0H
	DB	088H
	DB	0cbH
	DB	0d0H
	DB	0b0H
	DB	088H
	DB	014H
	DB	0f8H
	DB	0fcH
	DB	0f8H
	DB	00H
	DB	0f8H
	DB	0fcH
	DB	0f8H
	DB	00H
	DB	0f8H
	DB	0fcH
	DB	0f8H
	DB	00H
	DB	0f8H
	DB	0fcH
	DB	0f8H
	DB	00H
	DB	0f8H
	DB	0fcH
	DB	0f8H
	DB	00H
	DB	0d0H
	DB	0b0H
	DB	088H
	DB	00H
	DB	0d0H
	DB	0b0H
	DB	088H
	DB	00H
	DB	0d0H
	DB	0b0H
	DB	090H
	DB	00H
	DB	0d0H
	DB	0b0H
	DB	088H
	DB	00H
	DB	0d0H
	DB	0b0H
	DB	090H
	DB	014H
	DB	0d0H
	DB	0b0H
	DB	088H
	DB	0d7H
	DB	0d0H
	DB	0b4H
	DB	090H
	DB	0ffH
	DB	0c8H
	DB	0b0H
	DB	088H
	DB	0ffH
	DB	0d0H
	DB	0b0H
	DB	088H
	DB	0ffH
	DB	0c8H
	DB	0b4H
	DB	090H
	DB	0ffH
	DB	0d0H
	DB	0b0H
	DB	088H
	DB	0ffH
	DB	0d0H
	DB	0b0H
	DB	088H
	DB	0ffH
	DB	0c8H
	DB	0b0H
	DB	090H
	DB	0ffH
	DB	0d0H
	DB	0b0H
	DB	088H
	DB	0ffH
	DB	0c8H
	DB	0b0H
	DB	088H
	DB	0ffH
	DB	0d0H
	DB	0b0H
	DB	088H
	DB	0ffH
	DB	0c8H
	DB	0b0H
	DB	088H
	DB	0ffH
	DB	0c8H
	DB	0acH
	DB	088H
	DB	0ffH
	DB	0c8H
	DB	0acH
	DB	088H
	DB	0ffH
	DB	0d0H
	DB	0b0H
	DB	088H
	DB	0ffH
	DB	0d0H
	DB	0b0H
	DB	088H
	DB	0ffH
	DB	0c8H
	DB	0b4H
	DB	088H
	DB	0ffH
	DB	0d0H
	DB	0b0H
	DB	088H
	DB	0ffH
	DB	0d0H
	DB	0b0H
	DB	088H
	DB	0ffH
	DB	0d0H
	DB	0b0H
	DB	088H
	DB	0ffH
	DB	0c8H
	DB	0b4H
	DB	090H
	DB	0ffH
	DB	0d0H
	DB	0b0H
	DB	088H
	DB	0ffH
	DB	0c8H
	DB	0b0H
	DB	088H
	DB	0ffH
	DB	0d0H
	DB	0b0H
	DB	090H
	DB	0ffH
	DB	0d0H
	DB	0b0H
	DB	088H
	DB	0ffH
	DB	0d0H
	DB	0bcH
	DB	0a0H
	DB	0ffH
	DB	0f8H
	DB	0f8H
	DB	0f8H
	DB	0ffH
	DB	0f8H
	DB	0fcH
	DB	0f8H
	DB	0ffH
	DB	0f8H
	DB	0fcH
	DB	0f8H
	DB	0ffH
	DB	0f8H
	DB	0fcH
	DB	0f8H
	DB	0ffH
	DB	0f8H
	DB	0fcH
	DB	0f8H
	DB	0ffH
	DB	0f8H
	DB	0fcH
	DB	0f8H
	DB	0ffH
	DB	0f8H
	DB	0fcH
	DB	0f8H
	DB	0ffH
	DB	0f8H
	DB	0fcH
	DB	0f8H
	DB	0ffH
	DB	0f8H
	DB	0fcH
	DB	0f8H
	DB	0ffH
	DB	0f8H
	DB	0fcH
	DB	0f8H
	DB	0ffH
	DB	0f8H
	DB	0fcH
	DB	0f8H
	DB	0ffH
	DB	0f8H
	DB	0fcH
	DB	0f8H
	DB	0ffH
	DB	0f8H
	DB	0fcH
	DB	0f8H
	DB	0ffH
	DB	0f8H
	DB	0fcH
	DB	0f8H
	DB	0ffH
	DB	0f8H
	DB	0fcH
	DB	0f8H
	DB	0ffH
	DB	0f8H
	DB	0fcH
	DB	0f8H
	DB	0ffH
	DB	0f8H
	DB	0fcH
	DB	0f8H
	DB	0ffH
	DB	0f8H
	DB	0fcH
	DB	0f8H
	DB	0ffH
	DB	0f8H
	DB	0fcH
	DB	0f8H
	DB	0ffH
	DB	0f8H
	DB	0fcH
	DB	0f8H
	DB	0ffH
	DB	0f8H
	DB	0fcH
	DB	0f8H
	DB	0ffH
	DB	0f8H
	DB	0fcH
	DB	0f8H
	DB	0ffH
	DB	0f8H
	DB	0fcH
	DB	0f8H
	DB	0ffH
	DB	0f8H
	DB	0fcH
	DB	0f8H
	DB	0ffH
	DB	0f8H
	DB	0fcH
	DB	0f8H
	DB	0ffH
	DB	0f8H
	DB	0fcH
	DB	0f8H
	DB	0ffH
	DB	0f8H
	DB	0fcH
	DB	0f8H
	DB	0ffH
	DB	0f8H
	DB	0fcH
	DB	0f8H
	DB	0ffH
	DB	0f8H
	DB	0fcH
	DB	0f8H
	DB	0ffH
	DB	0f8H
	DB	0fcH
	DB	0f8H
	DB	0ffH
	DB	0f8H
	DB	0fcH
	DB	0f8H
	DB	0ffH
	DB	0f8H
	DB	0fcH
	DB	0f8H
	DB	0ffH
	DB	0f8H
	DB	0fcH
	DB	0f8H
	DB	0ffH
	DB	0f8H
	DB	0fcH
	DB	0f8H
	DB	0ffH
	DB	0f8H
	DB	0fcH
	DB	0f8H
	DB	0ffH
	DB	0f8H
	DB	0fcH
	DB	0f8H
	DB	0ffH
	DB	0f8H
	DB	0fcH
	DB	0f8H
	DB	0ffH
	DB	0f8H
	DB	0fcH
	DB	0f8H
	DB	0ffH
	DB	0f8H
	DB	0fcH
	DB	0f8H
	DB	0ffH
	DB	0f8H
	DB	0fcH
	DB	0f8H
	DB	0ffH
	DB	0f8H
	DB	0fcH
	DB	0f8H
	DB	0ffH
	DB	0f8H
	DB	0fcH
	DB	0f8H
	DB	0ffH
	DB	0f8H
	DB	0fcH
	DB	0f8H
	DB	0ffH
	DB	0f8H
	DB	0fcH
	DB	0f8H
	DB	0ffH
	DB	0f8H
	DB	0fcH
	DB	0f8H
	DB	0ffH
	DB	0f8H
	DB	0fcH
	DB	0f8H
	DB	0ffH
	DB	0f8H
	DB	0fcH
	DB	0f8H
	DB	0ffH
	DB	0f8H
	DB	0fcH
	DB	0f8H
	DB	0ffH
	DB	0f8H
	DB	0fcH
	DB	0f8H
	DB	0ffH
	DB	0f8H
	DB	0fcH
	DB	0f8H
	DB	0ffH
	DB	0f8H
	DB	0fcH
	DB	0f8H
	DB	0ffH
	DB	0f8H
	DB	0fcH
	DB	0f8H
	DB	0ffH
	DB	0f8H
	DB	0fcH
	DB	0f8H
	DB	0ffH
	DB	0f8H
	DB	0fcH
	DB	0f8H
	DB	0ffH
	DB	0f8H
	DB	0fcH
	DB	0f8H
	DB	0ffH
	DB	0f8H
	DB	0fcH
	DB	0f8H
	DB	0ffH
	DB	0f8H
	DB	0fcH
	DB	0f8H
	DB	0ffH
	DB	0f8H
	DB	0fcH
	DB	0f8H
	DB	0ffH
	DB	0f8H
	DB	0fcH
	DB	0f8H
	DB	0ffH
	DB	0f8H
	DB	0fcH
	DB	0f8H
	DB	0ffH
	DB	0f8H
	DB	0f0H
	DB	0e8H
	DB	0ffH
	DB	0d0H
	DB	0bcH
	DB	098H
	DB	0ffH
	DB	0d0H
	DB	0b0H
	DB	090H
	DB	0ffH
	DB	0d0H
	DB	0b4H
	DB	090H
	DB	0d7H
	DB	0c8H
	DB	0b0H
	DB	088H
	DB	014H
	DB	0f8H
	DB	0fcH
	DB	0f8H
	DB	00H
	DB	0f8H
	DB	0fcH
	DB	0f8H
	DB	00H
	DB	0f8H
	DB	0fcH
	DB	0f8H
	DB	00H
	DB	0f8H
	DB	0fcH
	DB	0f8H
	DB	00H
	DB	0d0H
	DB	0b0H
	DB	088H
	DB	00H
	DB	0d0H
	DB	0b0H
	DB	090H
	DB	00H
	DB	0c8H
	DB	0b4H
	DB	088H
	DB	00H
	DB	0d0H
	DB	0b0H
	DB	088H
	DB	08H
	DB	0d0H
	DB	0b0H
	DB	090H
	DB	0c7H
	DB	0c8H
	DB	0b4H
	DB	088H
	DB	0ffH
	DB	0d0H
	DB	0b0H
	DB	088H
	DB	0ffH
	DB	0d0H
	DB	0b0H
	DB	090H
	DB	0ffH
	DB	0d0H
	DB	0b0H
	DB	088H
	DB	0ffH
	DB	0d0H
	DB	0b0H
	DB	090H
	DB	0ffH
	DB	0d0H
	DB	0b4H
	DB	088H
	DB	0ffH
	DB	0d0H
	DB	0b0H
	DB	090H
	DB	0ffH
	DB	0d0H
	DB	0b0H
	DB	088H
	DB	0ffH
	DB	0d0H
	DB	0b4H
	DB	088H
	DB	0ffH
	DB	0c8H
	DB	0b0H
	DB	088H
	DB	0ffH
	DB	0c8H
	DB	0acH
	DB	088H
	DB	0ffH
	DB	0c8H
	DB	0a8H
	DB	080H
	DB	0ffH
	DB	0c8H
	DB	0a8H
	DB	080H
	DB	0ffH
	DB	0c8H
	DB	0a8H
	DB	080H
	DB	0ffH
	DB	0c8H
	DB	0a8H
	DB	080H
	DB	0ffH
	DB	0c8H
	DB	0acH
	DB	088H
	DB	0ffH
	DB	0c8H
	DB	0b0H
	DB	088H
	DB	0ffH
	DB	0d0H
	DB	0b0H
	DB	090H
	DB	0ffH
	DB	0d0H
	DB	0b0H
	DB	088H
	DB	0ffH
	DB	0d0H
	DB	0b4H
	DB	090H
	DB	0ffH
	DB	0d0H
	DB	0b0H
	DB	088H
	DB	0ffH
	DB	0c8H
	DB	0b0H
	DB	088H
	DB	0ffH
	DB	0d0H
	DB	0b4H
	DB	090H
	DB	0ffH
	DB	0d0H
	DB	0b0H
	DB	088H
	DB	0ffH
	DB	0d0H
	DB	0b0H
	DB	088H
	DB	0ffH
	DB	0d0H
	DB	0b4H
	DB	088H
	DB	0ffH
	DB	0d8H
	DB	0c4H
	DB	0a8H
	DB	0ffH
	DB	0f8H
	DB	0fcH
	DB	0f8H
	DB	0ffH
	DB	0f8H
	DB	0fcH
	DB	0f8H
	DB	0ffH
	DB	0f8H
	DB	0fcH
	DB	0f8H
	DB	0ffH
	DB	0f8H
	DB	0fcH
	DB	0f8H
	DB	0ffH
	DB	0f8H
	DB	0fcH
	DB	0f8H
	DB	0ffH
	DB	0f8H
	DB	0fcH
	DB	0f8H
	DB	0ffH
	DB	0f8H
	DB	0fcH
	DB	0f8H
	DB	0ffH
	DB	0f8H
	DB	0fcH
	DB	0f8H
	DB	0ffH
	DB	0f8H
	DB	0fcH
	DB	0f8H
	DB	0ffH
	DB	0f8H
	DB	0fcH
	DB	0f8H
	DB	0ffH
	DB	0f8H
	DB	0fcH
	DB	0f8H
	DB	0ffH
	DB	0f8H
	DB	0fcH
	DB	0f8H
	DB	0ffH
	DB	0f8H
	DB	0fcH
	DB	0f8H
	DB	0ffH
	DB	0f8H
	DB	0fcH
	DB	0f8H
	DB	0ffH
	DB	0f8H
	DB	0fcH
	DB	0f8H
	DB	0ffH
	DB	0f8H
	DB	0fcH
	DB	0f8H
	DB	0ffH
	DB	0f8H
	DB	0fcH
	DB	0f8H
	DB	0ffH
	DB	0f8H
	DB	0fcH
	DB	0f8H
	DB	0ffH
	DB	0f8H
	DB	0fcH
	DB	0f8H
	DB	0ffH
	DB	0f8H
	DB	0fcH
	DB	0f8H
	DB	0ffH
	DB	0f8H
	DB	0fcH
	DB	0f8H
	DB	0ffH
	DB	0f8H
	DB	0fcH
	DB	0f8H
	DB	0ffH
	DB	0f8H
	DB	0fcH
	DB	0f8H
	DB	0ffH
	DB	0f8H
	DB	0fcH
	DB	0f8H
	DB	0ffH
	DB	0f8H
	DB	0fcH
	DB	0f8H
	DB	0ffH
	DB	0f8H
	DB	0fcH
	DB	0f8H
	DB	0ffH
	DB	0f8H
	DB	0fcH
	DB	0f8H
	DB	0ffH
	DB	0f8H
	DB	0fcH
	DB	0f8H
	DB	0ffH
	DB	0f8H
	DB	0fcH
	DB	0f8H
	DB	0ffH
	DB	0f8H
	DB	0fcH
	DB	0f8H
	DB	0ffH
	DB	0f8H
	DB	0fcH
	DB	0f8H
	DB	0ffH
	DB	0f8H
	DB	0fcH
	DB	0f8H
	DB	0ffH
	DB	0f8H
	DB	0fcH
	DB	0f8H
	DB	0ffH
	DB	0f8H
	DB	0fcH
	DB	0f8H
	DB	0ffH
	DB	0f8H
	DB	0fcH
	DB	0f8H
	DB	0ffH
	DB	0f8H
	DB	0fcH
	DB	0f8H
	DB	0ffH
	DB	0f8H
	DB	0fcH
	DB	0f8H
	DB	0ffH
	DB	0f8H
	DB	0fcH
	DB	0f8H
	DB	0ffH
	DB	0f8H
	DB	0fcH
	DB	0f8H
	DB	0ffH
	DB	0f8H
	DB	0fcH
	DB	0f8H
	DB	0ffH
	DB	0f8H
	DB	0fcH
	DB	0f8H
	DB	0ffH
	DB	0f8H
	DB	0fcH
	DB	0f8H
	DB	0ffH
	DB	0f8H
	DB	0fcH
	DB	0f8H
	DB	0ffH
	DB	0f8H
	DB	0fcH
	DB	0f8H
	DB	0ffH
	DB	0f8H
	DB	0fcH
	DB	0f8H
	DB	0ffH
	DB	0f8H
	DB	0fcH
	DB	0f8H
	DB	0ffH
	DB	0f8H
	DB	0fcH
	DB	0f8H
	DB	0ffH
	DB	0f8H
	DB	0fcH
	DB	0f8H
	DB	0ffH
	DB	0f8H
	DB	0fcH
	DB	0f8H
	DB	0ffH
	DB	0f8H
	DB	0fcH
	DB	0f8H
	DB	0ffH
	DB	0f8H
	DB	0fcH
	DB	0f8H
	DB	0ffH
	DB	0f8H
	DB	0fcH
	DB	0f8H
	DB	0ffH
	DB	0f8H
	DB	0fcH
	DB	0f8H
	DB	0ffH
	DB	0f8H
	DB	0fcH
	DB	0f8H
	DB	0ffH
	DB	0f8H
	DB	0fcH
	DB	0f8H
	DB	0ffH
	DB	0f8H
	DB	0fcH
	DB	0f8H
	DB	0ffH
	DB	0f8H
	DB	0fcH
	DB	0f8H
	DB	0ffH
	DB	0f8H
	DB	0fcH
	DB	0f8H
	DB	0ffH
	DB	0f8H
	DB	0fcH
	DB	0f8H
	DB	0ffH
	DB	0f8H
	DB	0fcH
	DB	0f8H
	DB	0ffH
	DB	0f8H
	DB	0f8H
	DB	0f8H
	DB	0ffH
	DB	0d8H
	DB	0c0H
	DB	0a0H
	DB	0ffH
	DB	0d0H
	DB	0b0H
	DB	088H
	DB	0ffH
	DB	0d0H
	DB	0b0H
	DB	088H
	DB	0c7H
	DB	0d0H
	DB	0b0H
	DB	090H
	DB	0cH
	DB	0f8H
	DB	0fcH
	DB	0f8H
	DB	00H
	DB	0f8H
	DB	0fcH
	DB	0f8H
	DB	00H
	DB	0f8H
	DB	0fcH
	DB	0f8H
	DB	00H
	DB	0d0H
	DB	0b0H
	DB	088H
	DB	00H
	DB	0c8H
	DB	0b0H
	DB	090H
	DB	00H
	DB	0d0H
	DB	0b4H
	DB	088H
	DB	00H
	DB	0d0H
	DB	0b0H
	DB	088H
	DB	09aH
	DB	0c8H
	DB	0b0H
	DB	090H
	DB	0ffH
	DB	0d0H
	DB	0b0H
	DB	088H
	DB	0ffH
	DB	0d0H
	DB	0b0H
	DB	088H
	DB	0ffH
	DB	0c8H
	DB	0b4H
	DB	090H
	DB	0ffH
	DB	0d0H
	DB	0b0H
	DB	088H
	DB	0ffH
	DB	0d0H
	DB	0b0H
	DB	088H
	DB	0ffH
	DB	0c8H
	DB	0b0H
	DB	090H
	DB	0ffH
	DB	0d0H
	DB	0b4H
	DB	088H
	DB	0ffH
	DB	0d0H
	DB	0b0H
	DB	090H
	DB	0ffH
	DB	0c8H
	DB	0b0H
	DB	088H
	DB	0ffH
	DB	0c8H
	DB	0acH
	DB	088H
	DB	0ffH
	DB	0c8H
	DB	0a8H
	DB	080H
	DB	0ffH
	DB	0c8H
	DB	0a4H
	DB	080H
	DB	0ffH
	DB	0f0H
	DB	0e8H
	DB	0e0H
	DB	0ffH
	DB	0f0H
	DB	0e8H
	DB	0e0H
	DB	0ffH
	DB	0c8H
	DB	0a4H
	DB	080H
	DB	0ffH
	DB	0c8H
	DB	0a8H
	DB	080H
	DB	0ffH
	DB	0c8H
	DB	0acH
	DB	088H
	DB	0ffH
	DB	0c8H
	DB	0b0H
	DB	088H
	DB	0ffH
	DB	0d0H
	DB	0b0H
	DB	088H
	DB	0ffH
	DB	0d0H
	DB	0b0H
	DB	090H
	DB	0ffH
	DB	0d0H
	DB	0b0H
	DB	088H
	DB	0ffH
	DB	0d0H
	DB	0b0H
	DB	090H
	DB	0ffH
	DB	0d0H
	DB	0b4H
	DB	088H
	DB	0ffH
	DB	0c8H
	DB	0b0H
	DB	090H
	DB	0ffH
	DB	0d0H
	DB	0b0H
	DB	088H
	DB	0ffH
	DB	0d0H
	DB	0b0H
	DB	088H
	DB	0ffH
	DB	0d0H
	DB	0b0H
	DB	088H
	DB	0ffH
	DB	0e0H
	DB	0d0H
	DB	0b8H
	DB	0ffH
	DB	0f8H
	DB	0fcH
	DB	0f8H
	DB	0ffH
	DB	0f8H
	DB	0fcH
	DB	0f8H
	DB	0ffH
	DB	0f8H
	DB	0fcH
	DB	0f8H
	DB	0ffH
	DB	0f8H
	DB	0fcH
	DB	0f8H
	DB	0ffH
	DB	0f8H
	DB	0fcH
	DB	0f8H
	DB	0ffH
	DB	0f8H
	DB	0fcH
	DB	0f8H
	DB	0ffH
	DB	0f8H
	DB	0fcH
	DB	0f8H
	DB	0ffH
	DB	0f8H
	DB	0fcH
	DB	0f8H
	DB	0ffH
	DB	0f8H
	DB	0fcH
	DB	0f8H
	DB	0ffH
	DB	0f8H
	DB	0fcH
	DB	0f8H
	DB	0ffH
	DB	0f8H
	DB	0fcH
	DB	0f8H
	DB	0ffH
	DB	0f8H
	DB	0fcH
	DB	0f8H
	DB	0ffH
	DB	0f8H
	DB	0fcH
	DB	0f8H
	DB	0ffH
	DB	0f8H
	DB	0fcH
	DB	0f8H
	DB	0ffH
	DB	0f8H
	DB	0fcH
	DB	0f8H
	DB	0ffH
	DB	0f8H
	DB	0fcH
	DB	0f8H
	DB	0ffH
	DB	0f8H
	DB	0fcH
	DB	0f8H
	DB	0ffH
	DB	0f8H
	DB	0fcH
	DB	0f8H
	DB	0ffH
	DB	0f8H
	DB	0fcH
	DB	0f8H
	DB	0ffH
	DB	0f8H
	DB	0fcH
	DB	0f8H
	DB	0ffH
	DB	0f8H
	DB	0fcH
	DB	0f8H
	DB	0ffH
	DB	0f8H
	DB	0fcH
	DB	0f8H
	DB	0ffH
	DB	0f8H
	DB	0fcH
	DB	0f8H
	DB	0ffH
	DB	0f8H
	DB	0fcH
	DB	0f8H
	DB	0ffH
	DB	0f8H
	DB	0fcH
	DB	0f8H
	DB	0ffH
	DB	0f8H
	DB	0fcH
	DB	0f8H
	DB	0ffH
	DB	0f8H
	DB	0fcH
	DB	0f8H
	DB	0ffH
	DB	0f8H
	DB	0fcH
	DB	0f8H
	DB	0ffH
	DB	0f8H
	DB	0fcH
	DB	0f8H
	DB	0ffH
	DB	0f8H
	DB	0fcH
	DB	0f8H
	DB	0ffH
	DB	0f8H
	DB	0fcH
	DB	0f8H
	DB	0ffH
	DB	0f8H
	DB	0fcH
	DB	0f8H
	DB	0ffH
	DB	0f8H
	DB	0fcH
	DB	0f8H
	DB	0ffH
	DB	0f8H
	DB	0fcH
	DB	0f8H
	DB	0ffH
	DB	0f8H
	DB	0fcH
	DB	0f8H
	DB	0ffH
	DB	0f8H
	DB	0fcH
	DB	0f8H
	DB	0ffH
	DB	0f8H
	DB	0fcH
	DB	0f8H
	DB	0ffH
	DB	0f8H
	DB	0fcH
	DB	0f8H
	DB	0ffH
	DB	0f8H
	DB	0fcH
	DB	0f8H
	DB	0ffH
	DB	0f8H
	DB	0fcH
	DB	0f8H
	DB	0ffH
	DB	0f8H
	DB	0fcH
	DB	0f8H
	DB	0ffH
	DB	0f8H
	DB	0fcH
	DB	0f8H
	DB	0ffH
	DB	0f8H
	DB	0fcH
	DB	0f8H
	DB	0ffH
	DB	0f8H
	DB	0fcH
	DB	0f8H
	DB	0ffH
	DB	0f8H
	DB	0fcH
	DB	0f8H
	DB	0ffH
	DB	0f8H
	DB	0fcH
	DB	0f8H
	DB	0ffH
	DB	0f8H
	DB	0fcH
	DB	0f8H
	DB	0ffH
	DB	0f8H
	DB	0fcH
	DB	0f8H
	DB	0ffH
	DB	0f8H
	DB	0fcH
	DB	0f8H
	DB	0ffH
	DB	0f8H
	DB	0fcH
	DB	0f8H
	DB	0ffH
	DB	0f8H
	DB	0fcH
	DB	0f8H
	DB	0ffH
	DB	0f8H
	DB	0fcH
	DB	0f8H
	DB	0ffH
	DB	0f8H
	DB	0fcH
	DB	0f8H
	DB	0ffH
	DB	0f8H
	DB	0fcH
	DB	0f8H
	DB	0ffH
	DB	0f8H
	DB	0fcH
	DB	0f8H
	DB	0ffH
	DB	0f8H
	DB	0fcH
	DB	0f8H
	DB	0ffH
	DB	0f8H
	DB	0fcH
	DB	0f8H
	DB	0ffH
	DB	0f8H
	DB	0fcH
	DB	0f8H
	DB	0ffH
	DB	0f8H
	DB	0fcH
	DB	0f8H
	DB	0ffH
	DB	0f8H
	DB	0fcH
	DB	0f8H
	DB	0ffH
	DB	0f8H
	DB	0f8H
	DB	0f8H
	DB	0ffH
	DB	0d0H
	DB	0bcH
	DB	098H
	DB	0ffH
	DB	0d0H
	DB	0b4H
	DB	088H
	DB	0ffH
	DB	0d0H
	DB	0b0H
	DB	090H
	DB	09aH
	DB	0f8H
	DB	0fcH
	DB	0f8H
	DB	00H
	DB	0f8H
	DB	0fcH
	DB	0f8H
	DB	00H
	DB	0f8H
	DB	0fcH
	DB	0f8H
	DB	00H
	DB	0d0H
	DB	0b0H
	DB	088H
	DB	00H
	DB	0d0H
	DB	0b0H
	DB	088H
	DB	00H
	DB	0d0H
	DB	0b0H
	DB	090H
	DB	045H
	DB	0d0H
	DB	0b4H
	DB	088H
	DB	0ffH
	DB	0c8H
	DB	0b0H
	DB	090H
	DB	0ffH
	DB	0d0H
	DB	0b0H
	DB	088H
	DB	0ffH
	DB	0d0H
	DB	0b4H
	DB	090H
	DB	0ffH
	DB	0c8H
	DB	0b0H
	DB	088H
	DB	0ffH
	DB	0d0H
	DB	0b0H
	DB	088H
	DB	0ffH
	DB	0d0H
	DB	0b4H
	DB	090H
	DB	0ffH
	DB	0c8H
	DB	0b0H
	DB	088H
	DB	0ffH
	DB	0d0H
	DB	0b0H
	DB	088H
	DB	0ffH
	DB	0c8H
	DB	0b0H
	DB	088H
	DB	0ffH
	DB	0c8H
	DB	0acH
	DB	088H
	DB	0ffH
	DB	0c8H
	DB	0a8H
	DB	080H
	DB	0ffH
	DB	0c0H
	DB	0a0H
	DB	078H
	DB	0ffH
	DB	0e0H
	DB	0d0H
	DB	0c0H
	DB	0ffH
	DB	0f8H
	DB	0fcH
	DB	0f8H
	DB	0ffH
	DB	0f8H
	DB	0fcH
	DB	0f8H
	DB	0ffH
	DB	0e0H
	DB	0d0H
	DB	0c0H
	DB	0ffH
	DB	0c0H
	DB	0a0H
	DB	078H
	DB	0ffH
	DB	0c8H
	DB	0a8H
	DB	080H
	DB	0ffH
	DB	0c8H
	DB	0acH
	DB	088H
	DB	0ffH
	DB	0d0H
	DB	0b0H
	DB	088H
	DB	0ffH
	DB	0c8H
	DB	0b4H
	DB	088H
	DB	0ffH
	DB	0c8H
	DB	0b0H
	DB	090H
	DB	0ffH
	DB	0d0H
	DB	0b0H
	DB	088H
	DB	0ffH
	DB	0d0H
	DB	0b0H
	DB	088H
	DB	0ffH
	DB	0c8H
	DB	0b4H
	DB	090H
	DB	0ffH
	DB	0d0H
	DB	0b0H
	DB	090H
	DB	0ffH
	DB	0d0H
	DB	0b0H
	DB	088H
	DB	0ffH
	DB	0c8H
	DB	0b0H
	DB	090H
	DB	0ffH
	DB	0d0H
	DB	0b0H
	DB	088H
	DB	0ffH
	DB	0f0H
	DB	0ecH
	DB	0e0H
	DB	0ffH
	DB	0f8H
	DB	0fcH
	DB	0f8H
	DB	0ffH
	DB	0f8H
	DB	0fcH
	DB	0f8H
	DB	0ffH
	DB	0f8H
	DB	0fcH
	DB	0f8H
	DB	0ffH
	DB	0f8H
	DB	0fcH
	DB	0f8H
	DB	0ffH
	DB	0f8H
	DB	0fcH
	DB	0f8H
	DB	0ffH
	DB	0f8H
	DB	0fcH
	DB	0f8H
	DB	0ffH
	DB	0f8H
	DB	0fcH
	DB	0f8H
	DB	0ffH
	DB	0f8H
	DB	0fcH
	DB	0f8H
	DB	0ffH
	DB	0f8H
	DB	0fcH
	DB	0f8H
	DB	0ffH
	DB	0f8H
	DB	0fcH
	DB	0f8H
	DB	0ffH
	DB	0f8H
	DB	0fcH
	DB	0f8H
	DB	0ffH
	DB	0f8H
	DB	0fcH
	DB	0f8H
	DB	0ffH
	DB	0f8H
	DB	0fcH
	DB	0f8H
	DB	0ffH
	DB	0f8H
	DB	0fcH
	DB	0f8H
	DB	0ffH
	DB	0f8H
	DB	0fcH
	DB	0f8H
	DB	0ffH
	DB	0f8H
	DB	0fcH
	DB	0f8H
	DB	0ffH
	DB	0f8H
	DB	0fcH
	DB	0f8H
	DB	0ffH
	DB	0f8H
	DB	0fcH
	DB	0f8H
	DB	0ffH
	DB	0f8H
	DB	0fcH
	DB	0f8H
	DB	0ffH
	DB	0f8H
	DB	0fcH
	DB	0f8H
	DB	0ffH
	DB	0f8H
	DB	0fcH
	DB	0f8H
	DB	0ffH
	DB	0f8H
	DB	0fcH
	DB	0f8H
	DB	0ffH
	DB	0f8H
	DB	0fcH
	DB	0f8H
	DB	0ffH
	DB	0f8H
	DB	0fcH
	DB	0f8H
	DB	0ffH
	DB	0f8H
	DB	0fcH
	DB	0f8H
	DB	0ffH
	DB	0f8H
	DB	0fcH
	DB	0f8H
	DB	0ffH
	DB	0f8H
	DB	0fcH
	DB	0f8H
	DB	0ffH
	DB	0f8H
	DB	0fcH
	DB	0f8H
	DB	0ffH
	DB	0f8H
	DB	0fcH
	DB	0f8H
	DB	0ffH
	DB	0f8H
	DB	0fcH
	DB	0f8H
	DB	0ffH
	DB	0f8H
	DB	0fcH
	DB	0f8H
	DB	0ffH
	DB	0f8H
	DB	0fcH
	DB	0f8H
	DB	0ffH
	DB	0f8H
	DB	0fcH
	DB	0f8H
	DB	0ffH
	DB	0f8H
	DB	0fcH
	DB	0f8H
	DB	0ffH
	DB	0f8H
	DB	0fcH
	DB	0f8H
	DB	0ffH
	DB	0f8H
	DB	0fcH
	DB	0f8H
	DB	0ffH
	DB	0f8H
	DB	0fcH
	DB	0f8H
	DB	0ffH
	DB	0f8H
	DB	0fcH
	DB	0f8H
	DB	0ffH
	DB	0f8H
	DB	0fcH
	DB	0f8H
	DB	0ffH
	DB	0f8H
	DB	0fcH
	DB	0f8H
	DB	0ffH
	DB	0f8H
	DB	0fcH
	DB	0f8H
	DB	0ffH
	DB	0f8H
	DB	0fcH
	DB	0f8H
	DB	0ffH
	DB	0f8H
	DB	0fcH
	DB	0f8H
	DB	0ffH
	DB	0f8H
	DB	0fcH
	DB	0f8H
	DB	0ffH
	DB	0f8H
	DB	0fcH
	DB	0f8H
	DB	0ffH
	DB	0f8H
	DB	0fcH
	DB	0f8H
	DB	0ffH
	DB	0f8H
	DB	0fcH
	DB	0f8H
	DB	0ffH
	DB	0f8H
	DB	0fcH
	DB	0f8H
	DB	0ffH
	DB	0f8H
	DB	0fcH
	DB	0f8H
	DB	0ffH
	DB	0f8H
	DB	0fcH
	DB	0f8H
	DB	0ffH
	DB	0f8H
	DB	0fcH
	DB	0f8H
	DB	0ffH
	DB	0f8H
	DB	0fcH
	DB	0f8H
	DB	0ffH
	DB	0f8H
	DB	0fcH
	DB	0f8H
	DB	0ffH
	DB	0f8H
	DB	0fcH
	DB	0f8H
	DB	0ffH
	DB	0f8H
	DB	0fcH
	DB	0f8H
	DB	0ffH
	DB	0f8H
	DB	0fcH
	DB	0f8H
	DB	0ffH
	DB	0f8H
	DB	0fcH
	DB	0f8H
	DB	0ffH
	DB	0f8H
	DB	0fcH
	DB	0f8H
	DB	0ffH
	DB	0f8H
	DB	0fcH
	DB	0f8H
	DB	0ffH
	DB	0f8H
	DB	0fcH
	DB	0f8H
	DB	0ffH
	DB	0f8H
	DB	0f0H
	DB	0e8H
	DB	0ffH
	DB	0d0H
	DB	0b4H
	DB	090H
	DB	0ffH
	DB	0c8H
	DB	0b0H
	DB	088H
	DB	0ffH
	DB	0d0H
	DB	0b0H
	DB	088H
	DB	045H
	DB	0f8H
	DB	0fcH
	DB	0f8H
	DB	00H
	DB	0f8H
	DB	0fcH
	DB	0f8H
	DB	00H
	DB	0d0H
	DB	0b0H
	DB	088H
	DB	00H
	DB	0c8H
	DB	0b0H
	DB	090H
	DB	00H
	DB	0d0H
	DB	0b0H
	DB	088H
	DB	0d7H
	DB	0d0H
	DB	0b0H
	DB	088H
	DB	0ffH
	DB	0d0H
	DB	0b4H
	DB	088H
	DB	0ffH
	DB	0d0H
	DB	0b0H
	DB	090H
	DB	0ffH
	DB	0d0H
	DB	0b0H
	DB	088H
	DB	0ffH
	DB	0d0H
	DB	0b0H
	DB	088H
	DB	0ffH
	DB	0d0H
	DB	0b0H
	DB	090H
	DB	0ffH
	DB	0d0H
	DB	0b0H
	DB	088H
	DB	0ffH
	DB	0d0H
	DB	0b4H
	DB	090H
	DB	0ffH
	DB	0c8H
	DB	0b0H
	DB	088H
	DB	0ffH
	DB	0d0H
	DB	0b0H
	DB	088H
	DB	0ffH
	DB	0c8H
	DB	0acH
	DB	080H
	DB	0ffH
	DB	0c8H
	DB	0a0H
	DB	078H
	DB	0ffH
	DB	0d0H
	DB	0b4H
	DB	090H
	DB	0ffH
	DB	0f8H
	DB	0fcH
	DB	0f8H
	DB	0ffH
	DB	0f8H
	DB	0fcH
	DB	0f8H
	DB	0ffH
	DB	0f8H
	DB	0fcH
	DB	0f8H
	DB	0ffH
	DB	0f8H
	DB	0fcH
	DB	0f8H
	DB	0ffH
	DB	0d0H
	DB	0b4H
	DB	090H
	DB	0ffH
	DB	0c8H
	DB	0a4H
	DB	078H
	DB	0ffH
	DB	0c8H
	DB	0acH
	DB	080H
	DB	0ffH
	DB	0c8H
	DB	0b0H
	DB	088H
	DB	0ffH
	DB	0d0H
	DB	0b0H
	DB	088H
	DB	0ffH
	DB	0d0H
	DB	0b0H
	DB	090H
	DB	0ffH
	DB	0d0H
	DB	0b4H
	DB	088H
	DB	0ffH
	DB	0d0H
	DB	0b0H
	DB	088H
	DB	0ffH
	DB	0d0H
	DB	0b0H
	DB	088H
	DB	0ffH
	DB	0c8H
	DB	0b4H
	DB	088H
	DB	0ffH
	DB	0d0H
	DB	0b0H
	DB	090H
	DB	0ffH
	DB	0d0H
	DB	0b4H
	DB	088H
	DB	0ffH
	DB	0d0H
	DB	0b0H
	DB	088H
	DB	0ffH
	DB	0d8H
	DB	0c0H
	DB	0a0H
	DB	0ffH
	DB	0f8H
	DB	0fcH
	DB	0f8H
	DB	0ffH
	DB	0f8H
	DB	0fcH
	DB	0f8H
	DB	0ffH
	DB	0f8H
	DB	0fcH
	DB	0f8H
	DB	0ffH
	DB	0f8H
	DB	0fcH
	DB	0f8H
	DB	0ffH
	DB	0f8H
	DB	0fcH
	DB	0f8H
	DB	0ffH
	DB	0f8H
	DB	0fcH
	DB	0f8H
	DB	0ffH
	DB	0f8H
	DB	0fcH
	DB	0f8H
	DB	0ffH
	DB	0f8H
	DB	0fcH
	DB	0f8H
	DB	0ffH
	DB	0f8H
	DB	0fcH
	DB	0f8H
	DB	0ffH
	DB	0f8H
	DB	0fcH
	DB	0f8H
	DB	0ffH
	DB	0f8H
	DB	0fcH
	DB	0f8H
	DB	0ffH
	DB	0f8H
	DB	0fcH
	DB	0f8H
	DB	0ffH
	DB	0f8H
	DB	0fcH
	DB	0f8H
	DB	0ffH
	DB	0f8H
	DB	0fcH
	DB	0f8H
	DB	0ffH
	DB	0f8H
	DB	0fcH
	DB	0f8H
	DB	0ffH
	DB	0f8H
	DB	0fcH
	DB	0f8H
	DB	0ffH
	DB	0f8H
	DB	0fcH
	DB	0f8H
	DB	0ffH
	DB	0f8H
	DB	0fcH
	DB	0f8H
	DB	0ffH
	DB	0f8H
	DB	0fcH
	DB	0f8H
	DB	0ffH
	DB	0f8H
	DB	0fcH
	DB	0f8H
	DB	0ffH
	DB	0f8H
	DB	0fcH
	DB	0f8H
	DB	0ffH
	DB	0f8H
	DB	0fcH
	DB	0f8H
	DB	0ffH
	DB	0f8H
	DB	0fcH
	DB	0f8H
	DB	0ffH
	DB	0f8H
	DB	0fcH
	DB	0f8H
	DB	0ffH
	DB	0f8H
	DB	0fcH
	DB	0f8H
	DB	0ffH
	DB	0f8H
	DB	0fcH
	DB	0f8H
	DB	0ffH
	DB	0f8H
	DB	0fcH
	DB	0f8H
	DB	0ffH
	DB	0f8H
	DB	0fcH
	DB	0f8H
	DB	0ffH
	DB	0f8H
	DB	0fcH
	DB	0f8H
	DB	0ffH
	DB	0f8H
	DB	0fcH
	DB	0f8H
	DB	0ffH
	DB	0f8H
	DB	0fcH
	DB	0f8H
	DB	0ffH
	DB	0f8H
	DB	0fcH
	DB	0f8H
	DB	0ffH
	DB	0f8H
	DB	0fcH
	DB	0f8H
	DB	0ffH
	DB	0f8H
	DB	0fcH
	DB	0f8H
	DB	0ffH
	DB	0f8H
	DB	0fcH
	DB	0f8H
	DB	0ffH
	DB	0f8H
	DB	0fcH
	DB	0f8H
	DB	0ffH
	DB	0f8H
	DB	0fcH
	DB	0f8H
	DB	0ffH
	DB	0f8H
	DB	0fcH
	DB	0f8H
	DB	0ffH
	DB	0f8H
	DB	0fcH
	DB	0f8H
	DB	0ffH
	DB	0f8H
	DB	0fcH
	DB	0f8H
	DB	0ffH
	DB	0f8H
	DB	0fcH
	DB	0f8H
	DB	0ffH
	DB	0f8H
	DB	0fcH
	DB	0f8H
	DB	0ffH
	DB	0f8H
	DB	0fcH
	DB	0f8H
	DB	0ffH
	DB	0f8H
	DB	0fcH
	DB	0f8H
	DB	0ffH
	DB	0f8H
	DB	0fcH
	DB	0f8H
	DB	0ffH
	DB	0f8H
	DB	0fcH
	DB	0f8H
	DB	0ffH
	DB	0f8H
	DB	0fcH
	DB	0f8H
	DB	0ffH
	DB	0f8H
	DB	0fcH
	DB	0f8H
	DB	0ffH
	DB	0f8H
	DB	0fcH
	DB	0f8H
	DB	0ffH
	DB	0f8H
	DB	0fcH
	DB	0f8H
	DB	0ffH
	DB	0f8H
	DB	0fcH
	DB	0f8H
	DB	0ffH
	DB	0f8H
	DB	0fcH
	DB	0f8H
	DB	0ffH
	DB	0f8H
	DB	0fcH
	DB	0f8H
	DB	0ffH
	DB	0f8H
	DB	0fcH
	DB	0f8H
	DB	0ffH
	DB	0f8H
	DB	0fcH
	DB	0f8H
	DB	0ffH
	DB	0f8H
	DB	0fcH
	DB	0f8H
	DB	0ffH
	DB	0f8H
	DB	0fcH
	DB	0f8H
	DB	0ffH
	DB	0f8H
	DB	0fcH
	DB	0f8H
	DB	0ffH
	DB	0f8H
	DB	0fcH
	DB	0f8H
	DB	0ffH
	DB	0f8H
	DB	0fcH
	DB	0f8H
	DB	0ffH
	DB	0f8H
	DB	0fcH
	DB	0f8H
	DB	0ffH
	DB	0e8H
	DB	0dcH
	DB	0c8H
	DB	0ffH
	DB	0d0H
	DB	0b0H
	DB	090H
	DB	0ffH
	DB	0d0H
	DB	0b0H
	DB	088H
	DB	0d7H
	DB	0d0H
	DB	0b4H
	DB	088H
	DB	04H
	DB	0f8H
	DB	0fcH
	DB	0f8H
	DB	00H
	DB	0d0H
	DB	0b0H
	DB	088H
	DB	00H
	DB	0d0H
	DB	0b4H
	DB	090H
	DB	059H
	DB	0c8H
	DB	0b0H
	DB	088H
	DB	0ffH
	DB	0d0H
	DB	0b0H
	DB	090H
	DB	0ffH
	DB	0d0H
	DB	0b0H
	DB	088H
	DB	0ffH
	DB	0c8H
	DB	0b4H
	DB	088H
	DB	0ffH
	DB	0d0H
	DB	0b0H
	DB	090H
	DB	0ffH
	DB	0c8H
	DB	0b4H
	DB	088H
	DB	0ffH
	DB	0d0H
	DB	0b0H
	DB	088H
	DB	0ffH
	DB	0d0H
	DB	0b0H
	DB	090H
	DB	0ffH
	DB	0d0H
	DB	0b0H
	DB	088H
	DB	0ffH
	DB	0c8H
	DB	0b0H
	DB	088H
	DB	0ffH
	DB	0c8H
	DB	0acH
	DB	088H
	DB	0ffH
	DB	0c8H
	DB	0a4H
	DB	080H
	DB	0ffH
	DB	0c8H
	DB	0a4H
	DB	078H
	DB	0ffH
	DB	0f8H
	DB	0f0H
	DB	0f0H
	DB	0ffH
	DB	0f8H
	DB	0fcH
	DB	0f8H
	DB	0ffH
	DB	0f8H
	DB	0fcH
	DB	0f8H
	DB	0ffH
	DB	0f8H
	DB	0fcH
	DB	0f8H
	DB	0ffH
	DB	0f8H
	DB	0fcH
	DB	0f8H
	DB	0ffH
	DB	0f8H
	DB	0f0H
	DB	0f0H
	DB	0ffH
	DB	0c0H
	DB	0a0H
	DB	078H
	DB	0ffH
	DB	0c8H
	DB	0a4H
	DB	080H
	DB	0ffH
	DB	0c8H
	DB	0acH
	DB	088H
	DB	0ffH
	DB	0d0H
	DB	0b0H
	DB	088H
	DB	0ffH
	DB	0d0H
	DB	0b0H
	DB	088H
	DB	0ffH
	DB	0c8H
	DB	0b0H
	DB	090H
	DB	0ffH
	DB	0d0H
	DB	0b0H
	DB	090H
	DB	0ffH
	DB	0d0H
	DB	0b0H
	DB	088H
	DB	0ffH
	DB	0d0H
	DB	0b0H
	DB	088H
	DB	0ffH
	DB	0c8H
	DB	0b0H
	DB	090H
	DB	0ffH
	DB	0d0H
	DB	0b0H
	DB	088H
	DB	0ffH
	DB	0d0H
	DB	0b0H
	DB	090H
	DB	0ffH
	DB	0c8H
	DB	0b0H
	DB	088H
	DB	0ffH
	DB	0f0H
	DB	0e4H
	DB	0d8H
	DB	0ffH
	DB	0f8H
	DB	0fcH
	DB	0f8H
	DB	0ffH
	DB	0f8H
	DB	0fcH
	DB	0f8H
	DB	0ffH
	DB	0f8H
	DB	0fcH
	DB	0f8H
	DB	0ffH
	DB	0f8H
	DB	0fcH
	DB	0f8H
	DB	0ffH
	DB	0f8H
	DB	0fcH
	DB	0f8H
	DB	0ffH
	DB	0f8H
	DB	0fcH
	DB	0f8H
	DB	0ffH
	DB	0f8H
	DB	0fcH
	DB	0f8H
	DB	0ffH
	DB	0f8H
	DB	0fcH
	DB	0f8H
	DB	0ffH
	DB	0f8H
	DB	0fcH
	DB	0f8H
	DB	0ffH
	DB	0f8H
	DB	0fcH
	DB	0f8H
	DB	0ffH
	DB	0f8H
	DB	0fcH
	DB	0f8H
	DB	0ffH
	DB	0f8H
	DB	0fcH
	DB	0f8H
	DB	0ffH
	DB	0f8H
	DB	0fcH
	DB	0f8H
	DB	0ffH
	DB	0f8H
	DB	0fcH
	DB	0f8H
	DB	0ffH
	DB	0f8H
	DB	0fcH
	DB	0f8H
	DB	0ffH
	DB	0f8H
	DB	0fcH
	DB	0f8H
	DB	0ffH
	DB	0f8H
	DB	0fcH
	DB	0f8H
	DB	0ffH
	DB	0f8H
	DB	0fcH
	DB	0f8H
	DB	0ffH
	DB	0f8H
	DB	0fcH
	DB	0f8H
	DB	0ffH
	DB	0f8H
	DB	0fcH
	DB	0f8H
	DB	0ffH
	DB	0f8H
	DB	0fcH
	DB	0f8H
	DB	0ffH
	DB	0f8H
	DB	0fcH
	DB	0f8H
	DB	0ffH
	DB	0f8H
	DB	0fcH
	DB	0f8H
	DB	0ffH
	DB	0f8H
	DB	0fcH
	DB	0f8H
	DB	0ffH
	DB	0f8H
	DB	0fcH
	DB	0f8H
	DB	0ffH
	DB	0f8H
	DB	0fcH
	DB	0f8H
	DB	0ffH
	DB	0f8H
	DB	0fcH
	DB	0f8H
	DB	0ffH
	DB	0f8H
	DB	0fcH
	DB	0f8H
	DB	0ffH
	DB	0f8H
	DB	0fcH
	DB	0f8H
	DB	0ffH
	DB	0f8H
	DB	0fcH
	DB	0f8H
	DB	0ffH
	DB	0f8H
	DB	0fcH
	DB	0f8H
	DB	0ffH
	DB	0f8H
	DB	0fcH
	DB	0f8H
	DB	0ffH
	DB	0f8H
	DB	0fcH
	DB	0f8H
	DB	0ffH
	DB	0f8H
	DB	0fcH
	DB	0f8H
	DB	0ffH
	DB	0f8H
	DB	0fcH
	DB	0f8H
	DB	0ffH
	DB	0f8H
	DB	0fcH
	DB	0f8H
	DB	0ffH
	DB	0f8H
	DB	0fcH
	DB	0f8H
	DB	0ffH
	DB	0f8H
	DB	0fcH
	DB	0f8H
	DB	0ffH
	DB	0f8H
	DB	0fcH
	DB	0f8H
	DB	0ffH
	DB	0f8H
	DB	0fcH
	DB	0f8H
	DB	0ffH
	DB	0f8H
	DB	0fcH
	DB	0f8H
	DB	0ffH
	DB	0f8H
	DB	0fcH
	DB	0f8H
	DB	0ffH
	DB	0f8H
	DB	0fcH
	DB	0f8H
	DB	0ffH
	DB	0f8H
	DB	0fcH
	DB	0f8H
	DB	0ffH
	DB	0f8H
	DB	0fcH
	DB	0f8H
	DB	0ffH
	DB	0f8H
	DB	0fcH
	DB	0f8H
	DB	0ffH
	DB	0f8H
	DB	0fcH
	DB	0f8H
	DB	0ffH
	DB	0f8H
	DB	0fcH
	DB	0f8H
	DB	0ffH
	DB	0f8H
	DB	0fcH
	DB	0f8H
	DB	0ffH
	DB	0f8H
	DB	0fcH
	DB	0f8H
	DB	0ffH
	DB	0f8H
	DB	0fcH
	DB	0f8H
	DB	0ffH
	DB	0f8H
	DB	0fcH
	DB	0f8H
	DB	0ffH
	DB	0f8H
	DB	0fcH
	DB	0f8H
	DB	0ffH
	DB	0f8H
	DB	0fcH
	DB	0f8H
	DB	0ffH
	DB	0f8H
	DB	0fcH
	DB	0f8H
	DB	0ffH
	DB	0f8H
	DB	0fcH
	DB	0f8H
	DB	0ffH
	DB	0f8H
	DB	0fcH
	DB	0f8H
	DB	0ffH
	DB	0f8H
	DB	0fcH
	DB	0f8H
	DB	0ffH
	DB	0f8H
	DB	0fcH
	DB	0f8H
	DB	0ffH
	DB	0f8H
	DB	0fcH
	DB	0f8H
	DB	0ffH
	DB	0f8H
	DB	0fcH
	DB	0f8H
	DB	0ffH
	DB	0d0H
	DB	0bcH
	DB	0a0H
	DB	0ffH
	DB	0d0H
	DB	0b0H
	DB	088H
	DB	0ffH
	DB	0c8H
	DB	0b0H
	DB	090H
	DB	059H
	DB	0f8H
	DB	0fcH
	DB	0f8H
	DB	00H
	DB	0d0H
	DB	0b0H
	DB	088H
	DB	00H
	DB	0d0H
	DB	0b0H
	DB	088H
	DB	0c3H
	DB	0c8H
	DB	0b4H
	DB	090H
	DB	0ffH
	DB	0d0H
	DB	0b0H
	DB	088H
	DB	0ffH
	DB	0d0H
	DB	0b0H
	DB	090H
	DB	0ffH
	DB	0c8H
	DB	0b0H
	DB	088H
	DB	0ffH
	DB	0d0H
	DB	0b0H
	DB	090H
	DB	0ffH
	DB	0d0H
	DB	0b0H
	DB	088H
	DB	0ffH
	DB	0c8H
	DB	0b4H
	DB	088H
	DB	0ffH
	DB	0d0H
	DB	0b0H
	DB	090H
	DB	0ffH
	DB	0c8H
	DB	0b0H
	DB	088H
	DB	0ffH
	DB	0c8H
	DB	0acH
	DB	088H
	DB	0ffH
	DB	0c8H
	DB	0a8H
	DB	080H
	DB	0ffH
	DB	0c0H
	DB	09cH
	DB	078H
	DB	0ffH
	DB	0e8H
	DB	0d8H
	DB	0c8H
	DB	0ffH
	DB	0f8H
	DB	0fcH
	DB	0f8H
	DB	0ffH
	DB	0f8H
	DB	0fcH
	DB	0f8H
	DB	0ffH
	DB	0e0H
	DB	0d4H
	DB	0c8H
	DB	0ffH
	DB	0e8H
	DB	0d8H
	DB	0c8H
	DB	0ffH
	DB	0f8H
	DB	0fcH
	DB	0f8H
	DB	0ffH
	DB	0f8H
	DB	0fcH
	DB	0f8H
	DB	0ffH
	DB	0e8H
	DB	0d8H
	DB	0c8H
	DB	0ffH
	DB	0c0H
	DB	09cH
	DB	078H
	DB	0ffH
	DB	0c8H
	DB	0a8H
	DB	080H
	DB	0ffH
	DB	0c8H
	DB	0acH
	DB	088H
	DB	0ffH
	DB	0d0H
	DB	0b0H
	DB	088H
	DB	0ffH
	DB	0d0H
	DB	0b0H
	DB	088H
	DB	0ffH
	DB	0c8H
	DB	0b4H
	DB	090H
	DB	0ffH
	DB	0d0H
	DB	0b0H
	DB	088H
	DB	0ffH
	DB	0d0H
	DB	0b0H
	DB	090H
	DB	0ffH
	DB	0d0H
	DB	0b4H
	DB	088H
	DB	0ffH
	DB	0c8H
	DB	0b0H
	DB	088H
	DB	0ffH
	DB	0d0H
	DB	0b0H
	DB	090H
	DB	0ffH
	DB	0d0H
	DB	0b0H
	DB	088H
	DB	0ffH
	DB	0d8H
	DB	0c4H
	DB	0a8H
	DB	0ffH
	DB	0f8H
	DB	0fcH
	DB	0f8H
	DB	0ffH
	DB	0f8H
	DB	0fcH
	DB	0f8H
	DB	0ffH
	DB	0f8H
	DB	0fcH
	DB	0f8H
	DB	0ffH
	DB	0f8H
	DB	0fcH
	DB	0f8H
	DB	0ffH
	DB	0f8H
	DB	0fcH
	DB	0f8H
	DB	0ffH
	DB	0f8H
	DB	0fcH
	DB	0f8H
	DB	0ffH
	DB	0f8H
	DB	0fcH
	DB	0f8H
	DB	0ffH
	DB	0f8H
	DB	0fcH
	DB	0f8H
	DB	0ffH
	DB	0f8H
	DB	0fcH
	DB	0f8H
	DB	0ffH
	DB	0f8H
	DB	0fcH
	DB	0f8H
	DB	0ffH
	DB	0f8H
	DB	0fcH
	DB	0f8H
	DB	0ffH
	DB	0f8H
	DB	0fcH
	DB	0f8H
	DB	0ffH
	DB	0f8H
	DB	0fcH
	DB	0f8H
	DB	0ffH
	DB	0f8H
	DB	0fcH
	DB	0f8H
	DB	0ffH
	DB	0f8H
	DB	0fcH
	DB	0f8H
	DB	0ffH
	DB	0f8H
	DB	0fcH
	DB	0f8H
	DB	0ffH
	DB	0f8H
	DB	0fcH
	DB	0f8H
	DB	0ffH
	DB	0f8H
	DB	0fcH
	DB	0f8H
	DB	0ffH
	DB	0f8H
	DB	0fcH
	DB	0f8H
	DB	0ffH
	DB	0f8H
	DB	0fcH
	DB	0f8H
	DB	0ffH
	DB	0f8H
	DB	0fcH
	DB	0f8H
	DB	0ffH
	DB	0f8H
	DB	0fcH
	DB	0f8H
	DB	0ffH
	DB	0f8H
	DB	0fcH
	DB	0f8H
	DB	0ffH
	DB	0f8H
	DB	0fcH
	DB	0f8H
	DB	0ffH
	DB	0f8H
	DB	0fcH
	DB	0f8H
	DB	0ffH
	DB	0f8H
	DB	0fcH
	DB	0f8H
	DB	0ffH
	DB	0f8H
	DB	0fcH
	DB	0f8H
	DB	0ffH
	DB	0f8H
	DB	0fcH
	DB	0f8H
	DB	0ffH
	DB	0f8H
	DB	0fcH
	DB	0f8H
	DB	0ffH
	DB	0f8H
	DB	0fcH
	DB	0f8H
	DB	0ffH
	DB	0f8H
	DB	0fcH
	DB	0f8H
	DB	0ffH
	DB	0f8H
	DB	0fcH
	DB	0f8H
	DB	0ffH
	DB	0f8H
	DB	0fcH
	DB	0f8H
	DB	0ffH
	DB	0f8H
	DB	0fcH
	DB	0f8H
	DB	0ffH
	DB	0f8H
	DB	0fcH
	DB	0f8H
	DB	0ffH
	DB	0f8H
	DB	0fcH
	DB	0f8H
	DB	0ffH
	DB	0f8H
	DB	0fcH
	DB	0f8H
	DB	0ffH
	DB	0f8H
	DB	0fcH
	DB	0f8H
	DB	0ffH
	DB	0f8H
	DB	0fcH
	DB	0f8H
	DB	0ffH
	DB	0f8H
	DB	0fcH
	DB	0f8H
	DB	0ffH
	DB	0f8H
	DB	0fcH
	DB	0f8H
	DB	0ffH
	DB	0f8H
	DB	0fcH
	DB	0f8H
	DB	0ffH
	DB	0f8H
	DB	0fcH
	DB	0f8H
	DB	0ffH
	DB	0f8H
	DB	0fcH
	DB	0f8H
	DB	0ffH
	DB	0f8H
	DB	0fcH
	DB	0f8H
	DB	0ffH
	DB	0f8H
	DB	0fcH
	DB	0f8H
	DB	0ffH
	DB	0f8H
	DB	0fcH
	DB	0f8H
	DB	0ffH
	DB	0f8H
	DB	0fcH
	DB	0f8H
	DB	0ffH
	DB	0f8H
	DB	0fcH
	DB	0f8H
	DB	0ffH
	DB	0f8H
	DB	0fcH
	DB	0f8H
	DB	0ffH
	DB	0f8H
	DB	0fcH
	DB	0f8H
	DB	0ffH
	DB	0f8H
	DB	0fcH
	DB	0f8H
	DB	0ffH
	DB	0f8H
	DB	0fcH
	DB	0f8H
	DB	0ffH
	DB	0f8H
	DB	0fcH
	DB	0f8H
	DB	0ffH
	DB	0f8H
	DB	0fcH
	DB	0f8H
	DB	0ffH
	DB	0f8H
	DB	0fcH
	DB	0f8H
	DB	0ffH
	DB	0f8H
	DB	0fcH
	DB	0f8H
	DB	0ffH
	DB	0f8H
	DB	0fcH
	DB	0f8H
	DB	0ffH
	DB	0f8H
	DB	0fcH
	DB	0f8H
	DB	0ffH
	DB	0f8H
	DB	0fcH
	DB	0f8H
	DB	0ffH
	DB	0f8H
	DB	0fcH
	DB	0f8H
	DB	0ffH
	DB	0e8H
	DB	0e0H
	DB	0d0H
	DB	0ffH
	DB	0d0H
	DB	0b0H
	DB	088H
	DB	0ffH
	DB	0d0H
	DB	0b0H
	DB	088H
	DB	0c3H
	DB	0f8H
	DB	0fcH
	DB	0f8H
	DB	00H
	DB	0d0H
	DB	0b0H
	DB	088H
	DB	020H
	DB	0d0H
	DB	0b0H
	DB	090H
	DB	0ffH
	DB	0d0H
	DB	0b0H
	DB	088H
	DB	0ffH
	DB	0d0H
	DB	0b4H
	DB	088H
	DB	0ffH
	DB	0d0H
	DB	0b0H
	DB	090H
	DB	0ffH
	DB	0d0H
	DB	0b0H
	DB	088H
	DB	0ffH
	DB	0d0H
	DB	0b4H
	DB	088H
	DB	0ffH
	DB	0d0H
	DB	0b0H
	DB	090H
	DB	0ffH
	DB	0d0H
	DB	0b0H
	DB	088H
	DB	0ffH
	DB	0c8H
	DB	0b4H
	DB	088H
	DB	0ffH
	DB	0d0H
	DB	0b0H
	DB	088H
	DB	0ffH
	DB	0c8H
	DB	0a8H
	DB	080H
	DB	0ffH
	DB	0c0H
	DB	0a0H
	DB	078H
	DB	0ffH
	DB	0d0H
	DB	0bcH
	DB	0a0H
	DB	0ffH
	DB	0f8H
	DB	0fcH
	DB	0f8H
	DB	0ffH
	DB	0f8H
	DB	0fcH
	DB	0f8H
	DB	0ffH
	DB	0f8H
	DB	0f4H
	DB	0f0H
	DB	0ffH
	DB	0c0H
	DB	098H
	DB	070H
	DB	0ffH
	DB	0c0H
	DB	09cH
	DB	070H
	DB	0ffH
	DB	0f8H
	DB	0f8H
	DB	0f0H
	DB	0ffH
	DB	0f8H
	DB	0fcH
	DB	0f8H
	DB	0ffH
	DB	0f8H
	DB	0fcH
	DB	0f8H
	DB	0ffH
	DB	0d0H
	DB	0bcH
	DB	098H
	DB	0ffH
	DB	0c0H
	DB	0a0H
	DB	078H
	DB	0ffH
	DB	0c8H
	DB	0a8H
	DB	080H
	DB	0ffH
	DB	0c8H
	DB	0b0H
	DB	088H
	DB	0ffH
	DB	0d0H
	DB	0b0H
	DB	088H
	DB	0ffH
	DB	0d0H
	DB	0b0H
	DB	088H
	DB	0ffH
	DB	0c8H
	DB	0b4H
	DB	090H
	DB	0ffH
	DB	0d0H
	DB	0b0H
	DB	088H
	DB	0ffH
	DB	0d0H
	DB	0b0H
	DB	088H
	DB	0ffH
	DB	0d0H
	DB	0b4H
	DB	090H
	DB	0ffH
	DB	0d0H
	DB	0b0H
	DB	088H
	DB	0ffH
	DB	0d0H
	DB	0b4H
	DB	088H
	DB	0ffH
	DB	0c8H
	DB	0b4H
	DB	090H
	DB	0ffH
	DB	0f8H
	DB	0f4H
	DB	0f0H
	DB	0ffH
	DB	0f8H
	DB	0fcH
	DB	0f8H
	DB	0ffH
	DB	0f8H
	DB	0fcH
	DB	0f8H
	DB	0ffH
	DB	0f8H
	DB	0fcH
	DB	0f8H
	DB	0ffH
	DB	0f8H
	DB	0fcH
	DB	0f8H
	DB	0ffH
	DB	0f8H
	DB	0fcH
	DB	0f8H
	DB	0ffH
	DB	0f8H
	DB	0fcH
	DB	0f8H
	DB	0ffH
	DB	0f8H
	DB	0fcH
	DB	0f8H
	DB	0ffH
	DB	0f8H
	DB	0fcH
	DB	0f8H
	DB	0ffH
	DB	0f8H
	DB	0fcH
	DB	0f8H
	DB	0ffH
	DB	0f8H
	DB	0fcH
	DB	0f8H
	DB	0ffH
	DB	0f8H
	DB	0fcH
	DB	0f8H
	DB	0ffH
	DB	0f8H
	DB	0fcH
	DB	0f8H
	DB	0ffH
	DB	0f8H
	DB	0fcH
	DB	0f8H
	DB	0ffH
	DB	0f8H
	DB	0fcH
	DB	0f8H
	DB	0ffH
	DB	0f8H
	DB	0fcH
	DB	0f8H
	DB	0ffH
	DB	0f8H
	DB	0fcH
	DB	0f8H
	DB	0ffH
	DB	0f8H
	DB	0fcH
	DB	0f8H
	DB	0ffH
	DB	0f8H
	DB	0fcH
	DB	0f8H
	DB	0ffH
	DB	0f8H
	DB	0fcH
	DB	0f8H
	DB	0ffH
	DB	0f8H
	DB	0fcH
	DB	0f8H
	DB	0ffH
	DB	0f8H
	DB	0fcH
	DB	0f8H
	DB	0ffH
	DB	0f8H
	DB	0fcH
	DB	0f8H
	DB	0ffH
	DB	0f8H
	DB	0fcH
	DB	0f8H
	DB	0ffH
	DB	0f8H
	DB	0fcH
	DB	0f8H
	DB	0ffH
	DB	0f8H
	DB	0fcH
	DB	0f8H
	DB	0ffH
	DB	0f8H
	DB	0fcH
	DB	0f8H
	DB	0ffH
	DB	0f8H
	DB	0fcH
	DB	0f8H
	DB	0ffH
	DB	0f8H
	DB	0fcH
	DB	0f8H
	DB	0ffH
	DB	0f8H
	DB	0fcH
	DB	0f8H
	DB	0ffH
	DB	0f8H
	DB	0fcH
	DB	0f8H
	DB	0ffH
	DB	0f8H
	DB	0fcH
	DB	0f8H
	DB	0ffH
	DB	0f8H
	DB	0fcH
	DB	0f8H
	DB	0ffH
	DB	0f8H
	DB	0fcH
	DB	0f8H
	DB	0ffH
	DB	0f8H
	DB	0fcH
	DB	0f8H
	DB	0ffH
	DB	0f8H
	DB	0fcH
	DB	0f8H
	DB	0ffH
	DB	0f8H
	DB	0fcH
	DB	0f8H
	DB	0ffH
	DB	0f8H
	DB	0fcH
	DB	0f8H
	DB	0ffH
	DB	0f8H
	DB	0fcH
	DB	0f8H
	DB	0ffH
	DB	0f8H
	DB	0fcH
	DB	0f8H
	DB	0ffH
	DB	0f8H
	DB	0fcH
	DB	0f8H
	DB	0ffH
	DB	0f8H
	DB	0fcH
	DB	0f8H
	DB	0ffH
	DB	0f8H
	DB	0fcH
	DB	0f8H
	DB	0ffH
	DB	0f8H
	DB	0fcH
	DB	0f8H
	DB	0ffH
	DB	0f8H
	DB	0fcH
	DB	0f8H
	DB	0ffH
	DB	0f8H
	DB	0fcH
	DB	0f8H
	DB	0ffH
	DB	0f8H
	DB	0fcH
	DB	0f8H
	DB	0ffH
	DB	0f8H
	DB	0fcH
	DB	0f8H
	DB	0ffH
	DB	0f8H
	DB	0fcH
	DB	0f8H
	DB	0ffH
	DB	0f8H
	DB	0fcH
	DB	0f8H
	DB	0ffH
	DB	0f8H
	DB	0fcH
	DB	0f8H
	DB	0ffH
	DB	0f8H
	DB	0fcH
	DB	0f8H
	DB	0ffH
	DB	0f8H
	DB	0fcH
	DB	0f8H
	DB	0ffH
	DB	0f8H
	DB	0fcH
	DB	0f8H
	DB	0ffH
	DB	0f8H
	DB	0fcH
	DB	0f8H
	DB	0ffH
	DB	0f8H
	DB	0fcH
	DB	0f8H
	DB	0ffH
	DB	0f8H
	DB	0fcH
	DB	0f8H
	DB	0ffH
	DB	0f8H
	DB	0fcH
	DB	0f8H
	DB	0ffH
	DB	0f8H
	DB	0fcH
	DB	0f8H
	DB	0ffH
	DB	0f8H
	DB	0fcH
	DB	0f8H
	DB	0ffH
	DB	0f8H
	DB	0fcH
	DB	0f8H
	DB	0ffH
	DB	0f8H
	DB	0fcH
	DB	0f8H
	DB	0ffH
	DB	0d0H
	DB	0b8H
	DB	090H
	DB	0ffH
	DB	0d0H
	DB	0b0H
	DB	090H
	DB	0ffH
	DB	0d0H
	DB	0b0H
	DB	088H
	DB	020H
	DB	0d0H
	DB	0b0H
	DB	088H
	DB	069H
	DB	0c8H
	DB	0b0H
	DB	090H
	DB	0ffH
	DB	0d0H
	DB	0b0H
	DB	088H
	DB	0ffH
	DB	0c8H
	DB	0b0H
	DB	088H
	DB	0ffH
	DB	0d0H
	DB	0b4H
	DB	090H
	DB	0ffH
	DB	0c8H
	DB	0b0H
	DB	088H
	DB	0ffH
	DB	0d0H
	DB	0b0H
	DB	088H
	DB	0ffH
	DB	0d0H
	DB	0b0H
	DB	090H
	DB	0ffH
	DB	0d0H
	DB	0b0H
	DB	090H
	DB	0ffH
	DB	0c8H
	DB	0b0H
	DB	088H
	DB	0ffH
	DB	0c8H
	DB	0acH
	DB	088H
	DB	0ffH
	DB	0c8H
	DB	0a4H
	DB	080H
	DB	0ffH
	DB	0c8H
	DB	0a4H
	DB	080H
	DB	0ffH
	DB	0f8H
	DB	0f8H
	DB	0f0H
	DB	0ffH
	DB	0f8H
	DB	0fcH
	DB	0f8H
	DB	0ffH
	DB	0f8H
	DB	0fcH
	DB	0f8H
	DB	0ffH
	DB	0d0H
	DB	0b4H
	DB	098H
	DB	0ffH
	DB	0c0H
	DB	09cH
	DB	070H
	DB	0ffH
	DB	0c0H
	DB	09cH
	DB	070H
	DB	0ffH
	DB	0d0H
	DB	0b8H
	DB	098H
	DB	0ffH
	DB	0f8H
	DB	0fcH
	DB	0f8H
	DB	0ffH
	DB	0f8H
	DB	0fcH
	DB	0f8H
	DB	0ffH
	DB	0f8H
	DB	0f8H
	DB	0f8H
	DB	0ffH
	DB	0c8H
	DB	0a4H
	DB	080H
	DB	0ffH
	DB	0c8H
	DB	0a4H
	DB	080H
	DB	0ffH
	DB	0c8H
	DB	0acH
	DB	088H
	DB	0ffH
	DB	0d0H
	DB	0b0H
	DB	088H
	DB	0ffH
	DB	0d0H
	DB	0b0H
	DB	088H
	DB	0ffH
	DB	0d0H
	DB	0b0H
	DB	090H
	DB	0ffH
	DB	0c8H
	DB	0b0H
	DB	088H
	DB	0ffH
	DB	0d0H
	DB	0b0H
	DB	088H
	DB	0ffH
	DB	0d0H
	DB	0b0H
	DB	090H
	DB	0ffH
	DB	0c8H
	DB	0b0H
	DB	088H
	DB	0ffH
	DB	0d0H
	DB	0b0H
	DB	088H
	DB	0ffH
	DB	0d0H
	DB	0b0H
	DB	090H
	DB	0ffH
	DB	0e8H
	DB	0e0H
	DB	0d0H
	DB	0ffH
	DB	0f8H
	DB	0fcH
	DB	0f8H
	DB	0ffH
	DB	0f8H
	DB	0fcH
	DB	0f8H
	DB	0ffH
	DB	0f8H
	DB	0fcH
	DB	0f8H
	DB	0ffH
	DB	0f8H
	DB	0fcH
	DB	0f8H
	DB	0ffH
	DB	0f8H
	DB	0fcH
	DB	0f8H
	DB	0ffH
	DB	0f8H
	DB	0fcH
	DB	0f8H
	DB	0ffH
	DB	0f8H
	DB	0fcH
	DB	0f8H
	DB	0ffH
	DB	0f8H
	DB	0fcH
	DB	0f8H
	DB	0ffH
	DB	0f8H
	DB	0fcH
	DB	0f8H
	DB	0ffH
	DB	0f8H
	DB	0fcH
	DB	0f8H
	DB	0ffH
	DB	0f8H
	DB	0fcH
	DB	0f8H
	DB	0ffH
	DB	0f8H
	DB	0fcH
	DB	0f8H
	DB	0ffH
	DB	0f8H
	DB	0fcH
	DB	0f8H
	DB	0ffH
	DB	0f8H
	DB	0fcH
	DB	0f8H
	DB	0ffH
	DB	0f8H
	DB	0fcH
	DB	0f8H
	DB	0ffH
	DB	0f8H
	DB	0fcH
	DB	0f8H
	DB	0ffH
	DB	0f8H
	DB	0fcH
	DB	0f8H
	DB	0ffH
	DB	0f8H
	DB	0fcH
	DB	0f8H
	DB	0ffH
	DB	0f8H
	DB	0fcH
	DB	0f8H
	DB	0ffH
	DB	0f8H
	DB	0fcH
	DB	0f8H
	DB	0ffH
	DB	0f8H
	DB	0fcH
	DB	0f8H
	DB	0ffH
	DB	0f8H
	DB	0fcH
	DB	0f8H
	DB	0ffH
	DB	0f8H
	DB	0fcH
	DB	0f8H
	DB	0ffH
	DB	0f8H
	DB	0fcH
	DB	0f8H
	DB	0ffH
	DB	0f8H
	DB	0fcH
	DB	0f8H
	DB	0ffH
	DB	0f8H
	DB	0fcH
	DB	0f8H
	DB	0ffH
	DB	0f8H
	DB	0fcH
	DB	0f8H
	DB	0ffH
	DB	0f8H
	DB	0fcH
	DB	0f8H
	DB	0ffH
	DB	0f8H
	DB	0fcH
	DB	0f8H
	DB	0ffH
	DB	0f8H
	DB	0fcH
	DB	0f8H
	DB	0ffH
	DB	0f8H
	DB	0fcH
	DB	0f8H
	DB	0ffH
	DB	0f8H
	DB	0fcH
	DB	0f8H
	DB	0ffH
	DB	0f8H
	DB	0fcH
	DB	0f8H
	DB	0ffH
	DB	0f8H
	DB	0fcH
	DB	0f8H
	DB	0ffH
	DB	0f8H
	DB	0fcH
	DB	0f8H
	DB	0ffH
	DB	0f8H
	DB	0fcH
	DB	0f8H
	DB	0ffH
	DB	0f8H
	DB	0fcH
	DB	0f8H
	DB	0ffH
	DB	0f8H
	DB	0fcH
	DB	0f8H
	DB	0ffH
	DB	0f8H
	DB	0fcH
	DB	0f8H
	DB	0ffH
	DB	0f8H
	DB	0fcH
	DB	0f8H
	DB	0ffH
	DB	0f8H
	DB	0fcH
	DB	0f8H
	DB	0ffH
	DB	0f8H
	DB	0fcH
	DB	0f8H
	DB	0ffH
	DB	0b8H
	DB	0b8H
	DB	0b0H
	DB	0ffH
	DB	078H
	DB	068H
	DB	058H
	DB	0ffH
	DB	078H
	DB	068H
	DB	058H
	DB	0ffH
	DB	0b8H
	DB	0b8H
	DB	0b0H
	DB	0ffH
	DB	0f8H
	DB	0fcH
	DB	0f8H
	DB	0ffH
	DB	0f8H
	DB	0fcH
	DB	0f8H
	DB	0ffH
	DB	0c0H
	DB	0b8H
	DB	0b0H
	DB	0ffH
	DB	090H
	DB	084H
	DB	080H
	DB	0ffH
	DB	0f8H
	DB	0fcH
	DB	0f8H
	DB	0ffH
	DB	0f8H
	DB	0fcH
	DB	0f8H
	DB	0ffH
	DB	0f8H
	DB	0fcH
	DB	0f8H
	DB	0ffH
	DB	0f8H
	DB	0fcH
	DB	0f8H
	DB	0ffH
	DB	0f8H
	DB	0fcH
	DB	0f8H
	DB	0ffH
	DB	0f8H
	DB	0fcH
	DB	0f8H
	DB	0ffH
	DB	0f8H
	DB	0fcH
	DB	0f8H
	DB	0ffH
	DB	0f8H
	DB	0fcH
	DB	0f8H
	DB	0ffH
	DB	0f8H
	DB	0fcH
	DB	0f8H
	DB	0ffH
	DB	0f8H
	DB	0fcH
	DB	0f8H
	DB	0ffH
	DB	0f8H
	DB	0fcH
	DB	0f8H
	DB	0ffH
	DB	0e0H
	DB	0ccH
	DB	0b8H
	DB	0ffH
	DB	0d0H
	DB	0b0H
	DB	088H
	DB	0ffH
	DB	0c8H
	DB	0b0H
	DB	088H
	DB	069H
	DB	0d0H
	DB	0b0H
	DB	088H
	DB	0a2H
	DB	0d0H
	DB	0b4H
	DB	088H
	DB	0ffH
	DB	0c8H
	DB	0b0H
	DB	090H
	DB	0ffH
	DB	0d0H
	DB	0b0H
	DB	088H
	DB	0ffH
	DB	0d0H
	DB	0b0H
	DB	090H
	DB	0ffH
	DB	0d0H
	DB	0b4H
	DB	088H
	DB	0ffH
	DB	0c8H
	DB	0b0H
	DB	088H
	DB	0ffH
	DB	0d0H
	DB	0b0H
	DB	090H
	DB	0ffH
	DB	0c8H
	DB	0b0H
	DB	088H
	DB	0ffH
	DB	0c8H
	DB	0acH
	DB	088H
	DB	0ffH
	DB	0c8H
	DB	0a8H
	DB	080H
	DB	0ffH
	DB	0c0H
	DB	09cH
	DB	078H
	DB	0ffH
	DB	0f0H
	DB	0e0H
	DB	0d0H
	DB	0ffH
	DB	0f8H
	DB	0fcH
	DB	0f8H
	DB	0ffH
	DB	0f8H
	DB	0fcH
	DB	0f8H
	DB	0ffH
	DB	0e8H
	DB	0d8H
	DB	0c8H
	DB	0ffH
	DB	0c0H
	DB	09cH
	DB	070H
	DB	0ffH
	DB	0c0H
	DB	0a0H
	DB	078H
	DB	0ffH
	DB	0c0H
	DB	0a0H
	DB	078H
	DB	0ffH
	DB	0c0H
	DB	09cH
	DB	078H
	DB	0ffH
	DB	0e8H
	DB	0dcH
	DB	0d0H
	DB	0ffH
	DB	0f8H
	DB	0fcH
	DB	0f8H
	DB	0ffH
	DB	0f8H
	DB	0fcH
	DB	0f8H
	DB	0ffH
	DB	0e8H
	DB	0e0H
	DB	0d0H
	DB	0ffH
	DB	0c0H
	DB	0a0H
	DB	078H
	DB	0ffH
	DB	0c8H
	DB	0a8H
	DB	080H
	DB	0ffH
	DB	0c8H
	DB	0acH
	DB	088H
	DB	0ffH
	DB	0c8H
	DB	0b0H
	DB	088H
	DB	0ffH
	DB	0d0H
	DB	0b0H
	DB	088H
	DB	0ffH
	DB	0d0H
	DB	0b4H
	DB	090H
	DB	0ffH
	DB	0d0H
	DB	0b4H
	DB	088H
	DB	0ffH
	DB	0c8H
	DB	0b0H
	DB	090H
	DB	0ffH
	DB	0d0H
	DB	0b0H
	DB	088H
	DB	0ffH
	DB	0d0H
	DB	0b0H
	DB	088H
	DB	0ffH
	DB	0d0H
	DB	0b0H
	DB	088H
	DB	0ffH
	DB	0e0H
	DB	0ccH
	DB	0b8H
	DB	0ffH
	DB	0f8H
	DB	0fcH
	DB	0f8H
	DB	0ffH
	DB	0f8H
	DB	0fcH
	DB	0f8H
	DB	0ffH
	DB	0f8H
	DB	0fcH
	DB	0f8H
	DB	0ffH
	DB	0f8H
	DB	0fcH
	DB	0f8H
	DB	0ffH
	DB	0f8H
	DB	0fcH
	DB	0f8H
	DB	0ffH
	DB	0f8H
	DB	0fcH
	DB	0f8H
	DB	0ffH
	DB	0f8H
	DB	0fcH
	DB	0f8H
	DB	0ffH
	DB	0f8H
	DB	0fcH
	DB	0f8H
	DB	0ffH
	DB	0f8H
	DB	0fcH
	DB	0f8H
	DB	0ffH
	DB	0f8H
	DB	0fcH
	DB	0f8H
	DB	0ffH
	DB	0f8H
	DB	0fcH
	DB	0f8H
	DB	0ffH
	DB	0f8H
	DB	0fcH
	DB	0f8H
	DB	0ffH
	DB	0f8H
	DB	0fcH
	DB	0f8H
	DB	0ffH
	DB	0f8H
	DB	0fcH
	DB	0f8H
	DB	0ffH
	DB	0f8H
	DB	0fcH
	DB	0f8H
	DB	0ffH
	DB	0f8H
	DB	0fcH
	DB	0f8H
	DB	0ffH
	DB	0f8H
	DB	0fcH
	DB	0f8H
	DB	0ffH
	DB	0f8H
	DB	0fcH
	DB	0f8H
	DB	0ffH
	DB	0f8H
	DB	0fcH
	DB	0f8H
	DB	0ffH
	DB	0f8H
	DB	0fcH
	DB	0f8H
	DB	0ffH
	DB	0f8H
	DB	0fcH
	DB	0f8H
	DB	0ffH
	DB	0f8H
	DB	0fcH
	DB	0f8H
	DB	0ffH
	DB	0f8H
	DB	0fcH
	DB	0f8H
	DB	0ffH
	DB	0f8H
	DB	0fcH
	DB	0f8H
	DB	0ffH
	DB	0f8H
	DB	0fcH
	DB	0f8H
	DB	0ffH
	DB	0f8H
	DB	0fcH
	DB	0f8H
	DB	0ffH
	DB	0f8H
	DB	0fcH
	DB	0f8H
	DB	0ffH
	DB	0f8H
	DB	0fcH
	DB	0f8H
	DB	0ffH
	DB	0f8H
	DB	0fcH
	DB	0f8H
	DB	0ffH
	DB	0f8H
	DB	0fcH
	DB	0f8H
	DB	0ffH
	DB	0f8H
	DB	0fcH
	DB	0f8H
	DB	0ffH
	DB	0f8H
	DB	0fcH
	DB	0f8H
	DB	0ffH
	DB	0f8H
	DB	0fcH
	DB	0f8H
	DB	0ffH
	DB	0f8H
	DB	0fcH
	DB	0f8H
	DB	0ffH
	DB	0f8H
	DB	0fcH
	DB	0f8H
	DB	0ffH
	DB	0f8H
	DB	0fcH
	DB	0f8H
	DB	0ffH
	DB	0f8H
	DB	0fcH
	DB	0f8H
	DB	0ffH
	DB	0f8H
	DB	0fcH
	DB	0f8H
	DB	0ffH
	DB	0f8H
	DB	0fcH
	DB	0f8H
	DB	0ffH
	DB	0f8H
	DB	0fcH
	DB	0f8H
	DB	0ffH
	DB	0f8H
	DB	0fcH
	DB	0f8H
	DB	0ffH
	DB	0f8H
	DB	0f4H
	DB	0f8H
	DB	0ffH
	DB	058H
	DB	040H
	DB	030H
	DB	0ffH
	DB	0a8H
	DB	0a0H
	DB	098H
	DB	0ffH
	DB	098H
	DB	090H
	DB	088H
	DB	0ffH
	DB	068H
	DB	054H
	DB	048H
	DB	0ffH
	DB	0f8H
	DB	0fcH
	DB	0f8H
	DB	0ffH
	DB	0f8H
	DB	0f4H
	DB	0f8H
	DB	0ffH
	DB	068H
	DB	054H
	DB	048H
	DB	0ffH
	DB	0b8H
	DB	0b8H
	DB	0b0H
	DB	0ffH
	DB	0f8H
	DB	0fcH
	DB	0f8H
	DB	0ffH
	DB	0f8H
	DB	0fcH
	DB	0f8H
	DB	0ffH
	DB	0f8H
	DB	0fcH
	DB	0f8H
	DB	0ffH
	DB	0f8H
	DB	0fcH
	DB	0f8H
	DB	0ffH
	DB	0f8H
	DB	0fcH
	DB	0f8H
	DB	0ffH
	DB	0f8H
	DB	0fcH
	DB	0f8H
	DB	0ffH
	DB	0f8H
	DB	0fcH
	DB	0f8H
	DB	0ffH
	DB	0f8H
	DB	0fcH
	DB	0f8H
	DB	0ffH
	DB	0f8H
	DB	0fcH
	DB	0f8H
	DB	0ffH
	DB	0f8H
	DB	0fcH
	DB	0f8H
	DB	0ffH
	DB	0f8H
	DB	0fcH
	DB	0f8H
	DB	0ffH
	DB	0e8H
	DB	0e0H
	DB	0d0H
	DB	0ffH
	DB	0d0H
	DB	0b0H
	DB	088H
	DB	0ffH
	DB	0d0H
	DB	0b0H
	DB	090H
	DB	0a2H
	DB	0d0H
	DB	0b0H
	DB	088H
	DB	0cfH
	DB	0d0H
	DB	0b0H
	DB	090H
	DB	0ffH
	DB	0d0H
	DB	0b4H
	DB	088H
	DB	0ffH
	DB	0d0H
	DB	0b0H
	DB	088H
	DB	0ffH
	DB	0d0H
	DB	0b0H
	DB	090H
	DB	0ffH
	DB	0d0H
	DB	0b0H
	DB	088H
	DB	0ffH
	DB	0d0H
	DB	0b4H
	DB	088H
	DB	0ffH
	DB	0d0H
	DB	0b0H
	DB	088H
	DB	0ffH
	DB	0c8H
	DB	0b0H
	DB	088H
	DB	0ffH
	DB	0c8H
	DB	0acH
	DB	080H
	DB	0ffH
	DB	0c8H
	DB	0a0H
	DB	078H
	DB	0ffH
	DB	0d8H
	DB	0c4H
	DB	0a8H
	DB	0ffH
	DB	0f8H
	DB	0fcH
	DB	0f8H
	DB	0ffH
	DB	0f8H
	DB	0fcH
	DB	0f8H
	DB	0ffH
	DB	0f8H
	DB	0f4H
	DB	0f0H
	DB	0ffH
	DB	0c0H
	DB	0a0H
	DB	078H
	DB	0ffH
	DB	0c0H
	DB	0a0H
	DB	078H
	DB	0ffH
	DB	0c8H
	DB	0a8H
	DB	080H
	DB	0ffH
	DB	0c8H
	DB	0a8H
	DB	080H
	DB	0ffH
	DB	0c8H
	DB	0a4H
	DB	078H
	DB	0ffH
	DB	0c0H
	DB	0a4H
	DB	080H
	DB	0ffH
	DB	0f8H
	DB	0f4H
	DB	0f0H
	DB	0ffH
	DB	0f8H
	DB	0fcH
	DB	0f8H
	DB	0ffH
	DB	0f8H
	DB	0fcH
	DB	0f8H
	DB	0ffH
	DB	0d8H
	DB	0c0H
	DB	0a8H
	DB	0ffH
	DB	0c0H
	DB	0a0H
	DB	078H
	DB	0ffH
	DB	0c8H
	DB	0acH
	DB	080H
	DB	0ffH
	DB	0d0H
	DB	0b0H
	DB	088H
	DB	0ffH
	DB	0d0H
	DB	0b0H
	DB	088H
	DB	0ffH
	DB	0d0H
	DB	0b0H
	DB	090H
	DB	0ffH
	DB	0c8H
	DB	0b0H
	DB	088H
	DB	0ffH
	DB	0d0H
	DB	0b4H
	DB	088H
	DB	0ffH
	DB	0d0H
	DB	0b0H
	DB	090H
	DB	0ffH
	DB	0c8H
	DB	0b4H
	DB	090H
	DB	0ffH
	DB	0d0H
	DB	0b4H
	DB	088H
	DB	0ffH
	DB	0d8H
	DB	0c0H
	DB	0a0H
	DB	0ffH
	DB	0f8H
	DB	0fcH
	DB	0f8H
	DB	0ffH
	DB	0f8H
	DB	0fcH
	DB	0f8H
	DB	0ffH
	DB	0f8H
	DB	0fcH
	DB	0f8H
	DB	0ffH
	DB	0f8H
	DB	0fcH
	DB	0f8H
	DB	0ffH
	DB	0f8H
	DB	0fcH
	DB	0f8H
	DB	0ffH
	DB	0f8H
	DB	0fcH
	DB	0f8H
	DB	0ffH
	DB	0f8H
	DB	0fcH
	DB	0f8H
	DB	0ffH
	DB	0f8H
	DB	0fcH
	DB	0f8H
	DB	0ffH
	DB	0f8H
	DB	0fcH
	DB	0f8H
	DB	0ffH
	DB	0f8H
	DB	0fcH
	DB	0f8H
	DB	0ffH
	DB	0f8H
	DB	0fcH
	DB	0f8H
	DB	0ffH
	DB	0f8H
	DB	0fcH
	DB	0f8H
	DB	0ffH
	DB	0f8H
	DB	0fcH
	DB	0f8H
	DB	0ffH
	DB	0f8H
	DB	0fcH
	DB	0f8H
	DB	0ffH
	DB	0f8H
	DB	0fcH
	DB	0f8H
	DB	0ffH
	DB	0f8H
	DB	0fcH
	DB	0f8H
	DB	0ffH
	DB	0f8H
	DB	0fcH
	DB	0f8H
	DB	0ffH
	DB	0f8H
	DB	0fcH
	DB	0f8H
	DB	0ffH
	DB	0f8H
	DB	0fcH
	DB	0f8H
	DB	0ffH
	DB	0f8H
	DB	0fcH
	DB	0f8H
	DB	0ffH
	DB	0f8H
	DB	0fcH
	DB	0f8H
	DB	0ffH
	DB	0f8H
	DB	0fcH
	DB	0f8H
	DB	0ffH
	DB	0f8H
	DB	0fcH
	DB	0f8H
	DB	0ffH
	DB	0f8H
	DB	0fcH
	DB	0f8H
	DB	0ffH
	DB	0f8H
	DB	0fcH
	DB	0f8H
	DB	0ffH
	DB	0f8H
	DB	0fcH
	DB	0f8H
	DB	0ffH
	DB	0f8H
	DB	0fcH
	DB	0f8H
	DB	0ffH
	DB	0f8H
	DB	0fcH
	DB	0f8H
	DB	0ffH
	DB	0f8H
	DB	0fcH
	DB	0f8H
	DB	0ffH
	DB	0f8H
	DB	0fcH
	DB	0f8H
	DB	0ffH
	DB	0f8H
	DB	0fcH
	DB	0f8H
	DB	0ffH
	DB	0f8H
	DB	0fcH
	DB	0f8H
	DB	0ffH
	DB	0f8H
	DB	0fcH
	DB	0f8H
	DB	0ffH
	DB	0f8H
	DB	0fcH
	DB	0f8H
	DB	0ffH
	DB	0f8H
	DB	0fcH
	DB	0f8H
	DB	0ffH
	DB	0f8H
	DB	0fcH
	DB	0f8H
	DB	0ffH
	DB	0f8H
	DB	0fcH
	DB	0f8H
	DB	0ffH
	DB	0f8H
	DB	0fcH
	DB	0f8H
	DB	0ffH
	DB	0f8H
	DB	0fcH
	DB	0f8H
	DB	0ffH
	DB	0f8H
	DB	0fcH
	DB	0f8H
	DB	0ffH
	DB	0f8H
	DB	0fcH
	DB	0f8H
	DB	0ffH
	DB	0f8H
	DB	0f4H
	DB	0f8H
	DB	0ffH
	DB	058H
	DB	040H
	DB	030H
	DB	0ffH
	DB	0d0H
	DB	0ccH
	DB	0c8H
	DB	0ffH
	DB	0c0H
	DB	0b8H
	DB	0b0H
	DB	0ffH
	DB	058H
	DB	040H
	DB	030H
	DB	0ffH
	DB	0f8H
	DB	0f4H
	DB	0f8H
	DB	0ffH
	DB	098H
	DB	094H
	DB	088H
	DB	0ffH
	DB	078H
	DB	068H
	DB	058H
	DB	0ffH
	DB	0f8H
	DB	0fcH
	DB	0f8H
	DB	0ffH
	DB	0f8H
	DB	0fcH
	DB	0f8H
	DB	0ffH
	DB	0f8H
	DB	0fcH
	DB	0f8H
	DB	0ffH
	DB	0f8H
	DB	0fcH
	DB	0f8H
	DB	0ffH
	DB	0f8H
	DB	0fcH
	DB	0f8H
	DB	0ffH
	DB	0f8H
	DB	0fcH
	DB	0f8H
	DB	0ffH
	DB	0f8H
	DB	0fcH
	DB	0f8H
	DB	0ffH
	DB	0f8H
	DB	0fcH
	DB	0f8H
	DB	0ffH
	DB	0f8H
	DB	0fcH
	DB	0f8H
	DB	0ffH
	DB	0f8H
	DB	0fcH
	DB	0f8H
	DB	0ffH
	DB	0f8H
	DB	0fcH
	DB	0f8H
	DB	0ffH
	DB	0f8H
	DB	0fcH
	DB	0f8H
	DB	0ffH
	DB	0f0H
	DB	0f0H
	DB	0e8H
	DB	0ffH
	DB	0d0H
	DB	0b0H
	DB	088H
	DB	0ffH
	DB	0d0H
	DB	0b0H
	DB	088H
	DB	0cfH
	DB	0d0H
	DB	0b0H
	DB	088H
	DB	0ebH
	DB	0c8H
	DB	0b0H
	DB	090H
	DB	0ffH
	DB	0d0H
	DB	0b0H
	DB	088H
	DB	0ffH
	DB	0c8H
	DB	0b4H
	DB	088H
	DB	0ffH
	DB	0c8H
	DB	0b0H
	DB	090H
	DB	0ffH
	DB	0d0H
	DB	0b0H
	DB	090H
	DB	0ffH
	DB	0d0H
	DB	0b0H
	DB	088H
	DB	0ffH
	DB	0c8H
	DB	0b0H
	DB	088H
	DB	0ffH
	DB	0c8H
	DB	0acH
	DB	088H
	DB	0ffH
	DB	0c8H
	DB	0a8H
	DB	080H
	DB	0ffH
	DB	0c8H
	DB	0a8H
	DB	080H
	DB	0ffH
	DB	0f8H
	DB	0f8H
	DB	0f8H
	DB	0ffH
	DB	0f8H
	DB	0fcH
	DB	0f8H
	DB	0ffH
	DB	0f8H
	DB	0fcH
	DB	0f8H
	DB	0ffH
	DB	0d0H
	DB	0b4H
	DB	090H
	DB	0ffH
	DB	0c0H
	DB	098H
	DB	070H
	DB	0ffH
	DB	0c0H
	DB	0a4H
	DB	078H
	DB	0ffH
	DB	0c8H
	DB	0a8H
	DB	080H
	DB	0ffH
	DB	0c8H
	DB	0acH
	DB	088H
	DB	0ffH
	DB	0c8H
	DB	0a8H
	DB	080H
	DB	0ffH
	DB	0c0H
	DB	0a0H
	DB	078H
	DB	0ffH
	DB	0d0H
	DB	0b8H
	DB	098H
	DB	0ffH
	DB	0f8H
	DB	0fcH
	DB	0f8H
	DB	0ffH
	DB	0f8H
	DB	0fcH
	DB	0f8H
	DB	0ffH
	DB	0f8H
	DB	0f8H
	DB	0f8H
	DB	0ffH
	DB	0c8H
	DB	0a8H
	DB	080H
	DB	0ffH
	DB	0c8H
	DB	0a4H
	DB	080H
	DB	0ffH
	DB	0c8H
	DB	0acH
	DB	088H
	DB	0ffH
	DB	0c8H
	DB	0b0H
	DB	088H
	DB	0ffH
	DB	0d0H
	DB	0b0H
	DB	088H
	DB	0ffH
	DB	0d0H
	DB	0b0H
	DB	090H
	DB	0ffH
	DB	0d0H
	DB	0b0H
	DB	088H
	DB	0ffH
	DB	0d0H
	DB	0b0H
	DB	088H
	DB	0ffH
	DB	0c8H
	DB	0b0H
	DB	090H
	DB	0ffH
	DB	0d0H
	DB	0b0H
	DB	088H
	DB	0ffH
	DB	0d0H
	DB	0b8H
	DB	098H
	DB	0ffH
	DB	0f8H
	DB	0fcH
	DB	0f8H
	DB	0ffH
	DB	0f8H
	DB	0fcH
	DB	0f8H
	DB	0ffH
	DB	0f8H
	DB	0fcH
	DB	0f8H
	DB	0ffH
	DB	0f8H
	DB	0fcH
	DB	0f8H
	DB	0ffH
	DB	0f8H
	DB	0fcH
	DB	0f8H
	DB	0ffH
	DB	0f8H
	DB	0fcH
	DB	0f8H
	DB	0ffH
	DB	0f8H
	DB	0fcH
	DB	0f8H
	DB	0ffH
	DB	0f8H
	DB	0fcH
	DB	0f8H
	DB	0ffH
	DB	0f8H
	DB	0fcH
	DB	0f8H
	DB	0ffH
	DB	0f8H
	DB	0fcH
	DB	0f8H
	DB	0ffH
	DB	0f8H
	DB	0fcH
	DB	0f8H
	DB	0ffH
	DB	0f8H
	DB	0fcH
	DB	0f8H
	DB	0ffH
	DB	0f8H
	DB	0fcH
	DB	0f8H
	DB	0ffH
	DB	0f8H
	DB	0fcH
	DB	0f8H
	DB	0ffH
	DB	0f8H
	DB	0fcH
	DB	0f8H
	DB	0ffH
	DB	0f8H
	DB	0fcH
	DB	0f8H
	DB	0ffH
	DB	0f8H
	DB	0fcH
	DB	0f8H
	DB	0ffH
	DB	0f8H
	DB	0fcH
	DB	0f8H
	DB	0ffH
	DB	0f8H
	DB	0fcH
	DB	0f8H
	DB	0ffH
	DB	0f8H
	DB	0fcH
	DB	0f8H
	DB	0ffH
	DB	0f8H
	DB	0fcH
	DB	0f8H
	DB	0ffH
	DB	0f8H
	DB	0fcH
	DB	0f8H
	DB	0ffH
	DB	0f8H
	DB	0fcH
	DB	0f8H
	DB	0ffH
	DB	0f8H
	DB	0fcH
	DB	0f8H
	DB	0ffH
	DB	0f8H
	DB	0fcH
	DB	0f8H
	DB	0ffH
	DB	0f8H
	DB	0fcH
	DB	0f8H
	DB	0ffH
	DB	0f8H
	DB	0fcH
	DB	0f8H
	DB	0ffH
	DB	0f8H
	DB	0fcH
	DB	0f8H
	DB	0ffH
	DB	0f8H
	DB	0fcH
	DB	0f8H
	DB	0ffH
	DB	0f8H
	DB	0fcH
	DB	0f8H
	DB	0ffH
	DB	0f8H
	DB	0fcH
	DB	0f8H
	DB	0ffH
	DB	0f8H
	DB	0fcH
	DB	0f8H
	DB	0ffH
	DB	0f8H
	DB	0fcH
	DB	0f8H
	DB	0ffH
	DB	0f8H
	DB	0fcH
	DB	0f8H
	DB	0ffH
	DB	0f8H
	DB	0fcH
	DB	0f8H
	DB	0ffH
	DB	0f8H
	DB	0fcH
	DB	0f8H
	DB	0ffH
	DB	0f8H
	DB	0fcH
	DB	0f8H
	DB	0ffH
	DB	0f8H
	DB	0fcH
	DB	0f8H
	DB	0ffH
	DB	0f8H
	DB	0fcH
	DB	0f8H
	DB	0ffH
	DB	0f8H
	DB	0fcH
	DB	0f8H
	DB	0ffH
	DB	0f8H
	DB	0fcH
	DB	0f8H
	DB	0ffH
	DB	0f8H
	DB	0fcH
	DB	0f8H
	DB	0ffH
	DB	068H
	DB	054H
	DB	048H
	DB	0ffH
	DB	098H
	DB	094H
	DB	088H
	DB	0ffH
	DB	098H
	DB	094H
	DB	088H
	DB	0ffH
	DB	068H
	DB	054H
	DB	048H
	DB	0ffH
	DB	0e0H
	DB	0e0H
	DB	0e0H
	DB	0ffH
	DB	058H
	DB	040H
	DB	030H
	DB	0ffH
	DB	0d0H
	DB	0ccH
	DB	0c8H
	DB	0ffH
	DB	0f8H
	DB	0fcH
	DB	0f8H
	DB	0ffH
	DB	0f8H
	DB	0fcH
	DB	0f8H
	DB	0ffH
	DB	0f8H
	DB	0fcH
	DB	0f8H
	DB	0ffH
	DB	0f8H
	DB	0fcH
	DB	0f8H
	DB	0ffH
	DB	0f8H
	DB	0fcH
	DB	0f8H
	DB	0ffH
	DB	0f8H
	DB	0fcH
	DB	0f8H
	DB	0ffH
	DB	0f8H
	DB	0fcH
	DB	0f8H
	DB	0ffH
	DB	0f8H
	DB	0fcH
	DB	0f8H
	DB	0ffH
	DB	0f8H
	DB	0fcH
	DB	0f8H
	DB	0ffH
	DB	0f8H
	DB	0fcH
	DB	0f8H
	DB	0ffH
	DB	0f8H
	DB	0fcH
	DB	0f8H
	DB	0ffH
	DB	0f8H
	DB	0fcH
	DB	0f8H
	DB	0ffH
	DB	0f8H
	DB	0f8H
	DB	0f8H
	DB	0ffH
	DB	0d0H
	DB	0b4H
	DB	088H
	DB	0ffH
	DB	0d0H
	DB	0b0H
	DB	088H
	DB	0ebH
	DB	0d0H
	DB	0b0H
	DB	088H
	DB	0f7H
	DB	0d0H
	DB	0b0H
	DB	088H
	DB	0ffH
	DB	0d0H
	DB	0b0H
	DB	090H
	DB	0ffH
	DB	0d0H
	DB	0b0H
	DB	088H
	DB	0ffH
	DB	0d0H
	DB	0b4H
	DB	088H
	DB	0ffH
	DB	0d0H
	DB	0b0H
	DB	090H
	DB	0ffH
	DB	0d0H
	DB	0b0H
	DB	088H
	DB	0ffH
	DB	0c8H
	DB	0b0H
	DB	088H
	DB	0ffH
	DB	0c8H
	DB	0acH
	DB	088H
	DB	0ffH
	DB	0c8H
	DB	0a0H
	DB	078H
	DB	0ffH
	DB	0e0H
	DB	0ccH
	DB	0b8H
	DB	0ffH
	DB	0f8H
	DB	0fcH
	DB	0f8H
	DB	0ffH
	DB	0f8H
	DB	0fcH
	DB	0f8H
	DB	0ffH
	DB	0e0H
	DB	0d8H
	DB	0c8H
	DB	0ffH
	DB	0b8H
	DB	094H
	DB	068H
	DB	0ffH
	DB	0e0H
	DB	0ccH
	DB	0b8H
	DB	0ffH
	DB	0f0H
	DB	0e8H
	DB	0e0H
	DB	0ffH
	DB	0c8H
	DB	0a8H
	DB	080H
	DB	0ffH
	DB	0c8H
	DB	0acH
	DB	088H
	DB	0ffH
	DB	0c8H
	DB	0acH
	DB	088H
	DB	0ffH
	DB	0c8H
	DB	0a4H
	DB	080H
	DB	0ffH
	DB	0c0H
	DB	09cH
	DB	070H
	DB	0ffH
	DB	0e8H
	DB	0dcH
	DB	0c8H
	DB	0ffH
	DB	0f8H
	DB	0fcH
	DB	0f8H
	DB	0ffH
	DB	0f8H
	DB	0fcH
	DB	0f8H
	DB	0ffH
	DB	0e0H
	DB	0ccH
	DB	0b8H
	DB	0ffH
	DB	0c8H
	DB	0a4H
	DB	078H
	DB	0ffH
	DB	0c8H
	DB	0acH
	DB	088H
	DB	0ffH
	DB	0d0H
	DB	0b0H
	DB	088H
	DB	0ffH
	DB	0d0H
	DB	0b0H
	DB	088H
	DB	0ffH
	DB	0c8H
	DB	0b4H
	DB	090H
	DB	0ffH
	DB	0d0H
	DB	0b0H
	DB	088H
	DB	0ffH
	DB	0d0H
	DB	0b0H
	DB	088H
	DB	0ffH
	DB	0d0H
	DB	0b0H
	DB	088H
	DB	0ffH
	DB	0d0H
	DB	0b0H
	DB	090H
	DB	0ffH
	DB	0d0H
	DB	0b4H
	DB	090H
	DB	0ffH
	DB	0f8H
	DB	0fcH
	DB	0f8H
	DB	0ffH
	DB	0f8H
	DB	0fcH
	DB	0f8H
	DB	0ffH
	DB	0f8H
	DB	0fcH
	DB	0f8H
	DB	0ffH
	DB	0f8H
	DB	0fcH
	DB	0f8H
	DB	0ffH
	DB	0f8H
	DB	0fcH
	DB	0f8H
	DB	0ffH
	DB	0f8H
	DB	0fcH
	DB	0f8H
	DB	0ffH
	DB	0f8H
	DB	0fcH
	DB	0f8H
	DB	0ffH
	DB	0f8H
	DB	0fcH
	DB	0f8H
	DB	0ffH
	DB	0f8H
	DB	0fcH
	DB	0f8H
	DB	0ffH
	DB	0f8H
	DB	0fcH
	DB	0f8H
	DB	0ffH
	DB	0f8H
	DB	0fcH
	DB	0f8H
	DB	0ffH
	DB	0f8H
	DB	0fcH
	DB	0f8H
	DB	0ffH
	DB	0f8H
	DB	0fcH
	DB	0f8H
	DB	0ffH
	DB	0f8H
	DB	0fcH
	DB	0f8H
	DB	0ffH
	DB	0f8H
	DB	0fcH
	DB	0f8H
	DB	0ffH
	DB	0f8H
	DB	0fcH
	DB	0f8H
	DB	0ffH
	DB	0f8H
	DB	0fcH
	DB	0f8H
	DB	0ffH
	DB	0f8H
	DB	0fcH
	DB	0f8H
	DB	0ffH
	DB	0f8H
	DB	0fcH
	DB	0f8H
	DB	0ffH
	DB	0f8H
	DB	0fcH
	DB	0f8H
	DB	0ffH
	DB	0f8H
	DB	0fcH
	DB	0f8H
	DB	0ffH
	DB	0f8H
	DB	0fcH
	DB	0f8H
	DB	0ffH
	DB	0f8H
	DB	0fcH
	DB	0f8H
	DB	0ffH
	DB	0f8H
	DB	0fcH
	DB	0f8H
	DB	0ffH
	DB	0f8H
	DB	0fcH
	DB	0f8H
	DB	0ffH
	DB	0f8H
	DB	0fcH
	DB	0f8H
	DB	0ffH
	DB	0f8H
	DB	0fcH
	DB	0f8H
	DB	0ffH
	DB	0f8H
	DB	0fcH
	DB	0f8H
	DB	0ffH
	DB	0f8H
	DB	0fcH
	DB	0f8H
	DB	0ffH
	DB	0f8H
	DB	0fcH
	DB	0f8H
	DB	0ffH
	DB	0f8H
	DB	0fcH
	DB	0f8H
	DB	0ffH
	DB	0f8H
	DB	0fcH
	DB	0f8H
	DB	0ffH
	DB	0f8H
	DB	0fcH
	DB	0f8H
	DB	0ffH
	DB	0f8H
	DB	0fcH
	DB	0f8H
	DB	0ffH
	DB	0f8H
	DB	0fcH
	DB	0f8H
	DB	0ffH
	DB	0f8H
	DB	0fcH
	DB	0f8H
	DB	0ffH
	DB	0f8H
	DB	0fcH
	DB	0f8H
	DB	0ffH
	DB	0f8H
	DB	0fcH
	DB	0f8H
	DB	0ffH
	DB	0f8H
	DB	0fcH
	DB	0f8H
	DB	0ffH
	DB	0f8H
	DB	0fcH
	DB	0f8H
	DB	0ffH
	DB	0f8H
	DB	0fcH
	DB	0f8H
	DB	0ffH
	DB	0f8H
	DB	0fcH
	DB	0f8H
	DB	0ffH
	DB	0c8H
	DB	0c4H
	DB	0c0H
	DB	0ffH
	DB	080H
	DB	074H
	DB	068H
	DB	0ffH
	DB	088H
	DB	074H
	DB	070H
	DB	0ffH
	DB	0d8H
	DB	0d8H
	DB	0d8H
	DB	0ffH
	DB	090H
	DB	084H
	DB	078H
	DB	0ffH
	DB	090H
	DB	084H
	DB	078H
	DB	0ffH
	DB	0f8H
	DB	0fcH
	DB	0f8H
	DB	0ffH
	DB	0f8H
	DB	0fcH
	DB	0f8H
	DB	0ffH
	DB	0f8H
	DB	0fcH
	DB	0f8H
	DB	0ffH
	DB	0f8H
	DB	0fcH
	DB	0f8H
	DB	0ffH
	DB	0f8H
	DB	0fcH
	DB	0f8H
	DB	0ffH
	DB	0f8H
	DB	0fcH
	DB	0f8H
	DB	0ffH
	DB	0f8H
	DB	0fcH
	DB	0f8H
	DB	0ffH
	DB	0f8H
	DB	0fcH
	DB	0f8H
	DB	0ffH
	DB	0f8H
	DB	0fcH
	DB	0f8H
	DB	0ffH
	DB	0f8H
	DB	0fcH
	DB	0f8H
	DB	0ffH
	DB	0f8H
	DB	0fcH
	DB	0f8H
	DB	0ffH
	DB	0f8H
	DB	0fcH
	DB	0f8H
	DB	0ffH
	DB	0f8H
	DB	0fcH
	DB	0f8H
	DB	0ffH
	DB	0f8H
	DB	0fcH
	DB	0f8H
	DB	0ffH
	DB	0d0H
	DB	0b0H
	DB	090H
	DB	0ffH
	DB	0c8H
	DB	0b0H
	DB	088H
	DB	0fbH
	DB	0d0H
	DB	0b0H
	DB	088H
	DB	0fbH
	DB	0c8H
	DB	0b4H
	DB	090H
	DB	0ffH
	DB	0d0H
	DB	0b0H
	DB	088H
	DB	0ffH
	DB	0d0H
	DB	0b0H
	DB	088H
	DB	0ffH
	DB	0c8H
	DB	0b0H
	DB	090H
	DB	0ffH
	DB	0d0H
	DB	0b4H
	DB	088H
	DB	0ffH
	DB	0d0H
	DB	0b0H
	DB	088H
	DB	0ffH
	DB	0c8H
	DB	0b0H
	DB	088H
	DB	0ffH
	DB	0c8H
	DB	0a8H
	DB	080H
	DB	0ffH
	DB	0c0H
	DB	0a0H
	DB	078H
	DB	0ffH
	DB	0f0H
	DB	0ecH
	DB	0e0H
	DB	0ffH
	DB	0f8H
	DB	0fcH
	DB	0f8H
	DB	0ffH
	DB	0f8H
	DB	0fcH
	DB	0f8H
	DB	0ffH
	DB	0c8H
	DB	0a4H
	DB	088H
	DB	0ffH
	DB	0b8H
	DB	094H
	DB	068H
	DB	0ffH
	DB	0f8H
	DB	0f4H
	DB	0f0H
	DB	0ffH
	DB	0f0H
	DB	0e4H
	DB	0d8H
	DB	0ffH
	DB	0c8H
	DB	0a4H
	DB	080H
	DB	0ffH
	DB	0c8H
	DB	0acH
	DB	080H
	DB	0ffH
	DB	0d0H
	DB	0acH
	DB	088H
	DB	0ffH
	DB	0c8H
	DB	0a8H
	DB	080H
	DB	0ffH
	DB	0c8H
	DB	0a0H
	DB	078H
	DB	0ffH
	DB	0d0H
	DB	0b0H
	DB	090H
	DB	0ffH
	DB	0f8H
	DB	0fcH
	DB	0f8H
	DB	0ffH
	DB	0f8H
	DB	0fcH
	DB	0f8H
	DB	0ffH
	DB	0f0H
	DB	0ecH
	DB	0e0H
	DB	0ffH
	DB	0c0H
	DB	0a0H
	DB	078H
	DB	0ffH
	DB	0c8H
	DB	0a8H
	DB	080H
	DB	0ffH
	DB	0c8H
	DB	0b0H
	DB	088H
	DB	0ffH
	DB	0d0H
	DB	0b0H
	DB	090H
	DB	0ffH
	DB	0d0H
	DB	0b0H
	DB	088H
	DB	0ffH
	DB	0c8H
	DB	0b4H
	DB	090H
	DB	0ffH
	DB	0d0H
	DB	0b4H
	DB	088H
	DB	0ffH
	DB	0d0H
	DB	0b0H
	DB	088H
	DB	0ffH
	DB	0c8H
	DB	0b0H
	DB	088H
	DB	0ffH
	DB	0d0H
	DB	0b4H
	DB	090H
	DB	0ffH
	DB	0f8H
	DB	0fcH
	DB	0f8H
	DB	0ffH
	DB	0f8H
	DB	0fcH
	DB	0f8H
	DB	0ffH
	DB	0f8H
	DB	0fcH
	DB	0f8H
	DB	0ffH
	DB	0f8H
	DB	0fcH
	DB	0f8H
	DB	0ffH
	DB	0f8H
	DB	0fcH
	DB	0f8H
	DB	0ffH
	DB	0f8H
	DB	0fcH
	DB	0f8H
	DB	0ffH
	DB	0f8H
	DB	0fcH
	DB	0f8H
	DB	0ffH
	DB	0f8H
	DB	0fcH
	DB	0f8H
	DB	0ffH
	DB	0f8H
	DB	0fcH
	DB	0f8H
	DB	0ffH
	DB	0f8H
	DB	0fcH
	DB	0f8H
	DB	0ffH
	DB	0f8H
	DB	0fcH
	DB	0f8H
	DB	0ffH
	DB	0f8H
	DB	0fcH
	DB	0f8H
	DB	0ffH
	DB	0f8H
	DB	0fcH
	DB	0f8H
	DB	0ffH
	DB	0f8H
	DB	0fcH
	DB	0f8H
	DB	0ffH
	DB	0f8H
	DB	0fcH
	DB	0f8H
	DB	0ffH
	DB	0f8H
	DB	0fcH
	DB	0f8H
	DB	0ffH
	DB	0f8H
	DB	0fcH
	DB	0f8H
	DB	0ffH
	DB	0f8H
	DB	0fcH
	DB	0f8H
	DB	0ffH
	DB	0f8H
	DB	0fcH
	DB	0f8H
	DB	0ffH
	DB	0f8H
	DB	0fcH
	DB	0f8H
	DB	0ffH
	DB	0f8H
	DB	0fcH
	DB	0f8H
	DB	0ffH
	DB	0f8H
	DB	0fcH
	DB	0f8H
	DB	0ffH
	DB	0f8H
	DB	0fcH
	DB	0f8H
	DB	0ffH
	DB	0f8H
	DB	0fcH
	DB	0f8H
	DB	0ffH
	DB	0f8H
	DB	0fcH
	DB	0f8H
	DB	0ffH
	DB	0f8H
	DB	0fcH
	DB	0f8H
	DB	0ffH
	DB	0f8H
	DB	0fcH
	DB	0f8H
	DB	0ffH
	DB	0f8H
	DB	0fcH
	DB	0f8H
	DB	0ffH
	DB	0f8H
	DB	0fcH
	DB	0f8H
	DB	0ffH
	DB	0f8H
	DB	0fcH
	DB	0f8H
	DB	0ffH
	DB	0f8H
	DB	0fcH
	DB	0f8H
	DB	0ffH
	DB	0f8H
	DB	0fcH
	DB	0f8H
	DB	0ffH
	DB	0f8H
	DB	0fcH
	DB	0f8H
	DB	0ffH
	DB	0f8H
	DB	0fcH
	DB	0f8H
	DB	0ffH
	DB	0f8H
	DB	0fcH
	DB	0f8H
	DB	0ffH
	DB	0f8H
	DB	0fcH
	DB	0f8H
	DB	0ffH
	DB	0f8H
	DB	0fcH
	DB	0f8H
	DB	0ffH
	DB	0f8H
	DB	0fcH
	DB	0f8H
	DB	0ffH
	DB	0f8H
	DB	0fcH
	DB	0f8H
	DB	0ffH
	DB	0f8H
	DB	0fcH
	DB	0f8H
	DB	0ffH
	DB	0f8H
	DB	0fcH
	DB	0f8H
	DB	0ffH
	DB	0f8H
	DB	0fcH
	DB	0f8H
	DB	0ffH
	DB	0f8H
	DB	0fcH
	DB	0f8H
	DB	0ffH
	DB	0f8H
	DB	0fcH
	DB	0f8H
	DB	0ffH
	DB	0f8H
	DB	0fcH
	DB	0f8H
	DB	0ffH
	DB	0d0H
	DB	0ccH
	DB	0c8H
	DB	0ffH
	DB	058H
	DB	040H
	DB	030H
	DB	0ffH
	DB	0d0H
	DB	0ccH
	DB	0c8H
	DB	0ffH
	DB	0c0H
	DB	0b8H
	DB	0b0H
	DB	0ffH
	DB	0b0H
	DB	0acH
	DB	0a8H
	DB	0ffH
	DB	0c8H
	DB	0c4H
	DB	0c0H
	DB	0ffH
	DB	0f8H
	DB	0fcH
	DB	0f8H
	DB	0ffH
	DB	0f8H
	DB	0fcH
	DB	0f8H
	DB	0ffH
	DB	0f8H
	DB	0fcH
	DB	0f8H
	DB	0ffH
	DB	0f8H
	DB	0fcH
	DB	0f8H
	DB	0ffH
	DB	0f8H
	DB	0fcH
	DB	0f8H
	DB	0ffH
	DB	0f8H
	DB	0fcH
	DB	0f8H
	DB	0ffH
	DB	0f8H
	DB	0fcH
	DB	0f8H
	DB	0ffH
	DB	0f8H
	DB	0fcH
	DB	0f8H
	DB	0ffH
	DB	0f8H
	DB	0fcH
	DB	0f8H
	DB	0ffH
	DB	0f8H
	DB	0fcH
	DB	0f8H
	DB	0ffH
	DB	0f8H
	DB	0fcH
	DB	0f8H
	DB	0ffH
	DB	0d0H
	DB	0b0H
	DB	088H
	DB	0ffH
	DB	0d0H
	DB	0b0H
	DB	090H
	DB	0f7H
	DB	0d0H
	DB	0b0H
	DB	088H
	DB	0ebH
	DB	0d0H
	DB	0b0H
	DB	090H
	DB	0ffH
	DB	0c8H
	DB	0b4H
	DB	088H
	DB	0ffH
	DB	0d0H
	DB	0b0H
	DB	090H
	DB	0ffH
	DB	0d0H
	DB	0b0H
	DB	088H
	DB	0ffH
	DB	0c8H
	DB	0b0H
	DB	090H
	DB	0ffH
	DB	0d0H
	DB	0b4H
	DB	090H
	DB	0ffH
	DB	0d0H
	DB	0b0H
	DB	088H
	DB	0ffH
	DB	0c8H
	DB	0a8H
	DB	080H
	DB	0ffH
	DB	0c0H
	DB	0a0H
	DB	078H
	DB	0ffH
	DB	0f8H
	DB	0fcH
	DB	0f8H
	DB	0ffH
	DB	0f8H
	DB	0fcH
	DB	0f8H
	DB	0ffH
	DB	0f8H
	DB	0fcH
	DB	0f8H
	DB	0ffH
	DB	0b8H
	DB	094H
	DB	068H
	DB	0ffH
	DB	0c0H
	DB	098H
	DB	070H
	DB	0ffH
	DB	0f8H
	DB	0fcH
	DB	0f8H
	DB	0ffH
	DB	0e0H
	DB	0d4H
	DB	0c8H
	DB	0ffH
	DB	0c8H
	DB	0a4H
	DB	078H
	DB	0ffH
	DB	0c8H
	DB	0a8H
	DB	080H
	DB	0ffH
	DB	0c8H
	DB	0acH
	DB	088H
	DB	0ffH
	DB	0c8H
	DB	0acH
	DB	080H
	DB	0ffH
	DB	0c8H
	DB	0a4H
	DB	078H
	DB	0ffH
	DB	0c0H
	DB	09cH
	DB	078H
	DB	0ffH
	DB	0f8H
	DB	0fcH
	DB	0f8H
	DB	0ffH
	DB	0f8H
	DB	0fcH
	DB	0f8H
	DB	0ffH
	DB	0f8H
	DB	0f8H
	DB	0f8H
	DB	0ffH
	DB	0c0H
	DB	09cH
	DB	078H
	DB	0ffH
	DB	0c8H
	DB	0a8H
	DB	080H
	DB	0ffH
	DB	0c8H
	DB	0b0H
	DB	088H
	DB	0ffH
	DB	0d0H
	DB	0b0H
	DB	088H
	DB	0ffH
	DB	0d0H
	DB	0b0H
	DB	088H
	DB	0ffH
	DB	0d0H
	DB	0b0H
	DB	090H
	DB	0ffH
	DB	0d0H
	DB	0b0H
	DB	090H
	DB	0ffH
	DB	0c8H
	DB	0b4H
	DB	088H
	DB	0ffH
	DB	0d0H
	DB	0b0H
	DB	088H
	DB	0ffH
	DB	0d0H
	DB	0b8H
	DB	098H
	DB	0ffH
	DB	0f8H
	DB	0fcH
	DB	0f8H
	DB	0ffH
	DB	0f8H
	DB	0fcH
	DB	0f8H
	DB	0ffH
	DB	0f8H
	DB	0fcH
	DB	0f8H
	DB	0ffH
	DB	0f8H
	DB	0fcH
	DB	0f8H
	DB	0ffH
	DB	0f8H
	DB	0fcH
	DB	0f8H
	DB	0ffH
	DB	0f8H
	DB	0fcH
	DB	0f8H
	DB	0ffH
	DB	0f8H
	DB	0fcH
	DB	0f8H
	DB	0ffH
	DB	0f8H
	DB	0fcH
	DB	0f8H
	DB	0ffH
	DB	0f8H
	DB	0fcH
	DB	0f8H
	DB	0ffH
	DB	0f8H
	DB	0fcH
	DB	0f8H
	DB	0ffH
	DB	0f8H
	DB	0fcH
	DB	0f8H
	DB	0ffH
	DB	0f8H
	DB	0fcH
	DB	0f8H
	DB	0ffH
	DB	0f8H
	DB	0fcH
	DB	0f8H
	DB	0ffH
	DB	0f8H
	DB	0fcH
	DB	0f8H
	DB	0ffH
	DB	0f8H
	DB	0fcH
	DB	0f8H
	DB	0ffH
	DB	0f8H
	DB	0fcH
	DB	0f8H
	DB	0ffH
	DB	0f8H
	DB	0fcH
	DB	0f8H
	DB	0ffH
	DB	0f8H
	DB	0fcH
	DB	0f8H
	DB	0ffH
	DB	0f8H
	DB	0fcH
	DB	0f8H
	DB	0ffH
	DB	0f8H
	DB	0fcH
	DB	0f8H
	DB	0ffH
	DB	0f8H
	DB	0fcH
	DB	0f8H
	DB	0ffH
	DB	0f8H
	DB	0fcH
	DB	0f8H
	DB	0ffH
	DB	0f8H
	DB	0fcH
	DB	0f8H
	DB	0ffH
	DB	0f8H
	DB	0fcH
	DB	0f8H
	DB	0ffH
	DB	0f8H
	DB	0fcH
	DB	0f8H
	DB	0ffH
	DB	0f8H
	DB	0fcH
	DB	0f8H
	DB	0ffH
	DB	0f8H
	DB	0fcH
	DB	0f8H
	DB	0ffH
	DB	0f8H
	DB	0fcH
	DB	0f8H
	DB	0ffH
	DB	0f8H
	DB	0fcH
	DB	0f8H
	DB	0ffH
	DB	0f8H
	DB	0fcH
	DB	0f8H
	DB	0ffH
	DB	0f8H
	DB	0fcH
	DB	0f8H
	DB	0ffH
	DB	0f8H
	DB	0fcH
	DB	0f8H
	DB	0ffH
	DB	0f8H
	DB	0fcH
	DB	0f8H
	DB	0ffH
	DB	0f8H
	DB	0fcH
	DB	0f8H
	DB	0ffH
	DB	0f8H
	DB	0fcH
	DB	0f8H
	DB	0ffH
	DB	0f8H
	DB	0fcH
	DB	0f8H
	DB	0ffH
	DB	0f8H
	DB	0fcH
	DB	0f8H
	DB	0ffH
	DB	0f8H
	DB	0fcH
	DB	0f8H
	DB	0ffH
	DB	0f8H
	DB	0fcH
	DB	0f8H
	DB	0ffH
	DB	0f8H
	DB	0fcH
	DB	0f8H
	DB	0ffH
	DB	0f8H
	DB	0fcH
	DB	0f8H
	DB	0ffH
	DB	0f8H
	DB	0fcH
	DB	0f8H
	DB	0ffH
	DB	0f8H
	DB	0fcH
	DB	0f8H
	DB	0ffH
	DB	0f8H
	DB	0fcH
	DB	0f8H
	DB	0ffH
	DB	0f8H
	DB	0fcH
	DB	0f8H
	DB	0ffH
	DB	080H
	DB	074H
	DB	068H
	DB	0ffH
	DB	0a0H
	DB	094H
	DB	088H
	DB	0ffH
	DB	0c0H
	DB	0b8H
	DB	0b0H
	DB	0ffH
	DB	058H
	DB	040H
	DB	030H
	DB	0ffH
	DB	090H
	DB	084H
	DB	078H
	DB	0ffH
	DB	058H
	DB	040H
	DB	030H
	DB	0ffH
	DB	0d0H
	DB	0ccH
	DB	0c8H
	DB	0ffH
	DB	0f8H
	DB	0fcH
	DB	0f8H
	DB	0ffH
	DB	0f8H
	DB	0fcH
	DB	0f8H
	DB	0ffH
	DB	0f8H
	DB	0fcH
	DB	0f8H
	DB	0ffH
	DB	0f8H
	DB	0fcH
	DB	0f8H
	DB	0ffH
	DB	0f8H
	DB	0fcH
	DB	0f8H
	DB	0ffH
	DB	0f8H
	DB	0fcH
	DB	0f8H
	DB	0ffH
	DB	0f8H
	DB	0fcH
	DB	0f8H
	DB	0ffH
	DB	0f8H
	DB	0fcH
	DB	0f8H
	DB	0ffH
	DB	0f8H
	DB	0fcH
	DB	0f8H
	DB	0ffH
	DB	0f8H
	DB	0f8H
	DB	0f8H
	DB	0ffH
	DB	0d0H
	DB	0b4H
	DB	088H
	DB	0ffH
	DB	0d0H
	DB	0b0H
	DB	088H
	DB	0ebH
	DB	0d0H
	DB	0b0H
	DB	088H
	DB	0cfH
	DB	0d0H
	DB	0b0H
	DB	088H
	DB	0ffH
	DB	0d0H
	DB	0b0H
	DB	090H
	DB	0ffH
	DB	0d0H
	DB	0b4H
	DB	088H
	DB	0ffH
	DB	0d0H
	DB	0b0H
	DB	088H
	DB	0ffH
	DB	0d0H
	DB	0b0H
	DB	088H
	DB	0ffH
	DB	0d0H
	DB	0b0H
	DB	090H
	DB	0ffH
	DB	0c8H
	DB	0b0H
	DB	088H
	DB	0ffH
	DB	0c8H
	DB	0a8H
	DB	080H
	DB	0ffH
	DB	0c0H
	DB	09cH
	DB	078H
	DB	0ffH
	DB	0f8H
	DB	0fcH
	DB	0f8H
	DB	0ffH
	DB	0f8H
	DB	0fcH
	DB	0f8H
	DB	0ffH
	DB	0f8H
	DB	0fcH
	DB	0f8H
	DB	0ffH
	DB	0b8H
	DB	094H
	DB	070H
	DB	0ffH
	DB	0c0H
	DB	098H
	DB	068H
	DB	0ffH
	DB	0f8H
	DB	0ecH
	DB	0e8H
	DB	0ffH
	DB	0f0H
	DB	0ecH
	DB	0e8H
	DB	0ffH
	DB	0c8H
	DB	0a4H
	DB	078H
	DB	0ffH
	DB	0c8H
	DB	0a8H
	DB	080H
	DB	0ffH
	DB	0c8H
	DB	0acH
	DB	088H
	DB	0ffH
	DB	0c8H
	DB	0a8H
	DB	080H
	DB	0ffH
	DB	0c0H
	DB	0a4H
	DB	078H
	DB	0ffH
	DB	0c0H
	DB	0a0H
	DB	078H
	DB	0ffH
	DB	0f8H
	DB	0fcH
	DB	0f8H
	DB	0ffH
	DB	0f8H
	DB	0fcH
	DB	0f8H
	DB	0ffH
	DB	0f8H
	DB	0f8H
	DB	0f8H
	DB	0ffH
	DB	0c0H
	DB	0a0H
	DB	078H
	DB	0ffH
	DB	0c8H
	DB	0a8H
	DB	080H
	DB	0ffH
	DB	0d0H
	DB	0b0H
	DB	088H
	DB	0ffH
	DB	0d0H
	DB	0b0H
	DB	088H
	DB	0ffH
	DB	0d0H
	DB	0b0H
	DB	088H
	DB	0ffH
	DB	0c8H
	DB	0b0H
	DB	090H
	DB	0ffH
	DB	0d0H
	DB	0b0H
	DB	088H
	DB	0ffH
	DB	0d0H
	DB	0b0H
	DB	090H
	DB	0ffH
	DB	0d0H
	DB	0b0H
	DB	088H
	DB	0ffH
	DB	0d8H
	DB	0c0H
	DB	0a0H
	DB	0ffH
	DB	0f8H
	DB	0fcH
	DB	0f8H
	DB	0ffH
	DB	0f8H
	DB	0fcH
	DB	0f8H
	DB	0ffH
	DB	0f8H
	DB	0fcH
	DB	0f8H
	DB	0ffH
	DB	0f8H
	DB	0fcH
	DB	0f8H
	DB	0ffH
	DB	0f8H
	DB	0fcH
	DB	0f8H
	DB	0ffH
	DB	0f8H
	DB	0fcH
	DB	0f8H
	DB	0ffH
	DB	0f8H
	DB	0fcH
	DB	0f8H
	DB	0ffH
	DB	0f8H
	DB	0fcH
	DB	0f8H
	DB	0ffH
	DB	0f8H
	DB	0fcH
	DB	0f8H
	DB	0ffH
	DB	0f8H
	DB	0fcH
	DB	0f8H
	DB	0ffH
	DB	0f8H
	DB	0fcH
	DB	0f8H
	DB	0ffH
	DB	0f8H
	DB	0fcH
	DB	0f8H
	DB	0ffH
	DB	0f8H
	DB	0fcH
	DB	0f8H
	DB	0ffH
	DB	0f8H
	DB	0fcH
	DB	0f8H
	DB	0ffH
	DB	0f8H
	DB	0fcH
	DB	0f8H
	DB	0ffH
	DB	0f8H
	DB	0fcH
	DB	0f8H
	DB	0ffH
	DB	0f8H
	DB	0fcH
	DB	0f8H
	DB	0ffH
	DB	0f8H
	DB	0fcH
	DB	0f8H
	DB	0ffH
	DB	0f8H
	DB	0fcH
	DB	0f8H
	DB	0ffH
	DB	0f8H
	DB	0fcH
	DB	0f8H
	DB	0ffH
	DB	0f8H
	DB	0fcH
	DB	0f8H
	DB	0ffH
	DB	0f8H
	DB	0fcH
	DB	0f8H
	DB	0ffH
	DB	0f8H
	DB	0fcH
	DB	0f8H
	DB	0ffH
	DB	0f8H
	DB	0fcH
	DB	0f8H
	DB	0ffH
	DB	0f8H
	DB	0fcH
	DB	0f8H
	DB	0ffH
	DB	0f8H
	DB	0fcH
	DB	0f8H
	DB	0ffH
	DB	0f8H
	DB	0fcH
	DB	0f8H
	DB	0ffH
	DB	0f8H
	DB	0fcH
	DB	0f8H
	DB	0ffH
	DB	0f8H
	DB	0fcH
	DB	0f8H
	DB	0ffH
	DB	0f8H
	DB	0fcH
	DB	0f8H
	DB	0ffH
	DB	0f8H
	DB	0fcH
	DB	0f8H
	DB	0ffH
	DB	0f8H
	DB	0fcH
	DB	0f8H
	DB	0ffH
	DB	0f8H
	DB	0fcH
	DB	0f8H
	DB	0ffH
	DB	0f8H
	DB	0fcH
	DB	0f8H
	DB	0ffH
	DB	0f8H
	DB	0fcH
	DB	0f8H
	DB	0ffH
	DB	0f8H
	DB	0fcH
	DB	0f8H
	DB	0ffH
	DB	0f8H
	DB	0fcH
	DB	0f8H
	DB	0ffH
	DB	0f8H
	DB	0fcH
	DB	0f8H
	DB	0ffH
	DB	0f8H
	DB	0fcH
	DB	0f8H
	DB	0ffH
	DB	0f8H
	DB	0fcH
	DB	0f8H
	DB	0ffH
	DB	0f8H
	DB	0fcH
	DB	0f8H
	DB	0ffH
	DB	0f8H
	DB	0fcH
	DB	0f8H
	DB	0ffH
	DB	0f8H
	DB	0fcH
	DB	0f8H
	DB	0ffH
	DB	0f8H
	DB	0fcH
	DB	0f8H
	DB	0ffH
	DB	0c0H
	DB	0b8H
	DB	0b0H
	DB	0ffH
	DB	058H
	DB	040H
	DB	030H
	DB	0ffH
	DB	0e0H
	DB	0e4H
	DB	0e0H
	DB	0ffH
	DB	080H
	DB	074H
	DB	070H
	DB	0ffH
	DB	080H
	DB	074H
	DB	068H
	DB	0ffH
	DB	0f8H
	DB	0f4H
	DB	0f8H
	DB	0ffH
	DB	058H
	DB	040H
	DB	030H
	DB	0ffH
	DB	0b0H
	DB	0acH
	DB	0a8H
	DB	0ffH
	DB	0f8H
	DB	0fcH
	DB	0f8H
	DB	0ffH
	DB	0f8H
	DB	0fcH
	DB	0f8H
	DB	0ffH
	DB	0f8H
	DB	0fcH
	DB	0f8H
	DB	0ffH
	DB	0f8H
	DB	0fcH
	DB	0f8H
	DB	0ffH
	DB	0f8H
	DB	0fcH
	DB	0f8H
	DB	0ffH
	DB	0f8H
	DB	0fcH
	DB	0f8H
	DB	0ffH
	DB	0f8H
	DB	0fcH
	DB	0f8H
	DB	0ffH
	DB	0f8H
	DB	0fcH
	DB	0f8H
	DB	0ffH
	DB	0f8H
	DB	0fcH
	DB	0f8H
	DB	0ffH
	DB	0f0H
	DB	0f0H
	DB	0e8H
	DB	0ffH
	DB	0d0H
	DB	0b0H
	DB	088H
	DB	0ffH
	DB	0d0H
	DB	0b0H
	DB	088H
	DB	0cfH
	DB	0d0H
	DB	0b0H
	DB	088H
	DB	0a6H
	DB	0c8H
	DB	0b0H
	DB	090H
	DB	0ffH
	DB	0d0H
	DB	0b0H
	DB	088H
	DB	0ffH
	DB	0c8H
	DB	0b0H
	DB	088H
	DB	0ffH
	DB	0d0H
	DB	0b4H
	DB	090H
	DB	0ffH
	DB	0d0H
	DB	0b0H
	DB	088H
	DB	0ffH
	DB	0c8H
	DB	0b0H
	DB	088H
	DB	0ffH
	DB	0c8H
	DB	0b0H
	DB	088H
	DB	0ffH
	DB	0c8H
	DB	0a8H
	DB	080H
	DB	0ffH
	DB	0c0H
	DB	0a0H
	DB	078H
	DB	0ffH
	DB	0f8H
	DB	0f0H
	DB	0e8H
	DB	0ffH
	DB	0f8H
	DB	0fcH
	DB	0f8H
	DB	0ffH
	DB	0f8H
	DB	0fcH
	DB	0f8H
	DB	0ffH
	DB	0c8H
	DB	0acH
	DB	088H
	DB	0ffH
	DB	0b8H
	DB	094H
	DB	068H
	DB	0ffH
	DB	0d8H
	DB	0c4H
	DB	0a8H
	DB	0ffH
	DB	0f8H
	DB	0fcH
	DB	0f8H
	DB	0ffH
	DB	0e8H
	DB	0dcH
	DB	0d0H
	DB	0ffH
	DB	0c8H
	DB	0a4H
	DB	080H
	DB	0ffH
	DB	0c8H
	DB	0a8H
	DB	080H
	DB	0ffH
	DB	0c8H
	DB	0a8H
	DB	080H
	DB	0ffH
	DB	0c0H
	DB	0a0H
	DB	078H
	DB	0ffH
	DB	0d0H
	DB	0b0H
	DB	090H
	DB	0ffH
	DB	0f8H
	DB	0fcH
	DB	0f8H
	DB	0ffH
	DB	0f8H
	DB	0fcH
	DB	0f8H
	DB	0ffH
	DB	0f0H
	DB	0ecH
	DB	0e8H
	DB	0ffH
	DB	0c0H
	DB	0a0H
	DB	078H
	DB	0ffH
	DB	0c8H
	DB	0a8H
	DB	080H
	DB	0ffH
	DB	0c8H
	DB	0b0H
	DB	088H
	DB	0ffH
	DB	0d0H
	DB	0b0H
	DB	090H
	DB	0ffH
	DB	0d0H
	DB	0b4H
	DB	088H
	DB	0ffH
	DB	0d0H
	DB	0b4H
	DB	088H
	DB	0ffH
	DB	0c8H
	DB	0b0H
	DB	088H
	DB	0ffH
	DB	0d0H
	DB	0b0H
	DB	090H
	DB	0ffH
	DB	0d0H
	DB	0b4H
	DB	088H
	DB	0ffH
	DB	0e0H
	DB	0ccH
	DB	0b8H
	DB	0ffH
	DB	0f8H
	DB	0fcH
	DB	0f8H
	DB	0ffH
	DB	0f8H
	DB	0fcH
	DB	0f8H
	DB	0ffH
	DB	0f8H
	DB	0fcH
	DB	0f8H
	DB	0ffH
	DB	0f8H
	DB	0fcH
	DB	0f8H
	DB	0ffH
	DB	0f8H
	DB	0fcH
	DB	0f8H
	DB	0ffH
	DB	0f8H
	DB	0fcH
	DB	0f8H
	DB	0ffH
	DB	0f8H
	DB	0fcH
	DB	0f8H
	DB	0ffH
	DB	0f8H
	DB	0fcH
	DB	0f8H
	DB	0ffH
	DB	0f8H
	DB	0fcH
	DB	0f8H
	DB	0ffH
	DB	0f8H
	DB	0fcH
	DB	0f8H
	DB	0ffH
	DB	0f8H
	DB	0fcH
	DB	0f8H
	DB	0ffH
	DB	0f8H
	DB	0fcH
	DB	0f8H
	DB	0ffH
	DB	0f8H
	DB	0fcH
	DB	0f8H
	DB	0ffH
	DB	0f8H
	DB	0fcH
	DB	0f8H
	DB	0ffH
	DB	0f8H
	DB	0fcH
	DB	0f8H
	DB	0ffH
	DB	0f8H
	DB	0fcH
	DB	0f8H
	DB	0ffH
	DB	0f8H
	DB	0fcH
	DB	0f8H
	DB	0ffH
	DB	0f8H
	DB	0fcH
	DB	0f8H
	DB	0ffH
	DB	0f8H
	DB	0fcH
	DB	0f8H
	DB	0ffH
	DB	0f8H
	DB	0fcH
	DB	0f8H
	DB	0ffH
	DB	0f8H
	DB	0fcH
	DB	0f8H
	DB	0ffH
	DB	0f8H
	DB	0fcH
	DB	0f8H
	DB	0ffH
	DB	0f8H
	DB	0fcH
	DB	0f8H
	DB	0ffH
	DB	0f8H
	DB	0fcH
	DB	0f8H
	DB	0ffH
	DB	0f8H
	DB	0fcH
	DB	0f8H
	DB	0ffH
	DB	0f8H
	DB	0fcH
	DB	0f8H
	DB	0ffH
	DB	0f8H
	DB	0fcH
	DB	0f8H
	DB	0ffH
	DB	0f8H
	DB	0fcH
	DB	0f8H
	DB	0ffH
	DB	0f8H
	DB	0fcH
	DB	0f8H
	DB	0ffH
	DB	0f8H
	DB	0fcH
	DB	0f8H
	DB	0ffH
	DB	0f8H
	DB	0fcH
	DB	0f8H
	DB	0ffH
	DB	0f8H
	DB	0fcH
	DB	0f8H
	DB	0ffH
	DB	0f8H
	DB	0fcH
	DB	0f8H
	DB	0ffH
	DB	0f8H
	DB	0fcH
	DB	0f8H
	DB	0ffH
	DB	0f8H
	DB	0fcH
	DB	0f8H
	DB	0ffH
	DB	0f8H
	DB	0fcH
	DB	0f8H
	DB	0ffH
	DB	0f8H
	DB	0fcH
	DB	0f8H
	DB	0ffH
	DB	0f8H
	DB	0fcH
	DB	0f8H
	DB	0ffH
	DB	0f8H
	DB	0fcH
	DB	0f8H
	DB	0ffH
	DB	0f8H
	DB	0fcH
	DB	0f8H
	DB	0ffH
	DB	0f8H
	DB	0fcH
	DB	0f8H
	DB	0ffH
	DB	0f8H
	DB	0fcH
	DB	0f8H
	DB	0ffH
	DB	0f8H
	DB	0fcH
	DB	0f8H
	DB	0ffH
	DB	0f8H
	DB	0fcH
	DB	0f8H
	DB	0ffH
	DB	078H
	DB	068H
	DB	058H
	DB	0ffH
	DB	0b0H
	DB	0acH
	DB	0a8H
	DB	0ffH
	DB	0f8H
	DB	0fcH
	DB	0f8H
	DB	0ffH
	DB	0a0H
	DB	094H
	DB	088H
	DB	0ffH
	DB	080H
	DB	074H
	DB	068H
	DB	0ffH
	DB	0f0H
	DB	0ecH
	DB	0e8H
	DB	0ffH
	DB	058H
	DB	040H
	DB	030H
	DB	0ffH
	DB	0c0H
	DB	0b8H
	DB	0b0H
	DB	0ffH
	DB	0f8H
	DB	0fcH
	DB	0f8H
	DB	0ffH
	DB	0f8H
	DB	0fcH
	DB	0f8H
	DB	0ffH
	DB	0f8H
	DB	0fcH
	DB	0f8H
	DB	0ffH
	DB	0f8H
	DB	0fcH
	DB	0f8H
	DB	0ffH
	DB	0f8H
	DB	0fcH
	DB	0f8H
	DB	0ffH
	DB	0f8H
	DB	0fcH
	DB	0f8H
	DB	0ffH
	DB	0f8H
	DB	0fcH
	DB	0f8H
	DB	0ffH
	DB	0f8H
	DB	0fcH
	DB	0f8H
	DB	0ffH
	DB	0f8H
	DB	0fcH
	DB	0f8H
	DB	0ffH
	DB	0e8H
	DB	0e0H
	DB	0d0H
	DB	0ffH
	DB	0d0H
	DB	0b0H
	DB	090H
	DB	0ffH
	DB	0d0H
	DB	0b0H
	DB	088H
	DB	0a6H
	DB	0d0H
	DB	0b0H
	DB	088H
	DB	069H
	DB	0d0H
	DB	0b4H
	DB	090H
	DB	0ffH
	DB	0c8H
	DB	0b0H
	DB	088H
	DB	0ffH
	DB	0d0H
	DB	0b0H
	DB	090H
	DB	0ffH
	DB	0d0H
	DB	0b0H
	DB	090H
	DB	0ffH
	DB	0d0H
	DB	0b0H
	DB	088H
	DB	0ffH
	DB	0d0H
	DB	0b0H
	DB	088H
	DB	0ffH
	DB	0d0H
	DB	0b0H
	DB	088H
	DB	0ffH
	DB	0c8H
	DB	0a8H
	DB	080H
	DB	0ffH
	DB	0c8H
	DB	0a0H
	DB	078H
	DB	0ffH
	DB	0e8H
	DB	0d4H
	DB	0c8H
	DB	0ffH
	DB	0f8H
	DB	0fcH
	DB	0f8H
	DB	0ffH
	DB	0f8H
	DB	0fcH
	DB	0f8H
	DB	0ffH
	DB	0e8H
	DB	0e0H
	DB	0d0H
	DB	0ffH
	DB	0b8H
	DB	090H
	DB	068H
	DB	0ffH
	DB	0c0H
	DB	098H
	DB	070H
	DB	0ffH
	DB	0e8H
	DB	0d8H
	DB	0c8H
	DB	0ffH
	DB	0f8H
	DB	0f0H
	DB	0e8H
	DB	0ffH
	DB	0c0H
	DB	0a4H
	DB	078H
	DB	0ffH
	DB	0c8H
	DB	0a4H
	DB	080H
	DB	0ffH
	DB	0c0H
	DB	0a0H
	DB	078H
	DB	0ffH
	DB	0c0H
	DB	098H
	DB	070H
	DB	0ffH
	DB	0f0H
	DB	0e0H
	DB	0d8H
	DB	0ffH
	DB	0f8H
	DB	0fcH
	DB	0f8H
	DB	0ffH
	DB	0f8H
	DB	0fcH
	DB	0f8H
	DB	0ffH
	DB	0e8H
	DB	0d4H
	DB	0c0H
	DB	0ffH
	DB	0c0H
	DB	0a0H
	DB	078H
	DB	0ffH
	DB	0c8H
	DB	0acH
	DB	080H
	DB	0ffH
	DB	0d0H
	DB	0b0H
	DB	088H
	DB	0ffH
	DB	0d0H
	DB	0b0H
	DB	090H
	DB	0ffH
	DB	0d0H
	DB	0b0H
	DB	088H
	DB	0ffH
	DB	0d0H
	DB	0b0H
	DB	088H
	DB	0ffH
	DB	0d0H
	DB	0b0H
	DB	090H
	DB	0ffH
	DB	0c8H
	DB	0b4H
	DB	088H
	DB	0ffH
	DB	0d0H
	DB	0b0H
	DB	088H
	DB	0ffH
	DB	0e8H
	DB	0e0H
	DB	0d0H
	DB	0ffH
	DB	0f8H
	DB	0fcH
	DB	0f8H
	DB	0ffH
	DB	0f8H
	DB	0fcH
	DB	0f8H
	DB	0ffH
	DB	0f8H
	DB	0fcH
	DB	0f8H
	DB	0ffH
	DB	0f8H
	DB	0fcH
	DB	0f8H
	DB	0ffH
	DB	0f8H
	DB	0fcH
	DB	0f8H
	DB	0ffH
	DB	0f8H
	DB	0fcH
	DB	0f8H
	DB	0ffH
	DB	0f8H
	DB	0fcH
	DB	0f8H
	DB	0ffH
	DB	0f8H
	DB	0fcH
	DB	0f8H
	DB	0ffH
	DB	0f8H
	DB	0fcH
	DB	0f8H
	DB	0ffH
	DB	0f8H
	DB	0fcH
	DB	0f8H
	DB	0ffH
	DB	0f8H
	DB	0fcH
	DB	0f8H
	DB	0ffH
	DB	0f8H
	DB	0fcH
	DB	0f8H
	DB	0ffH
	DB	0f8H
	DB	0fcH
	DB	0f8H
	DB	0ffH
	DB	0f8H
	DB	0fcH
	DB	0f8H
	DB	0ffH
	DB	0f8H
	DB	0fcH
	DB	0f8H
	DB	0ffH
	DB	0f8H
	DB	0fcH
	DB	0f8H
	DB	0ffH
	DB	0f8H
	DB	0fcH
	DB	0f8H
	DB	0ffH
	DB	0f8H
	DB	0fcH
	DB	0f8H
	DB	0ffH
	DB	0f8H
	DB	0fcH
	DB	0f8H
	DB	0ffH
	DB	0f8H
	DB	0fcH
	DB	0f8H
	DB	0ffH
	DB	0f8H
	DB	0fcH
	DB	0f8H
	DB	0ffH
	DB	0f8H
	DB	0fcH
	DB	0f8H
	DB	0ffH
	DB	0f8H
	DB	0fcH
	DB	0f8H
	DB	0ffH
	DB	0f8H
	DB	0fcH
	DB	0f8H
	DB	0ffH
	DB	0f8H
	DB	0fcH
	DB	0f8H
	DB	0ffH
	DB	0f8H
	DB	0fcH
	DB	0f8H
	DB	0ffH
	DB	0f8H
	DB	0fcH
	DB	0f8H
	DB	0ffH
	DB	0f8H
	DB	0fcH
	DB	0f8H
	DB	0ffH
	DB	0f8H
	DB	0fcH
	DB	0f8H
	DB	0ffH
	DB	0f8H
	DB	0fcH
	DB	0f8H
	DB	0ffH
	DB	0f8H
	DB	0fcH
	DB	0f8H
	DB	0ffH
	DB	0f8H
	DB	0fcH
	DB	0f8H
	DB	0ffH
	DB	0f8H
	DB	0fcH
	DB	0f8H
	DB	0ffH
	DB	0f8H
	DB	0fcH
	DB	0f8H
	DB	0ffH
	DB	0f8H
	DB	0fcH
	DB	0f8H
	DB	0ffH
	DB	0f8H
	DB	0fcH
	DB	0f8H
	DB	0ffH
	DB	0f8H
	DB	0fcH
	DB	0f8H
	DB	0ffH
	DB	0f8H
	DB	0fcH
	DB	0f8H
	DB	0ffH
	DB	0f8H
	DB	0fcH
	DB	0f8H
	DB	0ffH
	DB	0f8H
	DB	0fcH
	DB	0f8H
	DB	0ffH
	DB	0f8H
	DB	0fcH
	DB	0f8H
	DB	0ffH
	DB	0f8H
	DB	0fcH
	DB	0f8H
	DB	0ffH
	DB	0f8H
	DB	0fcH
	DB	0f8H
	DB	0ffH
	DB	0c0H
	DB	0b8H
	DB	0b0H
	DB	0ffH
	DB	068H
	DB	054H
	DB	048H
	DB	0ffH
	DB	0f8H
	DB	0f4H
	DB	0f8H
	DB	0ffH
	DB	0f8H
	DB	0fcH
	DB	0f8H
	DB	0ffH
	DB	0e8H
	DB	0e0H
	DB	0e0H
	DB	0ffH
	DB	068H
	DB	054H
	DB	048H
	DB	0ffH
	DB	058H
	DB	040H
	DB	030H
	DB	0ffH
	DB	078H
	DB	068H
	DB	058H
	DB	0ffH
	DB	0f8H
	DB	0f4H
	DB	0f8H
	DB	0ffH
	DB	0f8H
	DB	0fcH
	DB	0f8H
	DB	0ffH
	DB	0f8H
	DB	0fcH
	DB	0f8H
	DB	0ffH
	DB	0f8H
	DB	0fcH
	DB	0f8H
	DB	0ffH
	DB	0f8H
	DB	0fcH
	DB	0f8H
	DB	0ffH
	DB	0f8H
	DB	0fcH
	DB	0f8H
	DB	0ffH
	DB	0f8H
	DB	0fcH
	DB	0f8H
	DB	0ffH
	DB	0f8H
	DB	0fcH
	DB	0f8H
	DB	0ffH
	DB	0f8H
	DB	0fcH
	DB	0f8H
	DB	0ffH
	DB	0f8H
	DB	0fcH
	DB	0f8H
	DB	0ffH
	DB	0e0H
	DB	0ccH
	DB	0b0H
	DB	0ffH
	DB	0d0H
	DB	0b0H
	DB	090H
	DB	0ffH
	DB	0c8H
	DB	0b0H
	DB	088H
	DB	069H
	DB	0d0H
	DB	0b0H
	DB	088H
	DB	020H
	DB	0d0H
	DB	0b0H
	DB	088H
	DB	0ffH
	DB	0d0H
	DB	0b4H
	DB	088H
	DB	0ffH
	DB	0d0H
	DB	0b0H
	DB	088H
	DB	0ffH
	DB	0c8H
	DB	0b0H
	DB	088H
	DB	0ffH
	DB	0d0H
	DB	0b4H
	DB	090H
	DB	0ffH
	DB	0d0H
	DB	0b0H
	DB	090H
	DB	0ffH
	DB	0c8H
	DB	0b0H
	DB	088H
	DB	0ffH
	DB	0c8H
	DB	0acH
	DB	088H
	DB	0ffH
	DB	0c8H
	DB	0a4H
	DB	080H
	DB	0ffH
	DB	0c8H
	DB	0b0H
	DB	090H
	DB	0ffH
	DB	0f8H
	DB	0fcH
	DB	0f8H
	DB	0ffH
	DB	0f8H
	DB	0fcH
	DB	0f8H
	DB	0ffH
	DB	0f8H
	DB	0fcH
	DB	0f8H
	DB	0ffH
	DB	0e0H
	DB	0c8H
	DB	0b0H
	DB	0ffH
	DB	0b8H
	DB	094H
	DB	068H
	DB	0ffH
	DB	0c0H
	DB	098H
	DB	070H
	DB	0ffH
	DB	0c0H
	DB	09cH
	DB	070H
	DB	0ffH
	DB	0c0H
	DB	09cH
	DB	070H
	DB	0ffH
	DB	0c0H
	DB	09cH
	DB	070H
	DB	0ffH
	DB	0c0H
	DB	098H
	DB	070H
	DB	0ffH
	DB	0d8H
	DB	0c8H
	DB	0b8H
	DB	0ffH
	DB	0f8H
	DB	0fcH
	DB	0f8H
	DB	0ffH
	DB	0f8H
	DB	0fcH
	DB	0f8H
	DB	0ffH
	DB	0f8H
	DB	0fcH
	DB	0f8H
	DB	0ffH
	DB	0c8H
	DB	0acH
	DB	088H
	DB	0ffH
	DB	0c8H
	DB	0a4H
	DB	080H
	DB	0ffH
	DB	0c8H
	DB	0acH
	DB	088H
	DB	0ffH
	DB	0d0H
	DB	0b0H
	DB	088H
	DB	0ffH
	DB	0d0H
	DB	0b0H
	DB	088H
	DB	0ffH
	DB	0c8H
	DB	0b0H
	DB	090H
	DB	0ffH
	DB	0d0H
	DB	0b0H
	DB	090H
	DB	0ffH
	DB	0d0H
	DB	0b0H
	DB	088H
	DB	0ffH
	DB	0d0H
	DB	0b0H
	DB	088H
	DB	0ffH
	DB	0c8H
	DB	0b4H
	DB	090H
	DB	0ffH
	DB	0f8H
	DB	0f4H
	DB	0f0H
	DB	0ffH
	DB	0f8H
	DB	0fcH
	DB	0f8H
	DB	0ffH
	DB	0f8H
	DB	0fcH
	DB	0f8H
	DB	0ffH
	DB	0f8H
	DB	0fcH
	DB	0f8H
	DB	0ffH
	DB	0f8H
	DB	0fcH
	DB	0f8H
	DB	0ffH
	DB	0f8H
	DB	0fcH
	DB	0f8H
	DB	0ffH
	DB	0f8H
	DB	0fcH
	DB	0f8H
	DB	0ffH
	DB	0f8H
	DB	0fcH
	DB	0f8H
	DB	0ffH
	DB	0f8H
	DB	0fcH
	DB	0f8H
	DB	0ffH
	DB	0f8H
	DB	0fcH
	DB	0f8H
	DB	0ffH
	DB	0f8H
	DB	0fcH
	DB	0f8H
	DB	0ffH
	DB	0f8H
	DB	0fcH
	DB	0f8H
	DB	0ffH
	DB	0f8H
	DB	0fcH
	DB	0f8H
	DB	0ffH
	DB	0f8H
	DB	0fcH
	DB	0f8H
	DB	0ffH
	DB	0f8H
	DB	0fcH
	DB	0f8H
	DB	0ffH
	DB	0f8H
	DB	0fcH
	DB	0f8H
	DB	0ffH
	DB	0f8H
	DB	0fcH
	DB	0f8H
	DB	0ffH
	DB	0f8H
	DB	0fcH
	DB	0f8H
	DB	0ffH
	DB	0f8H
	DB	0fcH
	DB	0f8H
	DB	0ffH
	DB	0f8H
	DB	0fcH
	DB	0f8H
	DB	0ffH
	DB	0f8H
	DB	0fcH
	DB	0f8H
	DB	0ffH
	DB	0f8H
	DB	0fcH
	DB	0f8H
	DB	0ffH
	DB	0f8H
	DB	0fcH
	DB	0f8H
	DB	0ffH
	DB	0f8H
	DB	0fcH
	DB	0f8H
	DB	0ffH
	DB	0f8H
	DB	0fcH
	DB	0f8H
	DB	0ffH
	DB	0f8H
	DB	0fcH
	DB	0f8H
	DB	0ffH
	DB	0f8H
	DB	0fcH
	DB	0f8H
	DB	0ffH
	DB	0f8H
	DB	0fcH
	DB	0f8H
	DB	0ffH
	DB	0f8H
	DB	0fcH
	DB	0f8H
	DB	0ffH
	DB	0f8H
	DB	0fcH
	DB	0f8H
	DB	0ffH
	DB	0f8H
	DB	0fcH
	DB	0f8H
	DB	0ffH
	DB	0f8H
	DB	0fcH
	DB	0f8H
	DB	0ffH
	DB	0f8H
	DB	0fcH
	DB	0f8H
	DB	0ffH
	DB	0f8H
	DB	0fcH
	DB	0f8H
	DB	0ffH
	DB	0f8H
	DB	0fcH
	DB	0f8H
	DB	0ffH
	DB	0f8H
	DB	0fcH
	DB	0f8H
	DB	0ffH
	DB	0f8H
	DB	0fcH
	DB	0f8H
	DB	0ffH
	DB	0f8H
	DB	0fcH
	DB	0f8H
	DB	0ffH
	DB	0f8H
	DB	0fcH
	DB	0f8H
	DB	0ffH
	DB	0f8H
	DB	0fcH
	DB	0f8H
	DB	0ffH
	DB	0f8H
	DB	0fcH
	DB	0f8H
	DB	0ffH
	DB	0f8H
	DB	0fcH
	DB	0f8H
	DB	0ffH
	DB	0f8H
	DB	0fcH
	DB	0f8H
	DB	0ffH
	DB	0f8H
	DB	0fcH
	DB	0f8H
	DB	0ffH
	DB	0f8H
	DB	0fcH
	DB	0f8H
	DB	0ffH
	DB	0f8H
	DB	0fcH
	DB	0f8H
	DB	0ffH
	DB	0f8H
	DB	0fcH
	DB	0f8H
	DB	0ffH
	DB	0f8H
	DB	0fcH
	DB	0f8H
	DB	0ffH
	DB	0f8H
	DB	0fcH
	DB	0f8H
	DB	0ffH
	DB	0f8H
	DB	0fcH
	DB	0f8H
	DB	0ffH
	DB	0f8H
	DB	0f4H
	DB	0f8H
	DB	0ffH
	DB	0f8H
	DB	0fcH
	DB	0f8H
	DB	0ffH
	DB	0f8H
	DB	0fcH
	DB	0f8H
	DB	0ffH
	DB	0f8H
	DB	0fcH
	DB	0f8H
	DB	0ffH
	DB	0f8H
	DB	0fcH
	DB	0f8H
	DB	0ffH
	DB	0f8H
	DB	0fcH
	DB	0f8H
	DB	0ffH
	DB	0f8H
	DB	0fcH
	DB	0f8H
	DB	0ffH
	DB	0f8H
	DB	0fcH
	DB	0f8H
	DB	0ffH
	DB	0f8H
	DB	0fcH
	DB	0f8H
	DB	0ffH
	DB	0f8H
	DB	0fcH
	DB	0f8H
	DB	0ffH
	DB	0f8H
	DB	0fcH
	DB	0f8H
	DB	0ffH
	DB	0f8H
	DB	0fcH
	DB	0f8H
	DB	0ffH
	DB	0d0H
	DB	0b4H
	DB	090H
	DB	0ffH
	DB	0d0H
	DB	0b4H
	DB	088H
	DB	0ffH
	DB	0d0H
	DB	0b0H
	DB	090H
	DB	020H
	DB	0d0H
	DB	0b0H
	DB	090H
	DB	00H
	DB	0c8H
	DB	0b0H
	DB	088H
	DB	0c3H
	DB	0d0H
	DB	0b0H
	DB	090H
	DB	0ffH
	DB	0d0H
	DB	0b4H
	DB	088H
	DB	0ffH
	DB	0c8H
	DB	0b0H
	DB	088H
	DB	0ffH
	DB	0d0H
	DB	0b0H
	DB	090H
	DB	0ffH
	DB	0d0H
	DB	0b4H
	DB	088H
	DB	0ffH
	DB	0d0H
	DB	0b0H
	DB	088H
	DB	0ffH
	DB	0c8H
	DB	0b0H
	DB	088H
	DB	0ffH
	DB	0c8H
	DB	0a8H
	DB	080H
	DB	0ffH
	DB	0c0H
	DB	0a0H
	DB	078H
	DB	0ffH
	DB	0e8H
	DB	0d8H
	DB	0c8H
	DB	0ffH
	DB	0f8H
	DB	0fcH
	DB	0f8H
	DB	0ffH
	DB	0f8H
	DB	0fcH
	DB	0f8H
	DB	0ffH
	DB	0f8H
	DB	0fcH
	DB	0f8H
	DB	0ffH
	DB	0e8H
	DB	0e0H
	DB	0d0H
	DB	0ffH
	DB	0c8H
	DB	0acH
	DB	090H
	DB	0ffH
	DB	0c0H
	DB	098H
	DB	070H
	DB	0ffH
	DB	0c0H
	DB	09cH
	DB	070H
	DB	0ffH
	DB	0d0H
	DB	0b0H
	DB	090H
	DB	0ffH
	DB	0e8H
	DB	0e0H
	DB	0d8H
	DB	0ffH
	DB	0f8H
	DB	0fcH
	DB	0f8H
	DB	0ffH
	DB	0f8H
	DB	0fcH
	DB	0f8H
	DB	0ffH
	DB	0f8H
	DB	0fcH
	DB	0f8H
	DB	0ffH
	DB	0e8H
	DB	0d8H
	DB	0c8H
	DB	0ffH
	DB	0c0H
	DB	0a0H
	DB	078H
	DB	0ffH
	DB	0c8H
	DB	0a8H
	DB	080H
	DB	0ffH
	DB	0d0H
	DB	0b0H
	DB	088H
	DB	0ffH
	DB	0d0H
	DB	0b0H
	DB	088H
	DB	0ffH
	DB	0d0H
	DB	0b0H
	DB	088H
	DB	0ffH
	DB	0c8H
	DB	0b4H
	DB	090H
	DB	0ffH
	DB	0d0H
	DB	0b4H
	DB	088H
	DB	0ffH
	DB	0d0H
	DB	0b0H
	DB	088H
	DB	0ffH
	DB	0d0H
	DB	0b0H
	DB	090H
	DB	0ffH
	DB	0d8H
	DB	0c4H
	DB	0a8H
	DB	0ffH
	DB	0f8H
	DB	0fcH
	DB	0f8H
	DB	0ffH
	DB	0f8H
	DB	0fcH
	DB	0f8H
	DB	0ffH
	DB	0f8H
	DB	0fcH
	DB	0f8H
	DB	0ffH
	DB	0f8H
	DB	0fcH
	DB	0f8H
	DB	0ffH
	DB	0f8H
	DB	0fcH
	DB	0f8H
	DB	0ffH
	DB	0f8H
	DB	0fcH
	DB	0f8H
	DB	0ffH
	DB	0f8H
	DB	0fcH
	DB	0f8H
	DB	0ffH
	DB	0f8H
	DB	0fcH
	DB	0f8H
	DB	0ffH
	DB	0f8H
	DB	0fcH
	DB	0f8H
	DB	0ffH
	DB	0f8H
	DB	0fcH
	DB	0f8H
	DB	0ffH
	DB	0f8H
	DB	0fcH
	DB	0f8H
	DB	0ffH
	DB	0f8H
	DB	0fcH
	DB	0f8H
	DB	0ffH
	DB	0f8H
	DB	0fcH
	DB	0f8H
	DB	0ffH
	DB	0f8H
	DB	0fcH
	DB	0f8H
	DB	0ffH
	DB	0f8H
	DB	0fcH
	DB	0f8H
	DB	0ffH
	DB	0f8H
	DB	0fcH
	DB	0f8H
	DB	0ffH
	DB	0f8H
	DB	0fcH
	DB	0f8H
	DB	0ffH
	DB	0f8H
	DB	0fcH
	DB	0f8H
	DB	0ffH
	DB	0f8H
	DB	0fcH
	DB	0f8H
	DB	0ffH
	DB	0f8H
	DB	0fcH
	DB	0f8H
	DB	0ffH
	DB	0f8H
	DB	0fcH
	DB	0f8H
	DB	0ffH
	DB	0f8H
	DB	0fcH
	DB	0f8H
	DB	0ffH
	DB	0f8H
	DB	0fcH
	DB	0f8H
	DB	0ffH
	DB	0f8H
	DB	0fcH
	DB	0f8H
	DB	0ffH
	DB	0f8H
	DB	0fcH
	DB	0f8H
	DB	0ffH
	DB	0f8H
	DB	0fcH
	DB	0f8H
	DB	0ffH
	DB	0f8H
	DB	0fcH
	DB	0f8H
	DB	0ffH
	DB	0f8H
	DB	0fcH
	DB	0f8H
	DB	0ffH
	DB	0f8H
	DB	0fcH
	DB	0f8H
	DB	0ffH
	DB	0f8H
	DB	0fcH
	DB	0f8H
	DB	0ffH
	DB	0f8H
	DB	0fcH
	DB	0f8H
	DB	0ffH
	DB	0f8H
	DB	0fcH
	DB	0f8H
	DB	0ffH
	DB	0f8H
	DB	0fcH
	DB	0f8H
	DB	0ffH
	DB	0f8H
	DB	0fcH
	DB	0f8H
	DB	0ffH
	DB	0f8H
	DB	0fcH
	DB	0f8H
	DB	0ffH
	DB	0f8H
	DB	0fcH
	DB	0f8H
	DB	0ffH
	DB	0f8H
	DB	0fcH
	DB	0f8H
	DB	0ffH
	DB	0f8H
	DB	0fcH
	DB	0f8H
	DB	0ffH
	DB	0f8H
	DB	0fcH
	DB	0f8H
	DB	0ffH
	DB	0f8H
	DB	0fcH
	DB	0f8H
	DB	0ffH
	DB	0f8H
	DB	0fcH
	DB	0f8H
	DB	0ffH
	DB	0f8H
	DB	0fcH
	DB	0f8H
	DB	0ffH
	DB	0f8H
	DB	0fcH
	DB	0f8H
	DB	0ffH
	DB	0f8H
	DB	0fcH
	DB	0f8H
	DB	0ffH
	DB	0f8H
	DB	0fcH
	DB	0f8H
	DB	0ffH
	DB	0f8H
	DB	0fcH
	DB	0f8H
	DB	0ffH
	DB	0f8H
	DB	0fcH
	DB	0f8H
	DB	0ffH
	DB	0f8H
	DB	0fcH
	DB	0f8H
	DB	0ffH
	DB	0f8H
	DB	0fcH
	DB	0f8H
	DB	0ffH
	DB	0f8H
	DB	0fcH
	DB	0f8H
	DB	0ffH
	DB	0f8H
	DB	0fcH
	DB	0f8H
	DB	0ffH
	DB	0f8H
	DB	0fcH
	DB	0f8H
	DB	0ffH
	DB	0f8H
	DB	0fcH
	DB	0f8H
	DB	0ffH
	DB	0f8H
	DB	0fcH
	DB	0f8H
	DB	0ffH
	DB	0f8H
	DB	0fcH
	DB	0f8H
	DB	0ffH
	DB	0f8H
	DB	0fcH
	DB	0f8H
	DB	0ffH
	DB	0f8H
	DB	0fcH
	DB	0f8H
	DB	0ffH
	DB	0f8H
	DB	0fcH
	DB	0f8H
	DB	0ffH
	DB	0f8H
	DB	0fcH
	DB	0f8H
	DB	0ffH
	DB	0f8H
	DB	0fcH
	DB	0f8H
	DB	0ffH
	DB	0f8H
	DB	0fcH
	DB	0f8H
	DB	0ffH
	DB	0e8H
	DB	0e0H
	DB	0d0H
	DB	0ffH
	DB	0d0H
	DB	0b0H
	DB	090H
	DB	0ffH
	DB	0d0H
	DB	0b0H
	DB	088H
	DB	0c3H
	DB	0f8H
	DB	0fcH
	DB	0f8H
	DB	00H
	DB	0d0H
	DB	0b0H
	DB	088H
	DB	00H
	DB	0d0H
	DB	0b0H
	DB	090H
	DB	059H
	DB	0c8H
	DB	0b0H
	DB	090H
	DB	0ffH
	DB	0d0H
	DB	0b0H
	DB	088H
	DB	0ffH
	DB	0d0H
	DB	0b0H
	DB	090H
	DB	0ffH
	DB	0d0H
	DB	0b0H
	DB	088H
	DB	0ffH
	DB	0d0H
	DB	0b0H
	DB	088H
	DB	0ffH
	DB	0d0H
	DB	0b0H
	DB	090H
	DB	0ffH
	DB	0d0H
	DB	0b0H
	DB	088H
	DB	0ffH
	DB	0c8H
	DB	0acH
	DB	088H
	DB	0ffH
	DB	0c8H
	DB	0a8H
	DB	080H
	DB	0ffH
	DB	0c0H
	DB	0a4H
	DB	078H
	DB	0ffH
	DB	0f0H
	DB	0e8H
	DB	0e0H
	DB	0ffH
	DB	0f8H
	DB	0fcH
	DB	0f8H
	DB	0ffH
	DB	0f8H
	DB	0fcH
	DB	0f8H
	DB	0ffH
	DB	0f8H
	DB	0fcH
	DB	0f8H
	DB	0ffH
	DB	0f8H
	DB	0fcH
	DB	0f8H
	DB	0ffH
	DB	0f8H
	DB	0fcH
	DB	0f8H
	DB	0ffH
	DB	0f8H
	DB	0fcH
	DB	0f8H
	DB	0ffH
	DB	0f8H
	DB	0fcH
	DB	0f8H
	DB	0ffH
	DB	0f8H
	DB	0fcH
	DB	0f8H
	DB	0ffH
	DB	0f8H
	DB	0fcH
	DB	0f8H
	DB	0ffH
	DB	0f8H
	DB	0fcH
	DB	0f8H
	DB	0ffH
	DB	0f0H
	DB	0e8H
	DB	0e0H
	DB	0ffH
	DB	0c0H
	DB	0a4H
	DB	078H
	DB	0ffH
	DB	0c8H
	DB	0a8H
	DB	080H
	DB	0ffH
	DB	0c8H
	DB	0acH
	DB	088H
	DB	0ffH
	DB	0d0H
	DB	0b0H
	DB	088H
	DB	0ffH
	DB	0d0H
	DB	0b0H
	DB	088H
	DB	0ffH
	DB	0c8H
	DB	0b0H
	DB	090H
	DB	0ffH
	DB	0d0H
	DB	0b0H
	DB	088H
	DB	0ffH
	DB	0d0H
	DB	0b0H
	DB	088H
	DB	0ffH
	DB	0c8H
	DB	0b0H
	DB	090H
	DB	0ffH
	DB	0d0H
	DB	0b0H
	DB	088H
	DB	0ffH
	DB	0f0H
	DB	0e4H
	DB	0d8H
	DB	0ffH
	DB	0f8H
	DB	0fcH
	DB	0f8H
	DB	0ffH
	DB	0f8H
	DB	0fcH
	DB	0f8H
	DB	0ffH
	DB	0f8H
	DB	0fcH
	DB	0f8H
	DB	0ffH
	DB	0f8H
	DB	0fcH
	DB	0f8H
	DB	0ffH
	DB	0f8H
	DB	0fcH
	DB	0f8H
	DB	0ffH
	DB	0f8H
	DB	0fcH
	DB	0f8H
	DB	0ffH
	DB	0f8H
	DB	0fcH
	DB	0f8H
	DB	0ffH
	DB	0f8H
	DB	0fcH
	DB	0f8H
	DB	0ffH
	DB	0f8H
	DB	0fcH
	DB	0f8H
	DB	0ffH
	DB	0f8H
	DB	0fcH
	DB	0f8H
	DB	0ffH
	DB	0f8H
	DB	0fcH
	DB	0f8H
	DB	0ffH
	DB	0f8H
	DB	0fcH
	DB	0f8H
	DB	0ffH
	DB	0f8H
	DB	0fcH
	DB	0f8H
	DB	0ffH
	DB	0f8H
	DB	0fcH
	DB	0f8H
	DB	0ffH
	DB	0f8H
	DB	0fcH
	DB	0f8H
	DB	0ffH
	DB	0f8H
	DB	0fcH
	DB	0f8H
	DB	0ffH
	DB	0f8H
	DB	0fcH
	DB	0f8H
	DB	0ffH
	DB	0f8H
	DB	0fcH
	DB	0f8H
	DB	0ffH
	DB	0f8H
	DB	0fcH
	DB	0f8H
	DB	0ffH
	DB	0f8H
	DB	0fcH
	DB	0f8H
	DB	0ffH
	DB	0f8H
	DB	0fcH
	DB	0f8H
	DB	0ffH
	DB	0f8H
	DB	0fcH
	DB	0f8H
	DB	0ffH
	DB	0f8H
	DB	0fcH
	DB	0f8H
	DB	0ffH
	DB	0f8H
	DB	0fcH
	DB	0f8H
	DB	0ffH
	DB	0f8H
	DB	0fcH
	DB	0f8H
	DB	0ffH
	DB	0f8H
	DB	0fcH
	DB	0f8H
	DB	0ffH
	DB	0f8H
	DB	0fcH
	DB	0f8H
	DB	0ffH
	DB	0f8H
	DB	0fcH
	DB	0f8H
	DB	0ffH
	DB	0f8H
	DB	0fcH
	DB	0f8H
	DB	0ffH
	DB	0f8H
	DB	0fcH
	DB	0f8H
	DB	0ffH
