; Listing generated by Microsoft (R) Optimizing Compiler Version 19.27.29112.0 

	TITLE	D:\hackTuesProject\project\TouchGFX\generated\images\src\Bathtub\image_BathTub_UI_bg.cpp
	.686P
	.XMM
	include listing.inc
	.model	flat

INCLUDELIB MSVCRTD
INCLUDELIB OLDNAMES

PUBLIC	?image_bathtub_ui_bg@@3QBEB			; image_bathtub_ui_bg
CONST	SEGMENT
?image_bathtub_ui_bg@@3QBEB DB 00H			; image_bathtub_ui_bg
	DB	00H
	DB	00H
	DB	00H
	DB	00H
	DB	00H
	DB	00H
	DB	00H
	DB	021H
	DB	08H
	DB	0c3H
	DB	018H
	DB	066H
	DB	031H
	DB	08H
	DB	042H
	DB	029H
	DB	04aH
	DB	029H
	DB	04aH
	DB	029H
	DB	04aH
	DB	049H
	DB	04aH
	DB	029H
	DB	04aH
	DB	029H
	DB	04aH
	DB	049H
	DB	04aH
	DB	029H
	DB	04aH
	DB	029H
	DB	04aH
	DB	049H
	DB	04aH
	DB	029H
	DB	04aH
	DB	029H
	DB	04aH
	DB	049H
	DB	04aH
	DB	029H
	DB	04aH
	DB	029H
	DB	04aH
	DB	049H
	DB	04aH
	DB	029H
	DB	04aH
	DB	029H
	DB	04aH
	DB	049H
	DB	04aH
	DB	029H
	DB	04aH
	DB	029H
	DB	04aH
	DB	049H
	DB	04aH
	DB	029H
	DB	04aH
	DB	029H
	DB	04aH
	DB	049H
	DB	04aH
	DB	029H
	DB	04aH
	DB	029H
	DB	04aH
	DB	049H
	DB	04aH
	DB	029H
	DB	04aH
	DB	029H
	DB	04aH
	DB	049H
	DB	04aH
	DB	029H
	DB	04aH
	DB	029H
	DB	04aH
	DB	049H
	DB	04aH
	DB	029H
	DB	04aH
	DB	029H
	DB	04aH
	DB	049H
	DB	04aH
	DB	029H
	DB	04aH
	DB	029H
	DB	04aH
	DB	049H
	DB	04aH
	DB	029H
	DB	04aH
	DB	029H
	DB	04aH
	DB	049H
	DB	04aH
	DB	029H
	DB	04aH
	DB	029H
	DB	04aH
	DB	049H
	DB	04aH
	DB	029H
	DB	04aH
	DB	029H
	DB	04aH
	DB	049H
	DB	04aH
	DB	029H
	DB	04aH
	DB	029H
	DB	04aH
	DB	049H
	DB	04aH
	DB	029H
	DB	04aH
	DB	029H
	DB	04aH
	DB	049H
	DB	04aH
	DB	029H
	DB	04aH
	DB	029H
	DB	04aH
	DB	049H
	DB	04aH
	DB	029H
	DB	04aH
	DB	029H
	DB	04aH
	DB	049H
	DB	04aH
	DB	029H
	DB	04aH
	DB	029H
	DB	04aH
	DB	049H
	DB	04aH
	DB	029H
	DB	04aH
	DB	029H
	DB	04aH
	DB	049H
	DB	04aH
	DB	029H
	DB	04aH
	DB	029H
	DB	04aH
	DB	049H
	DB	04aH
	DB	029H
	DB	04aH
	DB	029H
	DB	04aH
	DB	049H
	DB	04aH
	DB	029H
	DB	04aH
	DB	029H
	DB	04aH
	DB	049H
	DB	04aH
	DB	029H
	DB	04aH
	DB	029H
	DB	04aH
	DB	049H
	DB	04aH
	DB	029H
	DB	04aH
	DB	029H
	DB	04aH
	DB	049H
	DB	04aH
	DB	029H
	DB	04aH
	DB	029H
	DB	04aH
	DB	049H
	DB	04aH
	DB	029H
	DB	04aH
	DB	029H
	DB	04aH
	DB	049H
	DB	04aH
	DB	029H
	DB	04aH
	DB	029H
	DB	04aH
	DB	049H
	DB	04aH
	DB	029H
	DB	04aH
	DB	029H
	DB	04aH
	DB	049H
	DB	04aH
	DB	029H
	DB	04aH
	DB	029H
	DB	04aH
	DB	049H
	DB	04aH
	DB	029H
	DB	04aH
	DB	029H
	DB	04aH
	DB	049H
	DB	04aH
	DB	029H
	DB	04aH
	DB	029H
	DB	04aH
	DB	049H
	DB	04aH
	DB	029H
	DB	04aH
	DB	029H
	DB	04aH
	DB	049H
	DB	04aH
	DB	029H
	DB	04aH
	DB	029H
	DB	04aH
	DB	049H
	DB	04aH
	DB	029H
	DB	04aH
	DB	029H
	DB	04aH
	DB	049H
	DB	04aH
	DB	029H
	DB	04aH
	DB	029H
	DB	04aH
	DB	049H
	DB	04aH
	DB	029H
	DB	04aH
	DB	029H
	DB	04aH
	DB	049H
	DB	04aH
	DB	029H
	DB	04aH
	DB	029H
	DB	04aH
	DB	049H
	DB	04aH
	DB	029H
	DB	04aH
	DB	029H
	DB	04aH
	DB	049H
	DB	04aH
	DB	029H
	DB	04aH
	DB	029H
	DB	04aH
	DB	049H
	DB	04aH
	DB	029H
	DB	04aH
	DB	029H
	DB	04aH
	DB	049H
	DB	04aH
	DB	029H
	DB	04aH
	DB	029H
	DB	04aH
	DB	049H
	DB	04aH
	DB	029H
	DB	04aH
	DB	029H
	DB	04aH
	DB	049H
	DB	04aH
	DB	029H
	DB	04aH
	DB	029H
	DB	04aH
	DB	049H
	DB	04aH
	DB	029H
	DB	04aH
	DB	029H
	DB	04aH
	DB	049H
	DB	04aH
	DB	029H
	DB	04aH
	DB	029H
	DB	04aH
	DB	049H
	DB	04aH
	DB	029H
	DB	04aH
	DB	029H
	DB	04aH
	DB	049H
	DB	04aH
	DB	029H
	DB	04aH
	DB	029H
	DB	04aH
	DB	049H
	DB	04aH
	DB	029H
	DB	04aH
	DB	029H
	DB	04aH
	DB	049H
	DB	04aH
	DB	029H
	DB	04aH
	DB	029H
	DB	04aH
	DB	049H
	DB	04aH
	DB	029H
	DB	04aH
	DB	029H
	DB	04aH
	DB	049H
	DB	04aH
	DB	029H
	DB	04aH
	DB	029H
	DB	04aH
	DB	049H
	DB	04aH
	DB	029H
	DB	04aH
	DB	029H
	DB	04aH
	DB	049H
	DB	04aH
	DB	029H
	DB	04aH
	DB	029H
	DB	04aH
	DB	049H
	DB	04aH
	DB	029H
	DB	04aH
	DB	029H
	DB	04aH
	DB	049H
	DB	04aH
	DB	029H
	DB	04aH
	DB	029H
	DB	04aH
	DB	049H
	DB	04aH
	DB	029H
	DB	04aH
	DB	029H
	DB	04aH
	DB	049H
	DB	04aH
	DB	029H
	DB	04aH
	DB	029H
	DB	04aH
	DB	049H
	DB	04aH
	DB	029H
	DB	04aH
	DB	029H
	DB	04aH
	DB	049H
	DB	04aH
	DB	029H
	DB	04aH
	DB	029H
	DB	04aH
	DB	049H
	DB	04aH
	DB	029H
	DB	04aH
	DB	029H
	DB	04aH
	DB	049H
	DB	04aH
	DB	029H
	DB	04aH
	DB	029H
	DB	04aH
	DB	049H
	DB	04aH
	DB	029H
	DB	04aH
	DB	029H
	DB	04aH
	DB	049H
	DB	04aH
	DB	029H
	DB	04aH
	DB	029H
	DB	04aH
	DB	049H
	DB	04aH
	DB	029H
	DB	04aH
	DB	029H
	DB	04aH
	DB	049H
	DB	04aH
	DB	029H
	DB	04aH
	DB	029H
	DB	04aH
	DB	049H
	DB	04aH
	DB	029H
	DB	04aH
	DB	029H
	DB	04aH
	DB	049H
	DB	04aH
	DB	029H
	DB	04aH
	DB	029H
	DB	04aH
	DB	049H
	DB	04aH
	DB	029H
	DB	04aH
	DB	029H
	DB	04aH
	DB	049H
	DB	04aH
	DB	029H
	DB	04aH
	DB	029H
	DB	04aH
	DB	049H
	DB	04aH
	DB	029H
	DB	04aH
	DB	029H
	DB	04aH
	DB	049H
	DB	04aH
	DB	029H
	DB	04aH
	DB	029H
	DB	04aH
	DB	049H
	DB	04aH
	DB	029H
	DB	04aH
	DB	029H
	DB	04aH
	DB	049H
	DB	04aH
	DB	029H
	DB	04aH
	DB	029H
	DB	04aH
	DB	049H
	DB	04aH
	DB	029H
	DB	04aH
	DB	029H
	DB	04aH
	DB	049H
	DB	04aH
	DB	029H
	DB	04aH
	DB	029H
	DB	04aH
	DB	049H
	DB	04aH
	DB	029H
	DB	04aH
	DB	029H
	DB	04aH
	DB	049H
	DB	04aH
	DB	029H
	DB	04aH
	DB	029H
	DB	04aH
	DB	049H
	DB	04aH
	DB	029H
	DB	04aH
	DB	029H
	DB	04aH
	DB	049H
	DB	04aH
	DB	029H
	DB	04aH
	DB	029H
	DB	04aH
	DB	049H
	DB	04aH
	DB	029H
	DB	04aH
	DB	029H
	DB	04aH
	DB	049H
	DB	04aH
	DB	029H
	DB	04aH
	DB	029H
	DB	04aH
	DB	049H
	DB	04aH
	DB	029H
	DB	04aH
	DB	029H
	DB	04aH
	DB	049H
	DB	04aH
	DB	029H
	DB	04aH
	DB	029H
	DB	04aH
	DB	049H
	DB	04aH
	DB	029H
	DB	04aH
	DB	029H
	DB	04aH
	DB	049H
	DB	04aH
	DB	029H
	DB	04aH
	DB	029H
	DB	04aH
	DB	049H
	DB	04aH
	DB	029H
	DB	04aH
	DB	029H
	DB	04aH
	DB	049H
	DB	04aH
	DB	029H
	DB	04aH
	DB	029H
	DB	04aH
	DB	049H
	DB	04aH
	DB	029H
	DB	04aH
	DB	029H
	DB	04aH
	DB	049H
	DB	04aH
	DB	029H
	DB	04aH
	DB	029H
	DB	04aH
	DB	049H
	DB	04aH
	DB	029H
	DB	04aH
	DB	029H
	DB	04aH
	DB	049H
	DB	04aH
	DB	029H
	DB	04aH
	DB	029H
	DB	04aH
	DB	049H
	DB	04aH
	DB	029H
	DB	04aH
	DB	029H
	DB	04aH
	DB	049H
	DB	04aH
	DB	029H
	DB	04aH
	DB	029H
	DB	04aH
	DB	049H
	DB	04aH
	DB	029H
	DB	04aH
	DB	029H
	DB	04aH
	DB	049H
	DB	04aH
	DB	029H
	DB	04aH
	DB	029H
	DB	04aH
	DB	049H
	DB	04aH
	DB	029H
	DB	04aH
	DB	029H
	DB	04aH
	DB	049H
	DB	04aH
	DB	029H
	DB	04aH
	DB	029H
	DB	04aH
	DB	049H
	DB	04aH
	DB	029H
	DB	04aH
	DB	029H
	DB	04aH
	DB	049H
	DB	04aH
	DB	029H
	DB	04aH
	DB	029H
	DB	04aH
	DB	049H
	DB	04aH
	DB	029H
	DB	04aH
	DB	029H
	DB	04aH
	DB	049H
	DB	04aH
	DB	029H
	DB	04aH
	DB	029H
	DB	04aH
	DB	049H
	DB	04aH
	DB	029H
	DB	04aH
	DB	029H
	DB	04aH
	DB	049H
	DB	04aH
	DB	029H
	DB	04aH
	DB	029H
	DB	04aH
	DB	049H
	DB	04aH
	DB	029H
	DB	04aH
	DB	029H
	DB	04aH
	DB	049H
	DB	04aH
	DB	029H
	DB	04aH
	DB	029H
	DB	04aH
	DB	049H
	DB	04aH
	DB	029H
	DB	04aH
	DB	029H
	DB	04aH
	DB	049H
	DB	04aH
	DB	029H
	DB	04aH
	DB	029H
	DB	04aH
	DB	049H
	DB	04aH
	DB	029H
	DB	04aH
	DB	029H
	DB	04aH
	DB	049H
	DB	04aH
	DB	029H
	DB	04aH
	DB	029H
	DB	04aH
	DB	049H
	DB	04aH
	DB	029H
	DB	04aH
	DB	029H
	DB	04aH
	DB	049H
	DB	04aH
	DB	029H
	DB	04aH
	DB	029H
	DB	04aH
	DB	049H
	DB	04aH
	DB	029H
	DB	04aH
	DB	029H
	DB	04aH
	DB	049H
	DB	04aH
	DB	029H
	DB	04aH
	DB	029H
	DB	04aH
	DB	049H
	DB	04aH
	DB	029H
	DB	04aH
	DB	029H
	DB	04aH
	DB	049H
	DB	04aH
	DB	029H
	DB	04aH
	DB	029H
	DB	04aH
	DB	049H
	DB	04aH
	DB	029H
	DB	04aH
	DB	029H
	DB	04aH
	DB	049H
	DB	04aH
	DB	029H
	DB	04aH
	DB	029H
	DB	04aH
	DB	049H
	DB	04aH
	DB	029H
	DB	04aH
	DB	029H
	DB	04aH
	DB	049H
	DB	04aH
	DB	029H
	DB	04aH
	DB	029H
	DB	04aH
	DB	049H
	DB	04aH
	DB	029H
	DB	04aH
	DB	029H
	DB	04aH
	DB	049H
	DB	04aH
	DB	029H
	DB	04aH
	DB	029H
	DB	04aH
	DB	049H
	DB	04aH
	DB	029H
	DB	04aH
	DB	029H
	DB	04aH
	DB	049H
	DB	04aH
	DB	029H
	DB	04aH
	DB	029H
	DB	04aH
	DB	049H
	DB	04aH
	DB	029H
	DB	04aH
	DB	029H
	DB	04aH
	DB	049H
	DB	04aH
	DB	029H
	DB	04aH
	DB	029H
	DB	04aH
	DB	049H
	DB	04aH
	DB	029H
	DB	04aH
	DB	029H
	DB	04aH
	DB	049H
	DB	04aH
	DB	029H
	DB	04aH
	DB	029H
	DB	04aH
	DB	049H
	DB	04aH
	DB	029H
	DB	04aH
	DB	029H
	DB	04aH
	DB	049H
	DB	04aH
	DB	029H
	DB	04aH
	DB	029H
	DB	04aH
	DB	049H
	DB	04aH
	DB	029H
	DB	04aH
	DB	029H
	DB	04aH
	DB	049H
	DB	04aH
	DB	029H
	DB	04aH
	DB	029H
	DB	04aH
	DB	049H
	DB	04aH
	DB	029H
	DB	04aH
	DB	029H
	DB	04aH
	DB	049H
	DB	04aH
	DB	029H
	DB	04aH
	DB	029H
	DB	04aH
	DB	049H
	DB	04aH
	DB	029H
	DB	04aH
	DB	029H
	DB	04aH
	DB	049H
	DB	04aH
	DB	029H
	DB	04aH
	DB	029H
	DB	04aH
	DB	049H
	DB	04aH
	DB	029H
	DB	04aH
	DB	029H
	DB	04aH
	DB	049H
	DB	04aH
	DB	029H
	DB	04aH
	DB	029H
	DB	04aH
	DB	049H
	DB	04aH
	DB	029H
	DB	04aH
	DB	029H
	DB	04aH
	DB	049H
	DB	04aH
	DB	029H
	DB	04aH
	DB	029H
	DB	04aH
	DB	049H
	DB	04aH
	DB	029H
	DB	04aH
	DB	029H
	DB	04aH
	DB	049H
	DB	04aH
	DB	029H
	DB	04aH
	DB	029H
	DB	04aH
	DB	049H
	DB	04aH
	DB	029H
	DB	04aH
	DB	029H
	DB	04aH
	DB	049H
	DB	04aH
	DB	029H
	DB	04aH
	DB	029H
	DB	04aH
	DB	049H
	DB	04aH
	DB	029H
	DB	04aH
	DB	029H
	DB	04aH
	DB	049H
	DB	04aH
	DB	029H
	DB	04aH
	DB	029H
	DB	04aH
	DB	049H
	DB	04aH
	DB	029H
	DB	04aH
	DB	029H
	DB	04aH
	DB	049H
	DB	04aH
	DB	029H
	DB	04aH
	DB	029H
	DB	04aH
	DB	049H
	DB	04aH
	DB	029H
	DB	04aH
	DB	029H
	DB	04aH
	DB	049H
	DB	04aH
	DB	029H
	DB	04aH
	DB	029H
	DB	04aH
	DB	049H
	DB	04aH
	DB	029H
	DB	04aH
	DB	029H
	DB	04aH
	DB	049H
	DB	04aH
	DB	029H
	DB	04aH
	DB	029H
	DB	04aH
	DB	049H
	DB	04aH
	DB	028H
	DB	042H
	DB	08H
	DB	042H
	DB	066H
	DB	031H
	DB	0c3H
	DB	018H
	DB	021H
	DB	08H
	DB	00H
	DB	00H
	DB	00H
	DB	00H
	DB	00H
	DB	00H
	DB	00H
	DB	00H
	DB	00H
	DB	00H
	DB	00H
	DB	00H
	DB	00H
	DB	00H
	DB	0a3H
	DB	018H
	DB	0e7H
	DB	039H
	DB	0e7H
	DB	039H
	DB	086H
	DB	031H
	DB	024H
	DB	021H
	DB	04H
	DB	021H
	DB	04H
	DB	021H
	DB	04H
	DB	021H
	DB	04H
	DB	021H
	DB	04H
	DB	021H
	DB	04H
	DB	021H
	DB	04H
	DB	021H
	DB	04H
	DB	021H
	DB	04H
	DB	021H
	DB	04H
	DB	021H
	DB	04H
	DB	021H
	DB	04H
	DB	021H
	DB	04H
	DB	021H
	DB	04H
	DB	021H
	DB	04H
	DB	021H
	DB	04H
	DB	021H
	DB	04H
	DB	021H
	DB	04H
	DB	021H
	DB	04H
	DB	021H
	DB	04H
	DB	021H
	DB	04H
	DB	021H
	DB	04H
	DB	021H
	DB	04H
	DB	021H
	DB	04H
	DB	021H
	DB	04H
	DB	021H
	DB	04H
	DB	021H
	DB	04H
	DB	021H
	DB	04H
	DB	021H
	DB	04H
	DB	021H
	DB	04H
	DB	021H
	DB	04H
	DB	021H
	DB	04H
	DB	021H
	DB	04H
	DB	021H
	DB	04H
	DB	021H
	DB	04H
	DB	021H
	DB	04H
	DB	021H
	DB	04H
	DB	021H
	DB	04H
	DB	021H
	DB	04H
	DB	021H
	DB	04H
	DB	021H
	DB	04H
	DB	021H
	DB	04H
	DB	021H
	DB	04H
	DB	021H
	DB	04H
	DB	021H
	DB	04H
	DB	021H
	DB	04H
	DB	021H
	DB	04H
	DB	021H
	DB	04H
	DB	021H
	DB	04H
	DB	021H
	DB	04H
	DB	021H
	DB	04H
	DB	021H
	DB	04H
	DB	021H
	DB	04H
	DB	021H
	DB	04H
	DB	021H
	DB	04H
	DB	021H
	DB	04H
	DB	021H
	DB	04H
	DB	021H
	DB	04H
	DB	021H
	DB	04H
	DB	021H
	DB	04H
	DB	021H
	DB	04H
	DB	021H
	DB	04H
	DB	021H
	DB	04H
	DB	021H
	DB	04H
	DB	021H
	DB	04H
	DB	021H
	DB	04H
	DB	021H
	DB	04H
	DB	021H
	DB	04H
	DB	021H
	DB	04H
	DB	021H
	DB	04H
	DB	021H
	DB	04H
	DB	021H
	DB	04H
	DB	021H
	DB	04H
	DB	021H
	DB	04H
	DB	021H
	DB	04H
	DB	021H
	DB	04H
	DB	021H
	DB	04H
	DB	021H
	DB	04H
	DB	021H
	DB	04H
	DB	021H
	DB	04H
	DB	021H
	DB	04H
	DB	021H
	DB	04H
	DB	021H
	DB	04H
	DB	021H
	DB	04H
	DB	021H
	DB	04H
	DB	021H
	DB	04H
	DB	021H
	DB	04H
	DB	021H
	DB	04H
	DB	021H
	DB	04H
	DB	021H
	DB	04H
	DB	021H
	DB	04H
	DB	021H
	DB	04H
	DB	021H
	DB	04H
	DB	021H
	DB	04H
	DB	021H
	DB	04H
	DB	021H
	DB	04H
	DB	021H
	DB	04H
	DB	021H
	DB	04H
	DB	021H
	DB	04H
	DB	021H
	DB	04H
	DB	021H
	DB	04H
	DB	021H
	DB	04H
	DB	021H
	DB	04H
	DB	021H
	DB	04H
	DB	021H
	DB	04H
	DB	021H
	DB	04H
	DB	021H
	DB	04H
	DB	021H
	DB	04H
	DB	021H
	DB	04H
	DB	021H
	DB	04H
	DB	021H
	DB	04H
	DB	021H
	DB	04H
	DB	021H
	DB	04H
	DB	021H
	DB	04H
	DB	021H
	DB	04H
	DB	021H
	DB	04H
	DB	021H
	DB	04H
	DB	021H
	DB	04H
	DB	021H
	DB	04H
	DB	021H
	DB	04H
	DB	021H
	DB	04H
	DB	021H
	DB	04H
	DB	021H
	DB	04H
	DB	021H
	DB	04H
	DB	021H
	DB	04H
	DB	021H
	DB	04H
	DB	021H
	DB	04H
	DB	021H
	DB	04H
	DB	021H
	DB	04H
	DB	021H
	DB	04H
	DB	021H
	DB	04H
	DB	021H
	DB	04H
	DB	021H
	DB	04H
	DB	021H
	DB	04H
	DB	021H
	DB	04H
	DB	021H
	DB	04H
	DB	021H
	DB	04H
	DB	021H
	DB	04H
	DB	021H
	DB	04H
	DB	021H
	DB	04H
	DB	021H
	DB	04H
	DB	021H
	DB	04H
	DB	021H
	DB	04H
	DB	021H
	DB	04H
	DB	021H
	DB	04H
	DB	021H
	DB	04H
	DB	021H
	DB	04H
	DB	021H
	DB	04H
	DB	021H
	DB	04H
	DB	021H
	DB	04H
	DB	021H
	DB	04H
	DB	021H
	DB	04H
	DB	021H
	DB	04H
	DB	021H
	DB	04H
	DB	021H
	DB	04H
	DB	021H
	DB	04H
	DB	021H
	DB	04H
	DB	021H
	DB	04H
	DB	021H
	DB	04H
	DB	021H
	DB	04H
	DB	021H
	DB	04H
	DB	021H
	DB	04H
	DB	021H
	DB	04H
	DB	021H
	DB	04H
	DB	021H
	DB	04H
	DB	021H
	DB	04H
	DB	021H
	DB	04H
	DB	021H
	DB	04H
	DB	021H
	DB	04H
	DB	021H
	DB	04H
	DB	021H
	DB	04H
	DB	021H
	DB	04H
	DB	021H
	DB	04H
	DB	021H
	DB	04H
	DB	021H
	DB	04H
	DB	021H
	DB	04H
	DB	021H
	DB	04H
	DB	021H
	DB	04H
	DB	021H
	DB	04H
	DB	021H
	DB	04H
	DB	021H
	DB	04H
	DB	021H
	DB	04H
	DB	021H
	DB	04H
	DB	021H
	DB	04H
	DB	021H
	DB	04H
	DB	021H
	DB	04H
	DB	021H
	DB	04H
	DB	021H
	DB	04H
	DB	021H
	DB	04H
	DB	021H
	DB	04H
	DB	021H
	DB	04H
	DB	021H
	DB	04H
	DB	021H
	DB	04H
	DB	021H
	DB	04H
	DB	021H
	DB	04H
	DB	021H
	DB	04H
	DB	021H
	DB	04H
	DB	021H
	DB	04H
	DB	021H
	DB	04H
	DB	021H
	DB	04H
	DB	021H
	DB	04H
	DB	021H
	DB	04H
	DB	021H
	DB	04H
	DB	021H
	DB	04H
	DB	021H
	DB	04H
	DB	021H
	DB	04H
	DB	021H
	DB	04H
	DB	021H
	DB	04H
	DB	021H
	DB	04H
	DB	021H
	DB	04H
	DB	021H
	DB	04H
	DB	021H
	DB	04H
	DB	021H
	DB	04H
	DB	021H
	DB	04H
	DB	021H
	DB	04H
	DB	021H
	DB	04H
	DB	021H
	DB	04H
	DB	021H
	DB	04H
	DB	021H
	DB	04H
	DB	021H
	DB	04H
	DB	021H
	DB	04H
	DB	021H
	DB	04H
	DB	021H
	DB	04H
	DB	021H
	DB	04H
	DB	021H
	DB	04H
	DB	021H
	DB	04H
	DB	021H
	DB	04H
	DB	021H
	DB	04H
	DB	021H
	DB	04H
	DB	021H
	DB	04H
	DB	021H
	DB	04H
	DB	021H
	DB	04H
	DB	021H
	DB	04H
	DB	021H
	DB	04H
	DB	021H
	DB	04H
	DB	021H
	DB	04H
	DB	021H
	DB	04H
	DB	021H
	DB	04H
	DB	021H
	DB	04H
	DB	021H
	DB	04H
	DB	021H
	DB	04H
	DB	021H
	DB	04H
	DB	021H
	DB	04H
	DB	021H
	DB	04H
	DB	021H
	DB	04H
	DB	021H
	DB	04H
	DB	021H
	DB	04H
	DB	021H
	DB	04H
	DB	021H
	DB	04H
	DB	021H
	DB	04H
	DB	021H
	DB	04H
	DB	021H
	DB	04H
	DB	021H
	DB	04H
	DB	021H
	DB	04H
	DB	021H
	DB	04H
	DB	021H
	DB	04H
	DB	021H
	DB	04H
	DB	021H
	DB	04H
	DB	021H
	DB	04H
	DB	021H
	DB	04H
	DB	021H
	DB	04H
	DB	021H
	DB	04H
	DB	021H
	DB	04H
	DB	021H
	DB	04H
	DB	021H
	DB	04H
	DB	021H
	DB	04H
	DB	021H
	DB	04H
	DB	021H
	DB	04H
	DB	021H
	DB	04H
	DB	021H
	DB	04H
	DB	021H
	DB	04H
	DB	021H
	DB	04H
	DB	021H
	DB	04H
	DB	021H
	DB	04H
	DB	021H
	DB	04H
	DB	021H
	DB	04H
	DB	021H
	DB	04H
	DB	021H
	DB	04H
	DB	021H
	DB	04H
	DB	021H
	DB	04H
	DB	021H
	DB	04H
	DB	021H
	DB	04H
	DB	021H
	DB	04H
	DB	021H
	DB	04H
	DB	021H
	DB	04H
	DB	021H
	DB	04H
	DB	021H
	DB	04H
	DB	021H
	DB	04H
	DB	021H
	DB	04H
	DB	021H
	DB	04H
	DB	021H
	DB	04H
	DB	021H
	DB	04H
	DB	021H
	DB	04H
	DB	021H
	DB	04H
	DB	021H
	DB	04H
	DB	021H
	DB	04H
	DB	021H
	DB	04H
	DB	021H
	DB	04H
	DB	021H
	DB	04H
	DB	021H
	DB	04H
	DB	021H
	DB	04H
	DB	021H
	DB	04H
	DB	021H
	DB	04H
	DB	021H
	DB	04H
	DB	021H
	DB	04H
	DB	021H
	DB	04H
	DB	021H
	DB	04H
	DB	021H
	DB	04H
	DB	021H
	DB	04H
	DB	021H
	DB	04H
	DB	021H
	DB	04H
	DB	021H
	DB	04H
	DB	021H
	DB	04H
	DB	021H
	DB	04H
	DB	021H
	DB	04H
	DB	021H
	DB	04H
	DB	021H
	DB	04H
	DB	021H
	DB	04H
	DB	021H
	DB	04H
	DB	021H
	DB	04H
	DB	021H
	DB	04H
	DB	021H
	DB	04H
	DB	021H
	DB	04H
	DB	021H
	DB	04H
	DB	021H
	DB	04H
	DB	021H
	DB	04H
	DB	021H
	DB	04H
	DB	021H
	DB	04H
	DB	021H
	DB	04H
	DB	021H
	DB	04H
	DB	021H
	DB	04H
	DB	021H
	DB	04H
	DB	021H
	DB	04H
	DB	021H
	DB	04H
	DB	021H
	DB	04H
	DB	021H
	DB	04H
	DB	021H
	DB	04H
	DB	021H
	DB	04H
	DB	021H
	DB	04H
	DB	021H
	DB	04H
	DB	021H
	DB	04H
	DB	021H
	DB	04H
	DB	021H
	DB	04H
	DB	021H
	DB	04H
	DB	021H
	DB	04H
	DB	021H
	DB	04H
	DB	021H
	DB	04H
	DB	021H
	DB	04H
	DB	021H
	DB	04H
	DB	021H
	DB	04H
	DB	021H
	DB	04H
	DB	021H
	DB	04H
	DB	021H
	DB	04H
	DB	021H
	DB	04H
	DB	021H
	DB	04H
	DB	021H
	DB	04H
	DB	021H
	DB	04H
	DB	021H
	DB	04H
	DB	021H
	DB	04H
	DB	021H
	DB	04H
	DB	021H
	DB	04H
	DB	021H
	DB	04H
	DB	021H
	DB	04H
	DB	021H
	DB	04H
	DB	021H
	DB	04H
	DB	021H
	DB	04H
	DB	021H
	DB	04H
	DB	021H
	DB	04H
	DB	021H
	DB	04H
	DB	021H
	DB	04H
	DB	021H
	DB	04H
	DB	021H
	DB	04H
	DB	021H
	DB	04H
	DB	021H
	DB	04H
	DB	021H
	DB	04H
	DB	021H
	DB	04H
	DB	021H
	DB	04H
	DB	021H
	DB	04H
	DB	021H
	DB	04H
	DB	021H
	DB	04H
	DB	021H
	DB	04H
	DB	021H
	DB	04H
	DB	021H
	DB	04H
	DB	021H
	DB	04H
	DB	021H
	DB	04H
	DB	021H
	DB	04H
	DB	021H
	DB	04H
	DB	021H
	DB	04H
	DB	021H
	DB	04H
	DB	021H
	DB	04H
	DB	021H
	DB	04H
	DB	021H
	DB	04H
	DB	021H
	DB	04H
	DB	021H
	DB	04H
	DB	021H
	DB	04H
	DB	021H
	DB	04H
	DB	021H
	DB	04H
	DB	021H
	DB	04H
	DB	021H
	DB	04H
	DB	021H
	DB	04H
	DB	021H
	DB	04H
	DB	021H
	DB	04H
	DB	021H
	DB	04H
	DB	021H
	DB	04H
	DB	021H
	DB	04H
	DB	021H
	DB	04H
	DB	021H
	DB	04H
	DB	021H
	DB	04H
	DB	021H
	DB	04H
	DB	021H
	DB	04H
	DB	021H
	DB	04H
	DB	021H
	DB	04H
	DB	021H
	DB	04H
	DB	021H
	DB	04H
	DB	021H
	DB	04H
	DB	021H
	DB	04H
	DB	021H
	DB	04H
	DB	021H
	DB	04H
	DB	021H
	DB	04H
	DB	021H
	DB	04H
	DB	021H
	DB	04H
	DB	021H
	DB	04H
	DB	021H
	DB	04H
	DB	021H
	DB	04H
	DB	021H
	DB	04H
	DB	021H
	DB	04H
	DB	021H
	DB	04H
	DB	021H
	DB	04H
	DB	021H
	DB	04H
	DB	021H
	DB	04H
	DB	021H
	DB	04H
	DB	021H
	DB	04H
	DB	021H
	DB	04H
	DB	021H
	DB	04H
	DB	021H
	DB	04H
	DB	021H
	DB	04H
	DB	021H
	DB	04H
	DB	021H
	DB	04H
	DB	021H
	DB	04H
	DB	021H
	DB	04H
	DB	021H
	DB	04H
	DB	021H
	DB	04H
	DB	021H
	DB	04H
	DB	021H
	DB	04H
	DB	021H
	DB	04H
	DB	021H
	DB	04H
	DB	021H
	DB	04H
	DB	021H
	DB	04H
	DB	021H
	DB	04H
	DB	021H
	DB	04H
	DB	021H
	DB	04H
	DB	021H
	DB	04H
	DB	021H
	DB	04H
	DB	021H
	DB	04H
	DB	021H
	DB	04H
	DB	021H
	DB	04H
	DB	021H
	DB	04H
	DB	021H
	DB	04H
	DB	021H
	DB	04H
	DB	021H
	DB	04H
	DB	021H
	DB	04H
	DB	021H
	DB	04H
	DB	021H
	DB	04H
	DB	021H
	DB	04H
	DB	021H
	DB	025H
	DB	029H
	DB	086H
	DB	031H
	DB	0e7H
	DB	039H
	DB	0e7H
	DB	039H
	DB	0c3H
	DB	018H
	DB	00H
	DB	00H
	DB	00H
	DB	00H
	DB	00H
	DB	00H
	DB	00H
	DB	00H
	DB	00H
	DB	00H
	DB	04H
	DB	021H
	DB	08H
	DB	042H
	DB	045H
	DB	029H
	DB	04H
	DB	021H
	DB	04H
	DB	021H
	DB	04H
	DB	021H
	DB	04H
	DB	021H
	DB	04H
	DB	021H
	DB	04H
	DB	021H
	DB	04H
	DB	021H
	DB	04H
	DB	021H
	DB	04H
	DB	021H
	DB	04H
	DB	021H
	DB	04H
	DB	021H
	DB	04H
	DB	021H
	DB	04H
	DB	021H
	DB	04H
	DB	021H
	DB	04H
	DB	021H
	DB	04H
	DB	021H
	DB	04H
	DB	021H
	DB	04H
	DB	021H
	DB	04H
	DB	021H
	DB	04H
	DB	021H
	DB	04H
	DB	021H
	DB	04H
	DB	021H
	DB	04H
	DB	021H
	DB	04H
	DB	021H
	DB	04H
	DB	021H
	DB	04H
	DB	021H
	DB	04H
	DB	021H
	DB	04H
	DB	021H
	DB	04H
	DB	021H
	DB	04H
	DB	021H
	DB	04H
	DB	021H
	DB	04H
	DB	021H
	DB	04H
	DB	021H
	DB	04H
	DB	021H
	DB	04H
	DB	021H
	DB	04H
	DB	021H
	DB	04H
	DB	021H
	DB	04H
	DB	021H
	DB	04H
	DB	021H
	DB	04H
	DB	021H
	DB	04H
	DB	021H
	DB	04H
	DB	021H
	DB	04H
	DB	021H
	DB	04H
	DB	021H
	DB	04H
	DB	021H
	DB	04H
	DB	021H
	DB	04H
	DB	021H
	DB	04H
	DB	021H
	DB	04H
	DB	021H
	DB	04H
	DB	021H
	DB	04H
	DB	021H
	DB	04H
	DB	021H
	DB	04H
	DB	021H
	DB	04H
	DB	021H
	DB	04H
	DB	021H
	DB	04H
	DB	021H
	DB	04H
	DB	021H
	DB	04H
	DB	021H
	DB	04H
	DB	021H
	DB	04H
	DB	021H
	DB	04H
	DB	021H
	DB	04H
	DB	021H
	DB	04H
	DB	021H
	DB	04H
	DB	021H
	DB	04H
	DB	021H
	DB	04H
	DB	021H
	DB	04H
	DB	021H
	DB	04H
	DB	021H
	DB	04H
	DB	021H
	DB	04H
	DB	021H
	DB	04H
	DB	021H
	DB	04H
	DB	021H
	DB	04H
	DB	021H
	DB	04H
	DB	021H
	DB	04H
	DB	021H
	DB	04H
	DB	021H
	DB	04H
	DB	021H
	DB	04H
	DB	021H
	DB	04H
	DB	021H
	DB	04H
	DB	021H
	DB	04H
	DB	021H
	DB	04H
	DB	021H
	DB	04H
	DB	021H
	DB	04H
	DB	021H
	DB	04H
	DB	021H
	DB	04H
	DB	021H
	DB	04H
	DB	021H
	DB	04H
	DB	021H
	DB	04H
	DB	021H
	DB	04H
	DB	021H
	DB	04H
	DB	021H
	DB	04H
	DB	021H
	DB	04H
	DB	021H
	DB	04H
	DB	021H
	DB	04H
	DB	021H
	DB	04H
	DB	021H
	DB	04H
	DB	021H
	DB	04H
	DB	021H
	DB	04H
	DB	021H
	DB	04H
	DB	021H
	DB	04H
	DB	021H
	DB	04H
	DB	021H
	DB	04H
	DB	021H
	DB	04H
	DB	021H
	DB	04H
	DB	021H
	DB	04H
	DB	021H
	DB	04H
	DB	021H
	DB	04H
	DB	021H
	DB	04H
	DB	021H
	DB	04H
	DB	021H
	DB	04H
	DB	021H
	DB	04H
	DB	021H
	DB	04H
	DB	021H
	DB	04H
	DB	021H
	DB	04H
	DB	021H
	DB	04H
	DB	021H
	DB	04H
	DB	021H
	DB	04H
	DB	021H
	DB	04H
	DB	021H
	DB	04H
	DB	021H
	DB	04H
	DB	021H
	DB	04H
	DB	021H
	DB	04H
	DB	021H
	DB	04H
	DB	021H
	DB	04H
	DB	021H
	DB	04H
	DB	021H
	DB	04H
	DB	021H
	DB	04H
	DB	021H
	DB	04H
	DB	021H
	DB	04H
	DB	021H
	DB	04H
	DB	021H
	DB	04H
	DB	021H
	DB	04H
	DB	021H
	DB	04H
	DB	021H
	DB	04H
	DB	021H
	DB	04H
	DB	021H
	DB	04H
	DB	021H
	DB	04H
	DB	021H
	DB	04H
	DB	021H
	DB	04H
	DB	021H
	DB	04H
	DB	021H
	DB	04H
	DB	021H
	DB	04H
	DB	021H
	DB	04H
	DB	021H
	DB	04H
	DB	021H
	DB	04H
	DB	021H
	DB	04H
	DB	021H
	DB	04H
	DB	021H
	DB	04H
	DB	021H
	DB	04H
	DB	021H
	DB	04H
	DB	021H
	DB	04H
	DB	021H
	DB	04H
	DB	021H
	DB	04H
	DB	021H
	DB	04H
	DB	021H
	DB	04H
	DB	021H
	DB	04H
	DB	021H
	DB	04H
	DB	021H
	DB	04H
	DB	021H
	DB	04H
	DB	021H
	DB	04H
	DB	021H
	DB	04H
	DB	021H
	DB	04H
	DB	021H
	DB	04H
	DB	021H
	DB	04H
	DB	021H
	DB	04H
	DB	021H
	DB	04H
	DB	021H
	DB	04H
	DB	021H
	DB	04H
	DB	021H
	DB	04H
	DB	021H
	DB	04H
	DB	021H
	DB	04H
	DB	021H
	DB	04H
	DB	021H
	DB	04H
	DB	021H
	DB	04H
	DB	021H
	DB	04H
	DB	021H
	DB	04H
	DB	021H
	DB	04H
	DB	021H
	DB	04H
	DB	021H
	DB	04H
	DB	021H
	DB	04H
	DB	021H
	DB	04H
	DB	021H
	DB	04H
	DB	021H
	DB	04H
	DB	021H
	DB	04H
	DB	021H
	DB	04H
	DB	021H
	DB	04H
	DB	021H
	DB	04H
	DB	021H
	DB	04H
	DB	021H
	DB	04H
	DB	021H
	DB	04H
	DB	021H
	DB	04H
	DB	021H
	DB	04H
	DB	021H
	DB	04H
	DB	021H
	DB	04H
	DB	021H
	DB	04H
	DB	021H
	DB	04H
	DB	021H
	DB	04H
	DB	021H
	DB	04H
	DB	021H
	DB	04H
	DB	021H
	DB	04H
	DB	021H
	DB	04H
	DB	021H
	DB	04H
	DB	021H
	DB	04H
	DB	021H
	DB	04H
	DB	021H
	DB	04H
	DB	021H
	DB	04H
	DB	021H
	DB	04H
	DB	021H
	DB	04H
	DB	021H
	DB	04H
	DB	021H
	DB	04H
	DB	021H
	DB	04H
	DB	021H
	DB	04H
	DB	021H
	DB	04H
	DB	021H
	DB	04H
	DB	021H
	DB	04H
	DB	021H
	DB	04H
	DB	021H
	DB	04H
	DB	021H
	DB	04H
	DB	021H
	DB	04H
	DB	021H
	DB	04H
	DB	021H
	DB	04H
	DB	021H
	DB	04H
	DB	021H
	DB	04H
	DB	021H
	DB	04H
	DB	021H
	DB	04H
	DB	021H
	DB	04H
	DB	021H
	DB	04H
	DB	021H
	DB	04H
	DB	021H
	DB	04H
	DB	021H
	DB	04H
	DB	021H
	DB	04H
	DB	021H
	DB	04H
	DB	021H
	DB	04H
	DB	021H
	DB	04H
	DB	021H
	DB	04H
	DB	021H
	DB	04H
	DB	021H
	DB	04H
	DB	021H
	DB	04H
	DB	021H
	DB	04H
	DB	021H
	DB	04H
	DB	021H
	DB	04H
	DB	021H
	DB	04H
	DB	021H
	DB	04H
	DB	021H
	DB	04H
	DB	021H
	DB	04H
	DB	021H
	DB	04H
	DB	021H
	DB	04H
	DB	021H
	DB	04H
	DB	021H
	DB	04H
	DB	021H
	DB	04H
	DB	021H
	DB	04H
	DB	021H
	DB	04H
	DB	021H
	DB	04H
	DB	021H
	DB	04H
	DB	021H
	DB	04H
	DB	021H
	DB	04H
	DB	021H
	DB	04H
	DB	021H
	DB	04H
	DB	021H
	DB	04H
	DB	021H
	DB	04H
	DB	021H
	DB	04H
	DB	021H
	DB	04H
	DB	021H
	DB	04H
	DB	021H
	DB	04H
	DB	021H
	DB	04H
	DB	021H
	DB	04H
	DB	021H
	DB	04H
	DB	021H
	DB	04H
	DB	021H
	DB	04H
	DB	021H
	DB	04H
	DB	021H
	DB	04H
	DB	021H
	DB	04H
	DB	021H
	DB	04H
	DB	021H
	DB	04H
	DB	021H
	DB	04H
	DB	021H
	DB	04H
	DB	021H
	DB	04H
	DB	021H
	DB	04H
	DB	021H
	DB	04H
	DB	021H
	DB	04H
	DB	021H
	DB	04H
	DB	021H
	DB	04H
	DB	021H
	DB	04H
	DB	021H
	DB	04H
	DB	021H
	DB	04H
	DB	021H
	DB	04H
	DB	021H
	DB	04H
	DB	021H
	DB	04H
	DB	021H
	DB	04H
	DB	021H
	DB	04H
	DB	021H
	DB	04H
	DB	021H
	DB	04H
	DB	021H
	DB	04H
	DB	021H
	DB	04H
	DB	021H
	DB	04H
	DB	021H
	DB	04H
	DB	021H
	DB	04H
	DB	021H
	DB	04H
	DB	021H
	DB	04H
	DB	021H
	DB	04H
	DB	021H
	DB	04H
	DB	021H
	DB	04H
	DB	021H
	DB	04H
	DB	021H
	DB	04H
	DB	021H
	DB	04H
	DB	021H
	DB	04H
	DB	021H
	DB	04H
	DB	021H
	DB	04H
	DB	021H
	DB	04H
	DB	021H
	DB	04H
	DB	021H
	DB	04H
	DB	021H
	DB	04H
	DB	021H
	DB	04H
	DB	021H
	DB	04H
	DB	021H
	DB	04H
	DB	021H
	DB	04H
	DB	021H
	DB	04H
	DB	021H
	DB	04H
	DB	021H
	DB	04H
	DB	021H
	DB	04H
	DB	021H
	DB	04H
	DB	021H
	DB	04H
	DB	021H
	DB	04H
	DB	021H
	DB	04H
	DB	021H
	DB	04H
	DB	021H
	DB	04H
	DB	021H
	DB	04H
	DB	021H
	DB	04H
	DB	021H
	DB	04H
	DB	021H
	DB	04H
	DB	021H
	DB	04H
	DB	021H
	DB	04H
	DB	021H
	DB	04H
	DB	021H
	DB	04H
	DB	021H
	DB	04H
	DB	021H
	DB	04H
	DB	021H
	DB	04H
	DB	021H
	DB	04H
	DB	021H
	DB	04H
	DB	021H
	DB	04H
	DB	021H
	DB	04H
	DB	021H
	DB	04H
	DB	021H
	DB	04H
	DB	021H
	DB	04H
	DB	021H
	DB	04H
	DB	021H
	DB	04H
	DB	021H
	DB	04H
	DB	021H
	DB	04H
	DB	021H
	DB	04H
	DB	021H
	DB	04H
	DB	021H
	DB	04H
	DB	021H
	DB	04H
	DB	021H
	DB	04H
	DB	021H
	DB	04H
	DB	021H
	DB	04H
	DB	021H
	DB	04H
	DB	021H
	DB	04H
	DB	021H
	DB	04H
	DB	021H
	DB	04H
	DB	021H
	DB	04H
	DB	021H
	DB	04H
	DB	021H
	DB	04H
	DB	021H
	DB	04H
	DB	021H
	DB	04H
	DB	021H
	DB	04H
	DB	021H
	DB	04H
	DB	021H
	DB	04H
	DB	021H
	DB	04H
	DB	021H
	DB	04H
	DB	021H
	DB	04H
	DB	021H
	DB	04H
	DB	021H
	DB	04H
	DB	021H
	DB	04H
	DB	021H
	DB	04H
	DB	021H
	DB	04H
	DB	021H
	DB	04H
	DB	021H
	DB	04H
	DB	021H
	DB	04H
	DB	021H
	DB	04H
	DB	021H
	DB	04H
	DB	021H
	DB	04H
	DB	021H
	DB	04H
	DB	021H
	DB	04H
	DB	021H
	DB	04H
	DB	021H
	DB	04H
	DB	021H
	DB	04H
	DB	021H
	DB	04H
	DB	021H
	DB	04H
	DB	021H
	DB	04H
	DB	021H
	DB	04H
	DB	021H
	DB	04H
	DB	021H
	DB	04H
	DB	021H
	DB	04H
	DB	021H
	DB	04H
	DB	021H
	DB	04H
	DB	021H
	DB	04H
	DB	021H
	DB	04H
	DB	021H
	DB	04H
	DB	021H
	DB	04H
	DB	021H
	DB	04H
	DB	021H
	DB	04H
	DB	021H
	DB	04H
	DB	021H
	DB	04H
	DB	021H
	DB	04H
	DB	021H
	DB	04H
	DB	021H
	DB	04H
	DB	021H
	DB	04H
	DB	021H
	DB	04H
	DB	021H
	DB	04H
	DB	021H
	DB	04H
	DB	021H
	DB	04H
	DB	021H
	DB	04H
	DB	021H
	DB	04H
	DB	021H
	DB	04H
	DB	021H
	DB	04H
	DB	021H
	DB	04H
	DB	021H
	DB	04H
	DB	021H
	DB	04H
	DB	021H
	DB	04H
	DB	021H
	DB	04H
	DB	021H
	DB	04H
	DB	021H
	DB	04H
	DB	021H
	DB	04H
	DB	021H
	DB	04H
	DB	021H
	DB	04H
	DB	021H
	DB	04H
	DB	021H
	DB	04H
	DB	021H
	DB	04H
	DB	021H
	DB	04H
	DB	021H
	DB	04H
	DB	021H
	DB	04H
	DB	021H
	DB	04H
	DB	021H
	DB	04H
	DB	021H
	DB	04H
	DB	021H
	DB	04H
	DB	021H
	DB	04H
	DB	021H
	DB	04H
	DB	021H
	DB	04H
	DB	021H
	DB	04H
	DB	021H
	DB	04H
	DB	021H
	DB	04H
	DB	021H
	DB	04H
	DB	021H
	DB	04H
	DB	021H
	DB	04H
	DB	021H
	DB	04H
	DB	021H
	DB	04H
	DB	021H
	DB	04H
	DB	021H
	DB	04H
	DB	021H
	DB	04H
	DB	021H
	DB	04H
	DB	021H
	DB	04H
	DB	021H
	DB	04H
	DB	021H
	DB	04H
	DB	021H
	DB	04H
	DB	021H
	DB	04H
	DB	021H
	DB	04H
	DB	021H
	DB	04H
	DB	021H
	DB	04H
	DB	021H
	DB	04H
	DB	021H
	DB	04H
	DB	021H
	DB	04H
	DB	021H
	DB	04H
	DB	021H
	DB	04H
	DB	021H
	DB	04H
	DB	021H
	DB	04H
	DB	021H
	DB	04H
	DB	021H
	DB	04H
	DB	021H
	DB	04H
	DB	021H
	DB	04H
	DB	021H
	DB	045H
	DB	029H
	DB	0e8H
	DB	041H
	DB	04H
	DB	021H
	DB	00H
	DB	00H
	DB	00H
	DB	00H
	DB	00H
	DB	00H
	DB	0a3H
	DB	018H
	DB	0c7H
	DB	039H
	DB	04H
	DB	021H
	DB	04H
	DB	021H
	DB	04H
	DB	021H
	DB	04H
	DB	021H
	DB	04H
	DB	021H
	DB	04H
	DB	021H
	DB	04H
	DB	021H
	DB	04H
	DB	021H
	DB	04H
	DB	021H
	DB	04H
	DB	021H
	DB	04H
	DB	021H
	DB	04H
	DB	021H
	DB	04H
	DB	021H
	DB	04H
	DB	021H
	DB	04H
	DB	021H
	DB	04H
	DB	021H
	DB	04H
	DB	021H
	DB	04H
	DB	021H
	DB	04H
	DB	021H
	DB	04H
	DB	021H
	DB	04H
	DB	021H
	DB	04H
	DB	021H
	DB	04H
	DB	021H
	DB	04H
	DB	021H
	DB	04H
	DB	021H
	DB	04H
	DB	021H
	DB	04H
	DB	021H
	DB	04H
	DB	021H
	DB	04H
	DB	021H
	DB	04H
	DB	021H
	DB	04H
	DB	021H
	DB	04H
	DB	021H
	DB	04H
	DB	021H
	DB	04H
	DB	021H
	DB	04H
	DB	021H
	DB	04H
	DB	021H
	DB	04H
	DB	021H
	DB	04H
	DB	021H
	DB	04H
	DB	021H
	DB	04H
	DB	021H
	DB	04H
	DB	021H
	DB	04H
	DB	021H
	DB	04H
	DB	021H
	DB	04H
	DB	021H
	DB	04H
	DB	021H
	DB	04H
	DB	021H
	DB	04H
	DB	021H
	DB	04H
	DB	021H
	DB	04H
	DB	021H
	DB	04H
	DB	021H
	DB	04H
	DB	021H
	DB	04H
	DB	021H
	DB	04H
	DB	021H
	DB	04H
	DB	021H
	DB	04H
	DB	021H
	DB	04H
	DB	021H
	DB	04H
	DB	021H
	DB	04H
	DB	021H
	DB	04H
	DB	021H
	DB	04H
	DB	021H
	DB	04H
	DB	021H
	DB	04H
	DB	021H
	DB	04H
	DB	021H
	DB	04H
	DB	021H
	DB	04H
	DB	021H
	DB	04H
	DB	021H
	DB	04H
	DB	021H
	DB	04H
	DB	021H
	DB	04H
	DB	021H
	DB	04H
	DB	021H
	DB	04H
	DB	021H
	DB	04H
	DB	021H
	DB	04H
	DB	021H
	DB	04H
	DB	021H
	DB	04H
	DB	021H
	DB	04H
	DB	021H
	DB	04H
	DB	021H
	DB	04H
	DB	021H
	DB	04H
	DB	021H
	DB	04H
	DB	021H
	DB	04H
	DB	021H
	DB	04H
	DB	021H
	DB	04H
	DB	021H
	DB	04H
	DB	021H
	DB	04H
	DB	021H
	DB	04H
	DB	021H
	DB	04H
	DB	021H
	DB	04H
	DB	021H
	DB	04H
	DB	021H
	DB	04H
	DB	021H
	DB	04H
	DB	021H
	DB	04H
	DB	021H
	DB	04H
	DB	021H
	DB	04H
	DB	021H
	DB	04H
	DB	021H
	DB	04H
	DB	021H
	DB	04H
	DB	021H
	DB	04H
	DB	021H
	DB	04H
	DB	021H
	DB	04H
	DB	021H
	DB	04H
	DB	021H
	DB	04H
	DB	021H
	DB	04H
	DB	021H
	DB	04H
	DB	021H
	DB	04H
	DB	021H
	DB	04H
	DB	021H
	DB	04H
	DB	021H
	DB	04H
	DB	021H
	DB	04H
	DB	021H
	DB	04H
	DB	021H
	DB	04H
	DB	021H
	DB	04H
	DB	021H
	DB	04H
	DB	021H
	DB	04H
	DB	021H
	DB	04H
	DB	021H
	DB	04H
	DB	021H
	DB	04H
	DB	021H
	DB	04H
	DB	021H
	DB	04H
	DB	021H
	DB	04H
	DB	021H
	DB	04H
	DB	021H
	DB	04H
	DB	021H
	DB	04H
	DB	021H
	DB	04H
	DB	021H
	DB	04H
	DB	021H
	DB	04H
	DB	021H
	DB	04H
	DB	021H
	DB	04H
	DB	021H
	DB	04H
	DB	021H
	DB	04H
	DB	021H
	DB	04H
	DB	021H
	DB	04H
	DB	021H
	DB	04H
	DB	021H
	DB	04H
	DB	021H
	DB	04H
	DB	021H
	DB	04H
	DB	021H
	DB	04H
	DB	021H
	DB	04H
	DB	021H
	DB	04H
	DB	021H
	DB	04H
	DB	021H
	DB	04H
	DB	021H
	DB	04H
	DB	021H
	DB	04H
	DB	021H
	DB	04H
	DB	021H
	DB	04H
	DB	021H
	DB	04H
	DB	021H
	DB	04H
	DB	021H
	DB	04H
	DB	021H
	DB	04H
	DB	021H
	DB	04H
	DB	021H
	DB	04H
	DB	021H
	DB	04H
	DB	021H
	DB	04H
	DB	021H
	DB	04H
	DB	021H
	DB	04H
	DB	021H
	DB	04H
	DB	021H
	DB	04H
	DB	021H
	DB	04H
	DB	021H
	DB	04H
	DB	021H
	DB	04H
	DB	021H
	DB	04H
	DB	021H
	DB	04H
	DB	021H
	DB	04H
	DB	021H
	DB	04H
	DB	021H
	DB	04H
	DB	021H
	DB	04H
	DB	021H
	DB	04H
	DB	021H
	DB	04H
	DB	021H
	DB	04H
	DB	021H
	DB	04H
	DB	021H
	DB	04H
	DB	021H
	DB	04H
	DB	021H
	DB	04H
	DB	021H
	DB	04H
	DB	021H
	DB	04H
	DB	021H
	DB	04H
	DB	021H
	DB	04H
	DB	021H
	DB	04H
	DB	021H
	DB	04H
	DB	021H
	DB	04H
	DB	021H
	DB	04H
	DB	021H
	DB	04H
	DB	021H
	DB	04H
	DB	021H
	DB	04H
	DB	021H
	DB	04H
	DB	021H
	DB	04H
	DB	021H
	DB	04H
	DB	021H
	DB	04H
	DB	021H
	DB	04H
	DB	021H
	DB	04H
	DB	021H
	DB	04H
	DB	021H
	DB	04H
	DB	021H
	DB	04H
	DB	021H
	DB	04H
	DB	021H
	DB	04H
	DB	021H
	DB	04H
	DB	021H
	DB	04H
	DB	021H
	DB	04H
	DB	021H
	DB	04H
	DB	021H
	DB	04H
	DB	021H
	DB	04H
	DB	021H
	DB	04H
	DB	021H
	DB	04H
	DB	021H
	DB	04H
	DB	021H
	DB	04H
	DB	021H
	DB	04H
	DB	021H
	DB	04H
	DB	021H
	DB	04H
	DB	021H
	DB	04H
	DB	021H
	DB	04H
	DB	021H
	DB	04H
	DB	021H
	DB	04H
	DB	021H
	DB	04H
	DB	021H
	DB	04H
	DB	021H
	DB	04H
	DB	021H
	DB	04H
	DB	021H
	DB	04H
	DB	021H
	DB	04H
	DB	021H
	DB	04H
	DB	021H
	DB	04H
	DB	021H
	DB	04H
	DB	021H
	DB	04H
	DB	021H
	DB	04H
	DB	021H
	DB	04H
	DB	021H
	DB	04H
	DB	021H
	DB	04H
	DB	021H
	DB	04H
	DB	021H
	DB	04H
	DB	021H
	DB	04H
	DB	021H
	DB	04H
	DB	021H
	DB	04H
	DB	021H
	DB	04H
	DB	021H
	DB	04H
	DB	021H
	DB	04H
	DB	021H
	DB	04H
	DB	021H
	DB	04H
	DB	021H
	DB	04H
	DB	021H
	DB	04H
	DB	021H
	DB	04H
	DB	021H
	DB	04H
	DB	021H
	DB	04H
	DB	021H
	DB	04H
	DB	021H
	DB	04H
	DB	021H
	DB	04H
	DB	021H
	DB	04H
	DB	021H
	DB	04H
	DB	021H
	DB	04H
	DB	021H
	DB	04H
	DB	021H
	DB	04H
	DB	021H
	DB	04H
	DB	021H
	DB	04H
	DB	021H
	DB	04H
	DB	021H
	DB	04H
	DB	021H
	DB	04H
	DB	021H
	DB	04H
	DB	021H
	DB	04H
	DB	021H
	DB	04H
	DB	021H
	DB	04H
	DB	021H
	DB	04H
	DB	021H
	DB	04H
	DB	021H
	DB	04H
	DB	021H
	DB	04H
	DB	021H
	DB	04H
	DB	021H
	DB	04H
	DB	021H
	DB	04H
	DB	021H
	DB	04H
	DB	021H
	DB	04H
	DB	021H
	DB	04H
	DB	021H
	DB	04H
	DB	021H
	DB	04H
	DB	021H
	DB	04H
	DB	021H
	DB	04H
	DB	021H
	DB	04H
	DB	021H
	DB	04H
	DB	021H
	DB	04H
	DB	021H
	DB	04H
	DB	021H
	DB	04H
	DB	021H
	DB	04H
	DB	021H
	DB	04H
	DB	021H
	DB	04H
	DB	021H
	DB	04H
	DB	021H
	DB	04H
	DB	021H
	DB	04H
	DB	021H
	DB	04H
	DB	021H
	DB	04H
	DB	021H
	DB	04H
	DB	021H
	DB	04H
	DB	021H
	DB	04H
	DB	021H
	DB	04H
	DB	021H
	DB	04H
	DB	021H
	DB	04H
	DB	021H
	DB	04H
	DB	021H
	DB	04H
	DB	021H
	DB	04H
	DB	021H
	DB	04H
	DB	021H
	DB	04H
	DB	021H
	DB	04H
	DB	021H
	DB	04H
	DB	021H
	DB	04H
	DB	021H
	DB	04H
	DB	021H
	DB	04H
	DB	021H
	DB	04H
	DB	021H
	DB	04H
	DB	021H
	DB	04H
	DB	021H
	DB	04H
	DB	021H
	DB	04H
	DB	021H
	DB	04H
	DB	021H
	DB	04H
	DB	021H
	DB	04H
	DB	021H
	DB	04H
	DB	021H
	DB	04H
	DB	021H
	DB	04H
	DB	021H
	DB	04H
	DB	021H
	DB	04H
	DB	021H
	DB	04H
	DB	021H
	DB	04H
	DB	021H
	DB	04H
	DB	021H
	DB	04H
	DB	021H
	DB	04H
	DB	021H
	DB	04H
	DB	021H
	DB	04H
	DB	021H
	DB	04H
	DB	021H
	DB	04H
	DB	021H
	DB	04H
	DB	021H
	DB	04H
	DB	021H
	DB	04H
	DB	021H
	DB	04H
	DB	021H
	DB	04H
	DB	021H
	DB	04H
	DB	021H
	DB	04H
	DB	021H
	DB	04H
	DB	021H
	DB	04H
	DB	021H
	DB	04H
	DB	021H
	DB	04H
	DB	021H
	DB	04H
	DB	021H
	DB	04H
	DB	021H
	DB	04H
	DB	021H
	DB	04H
	DB	021H
	DB	04H
	DB	021H
	DB	04H
	DB	021H
	DB	04H
	DB	021H
	DB	04H
	DB	021H
	DB	04H
	DB	021H
	DB	04H
	DB	021H
	DB	04H
	DB	021H
	DB	04H
	DB	021H
	DB	04H
	DB	021H
	DB	04H
	DB	021H
	DB	04H
	DB	021H
	DB	04H
	DB	021H
	DB	04H
	DB	021H
	DB	04H
	DB	021H
	DB	04H
	DB	021H
	DB	04H
	DB	021H
	DB	04H
	DB	021H
	DB	04H
	DB	021H
	DB	04H
	DB	021H
	DB	04H
	DB	021H
	DB	04H
	DB	021H
	DB	04H
	DB	021H
	DB	04H
	DB	021H
	DB	04H
	DB	021H
	DB	04H
	DB	021H
	DB	04H
	DB	021H
	DB	04H
	DB	021H
	DB	04H
	DB	021H
	DB	04H
	DB	021H
	DB	04H
	DB	021H
	DB	04H
	DB	021H
	DB	04H
	DB	021H
	DB	04H
	DB	021H
	DB	04H
	DB	021H
	DB	04H
	DB	021H
	DB	04H
	DB	021H
	DB	04H
	DB	021H
	DB	04H
	DB	021H
	DB	04H
	DB	021H
	DB	04H
	DB	021H
	DB	04H
	DB	021H
	DB	04H
	DB	021H
	DB	04H
	DB	021H
	DB	04H
	DB	021H
	DB	04H
	DB	021H
	DB	04H
	DB	021H
	DB	04H
	DB	021H
	DB	04H
	DB	021H
	DB	04H
	DB	021H
	DB	04H
	DB	021H
	DB	04H
	DB	021H
	DB	04H
	DB	021H
	DB	04H
	DB	021H
	DB	04H
	DB	021H
	DB	04H
	DB	021H
	DB	04H
	DB	021H
	DB	04H
	DB	021H
	DB	04H
	DB	021H
	DB	04H
	DB	021H
	DB	04H
	DB	021H
	DB	04H
	DB	021H
	DB	04H
	DB	021H
	DB	04H
	DB	021H
	DB	04H
	DB	021H
	DB	04H
	DB	021H
	DB	04H
	DB	021H
	DB	04H
	DB	021H
	DB	04H
	DB	021H
	DB	04H
	DB	021H
	DB	04H
	DB	021H
	DB	04H
	DB	021H
	DB	04H
	DB	021H
	DB	04H
	DB	021H
	DB	04H
	DB	021H
	DB	04H
	DB	021H
	DB	04H
	DB	021H
	DB	04H
	DB	021H
	DB	04H
	DB	021H
	DB	04H
	DB	021H
	DB	04H
	DB	021H
	DB	04H
	DB	021H
	DB	04H
	DB	021H
	DB	04H
	DB	021H
	DB	04H
	DB	021H
	DB	04H
	DB	021H
	DB	04H
	DB	021H
	DB	04H
	DB	021H
	DB	04H
	DB	021H
	DB	04H
	DB	021H
	DB	04H
	DB	021H
	DB	04H
	DB	021H
	DB	04H
	DB	021H
	DB	04H
	DB	021H
	DB	04H
	DB	021H
	DB	04H
	DB	021H
	DB	04H
	DB	021H
	DB	04H
	DB	021H
	DB	04H
	DB	021H
	DB	04H
	DB	021H
	DB	04H
	DB	021H
	DB	04H
	DB	021H
	DB	04H
	DB	021H
	DB	04H
	DB	021H
	DB	04H
	DB	021H
	DB	04H
	DB	021H
	DB	04H
	DB	021H
	DB	04H
	DB	021H
	DB	04H
	DB	021H
	DB	04H
	DB	021H
	DB	04H
	DB	021H
	DB	04H
	DB	021H
	DB	04H
	DB	021H
	DB	04H
	DB	021H
	DB	04H
	DB	021H
	DB	04H
	DB	021H
	DB	04H
	DB	021H
	DB	04H
	DB	021H
	DB	04H
	DB	021H
	DB	04H
	DB	021H
	DB	04H
	DB	021H
	DB	04H
	DB	021H
	DB	04H
	DB	021H
	DB	04H
	DB	021H
	DB	04H
	DB	021H
	DB	04H
	DB	021H
	DB	04H
	DB	021H
	DB	04H
	DB	021H
	DB	04H
	DB	021H
	DB	04H
	DB	021H
	DB	04H
	DB	021H
	DB	04H
	DB	021H
	DB	04H
	DB	021H
	DB	04H
	DB	021H
	DB	04H
	DB	021H
	DB	04H
	DB	021H
	DB	04H
	DB	021H
	DB	0e7H
	DB	039H
	DB	0a3H
	DB	018H
	DB	00H
	DB	00H
	DB	021H
	DB	08H
	DB	0c7H
	DB	039H
	DB	04H
	DB	021H
	DB	04H
	DB	021H
	DB	04H
	DB	021H
	DB	04H
	DB	021H
	DB	04H
	DB	021H
	DB	04H
	DB	021H
	DB	04H
	DB	021H
	DB	04H
	DB	021H
	DB	04H
	DB	021H
	DB	04H
	DB	021H
	DB	03H
	DB	019H
	DB	04H
	DB	021H
	DB	04H
	DB	021H
	DB	03H
	DB	019H
	DB	04H
	DB	021H
	DB	0e4H
	DB	020H
	DB	03H
	DB	019H
	DB	04H
	DB	021H
	DB	04H
	DB	021H
	DB	03H
	DB	019H
	DB	0e4H
	DB	020H
	DB	04H
	DB	021H
	DB	03H
	DB	019H
	DB	04H
	DB	021H
	DB	04H
	DB	021H
	DB	0e3H
	DB	018H
	DB	04H
	DB	021H
	DB	04H
	DB	021H
	DB	03H
	DB	019H
	DB	04H
	DB	021H
	DB	0e4H
	DB	020H
	DB	03H
	DB	019H
	DB	04H
	DB	021H
	DB	04H
	DB	021H
	DB	03H
	DB	019H
	DB	0e4H
	DB	020H
	DB	04H
	DB	021H
	DB	03H
	DB	019H
	DB	04H
	DB	021H
	DB	04H
	DB	021H
	DB	0e3H
	DB	018H
	DB	04H
	DB	021H
	DB	04H
	DB	021H
	DB	03H
	DB	019H
	DB	04H
	DB	021H
	DB	0e4H
	DB	020H
	DB	03H
	DB	019H
	DB	04H
	DB	021H
	DB	04H
	DB	021H
	DB	03H
	DB	019H
	DB	0e4H
	DB	020H
	DB	04H
	DB	021H
	DB	03H
	DB	019H
	DB	04H
	DB	021H
	DB	04H
	DB	021H
	DB	0e3H
	DB	018H
	DB	04H
	DB	021H
	DB	04H
	DB	021H
	DB	03H
	DB	019H
	DB	04H
	DB	021H
	DB	0e4H
	DB	020H
	DB	03H
	DB	019H
	DB	04H
	DB	021H
	DB	04H
	DB	021H
	DB	03H
	DB	019H
	DB	0e4H
	DB	020H
	DB	04H
	DB	021H
	DB	03H
	DB	019H
	DB	04H
	DB	021H
	DB	04H
	DB	021H
	DB	0e3H
	DB	018H
	DB	04H
	DB	021H
	DB	04H
	DB	021H
	DB	03H
	DB	019H
	DB	04H
	DB	021H
	DB	0e4H
	DB	020H
	DB	03H
	DB	019H
	DB	04H
	DB	021H
	DB	04H
	DB	021H
	DB	03H
	DB	019H
	DB	0e4H
	DB	020H
	DB	04H
	DB	021H
	DB	03H
	DB	019H
	DB	04H
	DB	021H
	DB	04H
	DB	021H
	DB	0e3H
	DB	018H
	DB	04H
	DB	021H
	DB	04H
	DB	021H
	DB	03H
	DB	019H
	DB	04H
	DB	021H
	DB	0e4H
	DB	020H
	DB	03H
	DB	019H
	DB	04H
	DB	021H
	DB	04H
	DB	021H
	DB	03H
	DB	019H
	DB	0e4H
	DB	020H
	DB	04H
	DB	021H
	DB	03H
	DB	019H
	DB	04H
	DB	021H
	DB	04H
	DB	021H
	DB	0e3H
	DB	018H
	DB	04H
	DB	021H
	DB	04H
	DB	021H
	DB	03H
	DB	019H
	DB	04H
	DB	021H
	DB	0e4H
	DB	020H
	DB	03H
	DB	019H
	DB	04H
	DB	021H
	DB	04H
	DB	021H
	DB	03H
	DB	019H
	DB	0e4H
	DB	020H
	DB	04H
	DB	021H
	DB	03H
	DB	019H
	DB	04H
	DB	021H
	DB	04H
	DB	021H
	DB	0e3H
	DB	018H
	DB	04H
	DB	021H
	DB	04H
	DB	021H
	DB	03H
	DB	019H
	DB	04H
	DB	021H
	DB	0e4H
	DB	020H
	DB	03H
	DB	019H
	DB	04H
	DB	021H
	DB	04H
	DB	021H
	DB	03H
	DB	019H
	DB	0e4H
	DB	020H
	DB	04H
	DB	021H
	DB	03H
	DB	019H
	DB	04H
	DB	021H
	DB	04H
	DB	021H
	DB	0e3H
	DB	018H
	DB	04H
	DB	021H
	DB	04H
	DB	021H
	DB	03H
	DB	019H
	DB	04H
	DB	021H
	DB	0e4H
	DB	020H
	DB	03H
	DB	019H
	DB	04H
	DB	021H
	DB	04H
	DB	021H
	DB	03H
	DB	019H
	DB	0e4H
	DB	020H
	DB	04H
	DB	021H
	DB	03H
	DB	019H
	DB	04H
	DB	021H
	DB	04H
	DB	021H
	DB	0e3H
	DB	018H
	DB	04H
	DB	021H
	DB	04H
	DB	021H
	DB	03H
	DB	019H
	DB	04H
	DB	021H
	DB	0e4H
	DB	020H
	DB	03H
	DB	019H
	DB	04H
	DB	021H
	DB	04H
	DB	021H
	DB	03H
	DB	019H
	DB	0e4H
	DB	020H
	DB	04H
	DB	021H
	DB	03H
	DB	019H
	DB	04H
	DB	021H
	DB	04H
	DB	021H
	DB	0e3H
	DB	018H
	DB	04H
	DB	021H
	DB	04H
	DB	021H
	DB	03H
	DB	019H
	DB	04H
	DB	021H
	DB	0e4H
	DB	020H
	DB	03H
	DB	019H
	DB	04H
	DB	021H
	DB	04H
	DB	021H
	DB	03H
	DB	019H
	DB	0e4H
	DB	020H
	DB	04H
	DB	021H
	DB	03H
	DB	019H
	DB	04H
	DB	021H
	DB	04H
	DB	021H
	DB	0e3H
	DB	018H
	DB	04H
	DB	021H
	DB	04H
	DB	021H
	DB	03H
	DB	019H
	DB	04H
	DB	021H
	DB	0e4H
	DB	020H
	DB	03H
	DB	019H
	DB	04H
	DB	021H
	DB	04H
	DB	021H
	DB	03H
	DB	019H
	DB	0e4H
	DB	020H
	DB	04H
	DB	021H
	DB	03H
	DB	019H
	DB	04H
	DB	021H
	DB	04H
	DB	021H
	DB	0e3H
	DB	018H
	DB	04H
	DB	021H
	DB	04H
	DB	021H
	DB	03H
	DB	019H
	DB	04H
	DB	021H
	DB	0e4H
	DB	020H
	DB	03H
	DB	019H
	DB	04H
	DB	021H
	DB	04H
	DB	021H
	DB	03H
	DB	019H
	DB	0e4H
	DB	020H
	DB	04H
	DB	021H
	DB	03H
	DB	019H
	DB	04H
	DB	021H
	DB	04H
	DB	021H
	DB	0e3H
	DB	018H
	DB	04H
	DB	021H
	DB	04H
	DB	021H
	DB	03H
	DB	019H
	DB	04H
	DB	021H
	DB	0e4H
	DB	020H
	DB	03H
	DB	019H
	DB	04H
	DB	021H
	DB	04H
	DB	021H
	DB	03H
	DB	019H
	DB	0e4H
	DB	020H
	DB	04H
	DB	021H
	DB	03H
	DB	019H
	DB	04H
	DB	021H
	DB	04H
	DB	021H
	DB	0e3H
	DB	018H
	DB	04H
	DB	021H
	DB	04H
	DB	021H
	DB	03H
	DB	019H
	DB	04H
	DB	021H
	DB	0e4H
	DB	020H
	DB	03H
	DB	019H
	DB	04H
	DB	021H
	DB	04H
	DB	021H
	DB	03H
	DB	019H
	DB	0e4H
	DB	020H
	DB	04H
	DB	021H
	DB	03H
	DB	019H
	DB	04H
	DB	021H
	DB	04H
	DB	021H
	DB	0e3H
	DB	018H
	DB	04H
	DB	021H
	DB	04H
	DB	021H
	DB	03H
	DB	019H
	DB	04H
	DB	021H
	DB	0e4H
	DB	020H
	DB	03H
	DB	019H
	DB	04H
	DB	021H
	DB	04H
	DB	021H
	DB	03H
	DB	019H
	DB	0e4H
	DB	020H
	DB	04H
	DB	021H
	DB	03H
	DB	019H
	DB	04H
	DB	021H
	DB	04H
	DB	021H
	DB	0e3H
	DB	018H
	DB	04H
	DB	021H
	DB	04H
	DB	021H
	DB	03H
	DB	019H
	DB	04H
	DB	021H
	DB	0e4H
	DB	020H
	DB	03H
	DB	019H
	DB	04H
	DB	021H
	DB	04H
	DB	021H
	DB	03H
	DB	019H
	DB	0e4H
	DB	020H
	DB	04H
	DB	021H
	DB	03H
	DB	019H
	DB	04H
	DB	021H
	DB	04H
	DB	021H
	DB	0e3H
	DB	018H
	DB	04H
	DB	021H
	DB	04H
	DB	021H
	DB	03H
	DB	019H
	DB	04H
	DB	021H
	DB	0e4H
	DB	020H
	DB	03H
	DB	019H
	DB	04H
	DB	021H
	DB	04H
	DB	021H
	DB	03H
	DB	019H
	DB	0e4H
	DB	020H
	DB	04H
	DB	021H
	DB	03H
	DB	019H
	DB	04H
	DB	021H
	DB	04H
	DB	021H
	DB	0e3H
	DB	018H
	DB	04H
	DB	021H
	DB	04H
	DB	021H
	DB	03H
	DB	019H
	DB	04H
	DB	021H
	DB	0e4H
	DB	020H
	DB	03H
	DB	019H
	DB	04H
	DB	021H
	DB	04H
	DB	021H
	DB	03H
	DB	019H
	DB	0e4H
	DB	020H
	DB	04H
	DB	021H
	DB	03H
	DB	019H
	DB	04H
	DB	021H
	DB	04H
	DB	021H
	DB	0e3H
	DB	018H
	DB	04H
	DB	021H
	DB	04H
	DB	021H
	DB	03H
	DB	019H
	DB	04H
	DB	021H
	DB	0e4H
	DB	020H
	DB	03H
	DB	019H
	DB	04H
	DB	021H
	DB	04H
	DB	021H
	DB	03H
	DB	019H
	DB	0e4H
	DB	020H
	DB	04H
	DB	021H
	DB	03H
	DB	019H
	DB	04H
	DB	021H
	DB	04H
	DB	021H
	DB	0e3H
	DB	018H
	DB	04H
	DB	021H
	DB	04H
	DB	021H
	DB	03H
	DB	019H
	DB	04H
	DB	021H
	DB	0e4H
	DB	020H
	DB	03H
	DB	019H
	DB	04H
	DB	021H
	DB	04H
	DB	021H
	DB	03H
	DB	019H
	DB	0e4H
	DB	020H
	DB	04H
	DB	021H
	DB	03H
	DB	019H
	DB	04H
	DB	021H
	DB	04H
	DB	021H
	DB	0e3H
	DB	018H
	DB	04H
	DB	021H
	DB	04H
	DB	021H
	DB	03H
	DB	019H
	DB	04H
	DB	021H
	DB	0e4H
	DB	020H
	DB	03H
	DB	019H
	DB	04H
	DB	021H
	DB	04H
	DB	021H
	DB	03H
	DB	019H
	DB	0e4H
	DB	020H
	DB	04H
	DB	021H
	DB	03H
	DB	019H
	DB	04H
	DB	021H
	DB	04H
	DB	021H
	DB	0e3H
	DB	018H
	DB	04H
	DB	021H
	DB	04H
	DB	021H
	DB	03H
	DB	019H
	DB	04H
	DB	021H
	DB	0e4H
	DB	020H
	DB	03H
	DB	019H
	DB	04H
	DB	021H
	DB	04H
	DB	021H
	DB	03H
	DB	019H
	DB	0e4H
	DB	020H
	DB	04H
	DB	021H
	DB	03H
	DB	019H
	DB	04H
	DB	021H
	DB	04H
	DB	021H
	DB	0e3H
	DB	018H
	DB	04H
	DB	021H
	DB	04H
	DB	021H
	DB	03H
	DB	019H
	DB	04H
	DB	021H
	DB	0e4H
	DB	020H
	DB	03H
	DB	019H
	DB	04H
	DB	021H
	DB	04H
	DB	021H
	DB	03H
	DB	019H
	DB	0e4H
	DB	020H
	DB	04H
	DB	021H
	DB	03H
	DB	019H
	DB	04H
	DB	021H
	DB	04H
	DB	021H
	DB	0e3H
	DB	018H
	DB	04H
	DB	021H
	DB	04H
	DB	021H
	DB	03H
	DB	019H
	DB	04H
	DB	021H
	DB	0e4H
	DB	020H
	DB	03H
	DB	019H
	DB	04H
	DB	021H
	DB	04H
	DB	021H
	DB	03H
	DB	019H
	DB	0e4H
	DB	020H
	DB	04H
	DB	021H
	DB	03H
	DB	019H
	DB	04H
	DB	021H
	DB	04H
	DB	021H
	DB	0e3H
	DB	018H
	DB	04H
	DB	021H
	DB	04H
	DB	021H
	DB	03H
	DB	019H
	DB	04H
	DB	021H
	DB	0e4H
	DB	020H
	DB	03H
	DB	019H
	DB	04H
	DB	021H
	DB	04H
	DB	021H
	DB	03H
	DB	019H
	DB	0e4H
	DB	020H
	DB	04H
	DB	021H
	DB	03H
	DB	019H
	DB	04H
	DB	021H
	DB	04H
	DB	021H
	DB	0e3H
	DB	018H
	DB	04H
	DB	021H
	DB	04H
	DB	021H
	DB	03H
	DB	019H
	DB	04H
	DB	021H
	DB	0e4H
	DB	020H
	DB	03H
	DB	019H
	DB	04H
	DB	021H
	DB	04H
	DB	021H
	DB	03H
	DB	019H
	DB	0e4H
	DB	020H
	DB	04H
	DB	021H
	DB	03H
	DB	019H
	DB	04H
	DB	021H
	DB	04H
	DB	021H
	DB	0e3H
	DB	018H
	DB	04H
	DB	021H
	DB	04H
	DB	021H
	DB	03H
	DB	019H
	DB	04H
	DB	021H
	DB	0e4H
	DB	020H
	DB	03H
	DB	019H
	DB	04H
	DB	021H
	DB	04H
	DB	021H
	DB	03H
	DB	019H
	DB	0e4H
	DB	020H
	DB	04H
	DB	021H
	DB	03H
	DB	019H
	DB	04H
	DB	021H
	DB	04H
	DB	021H
	DB	0e3H
	DB	018H
	DB	04H
	DB	021H
	DB	04H
	DB	021H
	DB	03H
	DB	019H
	DB	04H
	DB	021H
	DB	0e4H
	DB	020H
	DB	03H
	DB	019H
	DB	04H
	DB	021H
	DB	04H
	DB	021H
	DB	03H
	DB	019H
	DB	0e4H
	DB	020H
	DB	04H
	DB	021H
	DB	03H
	DB	019H
	DB	04H
	DB	021H
	DB	04H
	DB	021H
	DB	0e3H
	DB	018H
	DB	04H
	DB	021H
	DB	04H
	DB	021H
	DB	03H
	DB	019H
	DB	04H
	DB	021H
	DB	0e4H
	DB	020H
	DB	03H
	DB	019H
	DB	04H
	DB	021H
	DB	04H
	DB	021H
	DB	03H
	DB	019H
	DB	0e4H
	DB	020H
	DB	04H
	DB	021H
	DB	03H
	DB	019H
	DB	04H
	DB	021H
	DB	04H
	DB	021H
	DB	0e3H
	DB	018H
	DB	04H
	DB	021H
	DB	04H
	DB	021H
	DB	03H
	DB	019H
	DB	04H
	DB	021H
	DB	0e4H
	DB	020H
	DB	03H
	DB	019H
	DB	04H
	DB	021H
	DB	04H
	DB	021H
	DB	0e4H
	DB	020H
	DB	04H
	DB	021H
	DB	04H
	DB	021H
	DB	04H
	DB	021H
	DB	04H
	DB	021H
	DB	04H
	DB	021H
	DB	04H
	DB	021H
	DB	0c7H
	DB	039H
	DB	021H
	DB	08H
	DB	0c3H
	DB	018H
	DB	045H
	DB	029H
	DB	04H
	DB	021H
	DB	04H
	DB	021H
	DB	04H
	DB	021H
	DB	0e4H
	DB	020H
	DB	0e4H
	DB	020H
	DB	04H
	DB	021H
	DB	0e4H
	DB	020H
	DB	0e3H
	DB	018H
	DB	04H
	DB	021H
	DB	0e4H
	DB	020H
	DB	0e4H
	DB	020H
	DB	04H
	DB	021H
	DB	0e4H
	DB	020H
	DB	04H
	DB	021H
	DB	04H
	DB	021H
	DB	0e4H
	DB	020H
	DB	04H
	DB	021H
	DB	04H
	DB	021H
	DB	0e4H
	DB	020H
	DB	04H
	DB	021H
	DB	04H
	DB	021H
	DB	0e4H
	DB	020H
	DB	04H
	DB	021H
	DB	04H
	DB	021H
	DB	0e4H
	DB	020H
	DB	04H
	DB	021H
	DB	04H
	DB	021H
	DB	0e4H
	DB	020H
	DB	04H
	DB	021H
	DB	04H
	DB	021H
	DB	0e4H
	DB	020H
	DB	04H
	DB	021H
	DB	04H
	DB	021H
	DB	0e4H
	DB	020H
	DB	04H
	DB	021H
	DB	04H
	DB	021H
	DB	0e4H
	DB	020H
	DB	04H
	DB	021H
	DB	04H
	DB	021H
	DB	0e4H
	DB	020H
	DB	04H
	DB	021H
	DB	04H
	DB	021H
	DB	0e4H
	DB	020H
	DB	04H
	DB	021H
	DB	04H
	DB	021H
	DB	0e4H
	DB	020H
	DB	04H
	DB	021H
	DB	04H
	DB	021H
	DB	0e4H
	DB	020H
	DB	04H
	DB	021H
	DB	04H
	DB	021H
	DB	0e4H
	DB	020H
	DB	04H
	DB	021H
	DB	04H
	DB	021H
	DB	0e4H
	DB	020H
	DB	04H
	DB	021H
	DB	04H
	DB	021H
	DB	0e4H
	DB	020H
	DB	04H
	DB	021H
	DB	04H
	DB	021H
	DB	0e4H
	DB	020H
	DB	04H
	DB	021H
	DB	04H
	DB	021H
	DB	0e4H
	DB	020H
	DB	04H
	DB	021H
	DB	04H
	DB	021H
	DB	0e4H
	DB	020H
	DB	04H
	DB	021H
	DB	04H
	DB	021H
	DB	0e4H
	DB	020H
	DB	04H
	DB	021H
	DB	04H
	DB	021H
	DB	0e4H
	DB	020H
	DB	04H
	DB	021H
	DB	04H
	DB	021H
	DB	0e4H
	DB	020H
	DB	04H
	DB	021H
	DB	04H
	DB	021H
	DB	0e4H
	DB	020H
	DB	04H
	DB	021H
	DB	04H
	DB	021H
	DB	0e4H
	DB	020H
	DB	04H
	DB	021H
	DB	04H
	DB	021H
	DB	0e4H
	DB	020H
	DB	04H
	DB	021H
	DB	04H
	DB	021H
	DB	0e4H
	DB	020H
	DB	04H
	DB	021H
	DB	04H
	DB	021H
	DB	0e4H
	DB	020H
	DB	04H
	DB	021H
	DB	04H
	DB	021H
	DB	0e4H
	DB	020H
	DB	04H
	DB	021H
	DB	04H
	DB	021H
	DB	0e4H
	DB	020H
	DB	04H
	DB	021H
	DB	04H
	DB	021H
	DB	0e4H
	DB	020H
	DB	04H
	DB	021H
	DB	04H
	DB	021H
	DB	0e4H
	DB	020H
	DB	04H
	DB	021H
	DB	04H
	DB	021H
	DB	0e4H
	DB	020H
	DB	04H
	DB	021H
	DB	04H
	DB	021H
	DB	0e4H
	DB	020H
	DB	04H
	DB	021H
	DB	04H
	DB	021H
	DB	0e4H
	DB	020H
	DB	04H
	DB	021H
	DB	04H
	DB	021H
	DB	0e4H
	DB	020H
	DB	04H
	DB	021H
	DB	04H
	DB	021H
	DB	0e4H
	DB	020H
	DB	04H
	DB	021H
	DB	04H
	DB	021H
	DB	0e4H
	DB	020H
	DB	04H
	DB	021H
	DB	04H
	DB	021H
	DB	0e4H
	DB	020H
	DB	04H
	DB	021H
	DB	04H
	DB	021H
	DB	0e4H
	DB	020H
	DB	04H
	DB	021H
	DB	04H
	DB	021H
	DB	0e4H
	DB	020H
	DB	04H
	DB	021H
	DB	04H
	DB	021H
	DB	0e4H
	DB	020H
	DB	04H
	DB	021H
	DB	04H
	DB	021H
	DB	0e4H
	DB	020H
	DB	04H
	DB	021H
	DB	04H
	DB	021H
	DB	0e4H
	DB	020H
	DB	04H
	DB	021H
	DB	04H
	DB	021H
	DB	0e4H
	DB	020H
	DB	04H
	DB	021H
	DB	04H
	DB	021H
	DB	0e4H
	DB	020H
	DB	04H
	DB	021H
	DB	04H
	DB	021H
	DB	0e4H
	DB	020H
	DB	04H
	DB	021H
	DB	04H
	DB	021H
	DB	0e4H
	DB	020H
	DB	04H
	DB	021H
	DB	04H
	DB	021H
	DB	0e4H
	DB	020H
	DB	04H
	DB	021H
	DB	04H
	DB	021H
	DB	0e4H
	DB	020H
	DB	04H
	DB	021H
	DB	04H
	DB	021H
	DB	0e4H
	DB	020H
	DB	04H
	DB	021H
	DB	04H
	DB	021H
	DB	0e4H
	DB	020H
	DB	04H
	DB	021H
	DB	04H
	DB	021H
	DB	0e4H
	DB	020H
	DB	04H
	DB	021H
	DB	04H
	DB	021H
	DB	0e4H
	DB	020H
	DB	04H
	DB	021H
	DB	04H
	DB	021H
	DB	0e4H
	DB	020H
	DB	04H
	DB	021H
	DB	04H
	DB	021H
	DB	0e4H
	DB	020H
	DB	04H
	DB	021H
	DB	04H
	DB	021H
	DB	0e4H
	DB	020H
	DB	04H
	DB	021H
	DB	04H
	DB	021H
	DB	0e4H
	DB	020H
	DB	04H
	DB	021H
	DB	04H
	DB	021H
	DB	0e4H
	DB	020H
	DB	04H
	DB	021H
	DB	04H
	DB	021H
	DB	0e4H
	DB	020H
	DB	04H
	DB	021H
	DB	04H
	DB	021H
	DB	0e4H
	DB	020H
	DB	04H
	DB	021H
	DB	04H
	DB	021H
	DB	0e4H
	DB	020H
	DB	04H
	DB	021H
	DB	04H
	DB	021H
	DB	0e4H
	DB	020H
	DB	04H
	DB	021H
	DB	04H
	DB	021H
	DB	0e4H
	DB	020H
	DB	04H
	DB	021H
	DB	04H
	DB	021H
	DB	0e4H
	DB	020H
	DB	04H
	DB	021H
	DB	04H
	DB	021H
	DB	0e4H
	DB	020H
	DB	04H
	DB	021H
	DB	04H
	DB	021H
	DB	0e4H
	DB	020H
	DB	04H
	DB	021H
	DB	04H
	DB	021H
	DB	0e4H
	DB	020H
	DB	04H
	DB	021H
	DB	04H
	DB	021H
	DB	0e4H
	DB	020H
	DB	04H
	DB	021H
	DB	04H
	DB	021H
	DB	0e4H
	DB	020H
	DB	04H
	DB	021H
	DB	04H
	DB	021H
	DB	0e4H
	DB	020H
	DB	04H
	DB	021H
	DB	04H
	DB	021H
	DB	0e4H
	DB	020H
	DB	04H
	DB	021H
	DB	04H
	DB	021H
	DB	0e4H
	DB	020H
	DB	04H
	DB	021H
	DB	04H
	DB	021H
	DB	0e4H
	DB	020H
	DB	04H
	DB	021H
	DB	04H
	DB	021H
	DB	0e4H
	DB	020H
	DB	04H
	DB	021H
	DB	04H
	DB	021H
	DB	0e4H
	DB	020H
	DB	04H
	DB	021H
	DB	04H
	DB	021H
	DB	0e4H
	DB	020H
	DB	04H
	DB	021H
	DB	04H
	DB	021H
	DB	0e4H
	DB	020H
	DB	04H
	DB	021H
	DB	04H
	DB	021H
	DB	0e4H
	DB	020H
	DB	04H
	DB	021H
	DB	04H
	DB	021H
	DB	0e4H
	DB	020H
	DB	04H
	DB	021H
	DB	04H
	DB	021H
	DB	0e4H
	DB	020H
	DB	04H
	DB	021H
	DB	04H
	DB	021H
	DB	0e4H
	DB	020H
	DB	04H
	DB	021H
	DB	04H
	DB	021H
	DB	0e4H
	DB	020H
	DB	04H
	DB	021H
	DB	04H
	DB	021H
	DB	0e4H
	DB	020H
	DB	04H
	DB	021H
	DB	04H
	DB	021H
	DB	0e4H
	DB	020H
	DB	04H
	DB	021H
	DB	04H
	DB	021H
	DB	0e4H
	DB	020H
	DB	04H
	DB	021H
	DB	04H
	DB	021H
	DB	0e4H
	DB	020H
	DB	04H
	DB	021H
	DB	04H
	DB	021H
	DB	0e4H
	DB	020H
	DB	04H
	DB	021H
	DB	04H
	DB	021H
	DB	0e4H
	DB	020H
	DB	04H
	DB	021H
	DB	04H
	DB	021H
	DB	0e4H
	DB	020H
	DB	04H
	DB	021H
	DB	04H
	DB	021H
	DB	0e4H
	DB	020H
	DB	04H
	DB	021H
	DB	04H
	DB	021H
	DB	0e4H
	DB	020H
	DB	04H
	DB	021H
	DB	04H
	DB	021H
	DB	0e4H
	DB	020H
	DB	04H
	DB	021H
	DB	04H
	DB	021H
	DB	0e4H
	DB	020H
	DB	04H
	DB	021H
	DB	04H
	DB	021H
	DB	0e4H
	DB	020H
	DB	04H
	DB	021H
	DB	04H
	DB	021H
	DB	0e4H
	DB	020H
	DB	04H
	DB	021H
	DB	04H
	DB	021H
	DB	0e4H
	DB	020H
	DB	04H
	DB	021H
	DB	04H
	DB	021H
	DB	0e4H
	DB	020H
	DB	04H
	DB	021H
	DB	04H
	DB	021H
	DB	0e4H
	DB	020H
	DB	04H
	DB	021H
	DB	04H
	DB	021H
	DB	0e4H
	DB	020H
	DB	04H
	DB	021H
	DB	04H
	DB	021H
	DB	0e4H
	DB	020H
	DB	04H
	DB	021H
	DB	04H
	DB	021H
	DB	0e4H
	DB	020H
	DB	04H
	DB	021H
	DB	04H
	DB	021H
	DB	0e4H
	DB	020H
	DB	04H
	DB	021H
	DB	04H
	DB	021H
	DB	0e4H
	DB	020H
	DB	04H
	DB	021H
	DB	04H
	DB	021H
	DB	0e4H
	DB	020H
	DB	04H
	DB	021H
	DB	04H
	DB	021H
	DB	0e4H
	DB	020H
	DB	04H
	DB	021H
	DB	04H
	DB	021H
	DB	0e4H
	DB	020H
	DB	04H
	DB	021H
	DB	04H
	DB	021H
	DB	0e4H
	DB	020H
	DB	04H
	DB	021H
	DB	04H
	DB	021H
	DB	0e4H
	DB	020H
	DB	04H
	DB	021H
	DB	04H
	DB	021H
	DB	0e4H
	DB	020H
	DB	04H
	DB	021H
	DB	04H
	DB	021H
	DB	0e4H
	DB	020H
	DB	04H
	DB	021H
	DB	04H
	DB	021H
	DB	0e4H
	DB	020H
	DB	04H
	DB	021H
	DB	04H
	DB	021H
	DB	0e4H
	DB	020H
	DB	04H
	DB	021H
	DB	04H
	DB	021H
	DB	0e4H
	DB	020H
	DB	04H
	DB	021H
	DB	04H
	DB	021H
	DB	0e4H
	DB	020H
	DB	04H
	DB	021H
	DB	04H
	DB	021H
	DB	0e4H
	DB	020H
	DB	04H
	DB	021H
	DB	04H
	DB	021H
	DB	0e4H
	DB	020H
	DB	04H
	DB	021H
	DB	04H
	DB	021H
	DB	0e4H
	DB	020H
	DB	04H
	DB	021H
	DB	04H
	DB	021H
	DB	0e4H
	DB	020H
	DB	04H
	DB	021H
	DB	04H
	DB	021H
	DB	0e4H
	DB	020H
	DB	04H
	DB	021H
	DB	04H
	DB	021H
	DB	0e4H
	DB	020H
	DB	04H
	DB	021H
	DB	04H
	DB	021H
	DB	0e4H
	DB	020H
	DB	04H
	DB	021H
	DB	04H
	DB	021H
	DB	0e4H
	DB	020H
	DB	04H
	DB	021H
	DB	04H
	DB	021H
	DB	0e4H
	DB	020H
	DB	04H
	DB	021H
	DB	04H
	DB	021H
	DB	0e4H
	DB	020H
	DB	04H
	DB	021H
	DB	04H
	DB	021H
	DB	0e4H
	DB	020H
	DB	04H
	DB	021H
	DB	04H
	DB	021H
	DB	0e4H
	DB	020H
	DB	04H
	DB	021H
	DB	04H
	DB	021H
	DB	0e4H
	DB	020H
	DB	04H
	DB	021H
	DB	04H
	DB	021H
	DB	0e4H
	DB	020H
	DB	04H
	DB	021H
	DB	04H
	DB	021H
	DB	0e4H
	DB	020H
	DB	04H
	DB	021H
	DB	04H
	DB	021H
	DB	0e4H
	DB	020H
	DB	04H
	DB	021H
	DB	04H
	DB	021H
	DB	0e4H
	DB	020H
	DB	04H
	DB	021H
	DB	04H
	DB	021H
	DB	0e4H
	DB	020H
	DB	04H
	DB	021H
	DB	04H
	DB	021H
	DB	0e4H
	DB	020H
	DB	04H
	DB	021H
	DB	04H
	DB	021H
	DB	0e4H
	DB	020H
	DB	04H
	DB	021H
	DB	04H
	DB	021H
	DB	0e4H
	DB	020H
	DB	04H
	DB	021H
	DB	04H
	DB	021H
	DB	0e4H
	DB	020H
	DB	04H
	DB	021H
	DB	04H
	DB	021H
	DB	0e4H
	DB	020H
	DB	04H
	DB	021H
	DB	04H
	DB	021H
	DB	0e4H
	DB	020H
	DB	04H
	DB	021H
	DB	04H
	DB	021H
	DB	0e4H
	DB	020H
	DB	04H
	DB	021H
	DB	04H
	DB	021H
	DB	0e4H
	DB	020H
	DB	04H
	DB	021H
	DB	04H
	DB	021H
	DB	0e4H
	DB	020H
	DB	04H
	DB	021H
	DB	04H
	DB	021H
	DB	0e4H
	DB	020H
	DB	04H
	DB	021H
	DB	04H
	DB	021H
	DB	0e4H
	DB	020H
	DB	04H
	DB	021H
	DB	04H
	DB	021H
	DB	0e4H
	DB	020H
	DB	04H
	DB	021H
	DB	04H
	DB	021H
	DB	0e4H
	DB	020H
	DB	04H
	DB	021H
	DB	04H
	DB	021H
	DB	0e4H
	DB	020H
	DB	04H
	DB	021H
	DB	04H
	DB	021H
	DB	0e4H
	DB	020H
	DB	04H
	DB	021H
	DB	04H
	DB	021H
	DB	0e4H
	DB	020H
	DB	04H
	DB	021H
	DB	04H
	DB	021H
	DB	0e4H
	DB	020H
	DB	04H
	DB	021H
	DB	04H
	DB	021H
	DB	0e4H
	DB	020H
	DB	04H
	DB	021H
	DB	04H
	DB	021H
	DB	0e4H
	DB	020H
	DB	04H
	DB	021H
	DB	04H
	DB	021H
	DB	0e4H
	DB	020H
	DB	04H
	DB	021H
	DB	04H
	DB	021H
	DB	0e4H
	DB	020H
	DB	03H
	DB	019H
	DB	04H
	DB	021H
	DB	0e4H
	DB	020H
	DB	0e4H
	DB	020H
	DB	04H
	DB	021H
	DB	04H
	DB	021H
	DB	04H
	DB	021H
	DB	045H
	DB	029H
	DB	0c3H
	DB	018H
	DB	024H
	DB	021H
	DB	04H
	DB	021H
	DB	04H
	DB	021H
	DB	04H
	DB	021H
	DB	04H
	DB	021H
	DB	04H
	DB	021H
	DB	03H
	DB	019H
	DB	04H
	DB	021H
	DB	04H
	DB	021H
	DB	04H
	DB	021H
	DB	04H
	DB	021H
	DB	04H
	DB	021H
	DB	04H
	DB	021H
	DB	04H
	DB	021H
	DB	0e4H
	DB	020H
	DB	04H
	DB	021H
	DB	04H
	DB	021H
	DB	04H
	DB	021H
	DB	04H
	DB	021H
	DB	0e4H
	DB	020H
	DB	04H
	DB	021H
	DB	04H
	DB	021H
	DB	04H
	DB	021H
	DB	04H
	DB	021H
	DB	0e4H
	DB	020H
	DB	04H
	DB	021H
	DB	04H
	DB	021H
	DB	04H
	DB	021H
	DB	04H
	DB	021H
	DB	0e4H
	DB	020H
	DB	04H
	DB	021H
	DB	04H
	DB	021H
	DB	04H
	DB	021H
	DB	04H
	DB	021H
	DB	0e4H
	DB	020H
	DB	04H
	DB	021H
	DB	04H
	DB	021H
	DB	04H
	DB	021H
	DB	04H
	DB	021H
	DB	0e4H
	DB	020H
	DB	04H
	DB	021H
	DB	04H
	DB	021H
	DB	04H
	DB	021H
	DB	04H
	DB	021H
	DB	0e4H
	DB	020H
	DB	04H
	DB	021H
	DB	04H
	DB	021H
	DB	04H
	DB	021H
	DB	04H
	DB	021H
	DB	0e4H
	DB	020H
	DB	04H
	DB	021H
	DB	04H
	DB	021H
	DB	04H
	DB	021H
	DB	04H
	DB	021H
	DB	0e4H
	DB	020H
	DB	04H
	DB	021H
	DB	04H
	DB	021H
	DB	04H
	DB	021H
	DB	04H
	DB	021H
	DB	0e4H
	DB	020H
	DB	04H
	DB	021H
	DB	04H
	DB	021H
	DB	04H
	DB	021H
	DB	04H
	DB	021H
	DB	0e4H
	DB	020H
	DB	04H
	DB	021H
	DB	04H
	DB	021H
	DB	04H
	DB	021H
	DB	04H
	DB	021H
	DB	0e4H
	DB	020H
	DB	04H
	DB	021H
	DB	04H
	DB	021H
	DB	04H
	DB	021H
	DB	04H
	DB	021H
	DB	0e4H
	DB	020H
	DB	04H
	DB	021H
	DB	04H
	DB	021H
	DB	04H
	DB	021H
	DB	04H
	DB	021H
	DB	0e4H
	DB	020H
	DB	04H
	DB	021H
	DB	04H
	DB	021H
	DB	04H
	DB	021H
	DB	04H
	DB	021H
	DB	0e4H
	DB	020H
	DB	04H
	DB	021H
	DB	04H
	DB	021H
	DB	04H
	DB	021H
	DB	04H
	DB	021H
	DB	0e4H
	DB	020H
	DB	04H
	DB	021H
	DB	04H
	DB	021H
	DB	04H
	DB	021H
	DB	04H
	DB	021H
	DB	0e4H
	DB	020H
	DB	04H
	DB	021H
	DB	04H
	DB	021H
	DB	04H
	DB	021H
	DB	04H
	DB	021H
	DB	0e4H
	DB	020H
	DB	04H
	DB	021H
	DB	04H
	DB	021H
	DB	04H
	DB	021H
	DB	04H
	DB	021H
	DB	0e4H
	DB	020H
	DB	04H
	DB	021H
	DB	04H
	DB	021H
	DB	04H
	DB	021H
	DB	04H
	DB	021H
	DB	0e4H
	DB	020H
	DB	04H
	DB	021H
	DB	04H
	DB	021H
	DB	04H
	DB	021H
	DB	04H
	DB	021H
	DB	0e4H
	DB	020H
	DB	04H
	DB	021H
	DB	04H
	DB	021H
	DB	04H
	DB	021H
	DB	04H
	DB	021H
	DB	0e4H
	DB	020H
	DB	04H
	DB	021H
	DB	04H
	DB	021H
	DB	04H
	DB	021H
	DB	04H
	DB	021H
	DB	0e4H
	DB	020H
	DB	04H
	DB	021H
	DB	04H
	DB	021H
	DB	04H
	DB	021H
	DB	04H
	DB	021H
	DB	0e4H
	DB	020H
	DB	04H
	DB	021H
	DB	04H
	DB	021H
	DB	04H
	DB	021H
	DB	04H
	DB	021H
	DB	0e4H
	DB	020H
	DB	04H
	DB	021H
	DB	04H
	DB	021H
	DB	04H
	DB	021H
	DB	04H
	DB	021H
	DB	0e4H
	DB	020H
	DB	04H
	DB	021H
	DB	04H
	DB	021H
	DB	04H
	DB	021H
	DB	04H
	DB	021H
	DB	0e4H
	DB	020H
	DB	04H
	DB	021H
	DB	04H
	DB	021H
	DB	04H
	DB	021H
	DB	04H
	DB	021H
	DB	0e4H
	DB	020H
	DB	04H
	DB	021H
	DB	04H
	DB	021H
	DB	04H
	DB	021H
	DB	04H
	DB	021H
	DB	0e4H
	DB	020H
	DB	04H
	DB	021H
	DB	04H
	DB	021H
	DB	04H
	DB	021H
	DB	04H
	DB	021H
	DB	0e4H
	DB	020H
	DB	04H
	DB	021H
	DB	04H
	DB	021H
	DB	04H
	DB	021H
	DB	04H
	DB	021H
	DB	0e4H
	DB	020H
	DB	04H
	DB	021H
	DB	04H
	DB	021H
	DB	04H
	DB	021H
	DB	04H
	DB	021H
	DB	0e4H
	DB	020H
	DB	04H
	DB	021H
	DB	04H
	DB	021H
	DB	04H
	DB	021H
	DB	04H
	DB	021H
	DB	0e4H
	DB	020H
	DB	04H
	DB	021H
	DB	04H
	DB	021H
	DB	04H
	DB	021H
	DB	04H
	DB	021H
	DB	0e4H
	DB	020H
	DB	04H
	DB	021H
	DB	04H
	DB	021H
	DB	04H
	DB	021H
	DB	04H
	DB	021H
	DB	0e4H
	DB	020H
	DB	04H
	DB	021H
	DB	04H
	DB	021H
	DB	04H
	DB	021H
	DB	04H
	DB	021H
	DB	0e4H
	DB	020H
	DB	04H
	DB	021H
	DB	04H
	DB	021H
	DB	04H
	DB	021H
	DB	04H
	DB	021H
	DB	0e4H
	DB	020H
	DB	04H
	DB	021H
	DB	04H
	DB	021H
	DB	04H
	DB	021H
	DB	04H
	DB	021H
	DB	0e4H
	DB	020H
	DB	04H
	DB	021H
	DB	04H
	DB	021H
	DB	04H
	DB	021H
	DB	04H
	DB	021H
	DB	0e4H
	DB	020H
	DB	04H
	DB	021H
	DB	04H
	DB	021H
	DB	04H
	DB	021H
	DB	04H
	DB	021H
	DB	0e4H
	DB	020H
	DB	04H
	DB	021H
	DB	04H
	DB	021H
	DB	04H
	DB	021H
	DB	04H
	DB	021H
	DB	0e4H
	DB	020H
	DB	04H
	DB	021H
	DB	04H
	DB	021H
	DB	04H
	DB	021H
	DB	04H
	DB	021H
	DB	0e4H
	DB	020H
	DB	04H
	DB	021H
	DB	04H
	DB	021H
	DB	04H
	DB	021H
	DB	04H
	DB	021H
	DB	0e4H
	DB	020H
	DB	04H
	DB	021H
	DB	04H
	DB	021H
	DB	04H
	DB	021H
	DB	04H
	DB	021H
	DB	0e4H
	DB	020H
	DB	04H
	DB	021H
	DB	04H
	DB	021H
	DB	04H
	DB	021H
	DB	04H
	DB	021H
	DB	0e4H
	DB	020H
	DB	04H
	DB	021H
	DB	04H
	DB	021H
	DB	04H
	DB	021H
	DB	04H
	DB	021H
	DB	0e4H
	DB	020H
	DB	04H
	DB	021H
	DB	04H
	DB	021H
	DB	04H
	DB	021H
	DB	04H
	DB	021H
	DB	0e4H
	DB	020H
	DB	04H
	DB	021H
	DB	04H
	DB	021H
	DB	04H
	DB	021H
	DB	04H
	DB	021H
	DB	0e4H
	DB	020H
	DB	04H
	DB	021H
	DB	04H
	DB	021H
	DB	04H
	DB	021H
	DB	04H
	DB	021H
	DB	0e4H
	DB	020H
	DB	04H
	DB	021H
	DB	04H
	DB	021H
	DB	04H
	DB	021H
	DB	04H
	DB	021H
	DB	0e4H
	DB	020H
	DB	04H
	DB	021H
	DB	04H
	DB	021H
	DB	04H
	DB	021H
	DB	04H
	DB	021H
	DB	0e4H
	DB	020H
	DB	04H
	DB	021H
	DB	04H
	DB	021H
	DB	04H
	DB	021H
	DB	04H
	DB	021H
	DB	0e4H
	DB	020H
	DB	04H
	DB	021H
	DB	04H
	DB	021H
	DB	04H
	DB	021H
	DB	04H
	DB	021H
	DB	0e4H
	DB	020H
	DB	04H
	DB	021H
	DB	04H
	DB	021H
	DB	04H
	DB	021H
	DB	04H
	DB	021H
	DB	0e4H
	DB	020H
	DB	04H
	DB	021H
	DB	04H
	DB	021H
	DB	04H
	DB	021H
	DB	04H
	DB	021H
	DB	0e4H
	DB	020H
	DB	04H
	DB	021H
	DB	04H
	DB	021H
	DB	04H
	DB	021H
	DB	04H
	DB	021H
	DB	0e4H
	DB	020H
	DB	04H
	DB	021H
	DB	04H
	DB	021H
	DB	04H
	DB	021H
	DB	04H
	DB	021H
	DB	0e4H
	DB	020H
	DB	04H
	DB	021H
	DB	04H
	DB	021H
	DB	04H
	DB	021H
	DB	04H
	DB	021H
	DB	0e4H
	DB	020H
	DB	04H
	DB	021H
	DB	04H
	DB	021H
	DB	04H
	DB	021H
	DB	04H
	DB	021H
	DB	0e4H
	DB	020H
	DB	04H
	DB	021H
	DB	04H
	DB	021H
	DB	04H
	DB	021H
	DB	04H
	DB	021H
	DB	0e4H
	DB	020H
	DB	04H
	DB	021H
	DB	04H
	DB	021H
	DB	04H
	DB	021H
	DB	04H
	DB	021H
	DB	0e4H
	DB	020H
	DB	04H
	DB	021H
	DB	04H
	DB	021H
	DB	04H
	DB	021H
	DB	04H
	DB	021H
	DB	0e4H
	DB	020H
	DB	04H
	DB	021H
	DB	04H
	DB	021H
	DB	04H
	DB	021H
	DB	04H
	DB	021H
	DB	0e4H
	DB	020H
	DB	04H
	DB	021H
	DB	04H
	DB	021H
	DB	04H
	DB	021H
	DB	04H
	DB	021H
	DB	0e4H
	DB	020H
	DB	04H
	DB	021H
	DB	04H
	DB	021H
	DB	04H
	DB	021H
	DB	04H
	DB	021H
	DB	0e4H
	DB	020H
	DB	04H
	DB	021H
	DB	04H
	DB	021H
	DB	04H
	DB	021H
	DB	04H
	DB	021H
	DB	0e4H
	DB	020H
	DB	04H
	DB	021H
	DB	04H
	DB	021H
	DB	04H
	DB	021H
	DB	04H
	DB	021H
	DB	0e4H
	DB	020H
	DB	04H
	DB	021H
	DB	04H
	DB	021H
	DB	04H
	DB	021H
	DB	04H
	DB	021H
	DB	0e4H
	DB	020H
	DB	04H
	DB	021H
	DB	04H
	DB	021H
	DB	04H
	DB	021H
	DB	04H
	DB	021H
	DB	0e4H
	DB	020H
	DB	04H
	DB	021H
	DB	04H
	DB	021H
	DB	04H
	DB	021H
	DB	04H
	DB	021H
	DB	0e4H
	DB	020H
	DB	04H
	DB	021H
	DB	04H
	DB	021H
	DB	04H
	DB	021H
	DB	04H
	DB	021H
	DB	0e4H
	DB	020H
	DB	04H
	DB	021H
	DB	04H
	DB	021H
	DB	04H
	DB	021H
	DB	04H
	DB	021H
	DB	0e4H
	DB	020H
	DB	04H
	DB	021H
	DB	04H
	DB	021H
	DB	04H
	DB	021H
	DB	04H
	DB	021H
	DB	0e4H
	DB	020H
	DB	04H
	DB	021H
	DB	04H
	DB	021H
	DB	04H
	DB	021H
	DB	04H
	DB	021H
	DB	0e4H
	DB	020H
	DB	04H
	DB	021H
	DB	04H
	DB	021H
	DB	04H
	DB	021H
	DB	04H
	DB	021H
	DB	0e4H
	DB	020H
	DB	04H
	DB	021H
	DB	04H
	DB	021H
	DB	04H
	DB	021H
	DB	04H
	DB	021H
	DB	0e4H
	DB	020H
	DB	04H
	DB	021H
	DB	04H
	DB	021H
	DB	04H
	DB	021H
	DB	04H
	DB	021H
	DB	0e4H
	DB	020H
	DB	04H
	DB	021H
	DB	04H
	DB	021H
	DB	04H
	DB	021H
	DB	04H
	DB	021H
	DB	0e4H
	DB	020H
	DB	04H
	DB	021H
	DB	04H
	DB	021H
	DB	04H
	DB	021H
	DB	04H
	DB	021H
	DB	0e4H
	DB	020H
	DB	04H
	DB	021H
	DB	04H
	DB	021H
	DB	04H
	DB	021H
	DB	04H
	DB	021H
	DB	0e4H
	DB	020H
	DB	04H
	DB	021H
	DB	04H
	DB	021H
	DB	04H
	DB	021H
	DB	04H
	DB	021H
	DB	0e4H
	DB	020H
	DB	04H
	DB	021H
	DB	04H
	DB	021H
	DB	04H
	DB	021H
	DB	04H
	DB	021H
	DB	0e4H
	DB	020H
	DB	04H
	DB	021H
	DB	04H
	DB	021H
	DB	04H
	DB	021H
	DB	04H
	DB	021H
	DB	0e4H
	DB	020H
	DB	04H
	DB	021H
	DB	04H
	DB	021H
	DB	04H
	DB	021H
	DB	04H
	DB	021H
	DB	0e4H
	DB	020H
	DB	04H
	DB	021H
	DB	04H
	DB	021H
	DB	04H
	DB	021H
	DB	04H
	DB	021H
	DB	0e4H
	DB	020H
	DB	04H
	DB	021H
	DB	04H
	DB	021H
	DB	04H
	DB	021H
	DB	04H
	DB	021H
	DB	0e4H
	DB	020H
	DB	04H
	DB	021H
	DB	04H
	DB	021H
	DB	04H
	DB	021H
	DB	04H
	DB	021H
	DB	0e4H
	DB	020H
	DB	04H
	DB	021H
	DB	04H
	DB	021H
	DB	04H
	DB	021H
	DB	04H
	DB	021H
	DB	0e4H
	DB	020H
	DB	04H
	DB	021H
	DB	04H
	DB	021H
	DB	04H
	DB	021H
	DB	04H
	DB	021H
	DB	0e4H
	DB	020H
	DB	04H
	DB	021H
	DB	04H
	DB	021H
	DB	04H
	DB	021H
	DB	04H
	DB	021H
	DB	0e4H
	DB	020H
	DB	04H
	DB	021H
	DB	04H
	DB	021H
	DB	04H
	DB	021H
	DB	04H
	DB	021H
	DB	0e4H
	DB	020H
	DB	04H
	DB	021H
	DB	04H
	DB	021H
	DB	04H
	DB	021H
	DB	04H
	DB	021H
	DB	04H
	DB	021H
	DB	0e4H
	DB	020H
	DB	04H
	DB	021H
	DB	04H
	DB	021H
	DB	04H
	DB	021H
	DB	03H
	DB	019H
	DB	0e4H
	DB	020H
	DB	04H
	DB	021H
	DB	04H
	DB	021H
	DB	0e4H
	DB	020H
	DB	024H
	DB	021H
	DB	045H
	DB	029H
	DB	0e4H
	DB	020H
	DB	0e3H
	DB	018H
	DB	0e4H
	DB	020H
	DB	0e3H
	DB	018H
	DB	0e4H
	DB	020H
	DB	0e4H
	DB	020H
	DB	0e3H
	DB	018H
	DB	0e4H
	DB	020H
	DB	0e4H
	DB	020H
	DB	0e3H
	DB	018H
	DB	0e3H
	DB	018H
	DB	04H
	DB	021H
	DB	0e3H
	DB	018H
	DB	0e3H
	DB	018H
	DB	0e4H
	DB	020H
	DB	0e3H
	DB	018H
	DB	0e3H
	DB	018H
	DB	0e4H
	DB	020H
	DB	0e3H
	DB	018H
	DB	0e3H
	DB	018H
	DB	0e3H
	DB	018H
	DB	0e4H
	DB	020H
	DB	0e3H
	DB	018H
	DB	0e3H
	DB	018H
	DB	0e4H
	DB	020H
	DB	0e3H
	DB	018H
	DB	0e3H
	DB	018H
	DB	0e3H
	DB	018H
	DB	04H
	DB	021H
	DB	0e3H
	DB	018H
	DB	0e3H
	DB	018H
	DB	0e4H
	DB	020H
	DB	0e3H
	DB	018H
	DB	0e3H
	DB	018H
	DB	0e3H
	DB	018H
	DB	0e4H
	DB	020H
	DB	0e3H
	DB	018H
	DB	0e3H
	DB	018H
	DB	0e4H
	DB	020H
	DB	0e3H
	DB	018H
	DB	0e3H
	DB	018H
	DB	0e3H
	DB	018H
	DB	0e4H
	DB	020H
	DB	03H
	DB	019H
	DB	0e3H
	DB	018H
	DB	0e4H
	DB	020H
	DB	0e3H
	DB	018H
	DB	0e3H
	DB	018H
	DB	0e3H
	DB	018H
	DB	0e4H
	DB	020H
	DB	0e3H
	DB	018H
	DB	0e3H
	DB	018H
	DB	0e4H
	DB	020H
	DB	0e3H
	DB	018H
	DB	0e3H
	DB	018H
	DB	0e3H
	DB	018H
	DB	0e4H
	DB	020H
	DB	0e3H
	DB	018H
	DB	03H
	DB	019H
	DB	0e4H
	DB	020H
	DB	0e3H
	DB	018H
	DB	0e3H
	DB	018H
	DB	0e3H
	DB	018H
	DB	0e4H
	DB	020H
	DB	0e3H
	DB	018H
	DB	0e3H
	DB	018H
	DB	0e4H
	DB	020H
	DB	0e3H
	DB	018H
	DB	0e3H
	DB	018H
	DB	0e3H
	DB	018H
	DB	0e4H
	DB	020H
	DB	0e3H
	DB	018H
	DB	0e3H
	DB	018H
	DB	04H
	DB	021H
	DB	0e3H
	DB	018H
	DB	0e3H
	DB	018H
	DB	0e3H
	DB	018H
	DB	0e4H
	DB	020H
	DB	0e3H
	DB	018H
	DB	0e3H
	DB	018H
	DB	0e4H
	DB	020H
	DB	0e3H
	DB	018H
	DB	0e3H
	DB	018H
	DB	0e3H
	DB	018H
	DB	0e4H
	DB	020H
	DB	0e3H
	DB	018H
	DB	0e3H
	DB	018H
	DB	0e4H
	DB	020H
	DB	03H
	DB	019H
	DB	0e3H
	DB	018H
	DB	0e3H
	DB	018H
	DB	0e4H
	DB	020H
	DB	0e3H
	DB	018H
	DB	0e3H
	DB	018H
	DB	0e4H
	DB	020H
	DB	0e3H
	DB	018H
	DB	0e3H
	DB	018H
	DB	0e3H
	DB	018H
	DB	0e4H
	DB	020H
	DB	0e3H
	DB	018H
	DB	0e3H
	DB	018H
	DB	0e4H
	DB	020H
	DB	0e3H
	DB	018H
	DB	03H
	DB	019H
	DB	0e3H
	DB	018H
	DB	0e4H
	DB	020H
	DB	0e3H
	DB	018H
	DB	0e3H
	DB	018H
	DB	0e4H
	DB	020H
	DB	0e3H
	DB	018H
	DB	0e3H
	DB	018H
	DB	0e3H
	DB	018H
	DB	0e4H
	DB	020H
	DB	0e3H
	DB	018H
	DB	0e3H
	DB	018H
	DB	0e4H
	DB	020H
	DB	0e3H
	DB	018H
	DB	0e3H
	DB	018H
	DB	03H
	DB	019H
	DB	0e4H
	DB	020H
	DB	0e3H
	DB	018H
	DB	0e3H
	DB	018H
	DB	0e4H
	DB	020H
	DB	0e3H
	DB	018H
	DB	0e3H
	DB	018H
	DB	0e3H
	DB	018H
	DB	0e4H
	DB	020H
	DB	0e3H
	DB	018H
	DB	0e3H
	DB	018H
	DB	0e4H
	DB	020H
	DB	0e3H
	DB	018H
	DB	0e3H
	DB	018H
	DB	0e3H
	DB	018H
	DB	04H
	DB	021H
	DB	0e3H
	DB	018H
	DB	0e3H
	DB	018H
	DB	0e4H
	DB	020H
	DB	0e3H
	DB	018H
	DB	0e3H
	DB	018H
	DB	0e3H
	DB	018H
	DB	0e4H
	DB	020H
	DB	0e3H
	DB	018H
	DB	0e3H
	DB	018H
	DB	0e4H
	DB	020H
	DB	0e3H
	DB	018H
	DB	0e3H
	DB	018H
	DB	0e3H
	DB	018H
	DB	0e4H
	DB	020H
	DB	03H
	DB	019H
	DB	0e3H
	DB	018H
	DB	0e4H
	DB	020H
	DB	0e3H
	DB	018H
	DB	0e3H
	DB	018H
	DB	0e3H
	DB	018H
	DB	0e4H
	DB	020H
	DB	0e3H
	DB	018H
	DB	0e3H
	DB	018H
	DB	0e4H
	DB	020H
	DB	0e3H
	DB	018H
	DB	0e3H
	DB	018H
	DB	0e3H
	DB	018H
	DB	0e4H
	DB	020H
	DB	0e3H
	DB	018H
	DB	03H
	DB	019H
	DB	0e4H
	DB	020H
	DB	0e3H
	DB	018H
	DB	0e3H
	DB	018H
	DB	0e3H
	DB	018H
	DB	0e4H
	DB	020H
	DB	0e3H
	DB	018H
	DB	0e3H
	DB	018H
	DB	0e4H
	DB	020H
	DB	0e3H
	DB	018H
	DB	0e3H
	DB	018H
	DB	0e3H
	DB	018H
	DB	0e4H
	DB	020H
	DB	0e3H
	DB	018H
	DB	0e3H
	DB	018H
	DB	04H
	DB	021H
	DB	0e3H
	DB	018H
	DB	0e3H
	DB	018H
	DB	0e3H
	DB	018H
	DB	0e4H
	DB	020H
	DB	0e3H
	DB	018H
	DB	0e3H
	DB	018H
	DB	0e4H
	DB	020H
	DB	0e3H
	DB	018H
	DB	0e3H
	DB	018H
	DB	0e3H
	DB	018H
	DB	0e4H
	DB	020H
	DB	0e3H
	DB	018H
	DB	0e3H
	DB	018H
	DB	0e4H
	DB	020H
	DB	03H
	DB	019H
	DB	0e3H
	DB	018H
	DB	0e3H
	DB	018H
	DB	0e4H
	DB	020H
	DB	0e3H
	DB	018H
	DB	0e3H
	DB	018H
	DB	0e4H
	DB	020H
	DB	0e3H
	DB	018H
	DB	0e3H
	DB	018H
	DB	0e3H
	DB	018H
	DB	0e4H
	DB	020H
	DB	0e3H
	DB	018H
	DB	0e3H
	DB	018H
	DB	0e4H
	DB	020H
	DB	0e3H
	DB	018H
	DB	03H
	DB	019H
	DB	0e3H
	DB	018H
	DB	0e4H
	DB	020H
	DB	0e3H
	DB	018H
	DB	0e3H
	DB	018H
	DB	0e4H
	DB	020H
	DB	0e3H
	DB	018H
	DB	0e3H
	DB	018H
	DB	0e3H
	DB	018H
	DB	0e4H
	DB	020H
	DB	0e3H
	DB	018H
	DB	0e3H
	DB	018H
	DB	0e4H
	DB	020H
	DB	0e3H
	DB	018H
	DB	0e3H
	DB	018H
	DB	03H
	DB	019H
	DB	0e4H
	DB	020H
	DB	0e3H
	DB	018H
	DB	0e3H
	DB	018H
	DB	0e4H
	DB	020H
	DB	0e3H
	DB	018H
	DB	0e3H
	DB	018H
	DB	0e3H
	DB	018H
	DB	0e4H
	DB	020H
	DB	0e3H
	DB	018H
	DB	0e3H
	DB	018H
	DB	0e4H
	DB	020H
	DB	0e3H
	DB	018H
	DB	0e3H
	DB	018H
	DB	0e3H
	DB	018H
	DB	04H
	DB	021H
	DB	0e3H
	DB	018H
	DB	0e3H
	DB	018H
	DB	0e4H
	DB	020H
	DB	0e3H
	DB	018H
	DB	0e3H
	DB	018H
	DB	0e3H
	DB	018H
	DB	0e4H
	DB	020H
	DB	0e3H
	DB	018H
	DB	0e3H
	DB	018H
	DB	0e4H
	DB	020H
	DB	0e3H
	DB	018H
	DB	0e3H
	DB	018H
	DB	0e3H
	DB	018H
	DB	0e4H
	DB	020H
	DB	03H
	DB	019H
	DB	0e3H
	DB	018H
	DB	0e4H
	DB	020H
	DB	0e3H
	DB	018H
	DB	0e3H
	DB	018H
	DB	0e3H
	DB	018H
	DB	0e4H
	DB	020H
	DB	0e3H
	DB	018H
	DB	0e3H
	DB	018H
	DB	0e4H
	DB	020H
	DB	0e3H
	DB	018H
	DB	0e3H
	DB	018H
	DB	0e3H
	DB	018H
	DB	0e4H
	DB	020H
	DB	0e3H
	DB	018H
	DB	03H
	DB	019H
	DB	0e4H
	DB	020H
	DB	0e3H
	DB	018H
	DB	0e3H
	DB	018H
	DB	0e3H
	DB	018H
	DB	0e4H
	DB	020H
	DB	0e3H
	DB	018H
	DB	0e3H
	DB	018H
	DB	0e4H
	DB	020H
	DB	0e3H
	DB	018H
	DB	0e3H
	DB	018H
	DB	0e3H
	DB	018H
	DB	0e4H
	DB	020H
	DB	0e3H
	DB	018H
	DB	0e3H
	DB	018H
	DB	04H
	DB	021H
	DB	0e3H
	DB	018H
	DB	0e3H
	DB	018H
	DB	0e3H
	DB	018H
	DB	0e4H
	DB	020H
	DB	0e3H
	DB	018H
	DB	0e3H
	DB	018H
	DB	0e4H
	DB	020H
	DB	0e3H
	DB	018H
	DB	0e3H
	DB	018H
	DB	0e3H
	DB	018H
	DB	0e4H
	DB	020H
	DB	0e3H
	DB	018H
	DB	0e3H
	DB	018H
	DB	0e4H
	DB	020H
	DB	03H
	DB	019H
	DB	0e3H
	DB	018H
	DB	0e3H
	DB	018H
	DB	0e4H
	DB	020H
	DB	0e3H
	DB	018H
	DB	0e3H
	DB	018H
	DB	0e4H
	DB	020H
	DB	0e3H
	DB	018H
	DB	0e3H
	DB	018H
	DB	0e3H
	DB	018H
	DB	0e4H
	DB	020H
	DB	0e3H
	DB	018H
	DB	0e3H
	DB	018H
	DB	0e4H
	DB	020H
	DB	0e3H
	DB	018H
	DB	03H
	DB	019H
	DB	0e3H
	DB	018H
	DB	0e4H
	DB	020H
	DB	0e3H
	DB	018H
	DB	0e3H
	DB	018H
	DB	0e4H
	DB	020H
	DB	0e3H
	DB	018H
	DB	0e3H
	DB	018H
	DB	0e3H
	DB	018H
	DB	0e4H
	DB	020H
	DB	0e3H
	DB	018H
	DB	0e3H
	DB	018H
	DB	0e4H
	DB	020H
	DB	0e3H
	DB	018H
	DB	0e3H
	DB	018H
	DB	03H
	DB	019H
	DB	0e4H
	DB	020H
	DB	0e3H
	DB	018H
	DB	0e3H
	DB	018H
	DB	0e4H
	DB	020H
	DB	0e3H
	DB	018H
	DB	0e3H
	DB	018H
	DB	0e3H
	DB	018H
	DB	0e4H
	DB	020H
	DB	0e3H
	DB	018H
	DB	0e3H
	DB	018H
	DB	0e4H
	DB	020H
	DB	0e3H
	DB	018H
	DB	0e3H
	DB	018H
	DB	0e3H
	DB	018H
	DB	04H
	DB	021H
	DB	0e3H
	DB	018H
	DB	0e3H
	DB	018H
	DB	0e4H
	DB	020H
	DB	0e3H
	DB	018H
	DB	0e3H
	DB	018H
	DB	0e3H
	DB	018H
	DB	0e4H
	DB	020H
	DB	0e3H
	DB	018H
	DB	0e3H
	DB	018H
	DB	0e4H
	DB	020H
	DB	0e3H
	DB	018H
	DB	0e3H
	DB	018H
	DB	0e3H
	DB	018H
	DB	0e4H
	DB	020H
	DB	03H
	DB	019H
	DB	0e3H
	DB	018H
	DB	0e4H
	DB	020H
	DB	0e3H
	DB	018H
	DB	0e3H
	DB	018H
	DB	0e3H
	DB	018H
	DB	0e4H
	DB	020H
	DB	0e3H
	DB	018H
	DB	0e3H
	DB	018H
	DB	0e4H
	DB	020H
	DB	0e3H
	DB	018H
	DB	0e3H
	DB	018H
	DB	0e3H
	DB	018H
	DB	0e4H
	DB	020H
	DB	0e3H
	DB	018H
	DB	03H
	DB	019H
	DB	0e4H
	DB	020H
	DB	0e3H
	DB	018H
	DB	0e3H
	DB	018H
	DB	0e3H
	DB	018H
	DB	0e4H
	DB	020H
	DB	0e3H
	DB	018H
	DB	0e3H
	DB	018H
	DB	0e4H
	DB	020H
	DB	0e3H
	DB	018H
	DB	0e3H
	DB	018H
	DB	0e3H
	DB	018H
	DB	0e4H
	DB	020H
	DB	0e3H
	DB	018H
	DB	0e3H
	DB	018H
	DB	04H
	DB	021H
	DB	0e3H
	DB	018H
	DB	0e3H
	DB	018H
	DB	0e3H
	DB	018H
	DB	0e4H
	DB	020H
	DB	0e3H
	DB	018H
	DB	0e3H
	DB	018H
	DB	0e4H
	DB	020H
	DB	0e3H
	DB	018H
	DB	0e3H
	DB	018H
	DB	0e3H
	DB	018H
	DB	0e4H
	DB	020H
	DB	0e3H
	DB	018H
	DB	0e3H
	DB	018H
	DB	0e4H
	DB	020H
	DB	03H
	DB	019H
	DB	0e3H
	DB	018H
	DB	0e3H
	DB	018H
	DB	0e4H
	DB	020H
	DB	0e3H
	DB	018H
	DB	0e3H
	DB	018H
	DB	0e4H
	DB	020H
	DB	0e3H
	DB	018H
	DB	0e3H
	DB	018H
	DB	0e3H
	DB	018H
	DB	0e4H
	DB	020H
	DB	0e3H
	DB	018H
	DB	0e3H
	DB	018H
	DB	0e4H
	DB	020H
	DB	0e3H
	DB	018H
	DB	03H
	DB	019H
	DB	0e3H
	DB	018H
	DB	0e4H
	DB	020H
	DB	0e3H
	DB	018H
	DB	0e3H
	DB	018H
	DB	0e4H
	DB	020H
	DB	0e3H
	DB	018H
	DB	0e3H
	DB	018H
	DB	0e3H
	DB	018H
	DB	0e4H
	DB	020H
	DB	0e3H
	DB	018H
	DB	0e3H
	DB	018H
	DB	0e4H
	DB	020H
	DB	0e3H
	DB	018H
	DB	0e3H
	DB	018H
	DB	03H
	DB	019H
	DB	0e4H
	DB	020H
	DB	0e3H
	DB	018H
	DB	0e3H
	DB	018H
	DB	0e4H
	DB	020H
	DB	0e3H
	DB	018H
	DB	0e3H
	DB	018H
	DB	0e3H
	DB	018H
	DB	0e4H
	DB	020H
	DB	0e3H
	DB	018H
	DB	0e3H
	DB	018H
	DB	0e4H
	DB	020H
	DB	0e3H
	DB	018H
	DB	0e3H
	DB	018H
	DB	0e3H
	DB	018H
	DB	04H
	DB	021H
	DB	0e3H
	DB	018H
	DB	0e3H
	DB	018H
	DB	0e4H
	DB	020H
	DB	0e3H
	DB	018H
	DB	0e3H
	DB	018H
	DB	0e3H
	DB	018H
	DB	0e4H
	DB	020H
	DB	0e3H
	DB	018H
	DB	0e3H
	DB	018H
	DB	0e4H
	DB	020H
	DB	0e3H
	DB	018H
	DB	0e3H
	DB	018H
	DB	0e3H
	DB	018H
	DB	0e4H
	DB	020H
	DB	03H
	DB	019H
	DB	0e3H
	DB	018H
	DB	0e4H
	DB	020H
	DB	0e3H
	DB	018H
	DB	0e3H
	DB	018H
	DB	0e4H
	DB	020H
	DB	03H
	DB	019H
	DB	0e4H
	DB	020H
	DB	0e4H
	DB	020H
	DB	0e3H
	DB	018H
	DB	04H
	DB	021H
	DB	0e4H
	DB	020H
	DB	0e3H
	DB	018H
	DB	0e4H
	DB	020H
	DB	04H
	DB	021H
	DB	045H
	DB	029H
	DB	024H
	DB	021H
	DB	0e4H
	DB	020H
	DB	04H
	DB	021H
	DB	04H
	DB	021H
	DB	0e4H
	DB	020H
	DB	04H
	DB	021H
	DB	04H
	DB	021H
	DB	04H
	DB	021H
	DB	04H
	DB	021H
	DB	0e4H
	DB	020H
	DB	04H
	DB	021H
	DB	04H
	DB	021H
	DB	0e4H
	DB	020H
	DB	04H
	DB	021H
	DB	04H
	DB	021H
	DB	04H
	DB	021H
	DB	04H
	DB	021H
	DB	0e4H
	DB	020H
	DB	04H
	DB	021H
	DB	04H
	DB	021H
	DB	04H
	DB	021H
	DB	04H
	DB	021H
	DB	04H
	DB	021H
	DB	04H
	DB	021H
	DB	04H
	DB	021H
	DB	04H
	DB	021H
	DB	04H
	DB	021H
	DB	0e4H
	DB	020H
	DB	04H
	DB	021H
	DB	04H
	DB	021H
	DB	0e4H
	DB	020H
	DB	04H
	DB	021H
	DB	04H
	DB	021H
	DB	04H
	DB	021H
	DB	04H
	DB	021H
	DB	04H
	DB	021H
	DB	04H
	DB	021H
	DB	0e4H
	DB	020H
	DB	04H
	DB	021H
	DB	04H
	DB	021H
	DB	04H
	DB	021H
	DB	04H
	DB	021H
	DB	0e4H
	DB	020H
	DB	04H
	DB	021H
	DB	04H
	DB	021H
	DB	0e4H
	DB	020H
	DB	04H
	DB	021H
	DB	04H
	DB	021H
	DB	04H
	DB	021H
	DB	04H
	DB	021H
	DB	04H
	DB	021H
	DB	04H
	DB	021H
	DB	0e4H
	DB	020H
	DB	04H
	DB	021H
	DB	04H
	DB	021H
	DB	04H
	DB	021H
	DB	04H
	DB	021H
	DB	0e4H
	DB	020H
	DB	04H
	DB	021H
	DB	04H
	DB	021H
	DB	0e4H
	DB	020H
	DB	04H
	DB	021H
	DB	04H
	DB	021H
	DB	04H
	DB	021H
	DB	04H
	DB	021H
	DB	04H
	DB	021H
	DB	04H
	DB	021H
	DB	0e4H
	DB	020H
	DB	04H
	DB	021H
	DB	04H
	DB	021H
	DB	04H
	DB	021H
	DB	04H
	DB	021H
	DB	0e4H
	DB	020H
	DB	04H
	DB	021H
	DB	04H
	DB	021H
	DB	0e4H
	DB	020H
	DB	04H
	DB	021H
	DB	04H
	DB	021H
	DB	04H
	DB	021H
	DB	04H
	DB	021H
	DB	04H
	DB	021H
	DB	04H
	DB	021H
	DB	0e4H
	DB	020H
	DB	04H
	DB	021H
	DB	04H
	DB	021H
	DB	04H
	DB	021H
	DB	04H
	DB	021H
	DB	0e4H
	DB	020H
	DB	04H
	DB	021H
	DB	04H
	DB	021H
	DB	0e4H
	DB	020H
	DB	04H
	DB	021H
	DB	04H
	DB	021H
	DB	04H
	DB	021H
	DB	04H
	DB	021H
	DB	04H
	DB	021H
	DB	04H
	DB	021H
	DB	0e4H
	DB	020H
	DB	04H
	DB	021H
	DB	04H
	DB	021H
	DB	04H
	DB	021H
	DB	04H
	DB	021H
	DB	0e4H
	DB	020H
	DB	04H
	DB	021H
	DB	04H
	DB	021H
	DB	0e4H
	DB	020H
	DB	04H
	DB	021H
	DB	04H
	DB	021H
	DB	04H
	DB	021H
	DB	04H
	DB	021H
	DB	04H
	DB	021H
	DB	04H
	DB	021H
	DB	0e4H
	DB	020H
	DB	04H
	DB	021H
	DB	04H
	DB	021H
	DB	04H
	DB	021H
	DB	04H
	DB	021H
	DB	0e4H
	DB	020H
	DB	04H
	DB	021H
	DB	04H
	DB	021H
	DB	0e4H
	DB	020H
	DB	04H
	DB	021H
	DB	04H
	DB	021H
	DB	04H
	DB	021H
	DB	04H
	DB	021H
	DB	04H
	DB	021H
	DB	04H
	DB	021H
	DB	0e4H
	DB	020H
	DB	04H
	DB	021H
	DB	04H
	DB	021H
	DB	04H
	DB	021H
	DB	04H
	DB	021H
	DB	0e4H
	DB	020H
	DB	04H
	DB	021H
	DB	04H
	DB	021H
	DB	0e4H
	DB	020H
	DB	04H
	DB	021H
	DB	04H
	DB	021H
	DB	04H
	DB	021H
	DB	04H
	DB	021H
	DB	04H
	DB	021H
	DB	04H
	DB	021H
	DB	0e4H
	DB	020H
	DB	04H
	DB	021H
	DB	04H
	DB	021H
	DB	04H
	DB	021H
	DB	04H
	DB	021H
	DB	0e4H
	DB	020H
	DB	04H
	DB	021H
	DB	04H
	DB	021H
	DB	0e4H
	DB	020H
	DB	04H
	DB	021H
	DB	04H
	DB	021H
	DB	04H
	DB	021H
	DB	04H
	DB	021H
	DB	04H
	DB	021H
	DB	04H
	DB	021H
	DB	0e4H
	DB	020H
	DB	04H
	DB	021H
	DB	04H
	DB	021H
	DB	04H
	DB	021H
	DB	04H
	DB	021H
	DB	0e4H
	DB	020H
	DB	04H
	DB	021H
	DB	04H
	DB	021H
	DB	0e4H
	DB	020H
	DB	04H
	DB	021H
	DB	04H
	DB	021H
	DB	04H
	DB	021H
	DB	04H
	DB	021H
	DB	04H
	DB	021H
	DB	04H
	DB	021H
	DB	0e4H
	DB	020H
	DB	04H
	DB	021H
	DB	04H
	DB	021H
	DB	04H
	DB	021H
	DB	04H
	DB	021H
	DB	0e4H
	DB	020H
	DB	04H
	DB	021H
	DB	04H
	DB	021H
	DB	0e4H
	DB	020H
	DB	04H
	DB	021H
	DB	04H
	DB	021H
	DB	04H
	DB	021H
	DB	04H
	DB	021H
	DB	04H
	DB	021H
	DB	04H
	DB	021H
	DB	0e4H
	DB	020H
	DB	04H
	DB	021H
	DB	04H
	DB	021H
	DB	04H
	DB	021H
	DB	04H
	DB	021H
	DB	0e4H
	DB	020H
	DB	04H
	DB	021H
	DB	04H
	DB	021H
	DB	0e4H
	DB	020H
	DB	04H
	DB	021H
	DB	04H
	DB	021H
	DB	04H
	DB	021H
	DB	04H
	DB	021H
	DB	04H
	DB	021H
	DB	04H
	DB	021H
	DB	0e4H
	DB	020H
	DB	04H
	DB	021H
	DB	04H
	DB	021H
	DB	04H
	DB	021H
	DB	04H
	DB	021H
	DB	0e4H
	DB	020H
	DB	04H
	DB	021H
	DB	04H
	DB	021H
	DB	0e4H
	DB	020H
	DB	04H
	DB	021H
	DB	04H
	DB	021H
	DB	04H
	DB	021H
	DB	04H
	DB	021H
	DB	04H
	DB	021H
	DB	04H
	DB	021H
	DB	0e4H
	DB	020H
	DB	04H
	DB	021H
	DB	04H
	DB	021H
	DB	04H
	DB	021H
	DB	04H
	DB	021H
	DB	0e4H
	DB	020H
	DB	04H
	DB	021H
	DB	04H
	DB	021H
	DB	0e4H
	DB	020H
	DB	04H
	DB	021H
	DB	04H
	DB	021H
	DB	04H
	DB	021H
	DB	04H
	DB	021H
	DB	04H
	DB	021H
	DB	04H
	DB	021H
	DB	0e4H
	DB	020H
	DB	04H
	DB	021H
	DB	04H
	DB	021H
	DB	04H
	DB	021H
	DB	04H
	DB	021H
	DB	0e4H
	DB	020H
	DB	04H
	DB	021H
	DB	04H
	DB	021H
	DB	0e4H
	DB	020H
	DB	04H
	DB	021H
	DB	04H
	DB	021H
	DB	04H
	DB	021H
	DB	04H
	DB	021H
	DB	04H
	DB	021H
	DB	04H
	DB	021H
	DB	0e4H
	DB	020H
	DB	04H
	DB	021H
	DB	04H
	DB	021H
	DB	04H
	DB	021H
	DB	04H
	DB	021H
	DB	0e4H
	DB	020H
	DB	04H
	DB	021H
	DB	04H
	DB	021H
	DB	0e4H
	DB	020H
	DB	04H
	DB	021H
	DB	04H
	DB	021H
	DB	04H
	DB	021H
	DB	04H
	DB	021H
	DB	04H
	DB	021H
	DB	04H
	DB	021H
	DB	0e4H
	DB	020H
	DB	04H
	DB	021H
	DB	04H
	DB	021H
	DB	04H
	DB	021H
	DB	04H
	DB	021H
	DB	0e4H
	DB	020H
	DB	04H
	DB	021H
	DB	04H
	DB	021H
	DB	0e4H
	DB	020H
	DB	04H
	DB	021H
	DB	04H
	DB	021H
	DB	04H
	DB	021H
	DB	04H
	DB	021H
	DB	04H
	DB	021H
	DB	04H
	DB	021H
	DB	0e4H
	DB	020H
	DB	04H
	DB	021H
	DB	04H
	DB	021H
	DB	04H
	DB	021H
	DB	04H
	DB	021H
	DB	0e4H
	DB	020H
	DB	04H
	DB	021H
	DB	04H
	DB	021H
	DB	0e4H
	DB	020H
	DB	04H
	DB	021H
	DB	04H
	DB	021H
	DB	04H
	DB	021H
	DB	04H
	DB	021H
	DB	04H
	DB	021H
	DB	04H
	DB	021H
	DB	0e4H
	DB	020H
	DB	04H
	DB	021H
	DB	04H
	DB	021H
	DB	04H
	DB	021H
	DB	04H
	DB	021H
	DB	0e4H
	DB	020H
	DB	04H
	DB	021H
	DB	04H
	DB	021H
	DB	0e4H
	DB	020H
	DB	04H
	DB	021H
	DB	04H
	DB	021H
	DB	04H
	DB	021H
	DB	04H
	DB	021H
	DB	04H
	DB	021H
	DB	04H
	DB	021H
	DB	0e4H
	DB	020H
	DB	04H
	DB	021H
	DB	04H
	DB	021H
	DB	04H
	DB	021H
	DB	04H
	DB	021H
	DB	0e4H
	DB	020H
	DB	04H
	DB	021H
	DB	04H
	DB	021H
	DB	0e4H
	DB	020H
	DB	04H
	DB	021H
	DB	04H
	DB	021H
	DB	04H
	DB	021H
	DB	04H
	DB	021H
	DB	04H
	DB	021H
	DB	04H
	DB	021H
	DB	0e4H
	DB	020H
	DB	04H
	DB	021H
	DB	04H
	DB	021H
	DB	04H
	DB	021H
	DB	04H
	DB	021H
	DB	0e4H
	DB	020H
	DB	04H
	DB	021H
	DB	04H
	DB	021H
	DB	0e4H
	DB	020H
	DB	04H
	DB	021H
	DB	04H
	DB	021H
	DB	04H
	DB	021H
	DB	04H
	DB	021H
	DB	04H
	DB	021H
	DB	04H
	DB	021H
	DB	0e4H
	DB	020H
	DB	04H
	DB	021H
	DB	04H
	DB	021H
	DB	04H
	DB	021H
	DB	04H
	DB	021H
	DB	0e4H
	DB	020H
	DB	04H
	DB	021H
	DB	04H
	DB	021H
	DB	0e4H
	DB	020H
	DB	04H
	DB	021H
	DB	04H
	DB	021H
	DB	04H
	DB	021H
	DB	04H
	DB	021H
	DB	04H
	DB	021H
	DB	04H
	DB	021H
	DB	0e4H
	DB	020H
	DB	04H
	DB	021H
	DB	04H
	DB	021H
	DB	04H
	DB	021H
	DB	04H
	DB	021H
	DB	0e4H
	DB	020H
	DB	04H
	DB	021H
	DB	04H
	DB	021H
	DB	0e4H
	DB	020H
	DB	04H
	DB	021H
	DB	04H
	DB	021H
	DB	04H
	DB	021H
	DB	04H
	DB	021H
	DB	04H
	DB	021H
	DB	04H
	DB	021H
	DB	0e4H
	DB	020H
	DB	04H
	DB	021H
	DB	04H
	DB	021H
	DB	04H
	DB	021H
	DB	04H
	DB	021H
	DB	0e4H
	DB	020H
	DB	04H
	DB	021H
	DB	04H
	DB	021H
	DB	0e4H
	DB	020H
	DB	04H
	DB	021H
	DB	04H
	DB	021H
	DB	04H
	DB	021H
	DB	04H
	DB	021H
	DB	04H
	DB	021H
	DB	04H
	DB	021H
	DB	0e4H
	DB	020H
	DB	04H
	DB	021H
	DB	04H
	DB	021H
	DB	04H
	DB	021H
	DB	04H
	DB	021H
	DB	0e4H
	DB	020H
	DB	04H
	DB	021H
	DB	04H
	DB	021H
	DB	0e4H
	DB	020H
	DB	04H
	DB	021H
	DB	04H
	DB	021H
	DB	04H
	DB	021H
	DB	04H
	DB	021H
	DB	04H
	DB	021H
	DB	04H
	DB	021H
	DB	0e4H
	DB	020H
	DB	04H
	DB	021H
	DB	04H
	DB	021H
	DB	04H
	DB	021H
	DB	04H
	DB	021H
	DB	0e4H
	DB	020H
	DB	04H
	DB	021H
	DB	04H
	DB	021H
	DB	0e4H
	DB	020H
	DB	04H
	DB	021H
	DB	04H
	DB	021H
	DB	04H
	DB	021H
	DB	04H
	DB	021H
	DB	04H
	DB	021H
	DB	04H
	DB	021H
	DB	0e4H
	DB	020H
	DB	04H
	DB	021H
	DB	04H
	DB	021H
	DB	04H
	DB	021H
	DB	04H
	DB	021H
	DB	0e4H
	DB	020H
	DB	04H
	DB	021H
	DB	04H
	DB	021H
	DB	0e4H
	DB	020H
	DB	04H
	DB	021H
	DB	04H
	DB	021H
	DB	04H
	DB	021H
	DB	04H
	DB	021H
	DB	04H
	DB	021H
	DB	04H
	DB	021H
	DB	0e4H
	DB	020H
	DB	04H
	DB	021H
	DB	04H
	DB	021H
	DB	04H
	DB	021H
	DB	04H
	DB	021H
	DB	0e4H
	DB	020H
	DB	04H
	DB	021H
	DB	04H
	DB	021H
	DB	0e4H
	DB	020H
	DB	04H
	DB	021H
	DB	04H
	DB	021H
	DB	04H
	DB	021H
	DB	04H
	DB	021H
	DB	04H
	DB	021H
	DB	04H
	DB	021H
	DB	0e4H
	DB	020H
	DB	04H
	DB	021H
	DB	04H
	DB	021H
	DB	04H
	DB	021H
	DB	04H
	DB	021H
	DB	0e4H
	DB	020H
	DB	04H
	DB	021H
	DB	04H
	DB	021H
	DB	0e4H
	DB	020H
	DB	04H
	DB	021H
	DB	04H
	DB	021H
	DB	04H
	DB	021H
	DB	04H
	DB	021H
	DB	04H
	DB	021H
	DB	04H
	DB	021H
	DB	0e4H
	DB	020H
	DB	04H
	DB	021H
	DB	04H
	DB	021H
	DB	04H
	DB	021H
	DB	04H
	DB	021H
	DB	0e4H
	DB	020H
	DB	04H
	DB	021H
	DB	04H
	DB	021H
	DB	0e4H
	DB	020H
	DB	04H
	DB	021H
	DB	04H
	DB	021H
	DB	0e4H
	DB	020H
	DB	04H
	DB	021H
	DB	03H
	DB	019H
	DB	0e4H
	DB	020H
	DB	04H
	DB	021H
	DB	03H
	DB	019H
	DB	0e4H
	DB	020H
	DB	04H
	DB	021H
	DB	03H
	DB	019H
	DB	0e4H
	DB	020H
	DB	04H
	DB	021H
	DB	024H
	DB	021H
	DB	04H
	DB	021H
	DB	0e4H
	DB	020H
	DB	04H
	DB	021H
	DB	0e3H
	DB	018H
	DB	04H
	DB	021H
	DB	0e3H
	DB	018H
	DB	0e4H
	DB	020H
	DB	03H
	DB	019H
	DB	0e3H
	DB	018H
	DB	04H
	DB	021H
	DB	04H
	DB	021H
	DB	0e3H
	DB	018H
	DB	0e4H
	DB	020H
	DB	04H
	DB	021H
	DB	0e3H
	DB	018H
	DB	0e4H
	DB	020H
	DB	04H
	DB	021H
	DB	03H
	DB	019H
	DB	0e4H
	DB	020H
	DB	04H
	DB	021H
	DB	0e4H
	DB	020H
	DB	0e4H
	DB	020H
	DB	0e3H
	DB	018H
	DB	04H
	DB	021H
	DB	0e4H
	DB	020H
	DB	0e3H
	DB	018H
	DB	04H
	DB	021H
	DB	0e4H
	DB	020H
	DB	04H
	DB	021H
	DB	0e3H
	DB	018H
	DB	0e4H
	DB	020H
	DB	04H
	DB	021H
	DB	0e3H
	DB	018H
	DB	0e4H
	DB	020H
	DB	04H
	DB	021H
	DB	0e4H
	DB	020H
	DB	03H
	DB	019H
	DB	04H
	DB	021H
	DB	0e4H
	DB	020H
	DB	03H
	DB	019H
	DB	0e4H
	DB	020H
	DB	04H
	DB	021H
	DB	0e4H
	DB	020H
	DB	03H
	DB	019H
	DB	0e4H
	DB	020H
	DB	0e4H
	DB	020H
	DB	03H
	DB	019H
	DB	0e4H
	DB	020H
	DB	0e4H
	DB	020H
	DB	04H
	DB	021H
	DB	0e3H
	DB	018H
	DB	04H
	DB	021H
	DB	04H
	DB	021H
	DB	0e3H
	DB	018H
	DB	04H
	DB	021H
	DB	0e4H
	DB	020H
	DB	04H
	DB	021H
	DB	0e3H
	DB	018H
	DB	04H
	DB	021H
	DB	0e4H
	DB	020H
	DB	0e3H
	DB	018H
	DB	04H
	DB	021H
	DB	0e4H
	DB	020H
	DB	0e4H
	DB	020H
	DB	03H
	DB	019H
	DB	0e4H
	DB	020H
	DB	04H
	DB	021H
	DB	03H
	DB	019H
	DB	0e4H
	DB	020H
	DB	04H
	DB	021H
	DB	0e4H
	DB	020H
	DB	03H
	DB	019H
	DB	0e4H
	DB	020H
	DB	04H
	DB	021H
	DB	0e3H
	DB	018H
	DB	0e4H
	DB	020H
	DB	04H
	DB	021H
	DB	0e4H
	DB	020H
	DB	0e3H
	DB	018H
	DB	04H
	DB	021H
	DB	0e4H
	DB	020H
	DB	03H
	DB	019H
	DB	04H
	DB	021H
	DB	0e4H
	DB	020H
	DB	04H
	DB	021H
	DB	0e3H
	DB	018H
	DB	04H
	DB	021H
	DB	0e4H
	DB	020H
	DB	03H
	DB	019H
	DB	0e4H
	DB	020H
	DB	0e4H
	DB	020H
	DB	04H
	DB	021H
	DB	0e3H
	DB	018H
	DB	0e4H
	DB	020H
	DB	04H
	DB	021H
	DB	0e3H
	DB	018H
	DB	04H
	DB	021H
	DB	04H
	DB	021H
	DB	0e4H
	DB	020H
	DB	03H
	DB	019H
	DB	0e4H
	DB	020H
	DB	04H
	DB	021H
	DB	0e3H
	DB	018H
	DB	04H
	DB	021H
	DB	0e4H
	DB	020H
	DB	0e4H
	DB	020H
	DB	03H
	DB	019H
	DB	0e4H
	DB	020H
	DB	0e4H
	DB	020H
	DB	03H
	DB	019H
	DB	0e4H
	DB	020H
	DB	04H
	DB	021H
	DB	04H
	DB	021H
	DB	0e3H
	DB	018H
	DB	04H
	DB	021H
	DB	0e4H
	DB	020H
	DB	03H
	DB	019H
	DB	0e4H
	DB	020H
	DB	04H
	DB	021H
	DB	0e4H
	DB	020H
	DB	0e3H
	DB	018H
	DB	04H
	DB	021H
	DB	0e4H
	DB	020H
	DB	0e3H
	DB	018H
	DB	04H
	DB	021H
	DB	0e4H
	DB	020H
	DB	04H
	DB	021H
	DB	03H
	DB	019H
	DB	0e4H
	DB	020H
	DB	04H
	DB	021H
	DB	0e3H
	DB	018H
	DB	04H
	DB	021H
	DB	0e4H
	DB	020H
	DB	04H
	DB	021H
	DB	0e3H
	DB	018H
	DB	0e4H
	DB	020H
	DB	04H
	DB	021H
	DB	0e3H
	DB	018H
	DB	0e4H
	DB	020H
	DB	04H
	DB	021H
	DB	0e4H
	DB	020H
	DB	03H
	DB	019H
	DB	04H
	DB	021H
	DB	0e4H
	DB	020H
	DB	03H
	DB	019H
	DB	0e4H
	DB	020H
	DB	04H
	DB	021H
	DB	0e4H
	DB	020H
	DB	03H
	DB	019H
	DB	0e4H
	DB	020H
	DB	0e4H
	DB	020H
	DB	03H
	DB	019H
	DB	0e4H
	DB	020H
	DB	0e4H
	DB	020H
	DB	04H
	DB	021H
	DB	0e3H
	DB	018H
	DB	04H
	DB	021H
	DB	04H
	DB	021H
	DB	0e3H
	DB	018H
	DB	04H
	DB	021H
	DB	0e4H
	DB	020H
	DB	04H
	DB	021H
	DB	0e3H
	DB	018H
	DB	04H
	DB	021H
	DB	0e4H
	DB	020H
	DB	0e3H
	DB	018H
	DB	04H
	DB	021H
	DB	0e4H
	DB	020H
	DB	0e4H
	DB	020H
	DB	03H
	DB	019H
	DB	0e4H
	DB	020H
	DB	04H
	DB	021H
	DB	03H
	DB	019H
	DB	0e4H
	DB	020H
	DB	04H
	DB	021H
	DB	0e4H
	DB	020H
	DB	03H
	DB	019H
	DB	0e4H
	DB	020H
	DB	04H
	DB	021H
	DB	0e3H
	DB	018H
	DB	0e4H
	DB	020H
	DB	04H
	DB	021H
	DB	0e4H
	DB	020H
	DB	0e3H
	DB	018H
	DB	04H
	DB	021H
	DB	0e4H
	DB	020H
	DB	03H
	DB	019H
	DB	04H
	DB	021H
	DB	0e4H
	DB	020H
	DB	04H
	DB	021H
	DB	0e3H
	DB	018H
	DB	04H
	DB	021H
	DB	0e4H
	DB	020H
	DB	03H
	DB	019H
	DB	0e4H
	DB	020H
	DB	0e4H
	DB	020H
	DB	04H
	DB	021H
	DB	0e3H
	DB	018H
	DB	0e4H
	DB	020H
	DB	04H
	DB	021H
	DB	0e3H
	DB	018H
	DB	04H
	DB	021H
	DB	04H
	DB	021H
	DB	0e4H
	DB	020H
	DB	03H
	DB	019H
	DB	0e4H
	DB	020H
	DB	04H
	DB	021H
	DB	0e3H
	DB	018H
	DB	04H
	DB	021H
	DB	0e4H
	DB	020H
	DB	0e4H
	DB	020H
	DB	03H
	DB	019H
	DB	0e4H
	DB	020H
	DB	0e4H
	DB	020H
	DB	03H
	DB	019H
	DB	0e4H
	DB	020H
	DB	04H
	DB	021H
	DB	04H
	DB	021H
	DB	0e3H
	DB	018H
	DB	04H
	DB	021H
	DB	0e4H
	DB	020H
	DB	03H
	DB	019H
	DB	0e4H
	DB	020H
	DB	04H
	DB	021H
	DB	0e4H
	DB	020H
	DB	0e3H
	DB	018H
	DB	04H
	DB	021H
	DB	0e4H
	DB	020H
	DB	0e3H
	DB	018H
	DB	04H
	DB	021H
	DB	0e4H
	DB	020H
	DB	04H
	DB	021H
	DB	03H
	DB	019H
	DB	0e4H
	DB	020H
	DB	04H
	DB	021H
	DB	0e3H
	DB	018H
	DB	04H
	DB	021H
	DB	0e4H
	DB	020H
	DB	04H
	DB	021H
	DB	0e3H
	DB	018H
	DB	0e4H
	DB	020H
	DB	04H
	DB	021H
	DB	0e3H
	DB	018H
	DB	0e4H
	DB	020H
	DB	04H
	DB	021H
	DB	0e4H
	DB	020H
	DB	03H
	DB	019H
	DB	04H
	DB	021H
	DB	0e4H
	DB	020H
	DB	03H
	DB	019H
	DB	0e4H
	DB	020H
	DB	04H
	DB	021H
	DB	0e4H
	DB	020H
	DB	03H
	DB	019H
	DB	0e4H
	DB	020H
	DB	0e4H
	DB	020H
	DB	03H
	DB	019H
	DB	0e4H
	DB	020H
	DB	0e4H
	DB	020H
	DB	04H
	DB	021H
	DB	0e3H
	DB	018H
	DB	04H
	DB	021H
	DB	04H
	DB	021H
	DB	0e3H
	DB	018H
	DB	04H
	DB	021H
	DB	0e4H
	DB	020H
	DB	04H
	DB	021H
	DB	0e3H
	DB	018H
	DB	04H
	DB	021H
	DB	0e4H
	DB	020H
	DB	0e3H
	DB	018H
	DB	04H
	DB	021H
	DB	0e4H
	DB	020H
	DB	0e4H
	DB	020H
	DB	03H
	DB	019H
	DB	0e4H
	DB	020H
	DB	04H
	DB	021H
	DB	03H
	DB	019H
	DB	0e4H
	DB	020H
	DB	04H
	DB	021H
	DB	0e4H
	DB	020H
	DB	03H
	DB	019H
	DB	0e4H
	DB	020H
	DB	04H
	DB	021H
	DB	0e3H
	DB	018H
	DB	0e4H
	DB	020H
	DB	04H
	DB	021H
	DB	0e4H
	DB	020H
	DB	0e3H
	DB	018H
	DB	04H
	DB	021H
	DB	0e4H
	DB	020H
	DB	03H
	DB	019H
	DB	04H
	DB	021H
	DB	0e4H
	DB	020H
	DB	04H
	DB	021H
	DB	0e3H
	DB	018H
	DB	04H
	DB	021H
	DB	0e4H
	DB	020H
	DB	03H
	DB	019H
	DB	0e4H
	DB	020H
	DB	0e4H
	DB	020H
	DB	04H
	DB	021H
	DB	0e3H
	DB	018H
	DB	0e4H
	DB	020H
	DB	04H
	DB	021H
	DB	0e3H
	DB	018H
	DB	04H
	DB	021H
	DB	04H
	DB	021H
	DB	0e4H
	DB	020H
	DB	03H
	DB	019H
	DB	0e4H
	DB	020H
	DB	04H
	DB	021H
	DB	0e3H
	DB	018H
	DB	04H
	DB	021H
	DB	0e4H
	DB	020H
	DB	0e4H
	DB	020H
	DB	03H
	DB	019H
	DB	0e4H
	DB	020H
	DB	0e4H
	DB	020H
	DB	03H
	DB	019H
	DB	0e4H
	DB	020H
	DB	04H
	DB	021H
	DB	04H
	DB	021H
	DB	0e3H
	DB	018H
	DB	04H
	DB	021H
	DB	0e4H
	DB	020H
	DB	03H
	DB	019H
	DB	0e4H
	DB	020H
	DB	04H
	DB	021H
	DB	0e4H
	DB	020H
	DB	0e3H
	DB	018H
	DB	04H
	DB	021H
	DB	0e4H
	DB	020H
	DB	0e3H
	DB	018H
	DB	04H
	DB	021H
	DB	0e4H
	DB	020H
	DB	04H
	DB	021H
	DB	03H
	DB	019H
	DB	0e4H
	DB	020H
	DB	04H
	DB	021H
	DB	0e3H
	DB	018H
	DB	04H
	DB	021H
	DB	0e4H
	DB	020H
	DB	04H
	DB	021H
	DB	0e3H
	DB	018H
	DB	0e4H
	DB	020H
	DB	04H
	DB	021H
	DB	0e3H
	DB	018H
	DB	0e4H
	DB	020H
	DB	04H
	DB	021H
	DB	0e4H
	DB	020H
	DB	03H
	DB	019H
	DB	04H
	DB	021H
	DB	0e4H
	DB	020H
	DB	03H
	DB	019H
	DB	0e4H
	DB	020H
	DB	04H
	DB	021H
	DB	0e4H
	DB	020H
	DB	03H
	DB	019H
	DB	0e4H
	DB	020H
	DB	0e4H
	DB	020H
	DB	03H
	DB	019H
	DB	0e4H
	DB	020H
	DB	0e4H
	DB	020H
	DB	04H
	DB	021H
	DB	0e3H
	DB	018H
	DB	04H
	DB	021H
	DB	04H
	DB	021H
	DB	0e3H
	DB	018H
	DB	04H
	DB	021H
	DB	0e4H
	DB	020H
	DB	04H
	DB	021H
	DB	0e3H
	DB	018H
	DB	04H
	DB	021H
	DB	0e4H
	DB	020H
	DB	0e3H
	DB	018H
	DB	04H
	DB	021H
	DB	0e4H
	DB	020H
	DB	0e4H
	DB	020H
	DB	03H
	DB	019H
	DB	0e4H
	DB	020H
	DB	04H
	DB	021H
	DB	03H
	DB	019H
	DB	0e4H
	DB	020H
	DB	04H
	DB	021H
	DB	0e4H
	DB	020H
	DB	03H
	DB	019H
	DB	0e4H
	DB	020H
	DB	04H
	DB	021H
	DB	0e3H
	DB	018H
	DB	0e4H
	DB	020H
	DB	04H
	DB	021H
	DB	0e4H
	DB	020H
	DB	0e3H
	DB	018H
	DB	04H
	DB	021H
	DB	0e4H
	DB	020H
	DB	03H
	DB	019H
	DB	04H
	DB	021H
	DB	0e4H
	DB	020H
	DB	04H
	DB	021H
	DB	0e3H
	DB	018H
	DB	04H
	DB	021H
	DB	0e4H
	DB	020H
	DB	03H
	DB	019H
	DB	0e4H
	DB	020H
	DB	0e4H
	DB	020H
	DB	04H
	DB	021H
	DB	0e3H
	DB	018H
	DB	0e4H
	DB	020H
	DB	04H
	DB	021H
	DB	0e3H
	DB	018H
	DB	04H
	DB	021H
	DB	04H
	DB	021H
	DB	0e4H
	DB	020H
	DB	03H
	DB	019H
	DB	0e4H
	DB	020H
	DB	04H
	DB	021H
	DB	0e3H
	DB	018H
	DB	04H
	DB	021H
	DB	0e4H
	DB	020H
	DB	0e4H
	DB	020H
	DB	03H
	DB	019H
	DB	0e4H
	DB	020H
	DB	0e4H
	DB	020H
	DB	03H
	DB	019H
	DB	0e4H
	DB	020H
	DB	04H
	DB	021H
	DB	04H
	DB	021H
	DB	0e3H
	DB	018H
	DB	04H
	DB	021H
	DB	0e4H
	DB	020H
	DB	03H
	DB	019H
	DB	0e4H
	DB	020H
	DB	04H
	DB	021H
	DB	0e4H
	DB	020H
	DB	0e3H
	DB	018H
	DB	04H
	DB	021H
	DB	0e4H
	DB	020H
	DB	0e3H
	DB	018H
	DB	04H
	DB	021H
	DB	0e4H
	DB	020H
	DB	04H
	DB	021H
	DB	03H
	DB	019H
	DB	0e4H
	DB	020H
	DB	04H
	DB	021H
	DB	0e3H
	DB	018H
	DB	04H
	DB	021H
	DB	0e4H
	DB	020H
	DB	04H
	DB	021H
	DB	0e3H
	DB	018H
	DB	0e4H
	DB	020H
	DB	04H
	DB	021H
	DB	0e3H
	DB	018H
	DB	0e4H
	DB	020H
	DB	04H
	DB	021H
	DB	0e4H
	DB	020H
	DB	03H
	DB	019H
	DB	04H
	DB	021H
	DB	0e4H
	DB	020H
	DB	03H
	DB	019H
	DB	0e4H
	DB	020H
	DB	04H
	DB	021H
	DB	0e4H
	DB	020H
	DB	03H
	DB	019H
	DB	0e4H
	DB	020H
	DB	0e4H
	DB	020H
	DB	03H
	DB	019H
	DB	0e4H
	DB	020H
	DB	04H
	DB	021H
	DB	0e4H
	DB	020H
	DB	0e4H
	DB	020H
	DB	04H
	DB	021H
	DB	0e4H
	DB	020H
	DB	04H
	DB	021H
	DB	0e4H
	DB	020H
	DB	0e4H
	DB	020H
	DB	04H
	DB	021H
	DB	0e3H
	DB	018H
	DB	0e4H
	DB	020H
	DB	04H
	DB	021H
	DB	0e4H
	DB	020H
	DB	0e3H
	DB	018H
	DB	0e3H
	DB	018H
	DB	0e4H
	DB	020H
	DB	0e3H
	DB	018H
	DB	0e4H
	DB	020H
	DB	0e4H
	DB	020H
	DB	0e3H
	DB	018H
	DB	0e4H
	DB	020H
	DB	0e3H
	DB	018H
	DB	0e3H
	DB	018H
	DB	0e4H
	DB	020H
	DB	0e3H
	DB	018H
	DB	0e3H
	DB	018H
	DB	0e4H
	DB	020H
	DB	0e3H
	DB	018H
	DB	0e3H
	DB	018H
	DB	0e4H
	DB	020H
	DB	0e3H
	DB	018H
	DB	0e3H
	DB	018H
	DB	0e3H
	DB	018H
	DB	0e4H
	DB	020H
	DB	0e3H
	DB	018H
	DB	0e3H
	DB	018H
	DB	0e4H
	DB	020H
	DB	0e3H
	DB	018H
	DB	0e3H
	DB	018H
	DB	0e4H
	DB	020H
	DB	0e3H
	DB	018H
	DB	0e3H
	DB	018H
	DB	0e4H
	DB	020H
	DB	0e3H
	DB	018H
	DB	0e3H
	DB	018H
	DB	0e4H
	DB	020H
	DB	0e3H
	DB	018H
	DB	0e3H
	DB	018H
	DB	0e4H
	DB	020H
	DB	0e3H
	DB	018H
	DB	0e3H
	DB	018H
	DB	0e4H
	DB	020H
	DB	0e3H
	DB	018H
	DB	0e3H
	DB	018H
	DB	0e4H
	DB	020H
	DB	0e3H
	DB	018H
	DB	0e3H
	DB	018H
	DB	0e4H
	DB	020H
	DB	0e3H
	DB	018H
	DB	0e3H
	DB	018H
	DB	0e4H
	DB	020H
	DB	0e3H
	DB	018H
	DB	0e3H
	DB	018H
	DB	0e4H
	DB	020H
	DB	0e3H
	DB	018H
	DB	0e3H
	DB	018H
	DB	0e4H
	DB	020H
	DB	0e3H
	DB	018H
	DB	0e3H
	DB	018H
	DB	0e4H
	DB	020H
	DB	0e3H
	DB	018H
	DB	0e3H
	DB	018H
	DB	0e4H
	DB	020H
	DB	0e3H
	DB	018H
	DB	0e3H
	DB	018H
	DB	0e4H
	DB	020H
	DB	0e3H
	DB	018H
	DB	0e3H
	DB	018H
	DB	0e4H
	DB	020H
	DB	0e3H
	DB	018H
	DB	0e3H
	DB	018H
	DB	0e4H
	DB	020H
	DB	0e3H
	DB	018H
	DB	0e3H
	DB	018H
	DB	0e4H
	DB	020H
	DB	0e3H
	DB	018H
	DB	0e3H
	DB	018H
	DB	0e4H
	DB	020H
	DB	0e3H
	DB	018H
	DB	0e3H
	DB	018H
	DB	0e4H
	DB	020H
	DB	0e3H
	DB	018H
	DB	0e3H
	DB	018H
	DB	0e4H
	DB	020H
	DB	0e3H
	DB	018H
	DB	0e3H
	DB	018H
	DB	0e4H
	DB	020H
	DB	0e3H
	DB	018H
	DB	0e3H
	DB	018H
	DB	0e4H
	DB	020H
	DB	0e3H
	DB	018H
	DB	0e3H
	DB	018H
	DB	0e4H
	DB	020H
	DB	0e3H
	DB	018H
	DB	0e3H
	DB	018H
	DB	0e4H
	DB	020H
	DB	0e3H
	DB	018H
	DB	0e3H
	DB	018H
	DB	0e4H
	DB	020H
	DB	0e3H
	DB	018H
	DB	0e3H
	DB	018H
	DB	0e4H
	DB	020H
	DB	0e3H
	DB	018H
	DB	0e3H
	DB	018H
	DB	0e4H
	DB	020H
	DB	0e3H
	DB	018H
	DB	0e3H
	DB	018H
	DB	0e4H
	DB	020H
	DB	0e3H
	DB	018H
	DB	0e3H
	DB	018H
	DB	0e4H
	DB	020H
	DB	0e3H
	DB	018H
	DB	0e3H
	DB	018H
	DB	0e4H
	DB	020H
	DB	0e3H
	DB	018H
	DB	0e3H
	DB	018H
	DB	0e4H
	DB	020H
	DB	0e3H
	DB	018H
	DB	0e3H
	DB	018H
	DB	0e4H
	DB	020H
	DB	0e3H
	DB	018H
	DB	0e3H
	DB	018H
	DB	0e4H
	DB	020H
	DB	0e3H
	DB	018H
	DB	0e3H
	DB	018H
	DB	0e4H
	DB	020H
	DB	0e3H
	DB	018H
	DB	0e3H
	DB	018H
	DB	0e4H
	DB	020H
	DB	0e3H
	DB	018H
	DB	0e3H
	DB	018H
	DB	0e4H
	DB	020H
	DB	0e3H
	DB	018H
	DB	0e3H
	DB	018H
	DB	0e4H
	DB	020H
	DB	0e3H
	DB	018H
	DB	0e3H
	DB	018H
	DB	0e4H
	DB	020H
	DB	0e3H
	DB	018H
	DB	0e3H
	DB	018H
	DB	0e4H
	DB	020H
	DB	0e3H
	DB	018H
	DB	0e3H
	DB	018H
	DB	0e4H
	DB	020H
	DB	0e3H
	DB	018H
	DB	0e3H
	DB	018H
	DB	0e4H
	DB	020H
	DB	0e3H
	DB	018H
	DB	0e3H
	DB	018H
	DB	0e4H
	DB	020H
	DB	0e3H
	DB	018H
	DB	0e3H
	DB	018H
	DB	0e4H
	DB	020H
	DB	0e3H
	DB	018H
	DB	0e3H
	DB	018H
	DB	0e4H
	DB	020H
	DB	0e3H
	DB	018H
	DB	0e3H
	DB	018H
	DB	0e4H
	DB	020H
	DB	0e3H
	DB	018H
	DB	0e3H
	DB	018H
	DB	0e4H
	DB	020H
	DB	0e3H
	DB	018H
	DB	0e3H
	DB	018H
	DB	0e4H
	DB	020H
	DB	0e3H
	DB	018H
	DB	0e3H
	DB	018H
	DB	0e4H
	DB	020H
	DB	0e3H
	DB	018H
	DB	0e3H
	DB	018H
	DB	0e4H
	DB	020H
	DB	0e3H
	DB	018H
	DB	0e3H
	DB	018H
	DB	0e4H
	DB	020H
	DB	0e3H
	DB	018H
	DB	0e3H
	DB	018H
	DB	0e4H
	DB	020H
	DB	0e3H
	DB	018H
	DB	0e3H
	DB	018H
	DB	0e4H
	DB	020H
	DB	0e3H
	DB	018H
	DB	0e3H
	DB	018H
	DB	0e4H
	DB	020H
	DB	0e3H
	DB	018H
	DB	0e3H
	DB	018H
	DB	0e4H
	DB	020H
	DB	0e3H
	DB	018H
	DB	0e3H
	DB	018H
	DB	0e4H
	DB	020H
	DB	0e3H
	DB	018H
	DB	0e3H
	DB	018H
	DB	0e4H
	DB	020H
	DB	0e3H
	DB	018H
	DB	0e3H
	DB	018H
	DB	0e4H
	DB	020H
	DB	0e3H
	DB	018H
	DB	0e3H
	DB	018H
	DB	0e4H
	DB	020H
	DB	0e3H
	DB	018H
	DB	0e3H
	DB	018H
	DB	0e4H
	DB	020H
	DB	0e3H
	DB	018H
	DB	0e3H
	DB	018H
	DB	0e4H
	DB	020H
	DB	0e3H
	DB	018H
	DB	0e3H
	DB	018H
	DB	0e4H
	DB	020H
	DB	0e3H
	DB	018H
	DB	0e3H
	DB	018H
	DB	0e4H
	DB	020H
	DB	0e3H
	DB	018H
	DB	0e3H
	DB	018H
	DB	0e4H
	DB	020H
	DB	0e3H
	DB	018H
	DB	0e3H
	DB	018H
	DB	0e4H
	DB	020H
	DB	0e3H
	DB	018H
	DB	0e3H
	DB	018H
	DB	0e4H
	DB	020H
	DB	0e3H
	DB	018H
	DB	0e3H
	DB	018H
	DB	0e4H
	DB	020H
	DB	0e3H
	DB	018H
	DB	0e3H
	DB	018H
	DB	0e4H
	DB	020H
	DB	0e3H
	DB	018H
	DB	0e3H
	DB	018H
	DB	0e4H
	DB	020H
	DB	0e3H
	DB	018H
	DB	0e3H
	DB	018H
	DB	0e4H
	DB	020H
	DB	0e3H
	DB	018H
	DB	0e3H
	DB	018H
	DB	0e4H
	DB	020H
	DB	0e3H
	DB	018H
	DB	0e3H
	DB	018H
	DB	0e4H
	DB	020H
	DB	0e3H
	DB	018H
	DB	0e3H
	DB	018H
	DB	0e4H
	DB	020H
	DB	0e3H
	DB	018H
	DB	0e3H
	DB	018H
	DB	0e4H
	DB	020H
	DB	0e3H
	DB	018H
	DB	0e3H
	DB	018H
	DB	0e4H
	DB	020H
	DB	0e3H
	DB	018H
	DB	0e3H
	DB	018H
	DB	0e4H
	DB	020H
	DB	0e3H
	DB	018H
	DB	0e3H
	DB	018H
	DB	0e4H
	DB	020H
	DB	0e3H
	DB	018H
	DB	0e3H
	DB	018H
	DB	0e4H
	DB	020H
	DB	0e3H
	DB	018H
	DB	0e3H
	DB	018H
	DB	0e4H
	DB	020H
	DB	0e3H
	DB	018H
	DB	0e3H
	DB	018H
	DB	0e4H
	DB	020H
	DB	0e3H
	DB	018H
	DB	0e3H
	DB	018H
	DB	0e4H
	DB	020H
	DB	0e3H
	DB	018H
	DB	0e3H
	DB	018H
	DB	0e4H
	DB	020H
	DB	0e3H
	DB	018H
	DB	0e3H
	DB	018H
	DB	0e4H
	DB	020H
	DB	0e3H
	DB	018H
	DB	0e3H
	DB	018H
	DB	0e4H
	DB	020H
	DB	0e3H
	DB	018H
	DB	0e3H
	DB	018H
	DB	0e4H
	DB	020H
	DB	0e3H
	DB	018H
	DB	0e3H
	DB	018H
	DB	0e4H
	DB	020H
	DB	0e3H
	DB	018H
	DB	0e3H
	DB	018H
	DB	0e4H
	DB	020H
	DB	0e3H
	DB	018H
	DB	0e3H
	DB	018H
	DB	0e4H
	DB	020H
	DB	0e3H
	DB	018H
	DB	0e3H
	DB	018H
	DB	0e4H
	DB	020H
	DB	0e3H
	DB	018H
	DB	0e3H
	DB	018H
	DB	0e4H
	DB	020H
	DB	0e3H
	DB	018H
	DB	0e3H
	DB	018H
	DB	0e4H
	DB	020H
	DB	0e3H
	DB	018H
	DB	0e3H
	DB	018H
	DB	0e4H
	DB	020H
	DB	0e3H
	DB	018H
	DB	0e3H
	DB	018H
	DB	0e4H
	DB	020H
	DB	0e3H
	DB	018H
	DB	0e3H
	DB	018H
	DB	0e4H
	DB	020H
	DB	0e3H
	DB	018H
	DB	0e3H
	DB	018H
	DB	0e4H
	DB	020H
	DB	0e3H
	DB	018H
	DB	0e3H
	DB	018H
	DB	0e4H
	DB	020H
	DB	0e3H
	DB	018H
	DB	0e3H
	DB	018H
	DB	0e4H
	DB	020H
	DB	0e3H
	DB	018H
	DB	0e3H
	DB	018H
	DB	0e4H
	DB	020H
	DB	0e3H
	DB	018H
	DB	0e3H
	DB	018H
	DB	0e4H
	DB	020H
	DB	0e3H
	DB	018H
	DB	0e3H
	DB	018H
	DB	0e4H
	DB	020H
	DB	0e3H
	DB	018H
	DB	0e3H
	DB	018H
	DB	0e4H
	DB	020H
	DB	0e3H
	DB	018H
	DB	0e3H
	DB	018H
	DB	0e4H
	DB	020H
	DB	0e3H
	DB	018H
	DB	0e3H
	DB	018H
	DB	0e4H
	DB	020H
	DB	0e3H
	DB	018H
	DB	0e3H
	DB	018H
	DB	0e4H
	DB	020H
	DB	0e3H
	DB	018H
	DB	0e3H
	DB	018H
	DB	0e4H
	DB	020H
	DB	0e3H
	DB	018H
	DB	0e3H
	DB	018H
	DB	0e4H
	DB	020H
	DB	0e3H
	DB	018H
	DB	0e3H
	DB	018H
	DB	0e4H
	DB	020H
	DB	0e3H
	DB	018H
	DB	0e3H
	DB	018H
	DB	0e4H
	DB	020H
	DB	0e3H
	DB	018H
	DB	0e3H
	DB	018H
	DB	0e4H
	DB	020H
	DB	0e3H
	DB	018H
	DB	0e3H
	DB	018H
	DB	0e4H
	DB	020H
	DB	0e3H
	DB	018H
	DB	0e3H
	DB	018H
	DB	0e4H
	DB	020H
	DB	0e3H
	DB	018H
	DB	0e3H
	DB	018H
	DB	0e4H
	DB	020H
	DB	0e3H
	DB	018H
	DB	0e3H
	DB	018H
	DB	0e4H
	DB	020H
	DB	0e3H
	DB	018H
	DB	0e3H
	DB	018H
	DB	0e4H
	DB	020H
	DB	0e3H
	DB	018H
	DB	0e3H
	DB	018H
	DB	0e4H
	DB	020H
	DB	0e3H
	DB	018H
	DB	0e3H
	DB	018H
	DB	0e4H
	DB	020H
	DB	0e3H
	DB	018H
	DB	0e3H
	DB	018H
	DB	0e4H
	DB	020H
	DB	0e3H
	DB	018H
	DB	0e3H
	DB	018H
	DB	0e4H
	DB	020H
	DB	0e3H
	DB	018H
	DB	0e3H
	DB	018H
	DB	0e4H
	DB	020H
	DB	0e3H
	DB	018H
	DB	0e3H
	DB	018H
	DB	0e4H
	DB	020H
	DB	0e3H
	DB	018H
	DB	0e3H
	DB	018H
	DB	0e4H
	DB	020H
	DB	0e3H
	DB	018H
	DB	0e3H
	DB	018H
	DB	0e4H
	DB	020H
	DB	0e3H
	DB	018H
	DB	0e3H
	DB	018H
	DB	0e4H
	DB	020H
	DB	0e3H
	DB	018H
	DB	0e3H
	DB	018H
	DB	0e4H
	DB	020H
	DB	0e3H
	DB	018H
	DB	0e3H
	DB	018H
	DB	0e4H
	DB	020H
	DB	0e3H
	DB	018H
	DB	0e3H
	DB	018H
	DB	0e4H
	DB	020H
	DB	0e3H
	DB	018H
	DB	0e3H
	DB	018H
	DB	0e4H
	DB	020H
	DB	0e3H
	DB	018H
	DB	0e3H
	DB	018H
	DB	0e4H
	DB	020H
	DB	0e3H
	DB	018H
	DB	0e3H
	DB	018H
	DB	0e4H
	DB	020H
	DB	0e3H
	DB	018H
	DB	0e3H
	DB	018H
	DB	0e4H
	DB	020H
	DB	0e3H
	DB	018H
	DB	0e3H
	DB	018H
	DB	0e4H
	DB	020H
	DB	0e3H
	DB	018H
	DB	0e3H
	DB	018H
	DB	0e4H
	DB	020H
	DB	0e3H
	DB	018H
	DB	0e3H
	DB	018H
	DB	0e4H
	DB	020H
	DB	0e3H
	DB	018H
	DB	0e3H
	DB	018H
	DB	0e4H
	DB	020H
	DB	0e3H
	DB	018H
	DB	0e3H
	DB	018H
	DB	0e4H
	DB	020H
	DB	0e3H
	DB	018H
	DB	0e3H
	DB	018H
	DB	0e4H
	DB	020H
	DB	0e3H
	DB	018H
	DB	0e3H
	DB	018H
	DB	0e4H
	DB	020H
	DB	0e3H
	DB	018H
	DB	0e3H
	DB	018H
	DB	0e4H
	DB	020H
	DB	0e3H
	DB	018H
	DB	0e3H
	DB	018H
	DB	0e4H
	DB	020H
	DB	0e3H
	DB	018H
	DB	0e3H
	DB	018H
	DB	0e4H
	DB	020H
	DB	0e3H
	DB	018H
	DB	0e3H
	DB	018H
	DB	0e4H
	DB	020H
	DB	0e3H
	DB	018H
	DB	0e3H
	DB	018H
	DB	0e4H
	DB	020H
	DB	0e3H
	DB	018H
	DB	0e3H
	DB	018H
	DB	0e4H
	DB	020H
	DB	0e3H
	DB	018H
	DB	0e3H
	DB	018H
	DB	0e4H
	DB	020H
	DB	0e3H
	DB	018H
	DB	0e3H
	DB	018H
	DB	0e4H
	DB	020H
	DB	0e3H
	DB	018H
	DB	0e3H
	DB	018H
	DB	0e4H
	DB	020H
	DB	0e3H
	DB	018H
	DB	0e3H
	DB	018H
	DB	0e4H
	DB	020H
	DB	0e3H
	DB	018H
	DB	0e3H
	DB	018H
	DB	0e4H
	DB	020H
	DB	0e3H
	DB	018H
	DB	0e3H
	DB	018H
	DB	0e4H
	DB	020H
	DB	0e3H
	DB	018H
	DB	0e3H
	DB	018H
	DB	0e3H
	DB	018H
	DB	0e3H
	DB	018H
	DB	0e4H
	DB	020H
	DB	0e3H
	DB	018H
	DB	0e3H
	DB	018H
	DB	0e3H
	DB	018H
	DB	0e3H
	DB	018H
	DB	0e4H
	DB	020H
	DB	0e3H
	DB	018H
	DB	0e4H
	DB	020H
	DB	0e3H
	DB	018H
	DB	0e4H
	DB	020H
	DB	0e4H
	DB	020H
	DB	0e4H
	DB	020H
	DB	0e4H
	DB	020H
	DB	0e4H
	DB	020H
	DB	03H
	DB	019H
	DB	0e4H
	DB	020H
	DB	0e4H
	DB	020H
	DB	04H
	DB	021H
	DB	0e4H
	DB	020H
	DB	0e4H
	DB	020H
	DB	0e4H
	DB	020H
	DB	0e4H
	DB	020H
	DB	04H
	DB	021H
	DB	0e4H
	DB	020H
	DB	0e4H
	DB	020H
	DB	04H
	DB	021H
	DB	0e4H
	DB	020H
	DB	0e4H
	DB	020H
	DB	0e4H
	DB	020H
	DB	0e4H
	DB	020H
	DB	04H
	DB	021H
	DB	0e4H
	DB	020H
	DB	0e4H
	DB	020H
	DB	04H
	DB	021H
	DB	0e4H
	DB	020H
	DB	0e4H
	DB	020H
	DB	04H
	DB	021H
	DB	0e4H
	DB	020H
	DB	0e4H
	DB	020H
	DB	04H
	DB	021H
	DB	0e4H
	DB	020H
	DB	0e4H
	DB	020H
	DB	04H
	DB	021H
	DB	0e4H
	DB	020H
	DB	0e3H
	DB	018H
	DB	0e4H
	DB	020H
	DB	0e4H
	DB	020H
	DB	0e4H
	DB	020H
	DB	0e4H
	DB	020H
	DB	0e4H
	DB	020H
	DB	0e4H
	DB	020H
	DB	0e3H
	DB	018H
	DB	04H
	DB	021H
	DB	0e4H
	DB	020H
	DB	0e4H
	DB	020H
	DB	04H
	DB	021H
	DB	0e4H
	DB	020H
	DB	0e4H
	DB	020H
	DB	04H
	DB	021H
	DB	0e4H
	DB	020H
	DB	0e4H
	DB	020H
	DB	0e4H
	DB	020H
	DB	0e4H
	DB	020H
	DB	0e4H
	DB	020H
	DB	0e4H
	DB	020H
	DB	0e3H
	DB	018H
	DB	0e4H
	DB	020H
	DB	04H
	DB	021H
	DB	0e4H
	DB	020H
	DB	0e4H
	DB	020H
	DB	04H
	DB	021H
	DB	0e4H
	DB	020H
	DB	0e3H
	DB	018H
	DB	04H
	DB	021H
	DB	0e4H
	DB	020H
	DB	0e4H
	DB	020H
	DB	0e4H
	DB	020H
	DB	0e4H
	DB	020H
	DB	0e4H
	DB	020H
	DB	0e4H
	DB	020H
	DB	0e4H
	DB	020H
	DB	0e4H
	DB	020H
	DB	04H
	DB	021H
	DB	0e4H
	DB	020H
	DB	0e4H
	DB	020H
	DB	04H
	DB	021H
	DB	0e3H
	DB	018H
	DB	0e4H
	DB	020H
	DB	04H
	DB	021H
	DB	0e4H
	DB	020H
	DB	0e4H
	DB	020H
	DB	0e4H
	DB	020H
	DB	0e4H
	DB	020H
	DB	0e3H
	DB	018H
	DB	0e4H
	DB	020H
	DB	0e4H
	DB	020H
	DB	0e4H
	DB	020H
	DB	04H
	DB	021H
	DB	0e4H
	DB	020H
	DB	0e4H
	DB	020H
	DB	04H
	DB	021H
	DB	0e4H
	DB	020H
	DB	0e4H
	DB	020H
	DB	04H
	DB	021H
	DB	0e4H
	DB	020H
	DB	0e4H
	DB	020H
	DB	0e4H
	DB	020H
	DB	0e3H
	DB	018H
	DB	0e4H
	DB	020H
	DB	0e4H
	DB	020H
	DB	0e4H
	DB	020H
	DB	0e4H
	DB	020H
	DB	04H
	DB	021H
	DB	0e4H
	DB	020H
	DB	0e3H
	DB	018H
	DB	04H
	DB	021H
	DB	0e4H
	DB	020H
	DB	0e4H
	DB	020H
	DB	04H
	DB	021H
	DB	0e4H
	DB	020H
	DB	0e4H
	DB	020H
	DB	0e4H
	DB	020H
	DB	0e4H
	DB	020H
	DB	0e4H
	DB	020H
	DB	0e4H
	DB	020H
	DB	0e4H
	DB	020H
	DB	0e4H
	DB	020H
	DB	04H
	DB	021H
	DB	0e3H
	DB	018H
	DB	0e4H
	DB	020H
	DB	04H
	DB	021H
	DB	0e4H
	DB	020H
	DB	0e4H
	DB	020H
	DB	04H
	DB	021H
	DB	0e4H
	DB	020H
	DB	0e3H
	DB	018H
	DB	0e4H
	DB	020H
	DB	0e4H
	DB	020H
	DB	0e4H
	DB	020H
	DB	0e4H
	DB	020H
	DB	0e4H
	DB	020H
	DB	0e4H
	DB	020H
	DB	04H
	DB	021H
	DB	0e4H
	DB	020H
	DB	0e4H
	DB	020H
	DB	04H
	DB	021H
	DB	0e4H
	DB	020H
	DB	0e4H
	DB	020H
	DB	04H
	DB	021H
	DB	0e3H
	DB	018H
	DB	0e4H
	DB	020H
	DB	0e4H
	DB	020H
	DB	0e4H
	DB	020H
	DB	0e4H
	DB	020H
	DB	0e4H
	DB	020H
	DB	0e4H
	DB	020H
	DB	0e3H
	DB	018H
	DB	04H
	DB	021H
	DB	0e4H
	DB	020H
	DB	0e4H
	DB	020H
	DB	04H
	DB	021H
	DB	0e4H
	DB	020H
	DB	0e4H
	DB	020H
	DB	04H
	DB	021H
	DB	0e4H
	DB	020H
	DB	0e4H
	DB	020H
	DB	0e4H
	DB	020H
	DB	0e4H
	DB	020H
	DB	0e4H
	DB	020H
	DB	0e4H
	DB	020H
	DB	0e3H
	DB	018H
	DB	0e4H
	DB	020H
	DB	04H
	DB	021H
	DB	0e4H
	DB	020H
	DB	0e4H
	DB	020H
	DB	04H
	DB	021H
	DB	0e4H
	DB	020H
	DB	0e3H
	DB	018H
	DB	04H
	DB	021H
	DB	0e4H
	DB	020H
	DB	0e4H
	DB	020H
	DB	0e4H
	DB	020H
	DB	0e4H
	DB	020H
	DB	0e4H
	DB	020H
	DB	0e4H
	DB	020H
	DB	0e4H
	DB	020H
	DB	0e4H
	DB	020H
	DB	04H
	DB	021H
	DB	0e4H
	DB	020H
	DB	0e4H
	DB	020H
	DB	04H
	DB	021H
	DB	0e3H
	DB	018H
	DB	0e4H
	DB	020H
	DB	04H
	DB	021H
	DB	0e4H
	DB	020H
	DB	0e4H
	DB	020H
	DB	0e4H
	DB	020H
	DB	0e4H
	DB	020H
	DB	0e3H
	DB	018H
	DB	0e4H
	DB	020H
	DB	0e4H
	DB	020H
	DB	0e4H
	DB	020H
	DB	04H
	DB	021H
	DB	0e4H
	DB	020H
	DB	0e4H
	DB	020H
	DB	04H
	DB	021H
	DB	0e4H
	DB	020H
	DB	0e4H
	DB	020H
	DB	04H
	DB	021H
	DB	0e4H
	DB	020H
	DB	0e4H
	DB	020H
	DB	0e4H
	DB	020H
	DB	0e3H
	DB	018H
	DB	0e4H
	DB	020H
	DB	0e4H
	DB	020H
	DB	0e4H
	DB	020H
	DB	0e4H
	DB	020H
	DB	04H
	DB	021H
	DB	0e4H
	DB	020H
	DB	0e3H
	DB	018H
	DB	04H
	DB	021H
	DB	0e4H
	DB	020H
	DB	0e4H
	DB	020H
	DB	04H
	DB	021H
	DB	0e4H
	DB	020H
	DB	0e4H
	DB	020H
	DB	0e4H
	DB	020H
	DB	0e4H
	DB	020H
	DB	0e4H
	DB	020H
	DB	0e4H
	DB	020H
	DB	0e4H
	DB	020H
	DB	0e4H
	DB	020H
	DB	04H
	DB	021H
	DB	0e3H
	DB	018H
	DB	0e4H
	DB	020H
	DB	04H
	DB	021H
	DB	0e4H
	DB	020H
	DB	0e4H
	DB	020H
	DB	04H
	DB	021H
	DB	0e4H
	DB	020H
	DB	0e3H
	DB	018H
	DB	0e4H
	DB	020H
	DB	0e4H
	DB	020H
	DB	0e4H
	DB	020H
	DB	0e4H
	DB	020H
	DB	0e4H
	DB	020H
	DB	0e4H
	DB	020H
	DB	04H
	DB	021H
	DB	0e4H
	DB	020H
	DB	0e4H
	DB	020H
	DB	04H
	DB	021H
	DB	0e4H
	DB	020H
	DB	0e4H
	DB	020H
	DB	04H
	DB	021H
	DB	0e3H
	DB	018H
	DB	0e4H
	DB	020H
	DB	0e4H
	DB	020H
	DB	0e4H
	DB	020H
	DB	0e4H
	DB	020H
	DB	0e4H
	DB	020H
	DB	0e4H
	DB	020H
	DB	0e3H
	DB	018H
	DB	04H
	DB	021H
	DB	0e4H
	DB	020H
	DB	0e4H
	DB	020H
	DB	04H
	DB	021H
	DB	0e4H
	DB	020H
	DB	0e4H
	DB	020H
	DB	04H
	DB	021H
	DB	0e4H
	DB	020H
	DB	0e4H
	DB	020H
	DB	0e4H
	DB	020H
	DB	0e4H
	DB	020H
	DB	0e4H
	DB	020H
	DB	0e4H
	DB	020H
	DB	0e3H
	DB	018H
	DB	0e4H
	DB	020H
	DB	04H
	DB	021H
	DB	0e4H
	DB	020H
	DB	0e4H
	DB	020H
	DB	04H
	DB	021H
	DB	0e4H
	DB	020H
	DB	0e3H
	DB	018H
	DB	04H
	DB	021H
	DB	0e4H
	DB	020H
	DB	0e4H
	DB	020H
	DB	0e4H
	DB	020H
	DB	0e4H
	DB	020H
	DB	0e4H
	DB	020H
	DB	0e4H
	DB	020H
	DB	0e4H
	DB	020H
	DB	0e4H
	DB	020H
	DB	04H
	DB	021H
	DB	0e4H
	DB	020H
	DB	0e4H
	DB	020H
	DB	04H
	DB	021H
	DB	0e3H
	DB	018H
	DB	0e4H
	DB	020H
	DB	04H
	DB	021H
	DB	0e4H
	DB	020H
	DB	0e4H
	DB	020H
	DB	0e4H
	DB	020H
	DB	0e4H
	DB	020H
	DB	0e3H
	DB	018H
	DB	0e4H
	DB	020H
	DB	0e4H
	DB	020H
	DB	0e4H
	DB	020H
	DB	04H
	DB	021H
	DB	0e4H
	DB	020H
	DB	0e4H
	DB	020H
	DB	04H
	DB	021H
	DB	0e4H
	DB	020H
	DB	0e4H
	DB	020H
	DB	04H
	DB	021H
	DB	0e4H
	DB	020H
	DB	0e4H
	DB	020H
	DB	0e4H
	DB	020H
	DB	0e3H
	DB	018H
	DB	0e4H
	DB	020H
	DB	0e4H
	DB	020H
	DB	0e4H
	DB	020H
	DB	0e4H
	DB	020H
	DB	04H
	DB	021H
	DB	0e4H
	DB	020H
	DB	0e3H
	DB	018H
	DB	04H
	DB	021H
	DB	0e4H
	DB	020H
	DB	0e4H
	DB	020H
	DB	04H
	DB	021H
	DB	0e4H
	DB	020H
	DB	0e4H
	DB	020H
	DB	0e4H
	DB	020H
	DB	0e4H
	DB	020H
	DB	0e4H
	DB	020H
	DB	0e4H
	DB	020H
	DB	0e4H
	DB	020H
	DB	0e4H
	DB	020H
	DB	04H
	DB	021H
	DB	0e3H
	DB	018H
	DB	0e4H
	DB	020H
	DB	04H
	DB	021H
	DB	0e4H
	DB	020H
	DB	0e4H
	DB	020H
	DB	04H
	DB	021H
	DB	0e4H
	DB	020H
	DB	0e3H
	DB	018H
	DB	0e4H
	DB	020H
	DB	0e4H
	DB	020H
	DB	0e4H
	DB	020H
	DB	0e4H
	DB	020H
	DB	0e4H
	DB	020H
	DB	0e4H
	DB	020H
	DB	04H
	DB	021H
	DB	0e4H
	DB	020H
	DB	0e4H
	DB	020H
	DB	04H
	DB	021H
	DB	0e4H
	DB	020H
	DB	0e4H
	DB	020H
	DB	04H
	DB	021H
	DB	0e3H
	DB	018H
	DB	0e4H
	DB	020H
	DB	0e4H
	DB	020H
	DB	0e4H
	DB	020H
	DB	0e4H
	DB	020H
	DB	0e4H
	DB	020H
	DB	0e4H
	DB	020H
	DB	0e3H
	DB	018H
	DB	04H
	DB	021H
	DB	0e4H
	DB	020H
	DB	0e4H
	DB	020H
	DB	04H
	DB	021H
	DB	0e4H
	DB	020H
	DB	0e4H
	DB	020H
	DB	04H
	DB	021H
	DB	0e4H
	DB	020H
	DB	0e4H
	DB	020H
	DB	0e4H
	DB	020H
	DB	0e4H
	DB	020H
	DB	0e4H
	DB	020H
	DB	0e4H
	DB	020H
	DB	0e3H
	DB	018H
	DB	0e4H
	DB	020H
	DB	04H
	DB	021H
	DB	0e4H
	DB	020H
	DB	0e4H
	DB	020H
	DB	04H
	DB	021H
	DB	0e4H
	DB	020H
	DB	0e3H
	DB	018H
	DB	04H
	DB	021H
	DB	0e4H
	DB	020H
	DB	0e4H
	DB	020H
	DB	0e4H
	DB	020H
	DB	0e4H
	DB	020H
	DB	0e4H
	DB	020H
	DB	0e4H
	DB	020H
	DB	0e4H
	DB	020H
	DB	0e4H
	DB	020H
	DB	04H
	DB	021H
	DB	0e4H
	DB	020H
	DB	0e4H
	DB	020H
	DB	04H
	DB	021H
	DB	0e3H
	DB	018H
	DB	0e4H
	DB	020H
	DB	04H
	DB	021H
	DB	0e4H
	DB	020H
	DB	0e4H
	DB	020H
	DB	0e4H
	DB	020H
	DB	0e4H
	DB	020H
	DB	0e3H
	DB	018H
	DB	0e4H
	DB	020H
	DB	0e4H
	DB	020H
	DB	0e4H
	DB	020H
	DB	04H
	DB	021H
	DB	0e4H
	DB	020H
	DB	0e4H
	DB	020H
	DB	04H
	DB	021H
	DB	0e4H
	DB	020H
	DB	0e4H
	DB	020H
	DB	04H
	DB	021H
	DB	0e4H
	DB	020H
	DB	0e4H
	DB	020H
	DB	0e4H
	DB	020H
	DB	0e3H
	DB	018H
	DB	0e4H
	DB	020H
	DB	0e4H
	DB	020H
	DB	0e4H
	DB	020H
	DB	0e4H
	DB	020H
	DB	04H
	DB	021H
	DB	0e4H
	DB	020H
	DB	0e3H
	DB	018H
	DB	04H
	DB	021H
	DB	0e4H
	DB	020H
	DB	0e4H
	DB	020H
	DB	04H
	DB	021H
	DB	0e4H
	DB	020H
	DB	0e4H
	DB	020H
	DB	0e4H
	DB	020H
	DB	0e4H
	DB	020H
	DB	0e4H
	DB	020H
	DB	0e4H
	DB	020H
	DB	0e4H
	DB	020H
	DB	0e4H
	DB	020H
	DB	04H
	DB	021H
	DB	0e3H
	DB	018H
	DB	0e4H
	DB	020H
	DB	04H
	DB	021H
	DB	0e4H
	DB	020H
	DB	0e4H
	DB	020H
	DB	04H
	DB	021H
	DB	0e4H
	DB	020H
	DB	0e3H
	DB	018H
	DB	0e4H
	DB	020H
	DB	0e4H
	DB	020H
	DB	0e4H
	DB	020H
	DB	0e4H
	DB	020H
	DB	0e4H
	DB	020H
	DB	0e4H
	DB	020H
	DB	04H
	DB	021H
	DB	0e4H
	DB	020H
	DB	0e4H
	DB	020H
	DB	04H
	DB	021H
	DB	0e4H
	DB	020H
	DB	0e4H
	DB	020H
	DB	04H
	DB	021H
	DB	0e3H
	DB	018H
	DB	0e4H
	DB	020H
	DB	0e4H
	DB	020H
	DB	0e4H
	DB	020H
	DB	0e4H
	DB	020H
	DB	0e4H
	DB	020H
	DB	0e4H
	DB	020H
	DB	0e3H
	DB	018H
	DB	04H
	DB	021H
	DB	0e4H
	DB	020H
	DB	0e4H
	DB	020H
	DB	04H
	DB	021H
	DB	0e4H
	DB	020H
	DB	0e4H
	DB	020H
	DB	04H
	DB	021H
	DB	0e4H
	DB	020H
	DB	0e3H
	DB	018H
	DB	04H
	DB	021H
	DB	0e4H
	DB	020H
	DB	0e4H
	DB	020H
	DB	04H
	DB	021H
	DB	0e3H
	DB	018H
	DB	0e4H
	DB	020H
	DB	04H
	DB	021H
	DB	0e3H
	DB	018H
	DB	0e4H
	DB	020H
	DB	0e3H
	DB	018H
	DB	0e4H
	DB	020H
	DB	03H
	DB	019H
	DB	0e4H
	DB	020H
	DB	0e4H
	DB	020H
	DB	03H
	DB	019H
	DB	0e3H
	DB	018H
	DB	0e3H
	DB	018H
	DB	0e4H
	DB	020H
	DB	03H
	DB	019H
	DB	0e3H
	DB	018H
	DB	0e4H
	DB	020H
	DB	03H
	DB	019H
	DB	0e3H
	DB	018H
	DB	0e4H
	DB	020H
	DB	0e3H
	DB	018H
	DB	03H
	DB	019H
	DB	0e4H
	DB	020H
	DB	0e3H
	DB	018H
	DB	03H
	DB	019H
	DB	0e4H
	DB	020H
	DB	0e3H
	DB	018H
	DB	0e3H
	DB	018H
	DB	04H
	DB	021H
	DB	0e3H
	DB	018H
	DB	0e3H
	DB	018H
	DB	0e4H
	DB	020H
	DB	0e3H
	DB	018H
	DB	03H
	DB	019H
	DB	0e4H
	DB	020H
	DB	0e3H
	DB	018H
	DB	0e3H
	DB	018H
	DB	04H
	DB	021H
	DB	0e4H
	DB	020H
	DB	0e3H
	DB	018H
	DB	04H
	DB	021H
	DB	0e4H
	DB	020H
	DB	03H
	DB	019H
	DB	0e3H
	DB	018H
	DB	04H
	DB	021H
	DB	0e4H
	DB	020H
	DB	0e3H
	DB	018H
	DB	04H
	DB	021H
	DB	0e4H
	DB	020H
	DB	0e3H
	DB	018H
	DB	03H
	DB	019H
	DB	0e4H
	DB	020H
	DB	0e3H
	DB	018H
	DB	0e3H
	DB	018H
	DB	0e4H
	DB	020H
	DB	03H
	DB	019H
	DB	0e3H
	DB	018H
	DB	04H
	DB	021H
	DB	0e3H
	DB	018H
	DB	04H
	DB	021H
	DB	0e4H
	DB	020H
	DB	0e3H
	DB	018H
	DB	04H
	DB	021H
	DB	0e3H
	DB	018H
	DB	0e3H
	DB	018H
	DB	04H
	DB	021H
	DB	0e4H
	DB	020H
	DB	0e4H
	DB	020H
	DB	0e3H
	DB	018H
	DB	0e4H
	DB	020H
	DB	03H
	DB	019H
	DB	0e3H
	DB	018H
	DB	04H
	DB	021H
	DB	0e3H
	DB	018H
	DB	03H
	DB	019H
	DB	0e4H
	DB	020H
	DB	0e3H
	DB	018H
	DB	03H
	DB	019H
	DB	0e4H
	DB	020H
	DB	0e3H
	DB	018H
	DB	04H
	DB	021H
	DB	0e4H
	DB	020H
	DB	0e3H
	DB	018H
	DB	0e4H
	DB	020H
	DB	0e3H
	DB	018H
	DB	03H
	DB	019H
	DB	0e4H
	DB	020H
	DB	04H
	DB	021H
	DB	0e4H
	DB	020H
	DB	03H
	DB	019H
	DB	0e4H
	DB	020H
	DB	0e3H
	DB	018H
	DB	03H
	DB	019H
	DB	0e4H
	DB	020H
	DB	0e3H
	DB	018H
	DB	03H
	DB	019H
	DB	0e4H
	DB	020H
	DB	0e3H
	DB	018H
	DB	0e3H
	DB	018H
	DB	0e4H
	DB	020H
	DB	03H
	DB	019H
	DB	0e4H
	DB	020H
	DB	04H
	DB	021H
	DB	0e3H
	DB	018H
	DB	04H
	DB	021H
	DB	0e3H
	DB	018H
	DB	0e3H
	DB	018H
	DB	04H
	DB	021H
	DB	0e4H
	DB	020H
	DB	0e4H
	DB	020H
	DB	03H
	DB	019H
	DB	0e4H
	DB	020H
	DB	0e3H
	DB	018H
	DB	0e3H
	DB	018H
	DB	0e4H
	DB	020H
	DB	03H
	DB	019H
	DB	0e3H
	DB	018H
	DB	04H
	DB	021H
	DB	0e3H
	DB	018H
	DB	03H
	DB	019H
	DB	0e4H
	DB	020H
	DB	0e3H
	DB	018H
	DB	04H
	DB	021H
	DB	0e4H
	DB	020H
	DB	0e3H
	DB	018H
	DB	04H
	DB	021H
	DB	0e3H
	DB	018H
	DB	0e3H
	DB	018H
	DB	0e4H
	DB	020H
	DB	0e4H
	DB	020H
	DB	04H
	DB	021H
	DB	0e3H
	DB	018H
	DB	04H
	DB	021H
	DB	0e3H
	DB	018H
	DB	03H
	DB	019H
	DB	0e4H
	DB	020H
	DB	0e3H
	DB	018H
	DB	03H
	DB	019H
	DB	0e4H
	DB	020H
	DB	0e3H
	DB	018H
	DB	03H
	DB	019H
	DB	0e4H
	DB	020H
	DB	0e3H
	DB	018H
	DB	0e4H
	DB	020H
	DB	0e4H
	DB	020H
	DB	03H
	DB	019H
	DB	0e4H
	DB	020H
	DB	03H
	DB	019H
	DB	0e3H
	DB	018H
	DB	04H
	DB	021H
	DB	0e4H
	DB	020H
	DB	0e4H
	DB	020H
	DB	03H
	DB	019H
	DB	0e4H
	DB	020H
	DB	0e3H
	DB	018H
	DB	03H
	DB	019H
	DB	0e4H
	DB	020H
	DB	0e3H
	DB	018H
	DB	0e3H
	DB	018H
	DB	0e4H
	DB	020H
	DB	03H
	DB	019H
	DB	0e3H
	DB	018H
	DB	04H
	DB	021H
	DB	0e3H
	DB	018H
	DB	04H
	DB	021H
	DB	0e4H
	DB	020H
	DB	0e3H
	DB	018H
	DB	04H
	DB	021H
	DB	0e3H
	DB	018H
	DB	0e3H
	DB	018H
	DB	04H
	DB	021H
	DB	0e4H
	DB	020H
	DB	0e4H
	DB	020H
	DB	0e3H
	DB	018H
	DB	0e4H
	DB	020H
	DB	03H
	DB	019H
	DB	0e3H
	DB	018H
	DB	04H
	DB	021H
	DB	0e3H
	DB	018H
	DB	03H
	DB	019H
	DB	0e4H
	DB	020H
	DB	0e3H
	DB	018H
	DB	03H
	DB	019H
	DB	0e4H
	DB	020H
	DB	0e3H
	DB	018H
	DB	04H
	DB	021H
	DB	0e4H
	DB	020H
	DB	0e3H
	DB	018H
	DB	0e4H
	DB	020H
	DB	0e3H
	DB	018H
	DB	03H
	DB	019H
	DB	0e4H
	DB	020H
	DB	04H
	DB	021H
	DB	0e4H
	DB	020H
	DB	03H
	DB	019H
	DB	0e4H
	DB	020H
	DB	0e3H
	DB	018H
	DB	03H
	DB	019H
	DB	0e4H
	DB	020H
	DB	0e3H
	DB	018H
	DB	03H
	DB	019H
	DB	0e4H
	DB	020H
	DB	0e3H
	DB	018H
	DB	0e3H
	DB	018H
	DB	0e4H
	DB	020H
	DB	03H
	DB	019H
	DB	0e4H
	DB	020H
	DB	04H
	DB	021H
	DB	0e3H
	DB	018H
	DB	04H
	DB	021H
	DB	0e3H
	DB	018H
	DB	0e3H
	DB	018H
	DB	04H
	DB	021H
	DB	0e4H
	DB	020H
	DB	0e4H
	DB	020H
	DB	03H
	DB	019H
	DB	0e4H
	DB	020H
	DB	0e3H
	DB	018H
	DB	0e3H
	DB	018H
	DB	0e4H
	DB	020H
	DB	03H
	DB	019H
	DB	0e3H
	DB	018H
	DB	04H
	DB	021H
	DB	0e3H
	DB	018H
	DB	03H
	DB	019H
	DB	0e4H
	DB	020H
	DB	0e3H
	DB	018H
	DB	04H
	DB	021H
	DB	0e4H
	DB	020H
	DB	0e3H
	DB	018H
	DB	04H
	DB	021H
	DB	0e3H
	DB	018H
	DB	0e3H
	DB	018H
	DB	0e4H
	DB	020H
	DB	0e4H
	DB	020H
	DB	04H
	DB	021H
	DB	0e3H
	DB	018H
	DB	04H
	DB	021H
	DB	0e3H
	DB	018H
	DB	03H
	DB	019H
	DB	0e4H
	DB	020H
	DB	0e3H
	DB	018H
	DB	03H
	DB	019H
	DB	0e4H
	DB	020H
	DB	0e3H
	DB	018H
	DB	03H
	DB	019H
	DB	0e4H
	DB	020H
	DB	0e3H
	DB	018H
	DB	0e4H
	DB	020H
	DB	0e4H
	DB	020H
	DB	03H
	DB	019H
	DB	0e4H
	DB	020H
	DB	03H
	DB	019H
	DB	0e3H
	DB	018H
	DB	04H
	DB	021H
	DB	0e4H
	DB	020H
	DB	0e4H
	DB	020H
	DB	03H
	DB	019H
	DB	0e4H
	DB	020H
	DB	0e3H
	DB	018H
	DB	03H
	DB	019H
	DB	0e4H
	DB	020H
	DB	0e3H
	DB	018H
	DB	0e3H
	DB	018H
	DB	0e4H
	DB	020H
	DB	03H
	DB	019H
	DB	0e3H
	DB	018H
	DB	04H
	DB	021H
	DB	0e3H
	DB	018H
	DB	04H
	DB	021H
	DB	0e4H
	DB	020H
	DB	0e3H
	DB	018H
	DB	04H
	DB	021H
	DB	0e3H
	DB	018H
	DB	0e3H
	DB	018H
	DB	04H
	DB	021H
	DB	0e4H
	DB	020H
	DB	0e4H
	DB	020H
	DB	0e3H
	DB	018H
	DB	0e4H
	DB	020H
	DB	03H
	DB	019H
	DB	0e3H
	DB	018H
	DB	04H
	DB	021H
	DB	0e3H
	DB	018H
	DB	03H
	DB	019H
	DB	0e4H
	DB	020H
	DB	0e3H
	DB	018H
	DB	03H
	DB	019H
	DB	0e4H
	DB	020H
	DB	0e3H
	DB	018H
	DB	04H
	DB	021H
	DB	0e4H
	DB	020H
	DB	0e3H
	DB	018H
	DB	0e4H
	DB	020H
	DB	0e3H
	DB	018H
	DB	03H
	DB	019H
	DB	0e4H
	DB	020H
	DB	04H
	DB	021H
	DB	0e4H
	DB	020H
	DB	03H
	DB	019H
	DB	0e4H
	DB	020H
	DB	0e3H
	DB	018H
	DB	03H
	DB	019H
	DB	0e4H
	DB	020H
	DB	0e3H
	DB	018H
	DB	03H
	DB	019H
	DB	0e4H
	DB	020H
	DB	0e3H
	DB	018H
	DB	0e3H
	DB	018H
	DB	0e4H
	DB	020H
	DB	03H
	DB	019H
	DB	0e4H
	DB	020H
	DB	04H
	DB	021H
	DB	0e3H
	DB	018H
	DB	04H
	DB	021H
	DB	0e3H
	DB	018H
	DB	0e3H
	DB	018H
	DB	04H
	DB	021H
	DB	0e4H
	DB	020H
	DB	0e4H
	DB	020H
	DB	03H
	DB	019H
	DB	0e4H
	DB	020H
	DB	0e3H
	DB	018H
	DB	0e3H
	DB	018H
	DB	0e4H
	DB	020H
	DB	03H
	DB	019H
	DB	0e3H
	DB	018H
	DB	04H
	DB	021H
	DB	0e3H
	DB	018H
	DB	03H
	DB	019H
	DB	0e4H
	DB	020H
	DB	0e3H
	DB	018H
	DB	04H
	DB	021H
	DB	0e4H
	DB	020H
	DB	0e3H
	DB	018H
	DB	04H
	DB	021H
	DB	0e3H
	DB	018H
	DB	0e3H
	DB	018H
	DB	0e4H
	DB	020H
	DB	0e4H
	DB	020H
	DB	04H
	DB	021H
	DB	0e3H
	DB	018H
	DB	04H
	DB	021H
	DB	0e3H
	DB	018H
	DB	03H
	DB	019H
	DB	0e4H
	DB	020H
	DB	0e3H
	DB	018H
	DB	03H
	DB	019H
	DB	0e4H
	DB	020H
	DB	0e3H
	DB	018H
	DB	03H
	DB	019H
	DB	0e4H
	DB	020H
	DB	0e3H
	DB	018H
	DB	0e4H
	DB	020H
	DB	0e4H
	DB	020H
	DB	03H
	DB	019H
	DB	0e4H
	DB	020H
	DB	03H
	DB	019H
	DB	0e3H
	DB	018H
	DB	04H
	DB	021H
	DB	0e4H
	DB	020H
	DB	0e4H
	DB	020H
	DB	03H
	DB	019H
	DB	0e4H
	DB	020H
	DB	0e3H
	DB	018H
	DB	03H
	DB	019H
	DB	0e4H
	DB	020H
	DB	0e3H
	DB	018H
	DB	0e3H
	DB	018H
	DB	0e4H
	DB	020H
	DB	03H
	DB	019H
	DB	0e3H
	DB	018H
	DB	04H
	DB	021H
	DB	0e3H
	DB	018H
	DB	04H
	DB	021H
	DB	0e4H
	DB	020H
	DB	0e3H
	DB	018H
	DB	04H
	DB	021H
	DB	0e3H
	DB	018H
	DB	0e3H
	DB	018H
	DB	04H
	DB	021H
	DB	0e4H
	DB	020H
	DB	0e4H
	DB	020H
	DB	0e3H
	DB	018H
	DB	0e4H
	DB	020H
	DB	03H
	DB	019H
	DB	0e3H
	DB	018H
	DB	04H
	DB	021H
	DB	0e3H
	DB	018H
	DB	03H
	DB	019H
	DB	0e4H
	DB	020H
	DB	0e3H
	DB	018H
	DB	03H
	DB	019H
	DB	0e4H
	DB	020H
	DB	0e3H
	DB	018H
	DB	04H
	DB	021H
	DB	0e4H
	DB	020H
	DB	0e3H
	DB	018H
	DB	0e4H
	DB	020H
	DB	0e3H
	DB	018H
	DB	03H
	DB	019H
	DB	0e4H
	DB	020H
	DB	04H
	DB	021H
	DB	0e4H
	DB	020H
	DB	03H
	DB	019H
	DB	0e4H
	DB	020H
	DB	0e3H
	DB	018H
	DB	03H
	DB	019H
	DB	0e4H
	DB	020H
	DB	0e3H
	DB	018H
	DB	03H
	DB	019H
	DB	0e4H
	DB	020H
	DB	0e3H
	DB	018H
	DB	0e3H
	DB	018H
	DB	0e4H
	DB	020H
	DB	03H
	DB	019H
	DB	0e4H
	DB	020H
	DB	04H
	DB	021H
	DB	0e3H
	DB	018H
	DB	04H
	DB	021H
	DB	0e3H
	DB	018H
	DB	0e3H
	DB	018H
	DB	04H
	DB	021H
	DB	0e4H
	DB	020H
	DB	0e4H
	DB	020H
	DB	03H
	DB	019H
	DB	0e4H
	DB	020H
	DB	0e3H
	DB	018H
	DB	0e3H
	DB	018H
	DB	0e4H
	DB	020H
	DB	03H
	DB	019H
	DB	0e3H
	DB	018H
	DB	04H
	DB	021H
	DB	0e3H
	DB	018H
	DB	03H
	DB	019H
	DB	0e4H
	DB	020H
	DB	0e3H
	DB	018H
	DB	04H
	DB	021H
	DB	0e4H
	DB	020H
	DB	0e3H
	DB	018H
	DB	04H
	DB	021H
	DB	0e3H
	DB	018H
	DB	0e3H
	DB	018H
	DB	0e4H
	DB	020H
	DB	0e4H
	DB	020H
	DB	04H
	DB	021H
	DB	0e3H
	DB	018H
	DB	04H
	DB	021H
	DB	0e3H
	DB	018H
	DB	03H
	DB	019H
	DB	0e4H
	DB	020H
	DB	0e3H
	DB	018H
	DB	03H
	DB	019H
	DB	0e4H
	DB	020H
	DB	0e3H
	DB	018H
	DB	03H
	DB	019H
	DB	0e4H
	DB	020H
	DB	0e3H
	DB	018H
	DB	0e4H
	DB	020H
	DB	0e4H
	DB	020H
	DB	03H
	DB	019H
	DB	0e4H
	DB	020H
	DB	03H
	DB	019H
	DB	0e3H
	DB	018H
	DB	04H
	DB	021H
	DB	0e4H
	DB	020H
	DB	0e4H
	DB	020H
	DB	03H
	DB	019H
	DB	0e4H
	DB	020H
	DB	0e3H
	DB	018H
	DB	03H
	DB	019H
	DB	0e4H
	DB	020H
	DB	0e4H
	DB	020H
	DB	03H
	DB	019H
	DB	0e4H
	DB	020H
	DB	0e4H
	DB	020H
	DB	03H
	DB	019H
	DB	0e4H
	DB	020H
	DB	0e4H
	DB	020H
	DB	03H
	DB	019H
	DB	0e4H
	DB	020H
	DB	0e4H
	DB	020H
	DB	03H
	DB	019H
	DB	0e4H
	DB	020H
	DB	0e4H
	DB	020H
	DB	0e3H
	DB	018H
	DB	0e3H
	DB	018H
	DB	0e3H
	DB	018H
	DB	0e3H
	DB	018H
	DB	0e4H
	DB	020H
	DB	0e3H
	DB	018H
	DB	0e4H
	DB	020H
	DB	0e3H
	DB	018H
	DB	0e3H
	DB	018H
	DB	0e4H
	DB	020H
	DB	0e3H
	DB	018H
	DB	0e3H
	DB	018H
	DB	0e4H
	DB	020H
	DB	0e3H
	DB	018H
	DB	0e3H
	DB	018H
	DB	0e4H
	DB	020H
	DB	0e3H
	DB	018H
	DB	0e3H
	DB	018H
	DB	0e4H
	DB	020H
	DB	0e3H
	DB	018H
	DB	0e3H
	DB	018H
	DB	0e4H
	DB	020H
	DB	0e3H
	DB	018H
	DB	0e3H
	DB	018H
	DB	0e4H
	DB	020H
	DB	0e3H
	DB	018H
	DB	0e3H
	DB	018H
	DB	0e4H
	DB	020H
	DB	0e3H
	DB	018H
	DB	0e3H
	DB	018H
	DB	0e4H
	DB	020H
	DB	0e3H
	DB	018H
	DB	0e3H
	DB	018H
	DB	0e3H
	DB	018H
	DB	0e4H
	DB	020H
	DB	0e3H
	DB	018H
	DB	0e3H
	DB	018H
	DB	0e3H
	DB	018H
	DB	0e4H
	DB	020H
	DB	0e3H
	DB	018H
	DB	0e3H
	DB	018H
	DB	0e4H
	DB	020H
	DB	0e3H
	DB	018H
	DB	0e3H
	DB	018H
	DB	0e3H
	DB	018H
	DB	0e4H
	DB	020H
	DB	0e3H
	DB	018H
	DB	0e3H
	DB	018H
	DB	0e4H
	DB	020H
	DB	0e3H
	DB	018H
	DB	0e3H
	DB	018H
	DB	0e4H
	DB	020H
	DB	0e3H
	DB	018H
	DB	0e3H
	DB	018H
	DB	0e3H
	DB	018H
	DB	0e4H
	DB	020H
	DB	0e3H
	DB	018H
	DB	0e3H
	DB	018H
	DB	0e4H
	DB	020H
	DB	0e3H
	DB	018H
	DB	0e3H
	DB	018H
	DB	0e3H
	DB	018H
	DB	0e3H
	DB	018H
	DB	0e4H
	DB	020H
	DB	0e3H
	DB	018H
	DB	0e3H
	DB	018H
	DB	0e4H
	DB	020H
	DB	0e3H
	DB	018H
	DB	0e3H
	DB	018H
	DB	0e4H
	DB	020H
	DB	0e3H
	DB	018H
	DB	0e3H
	DB	018H
	DB	0e4H
	DB	020H
	DB	0e3H
	DB	018H
	DB	0e3H
	DB	018H
	DB	0e3H
	DB	018H
	DB	0e4H
	DB	020H
	DB	0e3H
	DB	018H
	DB	0e3H
	DB	018H
	DB	0e4H
	DB	020H
	DB	0e3H
	DB	018H
	DB	0e3H
	DB	018H
	DB	0e3H
	DB	018H
	DB	0e3H
	DB	018H
	DB	0e4H
	DB	020H
	DB	0e3H
	DB	018H
	DB	0e3H
	DB	018H
	DB	0e4H
	DB	020H
	DB	0e3H
	DB	018H
	DB	0e3H
	DB	018H
	DB	0e4H
	DB	020H
	DB	0e3H
	DB	018H
	DB	0e3H
	DB	018H
	DB	0e4H
	DB	020H
	DB	0e3H
	DB	018H
	DB	0e3H
	DB	018H
	DB	0e3H
	DB	018H
	DB	0e4H
	DB	020H
	DB	0e3H
	DB	018H
	DB	0e3H
	DB	018H
	DB	0e4H
	DB	020H
	DB	0e3H
	DB	018H
	DB	0e3H
	DB	018H
	DB	0e3H
	DB	018H
	DB	0e3H
	DB	018H
	DB	0e4H
	DB	020H
	DB	0e3H
	DB	018H
	DB	0e3H
	DB	018H
	DB	0e4H
	DB	020H
	DB	0e3H
	DB	018H
	DB	0e3H
	DB	018H
	DB	0e4H
	DB	020H
	DB	0e3H
	DB	018H
	DB	0e3H
	DB	018H
	DB	0e4H
	DB	020H
	DB	0e3H
	DB	018H
	DB	0e3H
	DB	018H
	DB	0e3H
	DB	018H
	DB	0e4H
	DB	020H
	DB	0e3H
	DB	018H
	DB	0e3H
	DB	018H
	DB	0e4H
	DB	020H
	DB	0e3H
	DB	018H
	DB	0e3H
	DB	018H
	DB	0e3H
	DB	018H
	DB	0e3H
	DB	018H
	DB	0e4H
	DB	020H
	DB	0e3H
	DB	018H
	DB	0e3H
	DB	018H
	DB	0e4H
	DB	020H
	DB	0e3H
	DB	018H
	DB	0e3H
	DB	018H
	DB	0e4H
	DB	020H
	DB	0e3H
	DB	018H
	DB	0e3H
	DB	018H
	DB	0e4H
	DB	020H
	DB	0e3H
	DB	018H
	DB	0e3H
	DB	018H
	DB	0e3H
	DB	018H
	DB	0e4H
	DB	020H
	DB	0e3H
	DB	018H
	DB	0e3H
	DB	018H
	DB	0e4H
	DB	020H
	DB	0e3H
	DB	018H
	DB	0e3H
	DB	018H
	DB	0e3H
	DB	018H
	DB	0e3H
	DB	018H
	DB	0e4H
	DB	020H
	DB	0e3H
	DB	018H
	DB	0e3H
	DB	018H
	DB	0e4H
	DB	020H
	DB	0e3H
	DB	018H
	DB	0e3H
	DB	018H
	DB	0e4H
	DB	020H
	DB	0e3H
	DB	018H
	DB	0e3H
	DB	018H
	DB	0e4H
	DB	020H
	DB	0e3H
	DB	018H
	DB	0e3H
	DB	018H
	DB	0e3H
	DB	018H
	DB	0e4H
	DB	020H
	DB	0e3H
	DB	018H
	DB	0e3H
	DB	018H
	DB	0e4H
	DB	020H
	DB	0e3H
	DB	018H
	DB	0e3H
	DB	018H
	DB	0e3H
	DB	018H
	DB	0e3H
	DB	018H
	DB	0e4H
	DB	020H
	DB	0e3H
	DB	018H
	DB	0e3H
	DB	018H
	DB	0e4H
	DB	020H
	DB	0e3H
	DB	018H
	DB	0e3H
	DB	018H
	DB	0e4H
	DB	020H
	DB	0e3H
	DB	018H
	DB	0e3H
	DB	018H
	DB	0e4H
	DB	020H
	DB	0e3H
	DB	018H
	DB	0e3H
	DB	018H
	DB	0e3H
	DB	018H
	DB	0e4H
	DB	020H
	DB	0e3H
	DB	018H
	DB	0e3H
	DB	018H
	DB	0e4H
	DB	020H
	DB	0e3H
	DB	018H
	DB	0e3H
	DB	018H
	DB	0e3H
	DB	018H
	DB	0e3H
	DB	018H
	DB	0e4H
	DB	020H
	DB	0e3H
	DB	018H
	DB	0e3H
	DB	018H
	DB	0e4H
	DB	020H
	DB	0e3H
	DB	018H
	DB	0e3H
	DB	018H
	DB	0e4H
	DB	020H
	DB	0e3H
	DB	018H
	DB	0e3H
	DB	018H
	DB	0e4H
	DB	020H
	DB	0e3H
	DB	018H
	DB	0e3H
	DB	018H
	DB	0e3H
	DB	018H
	DB	0e4H
	DB	020H
	DB	0e3H
	DB	018H
	DB	0e3H
	DB	018H
	DB	0e4H
	DB	020H
	DB	0e3H
	DB	018H
	DB	0e3H
	DB	018H
	DB	0e3H
	DB	018H
	DB	0e3H
	DB	018H
	DB	0e4H
	DB	020H
	DB	0e3H
	DB	018H
	DB	0e3H
	DB	018H
	DB	0e4H
	DB	020H
	DB	0e3H
	DB	018H
	DB	0e3H
	DB	018H
	DB	0e4H
	DB	020H
	DB	0e3H
	DB	018H
	DB	0e3H
	DB	018H
	DB	0e4H
	DB	020H
	DB	0e3H
	DB	018H
	DB	0e3H
	DB	018H
	DB	0e3H
	DB	018H
	DB	0e4H
	DB	020H
	DB	0e3H
	DB	018H
	DB	0e3H
	DB	018H
	DB	0e4H
	DB	020H
	DB	0e3H
	DB	018H
	DB	0e3H
	DB	018H
	DB	0e3H
	DB	018H
	DB	0e3H
	DB	018H
	DB	0e4H
	DB	020H
	DB	0e3H
	DB	018H
	DB	0e3H
	DB	018H
	DB	0e4H
	DB	020H
	DB	0e3H
	DB	018H
	DB	0e3H
	DB	018H
	DB	0e4H
	DB	020H
	DB	0e3H
	DB	018H
	DB	0e3H
	DB	018H
	DB	0e4H
	DB	020H
	DB	0e3H
	DB	018H
	DB	0e3H
	DB	018H
	DB	0e3H
	DB	018H
	DB	0e4H
	DB	020H
	DB	0e3H
	DB	018H
	DB	0e3H
	DB	018H
	DB	0e4H
	DB	020H
	DB	0e3H
	DB	018H
	DB	0e3H
	DB	018H
	DB	0e3H
	DB	018H
	DB	0e3H
	DB	018H
	DB	0e4H
	DB	020H
	DB	0e3H
	DB	018H
	DB	0e3H
	DB	018H
	DB	0e4H
	DB	020H
	DB	0e3H
	DB	018H
	DB	0e3H
	DB	018H
	DB	0e4H
	DB	020H
	DB	0e3H
	DB	018H
	DB	0e3H
	DB	018H
	DB	0e4H
	DB	020H
	DB	0e3H
	DB	018H
	DB	0e3H
	DB	018H
	DB	0e3H
	DB	018H
	DB	0e4H
	DB	020H
	DB	0e3H
	DB	018H
	DB	0e3H
	DB	018H
	DB	0e4H
	DB	020H
	DB	0e3H
	DB	018H
	DB	0e3H
	DB	018H
	DB	0e3H
	DB	018H
	DB	0e3H
	DB	018H
	DB	0e4H
	DB	020H
	DB	0e3H
	DB	018H
	DB	0e3H
	DB	018H
	DB	0e4H
	DB	020H
	DB	0e3H
	DB	018H
	DB	0e3H
	DB	018H
	DB	0e4H
	DB	020H
	DB	0e3H
	DB	018H
	DB	0e3H
	DB	018H
	DB	0e4H
	DB	020H
	DB	0e3H
	DB	018H
	DB	0e3H
	DB	018H
	DB	0e3H
	DB	018H
	DB	0e4H
	DB	020H
	DB	0e3H
	DB	018H
	DB	0e3H
	DB	018H
	DB	0e4H
	DB	020H
	DB	0e3H
	DB	018H
	DB	0e3H
	DB	018H
	DB	0e3H
	DB	018H
	DB	0e3H
	DB	018H
	DB	0e4H
	DB	020H
	DB	0e3H
	DB	018H
	DB	0e3H
	DB	018H
	DB	0e4H
	DB	020H
	DB	0e3H
	DB	018H
	DB	0e3H
	DB	018H
	DB	0e4H
	DB	020H
	DB	0e3H
	DB	018H
	DB	0e3H
	DB	018H
	DB	0e4H
	DB	020H
	DB	0e3H
	DB	018H
	DB	0e3H
	DB	018H
	DB	0e3H
	DB	018H
	DB	0e4H
	DB	020H
	DB	0e3H
	DB	018H
	DB	0e3H
	DB	018H
	DB	0e4H
	DB	020H
	DB	0e3H
	DB	018H
	DB	0e3H
	DB	018H
	DB	0e3H
	DB	018H
	DB	0e3H
	DB	018H
	DB	0e4H
	DB	020H
	DB	0e3H
	DB	018H
	DB	0e3H
	DB	018H
	DB	0e4H
	DB	020H
	DB	0e3H
	DB	018H
	DB	0e3H
	DB	018H
	DB	0e4H
	DB	020H
	DB	0e3H
	DB	018H
	DB	0e3H
	DB	018H
	DB	0e4H
	DB	020H
	DB	0e3H
	DB	018H
	DB	0e3H
	DB	018H
	DB	0e3H
	DB	018H
	DB	0e4H
	DB	020H
	DB	0e3H
	DB	018H
	DB	0e3H
	DB	018H
	DB	0e4H
	DB	020H
	DB	0e3H
	DB	018H
	DB	0e3H
	DB	018H
	DB	0e3H
	DB	018H
	DB	0e3H
	DB	018H
	DB	0e4H
	DB	020H
	DB	0e3H
	DB	018H
	DB	0e3H
	DB	018H
	DB	0e4H
	DB	020H
	DB	0e3H
	DB	018H
	DB	0e3H
	DB	018H
	DB	0e4H
	DB	020H
	DB	0e3H
	DB	018H
	DB	0e3H
	DB	018H
	DB	0e4H
	DB	020H
	DB	0e3H
	DB	018H
	DB	0e3H
	DB	018H
	DB	0e3H
	DB	018H
	DB	0e4H
	DB	020H
	DB	0e3H
	DB	018H
	DB	0e3H
	DB	018H
	DB	0e4H
	DB	020H
	DB	0e3H
	DB	018H
	DB	0e3H
	DB	018H
	DB	0e3H
	DB	018H
	DB	0e3H
	DB	018H
	DB	0e4H
	DB	020H
	DB	0e3H
	DB	018H
	DB	0e3H
	DB	018H
	DB	0e4H
	DB	020H
	DB	0e3H
	DB	018H
	DB	0e3H
	DB	018H
	DB	0e4H
	DB	020H
	DB	0e3H
	DB	018H
	DB	0e3H
	DB	018H
	DB	0e4H
	DB	020H
	DB	0e3H
	DB	018H
	DB	0e3H
	DB	018H
	DB	0e3H
	DB	018H
	DB	0e4H
	DB	020H
	DB	0e3H
	DB	018H
	DB	0e3H
	DB	018H
	DB	0e4H
	DB	020H
	DB	0e3H
	DB	018H
	DB	0e3H
	DB	018H
	DB	0e3H
	DB	018H
	DB	0e3H
	DB	018H
	DB	0e4H
	DB	020H
	DB	0e3H
	DB	018H
	DB	0e3H
	DB	018H
	DB	0e4H
	DB	020H
	DB	0e3H
	DB	018H
	DB	0e3H
	DB	018H
	DB	0e4H
	DB	020H
	DB	0e3H
	DB	018H
	DB	0e3H
	DB	018H
	DB	0e4H
	DB	020H
	DB	0e3H
	DB	018H
	DB	0e3H
	DB	018H
	DB	0e3H
	DB	018H
	DB	0e4H
	DB	020H
	DB	0e3H
	DB	018H
	DB	0e3H
	DB	018H
	DB	0e4H
	DB	020H
	DB	0e3H
	DB	018H
	DB	0e3H
	DB	018H
	DB	0e3H
	DB	018H
	DB	0e3H
	DB	018H
	DB	0e4H
	DB	020H
	DB	0e3H
	DB	018H
	DB	0e3H
	DB	018H
	DB	0e4H
	DB	020H
	DB	0e3H
	DB	018H
	DB	0e3H
	DB	018H
	DB	0e4H
	DB	020H
	DB	0e3H
	DB	018H
	DB	0e3H
	DB	018H
	DB	0e4H
	DB	020H
	DB	0e3H
	DB	018H
	DB	0e3H
	DB	018H
	DB	0e3H
	DB	018H
	DB	0e4H
	DB	020H
	DB	0e3H
	DB	018H
	DB	0e3H
	DB	018H
	DB	0e4H
	DB	020H
	DB	0e3H
	DB	018H
	DB	0e3H
	DB	018H
	DB	0e3H
	DB	018H
	DB	0e3H
	DB	018H
	DB	0e4H
	DB	020H
	DB	0e3H
	DB	018H
	DB	0e3H
	DB	018H
	DB	0e4H
	DB	020H
	DB	0e3H
	DB	018H
	DB	0e3H
	DB	018H
	DB	0e4H
	DB	020H
	DB	0e3H
	DB	018H
	DB	0e3H
	DB	018H
	DB	0e4H
	DB	020H
	DB	0e3H
	DB	018H
	DB	0e3H
	DB	018H
	DB	0e3H
	DB	018H
	DB	0e4H
	DB	020H
	DB	0e3H
	DB	018H
	DB	0e3H
	DB	018H
	DB	0e4H
	DB	020H
	DB	0e3H
	DB	018H
	DB	0e3H
	DB	018H
	DB	0e3H
	DB	018H
	DB	0e3H
	DB	018H
	DB	0e4H
	DB	020H
	DB	0e3H
	DB	018H
	DB	0e3H
	DB	018H
	DB	0e4H
	DB	020H
	DB	0e3H
	DB	018H
	DB	0e3H
	DB	018H
	DB	0e4H
	DB	020H
	DB	0e3H
	DB	018H
	DB	0e3H
	DB	018H
	DB	0e4H
	DB	020H
	DB	0e3H
	DB	018H
	DB	0e3H
	DB	018H
	DB	0e3H
	DB	018H
	DB	0e4H
	DB	020H
	DB	0e3H
	DB	018H
	DB	0e3H
	DB	018H
	DB	0e4H
	DB	020H
	DB	0e3H
	DB	018H
	DB	0e3H
	DB	018H
	DB	0e3H
	DB	018H
	DB	0e3H
	DB	018H
	DB	0e4H
	DB	020H
	DB	0e3H
	DB	018H
	DB	0e3H
	DB	018H
	DB	0e4H
	DB	020H
	DB	0e3H
	DB	018H
	DB	0e3H
	DB	018H
	DB	0e3H
	DB	018H
	DB	0e3H
	DB	018H
	DB	0e4H
	DB	020H
	DB	0e3H
	DB	018H
	DB	0e3H
	DB	018H
	DB	0e3H
	DB	018H
	DB	0e3H
	DB	018H
	DB	0e4H
	DB	020H
	DB	0e3H
	DB	018H
	DB	0e3H
	DB	018H
	DB	0e4H
	DB	020H
	DB	0e3H
	DB	018H
	DB	0e4H
	DB	020H
	DB	0e4H
	DB	020H
	DB	0e4H
	DB	020H
	DB	0e3H
	DB	018H
	DB	0e4H
	DB	020H
	DB	0e4H
	DB	020H
	DB	0e3H
	DB	018H
	DB	0e4H
	DB	020H
	DB	0e4H
	DB	020H
	DB	0e4H
	DB	020H
	DB	0e4H
	DB	020H
	DB	0e3H
	DB	018H
	DB	0e4H
	DB	020H
	DB	0e4H
	DB	020H
	DB	0e4H
	DB	020H
	DB	0e4H
	DB	020H
	DB	0e4H
	DB	020H
	DB	0e3H
	DB	018H
	DB	0e4H
	DB	020H
	DB	0e4H
	DB	020H
	DB	0e4H
	DB	020H
	DB	0e4H
	DB	020H
	DB	0e3H
	DB	018H
	DB	0e4H
	DB	020H
	DB	0e4H
	DB	020H
	DB	0e4H
	DB	020H
	DB	0e3H
	DB	018H
	DB	0e4H
	DB	020H
	DB	0e4H
	DB	020H
	DB	0e3H
	DB	018H
	DB	0e4H
	DB	020H
	DB	0e4H
	DB	020H
	DB	0e3H
	DB	018H
	DB	0e4H
	DB	020H
	DB	0e4H
	DB	020H
	DB	0e3H
	DB	018H
	DB	0e4H
	DB	020H
	DB	0e4H
	DB	020H
	DB	0e3H
	DB	018H
	DB	0e4H
	DB	020H
	DB	0e3H
	DB	018H
	DB	0e4H
	DB	020H
	DB	0e4H
	DB	020H
	DB	0e3H
	DB	018H
	DB	0e4H
	DB	020H
	DB	0e4H
	DB	020H
	DB	0e4H
	DB	020H
	DB	0e3H
	DB	018H
	DB	0e4H
	DB	020H
	DB	0e4H
	DB	020H
	DB	0e4H
	DB	020H
	DB	0e4H
	DB	020H
	DB	0e3H
	DB	018H
	DB	0e4H
	DB	020H
	DB	0e4H
	DB	020H
	DB	0e3H
	DB	018H
	DB	0e4H
	DB	020H
	DB	0e4H
	DB	020H
	DB	0e4H
	DB	020H
	DB	0e4H
	DB	020H
	DB	0e3H
	DB	018H
	DB	0e4H
	DB	020H
	DB	0e4H
	DB	020H
	DB	0e3H
	DB	018H
	DB	0e4H
	DB	020H
	DB	0e4H
	DB	020H
	DB	0e4H
	DB	020H
	DB	0e3H
	DB	018H
	DB	0e4H
	DB	020H
	DB	0e4H
	DB	020H
	DB	0e3H
	DB	018H
	DB	0e4H
	DB	020H
	DB	0e4H
	DB	020H
	DB	0e4H
	DB	020H
	DB	0e3H
	DB	018H
	DB	0e4H
	DB	020H
	DB	0e4H
	DB	020H
	DB	0e3H
	DB	018H
	DB	0e4H
	DB	020H
	DB	0e4H
	DB	020H
	DB	0e4H
	DB	020H
	DB	0e3H
	DB	018H
	DB	0e4H
	DB	020H
	DB	0e4H
	DB	020H
	DB	0e3H
	DB	018H
	DB	0e4H
	DB	020H
	DB	0e4H
	DB	020H
	DB	0e4H
	DB	020H
	DB	0e3H
	DB	018H
	DB	0e4H
	DB	020H
	DB	0e4H
	DB	020H
	DB	0e3H
	DB	018H
	DB	0e4H
	DB	020H
	DB	0e4H
	DB	020H
	DB	0e4H
	DB	020H
	DB	0e3H
	DB	018H
	DB	0e4H
	DB	020H
	DB	0e4H
	DB	020H
	DB	0e3H
	DB	018H
	DB	0e4H
	DB	020H
	DB	0e4H
	DB	020H
	DB	0e4H
	DB	020H
	DB	0e3H
	DB	018H
	DB	0e4H
	DB	020H
	DB	0e4H
	DB	020H
	DB	0e3H
	DB	018H
	DB	0e4H
	DB	020H
	DB	0e4H
	DB	020H
	DB	0e4H
	DB	020H
	DB	0e3H
	DB	018H
	DB	0e4H
	DB	020H
	DB	0e4H
	DB	020H
	DB	0e3H
	DB	018H
	DB	0e4H
	DB	020H
	DB	0e4H
	DB	020H
	DB	0e4H
	DB	020H
	DB	0e3H
	DB	018H
	DB	0e4H
	DB	020H
	DB	0e4H
	DB	020H
	DB	0e3H
	DB	018H
	DB	0e4H
	DB	020H
	DB	0e4H
	DB	020H
	DB	0e4H
	DB	020H
	DB	0e3H
	DB	018H
	DB	0e4H
	DB	020H
	DB	0e4H
	DB	020H
	DB	0e3H
	DB	018H
	DB	0e4H
	DB	020H
	DB	0e4H
	DB	020H
	DB	0e4H
	DB	020H
	DB	0e3H
	DB	018H
	DB	0e4H
	DB	020H
	DB	0e4H
	DB	020H
	DB	0e3H
	DB	018H
	DB	0e4H
	DB	020H
	DB	0e4H
	DB	020H
	DB	0e4H
	DB	020H
	DB	0e3H
	DB	018H
	DB	0e4H
	DB	020H
	DB	0e4H
	DB	020H
	DB	0e3H
	DB	018H
	DB	0e4H
	DB	020H
	DB	0e4H
	DB	020H
	DB	0e4H
	DB	020H
	DB	0e3H
	DB	018H
	DB	0e4H
	DB	020H
	DB	0e4H
	DB	020H
	DB	0e3H
	DB	018H
	DB	0e4H
	DB	020H
	DB	0e4H
	DB	020H
	DB	0e4H
	DB	020H
	DB	0e3H
	DB	018H
	DB	0e4H
	DB	020H
	DB	0e4H
	DB	020H
	DB	0e3H
	DB	018H
	DB	0e4H
	DB	020H
	DB	0e4H
	DB	020H
	DB	0e4H
	DB	020H
	DB	0e3H
	DB	018H
	DB	0e4H
	DB	020H
	DB	0e4H
	DB	020H
	DB	0e3H
	DB	018H
	DB	0e4H
	DB	020H
	DB	0e4H
	DB	020H
	DB	0e4H
	DB	020H
	DB	0e3H
	DB	018H
	DB	0e4H
	DB	020H
	DB	0e4H
	DB	020H
	DB	0e3H
	DB	018H
	DB	0e4H
	DB	020H
	DB	0e4H
	DB	020H
	DB	0e4H
	DB	020H
	DB	0e3H
	DB	018H
	DB	0e4H
	DB	020H
	DB	0e4H
	DB	020H
	DB	0e3H
	DB	018H
	DB	0e4H
	DB	020H
	DB	0e4H
	DB	020H
	DB	0e4H
	DB	020H
	DB	0e3H
	DB	018H
	DB	0e4H
	DB	020H
	DB	0e4H
	DB	020H
	DB	0e3H
	DB	018H
	DB	0e4H
	DB	020H
	DB	0e4H
	DB	020H
	DB	0e4H
	DB	020H
	DB	0e3H
	DB	018H
	DB	0e4H
	DB	020H
	DB	0e4H
	DB	020H
	DB	0e3H
	DB	018H
	DB	0e4H
	DB	020H
	DB	0e4H
	DB	020H
	DB	0e4H
	DB	020H
	DB	0e3H
	DB	018H
	DB	0e4H
	DB	020H
	DB	0e4H
	DB	020H
	DB	0e3H
	DB	018H
	DB	0e4H
	DB	020H
	DB	0e4H
	DB	020H
	DB	0e4H
	DB	020H
	DB	0e3H
	DB	018H
	DB	0e4H
	DB	020H
	DB	0e4H
	DB	020H
	DB	0e3H
	DB	018H
	DB	0e4H
	DB	020H
	DB	0e4H
	DB	020H
	DB	0e4H
	DB	020H
	DB	0e3H
	DB	018H
	DB	0e4H
	DB	020H
	DB	0e4H
	DB	020H
	DB	0e3H
	DB	018H
	DB	0e4H
	DB	020H
	DB	0e4H
	DB	020H
	DB	0e4H
	DB	020H
	DB	0e3H
	DB	018H
	DB	0e4H
	DB	020H
	DB	0e4H
	DB	020H
	DB	0e3H
	DB	018H
	DB	0e4H
	DB	020H
	DB	0e4H
	DB	020H
	DB	0e4H
	DB	020H
	DB	0e3H
	DB	018H
	DB	0e4H
	DB	020H
	DB	0e4H
	DB	020H
	DB	0e3H
	DB	018H
	DB	0e4H
	DB	020H
	DB	0e4H
	DB	020H
	DB	0e4H
	DB	020H
	DB	0e3H
	DB	018H
	DB	0e4H
	DB	020H
	DB	0e4H
	DB	020H
	DB	0e3H
	DB	018H
	DB	0e4H
	DB	020H
	DB	0e4H
	DB	020H
	DB	0e4H
	DB	020H
	DB	0e3H
	DB	018H
	DB	0e4H
	DB	020H
	DB	0e4H
	DB	020H
	DB	0e3H
	DB	018H
	DB	0e4H
	DB	020H
	DB	0e4H
	DB	020H
	DB	0e4H
	DB	020H
	DB	0e3H
	DB	018H
	DB	0e4H
	DB	020H
	DB	0e4H
	DB	020H
	DB	0e3H
	DB	018H
	DB	0e4H
	DB	020H
	DB	0e4H
	DB	020H
	DB	0e4H
	DB	020H
	DB	0e3H
	DB	018H
	DB	0e4H
	DB	020H
	DB	0e4H
	DB	020H
	DB	0e3H
	DB	018H
	DB	0e4H
	DB	020H
	DB	0e4H
	DB	020H
	DB	0e4H
	DB	020H
	DB	0e3H
	DB	018H
	DB	0e4H
	DB	020H
	DB	0e4H
	DB	020H
	DB	0e3H
	DB	018H
	DB	0e4H
	DB	020H
	DB	0e4H
	DB	020H
	DB	0e4H
	DB	020H
	DB	0e3H
	DB	018H
	DB	0e4H
	DB	020H
	DB	0e4H
	DB	020H
	DB	0e3H
	DB	018H
	DB	0e4H
	DB	020H
	DB	0e4H
	DB	020H
	DB	0e4H
	DB	020H
	DB	0e3H
	DB	018H
	DB	0e4H
	DB	020H
	DB	0e4H
	DB	020H
	DB	0e3H
	DB	018H
	DB	0e4H
	DB	020H
	DB	0e4H
	DB	020H
	DB	0e4H
	DB	020H
	DB	0e3H
	DB	018H
	DB	0e4H
	DB	020H
	DB	0e4H
	DB	020H
	DB	0e3H
	DB	018H
	DB	0e4H
	DB	020H
	DB	0e4H
	DB	020H
	DB	0e4H
	DB	020H
	DB	0e3H
	DB	018H
	DB	0e4H
	DB	020H
	DB	0e4H
	DB	020H
	DB	0e3H
	DB	018H
	DB	0e4H
	DB	020H
	DB	0e4H
	DB	020H
	DB	0e4H
	DB	020H
	DB	0e3H
	DB	018H
	DB	0e4H
	DB	020H
	DB	0e4H
	DB	020H
	DB	0e3H
	DB	018H
	DB	0e4H
	DB	020H
	DB	0e4H
	DB	020H
	DB	0e4H
	DB	020H
	DB	0e3H
	DB	018H
	DB	0e4H
	DB	020H
	DB	0e4H
	DB	020H
	DB	0e3H
	DB	018H
	DB	0e4H
	DB	020H
	DB	0e4H
	DB	020H
	DB	0e4H
	DB	020H
	DB	0e3H
	DB	018H
	DB	0e4H
	DB	020H
	DB	0e4H
	DB	020H
	DB	0e3H
	DB	018H
	DB	0e4H
	DB	020H
	DB	0e4H
	DB	020H
	DB	0e4H
	DB	020H
	DB	0e3H
	DB	018H
	DB	0e4H
	DB	020H
	DB	0e4H
	DB	020H
	DB	0e3H
	DB	018H
	DB	0e4H
	DB	020H
	DB	0e4H
	DB	020H
	DB	0e4H
	DB	020H
	DB	0e3H
	DB	018H
	DB	0e4H
	DB	020H
	DB	0e4H
	DB	020H
	DB	0e3H
	DB	018H
	DB	0e4H
	DB	020H
	DB	0e4H
	DB	020H
	DB	0e4H
	DB	020H
	DB	0e3H
	DB	018H
	DB	0e4H
	DB	020H
	DB	0e4H
	DB	020H
	DB	0e3H
	DB	018H
	DB	0e4H
	DB	020H
	DB	0e4H
	DB	020H
	DB	0e4H
	DB	020H
	DB	0e3H
	DB	018H
	DB	0e4H
	DB	020H
	DB	0e4H
	DB	020H
	DB	0e3H
	DB	018H
	DB	0e4H
	DB	020H
	DB	0e4H
	DB	020H
	DB	0e4H
	DB	020H
	DB	0e3H
	DB	018H
	DB	0e4H
	DB	020H
	DB	0e4H
	DB	020H
	DB	0e3H
	DB	018H
	DB	0e4H
	DB	020H
	DB	0e4H
	DB	020H
	DB	0e4H
	DB	020H
	DB	0e3H
	DB	018H
	DB	0e4H
	DB	020H
	DB	0e4H
	DB	020H
	DB	0e3H
	DB	018H
	DB	0e4H
	DB	020H
	DB	0e4H
	DB	020H
	DB	0e4H
	DB	020H
	DB	0e3H
	DB	018H
	DB	0e4H
	DB	020H
	DB	0e4H
	DB	020H
	DB	0e3H
	DB	018H
	DB	0e4H
	DB	020H
	DB	0e4H
	DB	020H
	DB	0e4H
	DB	020H
	DB	0e3H
	DB	018H
	DB	0e4H
	DB	020H
	DB	0e4H
	DB	020H
	DB	0e3H
	DB	018H
	DB	0e4H
	DB	020H
	DB	0e4H
	DB	020H
	DB	0e4H
	DB	020H
	DB	0e3H
	DB	018H
	DB	0e4H
	DB	020H
	DB	0e4H
	DB	020H
	DB	0e3H
	DB	018H
	DB	0e4H
	DB	020H
	DB	0e4H
	DB	020H
	DB	0e4H
	DB	020H
	DB	0e3H
	DB	018H
	DB	0e4H
	DB	020H
	DB	0e4H
	DB	020H
	DB	0e3H
	DB	018H
	DB	0e4H
	DB	020H
	DB	0e4H
	DB	020H
	DB	0e4H
	DB	020H
	DB	0e3H
	DB	018H
	DB	0e4H
	DB	020H
	DB	0e4H
	DB	020H
	DB	0e3H
	DB	018H
	DB	0e4H
	DB	020H
	DB	0e4H
	DB	020H
	DB	0e4H
	DB	020H
	DB	0e3H
	DB	018H
	DB	0e4H
	DB	020H
	DB	0e4H
	DB	020H
	DB	0e3H
	DB	018H
	DB	0e4H
	DB	020H
	DB	0e4H
	DB	020H
	DB	0e4H
	DB	020H
	DB	0e3H
	DB	018H
	DB	0e4H
	DB	020H
	DB	0e4H
	DB	020H
	DB	0e3H
	DB	018H
	DB	0e4H
	DB	020H
	DB	0e4H
	DB	020H
	DB	0e4H
	DB	020H
	DB	0e3H
	DB	018H
	DB	0e4H
	DB	020H
	DB	0e4H
	DB	020H
	DB	0e3H
	DB	018H
	DB	0e4H
	DB	020H
	DB	0e4H
	DB	020H
	DB	0e4H
	DB	020H
	DB	0e3H
	DB	018H
	DB	0e4H
	DB	020H
	DB	0e4H
	DB	020H
	DB	0e3H
	DB	018H
	DB	0e4H
	DB	020H
	DB	0e4H
	DB	020H
	DB	0e4H
	DB	020H
	DB	0e3H
	DB	018H
	DB	0e4H
	DB	020H
	DB	0e4H
	DB	020H
	DB	0e3H
	DB	018H
	DB	0e4H
	DB	020H
	DB	0e4H
	DB	020H
	DB	0e4H
	DB	020H
	DB	0e3H
	DB	018H
	DB	0e4H
	DB	020H
	DB	0e4H
	DB	020H
	DB	0e3H
	DB	018H
	DB	0e4H
	DB	020H
	DB	0e4H
	DB	020H
	DB	0e4H
	DB	020H
	DB	0e3H
	DB	018H
	DB	0e4H
	DB	020H
	DB	0e4H
	DB	020H
	DB	0e3H
	DB	018H
	DB	0e4H
	DB	020H
	DB	0e4H
	DB	020H
	DB	0e4H
	DB	020H
	DB	0e3H
	DB	018H
	DB	0e4H
	DB	020H
	DB	0e4H
	DB	020H
	DB	0e3H
	DB	018H
	DB	0e4H
	DB	020H
	DB	0e4H
	DB	020H
	DB	0e4H
	DB	020H
	DB	0e3H
	DB	018H
	DB	0e4H
	DB	020H
	DB	0e4H
	DB	020H
	DB	0e3H
	DB	018H
	DB	0e4H
	DB	020H
	DB	0e4H
	DB	020H
	DB	0e4H
	DB	020H
	DB	0e3H
	DB	018H
	DB	0e4H
	DB	020H
	DB	0e4H
	DB	020H
	DB	0e3H
	DB	018H
	DB	0e4H
	DB	020H
	DB	0e4H
	DB	020H
	DB	0e4H
	DB	020H
	DB	0e3H
	DB	018H
	DB	0e4H
	DB	020H
	DB	0e4H
	DB	020H
	DB	0e3H
	DB	018H
	DB	0e4H
	DB	020H
	DB	0e4H
	DB	020H
	DB	0e4H
	DB	020H
	DB	0e3H
	DB	018H
	DB	0e4H
	DB	020H
	DB	0e4H
	DB	020H
	DB	0e3H
	DB	018H
	DB	0e4H
	DB	020H
	DB	0e4H
	DB	020H
	DB	0e3H
	DB	018H
	DB	0e4H
	DB	020H
	DB	0e4H
	DB	020H
	DB	0e3H
	DB	018H
	DB	0e4H
	DB	020H
	DB	0e3H
	DB	018H
	DB	0e4H
	DB	020H
	DB	0e3H
	DB	018H
	DB	0e3H
	DB	018H
	DB	0e4H
	DB	020H
	DB	0e3H
	DB	018H
	DB	0e4H
	DB	020H
	DB	0e3H
	DB	018H
	DB	0e3H
	DB	018H
	DB	0e4H
	DB	020H
	DB	0e3H
	DB	018H
	DB	0e3H
	DB	018H
	DB	0e3H
	DB	018H
	DB	0e4H
	DB	020H
	DB	0e3H
	DB	018H
	DB	0e3H
	DB	018H
	DB	0e4H
	DB	020H
	DB	0e3H
	DB	018H
	DB	0e3H
	DB	018H
	DB	0e4H
	DB	020H
	DB	0e3H
	DB	018H
	DB	0e3H
	DB	018H
	DB	0e4H
	DB	020H
	DB	0e3H
	DB	018H
	DB	0e3H
	DB	018H
	DB	0e4H
	DB	020H
	DB	0e3H
	DB	018H
	DB	0e3H
	DB	018H
	DB	0e4H
	DB	020H
	DB	0e3H
	DB	018H
	DB	0e3H
	DB	018H
	DB	0e4H
	DB	020H
	DB	0e3H
	DB	018H
	DB	0e4H
	DB	020H
	DB	0e4H
	DB	020H
	DB	0e3H
	DB	018H
	DB	0e4H
	DB	020H
	DB	0e3H
	DB	018H
	DB	0e3H
	DB	018H
	DB	0e4H
	DB	020H
	DB	0e4H
	DB	020H
	DB	0e3H
	DB	018H
	DB	0e4H
	DB	020H
	DB	0e3H
	DB	018H
	DB	0e3H
	DB	018H
	DB	0e4H
	DB	020H
	DB	0e3H
	DB	018H
	DB	0e3H
	DB	018H
	DB	0e4H
	DB	020H
	DB	0e3H
	DB	018H
	DB	0e3H
	DB	018H
	DB	0e4H
	DB	020H
	DB	0e3H
	DB	018H
	DB	0e3H
	DB	018H
	DB	0e3H
	DB	018H
	DB	0e4H
	DB	020H
	DB	0e4H
	DB	020H
	DB	0e3H
	DB	018H
	DB	0e3H
	DB	018H
	DB	0e4H
	DB	020H
	DB	0e3H
	DB	018H
	DB	0e3H
	DB	018H
	DB	0e4H
	DB	020H
	DB	0e3H
	DB	018H
	DB	0e4H
	DB	020H
	DB	0e3H
	DB	018H
	DB	0e3H
	DB	018H
	DB	0e4H
	DB	020H
	DB	0e3H
	DB	018H
	DB	0e3H
	DB	018H
	DB	0e4H
	DB	020H
	DB	0e3H
	DB	018H
	DB	0e4H
	DB	020H
	DB	0e3H
	DB	018H
	DB	0e3H
	DB	018H
	DB	0e4H
	DB	020H
	DB	0e3H
	DB	018H
	DB	0e4H
	DB	020H
	DB	0e3H
	DB	018H
	DB	0e3H
	DB	018H
	DB	0e4H
	DB	020H
	DB	0e3H
	DB	018H
	DB	0e3H
	DB	018H
	DB	0e4H
	DB	020H
	DB	0e4H
	DB	020H
	DB	0e3H
	DB	018H
	DB	0e4H
	DB	020H
	DB	0e3H
	DB	018H
	DB	0e3H
	DB	018H
	DB	0e4H
	DB	020H
	DB	0e3H
	DB	018H
	DB	0e4H
	DB	020H
	DB	0e3H
	DB	018H
	DB	0e4H
	DB	020H
	DB	0e3H
	DB	018H
	DB	0e3H
	DB	018H
	DB	0e4H
	DB	020H
	DB	0e3H
	DB	018H
	DB	0e4H
	DB	020H
	DB	0e3H
	DB	018H
	DB	0e3H
	DB	018H
	DB	0e4H
	DB	020H
	DB	0e3H
	DB	018H
	DB	0e3H
	DB	018H
	DB	0e4H
	DB	020H
	DB	0e4H
	DB	020H
	DB	0e3H
	DB	018H
	DB	0e4H
	DB	020H
	DB	0e3H
	DB	018H
	DB	0e3H
	DB	018H
	DB	0e4H
	DB	020H
	DB	0e3H
	DB	018H
	DB	0e4H
	DB	020H
	DB	0e3H
	DB	018H
	DB	0e4H
	DB	020H
	DB	0e3H
	DB	018H
	DB	0e3H
	DB	018H
	DB	0e4H
	DB	020H
	DB	0e3H
	DB	018H
	DB	0e4H
	DB	020H
	DB	0e3H
	DB	018H
	DB	0e3H
	DB	018H
	DB	0e4H
	DB	020H
	DB	0e3H
	DB	018H
	DB	0e3H
	DB	018H
	DB	0e4H
	DB	020H
	DB	0e4H
	DB	020H
	DB	0e3H
	DB	018H
	DB	0e4H
	DB	020H
	DB	0e3H
	DB	018H
	DB	0e3H
	DB	018H
	DB	0e4H
	DB	020H
	DB	0e3H
	DB	018H
	DB	0e4H
	DB	020H
	DB	0e3H
	DB	018H
	DB	0e4H
	DB	020H
	DB	0e3H
	DB	018H
	DB	0e3H
	DB	018H
	DB	0e4H
	DB	020H
	DB	0e3H
	DB	018H
	DB	0e4H
	DB	020H
	DB	0e3H
	DB	018H
	DB	0e3H
	DB	018H
	DB	0e4H
	DB	020H
	DB	0e3H
	DB	018H
	DB	0e3H
	DB	018H
	DB	0e4H
	DB	020H
	DB	0e4H
	DB	020H
	DB	0e3H
	DB	018H
	DB	0e4H
	DB	020H
	DB	0e3H
	DB	018H
	DB	0e3H
	DB	018H
	DB	0e4H
	DB	020H
	DB	0e3H
	DB	018H
	DB	0e4H
	DB	020H
	DB	0e3H
	DB	018H
	DB	0e4H
	DB	020H
	DB	0e3H
	DB	018H
	DB	0e3H
	DB	018H
	DB	0e4H
	DB	020H
	DB	0e3H
	DB	018H
	DB	0e4H
	DB	020H
	DB	0e3H
	DB	018H
	DB	0e3H
	DB	018H
	DB	0e4H
	DB	020H
	DB	0e3H
	DB	018H
	DB	0e3H
	DB	018H
	DB	0e4H
	DB	020H
	DB	0e4H
	DB	020H
	DB	0e3H
	DB	018H
	DB	0e4H
	DB	020H
	DB	0e3H
	DB	018H
	DB	0e3H
	DB	018H
	DB	0e4H
	DB	020H
	DB	0e3H
	DB	018H
	DB	0e4H
	DB	020H
	DB	0e3H
	DB	018H
	DB	0e4H
	DB	020H
	DB	0e3H
	DB	018H
	DB	0e3H
	DB	018H
	DB	0e4H
	DB	020H
	DB	0e3H
	DB	018H
	DB	0e4H
	DB	020H
	DB	0e3H
	DB	018H
	DB	0e3H
	DB	018H
	DB	0e4H
	DB	020H
	DB	0e3H
	DB	018H
	DB	0e3H
	DB	018H
	DB	0e4H
	DB	020H
	DB	0e4H
	DB	020H
	DB	0e3H
	DB	018H
	DB	0e4H
	DB	020H
	DB	0e3H
	DB	018H
	DB	0e3H
	DB	018H
	DB	0e4H
	DB	020H
	DB	0e3H
	DB	018H
	DB	0e4H
	DB	020H
	DB	0e3H
	DB	018H
	DB	0e4H
	DB	020H
	DB	0e3H
	DB	018H
	DB	0e3H
	DB	018H
	DB	0e4H
	DB	020H
	DB	0e3H
	DB	018H
	DB	0e4H
	DB	020H
	DB	0e3H
	DB	018H
	DB	0e3H
	DB	018H
	DB	0e4H
	DB	020H
	DB	0e3H
	DB	018H
	DB	0e3H
	DB	018H
	DB	0e4H
	DB	020H
	DB	0e4H
	DB	020H
	DB	0e3H
	DB	018H
	DB	0e4H
	DB	020H
	DB	0e3H
	DB	018H
	DB	0e3H
	DB	018H
	DB	0e4H
	DB	020H
	DB	0e3H
	DB	018H
	DB	0e4H
	DB	020H
	DB	0e3H
	DB	018H
	DB	0e4H
	DB	020H
	DB	0e3H
	DB	018H
	DB	0e3H
	DB	018H
	DB	0e4H
	DB	020H
	DB	0e3H
	DB	018H
	DB	0e4H
	DB	020H
	DB	0e3H
	DB	018H
	DB	0e3H
	DB	018H
	DB	0e4H
	DB	020H
	DB	0e3H
	DB	018H
	DB	0e3H
	DB	018H
	DB	0e4H
	DB	020H
	DB	0e4H
	DB	020H
	DB	0e3H
	DB	018H
	DB	0e4H
	DB	020H
	DB	0e3H
	DB	018H
	DB	0e3H
	DB	018H
	DB	0e4H
	DB	020H
	DB	0e3H
	DB	018H
	DB	0e4H
	DB	020H
	DB	0e3H
	DB	018H
	DB	0e4H
	DB	020H
	DB	0e3H
	DB	018H
	DB	0e3H
	DB	018H
	DB	0e4H
	DB	020H
	DB	0e3H
	DB	018H
	DB	0e4H
	DB	020H
	DB	0e3H
	DB	018H
	DB	0e3H
	DB	018H
	DB	0e4H
	DB	020H
	DB	0e3H
	DB	018H
	DB	0e3H
	DB	018H
	DB	0e4H
	DB	020H
	DB	0e4H
	DB	020H
	DB	0e3H
	DB	018H
	DB	0e4H
	DB	020H
	DB	0e3H
	DB	018H
	DB	0e3H
	DB	018H
	DB	0e4H
	DB	020H
	DB	0e3H
	DB	018H
	DB	0e4H
	DB	020H
	DB	0e3H
	DB	018H
	DB	0e4H
	DB	020H
	DB	0e3H
	DB	018H
	DB	0e3H
	DB	018H
	DB	0e4H
	DB	020H
	DB	0e3H
	DB	018H
	DB	0e4H
	DB	020H
	DB	0e3H
	DB	018H
	DB	0e3H
	DB	018H
	DB	0e4H
	DB	020H
	DB	0e3H
	DB	018H
	DB	0e3H
	DB	018H
	DB	0e4H
	DB	020H
	DB	0e4H
	DB	020H
	DB	0e3H
	DB	018H
	DB	0e4H
	DB	020H
	DB	0e3H
	DB	018H
	DB	0e3H
	DB	018H
	DB	0e4H
	DB	020H
	DB	0e3H
	DB	018H
	DB	0e4H
	DB	020H
	DB	0e3H
	DB	018H
	DB	0e4H
	DB	020H
	DB	0e3H
	DB	018H
	DB	0e3H
	DB	018H
	DB	0e4H
	DB	020H
	DB	0e3H
	DB	018H
	DB	0e4H
	DB	020H
	DB	0e3H
	DB	018H
	DB	0e3H
	DB	018H
	DB	0e4H
	DB	020H
	DB	0e3H
	DB	018H
	DB	0e3H
	DB	018H
	DB	0e4H
	DB	020H
	DB	0e4H
	DB	020H
	DB	0e3H
	DB	018H
	DB	0e4H
	DB	020H
	DB	0e3H
	DB	018H
	DB	0e3H
	DB	018H
	DB	0e4H
	DB	020H
	DB	0e3H
	DB	018H
	DB	0e4H
	DB	020H
	DB	0e3H
	DB	018H
	DB	0e4H
	DB	020H
	DB	0e3H
	DB	018H
	DB	0e3H
	DB	018H
	DB	0e4H
	DB	020H
	DB	0e3H
	DB	018H
	DB	0e4H
	DB	020H
	DB	0e3H
	DB	018H
	DB	0e3H
	DB	018H
	DB	0e4H
	DB	020H
	DB	0e3H
	DB	018H
	DB	0e3H
	DB	018H
	DB	0e4H
	DB	020H
	DB	0e4H
	DB	020H
	DB	0e3H
	DB	018H
	DB	0e4H
	DB	020H
	DB	0e3H
	DB	018H
	DB	0e3H
	DB	018H
	DB	0e4H
	DB	020H
	DB	0e3H
	DB	018H
	DB	0e4H
	DB	020H
	DB	0e3H
	DB	018H
	DB	0e4H
	DB	020H
	DB	0e3H
	DB	018H
	DB	0e3H
	DB	018H
	DB	0e4H
	DB	020H
	DB	0e3H
	DB	018H
	DB	0e4H
	DB	020H
	DB	0e3H
	DB	018H
	DB	0e3H
	DB	018H
	DB	0e4H
	DB	020H
	DB	0e3H
	DB	018H
	DB	0e3H
	DB	018H
	DB	0e4H
	DB	020H
	DB	0e4H
	DB	020H
	DB	0e3H
	DB	018H
	DB	0e4H
	DB	020H
	DB	0e3H
	DB	018H
	DB	0e3H
	DB	018H
	DB	0e4H
	DB	020H
	DB	0e3H
	DB	018H
	DB	0e4H
	DB	020H
	DB	0e3H
	DB	018H
	DB	0e4H
	DB	020H
	DB	0e3H
	DB	018H
	DB	0e3H
	DB	018H
	DB	0e4H
	DB	020H
	DB	0e3H
	DB	018H
	DB	0e4H
	DB	020H
	DB	0e3H
	DB	018H
	DB	0e3H
	DB	018H
	DB	0e4H
	DB	020H
	DB	0e3H
	DB	018H
	DB	0e3H
	DB	018H
	DB	0e4H
	DB	020H
	DB	0e4H
	DB	020H
	DB	0e3H
	DB	018H
	DB	0e4H
	DB	020H
	DB	0e3H
	DB	018H
	DB	0e3H
	DB	018H
	DB	0e4H
	DB	020H
	DB	0e3H
	DB	018H
	DB	0e4H
	DB	020H
	DB	0e3H
	DB	018H
	DB	0e4H
	DB	020H
	DB	0e3H
	DB	018H
	DB	0e3H
	DB	018H
	DB	0e4H
	DB	020H
	DB	0e3H
	DB	018H
	DB	0e4H
	DB	020H
	DB	0e3H
	DB	018H
	DB	0e3H
	DB	018H
	DB	0e4H
	DB	020H
	DB	0e3H
	DB	018H
	DB	0e3H
	DB	018H
	DB	0e4H
	DB	020H
	DB	0e4H
	DB	020H
	DB	0e3H
	DB	018H
	DB	0e4H
	DB	020H
	DB	0e3H
	DB	018H
	DB	0e3H
	DB	018H
	DB	0e4H
	DB	020H
	DB	0e3H
	DB	018H
	DB	0e4H
	DB	020H
	DB	0e3H
	DB	018H
	DB	0e4H
	DB	020H
	DB	0e3H
	DB	018H
	DB	0e3H
	DB	018H
	DB	0e4H
	DB	020H
	DB	0e3H
	DB	018H
	DB	0e4H
	DB	020H
	DB	0e3H
	DB	018H
	DB	0e3H
	DB	018H
	DB	0e4H
	DB	020H
	DB	0e3H
	DB	018H
	DB	0e3H
	DB	018H
	DB	0e4H
	DB	020H
	DB	0e4H
	DB	020H
	DB	0e3H
	DB	018H
	DB	0e4H
	DB	020H
	DB	0e3H
	DB	018H
	DB	0e3H
	DB	018H
	DB	0e4H
	DB	020H
	DB	0e3H
	DB	018H
	DB	0e4H
	DB	020H
	DB	0e3H
	DB	018H
	DB	0e4H
	DB	020H
	DB	0e3H
	DB	018H
	DB	0e3H
	DB	018H
	DB	0e4H
	DB	020H
	DB	0e3H
	DB	018H
	DB	0e4H
	DB	020H
	DB	0e3H
	DB	018H
	DB	0e3H
	DB	018H
	DB	0e4H
	DB	020H
	DB	0e3H
	DB	018H
	DB	0e3H
	DB	018H
	DB	0e4H
	DB	020H
	DB	0e4H
	DB	020H
	DB	0e3H
	DB	018H
	DB	0e4H
	DB	020H
	DB	0e3H
	DB	018H
	DB	0e3H
	DB	018H
	DB	0e4H
	DB	020H
	DB	0e3H
	DB	018H
	DB	0e4H
	DB	020H
	DB	0e3H
	DB	018H
	DB	0e4H
	DB	020H
	DB	0e3H
	DB	018H
	DB	0e3H
	DB	018H
	DB	0e4H
	DB	020H
	DB	0e3H
	DB	018H
	DB	0e4H
	DB	020H
	DB	0e3H
	DB	018H
	DB	0e3H
	DB	018H
	DB	0e4H
	DB	020H
	DB	0e3H
	DB	018H
	DB	0e3H
	DB	018H
	DB	0e4H
	DB	020H
	DB	0e4H
	DB	020H
	DB	0e3H
	DB	018H
	DB	0e4H
	DB	020H
	DB	0e3H
	DB	018H
	DB	0e3H
	DB	018H
	DB	0e4H
	DB	020H
	DB	0e3H
	DB	018H
	DB	0e4H
	DB	020H
	DB	0e3H
	DB	018H
	DB	0e4H
	DB	020H
	DB	0e3H
	DB	018H
	DB	0e3H
	DB	018H
	DB	0e4H
	DB	020H
	DB	0e3H
	DB	018H
	DB	0e4H
	DB	020H
	DB	0e3H
	DB	018H
	DB	0e3H
	DB	018H
	DB	0e4H
	DB	020H
	DB	0e3H
	DB	018H
	DB	0e3H
	DB	018H
	DB	0e4H
	DB	020H
	DB	0e4H
	DB	020H
	DB	0e3H
	DB	018H
	DB	0e4H
	DB	020H
	DB	0e3H
	DB	018H
	DB	0e3H
	DB	018H
	DB	0e4H
	DB	020H
	DB	0e3H
	DB	018H
	DB	0e3H
	DB	018H
	DB	0e4H
	DB	020H
	DB	0e4H
	DB	020H
	DB	0e3H
	DB	018H
	DB	0e3H
	DB	018H
	DB	0e4H
	DB	020H
	DB	0e4H
	DB	020H
	DB	0e3H
	DB	018H
	DB	0e4H
	DB	020H
	DB	0e3H
	DB	018H
	DB	0e4H
	DB	020H
	DB	0e4H
	DB	020H
	DB	0e3H
	DB	018H
	DB	0e4H
	DB	020H
	DB	0e3H
	DB	018H
	DB	0e3H
	DB	018H
	DB	0e3H
	DB	018H
	DB	0e3H
	DB	018H
	DB	0e3H
	DB	018H
	DB	0e4H
	DB	020H
	DB	0e3H
	DB	018H
	DB	0e3H
	DB	018H
	DB	0e4H
	DB	020H
	DB	0e3H
	DB	018H
	DB	0e3H
	DB	018H
	DB	0e4H
	DB	020H
	DB	0e3H
	DB	018H
	DB	0e3H
	DB	018H
	DB	0e3H
	DB	018H
	DB	0e3H
	DB	018H
	DB	0e3H
	DB	018H
	DB	0e4H
	DB	020H
	DB	0e3H
	DB	018H
	DB	0e3H
	DB	018H
	DB	0e3H
	DB	018H
	DB	0e3H
	DB	018H
	DB	0e4H
	DB	020H
	DB	0e3H
	DB	018H
	DB	0e3H
	DB	018H
	DB	0e3H
	DB	018H
	DB	0e4H
	DB	020H
	DB	0e3H
	DB	018H
	DB	0e3H
	DB	018H
	DB	0e3H
	DB	018H
	DB	0e3H
	DB	018H
	DB	0e3H
	DB	018H
	DB	0e3H
	DB	018H
	DB	0e3H
	DB	018H
	DB	0e4H
	DB	020H
	DB	0e3H
	DB	018H
	DB	0e3H
	DB	018H
	DB	0e3H
	DB	018H
	DB	0e3H
	DB	018H
	DB	0e3H
	DB	018H
	DB	0e4H
	DB	020H
	DB	0e3H
	DB	018H
	DB	0e3H
	DB	018H
	DB	0e4H
	DB	020H
	DB	0e3H
	DB	018H
	DB	0e3H
	DB	018H
	DB	0e3H
	DB	018H
	DB	0e4H
	DB	020H
	DB	0e3H
	DB	018H
	DB	0e3H
	DB	018H
	DB	0e3H
	DB	018H
	DB	0e3H
	DB	018H
	DB	0e3H
	DB	018H
	DB	0e3H
	DB	018H
	DB	0e3H
	DB	018H
	DB	0e4H
	DB	020H
	DB	0e3H
	DB	018H
	DB	0e3H
	DB	018H
	DB	0e3H
	DB	018H
	DB	0e3H
	DB	018H
	DB	0e3H
	DB	018H
	DB	0e3H
	DB	018H
	DB	0e4H
	DB	020H
	DB	0e3H
	DB	018H
	DB	0e3H
	DB	018H
	DB	0e3H
	DB	018H
	DB	0e4H
	DB	020H
	DB	0e3H
	DB	018H
	DB	0e3H
	DB	018H
	DB	0e3H
	DB	018H
	DB	0e4H
	DB	020H
	DB	0e3H
	DB	018H
	DB	0e3H
	DB	018H
	DB	0e3H
	DB	018H
	DB	0e3H
	DB	018H
	DB	0e4H
	DB	020H
	DB	0e3H
	DB	018H
	DB	0e3H
	DB	018H
	DB	0e3H
	DB	018H
	DB	0e3H
	DB	018H
	DB	0e3H
	DB	018H
	DB	0e3H
	DB	018H
	DB	0e3H
	DB	018H
	DB	0e3H
	DB	018H
	DB	0e4H
	DB	020H
	DB	0e3H
	DB	018H
	DB	0e3H
	DB	018H
	DB	0e3H
	DB	018H
	DB	0e3H
	DB	018H
	DB	0e3H
	DB	018H
	DB	0e3H
	DB	018H
	DB	0e4H
	DB	020H
	DB	0e3H
	DB	018H
	DB	0e3H
	DB	018H
	DB	0e3H
	DB	018H
	DB	0e3H
	DB	018H
	DB	0e4H
	DB	020H
	DB	0e3H
	DB	018H
	DB	0e3H
	DB	018H
	DB	0e3H
	DB	018H
	DB	0e3H
	DB	018H
	DB	0e3H
	DB	018H
	DB	0e3H
	DB	018H
	DB	0e3H
	DB	018H
	DB	0e3H
	DB	018H
	DB	0e4H
	DB	020H
	DB	0e3H
	DB	018H
	DB	0e3H
	DB	018H
	DB	0e3H
	DB	018H
	DB	0e3H
	DB	018H
	DB	0e3H
	DB	018H
	DB	0e3H
	DB	018H
	DB	0e4H
	DB	020H
	DB	0e3H
	DB	018H
	DB	0e3H
	DB	018H
	DB	0e3H
	DB	018H
	DB	0e3H
	DB	018H
	DB	0e4H
	DB	020H
	DB	0e3H
	DB	018H
	DB	0e3H
	DB	018H
	DB	0e3H
	DB	018H
	DB	0e3H
	DB	018H
	DB	0e3H
	DB	018H
	DB	0e3H
	DB	018H
	DB	0e3H
	DB	018H
	DB	0e3H
	DB	018H
	DB	0e4H
	DB	020H
	DB	0e3H
	DB	018H
	DB	0e3H
	DB	018H
	DB	0e3H
	DB	018H
	DB	0e3H
	DB	018H
	DB	0e3H
	DB	018H
	DB	0e3H
	DB	018H
	DB	0e4H
	DB	020H
	DB	0e3H
	DB	018H
	DB	0e3H
	DB	018H
	DB	0e3H
	DB	018H
	DB	0e3H
	DB	018H
	DB	0e4H
	DB	020H
	DB	0e3H
	DB	018H
	DB	0e3H
	DB	018H
	DB	0e3H
	DB	018H
	DB	0e3H
	DB	018H
	DB	0e3H
	DB	018H
	DB	0e3H
	DB	018H
	DB	0e3H
	DB	018H
	DB	0e3H
	DB	018H
	DB	0e4H
	DB	020H
	DB	0e3H
	DB	018H
	DB	0e3H
	DB	018H
	DB	0e3H
	DB	018H
	DB	0e3H
	DB	018H
	DB	0e3H
	DB	018H
	DB	0e3H
	DB	018H
	DB	0e4H
	DB	020H
	DB	0e3H
	DB	018H
	DB	0e3H
	DB	018H
	DB	0e3H
	DB	018H
	DB	0e3H
	DB	018H
	DB	0e4H
	DB	020H
	DB	0e3H
	DB	018H
	DB	0e3H
	DB	018H
	DB	0e3H
	DB	018H
	DB	0e3H
	DB	018H
	DB	0e3H
	DB	018H
	DB	0e3H
	DB	018H
	DB	0e3H
	DB	018H
	DB	0e3H
	DB	018H
	DB	0e4H
	DB	020H
	DB	0e3H
	DB	018H
	DB	0e3H
	DB	018H
	DB	0e3H
	DB	018H
	DB	0e3H
	DB	018H
	DB	0e3H
	DB	018H
	DB	0e3H
	DB	018H
	DB	0e4H
	DB	020H
	DB	0e3H
	DB	018H
	DB	0e3H
	DB	018H
	DB	0e3H
	DB	018H
	DB	0e3H
	DB	018H
	DB	0e4H
	DB	020H
	DB	0e3H
	DB	018H
	DB	0e3H
	DB	018H
	DB	0e3H
	DB	018H
	DB	0e3H
	DB	018H
	DB	0e3H
	DB	018H
	DB	0e3H
	DB	018H
	DB	0e3H
	DB	018H
	DB	0e3H
	DB	018H
	DB	0e4H
	DB	020H
	DB	0e3H
	DB	018H
	DB	0e3H
	DB	018H
	DB	0e3H
	DB	018H
	DB	0e3H
	DB	018H
	DB	0e3H
	DB	018H
	DB	0e3H
	DB	018H
	DB	0e4H
	DB	020H
	DB	0e3H
	DB	018H
	DB	0e3H
	DB	018H
	DB	0e3H
	DB	018H
	DB	0e3H
	DB	018H
	DB	0e4H
	DB	020H
	DB	0e3H
	DB	018H
	DB	0e3H
	DB	018H
	DB	0e3H
	DB	018H
	DB	0e3H
	DB	018H
	DB	0e3H
	DB	018H
	DB	0e3H
	DB	018H
	DB	0e3H
	DB	018H
	DB	0e3H
	DB	018H
	DB	0e4H
	DB	020H
	DB	0e3H
	DB	018H
	DB	0e3H
	DB	018H
	DB	0e3H
	DB	018H
	DB	0e3H
	DB	018H
	DB	0e3H
	DB	018H
	DB	0e3H
	DB	018H
	DB	0e4H
	DB	020H
	DB	0e3H
	DB	018H
	DB	0e3H
	DB	018H
	DB	0e3H
	DB	018H
	DB	0e3H
	DB	018H
	DB	0e4H
	DB	020H
	DB	0e3H
	DB	018H
	DB	0e3H
	DB	018H
	DB	0e3H
	DB	018H
	DB	0e3H
	DB	018H
	DB	0e3H
	DB	018H
	DB	0e3H
	DB	018H
	DB	0e3H
	DB	018H
	DB	0e3H
	DB	018H
	DB	0e4H
	DB	020H
	DB	0e3H
	DB	018H
	DB	0e3H
	DB	018H
	DB	0e3H
	DB	018H
	DB	0e3H
	DB	018H
	DB	0e3H
	DB	018H
	DB	0e3H
	DB	018H
	DB	0e4H
	DB	020H
	DB	0e3H
	DB	018H
	DB	0e3H
	DB	018H
	DB	0e3H
	DB	018H
	DB	0e3H
	DB	018H
	DB	0e4H
	DB	020H
	DB	0e3H
	DB	018H
	DB	0e3H
	DB	018H
	DB	0e3H
	DB	018H
	DB	0e3H
	DB	018H
	DB	0e3H
	DB	018H
	DB	0e3H
	DB	018H
	DB	0e3H
	DB	018H
	DB	0e3H
	DB	018H
	DB	0e4H
	DB	020H
	DB	0e3H
	DB	018H
	DB	0e3H
	DB	018H
	DB	0e3H
	DB	018H
	DB	0e3H
	DB	018H
	DB	0e3H
	DB	018H
	DB	0e3H
	DB	018H
	DB	0e4H
	DB	020H
	DB	0e3H
	DB	018H
	DB	0e3H
	DB	018H
	DB	0e3H
	DB	018H
	DB	0e3H
	DB	018H
	DB	0e4H
	DB	020H
	DB	0e3H
	DB	018H
	DB	0e3H
	DB	018H
	DB	0e3H
	DB	018H
	DB	0e3H
	DB	018H
	DB	0e3H
	DB	018H
	DB	0e3H
	DB	018H
	DB	0e3H
	DB	018H
	DB	0e3H
	DB	018H
	DB	0e4H
	DB	020H
	DB	0e3H
	DB	018H
	DB	0e3H
	DB	018H
	DB	0e3H
	DB	018H
	DB	0e3H
	DB	018H
	DB	0e3H
	DB	018H
	DB	0e3H
	DB	018H
	DB	0e4H
	DB	020H
	DB	0e3H
	DB	018H
	DB	0e3H
	DB	018H
	DB	0e3H
	DB	018H
	DB	0e3H
	DB	018H
	DB	0e4H
	DB	020H
	DB	0e3H
	DB	018H
	DB	0e3H
	DB	018H
	DB	0e3H
	DB	018H
	DB	0e3H
	DB	018H
	DB	0e3H
	DB	018H
	DB	0e3H
	DB	018H
	DB	0e3H
	DB	018H
	DB	0e3H
	DB	018H
	DB	0e4H
	DB	020H
	DB	0e3H
	DB	018H
	DB	0e3H
	DB	018H
	DB	0e3H
	DB	018H
	DB	0e3H
	DB	018H
	DB	0e3H
	DB	018H
	DB	0e3H
	DB	018H
	DB	0e4H
	DB	020H
	DB	0e3H
	DB	018H
	DB	0e3H
	DB	018H
	DB	0e3H
	DB	018H
	DB	0e3H
	DB	018H
	DB	0e4H
	DB	020H
	DB	0e3H
	DB	018H
	DB	0e3H
	DB	018H
	DB	0e3H
	DB	018H
	DB	0e3H
	DB	018H
	DB	0e3H
	DB	018H
	DB	0e3H
	DB	018H
	DB	0e3H
	DB	018H
	DB	0e3H
	DB	018H
	DB	0e4H
	DB	020H
	DB	0e3H
	DB	018H
	DB	0e3H
	DB	018H
	DB	0e3H
	DB	018H
	DB	0e3H
	DB	018H
	DB	0e3H
	DB	018H
	DB	0e3H
	DB	018H
	DB	0e4H
	DB	020H
	DB	0e3H
	DB	018H
	DB	0e3H
	DB	018H
	DB	0e3H
	DB	018H
	DB	0e3H
	DB	018H
	DB	0e4H
	DB	020H
	DB	0e3H
	DB	018H
	DB	0e3H
	DB	018H
	DB	0e3H
	DB	018H
	DB	0e3H
	DB	018H
	DB	0e3H
	DB	018H
	DB	0e3H
	DB	018H
	DB	0e3H
	DB	018H
	DB	0e3H
	DB	018H
	DB	0e4H
	DB	020H
	DB	0e3H
	DB	018H
	DB	0e3H
	DB	018H
	DB	0e3H
	DB	018H
	DB	0e3H
	DB	018H
	DB	0e3H
	DB	018H
	DB	0e3H
	DB	018H
	DB	0e4H
	DB	020H
	DB	0e3H
	DB	018H
	DB	0e3H
	DB	018H
	DB	0e3H
	DB	018H
	DB	0e3H
	DB	018H
	DB	0e4H
	DB	020H
	DB	0e3H
	DB	018H
	DB	0e3H
	DB	018H
	DB	0e3H
	DB	018H
	DB	0e3H
	DB	018H
	DB	0e3H
	DB	018H
	DB	0e3H
	DB	018H
	DB	0e3H
	DB	018H
	DB	0e3H
	DB	018H
	DB	0e4H
	DB	020H
	DB	0e3H
	DB	018H
	DB	0e3H
	DB	018H
	DB	0e3H
	DB	018H
	DB	0e3H
	DB	018H
	DB	0e3H
	DB	018H
	DB	0e3H
	DB	018H
	DB	0e4H
	DB	020H
	DB	0e3H
	DB	018H
	DB	0e3H
	DB	018H
	DB	0e3H
	DB	018H
	DB	0e3H
	DB	018H
	DB	0e4H
	DB	020H
	DB	0e3H
	DB	018H
	DB	0e3H
	DB	018H
	DB	0e3H
	DB	018H
	DB	0e3H
	DB	018H
	DB	0e3H
	DB	018H
	DB	0e3H
	DB	018H
	DB	0e3H
	DB	018H
	DB	0e3H
	DB	018H
	DB	0e4H
	DB	020H
	DB	0e3H
	DB	018H
	DB	0e3H
	DB	018H
	DB	0e3H
	DB	018H
	DB	0e3H
	DB	018H
	DB	0e3H
	DB	018H
	DB	0e3H
	DB	018H
	DB	0e4H
	DB	020H
	DB	0e3H
	DB	018H
	DB	0e3H
	DB	018H
	DB	0e3H
	DB	018H
	DB	0e3H
	DB	018H
	DB	0e4H
	DB	020H
	DB	0e3H
	DB	018H
	DB	0e3H
	DB	018H
	DB	0e3H
	DB	018H
	DB	0e3H
	DB	018H
	DB	0e3H
	DB	018H
	DB	0e3H
	DB	018H
	DB	0e3H
	DB	018H
	DB	0e3H
	DB	018H
	DB	0e4H
	DB	020H
	DB	0e3H
	DB	018H
	DB	0e3H
	DB	018H
	DB	0e3H
	DB	018H
	DB	0e3H
	DB	018H
	DB	0e3H
	DB	018H
	DB	0e3H
	DB	018H
	DB	0e4H
	DB	020H
	DB	0e3H
	DB	018H
	DB	0e3H
	DB	018H
	DB	0e3H
	DB	018H
	DB	0e3H
	DB	018H
	DB	0e4H
	DB	020H
	DB	0e3H
	DB	018H
	DB	0e3H
	DB	018H
	DB	0e3H
	DB	018H
	DB	0e3H
	DB	018H
	DB	0e3H
	DB	018H
	DB	0e3H
	DB	018H
	DB	0e3H
	DB	018H
	DB	0e3H
	DB	018H
	DB	0e4H
	DB	020H
	DB	0e3H
	DB	018H
	DB	0e3H
	DB	018H
	DB	0e3H
	DB	018H
	DB	0e3H
	DB	018H
	DB	0e3H
	DB	018H
	DB	0e3H
	DB	018H
	DB	0e4H
	DB	020H
	DB	0e3H
	DB	018H
	DB	0e3H
	DB	018H
	DB	0e3H
	DB	018H
	DB	0e3H
	DB	018H
	DB	0e4H
	DB	020H
	DB	0e3H
	DB	018H
	DB	0e3H
	DB	018H
	DB	0e3H
	DB	018H
	DB	0e3H
	DB	018H
	DB	0e3H
	DB	018H
	DB	0e3H
	DB	018H
	DB	0e3H
	DB	018H
	DB	0e3H
	DB	018H
	DB	0e4H
	DB	020H
	DB	0e3H
	DB	018H
	DB	0e3H
	DB	018H
	DB	0e3H
	DB	018H
	DB	0e3H
	DB	018H
	DB	0e3H
	DB	018H
	DB	0e3H
	DB	018H
	DB	0e4H
	DB	020H
	DB	0e3H
	DB	018H
	DB	0e3H
	DB	018H
	DB	0e3H
	DB	018H
	DB	0e3H
	DB	018H
	DB	0e4H
	DB	020H
	DB	0e3H
	DB	018H
	DB	0e3H
	DB	018H
	DB	0e3H
	DB	018H
	DB	0e3H
	DB	018H
	DB	0e3H
	DB	018H
	DB	0e3H
	DB	018H
	DB	0e3H
	DB	018H
	DB	0e3H
	DB	018H
	DB	0e4H
	DB	020H
	DB	0e3H
	DB	018H
	DB	0e3H
	DB	018H
	DB	0e3H
	DB	018H
	DB	0e3H
	DB	018H
	DB	0e3H
	DB	018H
	DB	0e3H
	DB	018H
	DB	0e3H
	DB	018H
	DB	0e3H
	DB	018H
	DB	0e3H
	DB	018H
	DB	0e3H
	DB	018H
	DB	0e3H
	DB	018H
	DB	0e3H
	DB	018H
	DB	0e3H
	DB	018H
	DB	0e3H
	DB	018H
	DB	0e3H
	DB	018H
	DB	0e3H
	DB	018H
	DB	0e3H
	DB	018H
	DB	0e3H
	DB	018H
	DB	0e4H
	DB	020H
	DB	0e4H
	DB	020H
	DB	0e3H
	DB	018H
	DB	0e4H
	DB	020H
	DB	0e3H
	DB	018H
	DB	0e3H
	DB	018H
	DB	0e4H
	DB	020H
	DB	0e4H
	DB	020H
	DB	0e3H
	DB	018H
	DB	0e3H
	DB	018H
	DB	0e4H
	DB	020H
	DB	0e4H
	DB	020H
	DB	0e3H
	DB	018H
	DB	0e4H
	DB	020H
	DB	0e4H
	DB	020H
	DB	0e3H
	DB	018H
	DB	0e3H
	DB	018H
	DB	0e4H
	DB	020H
	DB	0e4H
	DB	020H
	DB	0e3H
	DB	018H
	DB	0e4H
	DB	020H
	DB	0e3H
	DB	018H
	DB	0e4H
	DB	020H
	DB	0e3H
	DB	018H
	DB	0e4H
	DB	020H
	DB	0e3H
	DB	018H
	DB	0e4H
	DB	020H
	DB	0e4H
	DB	020H
	DB	0e3H
	DB	018H
	DB	0e4H
	DB	020H
	DB	0e3H
	DB	018H
	DB	0e4H
	DB	020H
	DB	0e3H
	DB	018H
	DB	0e3H
	DB	018H
	DB	0e4H
	DB	020H
	DB	0e3H
	DB	018H
	DB	0e4H
	DB	020H
	DB	0e3H
	DB	018H
	DB	0e4H
	DB	020H
	DB	0e3H
	DB	018H
	DB	0e4H
	DB	020H
	DB	0e3H
	DB	018H
	DB	0e4H
	DB	020H
	DB	0e4H
	DB	020H
	DB	0e3H
	DB	018H
	DB	0e4H
	DB	020H
	DB	0e3H
	DB	018H
	DB	0e4H
	DB	020H
	DB	0e4H
	DB	020H
	DB	0e4H
	DB	020H
	DB	0e4H
	DB	020H
	DB	0e3H
	DB	018H
	DB	0e4H
	DB	020H
	DB	0e3H
	DB	018H
	DB	0e3H
	DB	018H
	DB	0e4H
	DB	020H
	DB	0e4H
	DB	020H
	DB	0e3H
	DB	018H
	DB	0e4H
	DB	020H
	DB	0e4H
	DB	020H
	DB	0e3H
	DB	018H
	DB	0e4H
	DB	020H
	DB	0e4H
	DB	020H
	DB	0e3H
	DB	018H
	DB	0e4H
	DB	020H
	DB	0e3H
	DB	018H
	DB	0e4H
	DB	020H
	DB	0e3H
	DB	018H
	DB	0e4H
	DB	020H
	DB	0e3H
	DB	018H
	DB	0e4H
	DB	020H
	DB	0e4H
	DB	020H
	DB	0e3H
	DB	018H
	DB	0e4H
	DB	020H
	DB	0e3H
	DB	018H
	DB	0e4H
	DB	020H
	DB	0e4H
	DB	020H
	DB	0e4H
	DB	020H
	DB	0e3H
	DB	018H
	DB	0e4H
	DB	020H
	DB	0e4H
	DB	020H
	DB	0e3H
	DB	018H
	DB	0e3H
	DB	018H
	DB	0e4H
	DB	020H
	DB	0e3H
	DB	018H
	DB	0e4H
	DB	020H
	DB	0e4H
	DB	020H
	DB	0e3H
	DB	018H
	DB	0e4H
	DB	020H
	DB	0e3H
	DB	018H
	DB	0e4H
	DB	020H
	DB	0e4H
	DB	020H
	DB	0e3H
	DB	018H
	DB	0e4H
	DB	020H
	DB	0e3H
	DB	018H
	DB	0e4H
	DB	020H
	DB	0e4H
	DB	020H
	DB	0e3H
	DB	018H
	DB	0e4H
	DB	020H
	DB	0e4H
	DB	020H
	DB	0e3H
	DB	018H
	DB	0e4H
	DB	020H
	DB	0e3H
	DB	018H
	DB	0e3H
	DB	018H
	DB	0e4H
	DB	020H
	DB	0e4H
	DB	020H
	DB	0e3H
	DB	018H
	DB	0e4H
	DB	020H
	DB	0e4H
	DB	020H
	DB	0e3H
	DB	018H
	DB	0e4H
	DB	020H
	DB	0e3H
	DB	018H
	DB	0e4H
	DB	020H
	DB	0e4H
	DB	020H
	DB	0e3H
	DB	018H
	DB	0e4H
	DB	020H
	DB	0e3H
	DB	018H
	DB	0e4H
	DB	020H
	DB	0e4H
	DB	020H
	DB	0e4H
	DB	020H
	DB	0e3H
	DB	018H
	DB	0e4H
	DB	020H
	DB	0e4H
	DB	020H
	DB	0e3H
	DB	018H
	DB	0e3H
	DB	018H
	DB	0e4H
	DB	020H
	DB	0e3H
	DB	018H
	DB	0e4H
	DB	020H
	DB	0e4H
	DB	020H
	DB	0e3H
	DB	018H
	DB	0e4H
	DB	020H
	DB	0e3H
	DB	018H
	DB	0e4H
	DB	020H
	DB	0e4H
	DB	020H
	DB	0e3H
	DB	018H
	DB	0e4H
	DB	020H
	DB	0e3H
	DB	018H
	DB	0e4H
	DB	020H
	DB	0e4H
	DB	020H
	DB	0e3H
	DB	018H
	DB	0e4H
	DB	020H
	DB	0e4H
	DB	020H
	DB	0e3H
	DB	018H
	DB	0e4H
	DB	020H
	DB	0e3H
	DB	018H
	DB	0e3H
	DB	018H
	DB	0e4H
	DB	020H
	DB	0e4H
	DB	020H
	DB	0e3H
	DB	018H
	DB	0e4H
	DB	020H
	DB	0e4H
	DB	020H
	DB	0e3H
	DB	018H
	DB	0e4H
	DB	020H
	DB	0e3H
	DB	018H
	DB	0e4H
	DB	020H
	DB	0e4H
	DB	020H
	DB	0e3H
	DB	018H
	DB	0e4H
	DB	020H
	DB	0e3H
	DB	018H
	DB	0e4H
	DB	020H
	DB	0e4H
	DB	020H
	DB	0e4H
	DB	020H
	DB	0e3H
	DB	018H
	DB	0e4H
	DB	020H
	DB	0e4H
	DB	020H
	DB	0e3H
	DB	018H
	DB	0e3H
	DB	018H
	DB	0e4H
	DB	020H
	DB	0e3H
	DB	018H
	DB	0e4H
	DB	020H
	DB	0e4H
	DB	020H
	DB	0e3H
	DB	018H
	DB	0e4H
	DB	020H
	DB	0e3H
	DB	018H
	DB	0e4H
	DB	020H
	DB	0e4H
	DB	020H
	DB	0e3H
	DB	018H
	DB	0e4H
	DB	020H
	DB	0e3H
	DB	018H
	DB	0e4H
	DB	020H
	DB	0e4H
	DB	020H
	DB	0e3H
	DB	018H
	DB	0e4H
	DB	020H
	DB	0e4H
	DB	020H
	DB	0e3H
	DB	018H
	DB	0e4H
	DB	020H
	DB	0e3H
	DB	018H
	DB	0e3H
	DB	018H
	DB	0e4H
	DB	020H
	DB	0e4H
	DB	020H
	DB	0e3H
	DB	018H
	DB	0e4H
	DB	020H
	DB	0e4H
	DB	020H
	DB	0e3H
	DB	018H
	DB	0e4H
	DB	020H
	DB	0e3H
	DB	018H
	DB	0e4H
	DB	020H
	DB	0e4H
	DB	020H
	DB	0e3H
	DB	018H
	DB	0e4H
	DB	020H
	DB	0e3H
	DB	018H
	DB	0e4H
	DB	020H
	DB	0e4H
	DB	020H
	DB	0e4H
	DB	020H
	DB	0e3H
	DB	018H
	DB	0e4H
	DB	020H
	DB	0e4H
	DB	020H
	DB	0e3H
	DB	018H
	DB	0e3H
	DB	018H
	DB	0e4H
	DB	020H
	DB	0e3H
	DB	018H
	DB	0e4H
	DB	020H
	DB	0e4H
	DB	020H
	DB	0e3H
	DB	018H
	DB	0e4H
	DB	020H
	DB	0e3H
	DB	018H
	DB	0e4H
	DB	020H
	DB	0e4H
	DB	020H
	DB	0e3H
	DB	018H
	DB	0e4H
	DB	020H
	DB	0e3H
	DB	018H
	DB	0e4H
	DB	020H
	DB	0e4H
	DB	020H
	DB	0e3H
	DB	018H
	DB	0e4H
	DB	020H
	DB	0e4H
	DB	020H
	DB	0e3H
	DB	018H
	DB	0e4H
	DB	020H
	DB	0e3H
	DB	018H
	DB	0e3H
	DB	018H
	DB	0e4H
	DB	020H
	DB	0e4H
	DB	020H
	DB	0e3H
	DB	018H
	DB	0e4H
	DB	020H
	DB	0e4H
	DB	020H
	DB	0e3H
	DB	018H
	DB	0e4H
	DB	020H
	DB	0e3H
	DB	018H
	DB	0e4H
	DB	020H
	DB	0e4H
	DB	020H
	DB	0e3H
	DB	018H
	DB	0e4H
	DB	020H
	DB	0e3H
	DB	018H
	DB	0e4H
	DB	020H
	DB	0e4H
	DB	020H
	DB	0e4H
	DB	020H
	DB	0e3H
	DB	018H
	DB	0e4H
	DB	020H
	DB	0e4H
	DB	020H
	DB	0e3H
	DB	018H
	DB	0e3H
	DB	018H
	DB	0e4H
	DB	020H
	DB	0e3H
	DB	018H
	DB	0e4H
	DB	020H
	DB	0e4H
	DB	020H
	DB	0e3H
	DB	018H
	DB	0e4H
	DB	020H
	DB	0e3H
	DB	018H
	DB	0e4H
	DB	020H
	DB	0e4H
	DB	020H
	DB	0e3H
	DB	018H
	DB	0e4H
	DB	020H
	DB	0e3H
	DB	018H
	DB	0e4H
	DB	020H
	DB	0e4H
	DB	020H
	DB	0e3H
	DB	018H
	DB	0e4H
	DB	020H
	DB	0e4H
	DB	020H
	DB	0e3H
	DB	018H
	DB	0e4H
	DB	020H
	DB	0e3H
	DB	018H
	DB	0e3H
	DB	018H
	DB	0e4H
	DB	020H
	DB	0e4H
	DB	020H
	DB	0e3H
	DB	018H
	DB	0e4H
	DB	020H
	DB	0e4H
	DB	020H
	DB	0e3H
	DB	018H
	DB	0e4H
	DB	020H
	DB	0e3H
	DB	018H
	DB	0e4H
	DB	020H
	DB	0e4H
	DB	020H
	DB	0e3H
	DB	018H
	DB	0e4H
	DB	020H
	DB	0e3H
	DB	018H
	DB	0e4H
	DB	020H
	DB	0e4H
	DB	020H
	DB	0e4H
	DB	020H
	DB	0e3H
	DB	018H
	DB	0e4H
	DB	020H
	DB	0e4H
	DB	020H
	DB	0e3H
	DB	018H
	DB	0e3H
	DB	018H
	DB	0e4H
	DB	020H
	DB	0e3H
	DB	018H
	DB	0e4H
	DB	020H
	DB	0e4H
	DB	020H
	DB	0e3H
	DB	018H
	DB	0e4H
	DB	020H
	DB	0e3H
	DB	018H
	DB	0e4H
	DB	020H
	DB	0e4H
	DB	020H
	DB	0e3H
	DB	018H
	DB	0e4H
	DB	020H
	DB	0e3H
	DB	018H
	DB	0e4H
	DB	020H
	DB	0e4H
	DB	020H
	DB	0e3H
	DB	018H
	DB	0e4H
	DB	020H
	DB	0e4H
	DB	020H
	DB	0e3H
	DB	018H
	DB	0e4H
	DB	020H
	DB	0e3H
	DB	018H
	DB	0e3H
	DB	018H
	DB	0e4H
	DB	020H
	DB	0e4H
	DB	020H
	DB	0e3H
	DB	018H
	DB	0e4H
	DB	020H
	DB	0e4H
	DB	020H
	DB	0e3H
	DB	018H
	DB	0e4H
	DB	020H
	DB	0e3H
	DB	018H
	DB	0e4H
	DB	020H
	DB	0e4H
	DB	020H
	DB	0e3H
	DB	018H
	DB	0e4H
	DB	020H
	DB	0e3H
	DB	018H
	DB	0e4H
	DB	020H
	DB	0e4H
	DB	020H
	DB	0e4H
	DB	020H
	DB	0e3H
	DB	018H
	DB	0e4H
	DB	020H
	DB	0e4H
	DB	020H
	DB	0e3H
	DB	018H
	DB	0e3H
	DB	018H
	DB	0e4H
	DB	020H
	DB	0e3H
	DB	018H
	DB	0e4H
	DB	020H
	DB	0e4H
	DB	020H
	DB	0e3H
	DB	018H
	DB	0e4H
	DB	020H
	DB	0e3H
	DB	018H
	DB	0e4H
	DB	020H
	DB	0e4H
	DB	020H
	DB	0e3H
	DB	018H
	DB	0e4H
	DB	020H
	DB	0e3H
	DB	018H
	DB	0e4H
	DB	020H
	DB	0e4H
	DB	020H
	DB	0e3H
	DB	018H
	DB	0e4H
	DB	020H
	DB	0e4H
	DB	020H
	DB	0e3H
	DB	018H
	DB	0e4H
	DB	020H
	DB	0e3H
	DB	018H
	DB	0e3H
	DB	018H
	DB	0e4H
	DB	020H
	DB	0e4H
	DB	020H
	DB	0e3H
	DB	018H
	DB	0e4H
	DB	020H
	DB	0e4H
	DB	020H
	DB	0e3H
	DB	018H
	DB	0e4H
	DB	020H
	DB	0e3H
	DB	018H
	DB	0e4H
	DB	020H
	DB	0e4H
	DB	020H
	DB	0e3H
	DB	018H
	DB	0e4H
	DB	020H
	DB	0e3H
	DB	018H
	DB	0e4H
	DB	020H
	DB	0e4H
	DB	020H
	DB	0e4H
	DB	020H
	DB	0e3H
	DB	018H
	DB	0e4H
	DB	020H
	DB	0e4H
	DB	020H
	DB	0e3H
	DB	018H
	DB	0e3H
	DB	018H
	DB	0e4H
	DB	020H
	DB	0e3H
	DB	018H
	DB	0e4H
	DB	020H
	DB	0e4H
	DB	020H
	DB	0e3H
	DB	018H
	DB	0e4H
	DB	020H
	DB	0e3H
	DB	018H
	DB	0e4H
	DB	020H
	DB	0e4H
	DB	020H
	DB	0e3H
	DB	018H
	DB	0e4H
	DB	020H
	DB	0e3H
	DB	018H
	DB	0e4H
	DB	020H
	DB	0e4H
	DB	020H
	DB	0e3H
	DB	018H
	DB	0e4H
	DB	020H
	DB	0e4H
	DB	020H
	DB	0e3H
	DB	018H
	DB	0e4H
	DB	020H
	DB	0e3H
	DB	018H
	DB	0e3H
	DB	018H
	DB	0e4H
	DB	020H
	DB	0e4H
	DB	020H
	DB	0e3H
	DB	018H
	DB	0e4H
	DB	020H
	DB	0e4H
	DB	020H
	DB	0e3H
	DB	018H
	DB	0e4H
	DB	020H
	DB	0e3H
	DB	018H
	DB	0e4H
	DB	020H
	DB	0e4H
	DB	020H
	DB	0e3H
	DB	018H
	DB	0e4H
	DB	020H
	DB	0e3H
	DB	018H
	DB	0e4H
	DB	020H
	DB	0e4H
	DB	020H
	DB	0e4H
	DB	020H
	DB	0e3H
	DB	018H
	DB	0e4H
	DB	020H
	DB	0e4H
	DB	020H
	DB	0e3H
	DB	018H
	DB	0e3H
	DB	018H
	DB	0e4H
	DB	020H
	DB	0e3H
	DB	018H
	DB	0e4H
	DB	020H
	DB	0e4H
	DB	020H
	DB	0e3H
	DB	018H
	DB	0e4H
	DB	020H
	DB	0e3H
	DB	018H
	DB	0e4H
	DB	020H
	DB	0e4H
	DB	020H
	DB	0e3H
	DB	018H
	DB	0e4H
	DB	020H
	DB	0e3H
	DB	018H
	DB	0e4H
	DB	020H
	DB	0e4H
	DB	020H
	DB	0e3H
	DB	018H
	DB	0e4H
	DB	020H
	DB	0e4H
	DB	020H
	DB	0e3H
	DB	018H
	DB	0e4H
	DB	020H
	DB	0e3H
	DB	018H
	DB	0e3H
	DB	018H
	DB	0e4H
	DB	020H
	DB	0e4H
	DB	020H
	DB	0e3H
	DB	018H
	DB	0e4H
	DB	020H
	DB	0e4H
	DB	020H
	DB	0e3H
	DB	018H
	DB	0e4H
	DB	020H
	DB	0e3H
	DB	018H
	DB	0e4H
	DB	020H
	DB	0e4H
	DB	020H
	DB	0e3H
	DB	018H
	DB	0e4H
	DB	020H
	DB	0e3H
	DB	018H
	DB	0e4H
	DB	020H
	DB	0e4H
	DB	020H
	DB	0e4H
	DB	020H
	DB	0e3H
	DB	018H
	DB	0e4H
	DB	020H
	DB	0e4H
	DB	020H
	DB	0e3H
	DB	018H
	DB	0e3H
	DB	018H
	DB	0e4H
	DB	020H
	DB	0e4H
	DB	020H
	DB	0e3H
	DB	018H
	DB	0e4H
	DB	020H
	DB	0e4H
	DB	020H
	DB	0e3H
	DB	018H
	DB	0e4H
	DB	020H
	DB	0e4H
	DB	020H
	DB	0e4H
	DB	020H
	DB	0e3H
	DB	018H
	DB	0e4H
	DB	020H
	DB	0e4H
	DB	020H
	DB	0e3H
	DB	018H
	DB	0e4H
	DB	020H
	DB	0e4H
	DB	020H
	DB	0e3H
	DB	018H
	DB	0e4H
	DB	020H
	DB	0e3H
	DB	018H
	DB	0e3H
	DB	018H
	DB	0c3H
	DB	018H
	DB	0c4H
	DB	020H
	DB	0e3H
	DB	018H
	DB	0c3H
	DB	018H
	DB	0e4H
	DB	020H
	DB	0c3H
	DB	018H
	DB	0e3H
	DB	018H
	DB	0e3H
	DB	018H
	DB	0c4H
	DB	020H
	DB	0e3H
	DB	018H
	DB	0e3H
	DB	018H
	DB	0c3H
	DB	018H
	DB	0e3H
	DB	018H
	DB	0e4H
	DB	020H
	DB	0c3H
	DB	018H
	DB	0e3H
	DB	018H
	DB	0e4H
	DB	020H
	DB	0c3H
	DB	018H
	DB	0e3H
	DB	018H
	DB	0e4H
	DB	020H
	DB	0c3H
	DB	018H
	DB	0e3H
	DB	018H
	DB	0e3H
	DB	018H
	DB	0c4H
	DB	020H
	DB	0e3H
	DB	018H
	DB	0e3H
	DB	018H
	DB	0c3H
	DB	018H
	DB	0e4H
	DB	020H
	DB	0e3H
	DB	018H
	DB	0c3H
	DB	018H
	DB	0e4H
	DB	020H
	DB	0e3H
	DB	018H
	DB	0c4H
	DB	020H
	DB	0e3H
	DB	018H
	DB	0c3H
	DB	018H
	DB	0e4H
	DB	020H
	DB	0c3H
	DB	018H
	DB	0e4H
	DB	020H
	DB	0c3H
	DB	018H
	DB	0e3H
	DB	018H
	DB	0c3H
	DB	018H
	DB	0e4H
	DB	020H
	DB	0c3H
	DB	018H
	DB	0e3H
	DB	018H
	DB	0c3H
	DB	018H
	DB	0e4H
	DB	020H
	DB	0e3H
	DB	018H
	DB	0c3H
	DB	018H
	DB	0e3H
	DB	018H
	DB	0e3H
	DB	018H
	DB	0c3H
	DB	018H
	DB	0e4H
	DB	020H
	DB	0c3H
	DB	018H
	DB	0e4H
	DB	020H
	DB	0c3H
	DB	018H
	DB	0e3H
	DB	018H
	DB	0c4H
	DB	020H
	DB	0e3H
	DB	018H
	DB	0c3H
	DB	018H
	DB	0e4H
	DB	020H
	DB	0c3H
	DB	018H
	DB	0e3H
	DB	018H
	DB	0e3H
	DB	018H
	DB	0c4H
	DB	020H
	DB	0e3H
	DB	018H
	DB	0c3H
	DB	018H
	DB	0e3H
	DB	018H
	DB	0c4H
	DB	020H
	DB	0e3H
	DB	018H
	DB	0c3H
	DB	018H
	DB	0e3H
	DB	018H
	DB	0c3H
	DB	018H
	DB	0e4H
	DB	020H
	DB	0c3H
	DB	018H
	DB	0e3H
	DB	018H
	DB	0c3H
	DB	018H
	DB	0e3H
	DB	018H
	DB	0e3H
	DB	018H
	DB	0c4H
	DB	020H
	DB	0e3H
	DB	018H
	DB	0c3H
	DB	018H
	DB	0e4H
	DB	020H
	DB	0c3H
	DB	018H
	DB	0e3H
	DB	018H
	DB	0c4H
	DB	020H
	DB	0e3H
	DB	018H
	DB	0c3H
	DB	018H
	DB	0e4H
	DB	020H
	DB	0c3H
	DB	018H
	DB	0e3H
	DB	018H
	DB	0c3H
	DB	018H
	DB	0e3H
	DB	018H
	DB	0e4H
	DB	020H
	DB	0c3H
	DB	018H
	DB	0e3H
	DB	018H
	DB	0c3H
	DB	018H
	DB	0e3H
	DB	018H
	DB	0c4H
	DB	020H
	DB	0e3H
	DB	018H
	DB	0c3H
	DB	018H
	DB	0e4H
	DB	020H
	DB	0c4H
	DB	020H
	DB	0e3H
	DB	018H
	DB	0c3H
	DB	018H
	DB	0e3H
	DB	018H
	DB	0c3H
	DB	018H
	DB	0e3H
	DB	018H
	DB	0e4H
	DB	020H
	DB	0c3H
	DB	018H
	DB	0e3H
	DB	018H
	DB	0c4H
	DB	020H
	DB	0e3H
	DB	018H
	DB	0c3H
	DB	018H
	DB	0e3H
	DB	018H
	DB	0c4H
	DB	020H
	DB	0e3H
	DB	018H
	DB	0c3H
	DB	018H
	DB	0e3H
	DB	018H
	DB	0c3H
	DB	018H
	DB	0e3H
	DB	018H
	DB	0c4H
	DB	020H
	DB	0e3H
	DB	018H
	DB	0e3H
	DB	018H
	DB	0c4H
	DB	020H
	DB	0e3H
	DB	018H
	DB	0c3H
	DB	018H
	DB	0e4H
	DB	020H
	DB	0c3H
	DB	018H
	DB	0e3H
	DB	018H
	DB	0c4H
	DB	020H
	DB	0e3H
	DB	018H
	DB	0c3H
	DB	018H
	DB	0e3H
	DB	018H
	DB	0c3H
	DB	018H
	DB	0e4H
	DB	020H
	DB	0c3H
	DB	018H
	DB	0e3H
	DB	018H
	DB	0e3H
	DB	018H
	DB	0c3H
	DB	018H
	DB	0e4H
	DB	020H
	DB	0c3H
	DB	018H
	DB	0e3H
	DB	018H
	DB	0c4H
	DB	020H
	DB	0e4H
	DB	020H
	DB	0c3H
	DB	018H
	DB	0e3H
	DB	018H
	DB	0c3H
	DB	018H
	DB	0e3H
	DB	018H
	DB	0c3H
	DB	018H
	DB	0e4H
	DB	020H
	DB	0c3H
	DB	018H
	DB	0e3H
	DB	018H
	DB	0e4H
	DB	020H
	DB	0c3H
	DB	018H
	DB	0e3H
	DB	018H
	DB	0c3H
	DB	018H
	DB	0e4H
	DB	020H
	DB	0c3H
	DB	018H
	DB	0e3H
	DB	018H
	DB	0c3H
	DB	018H
	DB	0e3H
	DB	018H
	DB	0c3H
	DB	018H
	DB	0e4H
	DB	020H
	DB	0c3H
	DB	018H
	DB	0e3H
	DB	018H
	DB	0c4H
	DB	020H
	DB	0e3H
	DB	018H
	DB	0e3H
	DB	018H
	DB	0c4H
	DB	020H
	DB	0e3H
	DB	018H
	DB	0c3H
	DB	018H
	DB	0e4H
	DB	020H
	DB	0c3H
	DB	018H
	DB	0e3H
	DB	018H
	DB	0c3H
	DB	018H
	DB	0e3H
	DB	018H
	DB	0c4H
	DB	020H
	DB	0e3H
	DB	018H
	DB	0c3H
	DB	018H
	DB	0e3H
	DB	018H
	DB	0c3H
	DB	018H
	DB	0e4H
	DB	020H
	DB	0e3H
	DB	018H
	DB	0c3H
	DB	018H
	DB	0e4H
	DB	020H
	DB	0c4H
	DB	020H
	DB	0e3H
	DB	018H
	DB	0c3H
	DB	018H
	DB	0e3H
	DB	018H
	DB	0c3H
	DB	018H
	DB	0e3H
	DB	018H
	DB	0c4H
	DB	020H
	DB	0e3H
	DB	018H
	DB	0c3H
	DB	018H
	DB	0e4H
	DB	020H
	DB	0c3H
	DB	018H
	DB	0e3H
	DB	018H
	DB	0e3H
	DB	018H
	DB	0c4H
	DB	020H
	DB	0e3H
	DB	018H
	DB	0c3H
	DB	018H
	DB	0e3H
	DB	018H
	DB	0c3H
	DB	018H
	DB	0e3H
	DB	018H
	DB	0c4H
	DB	020H
	DB	0e3H
	DB	018H
	DB	0c3H
	DB	018H
	DB	0e4H
	DB	020H
	DB	0c3H
	DB	018H
	DB	0e3H
	DB	018H
	DB	0c4H
	DB	020H
	DB	0e3H
	DB	018H
	DB	0e3H
	DB	018H
	DB	0c4H
	DB	020H
	DB	0e3H
	DB	018H
	DB	0c3H
	DB	018H
	DB	0e3H
	DB	018H
	DB	0c3H
	DB	018H
	DB	0e4H
	DB	020H
	DB	0c3H
	DB	018H
	DB	0e3H
	DB	018H
	DB	0c3H
	DB	018H
	DB	0e3H
	DB	018H
	DB	0c4H
	DB	020H
	DB	0e3H
	DB	018H
	DB	0c3H
	DB	018H
	DB	0e4H
	DB	020H
	DB	0e4H
	DB	020H
	DB	0c3H
	DB	018H
	DB	0e3H
	DB	018H
	DB	0c3H
	DB	018H
	DB	0e3H
	DB	018H
	DB	0c3H
	DB	018H
	DB	0e4H
	DB	020H
	DB	0c3H
	DB	018H
	DB	0e3H
	DB	018H
	DB	0c4H
	DB	020H
	DB	0e3H
	DB	018H
	DB	0c3H
	DB	018H
	DB	0e3H
	DB	018H
	DB	0c4H
	DB	020H
	DB	0e3H
	DB	018H
	DB	0e3H
	DB	018H
	DB	0c3H
	DB	018H
	DB	0e3H
	DB	018H
	DB	0c3H
	DB	018H
	DB	0e4H
	DB	020H
	DB	0c3H
	DB	018H
	DB	0e3H
	DB	018H
	DB	0c4H
	DB	020H
	DB	0e3H
	DB	018H
	DB	0c3H
	DB	018H
	DB	0e4H
	DB	020H
	DB	0c3H
	DB	018H
	DB	0e3H
	DB	018H
	DB	0c4H
	DB	020H
	DB	0e3H
	DB	018H
	DB	0e3H
	DB	018H
	DB	0c3H
	DB	018H
	DB	0e3H
	DB	018H
	DB	0c4H
	DB	020H
	DB	0e3H
	DB	018H
	DB	0c3H
	DB	018H
	DB	0e3H
	DB	018H
	DB	0c3H
	DB	018H
	DB	0e4H
	DB	020H
	DB	0c3H
	DB	018H
	DB	0e3H
	DB	018H
	DB	0c4H
	DB	020H
	DB	0e4H
	DB	020H
	DB	0c3H
	DB	018H
	DB	0e3H
	DB	018H
	DB	0e3H
	DB	018H
	DB	0c3H
	DB	018H
	DB	0e3H
	DB	018H
	DB	0c4H
	DB	020H
	DB	0e3H
	DB	018H
	DB	0c3H
	DB	018H
	DB	0e4H
	DB	020H
	DB	0c3H
	DB	018H
	DB	0e3H
	DB	018H
	DB	0c3H
	DB	018H
	DB	0e4H
	DB	020H
	DB	0c3H
	DB	018H
	DB	0e3H
	DB	018H
	DB	0c3H
	DB	018H
	DB	0e3H
	DB	018H
	DB	0e3H
	DB	018H
	DB	0c4H
	DB	020H
	DB	0e3H
	DB	018H
	DB	0c3H
	DB	018H
	DB	0e4H
	DB	020H
	DB	0c3H
	DB	018H
	DB	0e3H
	DB	018H
	DB	0c4H
	DB	020H
	DB	0e3H
	DB	018H
	DB	0c3H
	DB	018H
	DB	0e4H
	DB	020H
	DB	0c3H
	DB	018H
	DB	0e3H
	DB	018H
	DB	0c3H
	DB	018H
	DB	0e3H
	DB	018H
	DB	0e4H
	DB	020H
	DB	0c3H
	DB	018H
	DB	0e3H
	DB	018H
	DB	0c3H
	DB	018H
	DB	0e3H
	DB	018H
	DB	0c4H
	DB	020H
	DB	0e3H
	DB	018H
	DB	0c3H
	DB	018H
	DB	0e4H
	DB	020H
	DB	0c4H
	DB	020H
	DB	0e3H
	DB	018H
	DB	0c3H
	DB	018H
	DB	0e3H
	DB	018H
	DB	0c3H
	DB	018H
	DB	0e3H
	DB	018H
	DB	0e4H
	DB	020H
	DB	0c3H
	DB	018H
	DB	0e3H
	DB	018H
	DB	0c4H
	DB	020H
	DB	0e3H
	DB	018H
	DB	0c3H
	DB	018H
	DB	0e3H
	DB	018H
	DB	0c4H
	DB	020H
	DB	0e3H
	DB	018H
	DB	0c3H
	DB	018H
	DB	0e3H
	DB	018H
	DB	0c3H
	DB	018H
	DB	0e3H
	DB	018H
	DB	0c4H
	DB	020H
	DB	0e3H
	DB	018H
	DB	0e3H
	DB	018H
	DB	0c4H
	DB	020H
	DB	0e3H
	DB	018H
	DB	0c3H
	DB	018H
	DB	0e4H
	DB	020H
	DB	0c3H
	DB	018H
	DB	0e3H
	DB	018H
	DB	0c4H
	DB	020H
	DB	0e3H
	DB	018H
	DB	0c3H
	DB	018H
	DB	0e3H
	DB	018H
	DB	0c3H
	DB	018H
	DB	0e4H
	DB	020H
	DB	0c3H
	DB	018H
	DB	0e3H
	DB	018H
	DB	0e3H
	DB	018H
	DB	0c3H
	DB	018H
	DB	0e4H
	DB	020H
	DB	0c3H
	DB	018H
	DB	0e3H
	DB	018H
	DB	0c4H
	DB	020H
	DB	0e4H
	DB	020H
	DB	0c3H
	DB	018H
	DB	0e3H
	DB	018H
	DB	0c3H
	DB	018H
	DB	0e3H
	DB	018H
	DB	0c3H
	DB	018H
	DB	0e4H
	DB	020H
	DB	0c3H
	DB	018H
	DB	0e3H
	DB	018H
	DB	0e4H
	DB	020H
	DB	0c3H
	DB	018H
	DB	0e3H
	DB	018H
	DB	0c3H
	DB	018H
	DB	0e4H
	DB	020H
	DB	0c3H
	DB	018H
	DB	0e3H
	DB	018H
	DB	0c3H
	DB	018H
	DB	0e3H
	DB	018H
	DB	0c3H
	DB	018H
	DB	0e4H
	DB	020H
	DB	0c3H
	DB	018H
	DB	0e3H
	DB	018H
	DB	0c4H
	DB	020H
	DB	0e3H
	DB	018H
	DB	0e3H
	DB	018H
	DB	0c4H
	DB	020H
	DB	0e3H
	DB	018H
	DB	0c3H
	DB	018H
	DB	0e4H
	DB	020H
	DB	0c3H
	DB	018H
	DB	0e3H
	DB	018H
	DB	0c3H
	DB	018H
	DB	0e3H
	DB	018H
	DB	0c4H
	DB	020H
	DB	0e3H
	DB	018H
	DB	0c3H
	DB	018H
	DB	0e3H
	DB	018H
	DB	0c3H
	DB	018H
	DB	0e4H
	DB	020H
	DB	0e3H
	DB	018H
	DB	0c3H
	DB	018H
	DB	0e4H
	DB	020H
	DB	0c4H
	DB	020H
	DB	0e3H
	DB	018H
	DB	0c3H
	DB	018H
	DB	0e3H
	DB	018H
	DB	0c3H
	DB	018H
	DB	0e3H
	DB	018H
	DB	0c4H
	DB	020H
	DB	0e3H
	DB	018H
	DB	0c3H
	DB	018H
	DB	0e4H
	DB	020H
	DB	0c3H
	DB	018H
	DB	0e3H
	DB	018H
	DB	0e3H
	DB	018H
	DB	0c4H
	DB	020H
	DB	0e3H
	DB	018H
	DB	0c3H
	DB	018H
	DB	0e3H
	DB	018H
	DB	0c3H
	DB	018H
	DB	0e3H
	DB	018H
	DB	0c4H
	DB	020H
	DB	0e3H
	DB	018H
	DB	0c3H
	DB	018H
	DB	0e4H
	DB	020H
	DB	0c3H
	DB	018H
	DB	0e3H
	DB	018H
	DB	0c4H
	DB	020H
	DB	0e3H
	DB	018H
	DB	0e3H
	DB	018H
	DB	0c4H
	DB	020H
	DB	0e3H
	DB	018H
	DB	0c3H
	DB	018H
	DB	0e3H
	DB	018H
	DB	0c3H
	DB	018H
	DB	0e4H
	DB	020H
	DB	0c3H
	DB	018H
	DB	0e3H
	DB	018H
	DB	0c3H
	DB	018H
	DB	0e3H
	DB	018H
	DB	0c4H
	DB	020H
	DB	0e3H
	DB	018H
	DB	0c3H
	DB	018H
	DB	0e4H
	DB	020H
	DB	0e4H
	DB	020H
	DB	0c3H
	DB	018H
	DB	0e3H
	DB	018H
	DB	0c3H
	DB	018H
	DB	0e3H
	DB	018H
	DB	0c3H
	DB	018H
	DB	0e4H
	DB	020H
	DB	0c3H
	DB	018H
	DB	0e3H
	DB	018H
	DB	0c4H
	DB	020H
	DB	0e3H
	DB	018H
	DB	0c3H
	DB	018H
	DB	0e3H
	DB	018H
	DB	0c4H
	DB	020H
	DB	0e3H
	DB	018H
	DB	0e3H
	DB	018H
	DB	0c3H
	DB	018H
	DB	0e3H
	DB	018H
	DB	0c3H
	DB	018H
	DB	0e4H
	DB	020H
	DB	0c3H
	DB	018H
	DB	0e3H
	DB	018H
	DB	0c4H
	DB	020H
	DB	0e3H
	DB	018H
	DB	0c3H
	DB	018H
	DB	0e3H
	DB	018H
	DB	0c3H
	DB	018H
	DB	0e4H
	DB	020H
	DB	0c3H
	DB	018H
	DB	0c3H
	DB	018H
	DB	0e4H
	DB	020H
	DB	0c3H
	DB	018H
	DB	0e3H
	DB	018H
	DB	0c4H
	DB	020H
	DB	0c3H
	DB	018H
	DB	0e3H
	DB	018H
	DB	0c4H
	DB	020H
	DB	0e3H
	DB	018H
	DB	0c3H
	DB	018H
	DB	0c4H
	DB	020H
	DB	0e3H
	DB	018H
	DB	0e3H
	DB	018H
	DB	0c3H
	DB	018H
	DB	0c3H
	DB	018H
	DB	0e3H
	DB	018H
	DB	0c3H
	DB	018H
	DB	0c3H
	DB	018H
	DB	0c3H
	DB	018H
	DB	0c4H
	DB	020H
	DB	0c3H
	DB	018H
	DB	0c3H
	DB	018H
	DB	0c3H
	DB	018H
	DB	0c3H
	DB	018H
	DB	0c3H
	DB	018H
	DB	0c3H
	DB	018H
	DB	0c3H
	DB	018H
	DB	0c3H
	DB	018H
	DB	0c3H
	DB	018H
	DB	0c3H
	DB	018H
	DB	0c3H
	DB	018H
	DB	0c3H
	DB	018H
	DB	0c3H
	DB	018H
	DB	0c3H
	DB	018H
	DB	0c3H
	DB	018H
	DB	0c3H
	DB	018H
	DB	0c3H
	DB	018H
	DB	0c3H
	DB	018H
	DB	0c3H
	DB	018H
	DB	0c3H
	DB	018H
	DB	0c3H
	DB	018H
	DB	0c3H
	DB	018H
	DB	0c3H
	DB	018H
	DB	0c3H
	DB	018H
	DB	0c3H
	DB	018H
	DB	0c3H
	DB	018H
	DB	0c3H
	DB	018H
	DB	0c3H
	DB	018H
	DB	0e3H
	DB	018H
	DB	0c3H
	DB	018H
	DB	0c3H
	DB	018H
	DB	0c3H
	DB	018H
	DB	0e3H
	DB	018H
	DB	0c3H
	DB	018H
	DB	0c3H
	DB	018H
	DB	0c3H
	DB	018H
	DB	0e3H
	DB	018H
	DB	0c3H
	DB	018H
	DB	0c3H
	DB	018H
	DB	0c3H
	DB	018H
	DB	0c3H
	DB	018H
	DB	0c3H
	DB	018H
	DB	0c3H
	DB	018H
	DB	0c3H
	DB	018H
	DB	0c3H
	DB	018H
	DB	0c3H
	DB	018H
	DB	0e3H
	DB	018H
	DB	0c3H
	DB	018H
	DB	0c3H
	DB	018H
	DB	0c3H
	DB	018H
	DB	0e3H
	DB	018H
	DB	0c3H
	DB	018H
	DB	0c3H
	DB	018H
	DB	0c3H
	DB	018H
	DB	0c3H
	DB	018H
	DB	0c3H
	DB	018H
	DB	0c3H
	DB	018H
	DB	0c3H
	DB	018H
	DB	0c3H
	DB	018H
	DB	0e3H
	DB	018H
	DB	0c3H
	DB	018H
	DB	0c3H
	DB	018H
	DB	0c3H
	DB	018H
	DB	0e4H
	DB	020H
	DB	0c3H
	DB	018H
	DB	0c3H
	DB	018H
	DB	0c3H
	DB	018H
	DB	0e3H
	DB	018H
	DB	0c3H
	DB	018H
	DB	0c4H
	DB	020H
	DB	0c3H
	DB	018H
	DB	0c3H
	DB	018H
	DB	0c3H
	DB	018H
	DB	0c3H
	DB	018H
	DB	0e3H
	DB	018H
	DB	0c3H
	DB	018H
	DB	0c3H
	DB	018H
	DB	0c3H
	DB	018H
	DB	0e3H
	DB	018H
	DB	0c3H
	DB	018H
	DB	0c3H
	DB	018H
	DB	0c3H
	DB	018H
	DB	0e3H
	DB	018H
	DB	0c4H
	DB	020H
	DB	0c3H
	DB	018H
	DB	0c3H
	DB	018H
	DB	0c3H
	DB	018H
	DB	0c3H
	DB	018H
	DB	0c3H
	DB	018H
	DB	0e3H
	DB	018H
	DB	0c3H
	DB	018H
	DB	0c3H
	DB	018H
	DB	0c3H
	DB	018H
	DB	0e3H
	DB	018H
	DB	0c3H
	DB	018H
	DB	0c3H
	DB	018H
	DB	0c3H
	DB	018H
	DB	0e4H
	DB	020H
	DB	0c3H
	DB	018H
	DB	0c3H
	DB	018H
	DB	0c3H
	DB	018H
	DB	0c3H
	DB	018H
	DB	0c3H
	DB	018H
	DB	0c3H
	DB	018H
	DB	0e3H
	DB	018H
	DB	0c3H
	DB	018H
	DB	0c3H
	DB	018H
	DB	0c3H
	DB	018H
	DB	0e3H
	DB	018H
	DB	0c3H
	DB	018H
	DB	0c3H
	DB	018H
	DB	0c4H
	DB	020H
	DB	0e3H
	DB	018H
	DB	0c3H
	DB	018H
	DB	0c3H
	DB	018H
	DB	0c3H
	DB	018H
	DB	0c3H
	DB	018H
	DB	0c3H
	DB	018H
	DB	0c3H
	DB	018H
	DB	0e3H
	DB	018H
	DB	0c3H
	DB	018H
	DB	0c3H
	DB	018H
	DB	0c3H
	DB	018H
	DB	0e3H
	DB	018H
	DB	0c3H
	DB	018H
	DB	0c4H
	DB	020H
	DB	0c3H
	DB	018H
	DB	0e3H
	DB	018H
	DB	0c3H
	DB	018H
	DB	0c3H
	DB	018H
	DB	0c3H
	DB	018H
	DB	0c3H
	DB	018H
	DB	0c3H
	DB	018H
	DB	0c3H
	DB	018H
	DB	0e3H
	DB	018H
	DB	0c3H
	DB	018H
	DB	0c3H
	DB	018H
	DB	0c3H
	DB	018H
	DB	0e3H
	DB	018H
	DB	0c4H
	DB	020H
	DB	0c3H
	DB	018H
	DB	0c3H
	DB	018H
	DB	0e3H
	DB	018H
	DB	0c3H
	DB	018H
	DB	0c3H
	DB	018H
	DB	0c3H
	DB	018H
	DB	0c3H
	DB	018H
	DB	0c3H
	DB	018H
	DB	0c3H
	DB	018H
	DB	0e3H
	DB	018H
	DB	0c3H
	DB	018H
	DB	0c3H
	DB	018H
	DB	0c3H
	DB	018H
	DB	0e4H
	DB	020H
	DB	0c3H
	DB	018H
	DB	0c3H
	DB	018H
	DB	0c3H
	DB	018H
	DB	0e3H
	DB	018H
	DB	0c3H
	DB	018H
	DB	0c3H
	DB	018H
	DB	0c3H
	DB	018H
	DB	0c3H
	DB	018H
	DB	0c3H
	DB	018H
	DB	0c3H
	DB	018H
	DB	0e3H
	DB	018H
	DB	0c3H
	DB	018H
	DB	0c3H
	DB	018H
	DB	0c4H
	DB	020H
	DB	0e3H
	DB	018H
	DB	0c3H
	DB	018H
	DB	0c3H
	DB	018H
	DB	0c3H
	DB	018H
	DB	0e3H
	DB	018H
	DB	0c3H
	DB	018H
	DB	0c3H
	DB	018H
	DB	0c3H
	DB	018H
	DB	0c3H
	DB	018H
	DB	0c3H
	DB	018H
	DB	0c3H
	DB	018H
	DB	0e3H
	DB	018H
	DB	0c3H
	DB	018H
	DB	0c4H
	DB	020H
	DB	0c3H
	DB	018H
	DB	0e3H
	DB	018H
	DB	0c3H
	DB	018H
	DB	0c3H
	DB	018H
	DB	0c3H
	DB	018H
	DB	0e3H
	DB	018H
	DB	0c3H
	DB	018H
	DB	0c3H
	DB	018H
	DB	0c3H
	DB	018H
	DB	0c3H
	DB	018H
	DB	0c3H
	DB	018H
	DB	0c3H
	DB	018H
	DB	0e3H
	DB	018H
	DB	0c4H
	DB	020H
	DB	0c3H
	DB	018H
	DB	0c3H
	DB	018H
	DB	0e3H
	DB	018H
	DB	0c3H
	DB	018H
	DB	0c3H
	DB	018H
	DB	0c3H
	DB	018H
	DB	0e3H
	DB	018H
	DB	0c3H
	DB	018H
	DB	0c3H
	DB	018H
	DB	0c3H
	DB	018H
	DB	0c3H
	DB	018H
	DB	0c3H
	DB	018H
	DB	0c3H
	DB	018H
	DB	0e4H
	DB	020H
	DB	0c3H
	DB	018H
	DB	0c3H
	DB	018H
	DB	0c3H
	DB	018H
	DB	0e3H
	DB	018H
	DB	0c3H
	DB	018H
	DB	0c3H
	DB	018H
	DB	0c3H
	DB	018H
	DB	0e3H
	DB	018H
	DB	0c3H
	DB	018H
	DB	0c3H
	DB	018H
	DB	0c3H
	DB	018H
	DB	0c3H
	DB	018H
	DB	0c3H
	DB	018H
	DB	0c4H
	DB	020H
	DB	0e3H
	DB	018H
	DB	0c3H
	DB	018H
	DB	0c3H
	DB	018H
	DB	0c3H
	DB	018H
	DB	0e3H
	DB	018H
	DB	0c3H
	DB	018H
	DB	0c3H
	DB	018H
	DB	0c3H
	DB	018H
	DB	0e3H
	DB	018H
	DB	0c3H
	DB	018H
	DB	0c3H
	DB	018H
	DB	0c3H
	DB	018H
	DB	0c3H
	DB	018H
	DB	0c4H
	DB	020H
	DB	0c3H
	DB	018H
	DB	0e3H
	DB	018H
	DB	0c3H
	DB	018H
	DB	0c3H
	DB	018H
	DB	0c3H
	DB	018H
	DB	0e3H
	DB	018H
	DB	0c3H
	DB	018H
	DB	0c3H
	DB	018H
	DB	0c3H
	DB	018H
	DB	0e3H
	DB	018H
	DB	0c3H
	DB	018H
	DB	0c3H
	DB	018H
	DB	0c3H
	DB	018H
	DB	0c4H
	DB	020H
	DB	0c3H
	DB	018H
	DB	0c3H
	DB	018H
	DB	0e3H
	DB	018H
	DB	0c3H
	DB	018H
	DB	0c3H
	DB	018H
	DB	0c3H
	DB	018H
	DB	0e3H
	DB	018H
	DB	0c3H
	DB	018H
	DB	0c3H
	DB	018H
	DB	0c3H
	DB	018H
	DB	0e3H
	DB	018H
	DB	0c3H
	DB	018H
	DB	0c3H
	DB	018H
	DB	0c4H
	DB	020H
	DB	0c3H
	DB	018H
	DB	0c3H
	DB	018H
	DB	0c3H
	DB	018H
	DB	0e3H
	DB	018H
	DB	0c3H
	DB	018H
	DB	0c3H
	DB	018H
	DB	0c3H
	DB	018H
	DB	0e3H
	DB	018H
	DB	0c3H
	DB	018H
	DB	0c3H
	DB	018H
	DB	0c3H
	DB	018H
	DB	0e3H
	DB	018H
	DB	0c3H
	DB	018H
	DB	0c4H
	DB	020H
	DB	0c3H
	DB	018H
	DB	0c3H
	DB	018H
	DB	0c3H
	DB	018H
	DB	0c3H
	DB	018H
	DB	0e3H
	DB	018H
	DB	0c3H
	DB	018H
	DB	0c3H
	DB	018H
	DB	0c3H
	DB	018H
	DB	0e3H
	DB	018H
	DB	0c3H
	DB	018H
	DB	0c3H
	DB	018H
	DB	0c3H
	DB	018H
	DB	0e3H
	DB	018H
	DB	0c4H
	DB	020H
	DB	0c3H
	DB	018H
	DB	0c3H
	DB	018H
	DB	0c3H
	DB	018H
	DB	0c3H
	DB	018H
	DB	0c3H
	DB	018H
	DB	0e3H
	DB	018H
	DB	0c3H
	DB	018H
	DB	0c3H
	DB	018H
	DB	0c3H
	DB	018H
	DB	0e3H
	DB	018H
	DB	0c3H
	DB	018H
	DB	0c3H
	DB	018H
	DB	0c3H
	DB	018H
	DB	0e4H
	DB	020H
	DB	0c3H
	DB	018H
	DB	0c3H
	DB	018H
	DB	0c3H
	DB	018H
	DB	0c3H
	DB	018H
	DB	0c3H
	DB	018H
	DB	0c3H
	DB	018H
	DB	0e3H
	DB	018H
	DB	0c3H
	DB	018H
	DB	0c3H
	DB	018H
	DB	0c3H
	DB	018H
	DB	0e3H
	DB	018H
	DB	0c3H
	DB	018H
	DB	0c3H
	DB	018H
	DB	0c4H
	DB	020H
	DB	0e3H
	DB	018H
	DB	0c3H
	DB	018H
	DB	0c3H
	DB	018H
	DB	0c3H
	DB	018H
	DB	0c3H
	DB	018H
	DB	0c3H
	DB	018H
	DB	0c3H
	DB	018H
	DB	0e3H
	DB	018H
	DB	0c3H
	DB	018H
	DB	0c3H
	DB	018H
	DB	0c3H
	DB	018H
	DB	0e3H
	DB	018H
	DB	0c3H
	DB	018H
	DB	0c4H
	DB	020H
	DB	0c3H
	DB	018H
	DB	0e3H
	DB	018H
	DB	0c3H
	DB	018H
	DB	0c3H
	DB	018H
	DB	0c3H
	DB	018H
	DB	0c3H
	DB	018H
	DB	0c3H
	DB	018H
	DB	0c3H
	DB	018H
	DB	0e3H
	DB	018H
	DB	0c3H
	DB	018H
	DB	0c3H
	DB	018H
	DB	0c3H
	DB	018H
	DB	0e3H
	DB	018H
	DB	0c4H
	DB	020H
	DB	0c3H
	DB	018H
	DB	0c3H
	DB	018H
	DB	0e3H
	DB	018H
	DB	0c3H
	DB	018H
	DB	0c3H
	DB	018H
	DB	0c3H
	DB	018H
	DB	0c3H
	DB	018H
	DB	0c3H
	DB	018H
	DB	0c3H
	DB	018H
	DB	0e3H
	DB	018H
	DB	0c3H
	DB	018H
	DB	0c3H
	DB	018H
	DB	0c3H
	DB	018H
	DB	0e4H
	DB	020H
	DB	0c3H
	DB	018H
	DB	0c3H
	DB	018H
	DB	0c3H
	DB	018H
	DB	0e3H
	DB	018H
	DB	0c3H
	DB	018H
	DB	0c3H
	DB	018H
	DB	0c3H
	DB	018H
	DB	0c3H
	DB	018H
	DB	0c3H
	DB	018H
	DB	0c3H
	DB	018H
	DB	0e3H
	DB	018H
	DB	0c3H
	DB	018H
	DB	0c3H
	DB	018H
	DB	0c4H
	DB	020H
	DB	0e3H
	DB	018H
	DB	0c3H
	DB	018H
	DB	0c3H
	DB	018H
	DB	0c3H
	DB	018H
	DB	0e3H
	DB	018H
	DB	0c3H
	DB	018H
	DB	0c3H
	DB	018H
	DB	0c3H
	DB	018H
	DB	0c3H
	DB	018H
	DB	0c3H
	DB	018H
	DB	0c3H
	DB	018H
	DB	0e3H
	DB	018H
	DB	0c3H
	DB	018H
	DB	0c4H
	DB	020H
	DB	0c3H
	DB	018H
	DB	0e3H
	DB	018H
	DB	0c3H
	DB	018H
	DB	0c3H
	DB	018H
	DB	0c3H
	DB	018H
	DB	0e3H
	DB	018H
	DB	0c3H
	DB	018H
	DB	0c3H
	DB	018H
	DB	0c3H
	DB	018H
	DB	0c3H
	DB	018H
	DB	0c3H
	DB	018H
	DB	0c3H
	DB	018H
	DB	0e3H
	DB	018H
	DB	0c4H
	DB	020H
	DB	0c3H
	DB	018H
	DB	0c3H
	DB	018H
	DB	0e3H
	DB	018H
	DB	0c3H
	DB	018H
	DB	0c3H
	DB	018H
	DB	0c3H
	DB	018H
	DB	0e3H
	DB	018H
	DB	0c3H
	DB	018H
	DB	0c3H
	DB	018H
	DB	0c3H
	DB	018H
	DB	0c3H
	DB	018H
	DB	0c3H
	DB	018H
	DB	0c3H
	DB	018H
	DB	0e4H
	DB	020H
	DB	0c3H
	DB	018H
	DB	0c3H
	DB	018H
	DB	0c3H
	DB	018H
	DB	0e3H
	DB	018H
	DB	0c3H
	DB	018H
	DB	0c3H
	DB	018H
	DB	0c3H
	DB	018H
	DB	0e3H
	DB	018H
	DB	0c3H
	DB	018H
	DB	0c3H
	DB	018H
	DB	0c3H
	DB	018H
	DB	0c3H
	DB	018H
	DB	0c3H
	DB	018H
	DB	0c4H
	DB	020H
	DB	0e3H
	DB	018H
	DB	0c3H
	DB	018H
	DB	0c3H
	DB	018H
	DB	0c3H
	DB	018H
	DB	0e3H
	DB	018H
	DB	0c3H
	DB	018H
	DB	0c3H
	DB	018H
	DB	0c3H
	DB	018H
	DB	0e3H
	DB	018H
	DB	0c3H
	DB	018H
	DB	0c3H
	DB	018H
	DB	0c3H
	DB	018H
	DB	0c3H
	DB	018H
	DB	0c4H
	DB	020H
	DB	0c3H
	DB	018H
	DB	0e3H
	DB	018H
	DB	0c3H
	DB	018H
	DB	0c3H
	DB	018H
	DB	0c3H
	DB	018H
	DB	0e3H
	DB	018H
	DB	0c3H
	DB	018H
	DB	0c3H
	DB	018H
	DB	0c3H
	DB	018H
	DB	0e3H
	DB	018H
	DB	0c3H
	DB	018H
	DB	0c3H
	DB	018H
	DB	0e3H
	DB	018H
	DB	0c3H
	DB	018H
	DB	0c3H
	DB	018H
	DB	0e3H
	DB	018H
	DB	0c3H
	DB	018H
	DB	0c3H
	DB	018H
	DB	0e3H
	DB	018H
	DB	0c3H
	DB	018H
	DB	0c3H
	DB	018H
	DB	0e3H
	DB	018H
	DB	0c3H
	DB	018H
	DB	0c3H
	DB	018H
	DB	0c3H
	DB	018H
	DB	0c3H
	DB	018H
	DB	0e3H
	DB	018H
	DB	0e4H
	DB	020H
	DB	0e3H
	DB	018H
	DB	0e3H
	DB	018H
	DB	0e4H
	DB	020H
	DB	0e3H
	DB	018H
	DB	0e3H
	DB	018H
	DB	0e4H
	DB	020H
	DB	0e3H
	DB	018H
	DB	0e4H
	DB	020H
	DB	0e4H
	DB	020H
	DB	0e3H
	DB	018H
	DB	0e4H
	DB	020H
	DB	0e3H
	DB	018H
	DB	0e4H
	DB	020H
	DB	0e3H
	DB	018H
	DB	0e3H
	DB	018H
	DB	0e4H
	DB	020H
	DB	0e3H
	DB	018H
	DB	0e3H
	DB	018H
	DB	0e4H
	DB	020H
	DB	0e4H
	DB	020H
	DB	0e3H
	DB	018H
	DB	0e4H
	DB	020H
	DB	0e4H
	DB	020H
	DB	0e3H
	DB	018H
	DB	0e4H
	DB	020H
	DB	0e3H
	DB	018H
	DB	0e4H
	DB	020H
	DB	0e3H
	DB	018H
	DB	0e3H
	DB	018H
	DB	0e4H
	DB	020H
	DB	0e3H
	DB	018H
	DB	0c4H
	DB	020H
	DB	0e4H
	DB	020H
	DB	0e3H
	DB	018H
	DB	0e3H
	DB	018H
	DB	0c4H
	DB	020H
	DB	0e3H
	DB	018H
	DB	0e4H
	DB	020H
	DB	0e4H
	DB	020H
	DB	0c3H
	DB	018H
	DB	0e3H
	DB	018H
	DB	0e4H
	DB	020H
	DB	0e3H
	DB	018H
	DB	0e3H
	DB	018H
	DB	0e4H
	DB	020H
	DB	0e4H
	DB	020H
	DB	0e3H
	DB	018H
	DB	0e4H
	DB	020H
	DB	0e3H
	DB	018H
	DB	0c3H
	DB	018H
	DB	0e4H
	DB	020H
	DB	0e3H
	DB	018H
	DB	0c4H
	DB	020H
	DB	0e3H
	DB	018H
	DB	0e3H
	DB	018H
	DB	0c4H
	DB	020H
	DB	0e3H
	DB	018H
	DB	0e3H
	DB	018H
	DB	0e4H
	DB	020H
	DB	0e3H
	DB	018H
	DB	0e4H
	DB	020H
	DB	0e3H
	DB	018H
	DB	0c4H
	DB	020H
	DB	0e4H
	DB	020H
	DB	0e3H
	DB	018H
	DB	0e3H
	DB	018H
	DB	0c4H
	DB	020H
	DB	0e3H
	DB	018H
	DB	0e3H
	DB	018H
	DB	0c4H
	DB	020H
	DB	0e3H
	DB	018H
	DB	0e3H
	DB	018H
	DB	0c4H
	DB	020H
	DB	0e3H
	DB	018H
	DB	0e3H
	DB	018H
	DB	0e4H
	DB	020H
	DB	0e3H
	DB	018H
	DB	0c3H
	DB	018H
	DB	0e4H
	DB	020H
	DB	0e3H
	DB	018H
	DB	0e4H
	DB	020H
	DB	0c3H
	DB	018H
	DB	0e3H
	DB	018H
	DB	0e4H
	DB	020H
	DB	0c3H
	DB	018H
	DB	0e3H
	DB	018H
	DB	0e4H
	DB	020H
	DB	0c3H
	DB	018H
	DB	0e3H
	DB	018H
	DB	0e4H
	DB	020H
	DB	0e3H
	DB	018H
	DB	0e4H
	DB	020H
	DB	0c4H
	DB	020H
	DB	0e3H
	DB	018H
	DB	0e4H
	DB	020H
	DB	0e3H
	DB	018H
	DB	0c3H
	DB	018H
	DB	0e4H
	DB	020H
	DB	0e3H
	DB	018H
	DB	0c3H
	DB	018H
	DB	0e3H
	DB	018H
	DB	0e4H
	DB	020H
	DB	0c3H
	DB	018H
	DB	0e4H
	DB	020H
	DB	0e3H
	DB	018H
	DB	0e3H
	DB	018H
	DB	0e4H
	DB	020H
	DB	0c3H
	DB	018H
	DB	0e3H
	DB	018H
	DB	0e4H
	DB	020H
	DB	0e4H
	DB	020H
	DB	0c3H
	DB	018H
	DB	0e3H
	DB	018H
	DB	0e4H
	DB	020H
	DB	0c3H
	DB	018H
	DB	0e3H
	DB	018H
	DB	0e4H
	DB	020H
	DB	0c3H
	DB	018H
	DB	0e3H
	DB	018H
	DB	0e4H
	DB	020H
	DB	0e3H
	DB	018H
	DB	0e4H
	DB	020H
	DB	0c3H
	DB	018H
	DB	0e4H
	DB	020H
	DB	0e3H
	DB	018H
	DB	0e3H
	DB	018H
	DB	0c4H
	DB	020H
	DB	0e3H
	DB	018H
	DB	0e3H
	DB	018H
	DB	0c4H
	DB	020H
	DB	0e3H
	DB	018H
	DB	0e3H
	DB	018H
	DB	0c4H
	DB	020H
	DB	0e3H
	DB	018H
	DB	0e4H
	DB	020H
	DB	0e4H
	DB	020H
	DB	0e3H
	DB	018H
	DB	0c3H
	DB	018H
	DB	0e4H
	DB	020H
	DB	0e3H
	DB	018H
	DB	0e3H
	DB	018H
	DB	0c3H
	DB	018H
	DB	0e4H
	DB	020H
	DB	0e3H
	DB	018H
	DB	0c3H
	DB	018H
	DB	0e4H
	DB	020H
	DB	0e4H
	DB	020H
	DB	0c3H
	DB	018H
	DB	0e3H
	DB	018H
	DB	0e4H
	DB	020H
	DB	0e3H
	DB	018H
	DB	0e4H
	DB	020H
	DB	0c3H
	DB	018H
	DB	0e4H
	DB	020H
	DB	0e3H
	DB	018H
	DB	0e3H
	DB	018H
	DB	0c4H
	DB	020H
	DB	0e3H
	DB	018H
	DB	0e3H
	DB	018H
	DB	0c4H
	DB	020H
	DB	0e3H
	DB	018H
	DB	0e3H
	DB	018H
	DB	0c4H
	DB	020H
	DB	0e3H
	DB	018H
	DB	0e4H
	DB	020H
	DB	0e3H
	DB	018H
	DB	0e3H
	DB	018H
	DB	0c4H
	DB	020H
	DB	0e3H
	DB	018H
	DB	0e3H
	DB	018H
	DB	0e4H
	DB	020H
	DB	0c3H
	DB	018H
	DB	0e3H
	DB	018H
	DB	0e4H
	DB	020H
	DB	0c3H
	DB	018H
	DB	0e4H
	DB	020H
	DB	0e4H
	DB	020H
	DB	0c3H
	DB	018H
	DB	0e4H
	DB	020H
	DB	0e3H
	DB	018H
	DB	0e3H
	DB	018H
	DB	0e4H
	DB	020H
	DB	0c3H
	DB	018H
	DB	0e3H
	DB	018H
	DB	0e3H
	DB	018H
	DB	0e4H
	DB	020H
	DB	0c3H
	DB	018H
	DB	0e4H
	DB	020H
	DB	0e3H
	DB	018H
	DB	0c3H
	DB	018H
	DB	0e4H
	DB	020H
	DB	0e3H
	DB	018H
	DB	0c3H
	DB	018H
	DB	0e4H
	DB	020H
	DB	0e4H
	DB	020H
	DB	0e3H
	DB	018H
	DB	0e3H
	DB	018H
	DB	0c4H
	DB	020H
	DB	0e3H
	DB	018H
	DB	0e3H
	DB	018H
	DB	0e4H
	DB	020H
	DB	0c3H
	DB	018H
	DB	0e3H
	DB	018H
	DB	0e4H
	DB	020H
	DB	0c3H
	DB	018H
	DB	0e4H
	DB	020H
	DB	0e3H
	DB	018H
	DB	0c4H
	DB	020H
	DB	0e3H
	DB	018H
	DB	0e3H
	DB	018H
	DB	0e4H
	DB	020H
	DB	0e3H
	DB	018H
	DB	0c3H
	DB	018H
	DB	0e4H
	DB	020H
	DB	0e3H
	DB	018H
	DB	0e3H
	DB	018H
	DB	0c4H
	DB	020H
	DB	0e3H
	DB	018H
	DB	0e4H
	DB	020H
	DB	0c4H
	DB	020H
	DB	0e3H
	DB	018H
	DB	0e3H
	DB	018H
	DB	0c4H
	DB	020H
	DB	0e3H
	DB	018H
	DB	0e3H
	DB	018H
	DB	0e3H
	DB	018H
	DB	0e4H
	DB	020H
	DB	0c3H
	DB	018H
	DB	0e3H
	DB	018H
	DB	0e4H
	DB	020H
	DB	0e4H
	DB	020H
	DB	0c3H
	DB	018H
	DB	0e3H
	DB	018H
	DB	0e4H
	DB	020H
	DB	0c3H
	DB	018H
	DB	0e4H
	DB	020H
	DB	0e3H
	DB	018H
	DB	0c4H
	DB	020H
	DB	0e3H
	DB	018H
	DB	0e3H
	DB	018H
	DB	0e4H
	DB	020H
	DB	0e3H
	DB	018H
	DB	0c3H
	DB	018H
	DB	0e4H
	DB	020H
	DB	0e3H
	DB	018H
	DB	0e3H
	DB	018H
	DB	0c4H
	DB	020H
	DB	0e3H
	DB	018H
	DB	0e4H
	DB	020H
	DB	0c3H
	DB	018H
	DB	0e3H
	DB	018H
	DB	0e4H
	DB	020H
	DB	0c3H
	DB	018H
	DB	0e3H
	DB	018H
	DB	0e4H
	DB	020H
	DB	0e3H
	DB	018H
	DB	0e3H
	DB	018H
	DB	0c4H
	DB	020H
	DB	0e3H
	DB	018H
	DB	0e4H
	DB	020H
	DB	0e4H
	DB	020H
	DB	0c3H
	DB	018H
	DB	0e4H
	DB	020H
	DB	0e3H
	DB	018H
	DB	0c3H
	DB	018H
	DB	0e4H
	DB	020H
	DB	0e3H
	DB	018H
	DB	0c3H
	DB	018H
	DB	0e3H
	DB	018H
	DB	0e4H
	DB	020H
	DB	0e3H
	DB	018H
	DB	0e4H
	DB	020H
	DB	0c3H
	DB	018H
	DB	0e3H
	DB	018H
	DB	0e4H
	DB	020H
	DB	0e3H
	DB	018H
	DB	0c3H
	DB	018H
	DB	0e4H
	DB	020H
	DB	0e4H
	DB	020H
	DB	0c3H
	DB	018H
	DB	0e3H
	DB	018H
	DB	0e4H
	DB	020H
	DB	0c3H
	DB	018H
	DB	0e3H
	DB	018H
	DB	0e4H
	DB	020H
	DB	0e3H
	DB	018H
	DB	0e3H
	DB	018H
	DB	0c4H
	DB	020H
	DB	0e3H
	DB	018H
	DB	0e4H
	DB	020H
	DB	0e3H
	DB	018H
	DB	0c4H
	DB	020H
	DB	0e3H
	DB	018H
	DB	0e3H
	DB	018H
	DB	0c4H
	DB	020H
	DB	0e3H
	DB	018H
	DB	0e3H
	DB	018H
	DB	0c4H
	DB	020H
	DB	0e3H
	DB	018H
	DB	0e3H
	DB	018H
	DB	0e4H
	DB	020H
	DB	0e3H
	DB	018H
	DB	0c4H
	DB	020H
	DB	0e4H
	DB	020H
	DB	0e3H
	DB	018H
	DB	0e3H
	DB	018H
	DB	0c4H
	DB	020H
	DB	0e3H
	DB	018H
	DB	0e3H
	DB	018H
	DB	0c3H
	DB	018H
	DB	0e4H
	DB	020H
	DB	0e3H
	DB	018H
	DB	0c3H
	DB	018H
	DB	0e4H
	DB	020H
	DB	0e4H
	DB	020H
	DB	0e3H
	DB	018H
	DB	0e3H
	DB	018H
	DB	0c4H
	DB	020H
	DB	0e3H
	DB	018H
	DB	0e4H
	DB	020H
	DB	0e3H
	DB	018H
	DB	0c4H
	DB	020H
	DB	0e3H
	DB	018H
	DB	0e3H
	DB	018H
	DB	0c4H
	DB	020H
	DB	0e3H
	DB	018H
	DB	0e3H
	DB	018H
	DB	0c4H
	DB	020H
	DB	0e3H
	DB	018H
	DB	0e3H
	DB	018H
	DB	0e4H
	DB	020H
	DB	0e3H
	DB	018H
	DB	0c4H
	DB	020H
	DB	0e3H
	DB	018H
	DB	0e3H
	DB	018H
	DB	0e4H
	DB	020H
	DB	0c3H
	DB	018H
	DB	0e3H
	DB	018H
	DB	0e4H
	DB	020H
	DB	0c3H
	DB	018H
	DB	0e3H
	DB	018H
	DB	0e4H
	DB	020H
	DB	0c3H
	DB	018H
	DB	0e4H
	DB	020H
	DB	0e4H
	DB	020H
	DB	0e3H
	DB	018H
	DB	0e4H
	DB	020H
	DB	0c3H
	DB	018H
	DB	0e3H
	DB	018H
	DB	0e4H
	DB	020H
	DB	0e3H
	DB	018H
	DB	0c3H
	DB	018H
	DB	0e3H
	DB	018H
	DB	0e4H
	DB	020H
	DB	0c3H
	DB	018H
	DB	0e4H
	DB	020H
	DB	0e3H
	DB	018H
	DB	0c3H
	DB	018H
	DB	0e4H
	DB	020H
	DB	0e3H
	DB	018H
	DB	0e3H
	DB	018H
	DB	0e4H
	DB	020H
	DB	0c4H
	DB	020H
	DB	0e3H
	DB	018H
	DB	0e3H
	DB	018H
	DB	0e4H
	DB	020H
	DB	0c3H
	DB	018H
	DB	0e3H
	DB	018H
	DB	0e4H
	DB	020H
	DB	0c3H
	DB	018H
	DB	0e3H
	DB	018H
	DB	0e4H
	DB	020H
	DB	0c3H
	DB	018H
	DB	0e4H
	DB	020H
	DB	0e3H
	DB	018H
	DB	0e4H
	DB	020H
	DB	0e3H
	DB	018H
	DB	0c3H
	DB	018H
	DB	0e4H
	DB	020H
	DB	0e3H
	DB	018H
	DB	0e3H
	DB	018H
	DB	0c4H
	DB	020H
	DB	0e3H
	DB	018H
	DB	0e3H
	DB	018H
	DB	0c4H
	DB	020H
	DB	0e3H
	DB	018H
	DB	0e4H
	DB	020H
	DB	0c4H
	DB	020H
	DB	0e3H
	DB	018H
	DB	0e3H
	DB	018H
	DB	0e4H
	DB	020H
	DB	0e3H
	DB	018H
	DB	0c3H
	DB	018H
	DB	0e3H
	DB	018H
	DB	0e4H
	DB	020H
	DB	0e3H
	DB	018H
	DB	0c3H
	DB	018H
	DB	0e4H
	DB	020H
	DB	0e4H
	DB	020H
	DB	0c3H
	DB	018H
	DB	0e3H
	DB	018H
	DB	0e4H
	DB	020H
	DB	0c3H
	DB	018H
	DB	0e4H
	DB	020H
	DB	0e3H
	DB	018H
	DB	0e4H
	DB	020H
	DB	0e3H
	DB	018H
	DB	0c3H
	DB	018H
	DB	0e4H
	DB	020H
	DB	0e3H
	DB	018H
	DB	0e3H
	DB	018H
	DB	0c4H
	DB	020H
	DB	0e3H
	DB	018H
	DB	0e3H
	DB	018H
	DB	0c4H
	DB	020H
	DB	0e3H
	DB	018H
	DB	0e4H
	DB	020H
	DB	0c3H
	DB	018H
	DB	0e3H
	DB	018H
	DB	0e4H
	DB	020H
	DB	0e3H
	DB	018H
	DB	0e3H
	DB	018H
	DB	0c4H
	DB	020H
	DB	0e3H
	DB	018H
	DB	0e3H
	DB	018H
	DB	0e4H
	DB	020H
	DB	0c3H
	DB	018H
	DB	0e4H
	DB	020H
	DB	0e4H
	DB	020H
	DB	0c3H
	DB	018H
	DB	0e4H
	DB	020H
	DB	0e3H
	DB	018H
	DB	0c3H
	DB	018H
	DB	0e4H
	DB	020H
	DB	0e3H
	DB	018H
	DB	0e3H
	DB	018H
	DB	0e3H
	DB	018H
	DB	0c4H
	DB	020H
	DB	0e3H
	DB	018H
	DB	0e4H
	DB	020H
	DB	0e3H
	DB	018H
	DB	0c3H
	DB	018H
	DB	0e4H
	DB	020H
	DB	0e3H
	DB	018H
	DB	0c3H
	DB	018H
	DB	0e4H
	DB	020H
	DB	0e4H
	DB	020H
	DB	0c3H
	DB	018H
	DB	0e3H
	DB	018H
	DB	0e4H
	DB	020H
	DB	0e3H
	DB	018H
	DB	0e3H
	DB	018H
	DB	0c4H
	DB	020H
	DB	0e3H
	DB	018H
	DB	0e3H
	DB	018H
	DB	0e4H
	DB	020H
	DB	0c3H
	DB	018H
	DB	0e4H
	DB	020H
	DB	0e4H
	DB	020H
	DB	0c3H
	DB	018H
	DB	0e4H
	DB	020H
	DB	0e4H
	DB	020H
	DB	0c3H
	DB	018H
	DB	0e4H
	DB	020H
	DB	0e3H
	DB	018H
	DB	0c3H
	DB	018H
	DB	0e4H
	DB	020H
	DB	0e3H
	DB	018H
	DB	0e3H
	DB	018H
	DB	0c4H
	DB	020H
	DB	0e3H
	DB	018H
	DB	0e3H
	DB	018H
	DB	0c4H
	DB	020H
	DB	0e3H
	DB	018H
	DB	0e3H
	DB	018H
	DB	0c4H
	DB	020H
	DB	0e3H
	DB	018H
	DB	0e3H
	DB	018H
	DB	0c3H
	DB	018H
	DB	0c4H
	DB	020H
	DB	0c3H
	DB	018H
	DB	0e3H
	DB	018H
	DB	0c3H
	DB	018H
	DB	0c3H
	DB	018H
	DB	0e3H
	DB	018H
	DB	0c3H
	DB	018H
	DB	0c3H
	DB	018H
	DB	0c3H
	DB	018H
	DB	0e3H
	DB	018H
	DB	0c3H
	DB	018H
	DB	0c3H
	DB	018H
	DB	0c4H
	DB	020H
	DB	0c3H
	DB	018H
	DB	0e3H
	DB	018H
	DB	0c4H
	DB	020H
	DB	0c3H
	DB	018H
	DB	0c3H
	DB	018H
	DB	0e3H
	DB	018H
	DB	0c3H
	DB	018H
	DB	0c3H
	DB	018H
	DB	0c3H
	DB	018H
	DB	0e3H
	DB	018H
	DB	0c3H
	DB	018H
	DB	0c3H
	DB	018H
	DB	0e3H
	DB	018H
	DB	0c3H
	DB	018H
	DB	0c4H
	DB	020H
	DB	0e3H
	DB	018H
	DB	0c3H
	DB	018H
	DB	0c4H
	DB	020H
	DB	0e3H
	DB	018H
	DB	0c3H
	DB	018H
	DB	0c3H
	DB	018H
	DB	0e3H
	DB	018H
	DB	0c4H
	DB	020H
	DB	0e3H
	DB	018H
	DB	0c3H
	DB	018H
	DB	0c3H
	DB	018H
	DB	0e3H
	DB	018H
	DB	0c3H
	DB	018H
	DB	0c4H
	DB	020H
	DB	0e3H
	DB	018H
	DB	0c3H
	DB	018H
	DB	0c4H
	DB	020H
	DB	0c3H
	DB	018H
	DB	0c3H
	DB	018H
	DB	0e3H
	DB	018H
	DB	0c3H
	DB	018H
	DB	0c4H
	DB	020H
	DB	0e3H
	DB	018H
	DB	0c3H
	DB	018H
	DB	0e3H
	DB	018H
	DB	0c4H
	DB	020H
	DB	0e3H
	DB	018H
	DB	0c3H
	DB	018H
	DB	0e4H
	DB	020H
	DB	0c3H
	DB	018H
	DB	0e3H
	DB	018H
	DB	0c3H
	DB	018H
	DB	0c3H
	DB	018H
	DB	0e3H
	DB	018H
	DB	0c3H
	DB	018H
	DB	0e3H
	DB	018H
	DB	0c3H
	DB	018H
	DB	0c3H
	DB	018H
	DB	0e4H
	DB	020H
	DB	0c3H
	DB	018H
	DB	0c3H
	DB	018H
	DB	0e3H
	DB	018H
	DB	0e3H
	DB	018H
	DB	0c4H
	DB	020H
	DB	0c3H
	DB	018H
	DB	0e3H
	DB	018H
	DB	0c3H
	DB	018H
	DB	0e3H
	DB	018H
	DB	0c4H
	DB	020H
	DB	0e3H
	DB	018H
	DB	0c3H
	DB	018H
	DB	0c4H
	DB	020H
	DB	0e3H
	DB	018H
	DB	0c3H
	DB	018H
	DB	0e4H
	DB	020H
	DB	0c3H
	DB	018H
	DB	0e3H
	DB	018H
	DB	0c4H
	DB	020H
	DB	0e3H
	DB	018H
	DB	0c3H
	DB	018H
	DB	0e3H
	DB	018H
	DB	0c3H
	DB	018H
	DB	0c3H
	DB	018H
	DB	0e3H
	DB	018H
	DB	0c3H
	DB	018H
	DB	0e3H
	DB	018H
	DB	0c3H
	DB	018H
	DB	0c4H
	DB	020H
	DB	0e3H
	DB	018H
	DB	0c3H
	DB	018H
	DB	0c4H
	DB	020H
	DB	0e3H
	DB	018H
	DB	0e3H
	DB	018H
	DB	0c4H
	DB	020H
	DB	0c3H
	DB	018H
	DB	0e3H
	DB	018H
	DB	0c3H
	DB	018H
	DB	0e4H
	DB	020H
	DB	0c3H
	DB	018H
	DB	0e3H
	DB	018H
	DB	0c4H
	DB	020H
	DB	0c3H
	DB	018H
	DB	0e3H
	DB	018H
	DB	0c3H
	DB	018H
	DB	0e3H
	DB	018H
	DB	0c4H
	DB	020H
	DB	0e3H
	DB	018H
	DB	0c3H
	DB	018H
	DB	0e3H
	DB	018H
	DB	0c3H
	DB	018H
	DB	0e3H
	DB	018H
	DB	0c4H
	DB	020H
	DB	0c3H
	DB	018H
	DB	0e3H
	DB	018H
	DB	0c3H
	DB	018H
	DB	0e4H
	DB	020H
	DB	0c3H
	DB	018H
	DB	0c3H
	DB	018H
	DB	0e4H
	DB	020H
	DB	0c3H
	DB	018H
	DB	0c3H
	DB	018H
	DB	0e3H
	DB	018H
	DB	0e3H
	DB	018H
	DB	0c3H
	DB	018H
	DB	0c3H
	DB	018H
	DB	0e4H
	DB	020H
	DB	0c3H
	DB	018H
	DB	0e3H
	DB	018H
	DB	0c3H
	DB	018H
	DB	0e3H
	DB	018H
	DB	0c4H
	DB	020H
	DB	0c3H
	DB	018H
	DB	0e3H
	DB	018H
	DB	0c4H
	DB	020H
	DB	0e3H
	DB	018H
	DB	0c3H
	DB	018H
	DB	0e3H
	DB	018H
	DB	0c3H
	DB	018H
	DB	0e3H
	DB	018H
	DB	0c3H
	DB	018H
	DB	0e3H
	DB	018H
	DB	0c4H
	DB	020H
	DB	0c3H
	DB	018H
	DB	0e3H
	DB	018H
	DB	0c3H
	DB	018H
	DB	0e3H
	DB	018H
	DB	0c3H
	DB	018H
	DB	0c4H
	DB	020H
	DB	0e3H
	DB	018H
	DB	0c3H
	DB	018H
	DB	0c3H
	DB	018H
	DB	0e3H
	DB	018H
	DB	0e4H
	DB	020H
	DB	0c3H
	DB	018H
	DB	0c3H
	DB	018H
	DB	0e4H
	DB	020H
	DB	0c3H
	DB	018H
	DB	0e3H
	DB	018H
	DB	0c4H
	DB	020H
	DB	0e3H
	DB	018H
	DB	0c3H
	DB	018H
	DB	0c4H
	DB	020H
	DB	0e3H
	DB	018H
	DB	0c3H
	DB	018H
	DB	0e3H
	DB	018H
	DB	0c3H
	DB	018H
	DB	0e3H
	DB	018H
	DB	0c3H
	DB	018H
	DB	0e3H
	DB	018H
	DB	0c3H
	DB	018H
	DB	0e3H
	DB	018H
	DB	0c4H
	DB	020H
	DB	0c3H
	DB	018H
	DB	0e3H
	DB	018H
	DB	0c4H
	DB	020H
	DB	0e3H
	DB	018H
	DB	0c3H
	DB	018H
	DB	0c4H
	DB	020H
	DB	0e3H
	DB	018H
	DB	0c3H
	DB	018H
	DB	0c3H
	DB	018H
	DB	0e4H
	DB	020H
	DB	0e3H
	DB	018H
	DB	0c3H
	DB	018H
	DB	0c4H
	DB	020H
	DB	0e3H
	DB	018H
	DB	0c3H
	DB	018H
	DB	0e3H
	DB	018H
	DB	0c3H
	DB	018H
	DB	0e4H
	DB	020H
	DB	0c3H
	DB	018H
	DB	0c3H
	DB	018H
	DB	0e3H
	DB	018H
	DB	0c3H
	DB	018H
	DB	0e3H
	DB	018H
	DB	0c4H
	DB	020H
	DB	0e3H
	DB	018H
	DB	0c3H
	DB	018H
	DB	0e3H
	DB	018H
	DB	0c4H
	DB	020H
	DB	0e3H
	DB	018H
	DB	0c3H
	DB	018H
	DB	0c4H
	DB	020H
	DB	0e3H
	DB	018H
	DB	0c3H
	DB	018H
	DB	0e3H
	DB	018H
	DB	0c3H
	DB	018H
	DB	0c3H
	DB	018H
	DB	0e3H
	DB	018H
	DB	0c4H
	DB	020H
	DB	0c3H
	DB	018H
	DB	0e3H
	DB	018H
	DB	0e3H
	DB	018H
	DB	0c3H
	DB	018H
	DB	0c4H
	DB	020H
	DB	0e3H
	DB	018H
	DB	0c3H
	DB	018H
	DB	0e4H
	DB	020H
	DB	0c3H
	DB	018H
	DB	0e3H
	DB	018H
	DB	0c3H
	DB	018H
	DB	0c3H
	DB	018H
	DB	0e3H
	DB	018H
	DB	0c3H
	DB	018H
	DB	0e3H
	DB	018H
	DB	0c4H
	DB	020H
	DB	0e3H
	DB	018H
	DB	0c3H
	DB	018H
	DB	0e3H
	DB	018H
	DB	0c3H
	DB	018H
	DB	0e3H
	DB	018H
	DB	0c4H
	DB	020H
	DB	0c3H
	DB	018H
	DB	0e3H
	DB	018H
	DB	0c3H
	DB	018H
	DB	0e3H
	DB	018H
	DB	0c4H
	DB	020H
	DB	0c3H
	DB	018H
	DB	0e3H
	DB	018H
	DB	0c4H
	DB	020H
	DB	0c3H
	DB	018H
	DB	0e3H
	DB	018H
	DB	0e4H
	DB	020H
	DB	0c3H
	DB	018H
	DB	0c3H
	DB	018H
	DB	0e4H
	DB	020H
	DB	0c3H
	DB	018H
	DB	0e3H
	DB	018H
	DB	0c3H
	DB	018H
	DB	0e3H
	DB	018H
	DB	0c3H
	DB	018H
	DB	0c3H
	DB	018H
	DB	0e3H
	DB	018H
	DB	0c3H
	DB	018H
	DB	0e3H
	DB	018H
	DB	0c4H
	DB	020H
	DB	0e3H
	DB	018H
	DB	0c3H
	DB	018H
	DB	0e4H
	DB	020H
	DB	0c3H
	DB	018H
	DB	0e3H
	DB	018H
	DB	0c4H
	DB	020H
	DB	0c3H
	DB	018H
	DB	0e3H
	DB	018H
	DB	0c3H
	DB	018H
	DB	0e4H
	DB	020H
	DB	0c3H
	DB	018H
	DB	0c3H
	DB	018H
	DB	0e4H
	DB	020H
	DB	0c3H
	DB	018H
	DB	0c3H
	DB	018H
	DB	0e3H
	DB	018H
	DB	0e3H
	DB	018H
	DB	0c4H
	DB	020H
	DB	0c3H
	DB	018H
	DB	0e3H
	DB	018H
	DB	0c3H
	DB	018H
	DB	0e3H
	DB	018H
	DB	0c3H
	DB	018H
	DB	0e4H
	DB	020H
	DB	0c3H
	DB	018H
	DB	0c3H
	DB	018H
	DB	0e3H
	DB	018H
	DB	0c4H
	DB	020H
	DB	0e3H
	DB	018H
	DB	0c3H
	DB	018H
	DB	0e4H
	DB	020H
	DB	0c3H
	DB	018H
	DB	0e3H
	DB	018H
	DB	0c3H
	DB	018H
	DB	0e3H
	DB	018H
	DB	0c3H
	DB	018H
	DB	0c3H
	DB	018H
	DB	0e4H
	DB	020H
	DB	0c3H
	DB	018H
	DB	0e3H
	DB	018H
	DB	0c3H
	DB	018H
	DB	0c3H
	DB	018H
	DB	0e4H
	DB	020H
	DB	0c3H
	DB	018H
	DB	0c3H
	DB	018H
	DB	0e4H
	DB	020H
	DB	0e3H
	DB	018H
	DB	0c3H
	DB	018H
	DB	0c3H
	DB	018H
	DB	0e3H
	DB	018H
	DB	0c3H
	DB	018H
	DB	0e3H
	DB	018H
	DB	0c3H
	DB	018H
	DB	0e4H
	DB	020H
	DB	0c3H
	DB	018H
	DB	0c3H
	DB	018H
	DB	0e3H
	DB	018H
	DB	0c3H
	DB	018H
	DB	0e3H
	DB	018H
	DB	0c4H
	DB	020H
	DB	0e3H
	DB	018H
	DB	0c3H
	DB	018H
	DB	0e3H
	DB	018H
	DB	0c3H
	DB	018H
	DB	0e4H
	DB	020H
	DB	0c3H
	DB	018H
	DB	0c3H
	DB	018H
	DB	0e4H
	DB	020H
	DB	0c3H
	DB	018H
	DB	0e3H
	DB	018H
	DB	0c4H
	DB	020H
	DB	0c3H
	DB	018H
	DB	0e3H
	DB	018H
	DB	0c4H
	DB	020H
	DB	0c3H
	DB	018H
	DB	0e3H
	DB	018H
	DB	0e3H
	DB	018H
	DB	0c3H
	DB	018H
	DB	0c3H
	DB	018H
	DB	0e3H
	DB	018H
	DB	0c3H
	DB	018H
	DB	0e3H
	DB	018H
	DB	0c3H
	DB	018H
	DB	0e4H
	DB	020H
	DB	0c3H
	DB	018H
	DB	0c3H
	DB	018H
	DB	0e4H
	DB	020H
	DB	0c3H
	DB	018H
	DB	0e3H
	DB	018H
	DB	0c4H
	DB	020H
	DB	0e3H
	DB	018H
	DB	0c3H
	DB	018H
	DB	0e3H
	DB	018H
	DB	0c4H
	DB	020H
	DB	0e3H
	DB	018H
	DB	0c3H
	DB	018H
	DB	0c4H
	DB	020H
	DB	0e3H
	DB	018H
	DB	0c3H
	DB	018H
	DB	0e3H
	DB	018H
	DB	0c3H
	DB	018H
	DB	0c4H
	DB	020H
	DB	0e3H
	DB	018H
	DB	0c3H
	DB	018H
	DB	0c3H
	DB	018H
	DB	0e3H
	DB	018H
	DB	0e3H
	DB	018H
	DB	0c4H
	DB	020H
	DB	0c3H
	DB	018H
	DB	0e3H
	DB	018H
	DB	0c3H
	DB	018H
	DB	0e4H
	DB	020H
	DB	0c3H
	DB	018H
	DB	0e3H
	DB	018H
	DB	0c4H
	DB	020H
	DB	0c3H
	DB	018H
	DB	0e3H
	DB	018H
	DB	0c3H
	DB	018H
	DB	0e3H
	DB	018H
	DB	0c3H
	DB	018H
	DB	0e3H
	DB	018H
	DB	0c4H
	DB	020H
	DB	0e3H
	DB	018H
	DB	0c3H
	DB	018H
	DB	0e3H
	DB	018H
	DB	0c3H
	DB	018H
	DB	0c4H
	DB	020H
	DB	0e3H
	DB	018H
	DB	0c3H
	DB	018H
	DB	0e4H
	DB	020H
	DB	0c3H
	DB	018H
	DB	0c3H
	DB	018H
	DB	0e3H
	DB	018H
	DB	0c3H
	DB	018H
	DB	0c3H
	DB	018H
	DB	0e3H
	DB	018H
	DB	0e3H
	DB	018H
	DB	0c4H
	DB	020H
	DB	0c3H
	DB	018H
	DB	0e3H
	DB	018H
	DB	0c3H
	DB	018H
	DB	0e3H
	DB	018H
	DB	0c3H
	DB	018H
	DB	0e4H
	DB	020H
	DB	0c3H
	DB	018H
	DB	0c3H
	DB	018H
	DB	0e3H
	DB	018H
	DB	0c3H
	DB	018H
	DB	0e4H
	DB	020H
	DB	0c3H
	DB	018H
	DB	0e3H
	DB	018H
	DB	0c4H
	DB	020H
	DB	0e3H
	DB	018H
	DB	0c3H
	DB	018H
	DB	0e4H
	DB	020H
	DB	0c3H
	DB	018H
	DB	0c3H
	DB	018H
	DB	0e4H
	DB	020H
	DB	0c3H
	DB	018H
	DB	0e3H
	DB	018H
	DB	0c3H
	DB	018H
	DB	0c3H
	DB	018H
	DB	0e3H
	DB	018H
	DB	0c3H
	DB	018H
	DB	0c3H
	DB	018H
	DB	0e3H
	DB	018H
	DB	0e3H
	DB	018H
	DB	0c4H
	DB	020H
	DB	0c3H
	DB	018H
	DB	0e3H
	DB	018H
	DB	0c4H
	DB	020H
	DB	0e3H
	DB	018H
	DB	0c3H
	DB	018H
	DB	0e4H
	DB	020H
	DB	0c3H
	DB	018H
	DB	0c3H
	DB	018H
	DB	0e3H
	DB	018H
	DB	0c4H
	DB	020H
	DB	0e3H
	DB	018H
	DB	0c3H
	DB	018H
	DB	0e4H
	DB	020H
	DB	0c3H
	DB	018H
	DB	0e3H
	DB	018H
	DB	0c3H
	DB	018H
	DB	0e3H
	DB	018H
	DB	0c4H
	DB	020H
	DB	0c3H
	DB	018H
	DB	0e3H
	DB	018H
	DB	0c3H
	DB	018H
	DB	0e3H
	DB	018H
	DB	0c3H
	DB	018H
	DB	0c4H
	DB	020H
	DB	0e3H
	DB	018H
	DB	0c3H
	DB	018H
	DB	0c3H
	DB	018H
	DB	0e3H
	DB	018H
	DB	0e3H
	DB	018H
	DB	0c3H
	DB	018H
	DB	0c3H
	DB	018H
	DB	0e3H
	DB	018H
	DB	0c3H
	DB	018H
	DB	0e4H
	DB	020H
	DB	0c3H
	DB	018H
	DB	0c3H
	DB	018H
	DB	0e4H
	DB	020H
	DB	0c3H
	DB	018H
	DB	0c3H
	DB	018H
	DB	0e4H
	DB	020H
	DB	0c3H
	DB	018H
	DB	0c3H
	DB	018H
	DB	0e4H
	DB	020H
	DB	0e3H
	DB	018H
	DB	0c3H
	DB	018H
	DB	0e3H
	DB	018H
	DB	0c3H
	DB	018H
	DB	0c3H
	DB	018H
	DB	0c3H
	DB	018H
	DB	0c3H
	DB	018H
	DB	0c3H
	DB	018H
	DB	0c3H
	DB	018H
	DB	0c3H
	DB	018H
	DB	0c4H
	DB	020H
	DB	0c3H
	DB	018H
	DB	0c3H
	DB	018H
	DB	0c3H
	DB	018H
	DB	0c3H
	DB	018H
	DB	0c3H
	DB	018H
	DB	0c3H
	DB	018H
	DB	0c3H
	DB	018H
	DB	0c3H
	DB	018H
	DB	0c3H
	DB	018H
	DB	0c3H
	DB	018H
	DB	0c3H
	DB	018H
	DB	0c3H
	DB	018H
	DB	0c3H
	DB	018H
	DB	0c3H
	DB	018H
	DB	0c3H
	DB	018H
	DB	0c3H
	DB	018H
	DB	0c3H
	DB	018H
	DB	0c3H
	DB	018H
	DB	0c3H
	DB	018H
	DB	0c3H
	DB	018H
	DB	0c3H
	DB	018H
	DB	0c3H
	DB	018H
	DB	0c3H
	DB	018H
	DB	0c3H
	DB	018H
	DB	0c3H
	DB	018H
	DB	0c3H
	DB	018H
	DB	0c3H
	DB	018H
	DB	0c3H
	DB	018H
	DB	0c3H
	DB	018H
	DB	0c3H
	DB	018H
	DB	0c3H
	DB	018H
	DB	0c3H
	DB	018H
	DB	0c3H
	DB	018H
	DB	0c3H
	DB	018H
	DB	0c3H
	DB	018H
	DB	0c3H
	DB	018H
	DB	0c3H
	DB	018H
	DB	0c3H
	DB	018H
	DB	0c3H
	DB	018H
	DB	0c3H
	DB	018H
	DB	0c3H
	DB	018H
	DB	0c3H
	DB	018H
	DB	0c3H
	DB	018H
	DB	0c3H
	DB	018H
	DB	0c3H
	DB	018H
	DB	0c3H
	DB	018H
	DB	0c3H
	DB	018H
	DB	0c3H
	DB	018H
	DB	0c3H
	DB	018H
	DB	0c3H
	DB	018H
	DB	0c3H
	DB	018H
	DB	0c3H
	DB	018H
	DB	0c3H
	DB	018H
	DB	0c3H
	DB	018H
	DB	0c3H
	DB	018H
	DB	0c3H
	DB	018H
	DB	0c3H
	DB	018H
	DB	0c3H
	DB	018H
	DB	0c3H
	DB	018H
	DB	0c3H
	DB	018H
	DB	0c3H
	DB	018H
	DB	0c3H
	DB	018H
	DB	0c3H
	DB	018H
	DB	0c3H
	DB	018H
	DB	0c3H
	DB	018H
	DB	0c3H
	DB	018H
	DB	0c3H
	DB	018H
	DB	0c3H
	DB	018H
	DB	0c3H
	DB	018H
	DB	0c3H
	DB	018H
	DB	0c3H
	DB	018H
	DB	0c3H
	DB	018H
	DB	0c3H
	DB	018H
	DB	0c3H
	DB	018H
	DB	0c3H
	DB	018H
	DB	0c3H
	DB	018H
	DB	0c3H
	DB	018H
	DB	0c3H
	DB	018H
	DB	0c3H
	DB	018H
	DB	0c3H
	DB	018H
	DB	0c3H
	DB	018H
	DB	0c3H
	DB	018H
	DB	0c3H
	DB	018H
	DB	0c3H
	DB	018H
	DB	0c3H
	DB	018H
	DB	0c3H
	DB	018H
	DB	0c3H
	DB	018H
	DB	0c3H
	DB	018H
	DB	0c3H
	DB	018H
	DB	0c3H
	DB	018H
	DB	0c3H
	DB	018H
	DB	0c3H
	DB	018H
	DB	0c3H
	DB	018H
	DB	0c3H
	DB	018H
	DB	0c3H
	DB	018H
	DB	0c3H
	DB	018H
	DB	0c3H
	DB	018H
	DB	0c3H
	DB	018H
	DB	0c3H
	DB	018H
	DB	0c3H
	DB	018H
	DB	0c3H
	DB	018H
	DB	0c3H
	DB	018H
	DB	0c3H
	DB	018H
	DB	0c3H
	DB	018H
	DB	0c3H
	DB	018H
	DB	0c3H
	DB	018H
	DB	0c3H
	DB	018H
	DB	0c3H
	DB	018H
	DB	0c3H
	DB	018H
	DB	0c3H
	DB	018H
	DB	0c3H
	DB	018H
	DB	0c3H
	DB	018H
	DB	0c3H
	DB	018H
	DB	0c3H
	DB	018H
	DB	0c3H
	DB	018H
	DB	0c3H
	DB	018H
	DB	0c3H
	DB	018H
	DB	0c3H
	DB	018H
	DB	0c3H
	DB	018H
	DB	0c3H
	DB	018H
	DB	0c3H
	DB	018H
	DB	0c3H
	DB	018H
	DB	0c3H
	DB	018H
	DB	0c3H
	DB	018H
	DB	0c3H
	DB	018H
	DB	0c3H
	DB	018H
	DB	0c3H
	DB	018H
	DB	0c3H
	DB	018H
	DB	0c3H
	DB	018H
	DB	0c3H
	DB	018H
	DB	0c3H
	DB	018H
	DB	0c3H
	DB	018H
	DB	0c3H
	DB	018H
	DB	0c3H
	DB	018H
	DB	0c3H
	DB	018H
	DB	0c3H
	DB	018H
	DB	0c3H
	DB	018H
	DB	0c3H
	DB	018H
	DB	0c3H
	DB	018H
	DB	0c3H
	DB	018H
	DB	0c3H
	DB	018H
	DB	0c3H
	DB	018H
	DB	0c3H
	DB	018H
	DB	0c3H
	DB	018H
	DB	0c3H
	DB	018H
	DB	0c3H
	DB	018H
	DB	0c3H
	DB	018H
	DB	0c3H
	DB	018H
	DB	0c3H
	DB	018H
	DB	0c3H
	DB	018H
	DB	0c3H
	DB	018H
	DB	0c3H
	DB	018H
	DB	0c3H
	DB	018H
	DB	0c3H
	DB	018H
	DB	0c3H
	DB	018H
	DB	0c3H
	DB	018H
	DB	0c3H
	DB	018H
	DB	0c3H
	DB	018H
	DB	0c3H
	DB	018H
	DB	0c3H
	DB	018H
	DB	0c3H
	DB	018H
	DB	0c3H
	DB	018H
	DB	0c3H
	DB	018H
	DB	0c3H
	DB	018H
	DB	0c3H
	DB	018H
	DB	0c3H
	DB	018H
	DB	0c3H
	DB	018H
	DB	0c3H
	DB	018H
	DB	0c3H
	DB	018H
	DB	0c3H
	DB	018H
	DB	0c3H
	DB	018H
	DB	0c3H
	DB	018H
	DB	0c3H
	DB	018H
	DB	0c3H
	DB	018H
	DB	0c3H
	DB	018H
	DB	0c3H
	DB	018H
	DB	0c3H
	DB	018H
	DB	0c3H
	DB	018H
	DB	0c3H
	DB	018H
	DB	0c3H
	DB	018H
	DB	0c3H
	DB	018H
	DB	0c3H
	DB	018H
	DB	0c3H
	DB	018H
	DB	0c3H
	DB	018H
	DB	0c3H
	DB	018H
	DB	0c3H
	DB	018H
	DB	0c3H
	DB	018H
	DB	0c3H
	DB	018H
	DB	0c3H
	DB	018H
	DB	0c3H
	DB	018H
	DB	0c3H
	DB	018H
	DB	0c3H
	DB	018H
	DB	0c3H
	DB	018H
	DB	0c3H
	DB	018H
	DB	0c3H
	DB	018H
	DB	0c3H
	DB	018H
	DB	0c3H
	DB	018H
	DB	0c3H
	DB	018H
	DB	0c3H
	DB	018H
	DB	0c3H
	DB	018H
	DB	0c3H
	DB	018H
	DB	0c3H
	DB	018H
	DB	0c3H
	DB	018H
	DB	0c3H
	DB	018H
	DB	0c3H
	DB	018H
	DB	0c3H
	DB	018H
	DB	0c3H
	DB	018H
	DB	0c3H
	DB	018H
	DB	0c3H
	DB	018H
	DB	0c3H
	DB	018H
	DB	0c3H
	DB	018H
	DB	0c3H
	DB	018H
	DB	0c3H
	DB	018H
	DB	0c3H
	DB	018H
	DB	0c3H
	DB	018H
	DB	0c3H
	DB	018H
	DB	0c3H
	DB	018H
	DB	0c3H
	DB	018H
	DB	0c3H
	DB	018H
	DB	0c3H
	DB	018H
	DB	0c3H
	DB	018H
	DB	0c3H
	DB	018H
	DB	0c3H
	DB	018H
	DB	0c3H
	DB	018H
	DB	0c3H
	DB	018H
	DB	0c3H
	DB	018H
	DB	0c3H
	DB	018H
	DB	0c3H
	DB	018H
	DB	0c3H
	DB	018H
	DB	0c3H
	DB	018H
	DB	0c3H
	DB	018H
	DB	0c3H
	DB	018H
	DB	0c3H
	DB	018H
	DB	0c3H
	DB	018H
	DB	0c3H
	DB	018H
	DB	0c3H
	DB	018H
	DB	0c3H
	DB	018H
	DB	0c3H
	DB	018H
	DB	0c3H
	DB	018H
	DB	0c3H
	DB	018H
	DB	0c3H
	DB	018H
	DB	0c3H
	DB	018H
	DB	0c3H
	DB	018H
	DB	0c3H
	DB	018H
	DB	0c3H
	DB	018H
	DB	0c3H
	DB	018H
	DB	0c3H
	DB	018H
	DB	0c3H
	DB	018H
	DB	0c3H
	DB	018H
	DB	0c3H
	DB	018H
	DB	0c3H
	DB	018H
	DB	0c3H
	DB	018H
	DB	0c3H
	DB	018H
	DB	0c3H
	DB	018H
	DB	0c3H
	DB	018H
	DB	0c3H
	DB	018H
	DB	0c3H
	DB	018H
	DB	0c3H
	DB	018H
	DB	0c3H
	DB	018H
	DB	0c3H
	DB	018H
	DB	0c3H
	DB	018H
	DB	0c3H
	DB	018H
	DB	0c3H
	DB	018H
	DB	0c3H
	DB	018H
	DB	0c3H
	DB	018H
	DB	0c3H
	DB	018H
	DB	0c3H
	DB	018H
	DB	0c3H
	DB	018H
	DB	0c3H
	DB	018H
	DB	0c3H
	DB	018H
	DB	0c3H
	DB	018H
	DB	0c3H
	DB	018H
	DB	0c3H
	DB	018H
	DB	0c3H
	DB	018H
	DB	0c3H
	DB	018H
	DB	0c3H
	DB	018H
	DB	0c3H
	DB	018H
	DB	0c3H
	DB	018H
	DB	0c3H
	DB	018H
	DB	0c3H
	DB	018H
	DB	0c3H
	DB	018H
	DB	0c3H
	DB	018H
	DB	0c3H
	DB	018H
	DB	0c3H
	DB	018H
	DB	0c3H
	DB	018H
	DB	0c3H
	DB	018H
	DB	0c3H
	DB	018H
	DB	0c3H
	DB	018H
	DB	0c3H
	DB	018H
	DB	0c3H
	DB	018H
	DB	0c3H
	DB	018H
	DB	0c3H
	DB	018H
	DB	0c3H
	DB	018H
	DB	0c3H
	DB	018H
	DB	0c3H
	DB	018H
	DB	0c3H
	DB	018H
	DB	0c3H
	DB	018H
	DB	0c3H
	DB	018H
	DB	0c3H
	DB	018H
	DB	0c3H
	DB	018H
	DB	0c3H
	DB	018H
	DB	0c3H
	DB	018H
	DB	0c3H
	DB	018H
	DB	0c3H
	DB	018H
	DB	0c3H
	DB	018H
	DB	0c3H
	DB	018H
	DB	0c3H
	DB	018H
	DB	0c3H
	DB	018H
	DB	0c3H
	DB	018H
	DB	0c3H
	DB	018H
	DB	0c3H
	DB	018H
	DB	0c3H
	DB	018H
	DB	0c3H
	DB	018H
	DB	0c3H
	DB	018H
	DB	0c3H
	DB	018H
	DB	0c3H
	DB	018H
	DB	0c3H
	DB	018H
	DB	0c3H
	DB	018H
	DB	0c3H
	DB	018H
	DB	0c3H
	DB	018H
	DB	0c3H
	DB	018H
	DB	0c3H
	DB	018H
	DB	0c3H
	DB	018H
	DB	0c3H
	DB	018H
	DB	0c3H
	DB	018H
	DB	0c3H
	DB	018H
	DB	0c3H
	DB	018H
	DB	0c3H
	DB	018H
	DB	0c3H
	DB	018H
	DB	0c3H
	DB	018H
	DB	0c3H
	DB	018H
	DB	0c3H
	DB	018H
	DB	0c3H
	DB	018H
	DB	0c3H
	DB	018H
	DB	0c3H
	DB	018H
	DB	0c3H
	DB	018H
	DB	0c3H
	DB	018H
	DB	0c3H
	DB	018H
	DB	0c3H
	DB	018H
	DB	0c3H
	DB	018H
	DB	0c3H
	DB	018H
	DB	0c3H
	DB	018H
	DB	0c3H
	DB	018H
	DB	0c3H
	DB	018H
	DB	0c3H
	DB	018H
	DB	0c3H
	DB	018H
	DB	0c3H
	DB	018H
	DB	0c3H
	DB	018H
	DB	0c3H
	DB	018H
	DB	0c3H
	DB	018H
	DB	0c3H
	DB	018H
	DB	0c3H
	DB	018H
	DB	0c3H
	DB	018H
	DB	0c3H
	DB	018H
	DB	0c3H
	DB	018H
	DB	0c3H
	DB	018H
	DB	0c3H
	DB	018H
	DB	0c3H
	DB	018H
	DB	0c3H
	DB	018H
	DB	0c3H
	DB	018H
	DB	0c3H
	DB	018H
	DB	0c3H
	DB	018H
	DB	0c3H
	DB	018H
	DB	0c3H
	DB	018H
	DB	0c3H
	DB	018H
	DB	0c3H
	DB	018H
	DB	0c3H
	DB	018H
	DB	0c3H
	DB	018H
	DB	0c3H
	DB	018H
	DB	0c3H
	DB	018H
	DB	0c3H
	DB	018H
	DB	0c3H
	DB	018H
	DB	0c3H
	DB	018H
	DB	0c3H
	DB	018H
	DB	0c3H
	DB	018H
	DB	0c3H
	DB	018H
	DB	0c3H
	DB	018H
	DB	0c3H
	DB	018H
	DB	0c3H
	DB	018H
	DB	0c3H
	DB	018H
	DB	0c3H
	DB	018H
	DB	0c3H
	DB	018H
	DB	0c3H
	DB	018H
	DB	0c3H
	DB	018H
	DB	0c3H
	DB	018H
	DB	0c3H
	DB	018H
	DB	0c3H
	DB	018H
	DB	0c3H
	DB	018H
	DB	0c3H
	DB	018H
	DB	0c3H
	DB	018H
	DB	0c3H
	DB	018H
	DB	0c3H
	DB	018H
	DB	0c3H
	DB	018H
	DB	0c3H
	DB	018H
	DB	0c3H
	DB	018H
	DB	0c3H
	DB	018H
	DB	0c3H
	DB	018H
	DB	0c3H
	DB	018H
	DB	0c3H
	DB	018H
	DB	0c3H
	DB	018H
	DB	0c3H
	DB	018H
	DB	0c3H
	DB	018H
	DB	0c3H
	DB	018H
	DB	0c3H
	DB	018H
	DB	0c3H
	DB	018H
	DB	0c3H
	DB	018H
	DB	0c3H
	DB	018H
	DB	0c3H
	DB	018H
	DB	0c3H
	DB	018H
	DB	0c3H
	DB	018H
	DB	0c3H
	DB	018H
	DB	0c3H
	DB	018H
	DB	0c3H
	DB	018H
	DB	0c3H
	DB	018H
	DB	0c3H
	DB	018H
	DB	0c3H
	DB	018H
	DB	0c3H
	DB	018H
	DB	0c3H
	DB	018H
	DB	0c3H
	DB	018H
	DB	0c3H
	DB	018H
	DB	0c3H
	DB	018H
	DB	0c3H
	DB	018H
	DB	0c3H
	DB	018H
	DB	0c3H
	DB	018H
	DB	0c3H
	DB	018H
	DB	0c3H
	DB	018H
	DB	0c3H
	DB	018H
	DB	0c3H
	DB	018H
	DB	0c3H
	DB	018H
	DB	0c3H
	DB	018H
	DB	0c3H
	DB	018H
	DB	0c3H
	DB	018H
	DB	0c3H
	DB	018H
	DB	0c3H
	DB	018H
	DB	0c3H
	DB	018H
	DB	0c3H
	DB	018H
	DB	0c3H
	DB	018H
	DB	0c3H
	DB	018H
	DB	0c3H
	DB	018H
	DB	0c3H
	DB	018H
	DB	0c3H
	DB	018H
	DB	0c3H
	DB	018H
	DB	0c3H
	DB	018H
	DB	0c3H
	DB	018H
	DB	0c3H
	DB	018H
	DB	0c3H
	DB	018H
	DB	0c3H
	DB	018H
	DB	0c3H
	DB	018H
	DB	0c3H
	DB	018H
	DB	0c3H
	DB	018H
	DB	0c3H
	DB	018H
	DB	0c3H
	DB	018H
	DB	0c3H
	DB	018H
	DB	0c3H
	DB	018H
	DB	0c3H
	DB	018H
	DB	0c3H
	DB	018H
	DB	0c3H
	DB	018H
	DB	0c3H
	DB	018H
	DB	0c3H
	DB	018H
	DB	0c3H
	DB	018H
	DB	0c3H
	DB	018H
	DB	0c3H
	DB	018H
	DB	0c3H
	DB	018H
	DB	0c3H
	DB	018H
	DB	0c3H
	DB	018H
	DB	0c3H
	DB	018H
	DB	0c3H
	DB	018H
	DB	0c3H
	DB	018H
	DB	0c3H
	DB	018H
	DB	0c3H
	DB	018H
	DB	0c3H
	DB	018H
	DB	0c3H
	DB	018H
	DB	0c3H
	DB	018H
	DB	0c3H
	DB	018H
	DB	0e3H
	DB	018H
	DB	0c3H
	DB	018H
	DB	0c4H
	DB	020H
	DB	0e3H
	DB	018H
	DB	0c3H
	DB	018H
	DB	0c3H
	DB	018H
	DB	0e3H
	DB	018H
	DB	0c3H
	DB	018H
	DB	0c4H
	DB	020H
	DB	0e3H
	DB	018H
	DB	0c3H
	DB	018H
	DB	0e3H
	DB	018H
	DB	0c3H
	DB	018H
	DB	0c3H
	DB	018H
	DB	0e3H
	DB	018H
	DB	0c3H
	DB	018H
	DB	0c3H
	DB	018H
	DB	0e4H
	DB	020H
	DB	0c3H
	DB	018H
	DB	0c3H
	DB	018H
	DB	0e4H
	DB	020H
	DB	0c3H
	DB	018H
	DB	0c3H
	DB	018H
	DB	0e4H
	DB	020H
	DB	0c3H
	DB	018H
	DB	0c3H
	DB	018H
	DB	0c3H
	DB	018H
	DB	0e3H
	DB	018H
	DB	0c3H
	DB	018H
	DB	0c3H
	DB	018H
	DB	0e3H
	DB	018H
	DB	0c3H
	DB	018H
	DB	0c3H
	DB	018H
	DB	0e3H
	DB	018H
	DB	0c3H
	DB	018H
	DB	0c3H
	DB	018H
	DB	0e3H
	DB	018H
	DB	0c3H
	DB	018H
	DB	0c4H
	DB	020H
	DB	0e3H
	DB	018H
	DB	0c3H
	DB	018H
	DB	0c3H
	DB	018H
	DB	0e3H
	DB	018H
	DB	0c3H
	DB	018H
	DB	0e3H
	DB	018H
	DB	0c3H
	DB	018H
	DB	0c3H
	DB	018H
	DB	0e3H
	DB	018H
	DB	0c3H
	DB	018H
	DB	0c3H
	DB	018H
	DB	0e3H
	DB	018H
	DB	0c3H
	DB	018H
	DB	0c3H
	DB	018H
	DB	0e3H
	DB	018H
	DB	0c3H
	DB	018H
	DB	0c3H
	DB	018H
	DB	0c3H
	DB	018H
	DB	0e3H
	DB	018H
	DB	0c4H
	DB	020H
	DB	0c3H
	DB	018H
	DB	0e3H
	DB	018H
	DB	0c4H
	DB	020H
	DB	0c3H
	DB	018H
	DB	0e3H
	DB	018H
	DB	0c4H
	DB	020H
	DB	0c3H
	DB	018H
	DB	0e3H
	DB	018H
	DB	0c3H
	DB	018H
	DB	0c3H
	DB	018H
	DB	0e4H
	DB	020H
	DB	0c3H
	DB	018H
	DB	0c3H
	DB	018H
	DB	0e3H
	DB	018H
	DB	0c3H
	DB	018H
	DB	0c4H
	DB	020H
	DB	0c3H
	DB	018H
	DB	0e3H
	DB	018H
	DB	0c3H
	DB	018H
	DB	0c3H
	DB	018H
	DB	0e3H
	DB	018H
	DB	0c3H
	DB	018H
	DB	0c3H
	DB	018H
	DB	0c3H
	DB	018H
	DB	0e3H
	DB	018H
	DB	0c3H
	DB	018H
	DB	0c3H
	DB	018H
	DB	0c3H
	DB	018H
	DB	0e4H
	DB	020H
	DB	0c3H
	DB	018H
	DB	0c3H
	DB	018H
	DB	0e4H
	DB	020H
	DB	0c3H
	DB	018H
	DB	0c3H
	DB	018H
	DB	0e3H
	DB	018H
	DB	0c3H
	DB	018H
	DB	0c3H
	DB	018H
	DB	0e3H
	DB	018H
	DB	0c3H
	DB	018H
	DB	0c3H
	DB	018H
	DB	0e3H
	DB	018H
	DB	0c3H
	DB	018H
	DB	0c3H
	DB	018H
	DB	0e3H
	DB	018H
	DB	0c3H
	DB	018H
	DB	0c3H
	DB	018H
	DB	0c3H
	DB	018H
	DB	0e3H
	DB	018H
	DB	0c3H
	DB	018H
	DB	0c3H
	DB	018H
	DB	0e3H
	DB	018H
	DB	0c3H
	DB	018H
	DB	0c3H
	DB	018H
	DB	0c3H
	DB	018H
	DB	0e3H
	DB	018H
	DB	0c3H
	DB	018H
	DB	0c4H
	DB	020H
	DB	0c3H
	DB	018H
	DB	0e3H
	DB	018H
	DB	0c3H
	DB	018H
	DB	0c3H
	DB	018H
	DB	0e3H
	DB	018H
	DB	0c3H
	DB	018H
	DB	0c3H
	DB	018H
	DB	0e3H
	DB	018H
	DB	0c3H
	DB	018H
	DB	0c3H
	DB	018H
	DB	0e3H
	DB	018H
	DB	0c3H
	DB	018H
	DB	0c4H
	DB	020H
	DB	0e3H
	DB	018H
	DB	0c3H
	DB	018H
	DB	0c4H
	DB	020H
	DB	0e3H
	DB	018H
	DB	0c3H
	DB	018H
	DB	0c3H
	DB	018H
	DB	0c3H
	DB	018H
	DB	0e3H
	DB	018H
	DB	0c3H
	DB	018H
	DB	0c3H
	DB	018H
	DB	0e3H
	DB	018H
	DB	0c3H
	DB	018H
	DB	0c3H
	DB	018H
	DB	0c3H
	DB	018H
	DB	0e4H
	DB	020H
	DB	0c3H
	DB	018H
	DB	0c3H
	DB	018H
	DB	0c4H
	DB	020H
	DB	0e3H
	DB	018H
	DB	0c3H
	DB	018H
	DB	0c3H
	DB	018H
	DB	0e3H
	DB	018H
	DB	0c3H
	DB	018H
	DB	0c4H
	DB	020H
	DB	0e3H
	DB	018H
	DB	0c3H
	DB	018H
	DB	0c3H
	DB	018H
	DB	0e3H
	DB	018H
	DB	0c4H
	DB	020H
	DB	0c3H
	DB	018H
	DB	0e3H
	DB	018H
	DB	0c3H
	DB	018H
	DB	0c3H
	DB	018H
	DB	0e3H
	DB	018H
	DB	0c3H
	DB	018H
	DB	0c3H
	DB	018H
	DB	0c3H
	DB	018H
	DB	0e3H
	DB	018H
	DB	0c3H
	DB	018H
	DB	0c3H
	DB	018H
	DB	0e3H
	DB	018H
	DB	0c3H
	DB	018H
	DB	0c4H
	DB	020H
	DB	0c3H
	DB	018H
	DB	0e3H
	DB	018H
	DB	0c4H
	DB	020H
	DB	0c3H
	DB	018H
	DB	0c3H
	DB	018H
	DB	0e3H
	DB	018H
	DB	0c3H
	DB	018H
	DB	0c3H
	DB	018H
	DB	0e3H
	DB	018H
	DB	0c3H
	DB	018H
	DB	0c3H
	DB	018H
	DB	0e3H
	DB	018H
	DB	0c3H
	DB	018H
	DB	0c3H
	DB	018H
	DB	0e3H
	DB	018H
	DB	0c3H
	DB	018H
	DB	0c3H
	DB	018H
	DB	0e3H
	DB	018H
	DB	0c3H
	DB	018H
	DB	0c3H
	DB	018H
	DB	0e3H
	DB	018H
	DB	0c3H
	DB	018H
	DB	0c3H
	DB	018H
	DB	0c3H
	DB	018H
	DB	0e3H
	DB	018H
	DB	0c3H
	DB	018H
	DB	0c3H
	DB	018H
	DB	0e4H
	DB	020H
	DB	0c3H
	DB	018H
	DB	0c3H
	DB	018H
	DB	0c3H
	DB	018H
	DB	0e3H
	DB	018H
	DB	0c3H
	DB	018H
	DB	0c3H
	DB	018H
	DB	0c3H
	DB	018H
	DB	0e3H
	DB	018H
	DB	0c3H
	DB	018H
	DB	0c3H
	DB	018H
	DB	0e3H
	DB	018H
	DB	0c3H
	DB	018H
	DB	0c4H
	DB	020H
	DB	0e3H
	DB	018H
	DB	0c3H
	DB	018H
	DB	0c4H
	DB	020H
	DB	0e3H
	DB	018H
	DB	0c3H
	DB	018H
	DB	0c3H
	DB	018H
	DB	0e3H
	DB	018H
	DB	0c3H
	DB	018H
	DB	0c3H
	DB	018H
	DB	0e3H
	DB	018H
	DB	0c3H
	DB	018H
	DB	0c3H
	DB	018H
	DB	0c3H
	DB	018H
	DB	0e3H
	DB	018H
	DB	0c4H
	DB	020H
	DB	0c3H
	DB	018H
	DB	0e3H
	DB	018H
	DB	0c4H
	DB	020H
	DB	0c3H
	DB	018H
	DB	0c3H
	DB	018H
	DB	0e3H
	DB	018H
	DB	0c3H
	DB	018H
	DB	0c3H
	DB	018H
	DB	0c4H
	DB	020H
	DB	0e3H
	DB	018H
	DB	0c3H
	DB	018H
	DB	0c3H
	DB	018H
	DB	0e3H
	DB	018H
	DB	0c4H
	DB	020H
	DB	0c3H
	DB	018H
	DB	0e3H
	DB	018H
	DB	0c3H
	DB	018H
	DB	0c3H
	DB	018H
	DB	0e3H
	DB	018H
	DB	0c3H
	DB	018H
	DB	0c3H
	DB	018H
	DB	0e3H
	DB	018H
	DB	0c3H
	DB	018H
	DB	0c3H
	DB	018H
	DB	0e3H
	DB	018H
	DB	0c3H
	DB	018H
	DB	0c3H
	DB	018H
	DB	0c4H
	DB	020H
	DB	0e3H
	DB	018H
	DB	0c3H
	DB	018H
	DB	0c4H
	DB	020H
	DB	0e3H
	DB	018H
	DB	0c3H
	DB	018H
	DB	0c3H
	DB	018H
	DB	0c3H
	DB	018H
	DB	0e3H
	DB	018H
	DB	0c3H
	DB	018H
	DB	0c3H
	DB	018H
	DB	0c3H
	DB	018H
	DB	0e3H
	DB	018H
	DB	0c3H
	DB	018H
	DB	0c3H
	DB	018H
	DB	0e3H
	DB	018H
	DB	0c3H
	DB	018H
	DB	0c3H
	DB	018H
	DB	0e3H
	DB	018H
	DB	0c3H
	DB	018H
	DB	0c3H
	DB	018H
	DB	0e3H
	DB	018H
	DB	0c3H
	DB	018H
	DB	0c3H
	DB	018H
	DB	0e3H
	DB	018H
	DB	0c3H
	DB	018H
	DB	0c3H
	DB	018H
	DB	0e3H
	DB	018H
	DB	0c4H
	DB	020H
	DB	0c3H
	DB	018H
	DB	0c3H
	DB	018H
	DB	0e3H
	DB	018H
	DB	0c3H
	DB	018H
	DB	0c3H
	DB	018H
	DB	0e3H
	DB	018H
	DB	0c3H
	DB	018H
	DB	0c3H
	DB	018H
	DB	0c3H
	DB	018H
	DB	0e3H
	DB	018H
	DB	0c3H
	DB	018H
	DB	0c3H
	DB	018H
	DB	0c4H
	DB	020H
	DB	0e3H
	DB	018H
	DB	0c3H
	DB	018H
	DB	0c4H
	DB	020H
	DB	0e3H
	DB	018H
	DB	0c3H
	DB	018H
	DB	0c3H
	DB	018H
	DB	0e3H
	DB	018H
	DB	0c3H
	DB	018H
	DB	0c3H
	DB	018H
	DB	0e3H
	DB	018H
	DB	0c3H
	DB	018H
	DB	0c3H
	DB	018H
	DB	0e3H
	DB	018H
	DB	0c3H
	DB	018H
	DB	0c4H
	DB	020H
	DB	0e3H
	DB	018H
	DB	0c3H
	DB	018H
	DB	0c4H
	DB	020H
	DB	0c3H
	DB	018H
	DB	0e3H
	DB	018H
	DB	0c3H
	DB	018H
	DB	0c3H
	DB	018H
	DB	0e3H
	DB	018H
	DB	0c4H
	DB	020H
	DB	0c3H
	DB	018H
	DB	0c3H
	DB	018H
	DB	0e3H
	DB	018H
	DB	0c3H
	DB	018H
	DB	0c4H
	DB	020H
	DB	0c3H
	DB	018H
	DB	0e3H
	DB	018H
	DB	0c3H
	DB	018H
	DB	0c3H
	DB	018H
	DB	0e3H
	DB	018H
	DB	0c3H
	DB	018H
	DB	0c3H
	DB	018H
	DB	0e3H
	DB	018H
	DB	0c3H
	DB	018H
	DB	0c3H
	DB	018H
	DB	0e3H
	DB	018H
	DB	0c3H
	DB	018H
	DB	0c3H
	DB	018H
	DB	0e4H
	DB	020H
	DB	0c3H
	DB	018H
	DB	0c3H
	DB	018H
	DB	0e4H
	DB	020H
	DB	0c3H
	DB	018H
	DB	0c3H
	DB	018H
	DB	0c3H
	DB	018H
	DB	0e3H
	DB	018H
	DB	0c3H
	DB	018H
	DB	0c3H
	DB	018H
	DB	0e3H
	DB	018H
	DB	0c3H
	DB	018H
	DB	0c3H
	DB	018H
	DB	0c3H
	DB	018H
	DB	0e3H
	DB	018H
	DB	0c3H
	DB	018H
	DB	0c3H
	DB	018H
	DB	0c3H
	DB	018H
	DB	0e3H
	DB	018H
	DB	0c3H
	DB	018H
	DB	0c3H
	DB	018H
	DB	0e3H
	DB	018H
	DB	0c3H
	DB	018H
	DB	0c3H
	DB	018H
	DB	0e3H
	DB	018H
	DB	0c3H
	DB	018H
	DB	0c3H
	DB	018H
	DB	0e3H
	DB	018H
	DB	0c4H
	DB	020H
	DB	0c3H
	DB	018H
	DB	0e3H
	DB	018H
	DB	0c3H
	DB	018H
	DB	0c3H
	DB	018H
	DB	0e3H
	DB	018H
	DB	0c3H
	DB	018H
	DB	0c3H
	DB	018H
	DB	0c3H
	DB	018H
	DB	0e3H
	DB	018H
	DB	0c3H
	DB	018H
	DB	0c3H
	DB	018H
	DB	0e3H
	DB	018H
	DB	0c4H
	DB	020H
	DB	0c3H
	DB	018H
	DB	0c3H
	DB	018H
	DB	0e4H
	DB	020H
	DB	0c3H
	DB	018H
	DB	0c3H
	DB	018H
	DB	0c3H
	DB	018H
	DB	0e3H
	DB	018H
	DB	0c3H
	DB	018H
	DB	0c3H
	DB	018H
	DB	0e3H
	DB	018H
	DB	0c3H
	DB	018H
	DB	0c3H
	DB	018H
	DB	0e3H
	DB	018H
	DB	0c3H
	DB	018H
	DB	0c4H
	DB	020H
	DB	0e3H
	DB	018H
	DB	0c3H
	DB	018H
	DB	0c4H
	DB	020H
	DB	0e3H
	DB	018H
	DB	0c3H
	DB	018H
	DB	0c3H
	DB	018H
	DB	0e3H
	DB	018H
	DB	0c3H
	DB	018H
	DB	0c4H
	DB	020H
	DB	0c3H
	DB	018H
	DB	0e3H
	DB	018H
	DB	0c3H
	DB	018H
	DB	0c3H
	DB	018H
	DB	0e4H
	DB	020H
	DB	0c3H
	DB	018H
	DB	0c3H
	DB	018H
	DB	0c3H
	DB	018H
	DB	0e3H
	DB	018H
	DB	0c3H
	DB	018H
	DB	0c3H
	DB	018H
	DB	0c3H
	DB	018H
	DB	0e3H
	DB	018H
	DB	0c3H
	DB	018H
	DB	0c3H
	DB	018H
	DB	0e3H
	DB	018H
	DB	0c3H
	DB	018H
	DB	0c3H
	DB	018H
	DB	0e4H
	DB	020H
	DB	0c3H
	DB	018H
	DB	0c3H
	DB	018H
	DB	0e4H
	DB	020H
	DB	0c3H
	DB	018H
	DB	0c3H
	DB	018H
	DB	0e3H
	DB	018H
	DB	0c3H
	DB	018H
	DB	0c3H
	DB	018H
	DB	0e3H
	DB	018H
	DB	0c3H
	DB	018H
	DB	0c3H
	DB	018H
	DB	0c3H
	DB	018H
	DB	0e3H
	DB	018H
	DB	0c3H
	DB	018H
	DB	0c3H
	DB	018H
	DB	0e3H
	DB	018H
	DB	0c3H
	DB	018H
	DB	0c3H
	DB	018H
	DB	0c3H
	DB	018H
	DB	0e3H
	DB	018H
	DB	0c3H
	DB	018H
	DB	0c3H
	DB	018H
	DB	0c3H
	DB	018H
	DB	0e3H
	DB	018H
	DB	0c3H
	DB	018H
	DB	0c3H
	DB	018H
	DB	0e3H
	DB	018H
	DB	0c4H
	DB	020H
	DB	0c3H
	DB	018H
	DB	0e3H
	DB	018H
	DB	0c3H
	DB	018H
	DB	0c3H
	DB	018H
	DB	0e3H
	DB	018H
	DB	0c3H
	DB	018H
	DB	0c4H
	DB	020H
	DB	0e3H
	DB	018H
	DB	0c3H
	DB	018H
	DB	0c4H
	DB	020H
	DB	0e3H
	DB	018H
	DB	0c3H
	DB	018H
	DB	0c3H
	DB	018H
	DB	0e3H
	DB	018H
	DB	0c3H
	DB	018H
	DB	0c3H
	DB	018H
	DB	0e3H
	DB	018H
	DB	0c3H
	DB	018H
	DB	0c3H
	DB	018H
	DB	0e3H
	DB	018H
	DB	0c3H
	DB	018H
	DB	0c3H
	DB	018H
	DB	0c3H
	DB	018H
	DB	0c3H
	DB	018H
	DB	0c3H
	DB	018H
	DB	0c3H
	DB	018H
	DB	0c3H
	DB	018H
	DB	0c3H
	DB	018H
	DB	0c3H
	DB	018H
	DB	0e3H
	DB	018H
	DB	0c3H
	DB	018H
	DB	0c3H
	DB	018H
	DB	0c3H
	DB	018H
	DB	0c3H
	DB	018H
	DB	0e3H
	DB	018H
	DB	0c3H
	DB	018H
	DB	0c3H
	DB	018H
	DB	0c3H
	DB	018H
	DB	0c3H
	DB	018H
	DB	0c4H
	DB	020H
	DB	0e3H
	DB	018H
	DB	0c3H
	DB	018H
	DB	0c3H
	DB	018H
	DB	0e3H
	DB	018H
	DB	0c3H
	DB	018H
	DB	0c3H
	DB	018H
	DB	0c3H
	DB	018H
	DB	0e3H
	DB	018H
	DB	0c3H
	DB	018H
	DB	0c3H
	DB	018H
	DB	0c3H
	DB	018H
	DB	0c3H
	DB	018H
	DB	0e3H
	DB	018H
	DB	0c3H
	DB	018H
	DB	0c4H
	DB	020H
	DB	0c3H
	DB	018H
	DB	0c3H
	DB	018H
	DB	0c3H
	DB	018H
	DB	0e4H
	DB	020H
	DB	0c3H
	DB	018H
	DB	0c3H
	DB	018H
	DB	0e4H
	DB	020H
	DB	0c3H
	DB	018H
	DB	0c3H
	DB	018H
	DB	0c3H
	DB	018H
	DB	0e3H
	DB	018H
	DB	0c3H
	DB	018H
	DB	0c3H
	DB	018H
	DB	0e3H
	DB	018H
	DB	0c4H
	DB	020H
	DB	0c3H
	DB	018H
	DB	0c3H
	DB	018H
	DB	0c3H
	DB	018H
	DB	0e4H
	DB	020H
	DB	0c3H
	DB	018H
	DB	0c3H
	DB	018H
	DB	0e4H
	DB	020H
	DB	0c3H
	DB	018H
	DB	0c3H
	DB	018H
	DB	0c4H
	DB	020H
	DB	0c3H
	DB	018H
	DB	0e3H
	DB	018H
	DB	0c4H
	DB	020H
	DB	0c3H
	DB	018H
	DB	0e3H
	DB	018H
	DB	0c3H
	DB	018H
	DB	0c3H
	DB	018H
	DB	0c3H
	DB	018H
	DB	0e3H
	DB	018H
	DB	0c3H
	DB	018H
	DB	0c3H
	DB	018H
	DB	0c3H
	DB	018H
	DB	0e3H
	DB	018H
	DB	0c3H
	DB	018H
	DB	0c3H
	DB	018H
	DB	0e3H
	DB	018H
	DB	0c3H
	DB	018H
	DB	0c3H
	DB	018H
	DB	0c3H
	DB	018H
	DB	0e3H
	DB	018H
	DB	0c3H
	DB	018H
	DB	0c3H
	DB	018H
	DB	0e3H
	DB	018H
	DB	0c3H
	DB	018H
	DB	0c3H
	DB	018H
	DB	0c3H
	DB	018H
	DB	0e3H
	DB	018H
	DB	0c4H
	DB	020H
	DB	0c3H
	DB	018H
	DB	0e3H
	DB	018H
	DB	0c3H
	DB	018H
	DB	0c4H
	DB	020H
	DB	0e3H
	DB	018H
	DB	0c3H
	DB	018H
	DB	0c3H
	DB	018H
	DB	0e3H
	DB	018H
	DB	0c3H
	DB	018H
	DB	0c3H
	DB	018H
	DB	0e3H
	DB	018H
	DB	0c3H
	DB	018H
	DB	0c4H
	DB	020H
	DB	0e3H
	DB	018H
	DB	0c3H
	DB	018H
	DB	0c4H
	DB	020H
	DB	0e3H
	DB	018H
	DB	0c3H
	DB	018H
	DB	0c3H
	DB	018H
	DB	0e4H
	DB	020H
	DB	0c3H
	DB	018H
	DB	0c3H
	DB	018H
	DB	0e4H
	DB	020H
	DB	0c3H
	DB	018H
	DB	0c3H
	DB	018H
	DB	0e4H
	DB	020H
	DB	0c3H
	DB	018H
	DB	0c3H
	DB	018H
	DB	0c4H
	DB	020H
	DB	0e3H
	DB	018H
	DB	0c3H
	DB	018H
	DB	0c4H
	DB	020H
	DB	0e3H
	DB	018H
	DB	0c3H
	DB	018H
	DB	0c3H
	DB	018H
	DB	0e3H
	DB	018H
	DB	0c3H
	DB	018H
	DB	0c4H
	DB	020H
	DB	0e3H
	DB	018H
	DB	0c3H
	DB	018H
	DB	0c4H
	DB	020H
	DB	0c3H
	DB	018H
	DB	0e3H
	DB	018H
	DB	0c4H
	DB	020H
	DB	0c3H
	DB	018H
	DB	0e3H
	DB	018H
	DB	0c3H
	DB	018H
	DB	0c3H
	DB	018H
	DB	0e3H
	DB	018H
	DB	0c3H
	DB	018H
	DB	0c3H
	DB	018H
	DB	0c3H
	DB	018H
	DB	0e3H
	DB	018H
	DB	0c3H
	DB	018H
	DB	0c4H
	DB	020H
	DB	0e3H
	DB	018H
	DB	0c3H
	DB	018H
	DB	0c4H
	DB	020H
	DB	0c3H
	DB	018H
	DB	0e3H
	DB	018H
	DB	0c4H
	DB	020H
	DB	0c3H
	DB	018H
	DB	0e3H
	DB	018H
	DB	0c3H
	DB	018H
	DB	0c3H
	DB	018H
	DB	0e3H
	DB	018H
	DB	0c3H
	DB	018H
	DB	0c3H
	DB	018H
	DB	0e3H
	DB	018H
	DB	0c4H
	DB	020H
	DB	0c3H
	DB	018H
	DB	0c3H
	DB	018H
	DB	0e3H
	DB	018H
	DB	0c3H
	DB	018H
	DB	0c3H
	DB	018H
	DB	0e3H
	DB	018H
	DB	0c3H
	DB	018H
	DB	0c3H
	DB	018H
	DB	0e3H
	DB	018H
	DB	0c3H
	DB	018H
	DB	0c4H
	DB	020H
	DB	0c3H
	DB	018H
	DB	0e3H
	DB	018H
	DB	0c3H
	DB	018H
	DB	0c3H
	DB	018H
	DB	0e4H
	DB	020H
	DB	0c3H
	DB	018H
	DB	0c3H
	DB	018H
	DB	0c4H
	DB	020H
	DB	0e3H
	DB	018H
	DB	0c3H
	DB	018H
	DB	0c3H
	DB	018H
	DB	0e3H
	DB	018H
	DB	0c3H
	DB	018H
	DB	0c3H
	DB	018H
	DB	0e3H
	DB	018H
	DB	0c4H
	DB	020H
	DB	0c3H
	DB	018H
	DB	0e3H
	DB	018H
	DB	0c4H
	DB	020H
	DB	0c3H
	DB	018H
	DB	0c3H
	DB	018H
	DB	0e3H
	DB	018H
	DB	0c4H
	DB	020H
	DB	0c3H
	DB	018H
	DB	0e3H
	DB	018H
	DB	0c4H
	DB	020H
	DB	0c3H
	DB	018H
	DB	0e3H
	DB	018H
	DB	0c4H
	DB	020H
	DB	0c3H
	DB	018H
	DB	0c3H
	DB	018H
	DB	0e4H
	DB	020H
	DB	0c3H
	DB	018H
	DB	0c3H
	DB	018H
	DB	0e4H
	DB	020H
	DB	0c3H
	DB	018H
	DB	0c3H
	DB	018H
	DB	0c3H
	DB	018H
	DB	0e3H
	DB	018H
	DB	0c3H
	DB	018H
	DB	0c4H
	DB	020H
	DB	0e3H
	DB	018H
	DB	0c3H
	DB	018H
	DB	0c4H
	DB	020H
	DB	0e3H
	DB	018H
	DB	0c3H
	DB	018H
	DB	0c4H
	DB	020H
	DB	0e3H
	DB	018H
	DB	0c3H
	DB	018H
	DB	0c3H
	DB	018H
	DB	0c3H
	DB	018H
	DB	0e3H
	DB	018H
	DB	0c3H
	DB	018H
	DB	0c3H
	DB	018H
	DB	0e3H
	DB	018H
	DB	0c3H
	DB	018H
	DB	0c3H
	DB	018H
	DB	0e4H
	DB	020H
	DB	0c3H
	DB	018H
	DB	0c3H
	DB	018H
	DB	0c4H
	DB	020H
	DB	0e3H
	DB	018H
	DB	0c3H
	DB	018H
	DB	0c4H
	DB	020H
	DB	0e3H
	DB	018H
	DB	0c3H
	DB	018H
	DB	0c3H
	DB	018H
	DB	0c3H
	DB	018H
	DB	0e3H
	DB	018H
	DB	0c3H
	DB	018H
	DB	0c3H
	DB	018H
	DB	0e3H
	DB	018H
	DB	0c4H
	DB	020H
	DB	0c3H
	DB	018H
	DB	0e3H
	DB	018H
	DB	0c3H
	DB	018H
	DB	0c3H
	DB	018H
	DB	0e3H
	DB	018H
	DB	0c3H
	DB	018H
	DB	0c3H
	DB	018H
	DB	0c3H
	DB	018H
	DB	0e3H
	DB	018H
	DB	0c3H
	DB	018H
	DB	0c4H
	DB	020H
	DB	0e3H
	DB	018H
	DB	0c3H
	DB	018H
	DB	0c3H
	DB	018H
	DB	0e3H
	DB	018H
	DB	0c4H
	DB	020H
	DB	0c3H
	DB	018H
	DB	0c3H
	DB	018H
	DB	0e4H
	DB	020H
	DB	0c3H
	DB	018H
	DB	0c3H
	DB	018H
	DB	0e3H
	DB	018H
	DB	0c3H
	DB	018H
	DB	0c3H
	DB	018H
	DB	0c3H
	DB	018H
	DB	0e3H
	DB	018H
	DB	0c4H
	DB	020H
	DB	0c3H
	DB	018H
	DB	0e3H
	DB	018H
	DB	0c4H
	DB	020H
	DB	0c3H
	DB	018H
	DB	0e3H
	DB	018H
	DB	0c3H
	DB	018H
	DB	0c4H
	DB	020H
	DB	0e3H
	DB	018H
	DB	0c3H
	DB	018H
	DB	0c4H
	DB	020H
	DB	0c3H
	DB	018H
	DB	0e3H
	DB	018H
	DB	0c4H
	DB	020H
	DB	0c3H
	DB	018H
	DB	0e3H
	DB	018H
	DB	0c4H
	DB	020H
	DB	0c3H
	DB	018H
	DB	0e3H
	DB	018H
	DB	0c4H
	DB	020H
	DB	0c3H
	DB	018H
	DB	0c3H
	DB	018H
	DB	0e3H
	DB	018H
	DB	0c3H
	DB	018H
	DB	0c3H
	DB	018H
	DB	0e4H
	DB	020H
	DB	0c3H
	DB	018H
	DB	0c3H
	DB	018H
	DB	0c4H
	DB	020H
	DB	0e3H
	DB	018H
	DB	0c3H
	DB	018H
	DB	0c4H
	DB	020H
	DB	0e3H
	DB	018H
	DB	0c3H
	DB	018H
	DB	0c3H
	DB	018H
	DB	0e3H
	DB	018H
	DB	0c3H
	DB	018H
	DB	0c3H
	DB	018H
	DB	0e3H
	DB	018H
	DB	0c3H
	DB	018H
	DB	0c3H
	DB	018H
	DB	0c3H
	DB	018H
	DB	0e4H
	DB	020H
	DB	0c3H
	DB	018H
	DB	0c3H
	DB	018H
	DB	0e4H
	DB	020H
	DB	0c3H
	DB	018H
	DB	0c3H
	DB	018H
	DB	0e4H
	DB	020H
	DB	0c3H
	DB	018H
	DB	0c3H
	DB	018H
	DB	0c3H
	DB	018H
	DB	0e3H
	DB	018H
	DB	0c3H
	DB	018H
	DB	0c3H
	DB	018H
	DB	0e3H
	DB	018H
	DB	0c3H
	DB	018H
	DB	0c4H
	DB	020H
	DB	0c3H
	DB	018H
	DB	0e3H
	DB	018H
	DB	0c3H
	DB	018H
	DB	0c3H
	DB	018H
	DB	0e3H
	DB	018H
	DB	0c3H
	DB	018H
	DB	0c3H
	DB	018H
	DB	0e3H
	DB	018H
	DB	0c3H
	DB	018H
	DB	0c3H
	DB	018H
	DB	0e4H
	DB	020H
	DB	0c3H
	DB	018H
	DB	0c3H
	DB	018H
	DB	0c3H
	DB	018H
	DB	0e3H
	DB	018H
	DB	0c4H
	DB	020H
	DB	0c3H
	DB	018H
	DB	0e3H
	DB	018H
	DB	0c4H
	DB	020H
	DB	0c3H
	DB	018H
	DB	0e3H
	DB	018H
	DB	0c3H
	DB	018H
	DB	0c3H
	DB	018H
	DB	0c3H
	DB	018H
	DB	0e3H
	DB	018H
	DB	0c3H
	DB	018H
	DB	0c4H
	DB	020H
	DB	0e3H
	DB	018H
	DB	0c3H
	DB	018H
	DB	0c4H
	DB	020H
	DB	0c3H
	DB	018H
	DB	0e3H
	DB	018H
	DB	0c3H
	DB	018H
	DB	0c4H
	DB	020H
	DB	0e3H
	DB	018H
	DB	0c3H
	DB	018H
	DB	0c4H
	DB	020H
	DB	0e3H
	DB	018H
	DB	0c3H
	DB	018H
	DB	0c4H
	DB	020H
	DB	0e3H
	DB	018H
	DB	0c3H
	DB	018H
	DB	0c4H
	DB	020H
	DB	0c3H
	DB	018H
	DB	0e3H
	DB	018H
	DB	0c4H
	DB	020H
	DB	0c3H
	DB	018H
	DB	0e3H
	DB	018H
	DB	0c3H
	DB	018H
	DB	0c3H
	DB	018H
	DB	0e3H
	DB	018H
	DB	0c4H
	DB	020H
	DB	0c3H
	DB	018H
	DB	0c3H
	DB	018H
	DB	0e4H
	DB	020H
	DB	0c3H
	DB	018H
	DB	0c3H
	DB	018H
	DB	0e4H
	DB	020H
	DB	0c3H
	DB	018H
	DB	0c3H
	DB	018H
	DB	0c3H
	DB	018H
	DB	0e3H
	DB	018H
	DB	0c3H
	DB	018H
	DB	0c3H
	DB	018H
	DB	0e3H
	DB	018H
	DB	0c3H
	DB	018H
	DB	0c3H
	DB	018H
	DB	0e3H
	DB	018H
	DB	0c4H
	DB	020H
	DB	0c3H
	DB	018H
	DB	0e3H
	DB	018H
	DB	0c4H
	DB	020H
	DB	0c3H
	DB	018H
	DB	0c3H
	DB	018H
	DB	0e4H
	DB	020H
	DB	0c3H
	DB	018H
	DB	0c3H
	DB	018H
	DB	0e3H
	DB	018H
	DB	0c3H
	DB	018H
	DB	0c3H
	DB	018H
	DB	0e3H
	DB	018H
	DB	0c3H
	DB	018H
	DB	0c3H
	DB	018H
	DB	0c4H
	DB	020H
	DB	0e3H
	DB	018H
	DB	0c3H
	DB	018H
	DB	0c3H
	DB	018H
	DB	0e3H
	DB	018H
	DB	0c3H
	DB	018H
	DB	0c3H
	DB	018H
	DB	0c3H
	DB	018H
	DB	0e3H
	DB	018H
	DB	0c3H
	DB	018H
	DB	0c3H
	DB	018H
	DB	0e4H
	DB	020H
	DB	0c3H
	DB	018H
	DB	0c3H
	DB	018H
	DB	0e3H
	DB	018H
	DB	0c3H
	DB	018H
	DB	0c4H
	DB	020H
	DB	0e3H
	DB	018H
	DB	0c3H
	DB	018H
	DB	0c4H
	DB	020H
	DB	0c3H
	DB	018H
	DB	0e3H
	DB	018H
	DB	0c3H
	DB	018H
	DB	0c3H
	DB	018H
	DB	0e3H
	DB	018H
	DB	0c3H
	DB	018H
	DB	0c3H
	DB	018H
	DB	0e4H
	DB	020H
	DB	0c3H
	DB	018H
	DB	0c3H
	DB	018H
	DB	0c4H
	DB	020H
	DB	0e3H
	DB	018H
	DB	0c3H
	DB	018H
	DB	0c3H
	DB	018H
	DB	0e4H
	DB	020H
	DB	0c3H
	DB	018H
	DB	0c3H
	DB	018H
	DB	0c4H
	DB	020H
	DB	0e3H
	DB	018H
	DB	0c3H
	DB	018H
	DB	0c4H
	DB	020H
	DB	0e3H
	DB	018H
	DB	0c3H
	DB	018H
	DB	0c4H
	DB	020H
	DB	0e3H
	DB	018H
	DB	0c3H
	DB	018H
	DB	0c4H
	DB	020H
	DB	0e3H
	DB	018H
	DB	0c3H
	DB	018H
	DB	0c3H
	DB	018H
	DB	0c3H
	DB	018H
	DB	0e3H
	DB	018H
	DB	0c4H
	DB	020H
	DB	0c3H
	DB	018H
	DB	0e3H
	DB	018H
	DB	0c3H
	DB	018H
	DB	0c3H
	DB	018H
	DB	0e3H
	DB	018H
	DB	0c3H
	DB	018H
	DB	0c3H
	DB	018H
	DB	0c3H
	DB	018H
	DB	0e3H
	DB	018H
	DB	0c3H
	DB	018H
	DB	0c4H
	DB	020H
	DB	0e3H
	DB	018H
	DB	0c3H
	DB	018H
	DB	0c3H
	DB	018H
	DB	0e4H
	DB	020H
	DB	0c3H
	DB	018H
	DB	0c3H
	DB	018H
	DB	0e3H
	DB	018H
	DB	0c4H
	DB	020H
	DB	0e3H
	DB	018H
	DB	0e3H
	DB	018H
	DB	0c4H
	DB	020H
	DB	0c3H
	DB	018H
	DB	0c3H
	DB	018H
	DB	0c3H
	DB	018H
	DB	0c3H
	DB	018H
	DB	0c3H
	DB	018H
	DB	0c3H
	DB	018H
	DB	0c3H
	DB	018H
	DB	0c3H
	DB	018H
	DB	0c3H
	DB	018H
	DB	0c3H
	DB	018H
	DB	0c3H
	DB	018H
	DB	0c3H
	DB	018H
	DB	0c3H
	DB	018H
	DB	0c3H
	DB	018H
	DB	0c3H
	DB	018H
	DB	0c3H
	DB	018H
	DB	0c3H
	DB	018H
	DB	0c3H
	DB	018H
	DB	0c3H
	DB	018H
	DB	0c3H
	DB	018H
	DB	0c3H
	DB	018H
	DB	0c3H
	DB	018H
	DB	0c3H
	DB	018H
	DB	0c3H
	DB	018H
	DB	0c3H
	DB	018H
	DB	0c3H
	DB	018H
	DB	0c3H
	DB	018H
	DB	0c3H
	DB	018H
	DB	0c3H
	DB	018H
	DB	0c3H
	DB	018H
	DB	0c3H
	DB	018H
	DB	0c3H
	DB	018H
	DB	0c3H
	DB	018H
	DB	0c3H
	DB	018H
	DB	0c3H
	DB	018H
	DB	0c3H
	DB	018H
	DB	0c3H
	DB	018H
	DB	0c3H
	DB	018H
	DB	0c3H
	DB	018H
	DB	0c3H
	DB	018H
	DB	0c3H
	DB	018H
	DB	0c3H
	DB	018H
	DB	0c3H
	DB	018H
	DB	0c3H
	DB	018H
	DB	0c3H
	DB	018H
	DB	0c3H
	DB	018H
	DB	0c3H
	DB	018H
	DB	0c3H
	DB	018H
	DB	0c3H
	DB	018H
	DB	0c3H
	DB	018H
	DB	0c3H
	DB	018H
	DB	0c3H
	DB	018H
	DB	0c3H
	DB	018H
	DB	0c3H
	DB	018H
	DB	0c3H
	DB	018H
	DB	0c3H
	DB	018H
	DB	0c3H
	DB	018H
	DB	0c3H
	DB	018H
	DB	0c3H
	DB	018H
	DB	0c3H
	DB	018H
	DB	0c3H
	DB	018H
	DB	0c3H
	DB	018H
	DB	0c3H
	DB	018H
	DB	0c3H
	DB	018H
	DB	0c3H
	DB	018H
	DB	0c3H
	DB	018H
	DB	0c3H
	DB	018H
	DB	0c3H
	DB	018H
	DB	0c3H
	DB	018H
	DB	0c3H
	DB	018H
	DB	0c3H
	DB	018H
	DB	0c3H
	DB	018H
	DB	0c3H
	DB	018H
	DB	0c3H
	DB	018H
	DB	0c3H
	DB	018H
	DB	0c3H
	DB	018H
	DB	0c3H
	DB	018H
	DB	0c3H
	DB	018H
	DB	0c3H
	DB	018H
	DB	0c3H
	DB	018H
	DB	0c3H
	DB	018H
	DB	0c3H
	DB	018H
	DB	0c3H
	DB	018H
	DB	0c3H
	DB	018H
	DB	0c3H
	DB	018H
	DB	0c3H
	DB	018H
	DB	0c3H
	DB	018H
	DB	0c3H
	DB	018H
	DB	0c3H
	DB	018H
	DB	0c3H
	DB	018H
	DB	0c3H
	DB	018H
	DB	0c3H
	DB	018H
	DB	0c3H
	DB	018H
	DB	0c3H
	DB	018H
	DB	0c3H
	DB	018H
	DB	0c3H
	DB	018H
	DB	0c3H
	DB	018H
	DB	0c3H
	DB	018H
	DB	0c3H
	DB	018H
	DB	0c3H
	DB	018H
	DB	0c3H
	DB	018H
	DB	0c3H
	DB	018H
	DB	0c3H
	DB	018H
	DB	0c3H
	DB	018H
	DB	0c3H
	DB	018H
	DB	0c3H
	DB	018H
	DB	0c3H
	DB	018H
	DB	0c3H
	DB	018H
	DB	0c3H
	DB	018H
	DB	0c3H
	DB	018H
	DB	0c3H
	DB	018H
	DB	0c3H
	DB	018H
	DB	0c3H
	DB	018H
	DB	0c3H
	DB	018H
	DB	0c3H
	DB	018H
	DB	0c3H
	DB	018H
	DB	0c3H
	DB	018H
	DB	0c3H
	DB	018H
	DB	0c3H
	DB	018H
	DB	0c3H
	DB	018H
	DB	0c3H
	DB	018H
	DB	0c3H
	DB	018H
	DB	0c3H
	DB	018H
	DB	0c3H
	DB	018H
	DB	0c3H
	DB	018H
	DB	0c3H
	DB	018H
	DB	0c3H
	DB	018H
	DB	0c3H
	DB	018H
	DB	0c3H
	DB	018H
	DB	0c3H
	DB	018H
	DB	0c3H
	DB	018H
	DB	0c3H
	DB	018H
	DB	0c3H
	DB	018H
	DB	0c3H
	DB	018H
	DB	0c3H
	DB	018H
	DB	0c3H
	DB	018H
	DB	0c3H
	DB	018H
	DB	0c3H
	DB	018H
	DB	0c3H
	DB	018H
	DB	0c3H
	DB	018H
	DB	0c3H
	DB	018H
	DB	0c3H
	DB	018H
	DB	0c3H
	DB	018H
	DB	0c3H
	DB	018H
	DB	0c3H
	DB	018H
	DB	0c3H
	DB	018H
	DB	0c3H
	DB	018H
	DB	0c3H
	DB	018H
	DB	0c3H
	DB	018H
	DB	0c3H
	DB	018H
	DB	0c3H
	DB	018H
	DB	0c3H
	DB	018H
	DB	0c3H
	DB	018H
	DB	0c3H
	DB	018H
	DB	0c3H
	DB	018H
	DB	0c3H
	DB	018H
	DB	0c3H
	DB	018H
	DB	0c3H
	DB	018H
	DB	0c3H
	DB	018H
	DB	0c3H
	DB	018H
	DB	0c3H
	DB	018H
	DB	0c3H
	DB	018H
	DB	0c3H
	DB	018H
	DB	0c3H
	DB	018H
	DB	0c3H
	DB	018H
	DB	0c3H
	DB	018H
	DB	0c3H
	DB	018H
	DB	0c3H
	DB	018H
	DB	0c3H
	DB	018H
	DB	0c3H
	DB	018H
	DB	0c3H
	DB	018H
	DB	0c3H
	DB	018H
	DB	0c3H
	DB	018H
	DB	0c3H
	DB	018H
	DB	0c3H
	DB	018H
	DB	0c3H
	DB	018H
	DB	0c3H
	DB	018H
	DB	0c3H
	DB	018H
	DB	0c3H
	DB	018H
	DB	0c3H
	DB	018H
	DB	0c3H
	DB	018H
	DB	0c3H
	DB	018H
	DB	0c3H
	DB	018H
	DB	0c3H
	DB	018H
	DB	0c3H
	DB	018H
	DB	0c3H
	DB	018H
	DB	0c3H
	DB	018H
	DB	0c3H
	DB	018H
	DB	0c3H
	DB	018H
	DB	0c3H
	DB	018H
	DB	0c3H
	DB	018H
	DB	0c3H
	DB	018H
	DB	0c3H
	DB	018H
	DB	0c3H
	DB	018H
	DB	0c3H
	DB	018H
	DB	0c3H
	DB	018H
	DB	0c3H
	DB	018H
	DB	0c3H
	DB	018H
	DB	0c3H
	DB	018H
	DB	0c3H
	DB	018H
	DB	0c3H
	DB	018H
	DB	0c3H
	DB	018H
	DB	0c3H
	DB	018H
	DB	0c3H
	DB	018H
	DB	0c3H
	DB	018H
	DB	0c3H
	DB	018H
	DB	0c3H
	DB	018H
	DB	0c3H
	DB	018H
	DB	0c3H
	DB	018H
	DB	0c3H
	DB	018H
	DB	0c3H
	DB	018H
	DB	0c3H
	DB	018H
	DB	0c3H
	DB	018H
	DB	0c3H
	DB	018H
	DB	0c3H
	DB	018H
	DB	0c3H
	DB	018H
	DB	0c3H
	DB	018H
	DB	0c3H
	DB	018H
	DB	0c3H
	DB	018H
	DB	0c3H
	DB	018H
	DB	0c3H
	DB	018H
	DB	0c3H
	DB	018H
	DB	0c3H
	DB	018H
	DB	0c3H
	DB	018H
	DB	0c3H
	DB	018H
	DB	0c3H
	DB	018H
	DB	0c3H
	DB	018H
	DB	0c3H
	DB	018H
	DB	0c3H
	DB	018H
	DB	0c3H
	DB	018H
	DB	0c3H
	DB	018H
	DB	0c3H
	DB	018H
	DB	0c3H
	DB	018H
	DB	0c3H
	DB	018H
	DB	0c3H
	DB	018H
	DB	0c3H
	DB	018H
	DB	0c3H
	DB	018H
	DB	0c3H
	DB	018H
	DB	0c3H
	DB	018H
	DB	0c3H
	DB	018H
	DB	0c3H
	DB	018H
	DB	0c3H
	DB	018H
	DB	0c3H
	DB	018H
	DB	0c3H
	DB	018H
	DB	0c3H
	DB	018H
	DB	0c3H
	DB	018H
	DB	0c3H
	DB	018H
	DB	0c3H
	DB	018H
	DB	0c3H
	DB	018H
	DB	0c3H
	DB	018H
	DB	0c3H
	DB	018H
	DB	0c3H
	DB	018H
	DB	0c3H
	DB	018H
	DB	0c3H
	DB	018H
	DB	0c3H
	DB	018H
	DB	0c3H
	DB	018H
	DB	0c3H
	DB	018H
	DB	0c3H
	DB	018H
	DB	0c3H
	DB	018H
	DB	0c3H
	DB	018H
	DB	0c3H
	DB	018H
	DB	0c3H
	DB	018H
	DB	0c3H
	DB	018H
	DB	0c3H
	DB	018H
	DB	0c3H
	DB	018H
	DB	0c3H
	DB	018H
	DB	0c3H
	DB	018H
	DB	0c3H
	DB	018H
	DB	0c3H
	DB	018H
	DB	0c3H
	DB	018H
	DB	0c3H
	DB	018H
	DB	0c3H
	DB	018H
	DB	0c3H
	DB	018H
	DB	0c3H
	DB	018H
	DB	0c3H
	DB	018H
	DB	0c3H
	DB	018H
	DB	0c3H
	DB	018H
	DB	0c3H
	DB	018H
	DB	0c3H
	DB	018H
	DB	0c3H
	DB	018H
	DB	0c3H
	DB	018H
	DB	0c3H
	DB	018H
	DB	0c3H
	DB	018H
	DB	0c3H
	DB	018H
	DB	0c3H
	DB	018H
	DB	0c3H
	DB	018H
	DB	0c3H
	DB	018H
	DB	0c3H
	DB	018H
	DB	0c3H
	DB	018H
	DB	0c3H
	DB	018H
	DB	0c3H
	DB	018H
	DB	0c3H
	DB	018H
	DB	0c3H
	DB	018H
	DB	0c3H
	DB	018H
	DB	0c3H
	DB	018H
	DB	0c3H
	DB	018H
	DB	0c3H
	DB	018H
	DB	0c3H
	DB	018H
	DB	0c3H
	DB	018H
	DB	0c3H
	DB	018H
	DB	0c3H
	DB	018H
	DB	0c3H
	DB	018H
	DB	0c3H
	DB	018H
	DB	0c3H
	DB	018H
	DB	0c3H
	DB	018H
	DB	0c3H
	DB	018H
	DB	0c3H
	DB	018H
	DB	0c3H
	DB	018H
	DB	0c3H
	DB	018H
	DB	0c3H
	DB	018H
	DB	0c3H
	DB	018H
	DB	0c3H
	DB	018H
	DB	0c3H
	DB	018H
	DB	0c3H
	DB	018H
	DB	0c3H
	DB	018H
	DB	0c3H
	DB	018H
	DB	0c3H
	DB	018H
	DB	0c3H
	DB	018H
	DB	0c3H
	DB	018H
	DB	0c3H
	DB	018H
	DB	0c3H
	DB	018H
	DB	0c3H
	DB	018H
	DB	0c3H
	DB	018H
	DB	0c3H
	DB	018H
	DB	0c3H
	DB	018H
	DB	0c3H
	DB	018H
	DB	0c3H
	DB	018H
	DB	0c3H
	DB	018H
	DB	0c3H
	DB	018H
	DB	0c3H
	DB	018H
	DB	0c3H
	DB	018H
	DB	0c3H
	DB	018H
	DB	0c3H
	DB	018H
	DB	0c3H
	DB	018H
	DB	0c3H
	DB	018H
	DB	0c3H
	DB	018H
	DB	0c3H
	DB	018H
	DB	0c3H
	DB	018H
	DB	0c3H
	DB	018H
	DB	0c3H
	DB	018H
	DB	0c3H
	DB	018H
	DB	0c3H
	DB	018H
	DB	0c3H
	DB	018H
	DB	0c3H
	DB	018H
	DB	0c3H
	DB	018H
	DB	0c3H
	DB	018H
	DB	0c3H
	DB	018H
	DB	0c3H
	DB	018H
	DB	0c3H
	DB	018H
	DB	0c3H
	DB	018H
	DB	0c3H
	DB	018H
	DB	0c3H
	DB	018H
	DB	0c3H
	DB	018H
	DB	0c3H
	DB	018H
	DB	0c3H
	DB	018H
	DB	0c3H
	DB	018H
	DB	0c3H
	DB	018H
	DB	0c3H
	DB	018H
	DB	0c3H
	DB	018H
	DB	0c3H
	DB	018H
	DB	0c3H
	DB	018H
	DB	0c3H
	DB	018H
	DB	0c3H
	DB	018H
	DB	0c3H
	DB	018H
	DB	0c3H
	DB	018H
	DB	0c3H
	DB	018H
	DB	0c3H
	DB	018H
	DB	0c3H
	DB	018H
	DB	0c3H
	DB	018H
	DB	0c3H
	DB	018H
	DB	0c3H
	DB	018H
	DB	0c3H
	DB	018H
	DB	0c3H
	DB	018H
	DB	0c3H
	DB	018H
	DB	0c3H
	DB	018H
	DB	0c3H
	DB	018H
	DB	0c3H
	DB	018H
	DB	0c3H
	DB	018H
	DB	0c3H
	DB	018H
	DB	0c3H
	DB	018H
	DB	0c3H
	DB	018H
	DB	0c3H
	DB	018H
	DB	0c3H
	DB	018H
	DB	0c3H
	DB	018H
	DB	0c3H
	DB	018H
	DB	0c3H
	DB	018H
	DB	0c3H
	DB	018H
	DB	0c3H
	DB	018H
	DB	0c3H
	DB	018H
	DB	0c3H
	DB	018H
	DB	0c3H
	DB	018H
	DB	0c3H
	DB	018H
	DB	0c3H
	DB	018H
	DB	0c3H
	DB	018H
	DB	0c3H
	DB	018H
	DB	0c3H
	DB	018H
	DB	0c3H
	DB	018H
	DB	0c3H
	DB	018H
	DB	0c3H
	DB	018H
	DB	0c3H
	DB	018H
	DB	0c3H
	DB	018H
	DB	0c3H
	DB	018H
	DB	0c3H
	DB	018H
	DB	0c3H
	DB	018H
	DB	0c3H
	DB	018H
	DB	0c3H
	DB	018H
	DB	0c3H
	DB	018H
	DB	0c3H
	DB	018H
	DB	0c3H
	DB	018H
	DB	0c3H
	DB	018H
	DB	0c3H
	DB	018H
	DB	0c3H
	DB	018H
	DB	0c3H
	DB	018H
	DB	0c3H
	DB	018H
	DB	0c3H
	DB	018H
	DB	0c3H
	DB	018H
	DB	0c3H
	DB	018H
	DB	0c3H
	DB	018H
	DB	0c3H
	DB	018H
	DB	0c3H
	DB	018H
	DB	0c3H
	DB	018H
	DB	0c3H
	DB	018H
	DB	0c3H
	DB	018H
	DB	0c3H
	DB	018H
	DB	0c3H
	DB	018H
	DB	0c3H
	DB	018H
	DB	0c3H
	DB	018H
	DB	0c3H
	DB	018H
	DB	0c3H
	DB	018H
	DB	0c3H
	DB	018H
	DB	0c3H
	DB	018H
	DB	0c3H
	DB	018H
	DB	0c3H
	DB	018H
	DB	0c3H
	DB	018H
	DB	0c3H
	DB	018H
	DB	0c3H
	DB	018H
	DB	0c3H
	DB	018H
	DB	0c3H
	DB	018H
	DB	0c3H
	DB	018H
	DB	0c3H
	DB	018H
	DB	0c3H
	DB	018H
	DB	0c3H
	DB	018H
	DB	0c3H
	DB	018H
	DB	0c3H
	DB	018H
	DB	0c3H
	DB	018H
	DB	0c3H
	DB	018H
	DB	0c3H
	DB	018H
	DB	0c3H
	DB	018H
	DB	0c3H
	DB	018H
	DB	0c3H
	DB	018H
	DB	0c3H
	DB	018H
	DB	0c3H
	DB	018H
	DB	0c3H
	DB	018H
	DB	0c3H
	DB	018H
	DB	0c3H
	DB	018H
	DB	0c3H
	DB	018H
	DB	0c3H
	DB	018H
	DB	0c3H
	DB	018H
	DB	0c3H
	DB	018H
	DB	0c3H
	DB	018H
	DB	0c3H
	DB	018H
	DB	0c3H
	DB	018H
	DB	0c3H
	DB	018H
	DB	0c3H
	DB	018H
	DB	0c3H
	DB	018H
	DB	0c3H
	DB	018H
	DB	0c3H
	DB	018H
	DB	0c3H
	DB	018H
	DB	0c3H
	DB	018H
	DB	0c3H
	DB	018H
	DB	0c3H
	DB	018H
	DB	0c3H
	DB	018H
	DB	0c3H
	DB	018H
	DB	0c3H
	DB	018H
	DB	0c3H
	DB	018H
	DB	0c3H
	DB	018H
	DB	0c3H
	DB	018H
	DB	0c3H
	DB	018H
	DB	0c3H
	DB	018H
	DB	0c3H
	DB	018H
	DB	0c3H
	DB	018H
	DB	0c3H
	DB	018H
	DB	0c3H
	DB	018H
	DB	0c3H
	DB	018H
	DB	0c3H
	DB	018H
	DB	0c3H
	DB	018H
	DB	0c3H
	DB	018H
	DB	0c3H
	DB	018H
	DB	0c3H
	DB	018H
	DB	0c3H
	DB	018H
	DB	0c3H
	DB	018H
	DB	0c3H
	DB	018H
	DB	0c3H
	DB	018H
	DB	0c3H
	DB	018H
	DB	0c3H
	DB	018H
	DB	0c3H
	DB	018H
	DB	0c3H
	DB	018H
	DB	0c3H
	DB	018H
	DB	0c3H
	DB	018H
	DB	0c3H
	DB	018H
	DB	0c3H
	DB	018H
	DB	0c3H
	DB	018H
	DB	0c3H
	DB	018H
	DB	0c3H
	DB	018H
	DB	0c3H
	DB	018H
	DB	0c3H
	DB	018H
	DB	0c3H
	DB	018H
	DB	0c3H
	DB	018H
	DB	0c3H
	DB	018H
	DB	0c3H
	DB	018H
	DB	0c3H
	DB	018H
	DB	0c3H
	DB	018H
	DB	0c3H
	DB	018H
	DB	0c3H
	DB	018H
	DB	0c3H
	DB	018H
	DB	0c3H
	DB	018H
	DB	0c3H
	DB	018H
	DB	0c3H
	DB	018H
	DB	0c3H
	DB	018H
	DB	0c3H
	DB	018H
	DB	0c3H
	DB	018H
	DB	0c3H
	DB	018H
	DB	0c3H
	DB	018H
	DB	0c3H
	DB	018H
	DB	0c3H
	DB	018H
	DB	0c3H
	DB	018H
	DB	0c3H
	DB	018H
	DB	0c3H
	DB	018H
	DB	0c3H
	DB	018H
	DB	0c3H
	DB	018H
	DB	0c3H
	DB	018H
	DB	0c3H
	DB	018H
	DB	0c3H
	DB	018H
	DB	0c3H
	DB	018H
	DB	0c3H
	DB	018H
	DB	0c3H
	DB	018H
	DB	0c3H
	DB	018H
	DB	0c3H
	DB	018H
	DB	0c3H
	DB	018H
	DB	0c3H
	DB	018H
	DB	0c3H
	DB	018H
	DB	0c3H
	DB	018H
	DB	0c3H
	DB	018H
	DB	0c3H
	DB	018H
	DB	0c3H
	DB	018H
	DB	0c3H
	DB	018H
	DB	0c3H
	DB	018H
	DB	0c3H
	DB	018H
	DB	0c3H
	DB	018H
	DB	0c3H
	DB	018H
	DB	0c3H
	DB	018H
	DB	0c3H
	DB	018H
	DB	0c3H
	DB	018H
	DB	0c3H
	DB	018H
	DB	0c3H
	DB	018H
	DB	0c3H
	DB	018H
	DB	0c3H
	DB	018H
	DB	0c3H
	DB	018H
	DB	0c3H
	DB	018H
	DB	0c3H
	DB	018H
	DB	0c3H
	DB	018H
	DB	0c3H
	DB	018H
	DB	0c3H
	DB	018H
	DB	0c3H
	DB	018H
	DB	0c3H
	DB	018H
	DB	0c3H
	DB	018H
	DB	0c3H
	DB	018H
	DB	0c3H
	DB	018H
	DB	0c3H
	DB	018H
	DB	0c3H
	DB	018H
	DB	0c3H
	DB	018H
	DB	0c3H
	DB	018H
	DB	0c3H
	DB	018H
	DB	0c3H
	DB	018H
	DB	0c3H
	DB	018H
	DB	0c3H
	DB	018H
	DB	0c3H
	DB	018H
	DB	0c3H
	DB	018H
	DB	0c3H
	DB	018H
	DB	0c3H
	DB	018H
	DB	0c3H
	DB	018H
	DB	0c3H
	DB	018H
	DB	0c3H
	DB	018H
	DB	0c3H
	DB	018H
	DB	0c3H
	DB	018H
	DB	0c3H
	DB	018H
	DB	0c3H
	DB	018H
	DB	0c3H
	DB	018H
	DB	0c3H
	DB	018H
	DB	0c3H
	DB	018H
	DB	0c3H
	DB	018H
	DB	0c3H
	DB	018H
	DB	0c3H
	DB	018H
	DB	0c3H
	DB	018H
	DB	0c3H
	DB	018H
	DB	0c3H
	DB	018H
	DB	0c3H
	DB	018H
	DB	0c3H
	DB	018H
	DB	0c3H
	DB	018H
	DB	0c3H
	DB	018H
	DB	0c3H
	DB	018H
	DB	0c3H
	DB	018H
	DB	0c3H
	DB	018H
	DB	0c3H
	DB	018H
	DB	0c3H
	DB	018H
	DB	0c3H
	DB	018H
	DB	0c3H
	DB	018H
	DB	0c3H
	DB	018H
	DB	0c3H
	DB	018H
	DB	0c3H
	DB	018H
	DB	0c3H
	DB	018H
	DB	0c3H
	DB	018H
	DB	0c3H
	DB	018H
	DB	0c3H
	DB	018H
	DB	0c3H
	DB	018H
	DB	0c3H
	DB	018H
	DB	0c3H
	DB	018H
	DB	0c3H
	DB	018H
	DB	0c3H
	DB	018H
	DB	0c3H
	DB	018H
	DB	0c3H
	DB	018H
	DB	0c3H
	DB	018H
	DB	0c3H
	DB	018H
	DB	0c3H
	DB	018H
	DB	0c3H
	DB	018H
	DB	0c3H
	DB	018H
	DB	0c3H
	DB	018H
	DB	0c3H
	DB	018H
	DB	0c3H
	DB	018H
	DB	0c3H
	DB	018H
	DB	0c3H
	DB	018H
	DB	0c3H
	DB	018H
	DB	0c3H
	DB	018H
	DB	0c3H
	DB	018H
	DB	0c3H
	DB	018H
	DB	0c3H
	DB	018H
	DB	0c3H
	DB	018H
	DB	0c3H
	DB	018H
	DB	0c3H
	DB	018H
	DB	0c3H
	DB	018H
	DB	0c3H
	DB	018H
	DB	0c3H
	DB	018H
	DB	0c3H
	DB	018H
	DB	0c3H
	DB	018H
	DB	0c3H
	DB	018H
	DB	0c3H
	DB	018H
	DB	0c3H
	DB	018H
	DB	0c3H
	DB	018H
	DB	0c3H
	DB	018H
	DB	0c3H
	DB	018H
	DB	0c3H
	DB	018H
	DB	0c3H
	DB	018H
	DB	0c3H
	DB	018H
	DB	0c3H
	DB	018H
	DB	0c3H
	DB	018H
	DB	0c3H
	DB	018H
	DB	0c3H
	DB	018H
	DB	0c3H
	DB	018H
	DB	0c3H
	DB	018H
	DB	0c3H
	DB	018H
	DB	0c3H
	DB	018H
	DB	0c3H
	DB	018H
	DB	0c3H
	DB	018H
	DB	0c3H
	DB	018H
	DB	0c3H
	DB	018H
	DB	0c3H
	DB	018H
	DB	0c3H
	DB	018H
	DB	0c3H
	DB	018H
	DB	0c3H
	DB	018H
	DB	0c3H
	DB	018H
	DB	0c3H
	DB	018H
	DB	0c3H
	DB	018H
	DB	0c3H
	DB	018H
	DB	0c3H
	DB	018H
	DB	0c3H
	DB	018H
	DB	0c3H
	DB	018H
	DB	0c3H
	DB	018H
	DB	0c3H
	DB	018H
	DB	0c3H
	DB	018H
	DB	0c3H
	DB	018H
	DB	0c3H
	DB	018H
	DB	0c3H
	DB	018H
	DB	0c3H
	DB	018H
	DB	0c3H
	DB	018H
	DB	0c3H
	DB	018H
	DB	0c3H
	DB	018H
	DB	0c3H
	DB	018H
	DB	0c3H
	DB	018H
	DB	0c3H
	DB	018H
	DB	0c3H
	DB	018H
	DB	0c3H
	DB	018H
	DB	0c3H
	DB	018H
	DB	0c3H
	DB	018H
	DB	0c3H
	DB	018H
	DB	0c3H
	DB	018H
	DB	0c3H
	DB	018H
	DB	0c3H
	DB	018H
	DB	0c3H
	DB	018H
	DB	0c3H
	DB	018H
	DB	0c3H
	DB	018H
	DB	0c3H
	DB	018H
	DB	0c3H
	DB	018H
	DB	0c3H
	DB	018H
	DB	0c3H
	DB	018H
	DB	0c3H
	DB	018H
	DB	0c3H
	DB	018H
	DB	0c3H
	DB	018H
	DB	0c3H
	DB	018H
	DB	0c3H
	DB	018H
	DB	0c3H
	DB	018H
	DB	0c3H
	DB	018H
	DB	0c3H
	DB	018H
	DB	0c3H
	DB	018H
	DB	0c3H
	DB	018H
	DB	0c3H
	DB	018H
	DB	0c3H
	DB	018H
	DB	0c3H
	DB	018H
	DB	0c3H
	DB	018H
	DB	0c3H
	DB	018H
	DB	0c3H
	DB	018H
	DB	0c3H
	DB	018H
	DB	0c3H
	DB	018H
	DB	0c3H
	DB	018H
	DB	0c3H
	DB	018H
	DB	0c3H
	DB	018H
	DB	0c3H
	DB	018H
	DB	0c3H
	DB	018H
	DB	0c3H
	DB	018H
	DB	0c3H
	DB	018H
	DB	0c3H
	DB	018H
	DB	0c3H
	DB	018H
	DB	0c3H
	DB	018H
	DB	0c3H
	DB	018H
	DB	0c3H
	DB	018H
	DB	0c3H
	DB	018H
	DB	0c3H
	DB	018H
	DB	0c3H
	DB	018H
	DB	0c3H
	DB	018H
	DB	0c3H
	DB	018H
	DB	0c3H
	DB	018H
	DB	0c3H
	DB	018H
	DB	0c3H
	DB	018H
	DB	0c3H
	DB	018H
	DB	0c3H
	DB	018H
	DB	0c3H
	DB	018H
	DB	0c3H
	DB	018H
	DB	0c3H
	DB	018H
	DB	0c3H
	DB	018H
	DB	0c3H
	DB	018H
	DB	0c3H
	DB	018H
	DB	0c3H
	DB	018H
	DB	0c3H
	DB	018H
	DB	0c3H
	DB	018H
	DB	0c3H
	DB	018H
	DB	0c3H
	DB	018H
	DB	0c3H
	DB	018H
	DB	0c3H
	DB	018H
	DB	0c3H
	DB	018H
	DB	0c3H
	DB	018H
	DB	0c3H
	DB	018H
	DB	0c3H
	DB	018H
	DB	0c3H
	DB	018H
	DB	0c3H
	DB	018H
	DB	0c3H
	DB	018H
	DB	0c3H
	DB	018H
	DB	0c3H
	DB	018H
	DB	0c3H
	DB	018H
	DB	0c3H
	DB	018H
	DB	0c3H
	DB	018H
	DB	0c3H
	DB	018H
	DB	0c3H
	DB	018H
	DB	0c3H
	DB	018H
	DB	0c3H
	DB	018H
	DB	0c3H
	DB	018H
	DB	0c3H
	DB	018H
	DB	0c3H
	DB	018H
	DB	0c3H
	DB	018H
	DB	0c3H
	DB	018H
	DB	0c3H
	DB	018H
	DB	0c3H
	DB	018H
	DB	0c3H
	DB	018H
	DB	0c3H
	DB	018H
	DB	0c3H
	DB	018H
	DB	0c3H
	DB	018H
	DB	0c3H
	DB	018H
	DB	0c3H
	DB	018H
	DB	0c3H
	DB	018H
	DB	0c3H
	DB	018H
	DB	0c3H
	DB	018H
	DB	0c3H
	DB	018H
	DB	0c3H
	DB	018H
	DB	0c3H
	DB	018H
	DB	0c3H
	DB	018H
	DB	0c3H
	DB	018H
	DB	0c3H
	DB	018H
	DB	0c3H
	DB	018H
	DB	0c3H
	DB	018H
	DB	0c3H
	DB	018H
	DB	0c3H
	DB	018H
	DB	0c3H
	DB	018H
	DB	0c3H
	DB	018H
	DB	0c3H
	DB	018H
	DB	0c3H
	DB	018H
	DB	0c3H
	DB	018H
	DB	0c3H
	DB	018H
	DB	0c3H
	DB	018H
	DB	0c3H
	DB	018H
	DB	0c3H
	DB	018H
	DB	0c3H
	DB	018H
	DB	0c3H
	DB	018H
	DB	0c3H
	DB	018H
	DB	0c3H
	DB	018H
	DB	0c3H
	DB	018H
	DB	0c3H
	DB	018H
	DB	0c3H
	DB	018H
	DB	0c3H
	DB	018H
	DB	0c3H
	DB	018H
	DB	0c3H
	DB	018H
	DB	0c3H
	DB	018H
	DB	0c3H
	DB	018H
	DB	0c3H
	DB	018H
	DB	0c3H
	DB	018H
	DB	0c3H
	DB	018H
	DB	0c3H
	DB	018H
	DB	0c3H
	DB	018H
	DB	0c3H
	DB	018H
	DB	0c3H
	DB	018H
	DB	0c3H
	DB	018H
	DB	0c3H
	DB	018H
	DB	0c3H
	DB	018H
	DB	0c3H
	DB	018H
	DB	0c3H
	DB	018H
	DB	0c3H
	DB	018H
	DB	0c3H
	DB	018H
	DB	0c3H
	DB	018H
	DB	0c3H
	DB	018H
	DB	0c3H
	DB	018H
	DB	0c3H
	DB	018H
	DB	0c3H
	DB	018H
	DB	0c3H
	DB	018H
	DB	0c3H
	DB	018H
	DB	0c3H
	DB	018H
	DB	0c3H
	DB	018H
	DB	0c3H
	DB	018H
	DB	0c3H
	DB	018H
	DB	0c3H
	DB	018H
	DB	0c3H
	DB	018H
	DB	0c3H
	DB	018H
	DB	0c3H
	DB	018H
	DB	0c3H
	DB	018H
	DB	0c3H
	DB	018H
	DB	0c3H
	DB	018H
	DB	0c3H
	DB	018H
	DB	0c3H
	DB	018H
	DB	0c3H
	DB	018H
	DB	0c3H
	DB	018H
	DB	0c3H
	DB	018H
	DB	0c3H
	DB	018H
	DB	0c3H
	DB	018H
	DB	0c3H
	DB	018H
	DB	0c3H
	DB	018H
	DB	0c3H
	DB	018H
	DB	0c3H
	DB	018H
	DB	0c3H
	DB	018H
	DB	0c3H
	DB	018H
	DB	0c3H
	DB	018H
	DB	0c3H
	DB	018H
	DB	0c3H
	DB	018H
	DB	0c3H
	DB	018H
	DB	0c3H
	DB	018H
	DB	0c3H
	DB	018H
	DB	0c3H
	DB	018H
	DB	0c3H
	DB	018H
	DB	0c3H
	DB	018H
	DB	0c3H
	DB	018H
	DB	0c3H
	DB	018H
	DB	0c3H
	DB	018H
	DB	0c3H
	DB	018H
	DB	0c3H
	DB	018H
	DB	0c3H
	DB	018H
	DB	0c3H
	DB	018H
	DB	0c3H
	DB	018H
	DB	0c3H
	DB	018H
	DB	0c3H
	DB	018H
	DB	0c3H
	DB	018H
	DB	0c3H
	DB	018H
	DB	0c3H
	DB	018H
	DB	0c3H
	DB	018H
	DB	0c3H
	DB	018H
	DB	0c3H
	DB	018H
	DB	0c3H
	DB	018H
	DB	0c3H
	DB	018H
	DB	0c3H
	DB	018H
	DB	0c3H
	DB	018H
	DB	0c3H
	DB	018H
	DB	0c3H
	DB	018H
	DB	0c3H
	DB	018H
	DB	0c3H
	DB	018H
	DB	0c3H
	DB	018H
	DB	0c3H
	DB	018H
	DB	0c3H
	DB	018H
	DB	0c3H
	DB	018H
	DB	0c3H
	DB	018H
	DB	0c3H
	DB	018H
	DB	0c3H
	DB	018H
	DB	0c3H
	DB	018H
	DB	0c3H
	DB	018H
	DB	0c3H
	DB	018H
	DB	0c3H
	DB	018H
	DB	0c3H
	DB	018H
	DB	0c3H
	DB	018H
	DB	0c3H
	DB	018H
	DB	0c3H
	DB	018H
	DB	0c3H
	DB	018H
	DB	0c3H
	DB	018H
	DB	0c3H
	DB	018H
	DB	0c3H
	DB	018H
	DB	0c3H
	DB	018H
	DB	0c3H
	DB	018H
	DB	0c3H
	DB	018H
	DB	0c3H
	DB	018H
	DB	0c3H
	DB	018H
	DB	0c3H
	DB	018H
	DB	0c3H
	DB	018H
	DB	0c3H
	DB	018H
	DB	0c3H
	DB	018H
	DB	0c3H
	DB	018H
	DB	0c3H
	DB	018H
	DB	0c3H
	DB	018H
	DB	0c3H
	DB	018H
	DB	0c3H
	DB	018H
	DB	0c3H
	DB	018H
	DB	0c3H
	DB	018H
	DB	0c3H
	DB	018H
	DB	0c3H
	DB	018H
	DB	0c3H
	DB	018H
	DB	0c3H
	DB	018H
	DB	0c3H
	DB	018H
	DB	0c3H
	DB	018H
	DB	0c3H
	DB	018H
	DB	0c3H
	DB	018H
	DB	0c3H
	DB	018H
	DB	0c3H
	DB	018H
	DB	0c3H
	DB	018H
	DB	0c3H
	DB	018H
	DB	0c3H
	DB	018H
	DB	0c3H
	DB	018H
	DB	0c3H
	DB	018H
	DB	0c3H
	DB	018H
	DB	0c3H
	DB	018H
	DB	0c3H
	DB	018H
	DB	0c3H
	DB	018H
	DB	0c3H
	DB	018H
	DB	0c3H
	DB	018H
	DB	0c3H
	DB	018H
	DB	0c3H
	DB	018H
	DB	0c3H
	DB	018H
	DB	0c3H
	DB	018H
	DB	0c3H
	DB	018H
	DB	0c3H
	DB	018H
	DB	0c3H
	DB	018H
	DB	0c3H
	DB	018H
	DB	0c3H
	DB	018H
	DB	0c3H
	DB	018H
	DB	0c3H
	DB	018H
	DB	0c3H
	DB	018H
	DB	0c3H
	DB	018H
	DB	0c3H
	DB	018H
	DB	0c3H
	DB	018H
	DB	0c3H
	DB	018H
	DB	0c3H
	DB	018H
	DB	0c3H
	DB	018H
	DB	0c3H
	DB	018H
	DB	0c3H
	DB	018H
	DB	0c3H
	DB	018H
	DB	0c3H
	DB	018H
	DB	0c3H
	DB	018H
	DB	0c3H
	DB	018H
	DB	0c3H
	DB	018H
	DB	0c3H
	DB	018H
	DB	0c3H
	DB	018H
	DB	0c3H
	DB	018H
	DB	0c3H
	DB	018H
	DB	0c3H
	DB	018H
	DB	0c3H
	DB	018H
	DB	0c3H
	DB	018H
	DB	0c3H
	DB	018H
	DB	0c3H
	DB	018H
	DB	0c3H
	DB	018H
	DB	0c3H
	DB	018H
	DB	0c3H
	DB	018H
	DB	0c3H
	DB	018H
	DB	0c3H
	DB	018H
	DB	0c3H
	DB	018H
	DB	0c3H
	DB	018H
	DB	0c3H
	DB	018H
	DB	0c3H
	DB	018H
	DB	0c3H
	DB	018H
	DB	0c3H
	DB	018H
	DB	0c3H
	DB	018H
	DB	0c3H
	DB	018H
	DB	0c3H
	DB	018H
	DB	0c3H
	DB	018H
	DB	0c3H
	DB	018H
	DB	0c3H
	DB	018H
	DB	0c3H
	DB	018H
	DB	0c3H
	DB	018H
	DB	0c3H
	DB	018H
	DB	0c3H
	DB	018H
	DB	0c3H
	DB	018H
	DB	0c3H
	DB	018H
	DB	0c3H
	DB	018H
	DB	0c3H
	DB	018H
	DB	0c3H
	DB	018H
	DB	0c3H
	DB	018H
	DB	0c3H
	DB	018H
	DB	0c3H
	DB	018H
	DB	0c3H
	DB	018H
	DB	0c3H
	DB	018H
	DB	0c3H
	DB	018H
	DB	0c3H
	DB	018H
	DB	0c3H
	DB	018H
	DB	0c3H
	DB	018H
	DB	0c3H
	DB	018H
	DB	0c3H
	DB	018H
	DB	0c3H
	DB	018H
	DB	0c3H
	DB	018H
	DB	0c3H
	DB	018H
	DB	0c3H
	DB	018H
	DB	0c3H
	DB	018H
	DB	0c3H
	DB	018H
	DB	0c3H
	DB	018H
	DB	0c3H
	DB	018H
	DB	0c3H
	DB	018H
	DB	0c3H
	DB	018H
	DB	0c3H
	DB	018H
	DB	0c3H
	DB	018H
	DB	0c3H
	DB	018H
	DB	0c3H
	DB	018H
	DB	0c3H
	DB	018H
	DB	0c3H
	DB	018H
	DB	0c3H
	DB	018H
	DB	0c3H
	DB	018H
	DB	0c3H
	DB	018H
	DB	0c3H
	DB	018H
	DB	0c3H
	DB	018H
	DB	0c3H
	DB	018H
	DB	0c3H
	DB	018H
	DB	0c3H
	DB	018H
	DB	0c3H
	DB	018H
	DB	0c3H
	DB	018H
	DB	0c3H
	DB	018H
	DB	0c3H
	DB	018H
	DB	0c3H
	DB	018H
	DB	0c3H
	DB	018H
	DB	0c3H
	DB	018H
	DB	0c3H
	DB	018H
	DB	0c3H
	DB	018H
	DB	0c3H
	DB	018H
	DB	0c3H
	DB	018H
	DB	0c3H
	DB	018H
	DB	0c3H
	DB	018H
	DB	0c3H
	DB	018H
	DB	0c3H
	DB	018H
	DB	0c3H
	DB	018H
	DB	0c3H
	DB	018H
	DB	0c3H
	DB	018H
	DB	0c3H
	DB	018H
	DB	0c3H
	DB	018H
	DB	0c3H
	DB	018H
	DB	0c3H
	DB	018H
	DB	0c3H
	DB	018H
	DB	0c3H
	DB	018H
	DB	0c3H
	DB	018H
	DB	0c3H
	DB	018H
	DB	0c3H
	DB	018H
	DB	0c3H
	DB	018H
	DB	0c3H
	DB	018H
	DB	0c3H
	DB	018H
	DB	0c3H
	DB	018H
	DB	0c3H
	DB	018H
	DB	0c3H
	DB	018H
	DB	0c3H
	DB	018H
	DB	0c3H
	DB	018H
	DB	0c3H
	DB	018H
	DB	0c3H
	DB	018H
	DB	0c3H
	DB	018H
	DB	0c3H
	DB	018H
	DB	0c3H
	DB	018H
	DB	0c3H
	DB	018H
	DB	0c3H
	DB	018H
	DB	0c3H
	DB	018H
	DB	0c3H
	DB	018H
	DB	0c3H
	DB	018H
	DB	0c3H
	DB	018H
	DB	0c3H
	DB	018H
	DB	0c3H
	DB	018H
	DB	0c3H
	DB	018H
	DB	0c3H
	DB	018H
	DB	0c3H
	DB	018H
	DB	0c3H
	DB	018H
	DB	0c3H
	DB	018H
	DB	0c3H
	DB	018H
	DB	0c3H
	DB	018H
	DB	0c3H
	DB	018H
	DB	0c3H
	DB	018H
	DB	0c3H
	DB	018H
	DB	0c3H
	DB	018H
	DB	0c3H
	DB	018H
	DB	0c3H
	DB	018H
	DB	0c3H
	DB	018H
	DB	0c3H
	DB	018H
	DB	0c3H
	DB	018H
	DB	0c3H
	DB	018H
	DB	0c3H
	DB	018H
	DB	0c3H
	DB	018H
	DB	0c3H
	DB	018H
	DB	0c3H
	DB	018H
	DB	0c3H
	DB	018H
	DB	0c3H
	DB	018H
	DB	0c3H
	DB	018H
	DB	0c3H
	DB	018H
	DB	0c3H
	DB	018H
	DB	0c3H
	DB	018H
	DB	0c3H
	DB	018H
	DB	0c3H
	DB	018H
	DB	0c3H
	DB	018H
	DB	0c3H
	DB	018H
	DB	0c3H
	DB	018H
	DB	0c3H
	DB	018H
	DB	0c3H
	DB	018H
	DB	0c3H
	DB	018H
	DB	0c3H
	DB	018H
	DB	0c3H
	DB	018H
	DB	0c3H
	DB	018H
	DB	0c3H
	DB	018H
	DB	0c3H
	DB	018H
	DB	0c3H
	DB	018H
	DB	0c3H
	DB	018H
	DB	0c3H
	DB	018H
	DB	0c3H
	DB	018H
	DB	0c3H
	DB	018H
	DB	0c3H
	DB	018H
	DB	0c3H
	DB	018H
	DB	0c3H
	DB	018H
	DB	0c3H
	DB	018H
	DB	0c3H
	DB	018H
	DB	0c3H
	DB	018H
	DB	0c3H
	DB	018H
	DB	0c3H
	DB	018H
	DB	0c3H
	DB	018H
	DB	0c3H
	DB	018H
	DB	0c3H
	DB	018H
	DB	0c3H
	DB	018H
	DB	0c3H
	DB	018H
	DB	0c3H
	DB	018H
	DB	0c3H
	DB	018H
	DB	0c3H
	DB	018H
	DB	0c3H
	DB	018H
	DB	0c3H
	DB	018H
	DB	0c3H
	DB	018H
	DB	0c3H
	DB	018H
	DB	0c3H
	DB	018H
	DB	0c3H
	DB	018H
	DB	0c3H
	DB	018H
	DB	0c3H
	DB	018H
	DB	0c3H
	DB	018H
	DB	0c3H
	DB	018H
	DB	0c3H
	DB	018H
	DB	0c3H
	DB	018H
	DB	0c3H
	DB	018H
	DB	0c3H
	DB	018H
	DB	0c3H
	DB	018H
	DB	0c3H
	DB	018H
	DB	0c3H
	DB	018H
	DB	0c3H
	DB	018H
	DB	0c3H
	DB	018H
	DB	0c3H
	DB	018H
	DB	0c3H
	DB	018H
	DB	0c3H
	DB	018H
	DB	0c3H
	DB	018H
	DB	0c3H
	DB	018H
	DB	0c3H
	DB	018H
	DB	0c3H
	DB	018H
	DB	0c3H
	DB	018H
	DB	0c3H
	DB	018H
	DB	0c3H
	DB	018H
	DB	0c3H
	DB	018H
	DB	0c3H
	DB	018H
	DB	0c3H
	DB	018H
	DB	0c3H
	DB	018H
	DB	0c3H
	DB	018H
	DB	0c3H
	DB	018H
	DB	0c3H
	DB	018H
	DB	0c3H
	DB	018H
	DB	0c3H
	DB	018H
	DB	0c3H
	DB	018H
	DB	0c3H
	DB	018H
	DB	0c3H
	DB	018H
	DB	0c3H
	DB	018H
	DB	0c3H
	DB	018H
	DB	0c3H
	DB	018H
	DB	0c3H
	DB	018H
	DB	0c3H
	DB	018H
	DB	0c3H
	DB	018H
	DB	0c3H
	DB	018H
	DB	0c3H
	DB	018H
	DB	0c3H
	DB	018H
	DB	0c3H
	DB	018H
	DB	0c3H
	DB	018H
	DB	0c3H
	DB	018H
	DB	0c3H
	DB	018H
	DB	0c3H
	DB	018H
	DB	0c3H
	DB	018H
	DB	0c3H
	DB	018H
	DB	0c3H
	DB	018H
	DB	0c3H
	DB	018H
	DB	0c3H
	DB	018H
	DB	0c3H
	DB	018H
	DB	0c3H
	DB	018H
	DB	0c3H
	DB	018H
	DB	0c3H
	DB	018H
	DB	0c3H
	DB	018H
	DB	0c3H
	DB	018H
	DB	0c3H
	DB	018H
	DB	0c3H
	DB	018H
	DB	0c3H
	DB	018H
	DB	0c3H
	DB	018H
	DB	0c3H
	DB	018H
	DB	0c3H
	DB	018H
	DB	0c3H
	DB	018H
	DB	0c3H
	DB	018H
	DB	0c3H
	DB	018H
	DB	0c3H
	DB	018H
	DB	0c3H
	DB	018H
	DB	0c3H
	DB	018H
	DB	0c3H
	DB	018H
	DB	0c3H
	DB	018H
	DB	0c3H
	DB	018H
	DB	0c3H
	DB	018H
	DB	0c3H
	DB	018H
	DB	0c3H
	DB	018H
	DB	0c3H
	DB	018H
	DB	0c3H
	DB	018H
	DB	0c3H
	DB	018H
	DB	0c3H
	DB	018H
	DB	0c3H
	DB	018H
	DB	0c3H
	DB	018H
	DB	0c3H
	DB	018H
	DB	0c3H
	DB	018H
	DB	0c3H
	DB	018H
	DB	0c3H
	DB	018H
	DB	0c3H
	DB	018H
	DB	0c3H
	DB	018H
	DB	0c3H
	DB	018H
	DB	0c3H
	DB	018H
	DB	0c3H
	DB	018H
	DB	0c3H
	DB	018H
	DB	0c3H
	DB	018H
	DB	0c3H
	DB	018H
	DB	0c3H
	DB	018H
	DB	0c3H
	DB	018H
	DB	0c3H
	DB	018H
	DB	0c3H
	DB	018H
	DB	0c3H
	DB	018H
	DB	0c3H
	DB	018H
	DB	0c3H
	DB	018H
	DB	0c3H
	DB	018H
	DB	0c3H
	DB	018H
	DB	0c3H
	DB	018H
	DB	0c3H
	DB	018H
	DB	0c3H
	DB	018H
	DB	0c3H
	DB	018H
	DB	0c3H
	DB	018H
	DB	0c3H
	DB	018H
	DB	0c3H
	DB	018H
	DB	0c3H
	DB	018H
	DB	0c3H
	DB	018H
	DB	0c3H
	DB	018H
	DB	0c3H
	DB	018H
	DB	0c3H
	DB	018H
	DB	0c3H
	DB	018H
	DB	0c3H
	DB	018H
	DB	0c3H
	DB	018H
	DB	0c3H
	DB	018H
	DB	0c3H
	DB	018H
	DB	0c3H
	DB	018H
	DB	0c3H
	DB	018H
	DB	0c3H
	DB	018H
	DB	0c3H
	DB	018H
	DB	0c3H
	DB	018H
	DB	0c3H
	DB	018H
	DB	0c3H
	DB	018H
	DB	0c3H
	DB	018H
	DB	0c3H
	DB	018H
	DB	0c3H
	DB	018H
	DB	0c3H
	DB	018H
	DB	0c3H
	DB	018H
	DB	0c3H
	DB	018H
	DB	0c3H
	DB	018H
	DB	0c3H
	DB	018H
	DB	0c3H
	DB	018H
	DB	0c3H
	DB	018H
	DB	0c3H
	DB	018H
	DB	0c3H
	DB	018H
	DB	0c3H
	DB	018H
	DB	0c3H
	DB	018H
	DB	0c3H
	DB	018H
	DB	0c3H
	DB	018H
	DB	0c3H
	DB	018H
	DB	0c3H
	DB	018H
	DB	0c3H
	DB	018H
	DB	0c3H
	DB	018H
	DB	0c3H
	DB	018H
	DB	0c3H
	DB	018H
	DB	0c3H
	DB	018H
	DB	0c3H
	DB	018H
	DB	0c3H
	DB	018H
	DB	0c3H
	DB	018H
	DB	0c3H
	DB	018H
	DB	0c3H
	DB	018H
	DB	0c3H
	DB	018H
	DB	0c3H
	DB	018H
	DB	0c3H
	DB	018H
	DB	0c3H
	DB	018H
	DB	0c3H
	DB	018H
	DB	0c3H
	DB	018H
	DB	0c3H
	DB	018H
	DB	0c3H
	DB	018H
	DB	0c3H
	DB	018H
	DB	0c3H
	DB	018H
	DB	0c3H
	DB	018H
	DB	0c3H
	DB	018H
	DB	0c3H
	DB	018H
	DB	0c3H
	DB	018H
	DB	0c3H
	DB	018H
	DB	0c3H
	DB	018H
	DB	0c3H
	DB	018H
	DB	0c3H
	DB	018H
	DB	0c3H
	DB	018H
	DB	0c3H
	DB	018H
	DB	0c3H
	DB	018H
	DB	0c3H
	DB	018H
	DB	0c3H
	DB	018H
	DB	0c3H
	DB	018H
	DB	0c3H
	DB	018H
	DB	0c3H
	DB	018H
	DB	0c3H
	DB	018H
	DB	0c3H
	DB	018H
	DB	0c3H
	DB	018H
	DB	0c3H
	DB	018H
	DB	0c3H
	DB	018H
	DB	0c3H
	DB	018H
	DB	0c3H
	DB	018H
	DB	0c3H
	DB	018H
	DB	0c3H
	DB	018H
	DB	0c3H
	DB	018H
	DB	0c3H
	DB	018H
	DB	0c3H
	DB	018H
	DB	0c3H
	DB	018H
	DB	0c3H
	DB	018H
	DB	0c3H
	DB	018H
	DB	0c3H
	DB	018H
	DB	0c3H
	DB	018H
	DB	0c3H
	DB	018H
	DB	0c3H
	DB	018H
	DB	0c3H
	DB	018H
	DB	0c3H
	DB	018H
	DB	0c3H
	DB	018H
	DB	0c3H
	DB	018H
	DB	0c3H
	DB	018H
	DB	0c3H
	DB	018H
	DB	0c3H
	DB	018H
	DB	0c3H
	DB	018H
	DB	0c3H
	DB	018H
	DB	0c3H
	DB	018H
	DB	0c3H
	DB	018H
	DB	0c3H
	DB	018H
	DB	0c3H
	DB	018H
	DB	0c3H
	DB	018H
	DB	0c3H
	DB	018H
	DB	0c3H
	DB	018H
	DB	0c3H
	DB	018H
	DB	0c3H
	DB	018H
	DB	0c3H
	DB	018H
	DB	0c3H
	DB	018H
	DB	0c3H
	DB	018H
	DB	0c3H
	DB	018H
	DB	0c3H
	DB	018H
	DB	0c3H
	DB	018H
	DB	0c3H
	DB	018H
	DB	0c3H
	DB	018H
	DB	0c3H
	DB	018H
	DB	0c3H
	DB	018H
	DB	0c3H
	DB	018H
	DB	0c3H
	DB	018H
	DB	0c3H
	DB	018H
	DB	0c3H
	DB	018H
	DB	0c3H
	DB	018H
	DB	0c3H
	DB	018H
	DB	0c3H
	DB	018H
	DB	0c3H
	DB	018H
	DB	0c3H
	DB	018H
	DB	0c3H
	DB	018H
	DB	0c3H
	DB	018H
	DB	0c3H
	DB	018H
	DB	0c3H
	DB	018H
	DB	0c3H
	DB	018H
	DB	0c3H
	DB	018H
	DB	0c3H
	DB	018H
	DB	0c3H
	DB	018H
	DB	0c3H
	DB	018H
	DB	0c3H
	DB	018H
	DB	0c3H
	DB	018H
	DB	0c3H
	DB	018H
	DB	0c3H
	DB	018H
	DB	0c3H
	DB	018H
	DB	0c3H
	DB	018H
	DB	0c3H
	DB	018H
	DB	0c3H
	DB	018H
	DB	0c3H
	DB	018H
	DB	0c3H
	DB	018H
	DB	0c3H
	DB	018H
	DB	0c3H
	DB	018H
	DB	0c3H
	DB	018H
	DB	0c3H
	DB	018H
	DB	0c3H
	DB	018H
	DB	0c3H
	DB	018H
	DB	0c3H
	DB	018H
	DB	0c3H
	DB	018H
	DB	0c3H
	DB	018H
	DB	0c3H
	DB	018H
	DB	0c3H
	DB	018H
	DB	0c3H
	DB	018H
	DB	0c3H
	DB	018H
	DB	0c3H
	DB	018H
	DB	0c3H
	DB	018H
	DB	0c3H
	DB	018H
	DB	0c3H
	DB	018H
	DB	0c3H
	DB	018H
	DB	0c3H
	DB	018H
	DB	0c3H
	DB	018H
	DB	0c3H
	DB	018H
	DB	0c3H
	DB	018H
	DB	0c3H
	DB	018H
	DB	0c3H
	DB	018H
	DB	0c3H
	DB	018H
	DB	0c3H
	DB	018H
	DB	0c3H
	DB	018H
	DB	0c3H
	DB	018H
	DB	0c3H
	DB	018H
	DB	0c3H
	DB	018H
	DB	0c3H
	DB	018H
	DB	0c3H
	DB	018H
	DB	0c3H
	DB	018H
	DB	0c3H
	DB	018H
	DB	0c3H
	DB	018H
	DB	0c3H
	DB	018H
	DB	0c3H
	DB	018H
	DB	0c3H
	DB	018H
	DB	0c3H
	DB	018H
	DB	0c3H
	DB	018H
	DB	0c3H
	DB	018H
	DB	0c3H
	DB	018H
	DB	0c3H
	DB	018H
	DB	0c3H
	DB	018H
	DB	0c3H
	DB	018H
	DB	0c3H
	DB	018H
	DB	0c3H
	DB	018H
	DB	0c3H
	DB	018H
	DB	0c3H
	DB	018H
	DB	0c3H
	DB	018H
	DB	0c3H
	DB	018H
	DB	0c3H
	DB	018H
	DB	0c3H
	DB	018H
	DB	0c3H
	DB	018H
	DB	0c3H
	DB	018H
	DB	0c3H
	DB	018H
	DB	0c3H
	DB	018H
	DB	0c3H
	DB	018H
	DB	0c3H
	DB	018H
	DB	0c3H
	DB	018H
	DB	0c3H
	DB	018H
	DB	0c3H
	DB	018H
	DB	0c3H
	DB	018H
	DB	0c3H
	DB	018H
	DB	0c3H
	DB	018H
	DB	0c3H
	DB	018H
	DB	0c3H
	DB	018H
	DB	0c3H
	DB	018H
	DB	0c3H
	DB	018H
	DB	0c3H
	DB	018H
	DB	0c3H
	DB	018H
	DB	0c3H
	DB	018H
	DB	0c3H
	DB	018H
	DB	0c3H
	DB	018H
	DB	0c3H
	DB	018H
	DB	0c3H
	DB	018H
	DB	0c3H
	DB	018H
	DB	0c3H
	DB	018H
	DB	0c3H
	DB	018H
	DB	0c3H
	DB	018H
	DB	0c3H
	DB	018H
	DB	0c3H
	DB	018H
	DB	0c3H
	DB	018H
	DB	0c3H
	DB	018H
	DB	0c3H
	DB	018H
	DB	0c3H
	DB	018H
	DB	0c3H
	DB	018H
	DB	0c3H
	DB	018H
	DB	0c3H
	DB	018H
	DB	0c3H
	DB	018H
	DB	0c3H
	DB	018H
	DB	0c3H
	DB	018H
	DB	0c3H
	DB	018H
	DB	0c3H
	DB	018H
	DB	0c3H
	DB	018H
	DB	0c3H
	DB	018H
	DB	0c3H
	DB	018H
	DB	0c3H
	DB	018H
	DB	0c3H
	DB	018H
	DB	0c3H
	DB	018H
	DB	0c3H
	DB	018H
	DB	0c3H
	DB	018H
	DB	0c3H
	DB	018H
	DB	0c3H
	DB	018H
	DB	0c3H
	DB	018H
	DB	0c3H
	DB	018H
	DB	0c3H
	DB	018H
	DB	0c3H
	DB	018H
	DB	0c3H
	DB	018H
	DB	0c3H
	DB	018H
	DB	0c3H
	DB	018H
	DB	0c3H
	DB	018H
	DB	0c3H
	DB	018H
	DB	0c3H
	DB	018H
	DB	0c3H
	DB	018H
	DB	0c3H
	DB	018H
	DB	0c3H
	DB	018H
	DB	0c3H
	DB	018H
	DB	0c3H
	DB	018H
	DB	0c3H
	DB	018H
	DB	0c3H
	DB	018H
	DB	0c3H
	DB	018H
	DB	0c3H
	DB	018H
	DB	0c3H
	DB	018H
	DB	0c3H
	DB	018H
	DB	0c3H
	DB	018H
	DB	0c3H
	DB	018H
	DB	0c3H
	DB	018H
	DB	0c3H
	DB	018H
	DB	0c3H
	DB	018H
	DB	0c3H
	DB	018H
	DB	0c3H
	DB	018H
	DB	0c3H
	DB	018H
	DB	0c3H
	DB	018H
	DB	0c3H
	DB	018H
	DB	0c3H
	DB	018H
	DB	0c3H
	DB	018H
	DB	0c3H
	DB	018H
	DB	0c3H
	DB	018H
	DB	0c3H
	DB	018H
	DB	0c3H
	DB	018H
	DB	0c3H
	DB	018H
	DB	0c3H
	DB	018H
	DB	0c3H
	DB	018H
	DB	0c3H
	DB	018H
	DB	0c3H
	DB	018H
	DB	0c3H
	DB	018H
	DB	0c3H
	DB	018H
	DB	0c3H
	DB	018H
	DB	0c3H
	DB	018H
	DB	0c3H
	DB	018H
	DB	0c3H
	DB	018H
	DB	0c3H
	DB	018H
	DB	0c3H
	DB	018H
	DB	0c3H
	DB	018H
	DB	0c3H
	DB	018H
	DB	0c3H
	DB	018H
	DB	0c3H
	DB	018H
	DB	0c3H
	DB	018H
	DB	0c3H
	DB	018H
	DB	0c3H
	DB	018H
	DB	0c3H
	DB	018H
	DB	0c3H
	DB	018H
	DB	0c3H
	DB	018H
	DB	0c3H
	DB	018H
	DB	0c3H
	DB	018H
	DB	0c3H
	DB	018H
	DB	0c3H
	DB	018H
	DB	0c3H
	DB	018H
	DB	0c3H
	DB	018H
	DB	0c3H
	DB	018H
	DB	0c3H
	DB	018H
	DB	0c3H
	DB	018H
	DB	0c3H
	DB	018H
	DB	0c3H
	DB	018H
	DB	0c3H
	DB	018H
	DB	0c3H
	DB	018H
	DB	0c3H
	DB	018H
	DB	0c3H
	DB	018H
	DB	0c3H
	DB	018H
	DB	0c3H
	DB	018H
	DB	0c3H
	DB	018H
	DB	0c3H
	DB	018H
	DB	0c3H
	DB	018H
	DB	0c3H
	DB	018H
	DB	0c3H
	DB	018H
	DB	0c3H
	DB	018H
	DB	0c3H
	DB	018H
	DB	0c3H
	DB	018H
	DB	0c3H
	DB	018H
	DB	0c3H
	DB	018H
	DB	0c3H
	DB	018H
	DB	0c3H
	DB	018H
	DB	0c3H
	DB	018H
	DB	0c3H
	DB	018H
	DB	0c3H
	DB	018H
	DB	0c3H
	DB	018H
	DB	0c3H
	DB	018H
	DB	0c3H
	DB	018H
	DB	0c3H
	DB	018H
	DB	0c3H
	DB	018H
	DB	0c3H
	DB	018H
	DB	0c3H
	DB	018H
	DB	0c3H
	DB	018H
	DB	0c3H
	DB	018H
	DB	0c3H
	DB	018H
	DB	0c3H
	DB	018H
	DB	0c3H
	DB	018H
	DB	0c3H
	DB	018H
	DB	0c3H
	DB	018H
	DB	0c3H
	DB	018H
	DB	0c3H
	DB	018H
	DB	0c3H
	DB	018H
	DB	0c3H
	DB	018H
	DB	0c3H
	DB	018H
	DB	0c3H
	DB	018H
	DB	0c3H
	DB	018H
	DB	0c3H
	DB	018H
	DB	0c3H
	DB	018H
	DB	0c3H
	DB	018H
	DB	0c3H
	DB	018H
	DB	0c3H
	DB	018H
	DB	0c3H
	DB	018H
	DB	0c3H
	DB	018H
	DB	0c3H
	DB	018H
	DB	0c3H
	DB	018H
	DB	0c3H
	DB	018H
	DB	0c3H
	DB	018H
	DB	0c3H
	DB	018H
	DB	0c3H
	DB	018H
	DB	0c3H
	DB	018H
	DB	0c3H
	DB	018H
	DB	0c3H
	DB	018H
	DB	0c3H
	DB	018H
	DB	0c3H
	DB	018H
	DB	0c3H
	DB	018H
	DB	0c3H
	DB	018H
	DB	0c3H
	DB	018H
	DB	0c3H
	DB	018H
	DB	0c3H
	DB	018H
	DB	0c3H
	DB	018H
	DB	0c3H
	DB	018H
	DB	0c3H
	DB	018H
	DB	0c3H
	DB	018H
	DB	0c3H
	DB	018H
	DB	0c3H
	DB	018H
	DB	0c3H
	DB	018H
	DB	0c3H
	DB	018H
	DB	0c3H
	DB	018H
	DB	0c3H
	DB	018H
	DB	0c3H
	DB	018H
	DB	0c3H
	DB	018H
	DB	0c3H
	DB	018H
	DB	0c3H
	DB	018H
	DB	0c3H
	DB	018H
	DB	0c3H
	DB	018H
	DB	0c3H
	DB	018H
	DB	0c3H
	DB	018H
	DB	0c3H
	DB	018H
	DB	0c3H
	DB	018H
	DB	0c3H
	DB	018H
	DB	0c3H
	DB	018H
	DB	0c3H
	DB	018H
	DB	0c3H
	DB	018H
	DB	0c3H
	DB	018H
	DB	0c3H
	DB	018H
	DB	0c3H
	DB	018H
	DB	0c3H
	DB	018H
	DB	0c3H
	DB	018H
	DB	0c3H
	DB	018H
	DB	0c3H
	DB	018H
	DB	0c3H
	DB	018H
	DB	0c3H
	DB	018H
	DB	0c3H
	DB	018H
	DB	0c3H
	DB	018H
	DB	0c3H
	DB	018H
	DB	0c3H
	DB	018H
	DB	0c3H
	DB	018H
	DB	0c3H
	DB	018H
	DB	0c3H
	DB	018H
	DB	0c3H
	DB	018H
	DB	0c3H
	DB	018H
	DB	0c3H
	DB	018H
	DB	0c3H
	DB	018H
	DB	0c3H
	DB	018H
	DB	0c3H
	DB	018H
	DB	0c3H
	DB	018H
	DB	0c3H
	DB	018H
	DB	0c3H
	DB	018H
	DB	0c3H
	DB	018H
	DB	0c3H
	DB	018H
	DB	0c3H
	DB	018H
	DB	0c3H
	DB	018H
	DB	0c3H
	DB	018H
	DB	0c3H
	DB	018H
	DB	0c3H
	DB	018H
	DB	0c3H
	DB	018H
	DB	0c3H
	DB	018H
	DB	0c3H
	DB	018H
	DB	0c3H
	DB	018H
	DB	0c3H
	DB	018H
	DB	0c3H
	DB	018H
	DB	0c3H
	DB	018H
	DB	0c3H
	DB	018H
	DB	0c3H
	DB	018H
	DB	0c3H
	DB	018H
	DB	0c3H
	DB	018H
	DB	0c3H
	DB	018H
	DB	0c3H
	DB	018H
	DB	0c3H
	DB	018H
	DB	0c3H
	DB	018H
	DB	0c3H
	DB	018H
	DB	0c3H
	DB	018H
	DB	0c3H
	DB	018H
	DB	0c3H
	DB	018H
	DB	0c3H
	DB	018H
	DB	0c3H
	DB	018H
	DB	0c3H
	DB	018H
	DB	0c3H
	DB	018H
	DB	0c3H
	DB	018H
	DB	0c3H
	DB	018H
	DB	0c3H
	DB	018H
	DB	0c3H
	DB	018H
	DB	0c3H
	DB	018H
	DB	0c3H
	DB	018H
	DB	0c3H
	DB	018H
	DB	0c3H
	DB	018H
	DB	0c3H
	DB	018H
	DB	0c3H
	DB	018H
	DB	0c3H
	DB	018H
	DB	0c3H
	DB	018H
	DB	0c3H
	DB	018H
	DB	0c3H
	DB	018H
	DB	0c3H
	DB	018H
	DB	0c3H
	DB	018H
	DB	0c3H
	DB	018H
	DB	0c3H
	DB	018H
	DB	0c3H
	DB	018H
	DB	0c3H
	DB	018H
	DB	0c3H
	DB	018H
	DB	0c3H
	DB	018H
	DB	0c3H
	DB	018H
	DB	0c3H
	DB	018H
	DB	0c3H
	DB	018H
	DB	0c3H
	DB	018H
	DB	0c3H
	DB	018H
	DB	0c3H
	DB	018H
	DB	0c3H
	DB	018H
	DB	0c3H
	DB	018H
	DB	0c3H
	DB	018H
	DB	0c3H
	DB	018H
	DB	0c3H
	DB	018H
	DB	0c3H
	DB	018H
	DB	0c3H
	DB	018H
	DB	0c3H
	DB	018H
	DB	0c3H
	DB	018H
	DB	0c3H
	DB	018H
	DB	0c3H
	DB	018H
	DB	0c3H
	DB	018H
	DB	0c3H
	DB	018H
	DB	0c3H
	DB	018H
	DB	0c3H
	DB	018H
	DB	0c3H
	DB	018H
	DB	0c3H
	DB	018H
	DB	0c3H
	DB	018H
	DB	0c3H
	DB	018H
	DB	0c3H
	DB	018H
	DB	0c3H
	DB	018H
	DB	0c3H
	DB	018H
	DB	0c3H
	DB	018H
	DB	0c3H
	DB	018H
	DB	0c3H
	DB	018H
	DB	0c3H
	DB	018H
	DB	0c3H
	DB	018H
	DB	0c3H
	DB	018H
	DB	0c3H
	DB	018H
	DB	0c3H
	DB	018H
	DB	0c3H
	DB	018H
	DB	0c3H
	DB	018H
	DB	0c3H
	DB	018H
	DB	0c3H
	DB	018H
	DB	0c3H
	DB	018H
	DB	0c3H
	DB	018H
	DB	0c3H
	DB	018H
	DB	0c3H
	DB	018H
	DB	0c3H
	DB	018H
	DB	0c3H
	DB	018H
	DB	0c3H
	DB	018H
	DB	0c3H
	DB	018H
	DB	0c3H
	DB	018H
	DB	0c3H
	DB	018H
	DB	0c3H
	DB	018H
	DB	0c3H
	DB	018H
	DB	0c3H
	DB	018H
	DB	0c3H
	DB	018H
	DB	0c3H
	DB	018H
	DB	0c3H
	DB	018H
	DB	0c3H
	DB	018H
	DB	0c3H
	DB	018H
	DB	0c3H
	DB	018H
	DB	0c3H
	DB	018H
	DB	0c3H
	DB	018H
	DB	0c3H
	DB	018H
	DB	0c3H
	DB	018H
	DB	0c3H
	DB	018H
	DB	0c3H
	DB	018H
	DB	0c3H
	DB	018H
	DB	0c3H
	DB	018H
	DB	0c3H
	DB	018H
	DB	0c3H
	DB	018H
	DB	0c3H
	DB	018H
	DB	0c3H
	DB	018H
	DB	0c3H
	DB	018H
	DB	0c3H
	DB	018H
	DB	0c3H
	DB	018H
	DB	0c3H
	DB	018H
	DB	0c3H
	DB	018H
	DB	0c3H
	DB	018H
	DB	0c3H
	DB	018H
	DB	0c3H
	DB	018H
	DB	0c3H
	DB	018H
	DB	0c3H
	DB	018H
	DB	0c3H
	DB	018H
	DB	0c3H
	DB	018H
	DB	0c3H
	DB	018H
	DB	0c3H
	DB	018H
	DB	0c3H
	DB	018H
	DB	0c3H
	DB	018H
	DB	0c3H
	DB	018H
	DB	0c3H
	DB	018H
	DB	0c3H
	DB	018H
	DB	0c3H
	DB	018H
	DB	0c3H
	DB	018H
	DB	0c3H
	DB	018H
	DB	0c3H
	DB	018H
	DB	0c3H
	DB	018H
	DB	0c3H
	DB	018H
	DB	0c3H
	DB	018H
	DB	0c3H
	DB	018H
	DB	0c3H
	DB	018H
	DB	0c3H
	DB	018H
	DB	0c3H
	DB	018H
	DB	0c3H
	DB	018H
	DB	0c3H
	DB	018H
	DB	0c3H
	DB	018H
	DB	0c3H
	DB	018H
	DB	0c3H
	DB	018H
	DB	0c3H
	DB	018H
	DB	0c3H
	DB	018H
	DB	0c3H
	DB	018H
	DB	0c3H
	DB	018H
	DB	0c3H
	DB	018H
	DB	0c3H
	DB	018H
	DB	0c3H
	DB	018H
	DB	0c3H
	DB	018H
	DB	0c3H
	DB	018H
	DB	0c3H
	DB	018H
	DB	0c3H
	DB	018H
	DB	0c3H
	DB	018H
	DB	0c3H
	DB	018H
	DB	0c3H
	DB	018H
	DB	0c3H
	DB	018H
	DB	0c3H
	DB	018H
	DB	0c3H
	DB	018H
	DB	0c3H
	DB	018H
	DB	0c3H
	DB	018H
	DB	0c3H
	DB	018H
	DB	0c3H
	DB	018H
	DB	0c3H
	DB	018H
	DB	0c3H
	DB	018H
	DB	0c3H
	DB	018H
	DB	0c3H
	DB	018H
	DB	0c3H
	DB	018H
	DB	0c3H
	DB	018H
	DB	0c3H
	DB	018H
	DB	0c3H
	DB	018H
	DB	0c3H
	DB	018H
	DB	0c3H
	DB	018H
	DB	0c3H
	DB	018H
	DB	0c3H
	DB	018H
	DB	0c3H
	DB	018H
	DB	0c3H
	DB	018H
	DB	0c3H
	DB	018H
	DB	0c3H
	DB	018H
	DB	0c3H
	DB	018H
	DB	0c3H
	DB	018H
	DB	0c3H
	DB	018H
	DB	0c3H
	DB	018H
	DB	0c3H
	DB	018H
	DB	0c3H
	DB	018H
	DB	0c3H
	DB	018H
	DB	0c3H
	DB	018H
	DB	0c3H
	DB	018H
	DB	0c3H
	DB	018H
	DB	0c3H
	DB	018H
	DB	0c3H
	DB	018H
	DB	0c3H
	DB	018H
	DB	0c3H
	DB	018H
	DB	0c3H
	DB	018H
	DB	0c3H
	DB	018H
	DB	0c3H
	DB	018H
	DB	0a3H
	DB	018H
	DB	0c3H
	DB	018H
	DB	0a3H
	DB	018H
	DB	0c3H
	DB	018H
	DB	0c3H
	DB	018H
	DB	0a3H
	DB	018H
	DB	0c3H
	DB	018H
	DB	0c3H
	DB	018H
	DB	0a3H
	DB	018H
	DB	0c3H
	DB	018H
	DB	0c3H
	DB	018H
	DB	0a3H
	DB	018H
	DB	0c3H
	DB	018H
	DB	0c3H
	DB	018H
	DB	0a3H
	DB	018H
	DB	0c3H
	DB	018H
	DB	0a3H
	DB	018H
	DB	0c3H
	DB	018H
	DB	0c3H
	DB	018H
	DB	0a3H
	DB	018H
	DB	0c3H
	DB	018H
	DB	0c3H
	DB	018H
	DB	0a3H
	DB	018H
	DB	0c3H
	DB	018H
	DB	0c3H
	DB	018H
	DB	0a3H
	DB	018H
	DB	0c3H
	DB	018H
	DB	0c3H
	DB	018H
	DB	0a3H
	DB	018H
	DB	0c3H
	DB	018H
	DB	0c3H
	DB	018H
	DB	0a3H
	DB	018H
	DB	0c3H
	DB	018H
	DB	0c3H
	DB	018H
	DB	0a3H
	DB	018H
	DB	0c3H
	DB	018H
	DB	0a3H
	DB	018H
	DB	0c3H
	DB	018H
	DB	0a3H
	DB	018H
	DB	0c3H
	DB	018H
	DB	0a3H
	DB	018H
	DB	0c3H
	DB	018H
	DB	0c3H
	DB	018H
	DB	0a3H
	DB	018H
	DB	0c3H
	DB	018H
	DB	0c3H
	DB	018H
	DB	0a3H
	DB	018H
	DB	0c3H
	DB	018H
	DB	0a3H
	DB	018H
	DB	0c3H
	DB	018H
	DB	0c3H
	DB	018H
	DB	0a3H
	DB	018H
	DB	0c3H
	DB	018H
	DB	0c3H
	DB	018H
	DB	0a3H
	DB	018H
	DB	0c3H
	DB	018H
	DB	0c3H
	DB	018H
	DB	0a3H
	DB	018H
	DB	0c3H
	DB	018H
	DB	0a3H
	DB	018H
	DB	0c3H
	DB	018H
	DB	0c3H
	DB	018H
	DB	0a3H
	DB	018H
	DB	0c3H
	DB	018H
	DB	0a3H
	DB	018H
	DB	0c3H
	DB	018H
	DB	0a3H
	DB	018H
	DB	0c3H
	DB	018H
	DB	0a3H
	DB	018H
	DB	0c3H
	DB	018H
	DB	0c3H
	DB	018H
	DB	0a3H
	DB	018H
	DB	0c3H
	DB	018H
	DB	0a3H
	DB	018H
	DB	0c3H
	DB	018H
	DB	0c3H
	DB	018H
	DB	0a3H
	DB	018H
	DB	0c3H
	DB	018H
	DB	0c3H
	DB	018H
	DB	0a3H
	DB	018H
	DB	0c3H
	DB	018H
	DB	0a3H
	DB	018H
	DB	0c3H
	DB	018H
	DB	0a3H
	DB	018H
	DB	0c3H
	DB	018H
	DB	0a3H
	DB	018H
	DB	0c3H
	DB	018H
	DB	0a3H
	DB	018H
	DB	0c3H
	DB	018H
	DB	0a3H
	DB	018H
	DB	0c3H
	DB	018H
	DB	0a3H
	DB	018H
	DB	0a3H
	DB	018H
	DB	0c3H
	DB	018H
	DB	0a3H
	DB	018H
	DB	0c3H
	DB	018H
	DB	0a3H
	DB	018H
	DB	0a3H
	DB	018H
	DB	0c3H
	DB	018H
	DB	0a3H
	DB	018H
	DB	0c3H
	DB	018H
	DB	0a3H
	DB	018H
	DB	0a3H
	DB	018H
	DB	0c3H
	DB	018H
	DB	0a3H
	DB	018H
	DB	0c3H
	DB	018H
	DB	0a3H
	DB	018H
	DB	0c3H
	DB	018H
	DB	0c3H
	DB	018H
	DB	0a3H
	DB	018H
	DB	0c3H
	DB	018H
	DB	0a3H
	DB	018H
	DB	0c3H
	DB	018H
	DB	0a3H
	DB	018H
	DB	0c3H
	DB	018H
	DB	0a3H
	DB	018H
	DB	0c3H
	DB	018H
	DB	0a3H
	DB	018H
	DB	0c3H
	DB	018H
	DB	0a3H
	DB	018H
	DB	0c3H
	DB	018H
	DB	0a3H
	DB	018H
	DB	0c3H
	DB	018H
	DB	0c3H
	DB	018H
	DB	0a3H
	DB	018H
	DB	0c3H
	DB	018H
	DB	0a3H
	DB	018H
	DB	0c3H
	DB	018H
	DB	0a3H
	DB	018H
	DB	0c3H
	DB	018H
	DB	0a3H
	DB	018H
	DB	0c3H
	DB	018H
	DB	0c3H
	DB	018H
	DB	0a3H
	DB	018H
	DB	0c3H
	DB	018H
	DB	0a3H
	DB	018H
	DB	0c3H
	DB	018H
