; Listing generated by Microsoft (R) Optimizing Compiler Version 19.27.29112.0 

	TITLE	D:\hackTuesProject\project\TouchGFX\generated\images\src\MainScreen\image_arrow_right.cpp
	.686P
	.XMM
	include listing.inc
	.model	flat

INCLUDELIB MSVCRTD
INCLUDELIB OLDNAMES

PUBLIC	?image_arrow_right@@3QBEB			; image_arrow_right
CONST	SEGMENT
?image_arrow_right@@3QBEB DB 0d0H			; image_arrow_right
	DB	0b0H
	DB	088H
	DB	00H
	DB	0d0H
	DB	0b0H
	DB	088H
	DB	020H
	DB	0d0H
	DB	0b0H
	DB	088H
	DB	0aaH
	DB	0d0H
	DB	0b0H
	DB	088H
	DB	0efH
	DB	0d0H
	DB	0b0H
	DB	088H
	DB	0beH
	DB	0d0H
	DB	0b0H
	DB	088H
	DB	014H
	DB	0d0H
	DB	0b0H
	DB	088H
	DB	00H
	DB	0d0H
	DB	0b0H
	DB	088H
	DB	00H
	DB	0d0H
	DB	0b0H
	DB	088H
	DB	00H
	DB	0d0H
	DB	0b0H
	DB	088H
	DB	00H
	DB	0d0H
	DB	0b0H
	DB	088H
	DB	00H
	DB	0d0H
	DB	0b0H
	DB	088H
	DB	00H
	DB	0d0H
	DB	0b0H
	DB	088H
	DB	00H
	DB	0d0H
	DB	0b0H
	DB	088H
	DB	00H
	DB	0d0H
	DB	0b0H
	DB	088H
	DB	00H
	DB	0d0H
	DB	0b0H
	DB	088H
	DB	00H
	DB	0d0H
	DB	0b0H
	DB	088H
	DB	00H
	DB	0d0H
	DB	0b0H
	DB	088H
	DB	00H
	DB	0d0H
	DB	0b0H
	DB	088H
	DB	00H
	DB	0d0H
	DB	0b0H
	DB	088H
	DB	00H
	DB	0d0H
	DB	0b0H
	DB	088H
	DB	02cH
	DB	0d0H
	DB	0b0H
	DB	090H
	DB	0efH
	DB	0c8H
	DB	0b0H
	DB	090H
	DB	0ffH
	DB	0d0H
	DB	0b0H
	DB	088H
	DB	0ffH
	DB	0d0H
	DB	0b0H
	DB	090H
	DB	0ffH
	DB	0c8H
	DB	0b0H
	DB	090H
	DB	0cfH
	DB	0d0H
	DB	0b0H
	DB	088H
	DB	010H
	DB	0d0H
	DB	0b0H
	DB	090H
	DB	00H
	DB	0c8H
	DB	0b0H
	DB	090H
	DB	00H
	DB	0d0H
	DB	0b0H
	DB	088H
	DB	00H
	DB	0d0H
	DB	0b0H
	DB	090H
	DB	00H
	DB	0c8H
	DB	0b0H
	DB	090H
	DB	00H
	DB	0d0H
	DB	0b0H
	DB	088H
	DB	00H
	DB	0d0H
	DB	0b0H
	DB	090H
	DB	00H
	DB	0c8H
	DB	0b0H
	DB	090H
	DB	00H
	DB	0d0H
	DB	0b0H
	DB	088H
	DB	00H
	DB	0d0H
	DB	0b0H
	DB	090H
	DB	00H
	DB	0c8H
	DB	0b0H
	DB	090H
	DB	00H
	DB	0d0H
	DB	0b0H
	DB	088H
	DB	00H
	DB	0d0H
	DB	0b0H
	DB	090H
	DB	00H
	DB	0d0H
	DB	0b0H
	DB	088H
	DB	0beH
	DB	0c8H
	DB	0b0H
	DB	088H
	DB	0ffH
	DB	0d0H
	DB	0b4H
	DB	090H
	DB	0ffH
	DB	0d0H
	DB	0b0H
	DB	088H
	DB	0ffH
	DB	0c8H
	DB	0b4H
	DB	088H
	DB	0ffH
	DB	0d0H
	DB	0b0H
	DB	090H
	DB	0ffH
	DB	0d0H
	DB	0b4H
	DB	088H
	DB	0c7H
	DB	0c8H
	DB	0b0H
	DB	088H
	DB	010H
	DB	0d0H
	DB	0b4H
	DB	090H
	DB	00H
	DB	0d0H
	DB	0b0H
	DB	088H
	DB	00H
	DB	0c8H
	DB	0b4H
	DB	088H
	DB	00H
	DB	0d0H
	DB	0b0H
	DB	090H
	DB	00H
	DB	0d0H
	DB	0b4H
	DB	088H
	DB	00H
	DB	0c8H
	DB	0b0H
	DB	088H
	DB	00H
	DB	0d0H
	DB	0b4H
	DB	090H
	DB	00H
	DB	0d0H
	DB	0b0H
	DB	088H
	DB	00H
	DB	0c8H
	DB	0b4H
	DB	088H
	DB	00H
	DB	0d0H
	DB	0b0H
	DB	090H
	DB	00H
	DB	0d0H
	DB	0b0H
	DB	088H
	DB	00H
	DB	0c8H
	DB	0b0H
	DB	088H
	DB	00H
	DB	0d0H
	DB	0b0H
	DB	088H
	DB	0ebH
	DB	0d0H
	DB	0b0H
	DB	088H
	DB	0ffH
	DB	0d0H
	DB	0b0H
	DB	090H
	DB	0ffH
	DB	0d0H
	DB	0b0H
	DB	088H
	DB	0ffH
	DB	0d0H
	DB	0b0H
	DB	088H
	DB	0ffH
	DB	0d0H
	DB	0b4H
	DB	088H
	DB	0ffH
	DB	0d0H
	DB	0b0H
	DB	090H
	DB	0ffH
	DB	0d0H
	DB	0b0H
	DB	088H
	DB	0c3H
	DB	0d0H
	DB	0b0H
	DB	088H
	DB	0cH
	DB	0d0H
	DB	0b4H
	DB	090H
	DB	00H
	DB	0d0H
	DB	0b0H
	DB	088H
	DB	00H
	DB	0d0H
	DB	0b0H
	DB	088H
	DB	00H
	DB	0d0H
	DB	0b0H
	DB	090H
	DB	00H
	DB	0d0H
	DB	0b4H
	DB	088H
	DB	00H
	DB	0d0H
	DB	0b0H
	DB	088H
	DB	00H
	DB	0d0H
	DB	0b0H
	DB	090H
	DB	00H
	DB	0d0H
	DB	0b0H
	DB	088H
	DB	00H
	DB	0d0H
	DB	0b4H
	DB	088H
	DB	00H
	DB	0d0H
	DB	0b0H
	DB	090H
	DB	00H
	DB	0d0H
	DB	0b0H
	DB	088H
	DB	00H
	DB	0d0H
	DB	0b0H
	DB	088H
	DB	075H
	DB	0c8H
	DB	0b0H
	DB	090H
	DB	0ffH
	DB	0d0H
	DB	0b4H
	DB	088H
	DB	0ffH
	DB	0c8H
	DB	0b0H
	DB	090H
	DB	0ffH
	DB	0d0H
	DB	0b0H
	DB	088H
	DB	0ffH
	DB	0c8H
	DB	0b0H
	DB	090H
	DB	0ffH
	DB	0c8H
	DB	0b0H
	DB	088H
	DB	0ffH
	DB	0d0H
	DB	0b0H
	DB	088H
	DB	0ffH
	DB	0c8H
	DB	0b0H
	DB	090H
	DB	0beH
	DB	0d0H
	DB	0b0H
	DB	088H
	DB	08H
	DB	0c8H
	DB	0b0H
	DB	088H
	DB	00H
	DB	0c8H
	DB	0b0H
	DB	090H
	DB	00H
	DB	0d0H
	DB	0b0H
	DB	088H
	DB	00H
	DB	0c8H
	DB	0b0H
	DB	088H
	DB	00H
	DB	0d0H
	DB	0b0H
	DB	090H
	DB	00H
	DB	0c8H
	DB	0b0H
	DB	088H
	DB	00H
	DB	0d0H
	DB	0b0H
	DB	088H
	DB	00H
	DB	0c8H
	DB	0b4H
	DB	090H
	DB	00H
	DB	0d0H
	DB	0b0H
	DB	088H
	DB	00H
	DB	0d0H
	DB	0b0H
	DB	088H
	DB	00H
	DB	0d0H
	DB	0b0H
	DB	088H
	DB	00H
	DB	0d0H
	DB	0b0H
	DB	088H
	DB	0aaH
	DB	0d0H
	DB	0b4H
	DB	090H
	DB	0ffH
	DB	0d0H
	DB	0b0H
	DB	088H
	DB	0ffH
	DB	0d0H
	DB	0b0H
	DB	088H
	DB	0ffH
	DB	0d0H
	DB	0b4H
	DB	090H
	DB	0ffH
	DB	0d0H
	DB	0b0H
	DB	088H
	DB	0ffH
	DB	0d0H
	DB	0b4H
	DB	090H
	DB	0ffH
	DB	0d0H
	DB	0b0H
	DB	088H
	DB	0ffH
	DB	0d0H
	DB	0b0H
	DB	088H
	DB	0baH
	DB	0d0H
	DB	0b4H
	DB	090H
	DB	08H
	DB	0d0H
	DB	0b4H
	DB	088H
	DB	00H
	DB	0d0H
	DB	0b0H
	DB	088H
	DB	00H
	DB	0d0H
	DB	0b0H
	DB	090H
	DB	00H
	DB	0c8H
	DB	0b4H
	DB	088H
	DB	00H
	DB	0d0H
	DB	0b0H
	DB	088H
	DB	00H
	DB	0d0H
	DB	0b0H
	DB	090H
	DB	00H
	DB	0c8H
	DB	0b0H
	DB	088H
	DB	00H
	DB	0d0H
	DB	0b4H
	DB	088H
	DB	00H
	DB	0d0H
	DB	0b0H
	DB	090H
	DB	00H
	DB	0d0H
	DB	0b0H
	DB	088H
	DB	00H
	DB	0c8H
	DB	0b0H
	DB	090H
	DB	0cH
	DB	0d0H
	DB	0b0H
	DB	088H
	DB	0d7H
	DB	0d0H
	DB	0b0H
	DB	088H
	DB	0ffH
	DB	0c8H
	DB	0b4H
	DB	090H
	DB	0ffH
	DB	0d0H
	DB	0b0H
	DB	088H
	DB	0ffH
	DB	0d0H
	DB	0b0H
	DB	088H
	DB	0ffH
	DB	0c8H
	DB	0b4H
	DB	090H
	DB	0ffH
	DB	0d0H
	DB	0b0H
	DB	088H
	DB	0ffH
	DB	0d0H
	DB	0b0H
	DB	090H
	DB	0ffH
	DB	0c8H
	DB	0b0H
	DB	090H
	DB	0b6H
	DB	0d0H
	DB	0b0H
	DB	088H
	DB	08H
	DB	0d0H
	DB	0b4H
	DB	090H
	DB	00H
	DB	0d0H
	DB	0b0H
	DB	088H
	DB	00H
	DB	0d0H
	DB	0b0H
	DB	090H
	DB	00H
	DB	0d0H
	DB	0b4H
	DB	088H
	DB	00H
	DB	0d0H
	DB	0b0H
	DB	090H
	DB	00H
	DB	0d0H
	DB	0b0H
	DB	088H
	DB	00H
	DB	0d0H
	DB	0b0H
	DB	090H
	DB	00H
	DB	0c8H
	DB	0b0H
	DB	088H
	DB	00H
	DB	0d0H
	DB	0b0H
	DB	088H
	DB	00H
	DB	0d0H
	DB	0b4H
	DB	090H
	DB	00H
	DB	0c8H
	DB	0b0H
	DB	088H
	DB	028H
	DB	0d0H
	DB	0b0H
	DB	090H
	DB	0f3H
	DB	0d0H
	DB	0b0H
	DB	088H
	DB	0ffH
	DB	0c8H
	DB	0b0H
	DB	088H
	DB	0ffH
	DB	0d0H
	DB	0b0H
	DB	090H
	DB	0ffH
	DB	0d0H
	DB	0b0H
	DB	088H
	DB	0ffH
	DB	0c8H
	DB	0b4H
	DB	088H
	DB	0ffH
	DB	0d0H
	DB	0b0H
	DB	088H
	DB	0ffH
	DB	0d0H
	DB	0b0H
	DB	088H
	DB	0ffH
	DB	0c8H
	DB	0b0H
	DB	088H
	DB	0b2H
	DB	0d0H
	DB	0b0H
	DB	090H
	DB	04H
	DB	0c8H
	DB	0b0H
	DB	088H
	DB	00H
	DB	0d0H
	DB	0b0H
	DB	088H
	DB	00H
	DB	0d0H
	DB	0b4H
	DB	090H
	DB	00H
	DB	0c8H
	DB	0b0H
	DB	088H
	DB	00H
	DB	0d0H
	DB	0b0H
	DB	088H
	DB	00H
	DB	0d0H
	DB	0b4H
	DB	090H
	DB	00H
	DB	0d0H
	DB	0b0H
	DB	088H
	DB	00H
	DB	0d0H
	DB	0b0H
	DB	088H
	DB	00H
	DB	0d0H
	DB	0b0H
	DB	088H
	DB	00H
	DB	0d0H
	DB	0b4H
	DB	090H
	DB	00H
	DB	0d0H
	DB	0b0H
	DB	088H
	DB	055H
	DB	0d0H
	DB	0b4H
	DB	088H
	DB	0ffH
	DB	0d0H
	DB	0b0H
	DB	090H
	DB	0ffH
	DB	0d0H
	DB	0b0H
	DB	088H
	DB	0ffH
	DB	0d0H
	DB	0b0H
	DB	090H
	DB	0ffH
	DB	0d0H
	DB	0b0H
	DB	088H
	DB	0ffH
	DB	0d0H
	DB	0b4H
	DB	090H
	DB	0ffH
	DB	0d0H
	DB	0b0H
	DB	088H
	DB	0ffH
	DB	0d0H
	DB	0b4H
	DB	088H
	DB	0ffH
	DB	0d0H
	DB	0b0H
	DB	090H
	DB	0aeH
	DB	0c8H
	DB	0b0H
	DB	088H
	DB	04H
	DB	0d0H
	DB	0b4H
	DB	088H
	DB	00H
	DB	0d0H
	DB	0b0H
	DB	090H
	DB	00H
	DB	0c8H
	DB	0b0H
	DB	088H
	DB	00H
	DB	0d0H
	DB	0b4H
	DB	088H
	DB	00H
	DB	0d0H
	DB	0b0H
	DB	090H
	DB	00H
	DB	0c8H
	DB	0b0H
	DB	088H
	DB	00H
	DB	0d0H
	DB	0b0H
	DB	088H
	DB	00H
	DB	0c8H
	DB	0b0H
	DB	090H
	DB	00H
	DB	0d0H
	DB	0b0H
	DB	088H
	DB	00H
	DB	0c8H
	DB	0b0H
	DB	088H
	DB	00H
	DB	0c8H
	DB	0b0H
	DB	090H
	DB	08eH
	DB	0d0H
	DB	0b4H
	DB	088H
	DB	0ffH
	DB	0c8H
	DB	0b4H
	DB	088H
	DB	0ffH
	DB	0d0H
	DB	0b0H
	DB	090H
	DB	0ffH
	DB	0c8H
	DB	0b0H
	DB	088H
	DB	0ffH
	DB	0d0H
	DB	0b0H
	DB	090H
	DB	0ffH
	DB	0c8H
	DB	0b0H
	DB	090H
	DB	0ffH
	DB	0d0H
	DB	0b4H
	DB	088H
	DB	0ffH
	DB	0d0H
	DB	0b0H
	DB	088H
	DB	0ffH
	DB	0d0H
	DB	0b0H
	DB	090H
	DB	0a6H
	DB	0d0H
	DB	0b4H
	DB	088H
	DB	04H
	DB	0d0H
	DB	0b0H
	DB	090H
	DB	00H
	DB	0d0H
	DB	0b0H
	DB	088H
	DB	00H
	DB	0d0H
	DB	0b0H
	DB	088H
	DB	00H
	DB	0c8H
	DB	0b0H
	DB	090H
	DB	00H
	DB	0d0H
	DB	0b0H
	DB	088H
	DB	00H
	DB	0d0H
	DB	0b0H
	DB	088H
	DB	00H
	DB	0d0H
	DB	0b0H
	DB	090H
	DB	00H
	DB	0d0H
	DB	0b4H
	DB	088H
	DB	00H
	DB	0d0H
	DB	0b0H
	DB	090H
	DB	00H
	DB	0d0H
	DB	0b0H
	DB	090H
	DB	04H
	DB	0d0H
	DB	0b0H
	DB	088H
	DB	0c3H
	DB	0d0H
	DB	0b0H
	DB	088H
	DB	0ffH
	DB	0c8H
	DB	0b4H
	DB	090H
	DB	0ffH
	DB	0d0H
	DB	0b0H
	DB	088H
	DB	0ffH
	DB	0d0H
	DB	0b0H
	DB	088H
	DB	0ffH
	DB	0d0H
	DB	0b4H
	DB	088H
	DB	0ffH
	DB	0c8H
	DB	0b0H
	DB	090H
	DB	0ffH
	DB	0d0H
	DB	0b0H
	DB	088H
	DB	0ffH
	DB	0c8H
	DB	0b0H
	DB	088H
	DB	0ffH
	DB	0d0H
	DB	0b0H
	DB	090H
	DB	0a2H
	DB	0c8H
	DB	0b0H
	DB	088H
	DB	04H
	DB	0d0H
	DB	0b4H
	DB	088H
	DB	00H
	DB	0d0H
	DB	0b0H
	DB	090H
	DB	00H
	DB	0d0H
	DB	0b0H
	DB	088H
	DB	00H
	DB	0d0H
	DB	0b4H
	DB	088H
	DB	00H
	DB	0d0H
	DB	0b0H
	DB	088H
	DB	00H
	DB	0c8H
	DB	0b0H
	DB	088H
	DB	00H
	DB	0d0H
	DB	0b4H
	DB	088H
	DB	00H
	DB	0d0H
	DB	0b0H
	DB	088H
	DB	00H
	DB	0c8H
	DB	0b0H
	DB	090H
	DB	00H
	DB	0d0H
	DB	0b0H
	DB	088H
	DB	01cH
	DB	0d0H
	DB	0b0H
	DB	088H
	DB	0e7H
	DB	0d0H
	DB	0b0H
	DB	090H
	DB	0ffH
	DB	0d0H
	DB	0b4H
	DB	088H
	DB	0ffH
	DB	0d0H
	DB	0b0H
	DB	088H
	DB	0ffH
	DB	0d0H
	DB	0b0H
	DB	090H
	DB	0ffH
	DB	0d0H
	DB	0b0H
	DB	088H
	DB	0ffH
	DB	0d0H
	DB	0b4H
	DB	090H
	DB	0ffH
	DB	0d0H
	DB	0b0H
	DB	088H
	DB	0ffH
	DB	0c8H
	DB	0b0H
	DB	088H
	DB	0ffH
	DB	0d0H
	DB	0b4H
	DB	090H
	DB	09eH
	DB	0d0H
	DB	0b0H
	DB	088H
	DB	00H
	DB	0c8H
	DB	0b0H
	DB	090H
	DB	00H
	DB	0d0H
	DB	0b0H
	DB	088H
	DB	00H
	DB	0d0H
	DB	0b0H
	DB	088H
	DB	00H
	DB	0d0H
	DB	0b0H
	DB	090H
	DB	00H
	DB	0d0H
	DB	0b0H
	DB	088H
	DB	00H
	DB	0c8H
	DB	0b0H
	DB	090H
	DB	00H
	DB	0d0H
	DB	0b4H
	DB	088H
	DB	00H
	DB	0d0H
	DB	0b0H
	DB	088H
	DB	00H
	DB	0c8H
	DB	0b4H
	DB	090H
	DB	00H
	DB	0d0H
	DB	0b0H
	DB	088H
	DB	041H
	DB	0d0H
	DB	0b0H
	DB	088H
	DB	0fbH
	DB	0c8H
	DB	0b0H
	DB	090H
	DB	0ffH
	DB	0c8H
	DB	0b4H
	DB	088H
	DB	0ffH
	DB	0d0H
	DB	0b0H
	DB	088H
	DB	0ffH
	DB	0d0H
	DB	0b0H
	DB	090H
	DB	0ffH
	DB	0c8H
	DB	0b4H
	DB	088H
	DB	0ffH
	DB	0d0H
	DB	0b0H
	DB	090H
	DB	0ffH
	DB	0d0H
	DB	0b0H
	DB	088H
	DB	0ffH
	DB	0d0H
	DB	0b0H
	DB	088H
	DB	0ffH
	DB	0d0H
	DB	0b0H
	DB	090H
	DB	096H
	DB	0c8H
	DB	0b4H
	DB	088H
	DB	00H
	DB	0d0H
	DB	0b0H
	DB	090H
	DB	00H
	DB	0d0H
	DB	0b0H
	DB	088H
	DB	00H
	DB	0d0H
	DB	0b0H
	DB	088H
	DB	00H
	DB	0d0H
	DB	0b0H
	DB	090H
	DB	00H
	DB	0d0H
	DB	0b0H
	DB	088H
	DB	00H
	DB	0d0H
	DB	0b0H
	DB	090H
	DB	00H
	DB	0d0H
	DB	0b0H
	DB	088H
	DB	00H
	DB	0d0H
	DB	0b4H
	DB	090H
	DB	00H
	DB	0c8H
	DB	0b0H
	DB	088H
	DB	00H
	DB	0d0H
	DB	0b0H
	DB	088H
	DB	071H
	DB	0d0H
	DB	0b0H
	DB	090H
	DB	0ffH
	DB	0d0H
	DB	0b0H
	DB	090H
	DB	0ffH
	DB	0d0H
	DB	0b0H
	DB	088H
	DB	0ffH
	DB	0c8H
	DB	0b0H
	DB	088H
	DB	0ffH
	DB	0d0H
	DB	0b0H
	DB	090H
	DB	0ffH
	DB	0d0H
	DB	0b4H
	DB	088H
	DB	0ffH
	DB	0c8H
	DB	0b0H
	DB	090H
	DB	0ffH
	DB	0d0H
	DB	0b0H
	DB	088H
	DB	0ffH
	DB	0d0H
	DB	0b4H
	DB	088H
	DB	0ffH
	DB	0d0H
	DB	0b0H
	DB	090H
	DB	08eH
	DB	0c8H
	DB	0b0H
	DB	088H
	DB	00H
	DB	0d0H
	DB	0b0H
	DB	088H
	DB	00H
	DB	0d0H
	DB	0b0H
	DB	088H
	DB	00H
	DB	0c8H
	DB	0b4H
	DB	088H
	DB	00H
	DB	0d0H
	DB	0b0H
	DB	088H
	DB	00H
	DB	0c8H
	DB	0b0H
	DB	088H
	DB	00H
	DB	0d0H
	DB	0b0H
	DB	090H
	DB	00H
	DB	0d0H
	DB	0b0H
	DB	088H
	DB	00H
	DB	0d0H
	DB	0b4H
	DB	090H
	DB	00H
	DB	0d0H
	DB	0b0H
	DB	088H
	DB	00H
	DB	0d0H
	DB	0b4H
	DB	088H
	DB	0aeH
	DB	0d0H
	DB	0b0H
	DB	090H
	DB	0ffH
	DB	0c8H
	DB	0b4H
	DB	088H
	DB	0ffH
	DB	0d0H
	DB	0b0H
	DB	088H
	DB	0ffH
	DB	0d0H
	DB	0b0H
	DB	088H
	DB	0ffH
	DB	0d0H
	DB	0b0H
	DB	090H
	DB	0ffH
	DB	0d0H
	DB	0b4H
	DB	088H
	DB	0ffH
	DB	0c8H
	DB	0b0H
	DB	088H
	DB	0ffH
	DB	0d0H
	DB	0b0H
	DB	090H
	DB	0ffH
	DB	0d0H
	DB	0b0H
	DB	088H
	DB	0ffH
	DB	0d0H
	DB	0b4H
	DB	088H
	DB	08eH
	DB	0d0H
	DB	0b0H
	DB	090H
	DB	00H
	DB	0d0H
	DB	0b0H
	DB	088H
	DB	00H
	DB	0d0H
	DB	0b0H
	DB	090H
	DB	00H
	DB	0c8H
	DB	0b4H
	DB	090H
	DB	00H
	DB	0d0H
	DB	0b4H
	DB	088H
	DB	00H
	DB	0d0H
	DB	0b0H
	DB	088H
	DB	00H
	DB	0c8H
	DB	0b0H
	DB	090H
	DB	00H
	DB	0d0H
	DB	0b0H
	DB	088H
	DB	00H
	DB	0c8H
	DB	0b0H
	DB	088H
	DB	00H
	DB	0d0H
	DB	0b0H
	DB	090H
	DB	010H
	DB	0d0H
	DB	0b4H
	DB	088H
	DB	0d7H
	DB	0c8H
	DB	0b0H
	DB	090H
	DB	0ffH
	DB	0d0H
	DB	0b0H
	DB	088H
	DB	0ffH
	DB	0d0H
	DB	0b4H
	DB	090H
	DB	0ffH
	DB	0c8H
	DB	0b0H
	DB	088H
	DB	0ffH
	DB	0d0H
	DB	0b0H
	DB	088H
	DB	0ffH
	DB	0d0H
	DB	0b0H
	DB	090H
	DB	0ffH
	DB	0c8H
	DB	0b0H
	DB	088H
	DB	0ffH
	DB	0d0H
	DB	0b4H
	DB	090H
	DB	0ffH
	DB	0d0H
	DB	0b0H
	DB	088H
	DB	0ffH
	DB	0c8H
	DB	0b0H
	DB	088H
	DB	069H
	DB	0d0H
	DB	0b0H
	DB	088H
	DB	00H
	DB	0d0H
	DB	0b0H
	DB	088H
	DB	00H
	DB	0d0H
	DB	0b0H
	DB	090H
	DB	00H
	DB	0d0H
	DB	0b0H
	DB	088H
	DB	00H
	DB	0d0H
	DB	0b4H
	DB	088H
	DB	00H
	DB	0d0H
	DB	0b0H
	DB	090H
	DB	00H
	DB	0c8H
	DB	0b0H
	DB	088H
	DB	00H
	DB	0d0H
	DB	0b4H
	DB	088H
	DB	00H
	DB	0d0H
	DB	0b0H
	DB	090H
	DB	00H
	DB	0d0H
	DB	0b0H
	DB	088H
	DB	028H
	DB	0d0H
	DB	0b0H
	DB	088H
	DB	0f3H
	DB	0d0H
	DB	0b0H
	DB	090H
	DB	0ffH
	DB	0d0H
	DB	0b0H
	DB	088H
	DB	0ffH
	DB	0c8H
	DB	0b4H
	DB	088H
	DB	0ffH
	DB	0d0H
	DB	0b0H
	DB	090H
	DB	0ffH
	DB	0d0H
	DB	0b0H
	DB	088H
	DB	0ffH
	DB	0d0H
	DB	0b4H
	DB	088H
	DB	0ffH
	DB	0c8H
	DB	0b0H
	DB	090H
	DB	0ffH
	DB	0d0H
	DB	0b0H
	DB	088H
	DB	0ffH
	DB	0d0H
	DB	0b0H
	DB	088H
	DB	0d3H
	DB	0d0H
	DB	0b0H
	DB	088H
	DB	00H
	DB	0c8H
	DB	0b0H
	DB	088H
	DB	00H
	DB	0d0H
	DB	0b0H
	DB	090H
	DB	00H
	DB	0c8H
	DB	0b0H
	DB	088H
	DB	00H
	DB	0d0H
	DB	0b0H
	DB	088H
	DB	00H
	DB	0d0H
	DB	0b4H
	DB	090H
	DB	00H
	DB	0d0H
	DB	0b0H
	DB	088H
	DB	00H
	DB	0d0H
	DB	0b0H
	DB	090H
	DB	00H
	DB	0c8H
	DB	0b4H
	DB	088H
	DB	00H
	DB	0c8H
	DB	0b0H
	DB	088H
	DB	00H
	DB	0d0H
	DB	0b0H
	DB	090H
	DB	08aH
	DB	0d0H
	DB	0b4H
	DB	088H
	DB	0ffH
	DB	0c8H
	DB	0b0H
	DB	088H
	DB	0ffH
	DB	0d0H
	DB	0b0H
	DB	090H
	DB	0ffH
	DB	0d0H
	DB	0b0H
	DB	090H
	DB	0ffH
	DB	0d0H
	DB	0b4H
	DB	088H
	DB	0ffH
	DB	0d0H
	DB	0b0H
	DB	088H
	DB	0ffH
	DB	0d0H
	DB	0b0H
	DB	090H
	DB	0ffH
	DB	0d0H
	DB	0b0H
	DB	090H
	DB	0ffH
	DB	0d0H
	DB	0b0H
	DB	088H
	DB	0fbH
	DB	0d0H
	DB	0b0H
	DB	088H
	DB	00H
	DB	0d0H
	DB	0b4H
	DB	090H
	DB	00H
	DB	0d0H
	DB	0b0H
	DB	088H
	DB	00H
	DB	0d0H
	DB	0b0H
	DB	090H
	DB	00H
	DB	0c8H
	DB	0b4H
	DB	088H
	DB	00H
	DB	0d0H
	DB	0b0H
	DB	088H
	DB	00H
	DB	0d0H
	DB	0b0H
	DB	090H
	DB	00H
	DB	0d0H
	DB	0b0H
	DB	088H
	DB	00H
	DB	0d0H
	DB	0b0H
	DB	088H
	DB	00H
	DB	0d0H
	DB	0b0H
	DB	090H
	DB	02cH
	DB	0d0H
	DB	0b4H
	DB	088H
	DB	0f7H
	DB	0c8H
	DB	0b0H
	DB	088H
	DB	0ffH
	DB	0d0H
	DB	0b0H
	DB	090H
	DB	0ffH
	DB	0d0H
	DB	0b0H
	DB	088H
	DB	0ffH
	DB	0c8H
	DB	0b4H
	DB	088H
	DB	0ffH
	DB	0d0H
	DB	0b0H
	DB	090H
	DB	0ffH
	DB	0c8H
	DB	0b0H
	DB	088H
	DB	0ffH
	DB	0d0H
	DB	0b4H
	DB	088H
	DB	0ffH
	DB	0c8H
	DB	0b0H
	DB	088H
	DB	0ffH
	DB	0d0H
	DB	0b0H
	DB	090H
	DB	0d3H
	DB	0d0H
	DB	0b0H
	DB	088H
	DB	00H
	DB	0c8H
	DB	0b0H
	DB	090H
	DB	00H
	DB	0d0H
	DB	0b4H
	DB	088H
	DB	00H
	DB	0d0H
	DB	0b0H
	DB	088H
	DB	00H
	DB	0c8H
	DB	0b0H
	DB	090H
	DB	00H
	DB	0d0H
	DB	0b0H
	DB	088H
	DB	00H
	DB	0c8H
	DB	0b4H
	DB	090H
	DB	00H
	DB	0c8H
	DB	0b0H
	DB	088H
	DB	00H
	DB	0d0H
	DB	0b0H
	DB	090H
	DB	010H
	DB	0d0H
	DB	0b4H
	DB	088H
	DB	0dbH
	DB	0d0H
	DB	0b0H
	DB	088H
	DB	0ffH
	DB	0d0H
	DB	0b0H
	DB	090H
	DB	0ffH
	DB	0d0H
	DB	0b0H
	DB	088H
	DB	0ffH
	DB	0d0H
	DB	0b4H
	DB	088H
	DB	0ffH
	DB	0d0H
	DB	0b0H
	DB	090H
	DB	0ffH
	DB	0d0H
	DB	0b0H
	DB	088H
	DB	0ffH
	DB	0d0H
	DB	0b0H
	DB	090H
	DB	0ffH
	DB	0c8H
	DB	0b4H
	DB	088H
	DB	0ffH
	DB	0d0H
	DB	0b0H
	DB	088H
	DB	0ffH
	DB	0d0H
	DB	0b0H
	DB	088H
	DB	065H
	DB	0d0H
	DB	0b0H
	DB	088H
	DB	00H
	DB	0d0H
	DB	0b0H
	DB	088H
	DB	00H
	DB	0c8H
	DB	0b0H
	DB	090H
	DB	00H
	DB	0d0H
	DB	0b0H
	DB	088H
	DB	00H
	DB	0d0H
	DB	0b0H
	DB	088H
	DB	00H
	DB	0d0H
	DB	0b4H
	DB	090H
	DB	00H
	DB	0d0H
	DB	0b0H
	DB	088H
	DB	00H
	DB	0d0H
	DB	0b0H
	DB	088H
	DB	00H
	DB	0c8H
	DB	0b4H
	DB	090H
	DB	0aeH
	DB	0d0H
	DB	0b0H
	DB	088H
	DB	0ffH
	DB	0c8H
	DB	0b0H
	DB	090H
	DB	0ffH
	DB	0d0H
	DB	0b0H
	DB	090H
	DB	0ffH
	DB	0c8H
	DB	0b4H
	DB	088H
	DB	0ffH
	DB	0d0H
	DB	0b0H
	DB	088H
	DB	0ffH
	DB	0d0H
	DB	0b0H
	DB	090H
	DB	0ffH
	DB	0c8H
	DB	0b0H
	DB	088H
	DB	0ffH
	DB	0d0H
	DB	0b0H
	DB	088H
	DB	0ffH
	DB	0d0H
	DB	0b0H
	DB	090H
	DB	0ffH
	DB	0d0H
	DB	0b0H
	DB	090H
	DB	08aH
	DB	0d0H
	DB	0b0H
	DB	088H
	DB	00H
	DB	0d0H
	DB	0b0H
	DB	088H
	DB	00H
	DB	0d0H
	DB	0b0H
	DB	090H
	DB	00H
	DB	0d0H
	DB	0b4H
	DB	088H
	DB	00H
	DB	0d0H
	DB	0b0H
	DB	090H
	DB	00H
	DB	0d0H
	DB	0b0H
	DB	088H
	DB	00H
	DB	0c8H
	DB	0b4H
	DB	088H
	DB	00H
	DB	0d0H
	DB	0b0H
	DB	090H
	DB	00H
	DB	0d0H
	DB	0b0H
	DB	088H
	DB	075H
	DB	0d0H
	DB	0b0H
	DB	088H
	DB	0ffH
	DB	0d0H
	DB	0b0H
	DB	090H
	DB	0ffH
	DB	0d0H
	DB	0b4H
	DB	088H
	DB	0ffH
	DB	0c8H
	DB	0b0H
	DB	088H
	DB	0ffH
	DB	0d0H
	DB	0b0H
	DB	090H
	DB	0ffH
	DB	0d0H
	DB	0b0H
	DB	088H
	DB	0ffH
	DB	0c8H
	DB	0b4H
	DB	088H
	DB	0ffH
	DB	0d0H
	DB	0b0H
	DB	090H
	DB	0ffH
	DB	0d0H
	DB	0b4H
	DB	088H
	DB	0ffH
	DB	0d0H
	DB	0b0H
	DB	088H
	DB	08eH
	DB	0c8H
	DB	0b4H
	DB	090H
	DB	00H
	DB	0d0H
	DB	0b0H
	DB	088H
	DB	00H
	DB	0d0H
	DB	0b0H
	DB	088H
	DB	00H
	DB	0c8H
	DB	0b0H
	DB	088H
	DB	00H
	DB	0d0H
	DB	0b4H
	DB	090H
	DB	00H
	DB	0d0H
	DB	0b0H
	DB	088H
	DB	00H
	DB	0c8H
	DB	0b0H
	DB	090H
	DB	00H
	DB	0d0H
	DB	0b0H
	DB	088H
	DB	00H
	DB	0d0H
	DB	0b0H
	DB	090H
	DB	041H
	DB	0c8H
	DB	0b4H
	DB	088H
	DB	0fbH
	DB	0d0H
	DB	0b0H
	DB	088H
	DB	0ffH
	DB	0d0H
	DB	0b0H
	DB	090H
	DB	0ffH
	DB	0d0H
	DB	0b0H
	DB	088H
	DB	0ffH
	DB	0d0H
	DB	0b4H
	DB	088H
	DB	0ffH
	DB	0d0H
	DB	0b0H
	DB	090H
	DB	0ffH
	DB	0d0H
	DB	0b0H
	DB	088H
	DB	0ffH
	DB	0d0H
	DB	0b0H
	DB	088H
	DB	0ffH
	DB	0c8H
	DB	0b4H
	DB	090H
	DB	0ffH
	DB	0d0H
	DB	0b0H
	DB	088H
	DB	096H
	DB	0d0H
	DB	0b0H
	DB	088H
	DB	00H
	DB	0c8H
	DB	0b0H
	DB	088H
	DB	00H
	DB	0d0H
	DB	0b0H
	DB	090H
	DB	00H
	DB	0d0H
	DB	0b0H
	DB	088H
	DB	00H
	DB	0d0H
	DB	0b0H
	DB	090H
	DB	00H
	DB	0c8H
	DB	0b0H
	DB	088H
	DB	00H
	DB	0d0H
	DB	0b4H
	DB	088H
	DB	00H
	DB	0d0H
	DB	0b0H
	DB	088H
	DB	00H
	DB	0d0H
	DB	0b0H
	DB	090H
	DB	01cH
	DB	0d0H
	DB	0b4H
	DB	088H
	DB	0ebH
	DB	0d0H
	DB	0b0H
	DB	088H
	DB	0ffH
	DB	0c8H
	DB	0b0H
	DB	090H
	DB	0ffH
	DB	0d0H
	DB	0b4H
	DB	088H
	DB	0ffH
	DB	0c8H
	DB	0b0H
	DB	088H
	DB	0ffH
	DB	0d0H
	DB	0b0H
	DB	090H
	DB	0ffH
	DB	0c8H
	DB	0b4H
	DB	088H
	DB	0ffH
	DB	0d0H
	DB	0b0H
	DB	090H
	DB	0ffH
	DB	0d0H
	DB	0b0H
	DB	088H
	DB	0ffH
	DB	0d0H
	DB	0b0H
	DB	090H
	DB	09eH
	DB	0d0H
	DB	0b0H
	DB	090H
	DB	00H
	DB	0d0H
	DB	0b4H
	DB	088H
	DB	00H
	DB	0d0H
	DB	0b0H
	DB	088H
	DB	00H
	DB	0d0H
	DB	0b0H
	DB	090H
	DB	00H
	DB	0d0H
	DB	0b0H
	DB	088H
	DB	00H
	DB	0d0H
	DB	0b0H
	DB	090H
	DB	00H
	DB	0d0H
	DB	0b0H
	DB	088H
	DB	00H
	DB	0c8H
	DB	0b0H
	DB	090H
	DB	00H
	DB	0d0H
	DB	0b4H
	DB	088H
	DB	04H
	DB	0c8H
	DB	0b0H
	DB	088H
	DB	0c3H
	DB	0d0H
	DB	0b0H
	DB	090H
	DB	0ffH
	DB	0d0H
	DB	0b0H
	DB	088H
	DB	0ffH
	DB	0d0H
	DB	0b0H
	DB	090H
	DB	0ffH
	DB	0d0H
	DB	0b0H
	DB	088H
	DB	0ffH
	DB	0d0H
	DB	0b0H
	DB	088H
	DB	0ffH
	DB	0c8H
	DB	0b0H
	DB	090H
	DB	0ffH
	DB	0d0H
	DB	0b0H
	DB	088H
	DB	0ffH
	DB	0d0H
	DB	0b4H
	DB	088H
	DB	0ffH
	DB	0c8H
	DB	0b0H
	DB	088H
	DB	09eH
	DB	0d0H
	DB	0b0H
	DB	088H
	DB	04H
	DB	0c8H
	DB	0b4H
	DB	090H
	DB	00H
	DB	0d0H
	DB	0b0H
	DB	088H
	DB	00H
	DB	0d0H
	DB	0b0H
	DB	088H
	DB	00H
	DB	0c8H
	DB	0b0H
	DB	088H
	DB	00H
	DB	0d0H
	DB	0b0H
	DB	088H
	DB	00H
	DB	0c8H
	DB	0b4H
	DB	088H
	DB	00H
	DB	0d0H
	DB	0b0H
	DB	090H
	DB	00H
	DB	0d0H
	DB	0b0H
	DB	088H
	DB	00H
	DB	0d0H
	DB	0b0H
	DB	090H
	DB	092H
	DB	0d0H
	DB	0b0H
	DB	088H
	DB	0ffH
	DB	0c8H
	DB	0b4H
	DB	088H
	DB	0ffH
	DB	0d0H
	DB	0b0H
	DB	090H
	DB	0ffH
	DB	0c8H
	DB	0b4H
	DB	088H
	DB	0ffH
	DB	0d0H
	DB	0b0H
	DB	090H
	DB	0ffH
	DB	0d0H
	DB	0b4H
	DB	088H
	DB	0ffH
	DB	0d0H
	DB	0b0H
	DB	088H
	DB	0ffH
	DB	0d0H
	DB	0b0H
	DB	090H
	DB	0ffH
	DB	0d0H
	DB	0b0H
	DB	090H
	DB	0a6H
	DB	0d0H
	DB	0b4H
	DB	088H
	DB	04H
	DB	0c8H
	DB	0b0H
	DB	088H
	DB	00H
	DB	0d0H
	DB	0b0H
	DB	090H
	DB	00H
	DB	0d0H
	DB	0b0H
	DB	088H
	DB	00H
	DB	0c8H
	DB	0b4H
	DB	090H
	DB	00H
	DB	0d0H
	DB	0b0H
	DB	088H
	DB	00H
	DB	0d0H
	DB	0b0H
	DB	088H
	DB	00H
	DB	0d0H
	DB	0b0H
	DB	090H
	DB	00H
	DB	0c8H
	DB	0b4H
	DB	088H
	DB	00H
	DB	0d0H
	DB	0b0H
	DB	088H
	DB	059H
	DB	0d0H
	DB	0b0H
	DB	090H
	DB	0ffH
	DB	0d0H
	DB	0b4H
	DB	088H
	DB	0ffH
	DB	0d0H
	DB	0b0H
	DB	088H
	DB	0ffH
	DB	0d0H
	DB	0b0H
	DB	090H
	DB	0ffH
	DB	0d0H
	DB	0b0H
	DB	088H
	DB	0ffH
	DB	0c8H
	DB	0b4H
	DB	088H
	DB	0ffH
	DB	0d0H
	DB	0b0H
	DB	090H
	DB	0ffH
	DB	0d0H
	DB	0b0H
	DB	088H
	DB	0ffH
	DB	0c8H
	DB	0b4H
	DB	088H
	DB	0aaH
	DB	0d0H
	DB	0b0H
	DB	090H
	DB	04H
	DB	0d0H
	DB	0b0H
	DB	088H
	DB	00H
	DB	0d0H
	DB	0b0H
	DB	090H
	DB	00H
	DB	0d0H
	DB	0b0H
	DB	088H
	DB	00H
	DB	0d0H
	DB	0b4H
	DB	088H
	DB	00H
	DB	0d0H
	DB	0b0H
	DB	090H
	DB	00H
	DB	0d0H
	DB	0b0H
	DB	088H
	DB	00H
	DB	0d0H
	DB	0b0H
	DB	088H
	DB	00H
	DB	0d0H
	DB	0b0H
	DB	090H
	DB	00H
	DB	0d0H
	DB	0b0H
	DB	088H
	DB	02cH
	DB	0c8H
	DB	0b4H
	DB	088H
	DB	0f3H
	DB	0d0H
	DB	0b0H
	DB	090H
	DB	0ffH
	DB	0c8H
	DB	0b0H
	DB	088H
	DB	0ffH
	DB	0d0H
	DB	0b0H
	DB	090H
	DB	0ffH
	DB	0d0H
	DB	0b0H
	DB	088H
	DB	0ffH
	DB	0d0H
	DB	0b0H
	DB	088H
	DB	0ffH
	DB	0c8H
	DB	0b0H
	DB	090H
	DB	0ffH
	DB	0d0H
	DB	0b0H
	DB	088H
	DB	0ffH
	DB	0d0H
	DB	0b0H
	DB	088H
	DB	0b2H
	DB	0c8H
	DB	0b0H
	DB	090H
	DB	04H
	DB	0d0H
	DB	0b4H
	DB	088H
	DB	00H
	DB	0d0H
	DB	0b0H
	DB	088H
	DB	00H
	DB	0c8H
	DB	0b0H
	DB	090H
	DB	00H
	DB	0d0H
	DB	0b4H
	DB	088H
	DB	00H
	DB	0c8H
	DB	0b0H
	DB	088H
	DB	00H
	DB	0d0H
	DB	0b0H
	DB	090H
	DB	00H
	DB	0d0H
	DB	0b0H
	DB	088H
	DB	00H
	DB	0d0H
	DB	0b0H
	DB	088H
	DB	00H
	DB	0d0H
	DB	0b0H
	DB	088H
	DB	010H
	DB	0c8H
	DB	0b0H
	DB	090H
	DB	0d7H
	DB	0d0H
	DB	0b0H
	DB	088H
	DB	0ffH
	DB	0d0H
	DB	0b4H
	DB	088H
	DB	0ffH
	DB	0d0H
	DB	0b0H
	DB	090H
	DB	0ffH
	DB	0c8H
	DB	0b4H
	DB	088H
	DB	0ffH
	DB	0d0H
	DB	0b0H
	DB	088H
	DB	0ffH
	DB	0d0H
	DB	0b4H
	DB	090H
	DB	0ffH
	DB	0d0H
	DB	0b0H
	DB	090H
	DB	0ffH
	DB	0d0H
	DB	0b4H
	DB	088H
	DB	0b6H
	DB	0d0H
	DB	0b0H
	DB	088H
	DB	04H
	DB	0d0H
	DB	0b0H
	DB	090H
	DB	00H
	DB	0c8H
	DB	0b0H
	DB	088H
	DB	00H
	DB	0d0H
	DB	0b4H
	DB	088H
	DB	00H
	DB	0d0H
	DB	0b0H
	DB	090H
	DB	00H
	DB	0c8H
	DB	0b0H
	DB	088H
	DB	00H
	DB	0d0H
	DB	0b0H
	DB	090H
	DB	00H
	DB	0d0H
	DB	0b0H
	DB	088H
	DB	00H
	DB	0c8H
	DB	0b0H
	DB	088H
	DB	00H
	DB	0d0H
	DB	0b0H
	DB	088H
	DB	00H
	DB	0c8H
	DB	0b4H
	DB	090H
	DB	0aaH
	DB	0d0H
	DB	0b0H
	DB	088H
	DB	0ffH
	DB	0d0H
	DB	0b0H
	DB	090H
	DB	0ffH
	DB	0d0H
	DB	0b0H
	DB	088H
	DB	0ffH
	DB	0d0H
	DB	0b0H
	DB	088H
	DB	0ffH
	DB	0c8H
	DB	0b0H
	DB	090H
	DB	0ffH
	DB	0d0H
	DB	0b4H
	DB	088H
	DB	0ffH
	DB	0c8H
	DB	0b0H
	DB	088H
	DB	0ffH
	DB	0d0H
	DB	0b0H
	DB	088H
	DB	0baH
	DB	0c8H
	DB	0b0H
	DB	090H
	DB	08H
	DB	0d0H
	DB	0b4H
	DB	088H
	DB	00H
	DB	0d0H
	DB	0b0H
	DB	090H
	DB	00H
	DB	0d0H
	DB	0b0H
	DB	088H
	DB	00H
	DB	0d0H
	DB	0b0H
	DB	090H
	DB	00H
	DB	0d0H
	DB	0b0H
	DB	088H
	DB	00H
	DB	0d0H
	DB	0b4H
	DB	088H
	DB	00H
	DB	0d0H
	DB	0b0H
	DB	090H
	DB	00H
	DB	0d0H
	DB	0b4H
	DB	088H
	DB	00H
	DB	0d0H
	DB	0b0H
	DB	088H
	DB	00H
	DB	0d0H
	DB	0b0H
	DB	088H
	DB	075H
	DB	0d0H
	DB	0b0H
	DB	088H
	DB	0ffH
	DB	0d0H
	DB	0b4H
	DB	090H
	DB	0ffH
	DB	0c8H
	DB	0b0H
	DB	088H
	DB	0ffH
	DB	0d0H
	DB	0b0H
	DB	090H
	DB	0ffH
	DB	0d0H
	DB	0b4H
	DB	088H
	DB	0ffH
	DB	0d0H
	DB	0b0H
	DB	090H
	DB	0ffH
	DB	0d0H
	DB	0b0H
	DB	090H
	DB	0ffH
	DB	0d0H
	DB	0b0H
	DB	088H
	DB	0beH
	DB	0c8H
	DB	0b0H
	DB	088H
	DB	08H
	DB	0d0H
	DB	0b0H
	DB	090H
	DB	00H
	DB	0d0H
	DB	0b0H
	DB	088H
	DB	00H
	DB	0c8H
	DB	0b4H
	DB	088H
	DB	00H
	DB	0d0H
	DB	0b0H
	DB	090H
	DB	00H
	DB	0c8H
	DB	0b0H
	DB	088H
	DB	00H
	DB	0d0H
	DB	0b4H
	DB	088H
	DB	00H
	DB	0c8H
	DB	0b0H
	DB	090H
	DB	00H
	DB	0d0H
	DB	0b0H
	DB	088H
	DB	00H
	DB	0d0H
	DB	0b0H
	DB	090H
	DB	00H
	DB	0c8H
	DB	0b0H
	DB	088H
	DB	00H
	DB	0d0H
	DB	0b0H
	DB	088H
	DB	0efH
	DB	0d0H
	DB	0b0H
	DB	090H
	DB	0ffH
	DB	0c8H
	DB	0b0H
	DB	088H
	DB	0ffH
	DB	0d0H
	DB	0b4H
	DB	088H
	DB	0ffH
	DB	0d0H
	DB	0b0H
	DB	088H
	DB	0ffH
	DB	0c8H
	DB	0b0H
	DB	090H
	DB	0ffH
	DB	0d0H
	DB	0b0H
	DB	088H
	DB	0ffH
	DB	0d0H
	DB	0b0H
	DB	088H
	DB	0c3H
	DB	0d0H
	DB	0b4H
	DB	090H
	DB	0cH
	DB	0d0H
	DB	0b4H
	DB	088H
	DB	00H
	DB	0d0H
	DB	0b0H
	DB	088H
	DB	00H
	DB	0d0H
	DB	0b0H
	DB	090H
	DB	00H
	DB	0c8H
	DB	0b0H
	DB	088H
	DB	00H
	DB	0d0H
	DB	0b4H
	DB	088H
	DB	00H
	DB	0d0H
	DB	0b0H
	DB	090H
	DB	00H
	DB	0d0H
	DB	0b0H
	DB	088H
	DB	00H
	DB	0c8H
	DB	0b0H
	DB	088H
	DB	00H
	DB	0d0H
	DB	0b4H
	DB	090H
	DB	00H
	DB	0d0H
	DB	0b0H
	DB	088H
	DB	00H
	DB	0d0H
	DB	0b0H
	DB	088H
	DB	00H
	DB	0d0H
	DB	0b0H
	DB	088H
	DB	0beH
	DB	0d0H
	DB	0b0H
	DB	090H
	DB	0ffH
	DB	0c8H
	DB	0b0H
	DB	088H
	DB	0ffH
	DB	0d0H
	DB	0b0H
	DB	088H
	DB	0ffH
	DB	0d0H
	DB	0b4H
	DB	090H
	DB	0ffH
	DB	0c8H
	DB	0b0H
	DB	088H
	DB	0ffH
	DB	0d0H
	DB	0b0H
	DB	088H
	DB	0c7H
	DB	0c8H
	DB	0b4H
	DB	088H
	DB	010H
	DB	0c8H
	DB	0b0H
	DB	090H
	DB	00H
	DB	0d0H
	DB	0b0H
	DB	088H
	DB	00H
	DB	0d0H
	DB	0b0H
	DB	088H
	DB	00H
	DB	0c8H
	DB	0b4H
	DB	090H
	DB	00H
	DB	0d0H
	DB	0b0H
	DB	088H
	DB	00H
	DB	0d0H
	DB	0b0H
	DB	088H
	DB	00H
	DB	0d0H
	DB	0b0H
	DB	090H
	DB	00H
	DB	0d0H
	DB	0b0H
	DB	088H
	DB	00H
	DB	0d0H
	DB	0b4H
	DB	088H
	DB	00H
	DB	0c8H
	DB	0b0H
	DB	090H
	DB	00H
	DB	0d0H
	DB	0b0H
	DB	088H
	DB	00H
	DB	0d0H
	DB	0b0H
	DB	090H
	DB	00H
	DB	0d0H
	DB	0b0H
	DB	088H
	DB	024H
	DB	0d0H
	DB	0b4H
	DB	090H
	DB	0efH
	DB	0d0H
	DB	0b0H
	DB	088H
	DB	0ffH
	DB	0d0H
	DB	0b0H
	DB	090H
	DB	0ffH
	DB	0d0H
	DB	0b0H
	DB	090H
	DB	0ffH
	DB	0d0H
	DB	0b4H
	DB	088H
	DB	0cbH
	DB	0d0H
	DB	0b0H
	DB	090H
	DB	010H
	DB	0d0H
	DB	0b0H
	DB	088H
	DB	00H
	DB	0d0H
	DB	0b0H
	DB	090H
	DB	00H
	DB	0d0H
	DB	0b0H
	DB	088H
	DB	00H
	DB	0c8H
	DB	0b0H
	DB	090H
	DB	00H
	DB	0d0H
	DB	0b4H
	DB	088H
	DB	00H
	DB	0d0H
	DB	0b0H
	DB	090H
	DB	00H
	DB	0c8H
	DB	0b0H
	DB	088H
	DB	00H
	DB	0d0H
	DB	0b4H
	DB	090H
	DB	00H
	DB	0d0H
	DB	0b0H
	DB	088H
	DB	00H
	DB	0c8H
	DB	0b0H
	DB	090H
	DB	00H
	DB	0d0H
	DB	0b0H
	DB	088H
	DB	00H
	DB	0d0H
	DB	0b4H
	DB	088H
	DB	00H
	DB	0c8H
	DB	0b0H
	DB	088H
	DB	00H
	DB	0d0H
	DB	0b0H
	DB	088H
	DB	00H
	DB	0c8H
	DB	0b0H
	DB	088H
	DB	020H
	DB	0d0H
	DB	0b4H
	DB	090H
	DB	0aeH
	DB	0c8H
	DB	0b0H
	DB	088H
	DB	0f7H
	DB	0d0H
	DB	0b0H
	DB	088H
	DB	0beH
	DB	0d0H
	DB	0b0H
	DB	088H
	DB	010H
	DB	0c8H
	DB	0b0H
	DB	090H
	DB	00H
	DB	0d0H
	DB	0b4H
	DB	088H
	DB	00H
	DB	0d0H
	DB	0b0H
	DB	088H
	DB	00H
	DB	0d0H
	DB	0b0H
	DB	090H
	DB	00H
	DB	0d0H
	DB	0b4H
	DB	088H
	DB	00H
	DB	0d0H
	DB	0b0H
	DB	088H
	DB	00H
	DB	0d0H
	DB	0b0H
	DB	090H
	DB	00H
	DB	0c8H
	DB	0b0H
	DB	088H
	DB	00H
	DB	0d0H
	DB	0b4H
	DB	088H
	DB	00H
	DB	0d0H
	DB	0b0H
	DB	090H
	DB	00H
	DB	0d0H
	DB	0b0H
	DB	088H
	DB	00H
	DB	0d0H
	DB	0b4H
	DB	090H
	DB	00H
	DB	0d0H
	DB	0b0H
	DB	088H
	DB	00H
	DB	0d0H
	DB	0b0H
	DB	088H
	DB	00H
CONST	ENDS
END
