; Listing generated by Microsoft (R) Optimizing Compiler Version 19.27.29112.0 

	TITLE	D:\hackTuesProject\project\TouchGFX\generated\images\src\MainScreen\image_schedule_icon.cpp
	.686P
	.XMM
	include listing.inc
	.model	flat

INCLUDELIB MSVCRTD
INCLUDELIB OLDNAMES

PUBLIC	?image_schedule_icon@@3QBEB			; image_schedule_icon
CONST	SEGMENT
?image_schedule_icon@@3QBEB DB 0c0H			; image_schedule_icon
	DB	0a0H
	DB	078H
	DB	00H
	DB	0c0H
	DB	0a0H
	DB	078H
	DB	00H
	DB	0c0H
	DB	0a0H
	DB	078H
	DB	00H
	DB	0c0H
	DB	0a0H
	DB	078H
	DB	00H
	DB	0c0H
	DB	0a0H
	DB	078H
	DB	00H
	DB	0c0H
	DB	0a0H
	DB	078H
	DB	00H
	DB	0c0H
	DB	0a0H
	DB	078H
	DB	086H
	DB	0c0H
	DB	0a0H
	DB	078H
	DB	0f7H
	DB	0c0H
	DB	0a0H
	DB	078H
	DB	0f7H
	DB	0c0H
	DB	0a0H
	DB	078H
	DB	086H
	DB	0c0H
	DB	0a0H
	DB	078H
	DB	00H
	DB	0c0H
	DB	0a0H
	DB	078H
	DB	00H
	DB	0c0H
	DB	0a0H
	DB	078H
	DB	00H
	DB	0c0H
	DB	0a0H
	DB	078H
	DB	00H
	DB	0c0H
	DB	0a0H
	DB	078H
	DB	00H
	DB	0c0H
	DB	0a0H
	DB	078H
	DB	00H
	DB	0c0H
	DB	0a0H
	DB	078H
	DB	00H
	DB	0c0H
	DB	0a0H
	DB	078H
	DB	00H
	DB	0c0H
	DB	0a0H
	DB	078H
	DB	00H
	DB	0c0H
	DB	0a0H
	DB	078H
	DB	00H
	DB	0c0H
	DB	0a0H
	DB	078H
	DB	00H
	DB	0c0H
	DB	0a0H
	DB	078H
	DB	00H
	DB	0c0H
	DB	0a0H
	DB	078H
	DB	00H
	DB	0c0H
	DB	0a0H
	DB	078H
	DB	00H
	DB	0c0H
	DB	0a0H
	DB	078H
	DB	00H
	DB	0c0H
	DB	0a0H
	DB	078H
	DB	00H
	DB	0c0H
	DB	0a0H
	DB	078H
	DB	00H
	DB	0c0H
	DB	0a0H
	DB	078H
	DB	00H
	DB	0c0H
	DB	0a0H
	DB	078H
	DB	00H
	DB	0c0H
	DB	0a0H
	DB	078H
	DB	00H
	DB	0c0H
	DB	0a0H
	DB	078H
	DB	00H
	DB	0c0H
	DB	0a0H
	DB	078H
	DB	00H
	DB	0c0H
	DB	0a0H
	DB	078H
	DB	00H
	DB	0c0H
	DB	0a0H
	DB	078H
	DB	00H
	DB	0c0H
	DB	0a0H
	DB	078H
	DB	00H
	DB	0c0H
	DB	0a0H
	DB	078H
	DB	00H
	DB	0c0H
	DB	0a0H
	DB	078H
	DB	00H
	DB	0c0H
	DB	0a0H
	DB	078H
	DB	00H
	DB	0c0H
	DB	0a0H
	DB	078H
	DB	00H
	DB	0c0H
	DB	0a0H
	DB	078H
	DB	00H
	DB	0c0H
	DB	0a0H
	DB	078H
	DB	00H
	DB	0c0H
	DB	0a0H
	DB	078H
	DB	086H
	DB	0c0H
	DB	0a0H
	DB	078H
	DB	0f7H
	DB	0c0H
	DB	0a0H
	DB	078H
	DB	0f7H
	DB	0c0H
	DB	0a0H
	DB	078H
	DB	086H
	DB	0c0H
	DB	0a0H
	DB	078H
	DB	00H
	DB	0c0H
	DB	0a0H
	DB	078H
	DB	00H
	DB	0c0H
	DB	0a0H
	DB	078H
	DB	00H
	DB	0c0H
	DB	0a0H
	DB	078H
	DB	00H
	DB	0c0H
	DB	0a0H
	DB	078H
	DB	00H
	DB	0c0H
	DB	0a0H
	DB	078H
	DB	00H
	DB	0c0H
	DB	0a0H
	DB	078H
	DB	00H
	DB	0c8H
	DB	0a0H
	DB	078H
	DB	00H
	DB	0c8H
	DB	0a0H
	DB	078H
	DB	00H
	DB	0c0H
	DB	0a0H
	DB	078H
	DB	00H
	DB	0c8H
	DB	0a0H
	DB	078H
	DB	00H
	DB	0c8H
	DB	0a0H
	DB	078H
	DB	00H
	DB	0c0H
	DB	0a0H
	DB	078H
	DB	0fbH
	DB	0c8H
	DB	0a0H
	DB	078H
	DB	0ffH
	DB	0c8H
	DB	0a0H
	DB	078H
	DB	0ffH
	DB	0c0H
	DB	0a0H
	DB	078H
	DB	0f7H
	DB	0c8H
	DB	0a0H
	DB	078H
	DB	00H
	DB	0c8H
	DB	0a0H
	DB	078H
	DB	00H
	DB	0c0H
	DB	0a0H
	DB	078H
	DB	00H
	DB	0c8H
	DB	0a0H
	DB	078H
	DB	00H
	DB	0c8H
	DB	0a0H
	DB	078H
	DB	00H
	DB	0c0H
	DB	0a0H
	DB	078H
	DB	00H
	DB	0c8H
	DB	0a0H
	DB	078H
	DB	00H
	DB	0c8H
	DB	0a0H
	DB	078H
	DB	00H
	DB	0c0H
	DB	0a0H
	DB	078H
	DB	00H
	DB	0c8H
	DB	0a0H
	DB	078H
	DB	00H
	DB	0c8H
	DB	0a0H
	DB	078H
	DB	00H
	DB	0c0H
	DB	0a0H
	DB	078H
	DB	00H
	DB	0c8H
	DB	0a0H
	DB	078H
	DB	00H
	DB	0c8H
	DB	0a0H
	DB	078H
	DB	00H
	DB	0c0H
	DB	0a0H
	DB	078H
	DB	00H
	DB	0c8H
	DB	0a0H
	DB	078H
	DB	00H
	DB	0c8H
	DB	0a0H
	DB	078H
	DB	00H
	DB	0c0H
	DB	0a0H
	DB	078H
	DB	00H
	DB	0c8H
	DB	0a0H
	DB	078H
	DB	00H
	DB	0c8H
	DB	0a0H
	DB	078H
	DB	00H
	DB	0c0H
	DB	0a0H
	DB	078H
	DB	00H
	DB	0c8H
	DB	0a0H
	DB	078H
	DB	00H
	DB	0c8H
	DB	0a0H
	DB	078H
	DB	00H
	DB	0c0H
	DB	0a0H
	DB	078H
	DB	00H
	DB	0c8H
	DB	0a0H
	DB	078H
	DB	00H
	DB	0c8H
	DB	0a0H
	DB	078H
	DB	00H
	DB	0c0H
	DB	0a0H
	DB	078H
	DB	00H
	DB	0c8H
	DB	0a0H
	DB	078H
	DB	00H
	DB	0c8H
	DB	0a0H
	DB	078H
	DB	00H
	DB	0c0H
	DB	0a0H
	DB	078H
	DB	00H
	DB	0c8H
	DB	0a0H
	DB	078H
	DB	00H
	DB	0c8H
	DB	0a0H
	DB	078H
	DB	0fbH
	DB	0c0H
	DB	0a0H
	DB	078H
	DB	0ffH
	DB	0c8H
	DB	0a0H
	DB	078H
	DB	0ffH
	DB	0c8H
	DB	0a0H
	DB	078H
	DB	0f7H
	DB	0c0H
	DB	0a0H
	DB	078H
	DB	00H
	DB	0c8H
	DB	0a0H
	DB	078H
	DB	00H
	DB	0c8H
	DB	0a0H
	DB	078H
	DB	00H
	DB	0c0H
	DB	0a0H
	DB	078H
	DB	00H
	DB	0c8H
	DB	0a0H
	DB	078H
	DB	00H
	DB	0c0H
	DB	0a0H
	DB	078H
	DB	00H
	DB	0c0H
	DB	0a0H
	DB	078H
	DB	00H
	DB	0c0H
	DB	0a0H
	DB	078H
	DB	00H
	DB	0c8H
	DB	0a4H
	DB	078H
	DB	00H
	DB	0c0H
	DB	0a0H
	DB	078H
	DB	00H
	DB	0c0H
	DB	0a4H
	DB	078H
	DB	00H
	DB	0c8H
	DB	0a0H
	DB	078H
	DB	00H
	DB	0c0H
	DB	0a4H
	DB	078H
	DB	0ffH
	DB	0c0H
	DB	0a0H
	DB	078H
	DB	0ffH
	DB	0c8H
	DB	0a4H
	DB	078H
	DB	0ffH
	DB	0c0H
	DB	0a0H
	DB	078H
	DB	0ffH
	DB	0c0H
	DB	0a4H
	DB	078H
	DB	00H
	DB	0c8H
	DB	0a0H
	DB	078H
	DB	00H
	DB	0c0H
	DB	0a4H
	DB	078H
	DB	00H
	DB	0c0H
	DB	0a0H
	DB	078H
	DB	00H
	DB	0c8H
	DB	0a4H
	DB	078H
	DB	00H
	DB	0c0H
	DB	0a0H
	DB	078H
	DB	00H
	DB	0c0H
	DB	0a4H
	DB	078H
	DB	00H
	DB	0c8H
	DB	0a0H
	DB	078H
	DB	00H
	DB	0c0H
	DB	0a4H
	DB	078H
	DB	00H
	DB	0c0H
	DB	0a0H
	DB	078H
	DB	00H
	DB	0c8H
	DB	0a4H
	DB	078H
	DB	00H
	DB	0c0H
	DB	0a0H
	DB	078H
	DB	00H
	DB	0c0H
	DB	0a4H
	DB	078H
	DB	00H
	DB	0c8H
	DB	0a0H
	DB	078H
	DB	00H
	DB	0c0H
	DB	0a4H
	DB	078H
	DB	00H
	DB	0c0H
	DB	0a0H
	DB	078H
	DB	00H
	DB	0c8H
	DB	0a4H
	DB	078H
	DB	00H
	DB	0c0H
	DB	0a0H
	DB	078H
	DB	00H
	DB	0c0H
	DB	0a4H
	DB	078H
	DB	00H
	DB	0c8H
	DB	0a0H
	DB	078H
	DB	00H
	DB	0c0H
	DB	0a4H
	DB	078H
	DB	00H
	DB	0c0H
	DB	0a0H
	DB	078H
	DB	00H
	DB	0c8H
	DB	0a4H
	DB	078H
	DB	00H
	DB	0c0H
	DB	0a0H
	DB	078H
	DB	00H
	DB	0c0H
	DB	0a4H
	DB	078H
	DB	00H
	DB	0c8H
	DB	0a0H
	DB	078H
	DB	00H
	DB	0c0H
	DB	0a4H
	DB	078H
	DB	00H
	DB	0c0H
	DB	0a0H
	DB	078H
	DB	00H
	DB	0c8H
	DB	0a4H
	DB	078H
	DB	00H
	DB	0c0H
	DB	0a0H
	DB	078H
	DB	00H
	DB	0c0H
	DB	0a4H
	DB	078H
	DB	00H
	DB	0c8H
	DB	0a0H
	DB	078H
	DB	0ffH
	DB	0c0H
	DB	0a4H
	DB	078H
	DB	0ffH
	DB	0c0H
	DB	0a0H
	DB	078H
	DB	0ffH
	DB	0c8H
	DB	0a4H
	DB	078H
	DB	0ffH
	DB	0c0H
	DB	0a0H
	DB	078H
	DB	00H
	DB	0c0H
	DB	0a4H
	DB	078H
	DB	00H
	DB	0c8H
	DB	0a0H
	DB	078H
	DB	00H
	DB	0c0H
	DB	0a4H
	DB	078H
	DB	00H
	DB	0c8H
	DB	0a0H
	DB	078H
	DB	00H
	DB	0c0H
	DB	0a0H
	DB	078H
	DB	00H
	DB	0c0H
	DB	0a0H
	DB	078H
	DB	049H
	DB	0c0H
	DB	0a0H
	DB	078H
	DB	0e7H
	DB	0c8H
	DB	0a0H
	DB	078H
	DB	0ffH
	DB	0c0H
	DB	0a0H
	DB	078H
	DB	0ffH
	DB	0c0H
	DB	0a0H
	DB	078H
	DB	0ffH
	DB	0c0H
	DB	0a4H
	DB	078H
	DB	0ffH
	DB	0c8H
	DB	0a0H
	DB	078H
	DB	0ffH
	DB	0c0H
	DB	0a0H
	DB	078H
	DB	0ffH
	DB	0c0H
	DB	0a0H
	DB	078H
	DB	0ffH
	DB	0c8H
	DB	0a4H
	DB	078H
	DB	0ffH
	DB	0c0H
	DB	0a0H
	DB	078H
	DB	0ffH
	DB	0c0H
	DB	0a0H
	DB	078H
	DB	0ffH
	DB	0c8H
	DB	0a0H
	DB	078H
	DB	0ffH
	DB	0c0H
	DB	0a4H
	DB	078H
	DB	0ffH
	DB	0c0H
	DB	0a0H
	DB	078H
	DB	0ffH
	DB	0c8H
	DB	0a0H
	DB	078H
	DB	0ffH
	DB	0c0H
	DB	0a0H
	DB	078H
	DB	0ffH
	DB	0c0H
	DB	0a4H
	DB	078H
	DB	0ffH
	DB	0c8H
	DB	0a0H
	DB	078H
	DB	0ffH
	DB	0c0H
	DB	0a0H
	DB	078H
	DB	0ffH
	DB	0c0H
	DB	0a0H
	DB	078H
	DB	0ffH
	DB	0c8H
	DB	0a4H
	DB	078H
	DB	0ffH
	DB	0c0H
	DB	0a0H
	DB	078H
	DB	0ffH
	DB	0c0H
	DB	0a0H
	DB	078H
	DB	0ffH
	DB	0c8H
	DB	0a0H
	DB	078H
	DB	0ffH
	DB	0c0H
	DB	0a4H
	DB	078H
	DB	0ffH
	DB	0c0H
	DB	0a0H
	DB	078H
	DB	0ffH
	DB	0c8H
	DB	0a0H
	DB	078H
	DB	0ffH
	DB	0c0H
	DB	0a0H
	DB	078H
	DB	0ffH
	DB	0c0H
	DB	0a4H
	DB	078H
	DB	0ffH
	DB	0c8H
	DB	0a0H
	DB	078H
	DB	0ffH
	DB	0c0H
	DB	0a0H
	DB	078H
	DB	0ffH
	DB	0c0H
	DB	0a0H
	DB	078H
	DB	0ffH
	DB	0c8H
	DB	0a4H
	DB	078H
	DB	0ffH
	DB	0c0H
	DB	0a0H
	DB	078H
	DB	0ffH
	DB	0c0H
	DB	0a0H
	DB	078H
	DB	0ffH
	DB	0c8H
	DB	0a0H
	DB	078H
	DB	0ffH
	DB	0c0H
	DB	0a4H
	DB	078H
	DB	0ffH
	DB	0c0H
	DB	0a0H
	DB	078H
	DB	0ffH
	DB	0c8H
	DB	0a0H
	DB	078H
	DB	0ffH
	DB	0c0H
	DB	0a0H
	DB	078H
	DB	0ffH
	DB	0c0H
	DB	0a4H
	DB	078H
	DB	0ffH
	DB	0c8H
	DB	0a0H
	DB	078H
	DB	0ffH
	DB	0c0H
	DB	0a0H
	DB	078H
	DB	0ffH
	DB	0c0H
	DB	0a0H
	DB	078H
	DB	0ffH
	DB	0c8H
	DB	0a4H
	DB	078H
	DB	0ffH
	DB	0c0H
	DB	0a0H
	DB	078H
	DB	0ffH
	DB	0c0H
	DB	0a0H
	DB	078H
	DB	0ffH
	DB	0c0H
	DB	0a0H
	DB	078H
	DB	0ffH
	DB	0c0H
	DB	0a4H
	DB	078H
	DB	0e7H
	DB	0c8H
	DB	0a0H
	DB	078H
	DB	049H
	DB	0c0H
	DB	0a0H
	DB	078H
	DB	0e7H
	DB	0c8H
	DB	0a0H
	DB	078H
	DB	0ffH
	DB	0c0H
	DB	0a4H
	DB	078H
	DB	0ffH
	DB	0c8H
	DB	0a0H
	DB	078H
	DB	0ffH
	DB	0c0H
	DB	0a0H
	DB	080H
	DB	0ffH
	DB	0c8H
	DB	0a0H
	DB	078H
	DB	0ffH
	DB	0c0H
	DB	0a0H
	DB	078H
	DB	0ffH
	DB	0c0H
	DB	0a0H
	DB	080H
	DB	0ffH
	DB	0c8H
	DB	0a0H
	DB	078H
	DB	0ffH
	DB	0c0H
	DB	0a0H
	DB	078H
	DB	0ffH
	DB	0c0H
	DB	0a0H
	DB	080H
	DB	0ffH
	DB	0c8H
	DB	0a0H
	DB	078H
	DB	0ffH
	DB	0c0H
	DB	0a0H
	DB	078H
	DB	0ffH
	DB	0c0H
	DB	0a0H
	DB	080H
	DB	0ffH
	DB	0c8H
	DB	0a0H
	DB	078H
	DB	0ffH
	DB	0c0H
	DB	0a0H
	DB	078H
	DB	0ffH
	DB	0c0H
	DB	0a0H
	DB	080H
	DB	0ffH
	DB	0c8H
	DB	0a0H
	DB	078H
	DB	0ffH
	DB	0c0H
	DB	0a0H
	DB	078H
	DB	0ffH
	DB	0c0H
	DB	0a0H
	DB	080H
	DB	0ffH
	DB	0c8H
	DB	0a0H
	DB	078H
	DB	0ffH
	DB	0c0H
	DB	0a0H
	DB	078H
	DB	0ffH
	DB	0c0H
	DB	0a0H
	DB	080H
	DB	0ffH
	DB	0c8H
	DB	0a0H
	DB	078H
	DB	0ffH
	DB	0c0H
	DB	0a0H
	DB	078H
	DB	0ffH
	DB	0c0H
	DB	0a0H
	DB	080H
	DB	0ffH
	DB	0c8H
	DB	0a0H
	DB	078H
	DB	0ffH
	DB	0c0H
	DB	0a0H
	DB	078H
	DB	0ffH
	DB	0c0H
	DB	0a0H
	DB	080H
	DB	0ffH
	DB	0c8H
	DB	0a0H
	DB	078H
	DB	0ffH
	DB	0c0H
	DB	0a0H
	DB	078H
	DB	0ffH
	DB	0c0H
	DB	0a0H
	DB	080H
	DB	0ffH
	DB	0c8H
	DB	0a0H
	DB	078H
	DB	0ffH
	DB	0c0H
	DB	0a0H
	DB	078H
	DB	0ffH
	DB	0c0H
	DB	0a0H
	DB	080H
	DB	0ffH
	DB	0c8H
	DB	0a0H
	DB	078H
	DB	0ffH
	DB	0c0H
	DB	0a0H
	DB	078H
	DB	0ffH
	DB	0c0H
	DB	0a0H
	DB	080H
	DB	0ffH
	DB	0c8H
	DB	0a0H
	DB	078H
	DB	0ffH
	DB	0c0H
	DB	0a0H
	DB	078H
	DB	0ffH
	DB	0c0H
	DB	0a0H
	DB	080H
	DB	0ffH
	DB	0c8H
	DB	0a0H
	DB	078H
	DB	0ffH
	DB	0c0H
	DB	0a0H
	DB	078H
	DB	0ffH
	DB	0c0H
	DB	0a0H
	DB	080H
	DB	0ffH
	DB	0c8H
	DB	0a0H
	DB	078H
	DB	0ffH
	DB	0c0H
	DB	0a0H
	DB	078H
	DB	0ffH
	DB	0c8H
	DB	0a0H
	DB	080H
	DB	0ffH
	DB	0c0H
	DB	0a0H
	DB	078H
	DB	0ffH
	DB	0c8H
	DB	0a0H
	DB	078H
	DB	0ffH
	DB	0c0H
	DB	0a0H
	DB	078H
	DB	0ffH
	DB	0c0H
	DB	0a0H
	DB	078H
	DB	0e7H
	DB	0c0H
	DB	0a0H
	DB	078H
	DB	0ffH
	DB	0c0H
	DB	0a0H
	DB	078H
	DB	0ffH
	DB	0c8H
	DB	0a4H
	DB	078H
	DB	0ffH
	DB	0c0H
	DB	0a0H
	DB	078H
	DB	0ffH
	DB	0c0H
	DB	0a0H
	DB	078H
	DB	0ffH
	DB	0c8H
	DB	0a4H
	DB	078H
	DB	0ffH
	DB	0c0H
	DB	0a0H
	DB	078H
	DB	0ffH
	DB	0c8H
	DB	0a4H
	DB	078H
	DB	0ffH
	DB	0c0H
	DB	0a0H
	DB	078H
	DB	0ffH
	DB	0c0H
	DB	0a0H
	DB	078H
	DB	0ffH
	DB	0c8H
	DB	0a4H
	DB	078H
	DB	0ffH
	DB	0c0H
	DB	0a4H
	DB	078H
	DB	0ffH
	DB	0c0H
	DB	0a0H
	DB	078H
	DB	0ffH
	DB	0c8H
	DB	0a0H
	DB	078H
	DB	0ffH
	DB	0c0H
	DB	0a4H
	DB	078H
	DB	0ffH
	DB	0c0H
	DB	0a4H
	DB	078H
	DB	0ffH
	DB	0c8H
	DB	0a0H
	DB	078H
	DB	0ffH
	DB	0c0H
	DB	0a0H
	DB	078H
	DB	0ffH
	DB	0c0H
	DB	0a4H
	DB	078H
	DB	0ffH
	DB	0c8H
	DB	0a4H
	DB	078H
	DB	0ffH
	DB	0c0H
	DB	0a0H
	DB	078H
	DB	0ffH
	DB	0c0H
	DB	0a0H
	DB	078H
	DB	0ffH
	DB	0c8H
	DB	0a4H
	DB	078H
	DB	0ffH
	DB	0c0H
	DB	0a4H
	DB	078H
	DB	0ffH
	DB	0c0H
	DB	0a0H
	DB	078H
	DB	0ffH
	DB	0c8H
	DB	0a0H
	DB	078H
	DB	0ffH
	DB	0c0H
	DB	0a4H
	DB	078H
	DB	0ffH
	DB	0c0H
	DB	0a4H
	DB	078H
	DB	0ffH
	DB	0c8H
	DB	0a0H
	DB	078H
	DB	0ffH
	DB	0c0H
	DB	0a0H
	DB	078H
	DB	0ffH
	DB	0c0H
	DB	0a4H
	DB	078H
	DB	0ffH
	DB	0c8H
	DB	0a4H
	DB	078H
	DB	0ffH
	DB	0c0H
	DB	0a0H
	DB	078H
	DB	0ffH
	DB	0c0H
	DB	0a0H
	DB	078H
	DB	0ffH
	DB	0c8H
	DB	0a4H
	DB	078H
	DB	0ffH
	DB	0c0H
	DB	0a4H
	DB	078H
	DB	0ffH
	DB	0c0H
	DB	0a0H
	DB	078H
	DB	0ffH
	DB	0c8H
	DB	0a0H
	DB	078H
	DB	0ffH
	DB	0c0H
	DB	0a4H
	DB	078H
	DB	0ffH
	DB	0c0H
	DB	0a4H
	DB	078H
	DB	0ffH
	DB	0c8H
	DB	0a0H
	DB	078H
	DB	0ffH
	DB	0c0H
	DB	0a0H
	DB	078H
	DB	0ffH
	DB	0c0H
	DB	0a4H
	DB	078H
	DB	0ffH
	DB	0c8H
	DB	0a4H
	DB	078H
	DB	0ffH
	DB	0c0H
	DB	0a0H
	DB	078H
	DB	0ffH
	DB	0c0H
	DB	0a0H
	DB	078H
	DB	0ffH
	DB	0c8H
	DB	0a4H
	DB	078H
	DB	0ffH
	DB	0c0H
	DB	0a4H
	DB	078H
	DB	0ffH
	DB	0c8H
	DB	0a0H
	DB	080H
	DB	0ffH
	DB	0c8H
	DB	0a0H
	DB	078H
	DB	0ffH
	DB	0c0H
	DB	0a0H
	DB	078H
	DB	0ffH
	DB	0c0H
	DB	0a0H
	DB	078H
	DB	0ffH
	DB	0c8H
	DB	0a0H
	DB	078H
	DB	0ffH
	DB	0c0H
	DB	0a0H
	DB	078H
	DB	0ffH
	DB	0c0H
	DB	0a0H
	DB	078H
	DB	0ffH
	DB	0c8H
	DB	0a4H
	DB	078H
	DB	0ffH
	DB	0c0H
	DB	0a0H
	DB	078H
	DB	0ffH
	DB	0c0H
	DB	0a0H
	DB	078H
	DB	0ffH
	DB	0c8H
	DB	0a4H
	DB	078H
	DB	0ffH
	DB	0c0H
	DB	0a0H
	DB	078H
	DB	0ffH
	DB	0c8H
	DB	0a0H
	DB	078H
	DB	0ffH
	DB	0c8H
	DB	0a0H
	DB	078H
	DB	0ffH
	DB	0c0H
	DB	0a0H
	DB	078H
	DB	0ffH
	DB	0c8H
	DB	0a4H
	DB	078H
	DB	0ffH
	DB	0c0H
	DB	0a0H
	DB	078H
	DB	0ffH
	DB	0c8H
	DB	0a0H
	DB	078H
	DB	0ffH
	DB	0c0H
	DB	0a0H
	DB	078H
	DB	0ffH
	DB	0c8H
	DB	0a0H
	DB	078H
	DB	0ffH
	DB	0c0H
	DB	0a0H
	DB	078H
	DB	0ffH
	DB	0c8H
	DB	0a0H
	DB	078H
	DB	0ffH
	DB	0c8H
	DB	0a0H
	DB	078H
	DB	0ffH
	DB	0c0H
	DB	0a4H
	DB	078H
	DB	0ffH
	DB	0c8H
	DB	0a0H
	DB	078H
	DB	0ffH
	DB	0c0H
	DB	0a0H
	DB	078H
	DB	0ffH
	DB	0c8H
	DB	0a0H
	DB	078H
	DB	0ffH
	DB	0c0H
	DB	0a0H
	DB	078H
	DB	0ffH
	DB	0c8H
	DB	0a0H
	DB	078H
	DB	0ffH
	DB	0c0H
	DB	0a0H
	DB	078H
	DB	0ffH
	DB	0c8H
	DB	0a0H
	DB	078H
	DB	0ffH
	DB	0c8H
	DB	0a4H
	DB	078H
	DB	0ffH
	DB	0c0H
	DB	0a0H
	DB	078H
	DB	0ffH
	DB	0c8H
	DB	0a0H
	DB	078H
	DB	0ffH
	DB	0c0H
	DB	0a0H
	DB	078H
	DB	0ffH
	DB	0c8H
	DB	0a0H
	DB	078H
	DB	0ffH
	DB	0c0H
	DB	0a0H
	DB	078H
	DB	0ffH
	DB	0c8H
	DB	0a0H
	DB	078H
	DB	0ffH
	DB	0c0H
	DB	0a0H
	DB	078H
	DB	0ffH
	DB	0c8H
	DB	0a4H
	DB	078H
	DB	0ffH
	DB	0c8H
	DB	0a0H
	DB	078H
	DB	0ffH
	DB	0c0H
	DB	0a0H
	DB	078H
	DB	0ffH
	DB	0c8H
	DB	0a0H
	DB	078H
	DB	0ffH
	DB	0c0H
	DB	0a0H
	DB	078H
	DB	0ffH
	DB	0c8H
	DB	0a0H
	DB	078H
	DB	0ffH
	DB	0c0H
	DB	0a0H
	DB	078H
	DB	0ffH
	DB	0c8H
	DB	0a0H
	DB	078H
	DB	0ffH
	DB	0c0H
	DB	0a4H
	DB	078H
	DB	0ffH
	DB	0c0H
	DB	0a0H
	DB	078H
	DB	0ffH
	DB	0c0H
	DB	0a0H
	DB	078H
	DB	0ffH
	DB	0c0H
	DB	0a0H
	DB	078H
	DB	0ffH
	DB	0c0H
	DB	0a4H
	DB	078H
	DB	0ffH
	DB	0c0H
	DB	0a0H
	DB	078H
	DB	0ffH
	DB	0c0H
	DB	0a0H
	DB	078H
	DB	0ffH
	DB	0c0H
	DB	0a0H
	DB	078H
	DB	0ffH
	DB	0c8H
	DB	0a4H
	DB	078H
	DB	0ffH
	DB	0c0H
	DB	0a0H
	DB	080H
	DB	0ffH
	DB	0c8H
	DB	0a0H
	DB	078H
	DB	0ffH
	DB	0c0H
	DB	0a0H
	DB	078H
	DB	0ffH
	DB	0c0H
	DB	0a0H
	DB	080H
	DB	0ffH
	DB	0c8H
	DB	0a0H
	DB	078H
	DB	0ffH
	DB	0c0H
	DB	0a0H
	DB	078H
	DB	0ffH
	DB	0c0H
	DB	0a4H
	DB	080H
	DB	0ffH
	DB	0c0H
	DB	0a0H
	DB	078H
	DB	0ffH
	DB	0c0H
	DB	0a0H
	DB	078H
	DB	0ffH
	DB	0c0H
	DB	0a0H
	DB	080H
	DB	0ffH
	DB	0c8H
	DB	0a0H
	DB	078H
	DB	0ffH
	DB	0c0H
	DB	0a0H
	DB	078H
	DB	0ffH
	DB	0c0H
	DB	0a0H
	DB	080H
	DB	0ffH
	DB	0c8H
	DB	0a4H
	DB	078H
	DB	0ffH
	DB	0c0H
	DB	0a0H
	DB	078H
	DB	0ffH
	DB	0c0H
	DB	0a4H
	DB	080H
	DB	0ffH
	DB	0c0H
	DB	0a0H
	DB	078H
	DB	0ffH
	DB	0c0H
	DB	0a0H
	DB	078H
	DB	0ffH
	DB	0c0H
	DB	0a0H
	DB	080H
	DB	0ffH
	DB	0c8H
	DB	0a0H
	DB	078H
	DB	0ffH
	DB	0c0H
	DB	0a0H
	DB	078H
	DB	0ffH
	DB	0c0H
	DB	0a4H
	DB	080H
	DB	0ffH
	DB	0c8H
	DB	0a0H
	DB	078H
	DB	0ffH
	DB	0c0H
	DB	0a4H
	DB	078H
	DB	0ffH
	DB	0c0H
	DB	0a0H
	DB	080H
	DB	0ffH
	DB	0c0H
	DB	0a0H
	DB	078H
	DB	0ffH
	DB	0c0H
	DB	0a0H
	DB	078H
	DB	0ffH
	DB	0c0H
	DB	0a0H
	DB	080H
	DB	0ffH
	DB	0c8H
	DB	0a0H
	DB	078H
	DB	0ffH
	DB	0c0H
	DB	0a4H
	DB	078H
	DB	0ffH
	DB	0c0H
	DB	0a0H
	DB	080H
	DB	0ffH
	DB	0c8H
	DB	0a4H
	DB	078H
	DB	0ffH
	DB	0c0H
	DB	0a0H
	DB	078H
	DB	0ffH
	DB	0c0H
	DB	0a0H
	DB	080H
	DB	0ffH
	DB	0c0H
	DB	0a0H
	DB	078H
	DB	0ffH
	DB	0c0H
	DB	0a0H
	DB	078H
	DB	0ffH
	DB	0c0H
	DB	0a0H
	DB	080H
	DB	0ffH
	DB	0c8H
	DB	0a4H
	DB	078H
	DB	0ffH
	DB	0c0H
	DB	0a0H
	DB	078H
	DB	0ffH
	DB	0c0H
	DB	0a4H
	DB	080H
	DB	0ffH
	DB	0c8H
	DB	0a0H
	DB	078H
	DB	0ffH
	DB	0c0H
	DB	0a0H
	DB	078H
	DB	0ffH
	DB	0c8H
	DB	0a0H
	DB	080H
	DB	0ffH
	DB	0c8H
	DB	0a0H
	DB	078H
	DB	0ffH
	DB	0c0H
	DB	0a0H
	DB	078H
	DB	0ffH
	DB	0c8H
	DB	0a0H
	DB	080H
	DB	0ffH
	DB	0c8H
	DB	0a0H
	DB	078H
	DB	0ffH
	DB	0c0H
	DB	0a4H
	DB	078H
	DB	0ffH
	DB	0c8H
	DB	0a0H
	DB	078H
	DB	0ffH
	DB	0c0H
	DB	0a0H
	DB	078H
	DB	0ffH
	DB	0c0H
	DB	0a0H
	DB	078H
	DB	0ffH
	DB	0c8H
	DB	0a4H
	DB	078H
	DB	0ffH
	DB	0c0H
	DB	0a0H
	DB	078H
	DB	0ffH
	DB	0c0H
	DB	0a4H
	DB	078H
	DB	0ffH
	DB	0c8H
	DB	0a0H
	DB	078H
	DB	0ffH
	DB	0c0H
	DB	0a0H
	DB	078H
	DB	0ffH
	DB	0c8H
	DB	0a0H
	DB	078H
	DB	0ffH
	DB	0c0H
	DB	0a0H
	DB	078H
	DB	0ffH
	DB	0c8H
	DB	0a4H
	DB	078H
	DB	0ffH
	DB	0c0H
	DB	0a0H
	DB	078H
	DB	0ffH
	DB	0c0H
	DB	0a4H
	DB	078H
	DB	0ffH
	DB	0c8H
	DB	0a0H
	DB	078H
	DB	0ffH
	DB	0c0H
	DB	0a0H
	DB	078H
	DB	0ffH
	DB	0c0H
	DB	0a4H
	DB	078H
	DB	0ffH
	DB	0c8H
	DB	0a0H
	DB	078H
	DB	0ffH
	DB	0c0H
	DB	0a0H
	DB	078H
	DB	0ffH
	DB	0c8H
	DB	0a4H
	DB	078H
	DB	0ffH
	DB	0c8H
	DB	0a0H
	DB	078H
	DB	0ffH
	DB	0c0H
	DB	0a0H
	DB	078H
	DB	0ffH
	DB	0c0H
	DB	0a4H
	DB	078H
	DB	0ffH
	DB	0c8H
	DB	0a0H
	DB	078H
	DB	0ffH
	DB	0c0H
	DB	0a0H
	DB	078H
	DB	0ffH
	DB	0c0H
	DB	0a4H
	DB	078H
	DB	0ffH
	DB	0c8H
	DB	0a0H
	DB	078H
	DB	0ffH
	DB	0c0H
	DB	0a0H
	DB	078H
	DB	0ffH
	DB	0c8H
	DB	0a4H
	DB	078H
	DB	0ffH
	DB	0c8H
	DB	0a0H
	DB	078H
	DB	0ffH
	DB	0c0H
	DB	0a0H
	DB	078H
	DB	0ffH
	DB	0c0H
	DB	0a4H
	DB	078H
	DB	0ffH
	DB	0c8H
	DB	0a0H
	DB	078H
	DB	0ffH
	DB	0c0H
	DB	0a0H
	DB	078H
	DB	0ffH
	DB	0c0H
	DB	0a4H
	DB	078H
	DB	0ffH
	DB	0c8H
	DB	0a0H
	DB	078H
	DB	0ffH
	DB	0c0H
	DB	0a0H
	DB	078H
	DB	0ffH
	DB	0c8H
	DB	0a4H
	DB	078H
	DB	0ffH
	DB	0c8H
	DB	0a0H
	DB	078H
	DB	0ffH
	DB	0c0H
	DB	0a0H
	DB	078H
	DB	0ffH
	DB	0c0H
	DB	0a4H
	DB	078H
	DB	0ffH
	DB	0c8H
	DB	0a0H
	DB	078H
	DB	0ffH
	DB	0c0H
	DB	0a0H
	DB	078H
	DB	0ffH
	DB	0c0H
	DB	0a4H
	DB	078H
	DB	0ffH
	DB	0c8H
	DB	0a0H
	DB	078H
	DB	0ffH
	DB	0c0H
	DB	0a0H
	DB	078H
	DB	0ffH
	DB	0c0H
	DB	0a4H
	DB	078H
	DB	0ffH
	DB	0c8H
	DB	0a0H
	DB	078H
	DB	0ffH
	DB	0c0H
	DB	0a4H
	DB	078H
	DB	0ffH
	DB	0c0H
	DB	0a0H
	DB	078H
	DB	0ffH
	DB	0c8H
	DB	0a0H
	DB	078H
	DB	0ffH
	DB	0c0H
	DB	0a0H
	DB	078H
	DB	0ffH
	DB	0c0H
	DB	0a0H
	DB	078H
	DB	0ffH
	DB	0c0H
	DB	0a0H
	DB	078H
	DB	0ffH
	DB	0c8H
	DB	0a0H
	DB	078H
	DB	0ffH
	DB	0c0H
	DB	0a0H
	DB	078H
	DB	0ffH
	DB	0c0H
	DB	0a0H
	DB	078H
	DB	0ffH
	DB	0c8H
	DB	0a0H
	DB	078H
	DB	0ffH
	DB	0c0H
	DB	0a4H
	DB	078H
	DB	0ffH
	DB	0c0H
	DB	0a4H
	DB	080H
	DB	0ffH
	DB	0c8H
	DB	0a0H
	DB	078H
	DB	0ffH
	DB	0c0H
	DB	0a0H
	DB	078H
	DB	0ffH
	DB	0c8H
	DB	0a0H
	DB	078H
	DB	0ffH
	DB	0c8H
	DB	0a0H
	DB	080H
	DB	0ffH
	DB	0c0H
	DB	0a4H
	DB	078H
	DB	0ffH
	DB	0c0H
	DB	0a0H
	DB	078H
	DB	0ffH
	DB	0c8H
	DB	0a0H
	DB	078H
	DB	0ffH
	DB	0c0H
	DB	0a4H
	DB	078H
	DB	0ffH
	DB	0c0H
	DB	0a0H
	DB	080H
	DB	0ffH
	DB	0c8H
	DB	0a0H
	DB	078H
	DB	0ffH
	DB	0c0H
	DB	0a0H
	DB	078H
	DB	0ffH
	DB	0c0H
	DB	0a0H
	DB	078H
	DB	0ffH
	DB	0c8H
	DB	0a4H
	DB	080H
	DB	0ffH
	DB	0c0H
	DB	0a0H
	DB	078H
	DB	0ffH
	DB	0c8H
	DB	0a0H
	DB	078H
	DB	0ffH
	DB	0c0H
	DB	0a0H
	DB	078H
	DB	0ffH
	DB	0c0H
	DB	0a0H
	DB	078H
	DB	0ffH
	DB	0c8H
	DB	0a0H
	DB	080H
	DB	0ffH
	DB	0c0H
	DB	0a0H
	DB	078H
	DB	0ffH
	DB	0c0H
	DB	0a0H
	DB	078H
	DB	0ffH
	DB	0c8H
	DB	0a4H
	DB	078H
	DB	0ffH
	DB	0c0H
	DB	0a0H
	DB	080H
	DB	0ffH
	DB	0c8H
	DB	0a0H
	DB	078H
	DB	0ffH
	DB	0c0H
	DB	0a0H
	DB	078H
	DB	0ffH
	DB	0c0H
	DB	0a0H
	DB	078H
	DB	0ffH
	DB	0c8H
	DB	0a0H
	DB	078H
	DB	0ffH
	DB	0c0H
	DB	0a0H
	DB	080H
	DB	0ffH
	DB	0c0H
	DB	0a0H
	DB	078H
	DB	0ffH
	DB	0c0H
	DB	0a4H
	DB	078H
	DB	0ffH
	DB	0c8H
	DB	0a0H
	DB	078H
	DB	0ffH
	DB	0c0H
	DB	0a0H
	DB	080H
	DB	0ffH
	DB	0c8H
	DB	0a4H
	DB	078H
	DB	0ffH
	DB	0c0H
	DB	0a0H
	DB	078H
	DB	0ffH
	DB	0c0H
	DB	0a0H
	DB	078H
	DB	0ffH
	DB	0c8H
	DB	0a0H
	DB	078H
	DB	0ffH
	DB	0c0H
	DB	0a0H
	DB	080H
	DB	0ffH
	DB	0c0H
	DB	0a4H
	DB	078H
	DB	0ffH
	DB	0c0H
	DB	0a0H
	DB	078H
	DB	0ffH
	DB	0c8H
	DB	0a0H
	DB	078H
	DB	0ffH
	DB	0c0H
	DB	0a4H
	DB	078H
	DB	0ffH
	DB	0c0H
	DB	0a0H
	DB	078H
	DB	0ffH
	DB	0c0H
	DB	0a0H
	DB	078H
	DB	0ffH
	DB	0c8H
	DB	0a4H
	DB	078H
	DB	0ffH
	DB	0c0H
	DB	0a0H
	DB	078H
	DB	0ffH
	DB	0c0H
	DB	0a0H
	DB	078H
	DB	0ffH
	DB	0c8H
	DB	0a0H
	DB	078H
	DB	0ffH
	DB	0c0H
	DB	0a4H
	DB	078H
	DB	0ffH
	DB	0c8H
	DB	0a0H
	DB	080H
	DB	0ffH
	DB	0c8H
	DB	0a0H
	DB	078H
	DB	0ffH
	DB	0c0H
	DB	0a0H
	DB	078H
	DB	0ffH
	DB	0c0H
	DB	0a0H
	DB	078H
	DB	0ffH
	DB	0c8H
	DB	0a4H
	DB	078H
	DB	0ffH
	DB	0c0H
	DB	0a0H
	DB	078H
	DB	0ffH
	DB	0c0H
	DB	0a0H
	DB	078H
	DB	0ffH
	DB	0c0H
	DB	0a4H
	DB	078H
	DB	0ffH
	DB	0c8H
	DB	0a0H
	DB	078H
	DB	0ffH
	DB	0c0H
	DB	0a0H
	DB	080H
	DB	0ffH
	DB	0c8H
	DB	0a0H
	DB	078H
	DB	0ffH
	DB	0c0H
	DB	0a0H
	DB	078H
	DB	0ffH
	DB	0c0H
	DB	0a0H
	DB	078H
	DB	0ffH
	DB	0c8H
	DB	0a4H
	DB	078H
	DB	0ffH
	DB	0c0H
	DB	0a0H
	DB	078H
	DB	0ffH
	DB	0c0H
	DB	0a0H
	DB	078H
	DB	0ffH
	DB	0c8H
	DB	0a0H
	DB	078H
	DB	0ffH
	DB	0c0H
	DB	0a4H
	DB	078H
	DB	0ffH
	DB	0c0H
	DB	0a0H
	DB	080H
	DB	0ffH
	DB	0c8H
	DB	0a4H
	DB	078H
	DB	0ffH
	DB	0c0H
	DB	0a0H
	DB	078H
	DB	0ffH
	DB	0c0H
	DB	0a4H
	DB	078H
	DB	0ffH
	DB	0c8H
	DB	0a0H
	DB	078H
	DB	0ffH
	DB	0c0H
	DB	0a0H
	DB	078H
	DB	0ffH
	DB	0c0H
	DB	0a0H
	DB	078H
	DB	0ffH
	DB	0c8H
	DB	0a4H
	DB	078H
	DB	0ffH
	DB	0c0H
	DB	0a0H
	DB	078H
	DB	0ffH
	DB	0c0H
	DB	0a4H
	DB	080H
	DB	0ffH
	DB	0c8H
	DB	0a0H
	DB	078H
	DB	0ffH
	DB	0c8H
	DB	0a4H
	DB	078H
	DB	0ffH
	DB	0c0H
	DB	0a0H
	DB	078H
	DB	0ffH
	DB	0c0H
	DB	0a0H
	DB	078H
	DB	0ffH
	DB	0c8H
	DB	0a0H
	DB	078H
	DB	0ffH
	DB	0c0H
	DB	0a0H
	DB	078H
	DB	0ffH
	DB	0c0H
	DB	0a0H
	DB	078H
	DB	0ffH
	DB	0c8H
	DB	0a0H
	DB	078H
	DB	0ffH
	DB	0c0H
	DB	0a0H
	DB	080H
	DB	0ffH
	DB	0c8H
	DB	0a4H
	DB	078H
	DB	0ffH
	DB	0c0H
	DB	0a0H
	DB	078H
	DB	0ffH
	DB	0c8H
	DB	0a0H
	DB	078H
	DB	0ffH
	DB	0c0H
	DB	0a0H
	DB	078H
	DB	0ffH
	DB	0c8H
	DB	0a0H
	DB	080H
	DB	0ffH
	DB	0c0H
	DB	0a0H
	DB	078H
	DB	0ffH
	DB	0c8H
	DB	0a0H
	DB	078H
	DB	0ffH
	DB	0c0H
	DB	0a0H
	DB	080H
	DB	0ffH
	DB	0c8H
	DB	0a4H
	DB	078H
	DB	0ffH
	DB	0c0H
	DB	0a0H
	DB	078H
	DB	0ffH
	DB	0c0H
	DB	0a0H
	DB	078H
	DB	0ffH
	DB	0c0H
	DB	0a0H
	DB	078H
	DB	00H
	DB	0c0H
	DB	0a0H
	DB	078H
	DB	00H
	DB	0c0H
	DB	0a4H
	DB	078H
	DB	00H
	DB	0c0H
	DB	0a0H
	DB	078H
	DB	00H
	DB	0c8H
	DB	0a0H
	DB	078H
	DB	00H
	DB	0c0H
	DB	0a0H
	DB	078H
	DB	00H
	DB	0c0H
	DB	0a0H
	DB	078H
	DB	00H
	DB	0c8H
	DB	0a0H
	DB	078H
	DB	00H
	DB	0c0H
	DB	0a4H
	DB	080H
	DB	00H
	DB	0c0H
	DB	0a0H
	DB	078H
	DB	00H
	DB	0c8H
	DB	0a0H
	DB	078H
	DB	00H
	DB	0c0H
	DB	0a0H
	DB	078H
	DB	00H
	DB	0c0H
	DB	0a4H
	DB	078H
	DB	00H
	DB	0c8H
	DB	0a0H
	DB	078H
	DB	00H
	DB	0c0H
	DB	0a0H
	DB	078H
	DB	00H
	DB	0c8H
	DB	0a4H
	DB	078H
	DB	00H
	DB	0c0H
	DB	0a0H
	DB	080H
	DB	00H
	DB	0c0H
	DB	0a0H
	DB	078H
	DB	00H
	DB	0c8H
	DB	0a0H
	DB	078H
	DB	00H
	DB	0c0H
	DB	0a4H
	DB	078H
	DB	00H
	DB	0c0H
	DB	0a0H
	DB	078H
	DB	00H
	DB	0c8H
	DB	0a0H
	DB	078H
	DB	00H
	DB	0c8H
	DB	0a0H
	DB	078H
	DB	00H
	DB	0c0H
	DB	0a0H
	DB	078H
	DB	00H
	DB	0c0H
	DB	0a4H
	DB	078H
	DB	00H
	DB	0c8H
	DB	0a0H
	DB	080H
	DB	00H
	DB	0c0H
	DB	0a0H
	DB	078H
	DB	00H
	DB	0c0H
	DB	0a0H
	DB	078H
	DB	00H
	DB	0c8H
	DB	0a0H
	DB	078H
	DB	00H
	DB	0c0H
	DB	0a0H
	DB	078H
	DB	00H
	DB	0c0H
	DB	0a0H
	DB	078H
	DB	00H
	DB	0c8H
	DB	0a4H
	DB	078H
	DB	00H
	DB	0c0H
	DB	0a0H
	DB	078H
	DB	00H
	DB	0c0H
	DB	0a0H
	DB	078H
	DB	00H
	DB	0c8H
	DB	0a4H
	DB	080H
	DB	00H
	DB	0c8H
	DB	0a0H
	DB	078H
	DB	00H
	DB	0c0H
	DB	0a4H
	DB	078H
	DB	00H
	DB	0c0H
	DB	0a0H
	DB	078H
	DB	00H
	DB	0c8H
	DB	0a0H
	DB	078H
	DB	00H
	DB	0c0H
	DB	0a4H
	DB	078H
	DB	00H
	DB	0c0H
	DB	0a0H
	DB	078H
	DB	00H
	DB	0c8H
	DB	0a0H
	DB	078H
	DB	00H
	DB	0c0H
	DB	0a4H
	DB	078H
	DB	00H
	DB	0c0H
	DB	0a0H
	DB	078H
	DB	00H
	DB	0c8H
	DB	0a4H
	DB	078H
	DB	00H
	DB	0c0H
	DB	0a0H
	DB	078H
	DB	00H
	DB	0c0H
	DB	0a0H
	DB	078H
	DB	00H
	DB	0c8H
	DB	0a4H
	DB	078H
	DB	00H
	DB	0c0H
	DB	0a0H
	DB	078H
	DB	00H
	DB	0c8H
	DB	0a0H
	DB	078H
	DB	00H
	DB	0c0H
	DB	0a0H
	DB	078H
	DB	00H
	DB	0c8H
	DB	0a0H
	DB	078H
	DB	00H
	DB	0c0H
	DB	0a0H
	DB	078H
	DB	00H
	DB	0c8H
	DB	0a0H
	DB	078H
	DB	00H
	DB	0c0H
	DB	0a4H
	DB	078H
	DB	00H
	DB	0c0H
	DB	0a0H
	DB	078H
	DB	00H
	DB	0c8H
	DB	0a4H
	DB	080H
	DB	00H
	DB	0c0H
	DB	0a0H
	DB	078H
	DB	00H
	DB	0c0H
	DB	0a0H
	DB	078H
	DB	00H
	DB	0c8H
	DB	0a0H
	DB	078H
	DB	00H
	DB	0c0H
	DB	0a4H
	DB	078H
	DB	00H
	DB	0c8H
	DB	0a0H
	DB	078H
	DB	00H
	DB	0c0H
	DB	0a0H
	DB	078H
	DB	00H
	DB	0c0H
	DB	0a4H
	DB	078H
	DB	00H
	DB	0c8H
	DB	0a0H
	DB	078H
	DB	00H
	DB	0c0H
	DB	0a0H
	DB	078H
	DB	00H
	DB	0c0H
	DB	0a0H
	DB	078H
	DB	00H
	DB	0c8H
	DB	0a0H
	DB	078H
	DB	00H
	DB	0c0H
	DB	0a4H
	DB	078H
	DB	00H
	DB	0c8H
	DB	0a0H
	DB	078H
	DB	00H
	DB	0c0H
	DB	0a0H
	DB	080H
	DB	00H
	DB	0c0H
	DB	0a0H
	DB	078H
	DB	00H
	DB	0c8H
	DB	0a0H
	DB	078H
	DB	00H
	DB	0c0H
	DB	0a0H
	DB	078H
	DB	00H
	DB	0c0H
	DB	0a0H
	DB	078H
	DB	00H
	DB	0c8H
	DB	0a0H
	DB	078H
	DB	00H
	DB	0c0H
	DB	0a4H
	DB	078H
	DB	00H
	DB	0c8H
	DB	0a0H
	DB	078H
	DB	00H
	DB	0c0H
	DB	0a4H
	DB	078H
	DB	00H
	DB	0c0H
	DB	0a0H
	DB	080H
	DB	00H
	DB	0c8H
	DB	0a0H
	DB	078H
	DB	00H
	DB	0c0H
	DB	0a0H
	DB	078H
	DB	00H
	DB	0c0H
	DB	0a0H
	DB	078H
	DB	00H
	DB	0c8H
	DB	0a0H
	DB	078H
	DB	00H
	DB	0c0H
	DB	0a0H
	DB	078H
	DB	00H
	DB	0c0H
	DB	0a0H
	DB	078H
	DB	00H
	DB	0c0H
	DB	0a4H
	DB	078H
	DB	00H
	DB	0c8H
	DB	0a0H
	DB	078H
	DB	00H
	DB	0c0H
	DB	0a0H
	DB	080H
	DB	00H
	DB	0c0H
	DB	0a4H
	DB	078H
	DB	00H
	DB	0c8H
	DB	0a0H
	DB	078H
	DB	00H
	DB	0c0H
	DB	0a0H
	DB	078H
	DB	00H
	DB	0c0H
	DB	0a0H
	DB	080H
	DB	00H
	DB	0c8H
	DB	0a0H
	DB	078H
	DB	00H
	DB	0c0H
	DB	0a4H
	DB	078H
	DB	00H
	DB	0c0H
	DB	0a0H
	DB	078H
	DB	00H
	DB	0c8H
	DB	0a0H
	DB	078H
	DB	00H
	DB	0c0H
	DB	0a4H
	DB	078H
	DB	00H
	DB	0c0H
	DB	0a0H
	DB	078H
	DB	00H
	DB	0c8H
	DB	0a0H
	DB	080H
	DB	00H
	DB	0c0H
	DB	0a0H
	DB	078H
	DB	00H
	DB	0c0H
	DB	0a0H
	DB	078H
	DB	00H
	DB	0c0H
	DB	0a0H
	DB	078H
	DB	00H
	DB	0c8H
	DB	0a0H
	DB	078H
	DB	00H
	DB	0c0H
	DB	0a0H
	DB	080H
	DB	0ffH
	DB	0c8H
	DB	0a0H
	DB	078H
	DB	0ffH
	DB	0c0H
	DB	0a0H
	DB	078H
	DB	0ffH
	DB	0c8H
	DB	0a4H
	DB	078H
	DB	0ffH
	DB	0c0H
	DB	0a0H
	DB	078H
	DB	00H
	DB	0c0H
	DB	0a0H
	DB	078H
	DB	00H
	DB	0c8H
	DB	0a0H
	DB	078H
	DB	00H
	DB	0c0H
	DB	0a0H
	DB	078H
	DB	00H
	DB	0c0H
	DB	0a0H
	DB	080H
	DB	00H
	DB	0c8H
	DB	0a0H
	DB	078H
	DB	00H
	DB	0c0H
	DB	0a0H
	DB	078H
	DB	00H
	DB	0c0H
	DB	0a4H
	DB	080H
	DB	00H
	DB	0c8H
	DB	0a0H
	DB	078H
	DB	00H
	DB	0c0H
	DB	0a0H
	DB	078H
	DB	00H
	DB	0c0H
	DB	0a4H
	DB	078H
	DB	00H
	DB	0c8H
	DB	0a0H
	DB	078H
	DB	00H
	DB	0c0H
	DB	0a0H
	DB	078H
	DB	00H
	DB	0c8H
	DB	0a4H
	DB	078H
	DB	00H
	DB	0c0H
	DB	0a0H
	DB	078H
	DB	00H
	DB	0c0H
	DB	0a4H
	DB	078H
	DB	00H
	DB	0c0H
	DB	0a4H
	DB	080H
	DB	00H
	DB	0c8H
	DB	0a0H
	DB	078H
	DB	00H
	DB	0c0H
	DB	0a0H
	DB	078H
	DB	00H
	DB	0c0H
	DB	0a0H
	DB	078H
	DB	00H
	DB	0c8H
	DB	0a0H
	DB	078H
	DB	00H
	DB	0c0H
	DB	0a4H
	DB	078H
	DB	00H
	DB	0c0H
	DB	0a0H
	DB	078H
	DB	00H
	DB	0c8H
	DB	0a4H
	DB	078H
	DB	00H
	DB	0c0H
	DB	0a4H
	DB	078H
	DB	00H
	DB	0c0H
	DB	0a0H
	DB	080H
	DB	00H
	DB	0c8H
	DB	0a4H
	DB	078H
	DB	00H
	DB	0c0H
	DB	0a0H
	DB	078H
	DB	00H
	DB	0c0H
	DB	0a0H
	DB	078H
	DB	00H
	DB	0c8H
	DB	0a0H
	DB	078H
	DB	00H
	DB	0c0H
	DB	0a0H
	DB	078H
	DB	00H
	DB	0c0H
	DB	0a0H
	DB	078H
	DB	00H
	DB	0c8H
	DB	0a0H
	DB	078H
	DB	00H
	DB	0c0H
	DB	0a0H
	DB	078H
	DB	00H
	DB	0c0H
	DB	0a4H
	DB	078H
	DB	00H
	DB	0c8H
	DB	0a0H
	DB	078H
	DB	00H
	DB	0c0H
	DB	0a0H
	DB	078H
	DB	00H
	DB	0c8H
	DB	0a0H
	DB	078H
	DB	00H
	DB	0c0H
	DB	0a0H
	DB	080H
	DB	00H
	DB	0c8H
	DB	0a0H
	DB	078H
	DB	0ffH
	DB	0c0H
	DB	0a0H
	DB	078H
	DB	0ffH
	DB	0c0H
	DB	0a0H
	DB	078H
	DB	0ffH
	DB	0c8H
	DB	0a4H
	DB	078H
	DB	0ffH
	DB	0c0H
	DB	0a0H
	DB	078H
	DB	00H
	DB	0c0H
	DB	0a0H
	DB	078H
	DB	00H
	DB	0c0H
	DB	0a0H
	DB	078H
	DB	00H
	DB	0c0H
	DB	0a4H
	DB	078H
	DB	00H
	DB	0c0H
	DB	0a0H
	DB	078H
	DB	0ffH
	DB	0c0H
	DB	0a0H
	DB	078H
	DB	0ffH
	DB	0c8H
	DB	0a0H
	DB	078H
	DB	0ffH
	DB	0c0H
	DB	0a0H
	DB	078H
	DB	0ffH
	DB	0c8H
	DB	0a4H
	DB	078H
	DB	00H
	DB	0c0H
	DB	0a0H
	DB	080H
	DB	00H
	DB	0c8H
	DB	0a4H
	DB	078H
	DB	00H
	DB	0c0H
	DB	0a0H
	DB	078H
	DB	00H
	DB	0c0H
	DB	0a4H
	DB	078H
	DB	00H
	DB	0c8H
	DB	0a0H
	DB	078H
	DB	00H
	DB	0c0H
	DB	0a0H
	DB	078H
	DB	00H
	DB	0c8H
	DB	0a0H
	DB	078H
	DB	00H
	DB	0c0H
	DB	0a4H
	DB	078H
	DB	00H
	DB	0c8H
	DB	0a0H
	DB	080H
	DB	00H
	DB	0c0H
	DB	0a0H
	DB	078H
	DB	00H
	DB	0c0H
	DB	0a0H
	DB	078H
	DB	00H
	DB	0c8H
	DB	0a0H
	DB	080H
	DB	00H
	DB	0c0H
	DB	0a0H
	DB	078H
	DB	00H
	DB	0c8H
	DB	0a0H
	DB	078H
	DB	00H
	DB	0c0H
	DB	0a0H
	DB	078H
	DB	00H
	DB	0c8H
	DB	0a0H
	DB	078H
	DB	00H
	DB	0c0H
	DB	0a4H
	DB	078H
	DB	00H
	DB	0c0H
	DB	0a0H
	DB	080H
	DB	00H
	DB	0c8H
	DB	0a0H
	DB	078H
	DB	00H
	DB	0c0H
	DB	0a0H
	DB	078H
	DB	00H
	DB	0c8H
	DB	0a0H
	DB	080H
	DB	00H
	DB	0c0H
	DB	0a0H
	DB	078H
	DB	00H
	DB	0c8H
	DB	0a0H
	DB	078H
	DB	00H
	DB	0c0H
	DB	0a0H
	DB	078H
	DB	00H
	DB	0c8H
	DB	0a0H
	DB	078H
	DB	00H
	DB	0c0H
	DB	0a0H
	DB	078H
	DB	00H
	DB	0c8H
	DB	0a4H
	DB	080H
	DB	00H
	DB	0c8H
	DB	0a0H
	DB	078H
	DB	00H
	DB	0c0H
	DB	0a4H
	DB	078H
	DB	00H
	DB	0c0H
	DB	0a0H
	DB	080H
	DB	00H
	DB	0c8H
	DB	0a4H
	DB	078H
	DB	00H
	DB	0c8H
	DB	0a0H
	DB	078H
	DB	00H
	DB	0c0H
	DB	0a0H
	DB	078H
	DB	00H
	DB	0c8H
	DB	0a4H
	DB	078H
	DB	00H
	DB	0c0H
	DB	0a0H
	DB	078H
	DB	00H
	DB	0c0H
	DB	0a0H
	DB	078H
	DB	00H
	DB	0c0H
	DB	0a4H
	DB	078H
	DB	00H
	DB	0c8H
	DB	0a0H
	DB	078H
	DB	00H
	DB	0c0H
	DB	0a4H
	DB	078H
	DB	0ffH
	DB	0c0H
	DB	0a0H
	DB	080H
	DB	0ffH
	DB	0c8H
	DB	0a0H
	DB	078H
	DB	0ffH
	DB	0c0H
	DB	0a4H
	DB	078H
	DB	0ffH
	DB	0c8H
	DB	0a0H
	DB	078H
	DB	00H
	DB	0c0H
	DB	0a0H
	DB	078H
	DB	00H
	DB	0c0H
	DB	0a0H
	DB	078H
	DB	00H
	DB	0c8H
	DB	0a0H
	DB	078H
	DB	00H
	DB	0c8H
	DB	0a4H
	DB	078H
	DB	0ffH
	DB	0c0H
	DB	0a4H
	DB	078H
	DB	0ffH
	DB	0c0H
	DB	0a0H
	DB	080H
	DB	0ffH
	DB	0c8H
	DB	0a0H
	DB	078H
	DB	0ffH
	DB	0c0H
	DB	0a0H
	DB	078H
	DB	00H
	DB	0c0H
	DB	0a0H
	DB	078H
	DB	00H
	DB	0c8H
	DB	0a0H
	DB	078H
	DB	00H
	DB	0c0H
	DB	0a4H
	DB	078H
	DB	00H
	DB	0c8H
	DB	0a0H
	DB	078H
	DB	00H
	DB	0c0H
	DB	0a0H
	DB	078H
	DB	00H
	DB	0c0H
	DB	0a4H
	DB	080H
	DB	00H
	DB	0c8H
	DB	0a0H
	DB	078H
	DB	00H
	DB	0c0H
	DB	0a0H
	DB	078H
	DB	00H
	DB	0c0H
	DB	0a0H
	DB	078H
	DB	00H
	DB	0c8H
	DB	0a4H
	DB	078H
	DB	00H
	DB	0c0H
	DB	0a0H
	DB	078H
	DB	00H
	DB	0c0H
	DB	0a4H
	DB	078H
	DB	00H
	DB	0c0H
	DB	0a0H
	DB	078H
	DB	00H
	DB	0c8H
	DB	0a0H
	DB	078H
	DB	00H
	DB	0c0H
	DB	0a0H
	DB	078H
	DB	00H
	DB	0c0H
	DB	0a0H
	DB	078H
	DB	00H
	DB	0c8H
	DB	0a0H
	DB	078H
	DB	00H
	DB	0c0H
	DB	0a4H
	DB	078H
	DB	00H
	DB	0c0H
	DB	0a4H
	DB	078H
	DB	00H
	DB	0c8H
	DB	0a0H
	DB	078H
	DB	00H
	DB	0c0H
	DB	0a0H
	DB	078H
	DB	00H
	DB	0c0H
	DB	0a4H
	DB	078H
	DB	00H
	DB	0c8H
	DB	0a0H
	DB	078H
	DB	00H
	DB	0c0H
	DB	0a0H
	DB	078H
	DB	00H
	DB	0c0H
	DB	0a0H
	DB	078H
	DB	00H
	DB	0c0H
	DB	0a0H
	DB	078H
	DB	00H
	DB	0c0H
	DB	0a0H
	DB	078H
	DB	00H
	DB	0c8H
	DB	0a0H
	DB	078H
	DB	00H
	DB	0c0H
	DB	0a0H
	DB	078H
	DB	00H
	DB	0c0H
	DB	0a4H
	DB	078H
	DB	00H
	DB	0c8H
	DB	0a0H
	DB	078H
	DB	00H
	DB	0c0H
	DB	0a0H
	DB	078H
	DB	00H
	DB	0c0H
	DB	0a0H
	DB	080H
	DB	00H
	DB	0c8H
	DB	0a0H
	DB	078H
	DB	00H
	DB	0c0H
	DB	0a0H
	DB	078H
	DB	00H
	DB	0c8H
	DB	0a4H
	DB	080H
	DB	00H
	DB	0c0H
	DB	0a0H
	DB	078H
	DB	00H
	DB	0c0H
	DB	0a0H
	DB	078H
	DB	00H
	DB	0c8H
	DB	0a0H
	DB	078H
	DB	0ffH
	DB	0c0H
	DB	0a4H
	DB	078H
	DB	0ffH
	DB	0c0H
	DB	0a0H
	DB	078H
	DB	0ffH
	DB	0c8H
	DB	0a0H
	DB	078H
	DB	0ffH
	DB	0c0H
	DB	0a0H
	DB	080H
	DB	00H
	DB	0c0H
	DB	0a0H
	DB	078H
	DB	00H
	DB	0c0H
	DB	0a0H
	DB	078H
	DB	00H
	DB	0c0H
	DB	0a0H
	DB	078H
	DB	00H
	DB	0c8H
	DB	0a0H
	DB	078H
	DB	0ffH
	DB	0c0H
	DB	0a0H
	DB	078H
	DB	0ffH
	DB	0c0H
	DB	0a4H
	DB	078H
	DB	0ffH
	DB	0c8H
	DB	0a0H
	DB	078H
	DB	0ffH
	DB	0c0H
	DB	0a0H
	DB	078H
	DB	00H
	DB	0c0H
	DB	0a4H
	DB	078H
	DB	00H
	DB	0c8H
	DB	0a0H
	DB	078H
	DB	00H
	DB	0c0H
	DB	0a0H
	DB	080H
	DB	00H
	DB	0c0H
	DB	0a0H
	DB	078H
	DB	00H
	DB	0c8H
	DB	0a0H
	DB	078H
	DB	00H
	DB	0c0H
	DB	0a0H
	DB	078H
	DB	00H
	DB	0c0H
	DB	0a4H
	DB	078H
	DB	00H
	DB	0c8H
	DB	0a0H
	DB	078H
	DB	00H
	DB	0c0H
	DB	0a0H
	DB	078H
	DB	00H
	DB	0c8H
	DB	0a0H
	DB	078H
	DB	0c3H
	DB	0c8H
	DB	0a4H
	DB	078H
	DB	0ffH
	DB	0c0H
	DB	0a0H
	DB	078H
	DB	0ffH
	DB	0c8H
	DB	0a4H
	DB	078H
	DB	0ffH
	DB	0c0H
	DB	0a4H
	DB	080H
	DB	0c3H
	DB	0c0H
	DB	0a0H
	DB	078H
	DB	00H
	DB	0c8H
	DB	0a4H
	DB	078H
	DB	00H
	DB	0c8H
	DB	0a0H
	DB	080H
	DB	0c3H
	DB	0c0H
	DB	0a0H
	DB	078H
	DB	0ffH
	DB	0c0H
	DB	0a0H
	DB	078H
	DB	0ffH
	DB	0c8H
	DB	0a0H
	DB	078H
	DB	0ffH
	DB	0c0H
	DB	0a4H
	DB	078H
	DB	0c3H
	DB	0c0H
	DB	0a0H
	DB	078H
	DB	00H
	DB	0c8H
	DB	0a0H
	DB	080H
	DB	00H
	DB	0c0H
	DB	0a4H
	DB	078H
	DB	0c3H
	DB	0c8H
	DB	0a4H
	DB	078H
	DB	0ffH
	DB	0c8H
	DB	0a0H
	DB	080H
	DB	0ffH
	DB	0c0H
	DB	0a4H
	DB	078H
	DB	0ffH
	DB	0c0H
	DB	0a0H
	DB	078H
	DB	0c3H
	DB	0c8H
	DB	0a0H
	DB	078H
	DB	00H
	DB	0c0H
	DB	0a0H
	DB	078H
	DB	00H
	DB	0c0H
	DB	0a0H
	DB	078H
	DB	0c3H
	DB	0c0H
	DB	0a4H
	DB	078H
	DB	0ffH
	DB	0c8H
	DB	0a0H
	DB	078H
	DB	0ffH
	DB	0c0H
	DB	0a0H
	DB	078H
	DB	0ffH
	DB	0c0H
	DB	0a4H
	DB	078H
	DB	0c3H
	DB	0c8H
	DB	0a0H
	DB	078H
	DB	00H
	DB	0c0H
	DB	0a0H
	DB	078H
	DB	00H
	DB	0c8H
	DB	0a0H
	DB	078H
	DB	00H
	DB	0c0H
	DB	0a0H
	DB	078H
	DB	0ffH
	DB	0c8H
	DB	0a0H
	DB	078H
	DB	0ffH
	DB	0c0H
	DB	0a4H
	DB	078H
	DB	0ffH
	DB	0c0H
	DB	0a0H
	DB	078H
	DB	0ffH
	DB	0c8H
	DB	0a0H
	DB	078H
	DB	00H
	DB	0c0H
	DB	0a4H
	DB	078H
	DB	00H
	DB	0c0H
	DB	0a0H
	DB	078H
	DB	00H
	DB	0c0H
	DB	0a0H
	DB	078H
	DB	00H
	DB	0c8H
	DB	0a0H
	DB	078H
	DB	0ffH
	DB	0c0H
	DB	0a0H
	DB	078H
	DB	0ffH
	DB	0c0H
	DB	0a0H
	DB	078H
	DB	0ffH
	DB	0c8H
	DB	0a4H
	DB	078H
	DB	0ffH
	DB	0c0H
	DB	0a0H
	DB	080H
	DB	00H
	DB	0c0H
	DB	0a0H
	DB	078H
	DB	00H
	DB	0c8H
	DB	0a4H
	DB	078H
	DB	00H
	DB	0c0H
	DB	0a0H
	DB	078H
	DB	00H
	DB	0c0H
	DB	0a0H
	DB	078H
	DB	00H
	DB	0c8H
	DB	0a4H
	DB	078H
	DB	00H
	DB	0c0H
	DB	0a0H
	DB	078H
	DB	00H
	DB	0c8H
	DB	0a0H
	DB	078H
	DB	00H
	DB	0c0H
	DB	0a4H
	DB	080H
	DB	00H
	DB	0c0H
	DB	0a0H
	DB	078H
	DB	00H
	DB	0c0H
	DB	0a0H
	DB	078H
	DB	0ffH
	DB	0c0H
	DB	0a0H
	DB	080H
	DB	0ffH
	DB	0c8H
	DB	0a0H
	DB	078H
	DB	0ffH
	DB	0c0H
	DB	0a0H
	DB	078H
	DB	0ffH
	DB	0c0H
	DB	0a0H
	DB	078H
	DB	0ffH
	DB	0c8H
	DB	0a0H
	DB	078H
	DB	00H
	DB	0c0H
	DB	0a0H
	DB	078H
	DB	00H
	DB	0c0H
	DB	0a0H
	DB	078H
	DB	0ffH
	DB	0c8H
	DB	0a0H
	DB	078H
	DB	0ffH
	DB	0c0H
	DB	0a0H
	DB	078H
	DB	0ffH
	DB	0c8H
	DB	0a4H
	DB	080H
	DB	0ffH
	DB	0c0H
	DB	0a0H
	DB	078H
	DB	0ffH
	DB	0c8H
	DB	0a0H
	DB	078H
	DB	00H
	DB	0c0H
	DB	0a0H
	DB	078H
	DB	00H
	DB	0c0H
	DB	0a0H
	DB	078H
	DB	0ffH
	DB	0c8H
	DB	0a0H
	DB	078H
	DB	0ffH
	DB	0c0H
	DB	0a0H
	DB	078H
	DB	0ffH
	DB	0c0H
	DB	0a0H
	DB	078H
	DB	0ffH
	DB	0c8H
	DB	0a4H
	DB	078H
	DB	0ffH
	DB	0c0H
	DB	0a0H
	DB	080H
	DB	00H
	DB	0c8H
	DB	0a0H
	DB	078H
	DB	00H
	DB	0c0H
	DB	0a4H
	DB	078H
	DB	0ffH
	DB	0c8H
	DB	0a0H
	DB	080H
	DB	0ffH
	DB	0c0H
	DB	0a0H
	DB	078H
	DB	0ffH
	DB	0c0H
	DB	0a4H
	DB	078H
	DB	0ffH
	DB	0c8H
	DB	0a0H
	DB	078H
	DB	0ffH
	DB	0c0H
	DB	0a0H
	DB	078H
	DB	00H
	DB	0c0H
	DB	0a4H
	DB	080H
	DB	00H
	DB	0c8H
	DB	0a0H
	DB	078H
	DB	00H
	DB	0c0H
	DB	0a0H
	DB	078H
	DB	0ffH
	DB	0c0H
	DB	0a4H
	DB	080H
	DB	0ffH
	DB	0c8H
	DB	0a0H
	DB	078H
	DB	0ffH
	DB	0c0H
	DB	0a0H
	DB	078H
	DB	0ffH
	DB	0c8H
	DB	0a0H
	DB	078H
	DB	00H
	DB	0c0H
	DB	0a0H
	DB	078H
	DB	00H
	DB	0c0H
	DB	0a0H
	DB	078H
	DB	00H
	DB	0c8H
	DB	0a4H
	DB	078H
	DB	00H
	DB	0c0H
	DB	0a0H
	DB	080H
	DB	0ffH
	DB	0c8H
	DB	0a0H
	DB	078H
	DB	0ffH
	DB	0c0H
	DB	0a4H
	DB	078H
	DB	0ffH
	DB	0c8H
	DB	0a0H
	DB	078H
	DB	0ffH
	DB	0c0H
	DB	0a0H
	DB	078H
	DB	00H
	DB	0c8H
	DB	0a0H
	DB	078H
	DB	00H
	DB	0c0H
	DB	0a0H
	DB	078H
	DB	00H
	DB	0c8H
	DB	0a0H
	DB	078H
	DB	00H
	DB	0c0H
	DB	0a4H
	DB	078H
	DB	00H
	DB	0c0H
	DB	0a0H
	DB	080H
	DB	00H
	DB	0c8H
	DB	0a0H
	DB	078H
	DB	00H
	DB	0c0H
	DB	0a0H
	DB	078H
	DB	00H
	DB	0c8H
	DB	0a0H
	DB	078H
	DB	00H
	DB	0c0H
	DB	0a4H
	DB	078H
	DB	00H
	DB	0c0H
	DB	0a0H
	DB	078H
	DB	0ffH
	DB	0c8H
	DB	0a0H
	DB	078H
	DB	0ffH
	DB	0c0H
	DB	0a0H
	DB	078H
	DB	0ffH
	DB	0c0H
	DB	0a0H
	DB	078H
	DB	0ffH
	DB	0c8H
	DB	0a0H
	DB	078H
	DB	0ffH
	DB	0c0H
	DB	0a4H
	DB	078H
	DB	00H
	DB	0c0H
	DB	0a0H
	DB	078H
	DB	00H
	DB	0c8H
	DB	0a4H
	DB	078H
	DB	0ffH
	DB	0c0H
	DB	0a0H
	DB	078H
	DB	0ffH
	DB	0c0H
	DB	0a0H
	DB	078H
	DB	0ffH
	DB	0c0H
	DB	0a0H
	DB	078H
	DB	0ffH
	DB	0c8H
	DB	0a0H
	DB	078H
	DB	0ffH
	DB	0c0H
	DB	0a4H
	DB	078H
	DB	00H
	DB	0c0H
	DB	0a0H
	DB	078H
	DB	00H
	DB	0c8H
	DB	0a0H
	DB	078H
	DB	0ffH
	DB	0c0H
	DB	0a4H
	DB	078H
	DB	0ffH
	DB	0c0H
	DB	0a0H
	DB	078H
	DB	0ffH
	DB	0c8H
	DB	0a0H
	DB	078H
	DB	0ffH
	DB	0c0H
	DB	0a0H
	DB	078H
	DB	0ffH
	DB	0c0H
	DB	0a4H
	DB	078H
	DB	00H
	DB	0c8H
	DB	0a0H
	DB	078H
	DB	00H
	DB	0c0H
	DB	0a0H
	DB	078H
	DB	0ffH
	DB	0c0H
	DB	0a0H
	DB	078H
	DB	0ffH
	DB	0c8H
	DB	0a0H
	DB	078H
	DB	0ffH
	DB	0c0H
	DB	0a0H
	DB	080H
	DB	0ffH
	DB	0c8H
	DB	0a0H
	DB	078H
	DB	0ffH
	DB	0c0H
	DB	0a0H
	DB	078H
	DB	00H
	DB	0c0H
	DB	0a4H
	DB	078H
	DB	00H
	DB	0c8H
	DB	0a0H
	DB	078H
	DB	00H
	DB	0c0H
	DB	0a0H
	DB	078H
	DB	0ffH
	DB	0c0H
	DB	0a0H
	DB	078H
	DB	0ffH
	DB	0c8H
	DB	0a0H
	DB	078H
	DB	0ffH
	DB	0c0H
	DB	0a4H
	DB	078H
	DB	0ffH
	DB	0c0H
	DB	0a0H
	DB	078H
	DB	00H
	DB	0c8H
	DB	0a0H
	DB	078H
	DB	00H
	DB	0c0H
	DB	0a0H
	DB	078H
	DB	00H
	DB	0c8H
	DB	0a0H
	DB	078H
	DB	00H
	DB	0c0H
	DB	0a4H
	DB	078H
	DB	0ffH
	DB	0c0H
	DB	0a0H
	DB	078H
	DB	0ffH
	DB	0c8H
	DB	0a0H
	DB	078H
	DB	0ffH
	DB	0c0H
	DB	0a0H
	DB	080H
	DB	0ffH
	DB	0c0H
	DB	0a4H
	DB	078H
	DB	00H
	DB	0c0H
	DB	0a0H
	DB	078H
	DB	00H
	DB	0c8H
	DB	0a0H
	DB	080H
	DB	00H
	DB	0c0H
	DB	0a4H
	DB	078H
	DB	00H
	DB	0c8H
	DB	0a0H
	DB	078H
	DB	00H
	DB	0c0H
	DB	0a0H
	DB	078H
	DB	00H
	DB	0c0H
	DB	0a4H
	DB	078H
	DB	00H
	DB	0c8H
	DB	0a0H
	DB	078H
	DB	00H
	DB	0c0H
	DB	0a0H
	DB	078H
	DB	00H
	DB	0c8H
	DB	0a0H
	DB	078H
	DB	00H
	DB	0c8H
	DB	0a4H
	DB	078H
	DB	0ffH
	DB	0c0H
	DB	0a0H
	DB	078H
	DB	0ffH
	DB	0c0H
	DB	0a4H
	DB	080H
	DB	0ffH
	DB	0c8H
	DB	0a0H
	DB	078H
	DB	0ffH
	DB	0c0H
	DB	0a4H
	DB	078H
	DB	0ffH
	DB	0c0H
	DB	0a0H
	DB	080H
	DB	00H
	DB	0c8H
	DB	0a0H
	DB	078H
	DB	00H
	DB	0c0H
	DB	0a4H
	DB	078H
	DB	0ffH
	DB	0c8H
	DB	0a0H
	DB	080H
	DB	0ffH
	DB	0c0H
	DB	0a4H
	DB	078H
	DB	0ffH
	DB	0c8H
	DB	0a0H
	DB	078H
	DB	0ffH
	DB	0c0H
	DB	0a0H
	DB	078H
	DB	0ffH
	DB	0c0H
	DB	0a4H
	DB	080H
	DB	00H
	DB	0c8H
	DB	0a0H
	DB	078H
	DB	00H
	DB	0c0H
	DB	0a0H
	DB	078H
	DB	0ffH
	DB	0c0H
	DB	0a4H
	DB	080H
	DB	0ffH
	DB	0c8H
	DB	0a0H
	DB	078H
	DB	0ffH
	DB	0c0H
	DB	0a0H
	DB	078H
	DB	0ffH
	DB	0c0H
	DB	0a0H
	DB	080H
	DB	0ffH
	DB	0c8H
	DB	0a0H
	DB	078H
	DB	00H
	DB	0c0H
	DB	0a4H
	DB	078H
	DB	00H
	DB	0c0H
	DB	0a0H
	DB	078H
	DB	0ffH
	DB	0c8H
	DB	0a4H
	DB	078H
	DB	0ffH
	DB	0c0H
	DB	0a0H
	DB	078H
	DB	0ffH
	DB	0c0H
	DB	0a4H
	DB	078H
	DB	0ffH
	DB	0c8H
	DB	0a0H
	DB	078H
	DB	0ffH
	DB	0c0H
	DB	0a0H
	DB	078H
	DB	00H
	DB	0c0H
	DB	0a0H
	DB	078H
	DB	00H
	DB	0c8H
	DB	0a4H
	DB	078H
	DB	00H
	DB	0c0H
	DB	0a0H
	DB	078H
	DB	0ffH
	DB	0c8H
	DB	0a0H
	DB	078H
	DB	0ffH
	DB	0c0H
	DB	0a4H
	DB	080H
	DB	0ffH
	DB	0c0H
	DB	0a0H
	DB	078H
	DB	0ffH
	DB	0c8H
	DB	0a0H
	DB	078H
	DB	00H
	DB	0c0H
	DB	0a0H
	DB	078H
	DB	00H
	DB	0c0H
	DB	0a0H
	DB	078H
	DB	00H
	DB	0c0H
	DB	0a0H
	DB	078H
	DB	00H
	DB	0c8H
	DB	0a0H
	DB	078H
	DB	0ffH
	DB	0c0H
	DB	0a0H
	DB	078H
	DB	0ffH
	DB	0c0H
	DB	0a0H
	DB	078H
	DB	0ffH
	DB	0c8H
	DB	0a4H
	DB	078H
	DB	0ffH
	DB	0c0H
	DB	0a0H
	DB	078H
	DB	00H
	DB	0c8H
	DB	0a0H
	DB	078H
	DB	00H
	DB	0c0H
	DB	0a4H
	DB	078H
	DB	00H
	DB	0c0H
	DB	0a0H
	DB	078H
	DB	00H
	DB	0c8H
	DB	0a0H
	DB	078H
	DB	00H
	DB	0c0H
	DB	0a0H
	DB	078H
	DB	00H
	DB	0c0H
	DB	0a0H
	DB	078H
	DB	00H
	DB	0c8H
	DB	0a4H
	DB	080H
	DB	00H
	DB	0c0H
	DB	0a0H
	DB	078H
	DB	00H
	DB	0c0H
	DB	0a0H
	DB	078H
	DB	00H
	DB	0c0H
	DB	0a0H
	DB	080H
	DB	0c3H
	DB	0c8H
	DB	0a0H
	DB	078H
	DB	0ffH
	DB	0c0H
	DB	0a0H
	DB	078H
	DB	0ffH
	DB	0c8H
	DB	0a4H
	DB	078H
	DB	0ffH
	DB	0c0H
	DB	0a0H
	DB	078H
	DB	0c3H
	DB	0c8H
	DB	0a0H
	DB	078H
	DB	00H
	DB	0c0H
	DB	0a0H
	DB	078H
	DB	00H
	DB	0c0H
	DB	0a0H
	DB	078H
	DB	0c3H
	DB	0c8H
	DB	0a0H
	DB	078H
	DB	0ffH
	DB	0c0H
	DB	0a0H
	DB	078H
	DB	0ffH
	DB	0c0H
	DB	0a4H
	DB	078H
	DB	0ffH
	DB	0c8H
	DB	0a0H
	DB	078H
	DB	0c3H
	DB	0c0H
	DB	0a0H
	DB	078H
	DB	00H
	DB	0c8H
	DB	0a0H
	DB	078H
	DB	00H
	DB	0c0H
	DB	0a0H
	DB	078H
	DB	0c3H
	DB	0c8H
	DB	0a0H
	DB	078H
	DB	0ffH
	DB	0c0H
	DB	0a4H
	DB	078H
	DB	0ffH
	DB	0c0H
	DB	0a0H
	DB	078H
	DB	0ffH
	DB	0c8H
	DB	0a0H
	DB	078H
	DB	0c3H
	DB	0c8H
	DB	0a4H
	DB	078H
	DB	00H
	DB	0c0H
	DB	0a0H
	DB	078H
	DB	00H
	DB	0c0H
	DB	0a0H
	DB	080H
	DB	0c3H
	DB	0c8H
	DB	0a0H
	DB	078H
	DB	0ffH
	DB	0c0H
	DB	0a0H
	DB	078H
	DB	0ffH
	DB	0c0H
	DB	0a0H
	DB	078H
	DB	0ffH
	DB	0c8H
	DB	0a4H
	DB	078H
	DB	0c3H
	DB	0c0H
	DB	0a0H
	DB	080H
	DB	00H
	DB	0c8H
	DB	0a0H
	DB	078H
	DB	00H
	DB	0c0H
	DB	0a0H
	DB	078H
	DB	00H
	DB	0c0H
	DB	0a4H
	DB	080H
	DB	0ffH
	DB	0c8H
	DB	0a0H
	DB	078H
	DB	0ffH
	DB	0c0H
	DB	0a0H
	DB	078H
	DB	0ffH
	DB	0c8H
	DB	0a0H
	DB	078H
	DB	0ffH
	DB	0c0H
	DB	0a4H
	DB	078H
	DB	00H
	DB	0c0H
	DB	0a0H
	DB	078H
	DB	00H
	DB	0c0H
	DB	0a0H
	DB	078H
	DB	00H
	DB	0c8H
	DB	0a0H
	DB	078H
	DB	00H
	DB	0c0H
	DB	0a4H
	DB	078H
	DB	0ffH
	DB	0c8H
	DB	0a0H
	DB	080H
	DB	0ffH
	DB	0c0H
	DB	0a0H
	DB	078H
	DB	0ffH
	DB	0c0H
	DB	0a4H
	DB	078H
	DB	0ffH
	DB	0c8H
	DB	0a0H
	DB	078H
	DB	00H
	DB	0c0H
	DB	0a0H
	DB	078H
	DB	00H
	DB	0c0H
	DB	0a0H
	DB	078H
	DB	00H
	DB	0c8H
	DB	0a0H
	DB	078H
	DB	00H
	DB	0c0H
	DB	0a4H
	DB	080H
	DB	00H
	DB	0c0H
	DB	0a0H
	DB	078H
	DB	00H
	DB	0c8H
	DB	0a0H
	DB	078H
	DB	00H
	DB	0c0H
	DB	0a0H
	DB	078H
	DB	00H
	DB	0c0H
	DB	0a4H
	DB	078H
	DB	00H
	DB	0c8H
	DB	0a0H
	DB	078H
	DB	00H
	DB	0c0H
	DB	0a0H
	DB	078H
	DB	00H
	DB	0c0H
	DB	0a4H
	DB	078H
	DB	00H
	DB	0c8H
	DB	0a0H
	DB	078H
	DB	00H
	DB	0c0H
	DB	0a0H
	DB	078H
	DB	00H
	DB	0c0H
	DB	0a0H
	DB	078H
	DB	00H
	DB	0c8H
	DB	0a0H
	DB	078H
	DB	00H
	DB	0c0H
	DB	0a4H
	DB	078H
	DB	00H
	DB	0c0H
	DB	0a0H
	DB	080H
	DB	00H
	DB	0c8H
	DB	0a0H
	DB	078H
	DB	00H
	DB	0c0H
	DB	0a0H
	DB	078H
	DB	00H
	DB	0c0H
	DB	0a0H
	DB	080H
	DB	00H
	DB	0c8H
	DB	0a4H
	DB	078H
	DB	00H
	DB	0c0H
	DB	0a0H
	DB	078H
	DB	00H
	DB	0c0H
	DB	0a0H
	DB	078H
	DB	00H
	DB	0c8H
	DB	0a4H
	DB	078H
	DB	00H
	DB	0c0H
	DB	0a0H
	DB	078H
	DB	00H
	DB	0c8H
	DB	0a0H
	DB	078H
	DB	00H
	DB	0c0H
	DB	0a4H
	DB	078H
	DB	00H
	DB	0c0H
	DB	0a0H
	DB	078H
	DB	00H
	DB	0c0H
	DB	0a0H
	DB	078H
	DB	00H
	DB	0c8H
	DB	0a0H
	DB	078H
	DB	00H
	DB	0c0H
	DB	0a0H
	DB	078H
	DB	00H
	DB	0c8H
	DB	0a4H
	DB	078H
	DB	00H
	DB	0c0H
	DB	0a0H
	DB	078H
	DB	00H
	DB	0c8H
	DB	0a0H
	DB	078H
	DB	00H
	DB	0c0H
	DB	0a0H
	DB	078H
	DB	00H
	DB	0c0H
	DB	0a4H
	DB	078H
	DB	00H
	DB	0c8H
	DB	0a0H
	DB	078H
	DB	00H
	DB	0c0H
	DB	0a0H
	DB	078H
	DB	00H
	DB	0c0H
	DB	0a0H
	DB	078H
	DB	0ffH
	DB	0c8H
	DB	0a4H
	DB	078H
	DB	0ffH
	DB	0c0H
	DB	0a0H
	DB	078H
	DB	0ffH
	DB	0c0H
	DB	0a0H
	DB	078H
	DB	0ffH
	DB	0c8H
	DB	0a0H
	DB	078H
	DB	00H
	DB	0c0H
	DB	0a0H
	DB	078H
	DB	00H
	DB	0c0H
	DB	0a0H
	DB	078H
	DB	00H
	DB	0c0H
	DB	0a0H
	DB	078H
	DB	00H
	DB	0c8H
	DB	0a4H
	DB	078H
	DB	0ffH
	DB	0c0H
	DB	0a0H
	DB	078H
	DB	0ffH
	DB	0c8H
	DB	0a0H
	DB	078H
	DB	0ffH
	DB	0c0H
	DB	0a0H
	DB	078H
	DB	0ffH
	DB	0c0H
	DB	0a0H
	DB	080H
	DB	00H
	DB	0c8H
	DB	0a4H
	DB	078H
	DB	00H
	DB	0c0H
	DB	0a0H
	DB	078H
	DB	00H
	DB	0c8H
	DB	0a0H
	DB	078H
	DB	00H
	DB	0c0H
	DB	0a0H
	DB	078H
	DB	00H
	DB	0c8H
	DB	0a4H
	DB	078H
	DB	00H
	DB	0c0H
	DB	0a0H
	DB	078H
	DB	00H
	DB	0c0H
	DB	0a0H
	DB	078H
	DB	00H
	DB	0c8H
	DB	0a0H
	DB	078H
	DB	00H
	DB	0c8H
	DB	0a4H
	DB	078H
	DB	00H
	DB	0c0H
	DB	0a0H
	DB	078H
	DB	00H
	DB	0c0H
	DB	0a0H
	DB	078H
	DB	00H
	DB	0c8H
	DB	0a4H
	DB	080H
	DB	00H
	DB	0c0H
	DB	0a0H
	DB	078H
	DB	00H
	DB	0c0H
	DB	0a0H
	DB	078H
	DB	00H
	DB	0c8H
	DB	0a4H
	DB	080H
	DB	00H
	DB	0c0H
	DB	0a0H
	DB	078H
	DB	00H
	DB	0c8H
	DB	0a0H
	DB	078H
	DB	00H
	DB	0c0H
	DB	0a4H
	DB	078H
	DB	00H
	DB	0c8H
	DB	0a0H
	DB	078H
	DB	00H
	DB	0c0H
	DB	0a0H
	DB	078H
	DB	00H
	DB	0c0H
	DB	0a0H
	DB	078H
	DB	00H
	DB	0c8H
	DB	0a4H
	DB	078H
	DB	00H
	DB	0c0H
	DB	0a0H
	DB	080H
	DB	00H
	DB	0c0H
	DB	0a0H
	DB	078H
	DB	00H
	DB	0c8H
	DB	0a0H
	DB	078H
	DB	00H
	DB	0c0H
	DB	0a0H
	DB	080H
	DB	00H
	DB	0c8H
	DB	0a0H
	DB	078H
	DB	00H
	DB	0c0H
	DB	0a4H
	DB	078H
	DB	00H
	DB	0c0H
	DB	0a0H
	DB	080H
	DB	00H
	DB	0c8H
	DB	0a0H
	DB	078H
	DB	00H
	DB	0c0H
	DB	0a4H
	DB	078H
	DB	00H
	DB	0c0H
	DB	0a0H
	DB	078H
	DB	00H
	DB	0c8H
	DB	0a0H
	DB	080H
	DB	00H
	DB	0c0H
	DB	0a4H
	DB	078H
	DB	00H
	DB	0c0H
	DB	0a0H
	DB	078H
	DB	00H
	DB	0c8H
	DB	0a0H
	DB	078H
	DB	00H
	DB	0c0H
	DB	0a4H
	DB	078H
	DB	00H
	DB	0c8H
	DB	0a0H
	DB	078H
	DB	00H
	DB	0c0H
	DB	0a0H
	DB	078H
	DB	0ffH
	DB	0c0H
	DB	0a0H
	DB	078H
	DB	0ffH
	DB	0c8H
	DB	0a4H
	DB	080H
	DB	0ffH
	DB	0c0H
	DB	0a0H
	DB	078H
	DB	0ffH
	DB	0c0H
	DB	0a0H
	DB	078H
	DB	00H
	DB	0c8H
	DB	0a0H
	DB	078H
	DB	00H
	DB	0c0H
	DB	0a0H
	DB	078H
	DB	00H
	DB	0c8H
	DB	0a0H
	DB	078H
	DB	00H
	DB	0c0H
	DB	0a0H
	DB	078H
	DB	0ffH
	DB	0c0H
	DB	0a4H
	DB	078H
	DB	0ffH
	DB	0c8H
	DB	0a0H
	DB	078H
	DB	0ffH
	DB	0c0H
	DB	0a0H
	DB	078H
	DB	0ffH
	DB	0c8H
	DB	0a4H
	DB	078H
	DB	00H
	DB	0c0H
	DB	0a0H
	DB	078H
	DB	00H
	DB	0c0H
	DB	0a0H
	DB	078H
	DB	00H
	DB	0c0H
	DB	0a4H
	DB	080H
	DB	0c3H
	DB	0c8H
	DB	0a0H
	DB	078H
	DB	0ffH
	DB	0c0H
	DB	0a0H
	DB	078H
	DB	0ffH
	DB	0c8H
	DB	0a4H
	DB	080H
	DB	0ffH
	DB	0c0H
	DB	0a0H
	DB	078H
	DB	0c3H
	DB	0c0H
	DB	0a0H
	DB	078H
	DB	00H
	DB	0c0H
	DB	0a0H
	DB	080H
	DB	00H
	DB	0c8H
	DB	0a0H
	DB	078H
	DB	0c3H
	DB	0c0H
	DB	0a0H
	DB	078H
	DB	0ffH
	DB	0c0H
	DB	0a0H
	DB	078H
	DB	0ffH
	DB	0c8H
	DB	0a0H
	DB	078H
	DB	0ffH
	DB	0c0H
	DB	0a4H
	DB	078H
	DB	0c3H
	DB	0c0H
	DB	0a0H
	DB	078H
	DB	00H
	DB	0c8H
	DB	0a0H
	DB	078H
	DB	00H
	DB	0c0H
	DB	0a0H
	DB	078H
	DB	0c3H
	DB	0c0H
	DB	0a4H
	DB	078H
	DB	0ffH
	DB	0c8H
	DB	0a0H
	DB	078H
	DB	0ffH
	DB	0c0H
	DB	0a0H
	DB	078H
	DB	0ffH
	DB	0c8H
	DB	0a0H
	DB	078H
	DB	0c3H
	DB	0c0H
	DB	0a0H
	DB	078H
	DB	00H
	DB	0c0H
	DB	0a4H
	DB	078H
	DB	00H
	DB	0c8H
	DB	0a0H
	DB	078H
	DB	0c3H
	DB	0c0H
	DB	0a4H
	DB	078H
	DB	0ffH
	DB	0c0H
	DB	0a0H
	DB	078H
	DB	0ffH
	DB	0c8H
	DB	0a0H
	DB	078H
	DB	0ffH
	DB	0c0H
	DB	0a0H
	DB	078H
	DB	0c3H
	DB	0c8H
	DB	0a4H
	DB	078H
	DB	00H
	DB	0c0H
	DB	0a0H
	DB	078H
	DB	00H
	DB	0c0H
	DB	0a0H
	DB	078H
	DB	0c3H
	DB	0c8H
	DB	0a0H
	DB	078H
	DB	0ffH
	DB	0c0H
	DB	0a0H
	DB	078H
	DB	0ffH
	DB	0c0H
	DB	0a4H
	DB	078H
	DB	0ffH
	DB	0c8H
	DB	0a0H
	DB	080H
	DB	0c3H
	DB	0c0H
	DB	0a0H
	DB	078H
	DB	00H
	DB	0c0H
	DB	0a0H
	DB	078H
	DB	00H
	DB	0c8H
	DB	0a4H
	DB	080H
	DB	00H
	DB	0c0H
	DB	0a0H
	DB	078H
	DB	0ffH
	DB	0c0H
	DB	0a0H
	DB	078H
	DB	0ffH
	DB	0c8H
	DB	0a0H
	DB	078H
	DB	0ffH
	DB	0c0H
	DB	0a4H
	DB	078H
	DB	0ffH
	DB	0c0H
	DB	0a0H
	DB	078H
	DB	00H
	DB	0c8H
	DB	0a0H
	DB	078H
	DB	00H
	DB	0c0H
	DB	0a0H
	DB	078H
	DB	00H
	DB	0c8H
	DB	0a0H
	DB	078H
	DB	00H
	DB	0c0H
	DB	0a0H
	DB	078H
	DB	0ffH
	DB	0c0H
	DB	0a0H
	DB	080H
	DB	0ffH
	DB	0c8H
	DB	0a4H
	DB	078H
	DB	0ffH
	DB	0c0H
	DB	0a0H
	DB	078H
	DB	0ffH
	DB	0c0H
	DB	0a0H
	DB	078H
	DB	00H
	DB	0c8H
	DB	0a0H
	DB	078H
	DB	00H
	DB	0c0H
	DB	0a0H
	DB	078H
	DB	00H
	DB	0c8H
	DB	0a0H
	DB	078H
	DB	0ffH
	DB	0c0H
	DB	0a0H
	DB	078H
	DB	0ffH
	DB	0c0H
	DB	0a0H
	DB	078H
	DB	0ffH
	DB	0c8H
	DB	0a0H
	DB	078H
	DB	0ffH
	DB	0c8H
	DB	0a4H
	DB	078H
	DB	0ffH
	DB	0c0H
	DB	0a0H
	DB	078H
	DB	00H
	DB	0c0H
	DB	0a0H
	DB	078H
	DB	00H
	DB	0c8H
	DB	0a4H
	DB	078H
	DB	0ffH
	DB	0c0H
	DB	0a4H
	DB	078H
	DB	0ffH
	DB	0c8H
	DB	0a0H
	DB	078H
	DB	0ffH
	DB	0c0H
	DB	0a0H
	DB	078H
	DB	0ffH
	DB	0c8H
	DB	0a0H
	DB	078H
	DB	0ffH
	DB	0c0H
	DB	0a0H
	DB	078H
	DB	00H
	DB	0c0H
	DB	0a0H
	DB	078H
	DB	00H
	DB	0c8H
	DB	0a4H
	DB	078H
	DB	0ffH
	DB	0c0H
	DB	0a0H
	DB	080H
	DB	0ffH
	DB	0c0H
	DB	0a0H
	DB	078H
	DB	0ffH
	DB	0c8H
	DB	0a4H
	DB	078H
	DB	0ffH
	DB	0c0H
	DB	0a0H
	DB	080H
	DB	0ffH
	DB	0c0H
	DB	0a0H
	DB	078H
	DB	00H
	DB	0c8H
	DB	0a0H
	DB	078H
	DB	00H
	DB	0c0H
	DB	0a0H
	DB	078H
	DB	0ffH
	DB	0c0H
	DB	0a0H
	DB	080H
	DB	0ffH
	DB	0c8H
	DB	0a4H
	DB	078H
	DB	0ffH
	DB	0c0H
	DB	0a0H
	DB	078H
	DB	0ffH
	DB	0c0H
	DB	0a0H
	DB	078H
	DB	0ffH
	DB	0c8H
	DB	0a0H
	DB	078H
	DB	00H
	DB	0c0H
	DB	0a4H
	DB	080H
	DB	00H
	DB	0c8H
	DB	0a0H
	DB	078H
	DB	0ffH
	DB	0c0H
	DB	0a0H
	DB	078H
	DB	0ffH
	DB	0c0H
	DB	0a4H
	DB	078H
	DB	0ffH
	DB	0c8H
	DB	0a0H
	DB	078H
	DB	0ffH
	DB	0c8H
	DB	0a0H
	DB	078H
	DB	0ffH
	DB	0c0H
	DB	0a0H
	DB	078H
	DB	00H
	DB	0c0H
	DB	0a0H
	DB	078H
	DB	00H
	DB	0c8H
	DB	0a0H
	DB	078H
	DB	00H
	DB	0c0H
	DB	0a4H
	DB	078H
	DB	0ffH
	DB	0c8H
	DB	0a0H
	DB	078H
	DB	0ffH
	DB	0c8H
	DB	0a0H
	DB	078H
	DB	0ffH
	DB	0c0H
	DB	0a4H
	DB	080H
	DB	0ffH
	DB	0c0H
	DB	0a0H
	DB	078H
	DB	00H
	DB	0c0H
	DB	0a0H
	DB	078H
	DB	00H
	DB	0c0H
	DB	0a0H
	DB	078H
	DB	00H
	DB	0c0H
	DB	0a4H
	DB	078H
	DB	00H
	DB	0c8H
	DB	0a0H
	DB	078H
	DB	0ffH
	DB	0c0H
	DB	0a0H
	DB	078H
	DB	0ffH
	DB	0c0H
	DB	0a0H
	DB	078H
	DB	0ffH
	DB	0c8H
	DB	0a0H
	DB	078H
	DB	0ffH
	DB	0c0H
	DB	0a4H
	DB	080H
	DB	00H
	DB	0c0H
	DB	0a0H
	DB	078H
	DB	00H
	DB	0c8H
	DB	0a4H
	DB	078H
	DB	00H
	DB	0c0H
	DB	0a0H
	DB	078H
	DB	0ffH
	DB	0c0H
	DB	0a4H
	DB	078H
	DB	0ffH
	DB	0c0H
	DB	0a0H
	DB	078H
	DB	0ffH
	DB	0c0H
	DB	0a0H
	DB	078H
	DB	0ffH
	DB	0c8H
	DB	0a0H
	DB	078H
	DB	0ffH
	DB	0c0H
	DB	0a4H
	DB	078H
	DB	00H
	DB	0c8H
	DB	0a0H
	DB	078H
	DB	00H
	DB	0c0H
	DB	0a0H
	DB	078H
	DB	0ffH
	DB	0c0H
	DB	0a0H
	DB	080H
	DB	0ffH
	DB	0c8H
	DB	0a4H
	DB	078H
	DB	0ffH
	DB	0c0H
	DB	0a0H
	DB	078H
	DB	0ffH
	DB	0c0H
	DB	0a0H
	DB	080H
	DB	0ffH
	DB	0c8H
	DB	0a4H
	DB	078H
	DB	00H
	DB	0c0H
	DB	0a0H
	DB	078H
	DB	00H
	DB	0c8H
	DB	0a0H
	DB	078H
	DB	0ffH
	DB	0c0H
	DB	0a0H
	DB	078H
	DB	0ffH
	DB	0c0H
	DB	0a0H
	DB	078H
	DB	0ffH
	DB	0c8H
	DB	0a4H
	DB	078H
	DB	0ffH
	DB	0c0H
	DB	0a0H
	DB	078H
	DB	0ffH
	DB	0c8H
	DB	0a4H
	DB	078H
	DB	00H
	DB	0c8H
	DB	0a0H
	DB	078H
	DB	00H
	DB	0c0H
	DB	0a0H
	DB	078H
	DB	0ffH
	DB	0c0H
	DB	0a0H
	DB	078H
	DB	0ffH
	DB	0c8H
	DB	0a4H
	DB	078H
	DB	0ffH
	DB	0c0H
	DB	0a0H
	DB	080H
	DB	0ffH
	DB	0c0H
	DB	0a0H
	DB	078H
	DB	0ffH
	DB	0c8H
	DB	0a0H
	DB	078H
	DB	00H
	DB	0c0H
	DB	0a0H
	DB	078H
	DB	00H
	DB	0c0H
	DB	0a4H
	DB	078H
	DB	0ffH
	DB	0c8H
	DB	0a0H
	DB	080H
	DB	0ffH
	DB	0c0H
	DB	0a0H
	DB	078H
	DB	0ffH
	DB	0c0H
	DB	0a0H
	DB	078H
	DB	0ffH
	DB	0c8H
	DB	0a4H
	DB	078H
	DB	0ffH
	DB	0c0H
	DB	0a0H
	DB	078H
	DB	00H
	DB	0c0H
	DB	0a0H
	DB	080H
	DB	00H
	DB	0c8H
	DB	0a4H
	DB	078H
	DB	00H
	DB	0c0H
	DB	0a0H
	DB	078H
	DB	0ffH
	DB	0c0H
	DB	0a0H
	DB	078H
	DB	0ffH
	DB	0c0H
	DB	0a0H
	DB	078H
	DB	0ffH
	DB	0c8H
	DB	0a0H
	DB	078H
	DB	0ffH
	DB	0c8H
	DB	0a0H
	DB	078H
	DB	00H
	DB	0c0H
	DB	0a0H
	DB	078H
	DB	00H
	DB	0c0H
	DB	0a0H
	DB	078H
	DB	00H
	DB	0c8H
	DB	0a0H
	DB	078H
	DB	00H
	DB	0c0H
	DB	0a4H
	DB	078H
	DB	0ffH
	DB	0c8H
	DB	0a0H
	DB	078H
	DB	0ffH
	DB	0c0H
	DB	0a0H
	DB	078H
	DB	0ffH
	DB	0c8H
	DB	0a4H
	DB	078H
	DB	0ffH
	DB	0c0H
	DB	0a0H
	DB	078H
	DB	00H
	DB	0c0H
	DB	0a0H
	DB	078H
	DB	00H
	DB	0c8H
	DB	0a0H
	DB	080H
	DB	00H
	DB	0c8H
	DB	0a4H
	DB	078H
	DB	0ffH
	DB	0c0H
	DB	0a0H
	DB	078H
	DB	0ffH
	DB	0c8H
	DB	0a0H
	DB	080H
	DB	0ffH
	DB	0c0H
	DB	0a4H
	DB	078H
	DB	0ffH
	DB	0c0H
	DB	0a0H
	DB	078H
	DB	0ffH
	DB	0c8H
	DB	0a0H
	DB	080H
	DB	00H
	DB	0c0H
	DB	0a0H
	DB	078H
	DB	00H
	DB	0c0H
	DB	0a0H
	DB	078H
	DB	0ffH
	DB	0c8H
	DB	0a0H
	DB	078H
	DB	0ffH
	DB	0c0H
	DB	0a0H
	DB	078H
	DB	0ffH
	DB	0c0H
	DB	0a4H
	DB	078H
	DB	0ffH
	DB	0c8H
	DB	0a0H
	DB	078H
	DB	0ffH
	DB	0c0H
	DB	0a0H
	DB	078H
	DB	00H
	DB	0c0H
	DB	0a4H
	DB	078H
	DB	00H
	DB	0c8H
	DB	0a0H
	DB	080H
	DB	0ffH
	DB	0c0H
	DB	0a0H
	DB	078H
	DB	0ffH
	DB	0c8H
	DB	0a4H
	DB	078H
	DB	0ffH
	DB	0c0H
	DB	0a0H
	DB	078H
	DB	0ffH
	DB	0c0H
	DB	0a0H
	DB	078H
	DB	0ffH
	DB	0c0H
	DB	0a0H
	DB	080H
	DB	00H
	DB	0c0H
	DB	0a4H
	DB	078H
	DB	00H
	DB	0c8H
	DB	0a0H
	DB	078H
	DB	0ffH
	DB	0c0H
	DB	0a0H
	DB	078H
	DB	0ffH
	DB	0c8H
	DB	0a0H
	DB	078H
	DB	0ffH
	DB	0c0H
	DB	0a4H
	DB	078H
	DB	0fbH
	DB	0c8H
	DB	0a0H
	DB	078H
	DB	0b6H
	DB	0c0H
	DB	0a0H
	DB	078H
	DB	00H
	DB	0c0H
	DB	0a4H
	DB	078H
	DB	00H
	DB	0c8H
	DB	0a0H
	DB	078H
	DB	018H
	DB	0c0H
	DB	0a0H
	DB	078H
	DB	04H
	DB	0c8H
	DB	0a0H
	DB	078H
	DB	04H
	DB	0c0H
	DB	0a4H
	DB	078H
	DB	018H
	DB	0c0H
	DB	0a0H
	DB	080H
	DB	038H
	DB	0c8H
	DB	0a0H
	DB	078H
	DB	00H
	DB	0c0H
	DB	0a4H
	DB	078H
	DB	00H
	DB	0c0H
	DB	0a0H
	DB	078H
	DB	00H
	DB	0c8H
	DB	0a0H
	DB	078H
	DB	0ffH
	DB	0c0H
	DB	0a4H
	DB	080H
	DB	0ffH
	DB	0c0H
	DB	0a0H
	DB	078H
	DB	0ffH
	DB	0c8H
	DB	0a0H
	DB	078H
	DB	0ffH
	DB	0c0H
	DB	0a4H
	DB	078H
	DB	00H
	DB	0c0H
	DB	0a0H
	DB	078H
	DB	00H
	DB	0c0H
	DB	0a0H
	DB	078H
	DB	00H
	DB	0c0H
	DB	0a0H
	DB	078H
	DB	00H
	DB	0c8H
	DB	0a0H
	DB	080H
	DB	0ffH
	DB	0c0H
	DB	0a4H
	DB	078H
	DB	0ffH
	DB	0c0H
	DB	0a0H
	DB	078H
	DB	0ffH
	DB	0c8H
	DB	0a0H
	DB	080H
	DB	0ffH
	DB	0c0H
	DB	0a0H
	DB	078H
	DB	00H
	DB	0c0H
	DB	0a0H
	DB	078H
	DB	00H
	DB	0c8H
	DB	0a0H
	DB	078H
	DB	00H
	DB	0c0H
	DB	0a0H
	DB	078H
	DB	0c3H
	DB	0c0H
	DB	0a0H
	DB	078H
	DB	0ffH
	DB	0c8H
	DB	0a0H
	DB	078H
	DB	0ffH
	DB	0c0H
	DB	0a4H
	DB	078H
	DB	0ffH
	DB	0c0H
	DB	0a0H
	DB	078H
	DB	0c3H
	DB	0c8H
	DB	0a0H
	DB	078H
	DB	00H
	DB	0c0H
	DB	0a4H
	DB	078H
	DB	00H
	DB	0c0H
	DB	0a4H
	DB	078H
	DB	0c3H
	DB	0c8H
	DB	0a0H
	DB	078H
	DB	0ffH
	DB	0c0H
	DB	0a0H
	DB	078H
	DB	0ffH
	DB	0c8H
	DB	0a0H
	DB	078H
	DB	0ffH
	DB	0c0H
	DB	0a0H
	DB	078H
	DB	0c3H
	DB	0c0H
	DB	0a0H
	DB	078H
	DB	00H
	DB	0c8H
	DB	0a4H
	DB	078H
	DB	00H
	DB	0c0H
	DB	0a0H
	DB	078H
	DB	0c3H
	DB	0c0H
	DB	0a0H
	DB	078H
	DB	0ffH
	DB	0c8H
	DB	0a0H
	DB	078H
	DB	0ffH
	DB	0c0H
	DB	0a0H
	DB	078H
	DB	0ffH
	DB	0c8H
	DB	0a0H
	DB	078H
	DB	0c3H
	DB	068H
	DB	04cH
	DB	038H
	DB	00H
	DB	068H
	DB	04cH
	DB	038H
	DB	00H
	DB	0c0H
	DB	0a0H
	DB	078H
	DB	0c3H
	DB	0c0H
	DB	0a0H
	DB	078H
	DB	0f3H
	DB	0c0H
	DB	0a4H
	DB	078H
	DB	086H
	DB	0c8H
	DB	0a0H
	DB	078H
	DB	018H
	DB	068H
	DB	04cH
	DB	038H
	DB	00H
	DB	068H
	DB	04cH
	DB	038H
	DB	00H
	DB	068H
	DB	04cH
	DB	038H
	DB	00H
	DB	068H
	DB	04cH
	DB	038H
	DB	00H
	DB	068H
	DB	04cH
	DB	038H
	DB	00H
	DB	068H
	DB	04cH
	DB	038H
	DB	00H
	DB	068H
	DB	04cH
	DB	038H
	DB	00H
	DB	068H
	DB	04cH
	DB	038H
	DB	00H
	DB	068H
	DB	04cH
	DB	038H
	DB	00H
	DB	068H
	DB	04cH
	DB	038H
	DB	00H
	DB	068H
	DB	04cH
	DB	038H
	DB	00H
	DB	0c0H
	DB	0a0H
	DB	078H
	DB	086H
	DB	0c8H
	DB	0a0H
	DB	078H
	DB	0f7H
	DB	0c0H
	DB	0a4H
	DB	078H
	DB	0ffH
	DB	0c0H
	DB	0a0H
	DB	078H
	DB	0ffH
	DB	068H
	DB	04cH
	DB	038H
	DB	00H
	DB	068H
	DB	04cH
	DB	038H
	DB	00H
	DB	0c0H
	DB	0a0H
	DB	078H
	DB	00H
	DB	0c8H
	DB	0a0H
	DB	078H
	DB	00H
	DB	0c0H
	DB	0a0H
	DB	078H
	DB	0ffH
	DB	0c0H
	DB	0a0H
	DB	078H
	DB	0ffH
	DB	0c8H
	DB	0a4H
	DB	078H
	DB	0ffH
	DB	0c0H
	DB	0a0H
	DB	078H
	DB	0ffH
	DB	0c8H
	DB	0a4H
	DB	078H
	DB	00H
	DB	0c0H
	DB	0a0H
	DB	078H
	DB	00H
	DB	0c0H
	DB	0a4H
	DB	078H
	DB	00H
	DB	0c8H
	DB	0a0H
	DB	078H
	DB	00H
	DB	0c0H
	DB	0a0H
	DB	078H
	DB	00H
	DB	0c0H
	DB	0a4H
	DB	078H
	DB	00H
	DB	0c8H
	DB	0a0H
	DB	078H
	DB	00H
	DB	0c0H
	DB	0a0H
	DB	078H
	DB	00H
	DB	0c8H
	DB	0a0H
	DB	078H
	DB	00H
	DB	0c0H
	DB	0a0H
	DB	080H
	DB	00H
	DB	0c8H
	DB	0a0H
	DB	078H
	DB	00H
	DB	0c0H
	DB	0a4H
	DB	078H
	DB	00H
	DB	0c0H
	DB	0a0H
	DB	080H
	DB	00H
	DB	0c8H
	DB	0a0H
	DB	078H
	DB	00H
	DB	0c0H
	DB	0a4H
	DB	078H
	DB	00H
	DB	0c8H
	DB	0a0H
	DB	080H
	DB	00H
	DB	0c0H
	DB	0a0H
	DB	078H
	DB	00H
	DB	0c0H
	DB	0a0H
	DB	078H
	DB	00H
	DB	0c8H
	DB	0a4H
	DB	078H
	DB	00H
	DB	0c0H
	DB	0a0H
	DB	080H
	DB	00H
	DB	068H
	DB	04cH
	DB	038H
	DB	00H
	DB	068H
	DB	04cH
	DB	038H
	DB	00H
	DB	068H
	DB	04cH
	DB	030H
	DB	00H
	DB	068H
	DB	04cH
	DB	038H
	DB	00H
	DB	068H
	DB	04cH
	DB	038H
	DB	00H
	DB	068H
	DB	04cH
	DB	038H
	DB	00H
	DB	068H
	DB	04cH
	DB	038H
	DB	00H
	DB	060H
	DB	04cH
	DB	038H
	DB	00H
	DB	068H
	DB	04cH
	DB	038H
	DB	00H
	DB	060H
	DB	04cH
	DB	030H
	DB	00H
	DB	068H
	DB	04cH
	DB	038H
	DB	00H
	DB	060H
	DB	04cH
	DB	030H
	DB	00H
	DB	060H
	DB	04cH
	DB	030H
	DB	00H
	DB	068H
	DB	04cH
	DB	038H
	DB	00H
	DB	060H
	DB	04cH
	DB	030H
	DB	00H
	DB	068H
	DB	04cH
	DB	030H
	DB	00H
	DB	060H
	DB	04cH
	DB	030H
	DB	00H
	DB	068H
	DB	04cH
	DB	038H
	DB	00H
	DB	068H
	DB	04cH
	DB	030H
	DB	00H
	DB	068H
	DB	04cH
	DB	038H
	DB	00H
	DB	0c0H
	DB	0a0H
	DB	078H
	DB	018H
	DB	0c0H
	DB	0a0H
	DB	078H
	DB	0aeH
	DB	0c8H
	DB	0a0H
	DB	078H
	DB	0ffH
	DB	068H
	DB	04cH
	DB	038H
	DB	00H
	DB	068H
	DB	04cH
	DB	038H
	DB	00H
	DB	0c0H
	DB	0a0H
	DB	078H
	DB	00H
	DB	0c8H
	DB	0a4H
	DB	078H
	DB	00H
	DB	0c0H
	DB	0a0H
	DB	078H
	DB	0ffH
	DB	0c0H
	DB	0a0H
	DB	078H
	DB	0ffH
	DB	0c8H
	DB	0a0H
	DB	078H
	DB	0ffH
	DB	0c0H
	DB	0a0H
	DB	078H
	DB	0ffH
	DB	0c0H
	DB	0a0H
	DB	078H
	DB	00H
	DB	0c8H
	DB	0a4H
	DB	080H
	DB	00H
	DB	0c0H
	DB	0a0H
	DB	078H
	DB	00H
	DB	0c8H
	DB	0a0H
	DB	078H
	DB	00H
	DB	0c0H
	DB	0a4H
	DB	080H
	DB	00H
	DB	0c8H
	DB	0a0H
	DB	078H
	DB	00H
	DB	0c0H
	DB	0a0H
	DB	078H
	DB	00H
	DB	0c0H
	DB	0a4H
	DB	080H
	DB	00H
	DB	0c0H
	DB	0a0H
	DB	078H
	DB	00H
	DB	0c8H
	DB	0a0H
	DB	078H
	DB	00H
	DB	0c0H
	DB	0a0H
	DB	078H
	DB	00H
	DB	0c0H
	DB	0a0H
	DB	078H
	DB	00H
	DB	0c8H
	DB	0a4H
	DB	078H
	DB	00H
	DB	0c0H
	DB	0a0H
	DB	078H
	DB	00H
	DB	0c0H
	DB	0a0H
	DB	078H
	DB	00H
	DB	0c8H
	DB	0a4H
	DB	078H
	DB	00H
	DB	0c0H
	DB	0a0H
	DB	078H
	DB	00H
	DB	0c8H
	DB	0a0H
	DB	078H
	DB	00H
	DB	0c0H
	DB	0a0H
	DB	078H
	DB	00H
	DB	0c0H
	DB	0a4H
	DB	078H
	DB	00H
	DB	068H
	DB	04cH
	DB	038H
	DB	00H
	DB	060H
	DB	04cH
	DB	030H
	DB	00H
	DB	060H
	DB	04cH
	DB	030H
	DB	00H
	DB	060H
	DB	04cH
	DB	038H
	DB	00H
	DB	068H
	DB	04cH
	DB	030H
	DB	00H
	DB	068H
	DB	04cH
	DB	030H
	DB	00H
	DB	060H
	DB	04cH
	DB	038H
	DB	00H
	DB	068H
	DB	04cH
	DB	030H
	DB	00H
	DB	068H
	DB	04cH
	DB	030H
	DB	01cH
	DB	060H
	DB	048H
	DB	038H
	DB	079H
	DB	068H
	DB	04cH
	DB	030H
	DB	0baH
	DB	068H
	DB	04cH
	DB	030H
	DB	0e3H
	DB	060H
	DB	048H
	DB	038H
	DB	0f7H
	DB	068H
	DB	04cH
	DB	030H
	DB	0f3H
	DB	068H
	DB	048H
	DB	038H
	DB	0d7H
	DB	060H
	DB	04cH
	DB	030H
	DB	0baH
	DB	068H
	DB	048H
	DB	030H
	DB	079H
	DB	060H
	DB	04cH
	DB	038H
	DB	020H
	DB	060H
	DB	04cH
	DB	030H
	DB	00H
	DB	068H
	DB	04cH
	DB	038H
	DB	00H
	DB	068H
	DB	04cH
	DB	038H
	DB	00H
	DB	0c0H
	DB	0a0H
	DB	078H
	DB	00H
	DB	0c0H
	DB	0a0H
	DB	078H
	DB	075H
	DB	068H
	DB	04cH
	DB	038H
	DB	00H
	DB	060H
	DB	04cH
	DB	030H
	DB	00H
	DB	0c0H
	DB	0a0H
	DB	078H
	DB	00H
	DB	0c8H
	DB	0a0H
	DB	078H
	DB	00H
	DB	0c0H
	DB	0a4H
	DB	078H
	DB	0ffH
	DB	0c8H
	DB	0a0H
	DB	080H
	DB	0ffH
	DB	0c0H
	DB	0a0H
	DB	078H
	DB	0ffH
	DB	0c0H
	DB	0a4H
	DB	078H
	DB	0ffH
	DB	0c8H
	DB	0a0H
	DB	078H
	DB	00H
	DB	0c0H
	DB	0a0H
	DB	078H
	DB	00H
	DB	0c0H
	DB	0a0H
	DB	078H
	DB	00H
	DB	0c0H
	DB	0a0H
	DB	078H
	DB	0c3H
	DB	0c8H
	DB	0a0H
	DB	078H
	DB	0ffH
	DB	0c0H
	DB	0a0H
	DB	078H
	DB	0ffH
	DB	0c8H
	DB	0a0H
	DB	078H
	DB	0ffH
	DB	0c0H
	DB	0a0H
	DB	078H
	DB	0c3H
	DB	0c8H
	DB	0a4H
	DB	078H
	DB	00H
	DB	0c0H
	DB	0a0H
	DB	078H
	DB	00H
	DB	0c0H
	DB	0a0H
	DB	078H
	DB	0c3H
	DB	0c8H
	DB	0a4H
	DB	078H
	DB	0ffH
	DB	0c0H
	DB	0a0H
	DB	078H
	DB	0ffH
	DB	0c0H
	DB	0a0H
	DB	080H
	DB	0ffH
	DB	0c8H
	DB	0a0H
	DB	078H
	DB	0c3H
	DB	0c0H
	DB	0a0H
	DB	078H
	DB	00H
	DB	0c0H
	DB	0a4H
	DB	078H
	DB	00H
	DB	0c8H
	DB	0a0H
	DB	080H
	DB	0c3H
	DB	0c0H
	DB	0a0H
	DB	078H
	DB	0ffH
	DB	0c0H
	DB	0a0H
	DB	078H
	DB	0ffH
	DB	0c8H
	DB	0a0H
	DB	078H
	DB	0ffH
	DB	0c0H
	DB	0a0H
	DB	078H
	DB	0baH
	DB	068H
	DB	04cH
	DB	038H
	DB	00H
	DB	068H
	DB	04cH
	DB	038H
	DB	00H
	DB	060H
	DB	048H
	DB	030H
	DB	00H
	DB	060H
	DB	04cH
	DB	030H
	DB	00H
	DB	068H
	DB	048H
	DB	038H
	DB	01cH
	DB	068H
	DB	04cH
	DB	030H
	DB	0a6H
	DB	060H
	DB	04cH
	DB	038H
	DB	0fbH
	DB	068H
	DB	048H
	DB	038H
	DB	0ffH
	DB	068H
	DB	04cH
	DB	030H
	DB	0ffH
	DB	060H
	DB	04cH
	DB	038H
	DB	0ffH
	DB	068H
	DB	04cH
	DB	038H
	DB	0ffH
	DB	068H
	DB	04cH
	DB	030H
	DB	0ffH
	DB	060H
	DB	04cH
	DB	038H
	DB	0ffH
	DB	068H
	DB	04cH
	DB	038H
	DB	0ffH
	DB	068H
	DB	04cH
	DB	038H
	DB	0ffH
	DB	068H
	DB	048H
	DB	030H
	DB	0fbH
	DB	060H
	DB	04cH
	DB	030H
	DB	0a6H
	DB	068H
	DB	04cH
	DB	038H
	DB	020H
	DB	068H
	DB	04cH
	DB	030H
	DB	00H
	DB	068H
	DB	04cH
	DB	038H
	DB	00H
	DB	068H
	DB	04cH
	DB	038H
	DB	00H
	DB	060H
	DB	04cH
	DB	030H
	DB	00H
	DB	068H
	DB	04cH
	DB	030H
	DB	00H
	DB	0c0H
	DB	0a0H
	DB	078H
	DB	00H
	DB	0c0H
	DB	0a0H
	DB	078H
	DB	00H
	DB	0c8H
	DB	0a0H
	DB	078H
	DB	0ffH
	DB	0c0H
	DB	0a4H
	DB	078H
	DB	0ffH
	DB	0c0H
	DB	0a0H
	DB	078H
	DB	0ffH
	DB	0c8H
	DB	0a0H
	DB	078H
	DB	0ffH
	DB	0c8H
	DB	0a0H
	DB	080H
	DB	00H
	DB	0c0H
	DB	0a4H
	DB	078H
	DB	00H
	DB	0c8H
	DB	0a0H
	DB	078H
	DB	00H
	DB	0c0H
	DB	0a0H
	DB	078H
	DB	0ffH
	DB	0c0H
	DB	0a4H
	DB	078H
	DB	0ffH
	DB	0c8H
	DB	0a0H
	DB	078H
	DB	0ffH
	DB	0c0H
	DB	0a0H
	DB	078H
	DB	0ffH
	DB	0c0H
	DB	0a4H
	DB	078H
	DB	0ffH
	DB	0c8H
	DB	0a0H
	DB	078H
	DB	00H
	DB	0c0H
	DB	0a0H
	DB	080H
	DB	00H
	DB	0c8H
	DB	0a4H
	DB	078H
	DB	0ffH
	DB	0c8H
	DB	0a0H
	DB	078H
	DB	0ffH
	DB	0c0H
	DB	0a0H
	DB	078H
	DB	0ffH
	DB	0c0H
	DB	0a4H
	DB	078H
	DB	0ffH
	DB	0c8H
	DB	0a0H
	DB	078H
	DB	0ffH
	DB	0c0H
	DB	0a0H
	DB	078H
	DB	00H
	DB	0c0H
	DB	0a0H
	DB	078H
	DB	00H
	DB	0c8H
	DB	0a4H
	DB	078H
	DB	0ffH
	DB	0c0H
	DB	0a0H
	DB	078H
	DB	0ffH
	DB	0c0H
	DB	0a0H
	DB	078H
	DB	0ffH
	DB	0c8H
	DB	0a0H
	DB	078H
	DB	0ffH
	DB	0c0H
	DB	0a0H
	DB	078H
	DB	06dH
	DB	068H
	DB	04cH
	DB	038H
	DB	00H
	DB	068H
	DB	04cH
	DB	030H
	DB	00H
	DB	068H
	DB	04cH
	DB	038H
	DB	00H
	DB	060H
	DB	04cH
	DB	038H
	DB	04dH
	DB	068H
	DB	04cH
	DB	030H
	DB	0f3H
	DB	068H
	DB	048H
	DB	038H
	DB	0ffH
	DB	060H
	DB	04cH
	DB	030H
	DB	0ffH
	DB	068H
	DB	04cH
	DB	030H
	DB	0ffH
	DB	060H
	DB	04cH
	DB	038H
	DB	0ffH
	DB	068H
	DB	048H
	DB	030H
	DB	0ffH
	DB	068H
	DB	04cH
	DB	030H
	DB	0ffH
	DB	060H
	DB	048H
	DB	038H
	DB	0ffH
	DB	068H
	DB	04cH
	DB	030H
	DB	0ffH
	DB	060H
	DB	04cH
	DB	030H
	DB	0ffH
	DB	068H
	DB	048H
	DB	038H
	DB	0ffH
	DB	068H
	DB	04cH
	DB	038H
	DB	0ffH
	DB	060H
	DB	04cH
	DB	030H
	DB	0ffH
	DB	068H
	DB	048H
	DB	030H
	DB	0f3H
	DB	060H
	DB	04cH
	DB	038H
	DB	059H
	DB	068H
	DB	04cH
	DB	030H
	DB	00H
	DB	068H
	DB	04cH
	DB	030H
	DB	00H
	DB	060H
	DB	048H
	DB	038H
	DB	00H
	DB	068H
	DB	04cH
	DB	038H
	DB	00H
	DB	0c0H
	DB	0a0H
	DB	078H
	DB	00H
	DB	0c8H
	DB	0a0H
	DB	078H
	DB	00H
	DB	0c0H
	DB	0a0H
	DB	078H
	DB	0ffH
	DB	0c0H
	DB	0a0H
	DB	078H
	DB	0ffH
	DB	0c8H
	DB	0a4H
	DB	078H
	DB	0ffH
	DB	0c0H
	DB	0a0H
	DB	078H
	DB	0ffH
	DB	0c0H
	DB	0a0H
	DB	078H
	DB	00H
	DB	0c0H
	DB	0a4H
	DB	078H
	DB	00H
	DB	0c8H
	DB	0a0H
	DB	078H
	DB	00H
	DB	0c0H
	DB	0a0H
	DB	080H
	DB	0ffH
	DB	0c0H
	DB	0a4H
	DB	078H
	DB	0ffH
	DB	0c8H
	DB	0a0H
	DB	078H
	DB	0ffH
	DB	0c0H
	DB	0a0H
	DB	080H
	DB	0ffH
	DB	0c0H
	DB	0a0H
	DB	078H
	DB	0ffH
	DB	0c8H
	DB	0a0H
	DB	078H
	DB	00H
	DB	0c0H
	DB	0a0H
	DB	078H
	DB	00H
	DB	0c0H
	DB	0a0H
	DB	078H
	DB	0ffH
	DB	0c0H
	DB	0a0H
	DB	078H
	DB	0ffH
	DB	0c8H
	DB	0a0H
	DB	080H
	DB	0ffH
	DB	0c0H
	DB	0a0H
	DB	078H
	DB	0ffH
	DB	0c8H
	DB	0a4H
	DB	078H
	DB	0ffH
	DB	0c0H
	DB	0a0H
	DB	080H
	DB	00H
	DB	0c8H
	DB	0a0H
	DB	078H
	DB	00H
	DB	0c0H
	DB	0a0H
	DB	078H
	DB	0ffH
	DB	0c8H
	DB	0a4H
	DB	078H
	DB	0ffH
	DB	0c0H
	DB	0a0H
	DB	078H
	DB	0ffH
	DB	0c0H
	DB	0a0H
	DB	078H
	DB	0aaH
	DB	068H
	DB	04cH
	DB	038H
	DB	00H
	DB	060H
	DB	04cH
	DB	030H
	DB	00H
	DB	068H
	DB	04cH
	DB	030H
	DB	00H
	DB	068H
	DB	048H
	DB	038H
	DB	071H
	DB	060H
	DB	04cH
	DB	030H
	DB	0fbH
	DB	068H
	DB	04cH
	DB	038H
	DB	0ffH
	DB	068H
	DB	04cH
	DB	038H
	DB	0ffH
	DB	060H
	DB	048H
	DB	030H
	DB	0ffH
	DB	068H
	DB	04cH
	DB	038H
	DB	0ffH
	DB	068H
	DB	04cH
	DB	038H
	DB	0ffH
	DB	060H
	DB	04cH
	DB	030H
	DB	0ffH
	DB	068H
	DB	048H
	DB	038H
	DB	0ffH
	DB	068H
	DB	04cH
	DB	038H
	DB	0ffH
	DB	060H
	DB	04cH
	DB	030H
	DB	0ffH
	DB	068H
	DB	048H
	DB	030H
	DB	0ffH
	DB	060H
	DB	04cH
	DB	038H
	DB	0ffH
	DB	068H
	DB	04cH
	DB	030H
	DB	0ffH
	DB	068H
	DB	04cH
	DB	038H
	DB	0ffH
	DB	060H
	DB	048H
	DB	038H
	DB	0ffH
	DB	068H
	DB	04cH
	DB	030H
	DB	0ffH
	DB	060H
	DB	04cH
	DB	038H
	DB	071H
	DB	068H
	DB	048H
	DB	030H
	DB	00H
	DB	068H
	DB	04cH
	DB	038H
	DB	00H
	DB	060H
	DB	04cH
	DB	030H
	DB	00H
	DB	0c0H
	DB	0a0H
	DB	078H
	DB	00H
	DB	0c8H
	DB	0a4H
	DB	078H
	DB	00H
	DB	0c0H
	DB	0a0H
	DB	078H
	DB	0ffH
	DB	0c0H
	DB	0a0H
	DB	080H
	DB	0ffH
	DB	0c8H
	DB	0a0H
	DB	078H
	DB	0ffH
	DB	0c0H
	DB	0a0H
	DB	078H
	DB	0ffH
	DB	0c0H
	DB	0a0H
	DB	078H
	DB	00H
	DB	0c8H
	DB	0a0H
	DB	078H
	DB	00H
	DB	0c0H
	DB	0a0H
	DB	078H
	DB	00H
	DB	0c8H
	DB	0a0H
	DB	078H
	DB	0ffH
	DB	0c0H
	DB	0a0H
	DB	078H
	DB	0ffH
	DB	0c8H
	DB	0a4H
	DB	078H
	DB	0ffH
	DB	0c0H
	DB	0a0H
	DB	078H
	DB	0ffH
	DB	0c8H
	DB	0a4H
	DB	078H
	DB	0ffH
	DB	0c0H
	DB	0a0H
	DB	078H
	DB	00H
	DB	0c0H
	DB	0a4H
	DB	078H
	DB	00H
	DB	0c8H
	DB	0a0H
	DB	078H
	DB	0ffH
	DB	0c0H
	DB	0a4H
	DB	078H
	DB	0ffH
	DB	0c0H
	DB	0a0H
	DB	078H
	DB	0ffH
	DB	0c8H
	DB	0a0H
	DB	078H
	DB	0ffH
	DB	0c0H
	DB	0a0H
	DB	078H
	DB	0ffH
	DB	0c0H
	DB	0a4H
	DB	078H
	DB	00H
	DB	0c8H
	DB	0a0H
	DB	078H
	DB	00H
	DB	0c0H
	DB	0a0H
	DB	078H
	DB	0ffH
	DB	0c0H
	DB	0a0H
	DB	080H
	DB	0ffH
	DB	0c8H
	DB	0a4H
	DB	078H
	DB	0efH
	DB	0c0H
	DB	0a0H
	DB	078H
	DB	018H
	DB	068H
	DB	04cH
	DB	038H
	DB	00H
	DB	068H
	DB	04cH
	DB	038H
	DB	00H
	DB	060H
	DB	04cH
	DB	030H
	DB	055H
	DB	068H
	DB	048H
	DB	038H
	DB	0ffH
	DB	068H
	DB	04cH
	DB	030H
	DB	0ffH
	DB	060H
	DB	04cH
	DB	030H
	DB	0ffH
	DB	068H
	DB	04cH
	DB	038H
	DB	0ffH
	DB	060H
	DB	04cH
	DB	030H
	DB	0ffH
	DB	068H
	DB	048H
	DB	030H
	DB	0ffH
	DB	068H
	DB	04cH
	DB	038H
	DB	0ffH
	DB	060H
	DB	04cH
	DB	030H
	DB	0ffH
	DB	068H
	DB	04cH
	DB	038H
	DB	0ffH
	DB	068H
	DB	04cH
	DB	030H
	DB	0ffH
	DB	060H
	DB	04cH
	DB	038H
	DB	0ffH
	DB	068H
	DB	04cH
	DB	038H
	DB	0ffH
	DB	068H
	DB	04cH
	DB	030H
	DB	0ffH
	DB	060H
	DB	04cH
	DB	030H
	DB	0ffH
	DB	068H
	DB	048H
	DB	038H
	DB	0ffH
	DB	068H
	DB	04cH
	DB	030H
	DB	0ffH
	DB	060H
	DB	04cH
	DB	038H
	DB	0ffH
	DB	068H
	DB	04cH
	DB	038H
	DB	0ffH
	DB	060H
	DB	04cH
	DB	030H
	DB	055H
	DB	068H
	DB	04cH
	DB	030H
	DB	00H
	DB	068H
	DB	04cH
	DB	038H
	DB	00H
	DB	0c0H
	DB	0a0H
	DB	078H
	DB	00H
	DB	0c0H
	DB	0a0H
	DB	078H
	DB	00H
	DB	0c8H
	DB	0a4H
	DB	078H
	DB	0ffH
	DB	0c0H
	DB	0a0H
	DB	078H
	DB	0ffH
	DB	0c8H
	DB	0a0H
	DB	078H
	DB	0ffH
	DB	0c0H
	DB	0a4H
	DB	080H
	DB	0ffH
	DB	0c8H
	DB	0a4H
	DB	078H
	DB	00H
	DB	0c0H
	DB	0a0H
	DB	078H
	DB	00H
	DB	0c0H
	DB	0a4H
	DB	080H
	DB	00H
	DB	0c8H
	DB	0a0H
	DB	078H
	DB	0c3H
	DB	0c0H
	DB	0a0H
	DB	078H
	DB	0ffH
	DB	0c0H
	DB	0a0H
	DB	078H
	DB	0ffH
	DB	0c8H
	DB	0a0H
	DB	078H
	DB	0ffH
	DB	0c0H
	DB	0a0H
	DB	080H
	DB	0c3H
	DB	0c0H
	DB	0a4H
	DB	078H
	DB	00H
	DB	0c8H
	DB	0a0H
	DB	078H
	DB	00H
	DB	0c8H
	DB	0a0H
	DB	080H
	DB	0c3H
	DB	0c0H
	DB	0a0H
	DB	078H
	DB	0ffH
	DB	0c0H
	DB	0a4H
	DB	078H
	DB	0ffH
	DB	0c8H
	DB	0a0H
	DB	078H
	DB	0ffH
	DB	0c0H
	DB	0a0H
	DB	078H
	DB	0c3H
	DB	0c0H
	DB	0a0H
	DB	078H
	DB	00H
	DB	0c8H
	DB	0a4H
	DB	078H
	DB	00H
	DB	0c0H
	DB	0a0H
	DB	078H
	DB	0c3H
	DB	0c0H
	DB	0a0H
	DB	078H
	DB	0ffH
	DB	0c8H
	DB	0a0H
	DB	078H
	DB	082H
	DB	068H
	DB	04cH
	DB	038H
	DB	00H
	DB	068H
	DB	04cH
	DB	038H
	DB	00H
	DB	060H
	DB	04cH
	DB	030H
	DB	020H
	DB	068H
	DB	04cH
	DB	038H
	DB	0f3H
	DB	060H
	DB	04cH
	DB	038H
	DB	0ffH
	DB	068H
	DB	048H
	DB	030H
	DB	0ffH
	DB	068H
	DB	04cH
	DB	038H
	DB	0ffH
	DB	060H
	DB	04cH
	DB	030H
	DB	0ffH
	DB	068H
	DB	048H
	DB	038H
	DB	0ffH
	DB	060H
	DB	04cH
	DB	038H
	DB	0ffH
	DB	068H
	DB	04cH
	DB	030H
	DB	0ffH
	DB	060H
	DB	048H
	DB	038H
	DB	0ffH
	DB	068H
	DB	04cH
	DB	030H
	DB	024H
	DB	060H
	DB	048H
	DB	030H
	DB	020H
	DB	068H
	DB	04cH
	DB	038H
	DB	0ffH
	DB	068H
	DB	048H
	DB	038H
	DB	0ffH
	DB	060H
	DB	04cH
	DB	030H
	DB	0ffH
	DB	060H
	DB	04cH
	DB	038H
	DB	0ffH
	DB	068H
	DB	04cH
	DB	030H
	DB	0ffH
	DB	068H
	DB	04cH
	DB	030H
	DB	0ffH
	DB	060H
	DB	048H
	DB	038H
	DB	0ffH
	DB	068H
	DB	04cH
	DB	030H
	DB	0ffH
	DB	068H
	DB	048H
	DB	038H
	DB	0f3H
	DB	060H
	DB	04cH
	DB	038H
	DB	020H
	DB	068H
	DB	048H
	DB	030H
	DB	00H
	DB	0c0H
	DB	0a0H
	DB	078H
	DB	00H
	DB	0c8H
	DB	0a0H
	DB	078H
	DB	00H
	DB	0c0H
	DB	0a0H
	DB	078H
	DB	0ffH
	DB	0c0H
	DB	0a4H
	DB	078H
	DB	0ffH
	DB	0c8H
	DB	0a0H
	DB	078H
	DB	0ffH
	DB	0c0H
	DB	0a0H
	DB	078H
	DB	0ffH
	DB	0c0H
	DB	0a0H
	DB	078H
	DB	00H
	DB	0c8H
	DB	0a0H
	DB	078H
	DB	00H
	DB	0c0H
	DB	0a0H
	DB	078H
	DB	00H
	DB	0c0H
	DB	0a4H
	DB	078H
	DB	00H
	DB	0c8H
	DB	0a0H
	DB	078H
	DB	00H
	DB	0c0H
	DB	0a0H
	DB	080H
	DB	00H
	DB	0c0H
	DB	0a4H
	DB	078H
	DB	00H
	DB	0c8H
	DB	0a0H
	DB	078H
	DB	00H
	DB	0c0H
	DB	0a0H
	DB	078H
	DB	00H
	DB	0c0H
	DB	0a0H
	DB	078H
	DB	00H
	DB	0c0H
	DB	0a0H
	DB	078H
	DB	00H
	DB	0c8H
	DB	0a0H
	DB	078H
	DB	00H
	DB	0c0H
	DB	0a0H
	DB	078H
	DB	00H
	DB	0c0H
	DB	0a4H
	DB	080H
	DB	00H
	DB	0c8H
	DB	0a0H
	DB	078H
	DB	00H
	DB	0c0H
	DB	0a0H
	DB	078H
	DB	00H
	DB	0c8H
	DB	0a0H
	DB	080H
	DB	00H
	DB	0c0H
	DB	0a4H
	DB	078H
	DB	00H
	DB	0c0H
	DB	0a0H
	DB	078H
	DB	00H
	DB	0c0H
	DB	0a0H
	DB	078H
	DB	00H
	DB	068H
	DB	04cH
	DB	038H
	DB	00H
	DB	060H
	DB	04cH
	DB	030H
	DB	00H
	DB	068H
	DB	048H
	DB	030H
	DB	0a6H
	DB	068H
	DB	04cH
	DB	038H
	DB	0ffH
	DB	060H
	DB	04cH
	DB	030H
	DB	0ffH
	DB	068H
	DB	048H
	DB	038H
	DB	0ffH
	DB	068H
	DB	04cH
	DB	030H
	DB	0ffH
	DB	060H
	DB	04cH
	DB	038H
	DB	0ffH
	DB	068H
	DB	04cH
	DB	030H
	DB	0ffH
	DB	068H
	DB	04cH
	DB	030H
	DB	0ffH
	DB	060H
	DB	04cH
	DB	038H
	DB	0ffH
	DB	068H
	DB	04cH
	DB	038H
	DB	0ffH
	DB	068H
	DB	04cH
	DB	030H
	DB	00H
	DB	060H
	DB	04cH
	DB	038H
	DB	00H
	DB	068H
	DB	048H
	DB	030H
	DB	0ffH
	DB	068H
	DB	04cH
	DB	030H
	DB	0ffH
	DB	060H
	DB	04cH
	DB	038H
	DB	0ffH
	DB	068H
	DB	048H
	DB	038H
	DB	0ffH
	DB	068H
	DB	04cH
	DB	030H
	DB	0ffH
	DB	060H
	DB	04cH
	DB	038H
	DB	0ffH
	DB	068H
	DB	04cH
	DB	030H
	DB	0ffH
	DB	068H
	DB	048H
	DB	030H
	DB	0ffH
	DB	060H
	DB	04cH
	DB	038H
	DB	0ffH
	DB	068H
	DB	04cH
	DB	030H
	DB	0a6H
	DB	060H
	DB	04cH
	DB	030H
	DB	00H
	DB	0c0H
	DB	0a0H
	DB	078H
	DB	00H
	DB	0c8H
	DB	0a0H
	DB	078H
	DB	00H
	DB	0c0H
	DB	0a0H
	DB	080H
	DB	0ffH
	DB	0c0H
	DB	0a0H
	DB	078H
	DB	0ffH
	DB	0c8H
	DB	0a0H
	DB	078H
	DB	0ffH
	DB	0c0H
	DB	0a0H
	DB	078H
	DB	0ffH
	DB	0c0H
	DB	0a4H
	DB	078H
	DB	00H
	DB	0c8H
	DB	0a0H
	DB	078H
	DB	00H
	DB	0c0H
	DB	0a0H
	DB	078H
	DB	00H
	DB	0c0H
	DB	0a0H
	DB	078H
	DB	00H
	DB	0c8H
	DB	0a4H
	DB	078H
	DB	00H
	DB	0c0H
	DB	0a0H
	DB	078H
	DB	00H
	DB	0c0H
	DB	0a0H
	DB	078H
	DB	00H
	DB	0c8H
	DB	0a4H
	DB	078H
	DB	00H
	DB	0c8H
	DB	0a0H
	DB	078H
	DB	00H
	DB	0c0H
	DB	0a0H
	DB	078H
	DB	00H
	DB	0c0H
	DB	0a4H
	DB	078H
	DB	00H
	DB	0c8H
	DB	0a0H
	DB	078H
	DB	00H
	DB	0c0H
	DB	0a0H
	DB	078H
	DB	00H
	DB	0c8H
	DB	0a4H
	DB	078H
	DB	00H
	DB	0c0H
	DB	0a0H
	DB	078H
	DB	00H
	DB	0c0H
	DB	0a0H
	DB	078H
	DB	00H
	DB	0c8H
	DB	0a0H
	DB	078H
	DB	00H
	DB	0c8H
	DB	0a0H
	DB	078H
	DB	00H
	DB	0c0H
	DB	0a4H
	DB	078H
	DB	00H
	DB	0c0H
	DB	0a0H
	DB	078H
	DB	00H
	DB	068H
	DB	04cH
	DB	038H
	DB	00H
	DB	068H
	DB	04cH
	DB	030H
	DB	020H
	DB	060H
	DB	04cH
	DB	038H
	DB	0fbH
	DB	068H
	DB	048H
	DB	030H
	DB	0ffH
	DB	068H
	DB	04cH
	DB	030H
	DB	0ffH
	DB	060H
	DB	04cH
	DB	038H
	DB	0ffH
	DB	068H
	DB	048H
	DB	030H
	DB	0ffH
	DB	068H
	DB	04cH
	DB	038H
	DB	0ffH
	DB	060H
	DB	04cH
	DB	038H
	DB	0ffH
	DB	068H
	DB	048H
	DB	030H
	DB	0ffH
	DB	068H
	DB	048H
	DB	030H
	DB	0ffH
	DB	060H
	DB	04cH
	DB	038H
	DB	0ffH
	DB	068H
	DB	04cH
	DB	030H
	DB	00H
	DB	068H
	DB	04cH
	DB	038H
	DB	00H
	DB	060H
	DB	04cH
	DB	038H
	DB	0ffH
	DB	068H
	DB	04cH
	DB	030H
	DB	0ffH
	DB	068H
	DB	04cH
	DB	030H
	DB	0ffH
	DB	060H
	DB	048H
	DB	038H
	DB	0ffH
	DB	068H
	DB	04cH
	DB	038H
	DB	0ffH
	DB	060H
	DB	04cH
	DB	030H
	DB	0ffH
	DB	068H
	DB	048H
	DB	038H
	DB	0ffH
	DB	060H
	DB	04cH
	DB	038H
	DB	0ffH
	DB	068H
	DB	04cH
	DB	030H
	DB	0ffH
	DB	068H
	DB	04cH
	DB	038H
	DB	0fbH
	DB	068H
	DB	04cH
	DB	038H
	DB	020H
	DB	0c0H
	DB	0a0H
	DB	078H
	DB	00H
	DB	0c8H
	DB	0a4H
	DB	078H
	DB	00H
	DB	0c0H
	DB	0a0H
	DB	078H
	DB	0ffH
	DB	0c8H
	DB	0a4H
	DB	078H
	DB	0ffH
	DB	0c0H
	DB	0a0H
	DB	078H
	DB	0ffH
	DB	0c8H
	DB	0a0H
	DB	080H
	DB	0ffH
	DB	0c0H
	DB	0a4H
	DB	078H
	DB	00H
	DB	0c8H
	DB	0a0H
	DB	078H
	DB	00H
	DB	0c0H
	DB	0a0H
	DB	080H
	DB	00H
	DB	0c8H
	DB	0a4H
	DB	078H
	DB	00H
	DB	0c0H
	DB	0a0H
	DB	078H
	DB	00H
	DB	0c8H
	DB	0a0H
	DB	078H
	DB	00H
	DB	0c0H
	DB	0a0H
	DB	078H
	DB	00H
	DB	0c0H
	DB	0a0H
	DB	080H
	DB	00H
	DB	0c8H
	DB	0a0H
	DB	078H
	DB	00H
	DB	0c0H
	DB	0a4H
	DB	078H
	DB	00H
	DB	0c8H
	DB	0a0H
	DB	080H
	DB	00H
	DB	0c0H
	DB	0a0H
	DB	078H
	DB	00H
	DB	0c0H
	DB	0a0H
	DB	078H
	DB	00H
	DB	0c8H
	DB	0a0H
	DB	078H
	DB	00H
	DB	0c0H
	DB	0a4H
	DB	078H
	DB	00H
	DB	0c0H
	DB	0a0H
	DB	078H
	DB	00H
	DB	0c0H
	DB	0a0H
	DB	078H
	DB	00H
	DB	0c8H
	DB	0a4H
	DB	078H
	DB	00H
	DB	0c0H
	DB	0a0H
	DB	078H
	DB	00H
	DB	0c0H
	DB	0a0H
	DB	078H
	DB	00H
	DB	068H
	DB	04cH
	DB	038H
	DB	00H
	DB	068H
	DB	04cH
	DB	038H
	DB	075H
	DB	060H
	DB	04cH
	DB	030H
	DB	0ffH
	DB	068H
	DB	04cH
	DB	038H
	DB	0ffH
	DB	060H
	DB	04cH
	DB	038H
	DB	0ffH
	DB	060H
	DB	04cH
	DB	030H
	DB	0ffH
	DB	068H
	DB	04cH
	DB	030H
	DB	0ffH
	DB	068H
	DB	048H
	DB	038H
	DB	0ffH
	DB	060H
	DB	04cH
	DB	038H
	DB	0ffH
	DB	068H
	DB	04cH
	DB	030H
	DB	0ffH
	DB	068H
	DB	04cH
	DB	038H
	DB	0ffH
	DB	060H
	DB	048H
	DB	030H
	DB	0ffH
	DB	068H
	DB	04cH
	DB	030H
	DB	00H
	DB	060H
	DB	048H
	DB	038H
	DB	00H
	DB	068H
	DB	04cH
	DB	030H
	DB	0ffH
	DB	060H
	DB	04cH
	DB	038H
	DB	0ffH
	DB	068H
	DB	048H
	DB	030H
	DB	0ffH
	DB	068H
	DB	04cH
	DB	030H
	DB	0ffH
	DB	060H
	DB	04cH
	DB	038H
	DB	0ffH
	DB	068H
	DB	04cH
	DB	030H
	DB	0ffH
	DB	068H
	DB	04cH
	DB	038H
	DB	0ffH
	DB	060H
	DB	04cH
	DB	030H
	DB	0ffH
	DB	068H
	DB	048H
	DB	030H
	DB	0ffH
	DB	060H
	DB	04cH
	DB	038H
	DB	0ffH
	DB	068H
	DB	048H
	DB	030H
	DB	075H
	DB	0c0H
	DB	0a0H
	DB	078H
	DB	00H
	DB	0c0H
	DB	0a0H
	DB	078H
	DB	00H
	DB	0c8H
	DB	0a0H
	DB	078H
	DB	0ffH
	DB	0c0H
	DB	0a4H
	DB	078H
	DB	0ffH
	DB	0c0H
	DB	0a0H
	DB	078H
	DB	0ffH
	DB	0c0H
	DB	0a0H
	DB	078H
	DB	0ffH
	DB	0c8H
	DB	0a0H
	DB	078H
	DB	00H
	DB	0c0H
	DB	0a0H
	DB	078H
	DB	00H
	DB	0c0H
	DB	0a0H
	DB	078H
	DB	00H
	DB	0c8H
	DB	0a0H
	DB	078H
	DB	00H
	DB	0c0H
	DB	0a0H
	DB	080H
	DB	00H
	DB	0c0H
	DB	0a4H
	DB	078H
	DB	00H
	DB	0c8H
	DB	0a0H
	DB	078H
	DB	00H
	DB	0c0H
	DB	0a0H
	DB	078H
	DB	00H
	DB	0c0H
	DB	0a4H
	DB	078H
	DB	00H
	DB	0c0H
	DB	0a0H
	DB	078H
	DB	00H
	DB	0c8H
	DB	0a0H
	DB	078H
	DB	00H
	DB	0c0H
	DB	0a4H
	DB	078H
	DB	00H
	DB	0c0H
	DB	0a0H
	DB	080H
	DB	00H
	DB	0c8H
	DB	0a0H
	DB	078H
	DB	00H
	DB	0c8H
	DB	0a4H
	DB	078H
	DB	00H
	DB	0c0H
	DB	0a0H
	DB	080H
	DB	00H
	DB	0c0H
	DB	0a0H
	DB	078H
	DB	00H
	DB	0c8H
	DB	0a0H
	DB	078H
	DB	00H
	DB	0c0H
	DB	0a0H
	DB	078H
	DB	00H
	DB	0c0H
	DB	0a0H
	DB	078H
	DB	00H
	DB	068H
	DB	04cH
	DB	038H
	DB	00H
	DB	068H
	DB	04cH
	DB	030H
	DB	0baH
	DB	068H
	DB	048H
	DB	030H
	DB	0ffH
	DB	068H
	DB	04cH
	DB	038H
	DB	0ffH
	DB	068H
	DB	048H
	DB	038H
	DB	0ffH
	DB	060H
	DB	04cH
	DB	030H
	DB	0ffH
	DB	068H
	DB	04cH
	DB	038H
	DB	0ffH
	DB	060H
	DB	04cH
	DB	030H
	DB	0ffH
	DB	068H
	DB	04cH
	DB	030H
	DB	0ffH
	DB	060H
	DB	04cH
	DB	038H
	DB	0ffH
	DB	068H
	DB	04cH
	DB	038H
	DB	0ffH
	DB	068H
	DB	04cH
	DB	030H
	DB	0ffH
	DB	060H
	DB	04cH
	DB	038H
	DB	00H
	DB	068H
	DB	048H
	DB	030H
	DB	00H
	DB	068H
	DB	04cH
	DB	038H
	DB	0ffH
	DB	060H
	DB	04cH
	DB	038H
	DB	0ffH
	DB	068H
	DB	04cH
	DB	030H
	DB	0ffH
	DB	068H
	DB	048H
	DB	038H
	DB	0ffH
	DB	060H
	DB	04cH
	DB	030H
	DB	0ffH
	DB	068H
	DB	048H
	DB	038H
	DB	0ffH
	DB	068H
	DB	04cH
	DB	030H
	DB	0ffH
	DB	060H
	DB	04cH
	DB	038H
	DB	0ffH
	DB	068H
	DB	04cH
	DB	038H
	DB	0ffH
	DB	068H
	DB	04cH
	DB	030H
	DB	0ffH
	DB	060H
	DB	04cH
	DB	030H
	DB	0baH
	DB	0c0H
	DB	0a0H
	DB	078H
	DB	00H
	DB	0c8H
	DB	0a0H
	DB	078H
	DB	00H
	DB	0c0H
	DB	0a0H
	DB	078H
	DB	0ffH
	DB	0c0H
	DB	0a0H
	DB	080H
	DB	0ffH
	DB	0c8H
	DB	0a4H
	DB	078H
	DB	0ffH
	DB	0c0H
	DB	0a0H
	DB	078H
	DB	0ffH
	DB	0c0H
	DB	0a0H
	DB	078H
	DB	00H
	DB	0c8H
	DB	0a4H
	DB	078H
	DB	00H
	DB	0c0H
	DB	0a4H
	DB	078H
	DB	00H
	DB	0c0H
	DB	0a0H
	DB	078H
	DB	00H
	DB	0c8H
	DB	0a0H
	DB	078H
	DB	00H
	DB	0c0H
	DB	0a4H
	DB	078H
	DB	00H
	DB	0c8H
	DB	0a0H
	DB	078H
	DB	00H
	DB	0c0H
	DB	0a0H
	DB	078H
	DB	00H
	DB	0c0H
	DB	0a0H
	DB	078H
	DB	00H
	DB	0c8H
	DB	0a0H
	DB	078H
	DB	00H
	DB	0c0H
	DB	0a0H
	DB	078H
	DB	00H
	DB	0c8H
	DB	0a4H
	DB	078H
	DB	00H
	DB	0c0H
	DB	0a0H
	DB	078H
	DB	00H
	DB	0c0H
	DB	0a0H
	DB	078H
	DB	00H
	DB	0c8H
	DB	0a0H
	DB	078H
	DB	00H
	DB	0c0H
	DB	0a4H
	DB	078H
	DB	00H
	DB	0c8H
	DB	0a0H
	DB	078H
	DB	00H
	DB	0c0H
	DB	0a0H
	DB	080H
	DB	00H
	DB	0c8H
	DB	0a4H
	DB	078H
	DB	00H
	DB	0c0H
	DB	0a0H
	DB	078H
	DB	00H
	DB	068H
	DB	04cH
	DB	038H
	DB	00H
	DB	060H
	DB	04cH
	DB	038H
	DB	0e3H
	DB	060H
	DB	04cH
	DB	030H
	DB	0ffH
	DB	068H
	DB	048H
	DB	030H
	DB	0ffH
	DB	068H
	DB	04cH
	DB	038H
	DB	0ffH
	DB	068H
	DB	04cH
	DB	030H
	DB	0ffH
	DB	060H
	DB	048H
	DB	038H
	DB	0ffH
	DB	068H
	DB	04cH
	DB	038H
	DB	0ffH
	DB	068H
	DB	048H
	DB	030H
	DB	0ffH
	DB	060H
	DB	048H
	DB	030H
	DB	0ffH
	DB	068H
	DB	04cH
	DB	038H
	DB	0ffH
	DB	068H
	DB	04cH
	DB	038H
	DB	0ffH
	DB	060H
	DB	04cH
	DB	030H
	DB	00H
	DB	068H
	DB	04cH
	DB	030H
	DB	00H
	DB	068H
	DB	048H
	DB	038H
	DB	0ffH
	DB	060H
	DB	04cH
	DB	030H
	DB	0ffH
	DB	068H
	DB	04cH
	DB	038H
	DB	0ffH
	DB	060H
	DB	04cH
	DB	030H
	DB	0ffH
	DB	068H
	DB	04cH
	DB	038H
	DB	0ffH
	DB	068H
	DB	04cH
	DB	030H
	DB	0ffH
	DB	060H
	DB	048H
	DB	030H
	DB	0ffH
	DB	068H
	DB	04cH
	DB	038H
	DB	0ffH
	DB	068H
	DB	048H
	DB	038H
	DB	0ffH
	DB	060H
	DB	04cH
	DB	030H
	DB	0ffH
	DB	068H
	DB	04cH
	DB	038H
	DB	0e3H
	DB	0c0H
	DB	0a0H
	DB	078H
	DB	00H
	DB	0c8H
	DB	0a4H
	DB	078H
	DB	00H
	DB	0c0H
	DB	0a0H
	DB	078H
	DB	0ffH
	DB	0c8H
	DB	0a0H
	DB	078H
	DB	0ffH
	DB	0c8H
	DB	0a0H
	DB	078H
	DB	0ffH
	DB	0c0H
	DB	0a4H
	DB	078H
	DB	0ffH
	DB	0c0H
	DB	0a0H
	DB	080H
	DB	0ffH
	DB	0c8H
	DB	0a0H
	DB	078H
	DB	0ffH
	DB	0c0H
	DB	0a0H
	DB	078H
	DB	0ffH
	DB	0c0H
	DB	0a0H
	DB	080H
	DB	0ffH
	DB	0c8H
	DB	0a0H
	DB	078H
	DB	0ffH
	DB	0c0H
	DB	0a0H
	DB	078H
	DB	0ffH
	DB	0c0H
	DB	0a4H
	DB	078H
	DB	0ffH
	DB	0c8H
	DB	0a0H
	DB	080H
	DB	0ffH
	DB	0c8H
	DB	0a4H
	DB	078H
	DB	0ffH
	DB	0c0H
	DB	0a0H
	DB	078H
	DB	0ffH
	DB	0c0H
	DB	0a0H
	DB	080H
	DB	0ffH
	DB	0c8H
	DB	0a0H
	DB	078H
	DB	0ffH
	DB	0c0H
	DB	0a4H
	DB	078H
	DB	0ffH
	DB	0c0H
	DB	0a0H
	DB	078H
	DB	0ffH
	DB	0c0H
	DB	0a0H
	DB	078H
	DB	0ffH
	DB	0c8H
	DB	0a0H
	DB	078H
	DB	0ffH
	DB	0c0H
	DB	0a4H
	DB	078H
	DB	0ffH
	DB	0c0H
	DB	0a0H
	DB	078H
	DB	0ffH
	DB	0c8H
	DB	0a0H
	DB	078H
	DB	01cH
	DB	0c0H
	DB	0a0H
	DB	078H
	DB	00H
	DB	068H
	DB	04cH
	DB	038H
	DB	00H
	DB	068H
	DB	04cH
	DB	030H
	DB	0f7H
	DB	060H
	DB	04cH
	DB	038H
	DB	0ffH
	DB	060H
	DB	04cH
	DB	038H
	DB	0ffH
	DB	068H
	DB	04cH
	DB	030H
	DB	0ffH
	DB	060H
	DB	04cH
	DB	030H
	DB	0ffH
	DB	068H
	DB	04cH
	DB	038H
	DB	0ffH
	DB	068H
	DB	04cH
	DB	030H
	DB	0ffH
	DB	060H
	DB	04cH
	DB	038H
	DB	0ffH
	DB	068H
	DB	04cH
	DB	030H
	DB	0ffH
	DB	060H
	DB	048H
	DB	030H
	DB	0ffH
	DB	068H
	DB	04cH
	DB	038H
	DB	0ffH
	DB	060H
	DB	04cH
	DB	030H
	DB	00H
	DB	068H
	DB	048H
	DB	038H
	DB	00H
	DB	060H
	DB	04cH
	DB	030H
	DB	0dfH
	DB	068H
	DB	04cH
	DB	038H
	DB	0ffH
	DB	068H
	DB	048H
	DB	030H
	DB	0ffH
	DB	060H
	DB	04cH
	DB	038H
	DB	0ffH
	DB	068H
	DB	04cH
	DB	038H
	DB	0ffH
	DB	060H
	DB	04cH
	DB	030H
	DB	0ffH
	DB	068H
	DB	04cH
	DB	038H
	DB	0ffH
	DB	068H
	DB	048H
	DB	030H
	DB	0ffH
	DB	060H
	DB	04cH
	DB	030H
	DB	0ffH
	DB	068H
	DB	04cH
	DB	038H
	DB	0ffH
	DB	068H
	DB	048H
	DB	030H
	DB	0f7H
	DB	0c0H
	DB	0a0H
	DB	078H
	DB	00H
	DB	0c0H
	DB	0a0H
	DB	078H
	DB	00H
	DB	0c0H
	DB	0a4H
	DB	078H
	DB	0ffH
	DB	0c0H
	DB	0a0H
	DB	078H
	DB	0ffH
	DB	0c8H
	DB	0a0H
	DB	078H
	DB	0ffH
	DB	0c0H
	DB	0a0H
	DB	078H
	DB	0ffH
	DB	0c8H
	DB	0a0H
	DB	078H
	DB	0ffH
	DB	0c0H
	DB	0a0H
	DB	078H
	DB	0ffH
	DB	0c8H
	DB	0a4H
	DB	078H
	DB	0ffH
	DB	0c0H
	DB	0a0H
	DB	078H
	DB	0ffH
	DB	0c0H
	DB	0a0H
	DB	078H
	DB	0ffH
	DB	0c8H
	DB	0a4H
	DB	078H
	DB	0ffH
	DB	0c0H
	DB	0a0H
	DB	078H
	DB	0ffH
	DB	0c0H
	DB	0a0H
	DB	078H
	DB	0ffH
	DB	0c8H
	DB	0a0H
	DB	078H
	DB	0ffH
	DB	0c0H
	DB	0a4H
	DB	078H
	DB	0ffH
	DB	0c0H
	DB	0a0H
	DB	078H
	DB	0ffH
	DB	0c8H
	DB	0a0H
	DB	078H
	DB	0ffH
	DB	0c8H
	DB	0a0H
	DB	078H
	DB	0ffH
	DB	0c0H
	DB	0a4H
	DB	080H
	DB	0ffH
	DB	0c0H
	DB	0a0H
	DB	078H
	DB	0ffH
	DB	0c8H
	DB	0a0H
	DB	078H
	DB	0ffH
	DB	0c0H
	DB	0a0H
	DB	080H
	DB	0ffH
	DB	0c0H
	DB	0a0H
	DB	078H
	DB	0ffH
	DB	0c0H
	DB	0a0H
	DB	078H
	DB	08H
	DB	0c0H
	DB	0a0H
	DB	078H
	DB	00H
	DB	068H
	DB	04cH
	DB	038H
	DB	00H
	DB	068H
	DB	04cH
	DB	030H
	DB	0f7H
	DB	068H
	DB	048H
	DB	030H
	DB	0ffH
	DB	068H
	DB	04cH
	DB	038H
	DB	0ffH
	DB	060H
	DB	048H
	DB	030H
	DB	0ffH
	DB	068H
	DB	04cH
	DB	038H
	DB	0ffH
	DB	068H
	DB	048H
	DB	030H
	DB	0ffH
	DB	060H
	DB	04cH
	DB	038H
	DB	0ffH
	DB	068H
	DB	04cH
	DB	038H
	DB	0ffH
	DB	068H
	DB	04cH
	DB	030H
	DB	0ffH
	DB	060H
	DB	04cH
	DB	038H
	DB	0ffH
	DB	068H
	DB	048H
	DB	030H
	DB	0ffH
	DB	068H
	DB	04cH
	DB	038H
	DB	020H
	DB	060H
	DB	04cH
	DB	038H
	DB	00H
	DB	068H
	DB	04cH
	DB	030H
	DB	020H
	DB	068H
	DB	04cH
	DB	030H
	DB	0dfH
	DB	060H
	DB	048H
	DB	038H
	DB	0ffH
	DB	068H
	DB	04cH
	DB	030H
	DB	0ffH
	DB	068H
	DB	048H
	DB	030H
	DB	0ffH
	DB	060H
	DB	04cH
	DB	038H
	DB	0ffH
	DB	068H
	DB	04cH
	DB	038H
	DB	0ffH
	DB	060H
	DB	04cH
	DB	030H
	DB	0ffH
	DB	060H
	DB	04cH
	DB	038H
	DB	0ffH
	DB	068H
	DB	04cH
	DB	038H
	DB	0ffH
	DB	060H
	DB	04cH
	DB	030H
	DB	0fbH
	DB	0c8H
	DB	0a0H
	DB	078H
	DB	00H
	DB	0c0H
	DB	0a0H
	DB	078H
	DB	00H
	DB	0c8H
	DB	0a0H
	DB	078H
	DB	0e7H
	DB	0c0H
	DB	0a4H
	DB	080H
	DB	0ffH
	DB	0c0H
	DB	0a0H
	DB	078H
	DB	0ffH
	DB	0c8H
	DB	0a0H
	DB	078H
	DB	0ffH
	DB	0c0H
	DB	0a4H
	DB	078H
	DB	0ffH
	DB	0c0H
	DB	0a0H
	DB	078H
	DB	0ffH
	DB	0c8H
	DB	0a0H
	DB	078H
	DB	0ffH
	DB	0c0H
	DB	0a4H
	DB	078H
	DB	0ffH
	DB	0c8H
	DB	0a0H
	DB	078H
	DB	0ffH
	DB	0c0H
	DB	0a0H
	DB	080H
	DB	0ffH
	DB	0c0H
	DB	0a0H
	DB	078H
	DB	0ffH
	DB	0c8H
	DB	0a0H
	DB	078H
	DB	0ffH
	DB	0c0H
	DB	0a0H
	DB	078H
	DB	0ffH
	DB	0c0H
	DB	0a0H
	DB	078H
	DB	0ffH
	DB	0c8H
	DB	0a4H
	DB	078H
	DB	0ffH
	DB	0c0H
	DB	0a0H
	DB	078H
	DB	0ffH
	DB	0c0H
	DB	0a0H
	DB	078H
	DB	0ffH
	DB	0c8H
	DB	0a0H
	DB	078H
	DB	0ffH
	DB	0c0H
	DB	0a4H
	DB	078H
	DB	0ffH
	DB	0c0H
	DB	0a0H
	DB	078H
	DB	0ffH
	DB	0c8H
	DB	0a0H
	DB	078H
	DB	0ffH
	DB	0c8H
	DB	0a4H
	DB	078H
	DB	0ffH
	DB	0c0H
	DB	0a0H
	DB	078H
	DB	08H
	DB	0c0H
	DB	0a0H
	DB	078H
	DB	00H
	DB	068H
	DB	04cH
	DB	038H
	DB	00H
	DB	060H
	DB	04cH
	DB	038H
	DB	0e3H
	DB	068H
	DB	04cH
	DB	030H
	DB	0ffH
	DB	068H
	DB	048H
	DB	038H
	DB	0ffH
	DB	060H
	DB	04cH
	DB	038H
	DB	0ffH
	DB	068H
	DB	04cH
	DB	030H
	DB	0ffH
	DB	068H
	DB	04cH
	DB	030H
	DB	0ffH
	DB	060H
	DB	048H
	DB	038H
	DB	0ffH
	DB	068H
	DB	04cH
	DB	030H
	DB	0ffH
	DB	068H
	DB	04cH
	DB	038H
	DB	0ffH
	DB	060H
	DB	048H
	DB	038H
	DB	0ffH
	DB	068H
	DB	04cH
	DB	030H
	DB	0ffH
	DB	068H
	DB	04cH
	DB	030H
	DB	0dfH
	DB	060H
	DB	048H
	DB	038H
	DB	01cH
	DB	068H
	DB	04cH
	DB	038H
	DB	00H
	DB	068H
	DB	04cH
	DB	030H
	DB	020H
	DB	060H
	DB	04cH
	DB	038H
	DB	0dfH
	DB	068H
	DB	04cH
	DB	038H
	DB	0ffH
	DB	068H
	DB	04cH
	DB	030H
	DB	0ffH
	DB	060H
	DB	048H
	DB	030H
	DB	0ffH
	DB	068H
	DB	04cH
	DB	038H
	DB	0ffH
	DB	068H
	DB	04cH
	DB	030H
	DB	0ffH
	DB	068H
	DB	048H
	DB	030H
	DB	0ffH
	DB	068H
	DB	04cH
	DB	038H
	DB	0ffH
	DB	060H
	DB	04cH
	DB	030H
	DB	0e3H
	DB	0c0H
	DB	0a0H
	DB	078H
	DB	00H
	DB	0c8H
	DB	0a0H
	DB	078H
	DB	00H
	DB	0c0H
	DB	0a0H
	DB	078H
	DB	049H
	DB	0c8H
	DB	0a0H
	DB	078H
	DB	0e7H
	DB	0c0H
	DB	0a4H
	DB	078H
	DB	0ffH
	DB	0c0H
	DB	0a0H
	DB	080H
	DB	0ffH
	DB	0c8H
	DB	0a0H
	DB	078H
	DB	0ffH
	DB	0c0H
	DB	0a4H
	DB	078H
	DB	0ffH
	DB	0c0H
	DB	0a0H
	DB	080H
	DB	0ffH
	DB	0c8H
	DB	0a0H
	DB	078H
	DB	0ffH
	DB	0c0H
	DB	0a0H
	DB	078H
	DB	0ffH
	DB	0c0H
	DB	0a4H
	DB	078H
	DB	0ffH
	DB	0c8H
	DB	0a0H
	DB	078H
	DB	0ffH
	DB	0c0H
	DB	0a4H
	DB	078H
	DB	0ffH
	DB	0c0H
	DB	0a0H
	DB	080H
	DB	0ffH
	DB	0c8H
	DB	0a0H
	DB	078H
	DB	0ffH
	DB	0c0H
	DB	0a4H
	DB	078H
	DB	0ffH
	DB	0c0H
	DB	0a0H
	DB	080H
	DB	0ffH
	DB	0c0H
	DB	0a0H
	DB	078H
	DB	0ffH
	DB	0c8H
	DB	0a0H
	DB	078H
	DB	0ffH
	DB	0c0H
	DB	0a0H
	DB	078H
	DB	0ffH
	DB	0c0H
	DB	0a4H
	DB	078H
	DB	0ffH
	DB	0c8H
	DB	0a0H
	DB	078H
	DB	0ffH
	DB	0c0H
	DB	0a0H
	DB	078H
	DB	0ffH
	DB	0c8H
	DB	0a4H
	DB	078H
	DB	01cH
	DB	0c8H
	DB	0a0H
	DB	078H
	DB	00H
	DB	068H
	DB	04cH
	DB	038H
	DB	00H
	DB	060H
	DB	04cH
	DB	030H
	DB	0baH
	DB	068H
	DB	04cH
	DB	030H
	DB	0ffH
	DB	060H
	DB	04cH
	DB	038H
	DB	0ffH
	DB	068H
	DB	04cH
	DB	030H
	DB	0ffH
	DB	060H
	DB	04cH
	DB	038H
	DB	0ffH
	DB	068H
	DB	04cH
	DB	038H
	DB	0ffH
	DB	060H
	DB	048H
	DB	030H
	DB	0ffH
	DB	068H
	DB	04cH
	DB	030H
	DB	0ffH
	DB	060H
	DB	04cH
	DB	038H
	DB	0ffH
	DB	068H
	DB	04cH
	DB	030H
	DB	0ffH
	DB	068H
	DB	04cH
	DB	038H
	DB	0ffH
	DB	060H
	DB	04cH
	DB	030H
	DB	0ffH
	DB	068H
	DB	048H
	DB	030H
	DB	0dbH
	DB	060H
	DB	04cH
	DB	038H
	DB	01cH
	DB	068H
	DB	04cH
	DB	030H
	DB	00H
	DB	060H
	DB	048H
	DB	030H
	DB	020H
	DB	068H
	DB	04cH
	DB	038H
	DB	0dfH
	DB	060H
	DB	04cH
	DB	038H
	DB	0ffH
	DB	068H
	DB	048H
	DB	030H
	DB	0ffH
	DB	068H
	DB	04cH
	DB	038H
	DB	0ffH
	DB	060H
	DB	04cH
	DB	038H
	DB	0ffH
	DB	068H
	DB	048H
	DB	030H
	DB	0ffH
	DB	068H
	DB	04cH
	DB	038H
	DB	0ffH
	DB	068H
	DB	04cH
	DB	038H
	DB	0b6H
	DB	0c0H
	DB	0a0H
	DB	078H
	DB	00H
	DB	0c0H
	DB	0a4H
	DB	078H
	DB	00H
	DB	0c0H
	DB	0a0H
	DB	078H
	DB	00H
	DB	0c8H
	DB	0a0H
	DB	078H
	DB	00H
	DB	0c0H
	DB	0a0H
	DB	078H
	DB	00H
	DB	0c0H
	DB	0a0H
	DB	078H
	DB	00H
	DB	0c8H
	DB	0a0H
	DB	078H
	DB	00H
	DB	0c0H
	DB	0a0H
	DB	078H
	DB	00H
	DB	0c0H
	DB	0a4H
	DB	078H
	DB	00H
	DB	0c8H
	DB	0a0H
	DB	078H
	DB	00H
	DB	0c0H
	DB	0a0H
	DB	078H
	DB	00H
	DB	0c8H
	DB	0a0H
	DB	078H
	DB	00H
	DB	0c0H
	DB	0a4H
	DB	078H
	DB	00H
	DB	0c8H
	DB	0a0H
	DB	078H
	DB	00H
	DB	0c0H
	DB	0a0H
	DB	078H
	DB	00H
	DB	0c8H
	DB	0a0H
	DB	078H
	DB	00H
	DB	0c0H
	DB	0a0H
	DB	078H
	DB	00H
	DB	0c8H
	DB	0a4H
	DB	078H
	DB	00H
	DB	0c8H
	DB	0a0H
	DB	078H
	DB	00H
	DB	0c0H
	DB	0a0H
	DB	080H
	DB	00H
	DB	0c8H
	DB	0a4H
	DB	078H
	DB	00H
	DB	0c0H
	DB	0a0H
	DB	078H
	DB	00H
	DB	0c0H
	DB	0a0H
	DB	080H
	DB	00H
	DB	0c0H
	DB	0a0H
	DB	078H
	DB	00H
	DB	0c0H
	DB	0a0H
	DB	078H
	DB	00H
	DB	0c0H
	DB	0a0H
	DB	078H
	DB	00H
	DB	068H
	DB	04cH
	DB	038H
	DB	00H
	DB	068H
	DB	04cH
	DB	038H
	DB	079H
	DB	060H
	DB	048H
	DB	030H
	DB	0ffH
	DB	068H
	DB	04cH
	DB	030H
	DB	0ffH
	DB	068H
	DB	048H
	DB	038H
	DB	0ffH
	DB	068H
	DB	04cH
	DB	030H
	DB	0ffH
	DB	060H
	DB	04cH
	DB	038H
	DB	0ffH
	DB	068H
	DB	04cH
	DB	030H
	DB	0ffH
	DB	068H
	DB	048H
	DB	038H
	DB	0ffH
	DB	060H
	DB	04cH
	DB	030H
	DB	0ffH
	DB	068H
	DB	048H
	DB	030H
	DB	0ffH
	DB	060H
	DB	04cH
	DB	038H
	DB	0ffH
	DB	068H
	DB	04cH
	DB	038H
	DB	0ffH
	DB	068H
	DB	04cH
	DB	030H
	DB	0ffH
	DB	060H
	DB	04cH
	DB	038H
	DB	0dbH
	DB	068H
	DB	048H
	DB	038H
	DB	01cH
	DB	068H
	DB	04cH
	DB	030H
	DB	00H
	DB	060H
	DB	04cH
	DB	030H
	DB	030H
	DB	068H
	DB	04cH
	DB	038H
	DB	0ffH
	DB	068H
	DB	04cH
	DB	030H
	DB	0ffH
	DB	060H
	DB	04cH
	DB	030H
	DB	0ffH
	DB	060H
	DB	04cH
	DB	038H
	DB	0ffH
	DB	068H
	DB	04cH
	DB	030H
	DB	0ffH
	DB	060H
	DB	048H
	DB	030H
	DB	0ffH
	DB	060H
	DB	04cH
	DB	038H
	DB	079H
	DB	0c0H
	DB	0a0H
	DB	078H
	DB	00H
	DB	0c8H
	DB	0a0H
	DB	078H
	DB	00H
	DB	0c0H
	DB	0a4H
	DB	078H
	DB	00H
	DB	0c0H
	DB	0a0H
	DB	080H
	DB	00H
	DB	0c8H
	DB	0a4H
	DB	078H
	DB	00H
	DB	0c0H
	DB	0a0H
	DB	078H
	DB	00H
	DB	0c8H
	DB	0a0H
	DB	078H
	DB	00H
	DB	0c0H
	DB	0a4H
	DB	078H
	DB	00H
	DB	0c8H
	DB	0a0H
	DB	078H
	DB	00H
	DB	0c0H
	DB	0a0H
	DB	080H
	DB	00H
	DB	0c0H
	DB	0a0H
	DB	078H
	DB	00H
	DB	0c8H
	DB	0a0H
	DB	078H
	DB	00H
	DB	0c0H
	DB	0a0H
	DB	080H
	DB	00H
	DB	0c0H
	DB	0a0H
	DB	078H
	DB	00H
	DB	0c8H
	DB	0a4H
	DB	078H
	DB	00H
	DB	0c0H
	DB	0a0H
	DB	078H
	DB	00H
	DB	0c0H
	DB	0a0H
	DB	078H
	DB	00H
	DB	0c0H
	DB	0a0H
	DB	078H
	DB	00H
	DB	0c0H
	DB	0a4H
	DB	078H
	DB	00H
	DB	0c0H
	DB	0a0H
	DB	078H
	DB	00H
	DB	0c8H
	DB	0a0H
	DB	078H
	DB	00H
	DB	0c8H
	DB	0a0H
	DB	078H
	DB	00H
	DB	0c0H
	DB	0a4H
	DB	078H
	DB	00H
	DB	0c8H
	DB	0a0H
	DB	078H
	DB	00H
	DB	0c0H
	DB	0a0H
	DB	078H
	DB	00H
	DB	0c0H
	DB	0a0H
	DB	078H
	DB	00H
	DB	068H
	DB	04cH
	DB	038H
	DB	00H
	DB	068H
	DB	04cH
	DB	038H
	DB	020H
	DB	060H
	DB	04cH
	DB	030H
	DB	0fbH
	DB	068H
	DB	04cH
	DB	038H
	DB	0ffH
	DB	068H
	DB	048H
	DB	038H
	DB	0ffH
	DB	060H
	DB	04cH
	DB	030H
	DB	0ffH
	DB	068H
	DB	04cH
	DB	030H
	DB	0ffH
	DB	068H
	DB	048H
	DB	038H
	DB	0ffH
	DB	060H
	DB	04cH
	DB	038H
	DB	0ffH
	DB	068H
	DB	04cH
	DB	030H
	DB	0ffH
	DB	068H
	DB	04cH
	DB	038H
	DB	0ffH
	DB	060H
	DB	048H
	DB	030H
	DB	0ffH
	DB	068H
	DB	04cH
	DB	038H
	DB	0ffH
	DB	068H
	DB	04cH
	DB	030H
	DB	0ffH
	DB	060H
	DB	048H
	DB	030H
	DB	0ffH
	DB	068H
	DB	04cH
	DB	038H
	DB	0dbH
	DB	068H
	DB	04cH
	DB	038H
	DB	028H
	DB	060H
	DB	048H
	DB	030H
	DB	04dH
	DB	068H
	DB	04cH
	DB	038H
	DB	0ffH
	DB	068H
	DB	048H
	DB	038H
	DB	0ffH
	DB	060H
	DB	04cH
	DB	030H
	DB	0ffH
	DB	068H
	DB	04cH
	DB	038H
	DB	0ffH
	DB	068H
	DB	048H
	DB	038H
	DB	0ffH
	DB	068H
	DB	04cH
	DB	030H
	DB	0fbH
	DB	060H
	DB	04cH
	DB	030H
	DB	020H
	DB	0f8H
	DB	0fcH
	DB	0f8H
	DB	00H
	DB	0f8H
	DB	0fcH
	DB	0f8H
	DB	00H
	DB	0f8H
	DB	0fcH
	DB	0f8H
	DB	00H
	DB	0f8H
	DB	0fcH
	DB	0f8H
	DB	00H
	DB	0f8H
	DB	0fcH
	DB	0f8H
	DB	00H
	DB	0f8H
	DB	0fcH
	DB	0f8H
	DB	00H
	DB	0f8H
	DB	0fcH
	DB	0f8H
	DB	00H
	DB	0f8H
	DB	0fcH
	DB	0f8H
	DB	00H
	DB	0f8H
	DB	0fcH
	DB	0f8H
	DB	00H
	DB	0f8H
	DB	0fcH
	DB	0f8H
	DB	00H
	DB	0f8H
	DB	0fcH
	DB	0f8H
	DB	00H
	DB	0f8H
	DB	0fcH
	DB	0f8H
	DB	00H
	DB	0f8H
	DB	0fcH
	DB	0f8H
	DB	00H
	DB	0f8H
	DB	0fcH
	DB	0f8H
	DB	00H
	DB	0f8H
	DB	0fcH
	DB	0f8H
	DB	00H
	DB	0f8H
	DB	0fcH
	DB	0f8H
	DB	00H
	DB	0f8H
	DB	0fcH
	DB	0f8H
	DB	00H
	DB	0f8H
	DB	0fcH
	DB	0f8H
	DB	00H
	DB	0f8H
	DB	0fcH
	DB	0f8H
	DB	00H
	DB	0f8H
	DB	0fcH
	DB	0f8H
	DB	00H
	DB	0f8H
	DB	0fcH
	DB	0f8H
	DB	00H
	DB	0f8H
	DB	0fcH
	DB	0f8H
	DB	00H
	DB	0f8H
	DB	0fcH
	DB	0f8H
	DB	00H
	DB	0f8H
	DB	0fcH
	DB	0f8H
	DB	00H
	DB	0f8H
	DB	0fcH
	DB	0f8H
	DB	00H
	DB	0f8H
	DB	0fcH
	DB	0f8H
	DB	00H
	DB	068H
	DB	04cH
	DB	038H
	DB	00H
	DB	060H
	DB	04cH
	DB	030H
	DB	00H
	DB	068H
	DB	04cH
	DB	030H
	DB	0a6H
	DB	060H
	DB	04cH
	DB	038H
	DB	0ffH
	DB	060H
	DB	04cH
	DB	030H
	DB	0ffH
	DB	068H
	DB	04cH
	DB	038H
	DB	0ffH
	DB	068H
	DB	048H
	DB	030H
	DB	0ffH
	DB	060H
	DB	04cH
	DB	038H
	DB	0ffH
	DB	068H
	DB	04cH
	DB	030H
	DB	0ffH
	DB	068H
	DB	04cH
	DB	038H
	DB	0ffH
	DB	060H
	DB	04cH
	DB	030H
	DB	0ffH
	DB	068H
	DB	04cH
	DB	038H
	DB	0ffH
	DB	060H
	DB	048H
	DB	030H
	DB	0ffH
	DB	068H
	DB	04cH
	DB	038H
	DB	0ffH
	DB	068H
	DB	04cH
	DB	030H
	DB	0ffH
	DB	060H
	DB	04cH
	DB	030H
	DB	0ffH
	DB	068H
	DB	04cH
	DB	038H
	DB	0ffH
	DB	060H
	DB	04cH
	DB	030H
	DB	0ffH
	DB	068H
	DB	048H
	DB	030H
	DB	0ffH
	DB	068H
	DB	04cH
	DB	038H
	DB	0ffH
	DB	060H
	DB	04cH
	DB	030H
	DB	0ffH
	DB	068H
	DB	048H
	DB	030H
	DB	0ffH
	DB	068H
	DB	04cH
	DB	038H
	DB	0ffH
	DB	060H
	DB	04cH
	DB	038H
	DB	0a6H
	DB	068H
	DB	04cH
	DB	030H
	DB	00H
	DB	0f8H
	DB	0fcH
	DB	0f8H
	DB	00H
	DB	0f8H
	DB	0fcH
	DB	0f8H
	DB	00H
	DB	0f8H
	DB	0fcH
	DB	0f8H
	DB	00H
	DB	0f8H
	DB	0fcH
	DB	0f8H
	DB	00H
	DB	0f8H
	DB	0fcH
	DB	0f8H
	DB	00H
	DB	0f8H
	DB	0fcH
	DB	0f8H
	DB	00H
	DB	0f8H
	DB	0fcH
	DB	0f8H
	DB	00H
	DB	0f8H
	DB	0fcH
	DB	0f8H
	DB	00H
	DB	0f8H
	DB	0fcH
	DB	0f8H
	DB	00H
	DB	0f8H
	DB	0fcH
	DB	0f8H
	DB	00H
	DB	0f8H
	DB	0fcH
	DB	0f8H
	DB	00H
	DB	0f8H
	DB	0fcH
	DB	0f8H
	DB	00H
	DB	0f8H
	DB	0fcH
	DB	0f8H
	DB	00H
	DB	0f8H
	DB	0fcH
	DB	0f8H
	DB	00H
	DB	0f8H
	DB	0fcH
	DB	0f8H
	DB	00H
	DB	0f8H
	DB	0fcH
	DB	0f8H
	DB	00H
	DB	0f8H
	DB	0fcH
	DB	0f8H
	DB	00H
	DB	0f8H
	DB	0fcH
	DB	0f8H
	DB	00H
	DB	0f8H
	DB	0fcH
	DB	0f8H
	DB	00H
	DB	0f8H
	DB	0fcH
	DB	0f8H
	DB	00H
	DB	0f8H
	DB	0fcH
	DB	0f8H
	DB	00H
	DB	0f8H
	DB	0fcH
	DB	0f8H
	DB	00H
	DB	0f8H
	DB	0fcH
	DB	0f8H
	DB	00H
	DB	0f8H
	DB	0fcH
	DB	0f8H
	DB	00H
	DB	0f8H
	DB	0fcH
	DB	0f8H
	DB	00H
	DB	0f8H
	DB	0fcH
	DB	0f8H
	DB	00H
	DB	068H
	DB	04cH
	DB	038H
	DB	00H
	DB	068H
	DB	04cH
	DB	030H
	DB	00H
	DB	068H
	DB	048H
	DB	038H
	DB	020H
	DB	068H
	DB	048H
	DB	030H
	DB	0f3H
	DB	060H
	DB	04cH
	DB	038H
	DB	0ffH
	DB	068H
	DB	04cH
	DB	030H
	DB	0ffH
	DB	060H
	DB	04cH
	DB	038H
	DB	0ffH
	DB	068H
	DB	04cH
	DB	030H
	DB	0ffH
	DB	060H
	DB	048H
	DB	038H
	DB	0ffH
	DB	068H
	DB	04cH
	DB	030H
	DB	0ffH
	DB	068H
	DB	04cH
	DB	038H
	DB	0ffH
	DB	060H
	DB	048H
	DB	030H
	DB	0ffH
	DB	068H
	DB	04cH
	DB	038H
	DB	0ffH
	DB	060H
	DB	04cH
	DB	038H
	DB	0ffH
	DB	068H
	DB	048H
	DB	038H
	DB	0ffH
	DB	068H
	DB	04cH
	DB	030H
	DB	0ffH
	DB	060H
	DB	04cH
	DB	038H
	DB	0ffH
	DB	068H
	DB	04cH
	DB	038H
	DB	0ffH
	DB	068H
	DB	04cH
	DB	030H
	DB	0ffH
	DB	060H
	DB	04cH
	DB	038H
	DB	0ffH
	DB	068H
	DB	04cH
	DB	038H
	DB	0ffH
	DB	060H
	DB	04cH
	DB	030H
	DB	0ffH
	DB	068H
	DB	04cH
	DB	030H
	DB	0f3H
	DB	068H
	DB	048H
	DB	038H
	DB	020H
	DB	060H
	DB	04cH
	DB	038H
	DB	00H
	DB	0f8H
	DB	0fcH
	DB	0f8H
	DB	00H
	DB	0f8H
	DB	0fcH
	DB	0f8H
	DB	00H
	DB	0f8H
	DB	0fcH
	DB	0f8H
	DB	00H
	DB	0f8H
	DB	0fcH
	DB	0f8H
	DB	00H
	DB	0f8H
	DB	0fcH
	DB	0f8H
	DB	00H
	DB	0f8H
	DB	0fcH
	DB	0f8H
	DB	00H
	DB	0f8H
	DB	0fcH
	DB	0f8H
	DB	00H
	DB	0f8H
	DB	0fcH
	DB	0f8H
	DB	00H
	DB	0f8H
	DB	0fcH
	DB	0f8H
	DB	00H
	DB	0f8H
	DB	0fcH
	DB	0f8H
	DB	00H
	DB	0f8H
	DB	0fcH
	DB	0f8H
	DB	00H
	DB	0f8H
	DB	0fcH
	DB	0f8H
	DB	00H
	DB	0f8H
	DB	0fcH
	DB	0f8H
	DB	00H
	DB	0f8H
	DB	0fcH
	DB	0f8H
	DB	00H
	DB	0f8H
	DB	0fcH
	DB	0f8H
	DB	00H
	DB	0f8H
	DB	0fcH
	DB	0f8H
	DB	00H
	DB	0f8H
	DB	0fcH
	DB	0f8H
	DB	00H
	DB	0f8H
	DB	0fcH
	DB	0f8H
	DB	00H
	DB	0f8H
	DB	0fcH
	DB	0f8H
	DB	00H
	DB	0f8H
	DB	0fcH
	DB	0f8H
	DB	00H
	DB	0f8H
	DB	0fcH
	DB	0f8H
	DB	00H
	DB	0f8H
	DB	0fcH
	DB	0f8H
	DB	00H
	DB	0f8H
	DB	0fcH
	DB	0f8H
	DB	00H
	DB	0f8H
	DB	0fcH
	DB	0f8H
	DB	00H
	DB	0f8H
	DB	0fcH
	DB	0f8H
	DB	00H
	DB	0f8H
	DB	0fcH
	DB	0f8H
	DB	00H
	DB	068H
	DB	04cH
	DB	038H
	DB	00H
	DB	060H
	DB	04cH
	DB	030H
	DB	00H
	DB	060H
	DB	04cH
	DB	038H
	DB	00H
	DB	068H
	DB	04cH
	DB	038H
	DB	059H
	DB	068H
	DB	048H
	DB	030H
	DB	0ffH
	DB	060H
	DB	04cH
	DB	038H
	DB	0ffH
	DB	068H
	DB	04cH
	DB	030H
	DB	0ffH
	DB	068H
	DB	048H
	DB	038H
	DB	0ffH
	DB	060H
	DB	04cH
	DB	030H
	DB	0ffH
	DB	068H
	DB	04cH
	DB	038H
	DB	0ffH
	DB	068H
	DB	048H
	DB	030H
	DB	0ffH
	DB	060H
	DB	04cH
	DB	030H
	DB	0ffH
	DB	068H
	DB	04cH
	DB	038H
	DB	0ffH
	DB	068H
	DB	04cH
	DB	030H
	DB	0ffH
	DB	060H
	DB	048H
	DB	030H
	DB	0ffH
	DB	068H
	DB	04cH
	DB	038H
	DB	0ffH
	DB	068H
	DB	048H
	DB	030H
	DB	0ffH
	DB	060H
	DB	048H
	DB	038H
	DB	0ffH
	DB	068H
	DB	04cH
	DB	030H
	DB	0ffH
	DB	068H
	DB	048H
	DB	030H
	DB	0ffH
	DB	060H
	DB	04cH
	DB	038H
	DB	0ffH
	DB	068H
	DB	04cH
	DB	038H
	DB	0ffH
	DB	068H
	DB	048H
	DB	030H
	DB	059H
	DB	060H
	DB	04cH
	DB	030H
	DB	00H
	DB	068H
	DB	04cH
	DB	038H
	DB	00H
	DB	0f8H
	DB	0fcH
	DB	0f8H
	DB	00H
	DB	0f8H
	DB	0fcH
	DB	0f8H
	DB	00H
	DB	0f8H
	DB	0fcH
	DB	0f8H
	DB	00H
	DB	0f8H
	DB	0fcH
	DB	0f8H
	DB	00H
	DB	0f8H
	DB	0fcH
	DB	0f8H
	DB	00H
	DB	0f8H
	DB	0fcH
	DB	0f8H
	DB	00H
	DB	0f8H
	DB	0fcH
	DB	0f8H
	DB	00H
	DB	0f8H
	DB	0fcH
	DB	0f8H
	DB	00H
	DB	0f8H
	DB	0fcH
	DB	0f8H
	DB	00H
	DB	0f8H
	DB	0fcH
	DB	0f8H
	DB	00H
	DB	0f8H
	DB	0fcH
	DB	0f8H
	DB	00H
	DB	0f8H
	DB	0fcH
	DB	0f8H
	DB	00H
	DB	0f8H
	DB	0fcH
	DB	0f8H
	DB	00H
	DB	0f8H
	DB	0fcH
	DB	0f8H
	DB	00H
	DB	0f8H
	DB	0fcH
	DB	0f8H
	DB	00H
	DB	0f8H
	DB	0fcH
	DB	0f8H
	DB	00H
	DB	0f8H
	DB	0fcH
	DB	0f8H
	DB	00H
	DB	0f8H
	DB	0fcH
	DB	0f8H
	DB	00H
	DB	0f8H
	DB	0fcH
	DB	0f8H
	DB	00H
	DB	0f8H
	DB	0fcH
	DB	0f8H
	DB	00H
	DB	0f8H
	DB	0fcH
	DB	0f8H
	DB	00H
	DB	0f8H
	DB	0fcH
	DB	0f8H
	DB	00H
	DB	0f8H
	DB	0fcH
	DB	0f8H
	DB	00H
	DB	0f8H
	DB	0fcH
	DB	0f8H
	DB	00H
	DB	0f8H
	DB	0fcH
	DB	0f8H
	DB	00H
	DB	0f8H
	DB	0fcH
	DB	0f8H
	DB	00H
	DB	068H
	DB	04cH
	DB	038H
	DB	00H
	DB	060H
	DB	04cH
	DB	030H
	DB	00H
	DB	068H
	DB	04cH
	DB	030H
	DB	00H
	DB	068H
	DB	04cH
	DB	038H
	DB	00H
	DB	060H
	DB	04cH
	DB	030H
	DB	06dH
	DB	068H
	DB	048H
	DB	030H
	DB	0ffH
	DB	068H
	DB	04cH
	DB	038H
	DB	0ffH
	DB	060H
	DB	04cH
	DB	030H
	DB	0ffH
	DB	068H
	DB	04cH
	DB	038H
	DB	0ffH
	DB	060H
	DB	04cH
	DB	038H
	DB	0ffH
	DB	068H
	DB	04cH
	DB	030H
	DB	0ffH
	DB	068H
	DB	04cH
	DB	038H
	DB	0ffH
	DB	060H
	DB	04cH
	DB	038H
	DB	0ffH
	DB	068H
	DB	04cH
	DB	030H
	DB	0ffH
	DB	060H
	DB	04cH
	DB	030H
	DB	0ffH
	DB	068H
	DB	04cH
	DB	038H
	DB	0ffH
	DB	060H
	DB	04cH
	DB	030H
	DB	0ffH
	DB	068H
	DB	04cH
	DB	038H
	DB	0ffH
	DB	060H
	DB	04cH
	DB	038H
	DB	0ffH
	DB	068H
	DB	04cH
	DB	030H
	DB	0ffH
	DB	068H
	DB	048H
	DB	030H
	DB	0ffH
	DB	060H
	DB	04cH
	DB	038H
	DB	071H
	DB	068H
	DB	04cH
	DB	038H
	DB	00H
	DB	068H
	DB	04cH
	DB	030H
	DB	00H
	DB	060H
	DB	04cH
	DB	030H
	DB	00H
	DB	0f8H
	DB	0fcH
	DB	0f8H
	DB	00H
	DB	0f8H
	DB	0fcH
	DB	0f8H
	DB	00H
	DB	0f8H
	DB	0fcH
	DB	0f8H
	DB	00H
	DB	0f8H
	DB	0fcH
	DB	0f8H
	DB	00H
	DB	0f8H
	DB	0fcH
	DB	0f8H
	DB	00H
	DB	0f8H
	DB	0fcH
	DB	0f8H
	DB	00H
	DB	0f8H
	DB	0fcH
	DB	0f8H
	DB	00H
	DB	0f8H
	DB	0fcH
	DB	0f8H
	DB	00H
	DB	0f8H
	DB	0fcH
	DB	0f8H
	DB	00H
	DB	0f8H
	DB	0fcH
	DB	0f8H
	DB	00H
	DB	0f8H
	DB	0fcH
	DB	0f8H
	DB	00H
	DB	0f8H
	DB	0fcH
	DB	0f8H
	DB	00H
	DB	0f8H
	DB	0fcH
	DB	0f8H
	DB	00H
	DB	0f8H
	DB	0fcH
	DB	0f8H
	DB	00H
	DB	0f8H
	DB	0fcH
	DB	0f8H
	DB	00H
	DB	0f8H
	DB	0fcH
	DB	0f8H
	DB	00H
	DB	0f8H
	DB	0fcH
	DB	0f8H
	DB	00H
	DB	0f8H
	DB	0fcH
	DB	0f8H
	DB	00H
	DB	0f8H
	DB	0fcH
	DB	0f8H
	DB	00H
	DB	0f8H
	DB	0fcH
	DB	0f8H
	DB	00H
	DB	0f8H
	DB	0fcH
	DB	0f8H
	DB	00H
	DB	0f8H
	DB	0fcH
	DB	0f8H
	DB	00H
	DB	0f8H
	DB	0fcH
	DB	0f8H
	DB	00H
	DB	0f8H
	DB	0fcH
	DB	0f8H
	DB	00H
	DB	0f8H
	DB	0fcH
	DB	0f8H
	DB	00H
	DB	0f8H
	DB	0fcH
	DB	0f8H
	DB	00H
	DB	068H
	DB	04cH
	DB	038H
	DB	00H
	DB	068H
	DB	048H
	DB	030H
	DB	00H
	DB	060H
	DB	048H
	DB	038H
	DB	00H
	DB	068H
	DB	04cH
	DB	030H
	DB	00H
	DB	068H
	DB	04cH
	DB	038H
	DB	00H
	DB	060H
	DB	04cH
	DB	038H
	DB	04dH
	DB	068H
	DB	048H
	DB	030H
	DB	0f3H
	DB	068H
	DB	04cH
	DB	030H
	DB	0ffH
	DB	060H
	DB	048H
	DB	038H
	DB	0ffH
	DB	068H
	DB	04cH
	DB	030H
	DB	0ffH
	DB	060H
	DB	048H
	DB	030H
	DB	0ffH
	DB	068H
	DB	048H
	DB	038H
	DB	0ffH
	DB	068H
	DB	04cH
	DB	030H
	DB	0ffH
	DB	060H
	DB	048H
	DB	038H
	DB	0ffH
	DB	068H
	DB	04cH
	DB	038H
	DB	0ffH
	DB	068H
	DB	04cH
	DB	030H
	DB	0ffH
	DB	060H
	DB	04cH
	DB	038H
	DB	0ffH
	DB	068H
	DB	048H
	DB	030H
	DB	0ffH
	DB	068H
	DB	04cH
	DB	038H
	DB	0ffH
	DB	060H
	DB	04cH
	DB	030H
	DB	0f3H
	DB	068H
	DB	04cH
	DB	038H
	DB	059H
	DB	060H
	DB	048H
	DB	030H
	DB	00H
	DB	068H
	DB	04cH
	DB	038H
	DB	00H
	DB	068H
	DB	048H
	DB	038H
	DB	00H
	DB	060H
	DB	04cH
	DB	030H
	DB	00H
	DB	0f8H
	DB	0fcH
	DB	0f8H
	DB	00H
	DB	0f8H
	DB	0fcH
	DB	0f8H
	DB	00H
	DB	0f8H
	DB	0fcH
	DB	0f8H
	DB	00H
	DB	0f8H
	DB	0fcH
	DB	0f8H
	DB	00H
	DB	0f8H
	DB	0fcH
	DB	0f8H
	DB	00H
	DB	0f8H
	DB	0fcH
	DB	0f8H
	DB	00H
	DB	0f8H
	DB	0fcH
	DB	0f8H
	DB	00H
	DB	0f8H
	DB	0fcH
	DB	0f8H
	DB	00H
	DB	0f8H
	DB	0fcH
	DB	0f8H
	DB	00H
	DB	0f8H
	DB	0fcH
	DB	0f8H
	DB	00H
	DB	0f8H
	DB	0fcH
	DB	0f8H
	DB	00H
	DB	0f8H
	DB	0fcH
	DB	0f8H
	DB	00H
	DB	0f8H
	DB	0fcH
	DB	0f8H
	DB	00H
	DB	0f8H
	DB	0fcH
	DB	0f8H
	DB	00H
	DB	0f8H
	DB	0fcH
	DB	0f8H
	DB	00H
	DB	0f8H
	DB	0fcH
	DB	0f8H
	DB	00H
	DB	0f8H
	DB	0fcH
	DB	0f8H
	DB	00H
	DB	0f8H
	DB	0fcH
	DB	0f8H
	DB	00H
	DB	0f8H
	DB	0fcH
	DB	0f8H
	DB	00H
	DB	0f8H
	DB	0fcH
	DB	0f8H
	DB	00H
	DB	0f8H
	DB	0fcH
	DB	0f8H
	DB	00H
	DB	0f8H
	DB	0fcH
	DB	0f8H
	DB	00H
	DB	0f8H
	DB	0fcH
	DB	0f8H
	DB	00H
	DB	0f8H
	DB	0fcH
	DB	0f8H
	DB	00H
	DB	0f8H
	DB	0fcH
	DB	0f8H
	DB	00H
	DB	0f8H
	DB	0fcH
	DB	0f8H
	DB	00H
	DB	068H
	DB	04cH
	DB	038H
	DB	00H
	DB	060H
	DB	04cH
	DB	030H
	DB	00H
	DB	068H
	DB	04cH
	DB	038H
	DB	00H
	DB	068H
	DB	048H
	DB	030H
	DB	00H
	DB	060H
	DB	04cH
	DB	038H
	DB	00H
	DB	068H
	DB	04cH
	DB	038H
	DB	00H
	DB	060H
	DB	04cH
	DB	030H
	DB	01cH
	DB	068H
	DB	04cH
	DB	038H
	DB	0a6H
	DB	068H
	DB	04cH
	DB	038H
	DB	0ffH
	DB	060H
	DB	04cH
	DB	030H
	DB	0ffH
	DB	068H
	DB	04cH
	DB	038H
	DB	0ffH
	DB	068H
	DB	04cH
	DB	030H
	DB	0ffH
	DB	060H
	DB	04cH
	DB	030H
	DB	0ffH
	DB	068H
	DB	04cH
	DB	038H
	DB	0ffH
	DB	068H
	DB	048H
	DB	030H
	DB	0ffH
	DB	060H
	DB	04cH
	DB	038H
	DB	0ffH
	DB	068H
	DB	04cH
	DB	030H
	DB	0ffH
	DB	068H
	DB	048H
	DB	030H
	DB	0fbH
	DB	060H
	DB	04cH
	DB	038H
	DB	0a6H
	DB	068H
	DB	04cH
	DB	038H
	DB	020H
	DB	068H
	DB	04cH
	DB	030H
	DB	00H
	DB	060H
	DB	04cH
	DB	030H
	DB	00H
	DB	068H
	DB	04cH
	DB	030H
	DB	00H
	DB	068H
	DB	04cH
	DB	038H
	DB	00H
	DB	060H
	DB	048H
	DB	038H
	DB	00H
	DB	0f8H
	DB	0fcH
	DB	0f8H
	DB	00H
	DB	0f8H
	DB	0fcH
	DB	0f8H
	DB	00H
	DB	0f8H
	DB	0fcH
	DB	0f8H
	DB	00H
	DB	0f8H
	DB	0fcH
	DB	0f8H
	DB	00H
	DB	0f8H
	DB	0fcH
	DB	0f8H
	DB	00H
	DB	0f8H
	DB	0fcH
	DB	0f8H
	DB	00H
	DB	0f8H
	DB	0fcH
	DB	0f8H
	DB	00H
	DB	0f8H
	DB	0fcH
	DB	0f8H
	DB	00H
	DB	0f8H
	DB	0fcH
	DB	0f8H
	DB	00H
	DB	0f8H
	DB	0fcH
	DB	0f8H
	DB	00H
	DB	0f8H
	DB	0fcH
	DB	0f8H
	DB	00H
	DB	0f8H
	DB	0fcH
	DB	0f8H
	DB	00H
	DB	0f8H
	DB	0fcH
	DB	0f8H
	DB	00H
	DB	0f8H
	DB	0fcH
	DB	0f8H
	DB	00H
	DB	0f8H
	DB	0fcH
	DB	0f8H
	DB	00H
	DB	0f8H
	DB	0fcH
	DB	0f8H
	DB	00H
	DB	0f8H
	DB	0fcH
	DB	0f8H
	DB	00H
	DB	0f8H
	DB	0fcH
	DB	0f8H
	DB	00H
	DB	0f8H
	DB	0fcH
	DB	0f8H
	DB	00H
	DB	0f8H
	DB	0fcH
	DB	0f8H
	DB	00H
	DB	0f8H
	DB	0fcH
	DB	0f8H
	DB	00H
	DB	0f8H
	DB	0fcH
	DB	0f8H
	DB	00H
	DB	0f8H
	DB	0fcH
	DB	0f8H
	DB	00H
	DB	0f8H
	DB	0fcH
	DB	0f8H
	DB	00H
	DB	0f8H
	DB	0fcH
	DB	0f8H
	DB	00H
	DB	0f8H
	DB	0fcH
	DB	0f8H
	DB	00H
	DB	060H
	DB	04cH
	DB	030H
	DB	00H
	DB	068H
	DB	04cH
	DB	038H
	DB	00H
	DB	068H
	DB	04cH
	DB	030H
	DB	00H
	DB	060H
	DB	04cH
	DB	030H
	DB	00H
	DB	068H
	DB	048H
	DB	030H
	DB	00H
	DB	068H
	DB	04cH
	DB	038H
	DB	00H
	DB	060H
	DB	04cH
	DB	030H
	DB	00H
	DB	068H
	DB	048H
	DB	030H
	DB	00H
	DB	068H
	DB	04cH
	DB	038H
	DB	01cH
	DB	060H
	DB	04cH
	DB	038H
	DB	079H
	DB	068H
	DB	048H
	DB	030H
	DB	0baH
	DB	068H
	DB	04cH
	DB	038H
	DB	0e3H
	DB	060H
	DB	04cH
	DB	038H
	DB	0fbH
	DB	068H
	DB	04cH
	DB	030H
	DB	0fbH
	DB	068H
	DB	048H
	DB	038H
	DB	0e3H
	DB	060H
	DB	04cH
	DB	030H
	DB	0baH
	DB	068H
	DB	04cH
	DB	038H
	DB	079H
	DB	060H
	DB	04cH
	DB	030H
	DB	024H
	DB	068H
	DB	048H
	DB	030H
	DB	00H
	DB	068H
	DB	04cH
	DB	038H
	DB	00H
	DB	060H
	DB	048H
	DB	038H
	DB	00H
	DB	068H
	DB	04cH
	DB	030H
	DB	00H
	DB	060H
	DB	04cH
	DB	038H
	DB	00H
	DB	068H
	DB	04cH
	DB	030H
	DB	00H
	DB	068H
	DB	04cH
	DB	030H
	DB	00H
CONST	ENDS
END
