; Listing generated by Microsoft (R) Optimizing Compiler Version 19.27.29112.0 

	TITLE	D:\hackTuesProject\project\TouchGFX\generated\images\src\Bathtub\Jets_Control\image_jets_on.cpp
	.686P
	.XMM
	include listing.inc
	.model	flat

INCLUDELIB MSVCRTD
INCLUDELIB OLDNAMES

PUBLIC	?image_jets_on@@3QBEB				; image_jets_on
CONST	SEGMENT
?image_jets_on@@3QBEB DB 00H				; image_jets_on
	DB	00H
	DB	020H
	DB	00H
	DB	082H
	DB	010H
	DB	0c3H
	DB	018H
	DB	0c3H
	DB	018H
	DB	0c3H
	DB	018H
	DB	0e3H
	DB	018H
	DB	0c3H
	DB	018H
	DB	0c3H
	DB	018H
	DB	0e3H
	DB	018H
	DB	0c3H
	DB	018H
	DB	0c3H
	DB	018H
	DB	0e3H
	DB	018H
	DB	0c3H
	DB	018H
	DB	0c3H
	DB	018H
	DB	0e3H
	DB	018H
	DB	0c3H
	DB	018H
	DB	0c3H
	DB	018H
	DB	0e3H
	DB	018H
	DB	0c3H
	DB	018H
	DB	0c3H
	DB	018H
	DB	0e3H
	DB	018H
	DB	0c3H
	DB	018H
	DB	0c3H
	DB	018H
	DB	0e3H
	DB	018H
	DB	0c3H
	DB	018H
	DB	0c3H
	DB	018H
	DB	0e3H
	DB	018H
	DB	0c3H
	DB	018H
	DB	0c3H
	DB	018H
	DB	0e3H
	DB	018H
	DB	0c3H
	DB	018H
	DB	0c3H
	DB	018H
	DB	0e3H
	DB	018H
	DB	0c3H
	DB	018H
	DB	0c3H
	DB	018H
	DB	0e3H
	DB	018H
	DB	0c3H
	DB	018H
	DB	0c3H
	DB	018H
	DB	0e3H
	DB	018H
	DB	0c3H
	DB	018H
	DB	0c3H
	DB	018H
	DB	0e3H
	DB	018H
	DB	0c3H
	DB	018H
	DB	0c3H
	DB	018H
	DB	0e3H
	DB	018H
	DB	0c3H
	DB	018H
	DB	0c3H
	DB	018H
	DB	0e3H
	DB	018H
	DB	0c3H
	DB	018H
	DB	0c3H
	DB	018H
	DB	0e3H
	DB	018H
	DB	0c3H
	DB	018H
	DB	0c3H
	DB	018H
	DB	0e3H
	DB	018H
	DB	0c3H
	DB	018H
	DB	0c3H
	DB	018H
	DB	082H
	DB	010H
	DB	020H
	DB	00H
	DB	00H
	DB	00H
	DB	021H
	DB	08H
	DB	0c3H
	DB	018H
	DB	0c3H
	DB	018H
	DB	0e3H
	DB	018H
	DB	0e3H
	DB	018H
	DB	0c3H
	DB	018H
	DB	0e3H
	DB	018H
	DB	0c3H
	DB	018H
	DB	0e3H
	DB	018H
	DB	0e3H
	DB	018H
	DB	0c3H
	DB	018H
	DB	0e3H
	DB	018H
	DB	0c3H
	DB	018H
	DB	0e3H
	DB	018H
	DB	0c3H
	DB	018H
	DB	0e3H
	DB	018H
	DB	0c3H
	DB	018H
	DB	0e3H
	DB	018H
	DB	0e3H
	DB	018H
	DB	0c3H
	DB	018H
	DB	0e3H
	DB	018H
	DB	0c3H
	DB	018H
	DB	0e3H
	DB	018H
	DB	0c3H
	DB	018H
	DB	0e3H
	DB	018H
	DB	0c3H
	DB	018H
	DB	0e3H
	DB	018H
	DB	0e3H
	DB	018H
	DB	0c3H
	DB	018H
	DB	0e3H
	DB	018H
	DB	0c3H
	DB	018H
	DB	0e3H
	DB	018H
	DB	0c3H
	DB	018H
	DB	0e3H
	DB	018H
	DB	0c3H
	DB	018H
	DB	0e3H
	DB	018H
	DB	0e3H
	DB	018H
	DB	0c3H
	DB	018H
	DB	0e3H
	DB	018H
	DB	0c3H
	DB	018H
	DB	0e3H
	DB	018H
	DB	0c3H
	DB	018H
	DB	0e3H
	DB	018H
	DB	0c3H
	DB	018H
	DB	0e3H
	DB	018H
	DB	0e3H
	DB	018H
	DB	0c3H
	DB	018H
	DB	0e3H
	DB	018H
	DB	0c3H
	DB	018H
	DB	0e3H
	DB	018H
	DB	0c3H
	DB	018H
	DB	0e3H
	DB	018H
	DB	0c3H
	DB	018H
	DB	0e3H
	DB	018H
	DB	0c3H
	DB	018H
	DB	0e3H
	DB	018H
	DB	0c3H
	DB	018H
	DB	0e3H
	DB	018H
	DB	0c3H
	DB	018H
	DB	021H
	DB	08H
	DB	082H
	DB	010H
	DB	0c3H
	DB	018H
	DB	0e3H
	DB	018H
	DB	0c4H
	DB	020H
	DB	0e3H
	DB	018H
	DB	0c4H
	DB	020H
	DB	0e4H
	DB	020H
	DB	0c3H
	DB	018H
	DB	0c4H
	DB	020H
	DB	0e4H
	DB	020H
	DB	0c3H
	DB	018H
	DB	0e4H
	DB	020H
	DB	0e4H
	DB	020H
	DB	0c3H
	DB	018H
	DB	0e4H
	DB	020H
	DB	0c4H
	DB	020H
	DB	0e3H
	DB	018H
	DB	0c4H
	DB	020H
	DB	0c4H
	DB	020H
	DB	0e3H
	DB	018H
	DB	0c4H
	DB	020H
	DB	0e4H
	DB	020H
	DB	0c3H
	DB	018H
	DB	0e4H
	DB	020H
	DB	0c4H
	DB	020H
	DB	0e3H
	DB	018H
	DB	0c4H
	DB	020H
	DB	0c4H
	DB	020H
	DB	0e3H
	DB	018H
	DB	0c4H
	DB	020H
	DB	0e4H
	DB	020H
	DB	0c3H
	DB	018H
	DB	0e4H
	DB	020H
	DB	0c4H
	DB	020H
	DB	0e3H
	DB	018H
	DB	0c4H
	DB	020H
	DB	0c4H
	DB	020H
	DB	0e3H
	DB	018H
	DB	0c4H
	DB	020H
	DB	0e4H
	DB	020H
	DB	0c3H
	DB	018H
	DB	0e4H
	DB	020H
	DB	0c4H
	DB	020H
	DB	0e3H
	DB	018H
	DB	0c4H
	DB	020H
	DB	0c4H
	DB	020H
	DB	0e3H
	DB	018H
	DB	0c4H
	DB	020H
	DB	0e4H
	DB	020H
	DB	0c3H
	DB	018H
	DB	0e4H
	DB	020H
	DB	0c4H
	DB	020H
	DB	0e3H
	DB	018H
	DB	0c4H
	DB	020H
	DB	0e4H
	DB	020H
	DB	0c3H
	DB	018H
	DB	0e3H
	DB	018H
	DB	0c4H
	DB	020H
	DB	0c3H
	DB	018H
	DB	082H
	DB	010H
	DB	0c3H
	DB	018H
	DB	0e3H
	DB	018H
	DB	0c3H
	DB	018H
	DB	0e3H
	DB	018H
	DB	0c3H
	DB	018H
	DB	0e3H
	DB	018H
	DB	0c3H
	DB	018H
	DB	0e3H
	DB	018H
	DB	0e3H
	DB	018H
	DB	0c3H
	DB	018H
	DB	0c3H
	DB	018H
	DB	0e3H
	DB	018H
	DB	0c3H
	DB	018H
	DB	0c3H
	DB	018H
	DB	0e3H
	DB	018H
	DB	0e3H
	DB	018H
	DB	0c3H
	DB	018H
	DB	0e3H
	DB	018H
	DB	0c3H
	DB	018H
	DB	0e3H
	DB	018H
	DB	0e3H
	DB	018H
	DB	0c3H
	DB	018H
	DB	0e3H
	DB	018H
	DB	0c3H
	DB	018H
	DB	0e3H
	DB	018H
	DB	0e3H
	DB	018H
	DB	0c3H
	DB	018H
	DB	0e3H
	DB	018H
	DB	0c3H
	DB	018H
	DB	0e3H
	DB	018H
	DB	0c3H
	DB	018H
	DB	0e3H
	DB	018H
	DB	0c3H
	DB	018H
	DB	0e3H
	DB	018H
	DB	0e3H
	DB	018H
	DB	0c3H
	DB	018H
	DB	0e3H
	DB	018H
	DB	0c3H
	DB	018H
	DB	0e3H
	DB	018H
	DB	0c3H
	DB	018H
	DB	0e3H
	DB	018H
	DB	0c3H
	DB	018H
	DB	0e3H
	DB	018H
	DB	0e3H
	DB	018H
	DB	0c3H
	DB	018H
	DB	0e3H
	DB	018H
	DB	0c3H
	DB	018H
	DB	0e3H
	DB	018H
	DB	0c3H
	DB	018H
	DB	0e3H
	DB	018H
	DB	0c3H
	DB	018H
	DB	0e3H
	DB	018H
	DB	0c3H
	DB	018H
	DB	0e3H
	DB	018H
	DB	0c3H
	DB	018H
	DB	0e3H
	DB	018H
	DB	0e4H
	DB	020H
	DB	0c3H
	DB	018H
	DB	0e3H
	DB	018H
	DB	0c3H
	DB	018H
	DB	0c3H
	DB	018H
	DB	0e3H
	DB	018H
	DB	0c4H
	DB	020H
	DB	0c3H
	DB	018H
	DB	0e3H
	DB	018H
	DB	0c4H
	DB	020H
	DB	0e3H
	DB	018H
	DB	0c3H
	DB	018H
	DB	0e3H
	DB	018H
	DB	0c4H
	DB	020H
	DB	0e3H
	DB	018H
	DB	0e3H
	DB	018H
	DB	0c4H
	DB	020H
	DB	0c3H
	DB	018H
	DB	0e3H
	DB	018H
	DB	0c4H
	DB	020H
	DB	0c3H
	DB	018H
	DB	0e3H
	DB	018H
	DB	0e4H
	DB	020H
	DB	0c3H
	DB	018H
	DB	0c3H
	DB	018H
	DB	0e4H
	DB	020H
	DB	0c3H
	DB	018H
	DB	0c3H
	DB	018H
	DB	0e4H
	DB	020H
	DB	0c3H
	DB	018H
	DB	0e3H
	DB	018H
	DB	0c4H
	DB	020H
	DB	0e3H
	DB	018H
	DB	0c3H
	DB	018H
	DB	0e4H
	DB	020H
	DB	0c3H
	DB	018H
	DB	0e3H
	DB	018H
	DB	0c4H
	DB	020H
	DB	0c3H
	DB	018H
	DB	0e3H
	DB	018H
	DB	0e4H
	DB	020H
	DB	0c3H
	DB	018H
	DB	0e3H
	DB	018H
	DB	0e4H
	DB	020H
	DB	0c3H
	DB	018H
	DB	0c3H
	DB	018H
	DB	0e4H
	DB	020H
	DB	0c3H
	DB	018H
	DB	0e3H
	DB	018H
	DB	0c4H
	DB	020H
	DB	0e3H
	DB	018H
	DB	0c3H
	DB	018H
	DB	0e4H
	DB	020H
	DB	0c3H
	DB	018H
	DB	0e3H
	DB	018H
	DB	0c4H
	DB	020H
	DB	0e3H
	DB	018H
	DB	0c3H
	DB	018H
	DB	0e3H
	DB	018H
	DB	0c4H
	DB	020H
	DB	0c3H
	DB	018H
	DB	0e3H
	DB	018H
	DB	0e3H
	DB	018H
	DB	0c3H
	DB	018H
	DB	0c3H
	DB	018H
	DB	0e3H
	DB	018H
	DB	0e4H
	DB	020H
	DB	0c3H
	DB	018H
	DB	0e3H
	DB	018H
	DB	0e4H
	DB	020H
	DB	0c3H
	DB	018H
	DB	0c3H
	DB	018H
	DB	0e4H
	DB	020H
	DB	0c3H
	DB	018H
	DB	0c3H
	DB	018H
	DB	0e4H
	DB	020H
	DB	0e3H
	DB	018H
	DB	0c3H
	DB	018H
	DB	0e4H
	DB	020H
	DB	0e3H
	DB	018H
	DB	0c3H
	DB	018H
	DB	0c4H
	DB	020H
	DB	0e3H
	DB	018H
	DB	0c3H
	DB	018H
	DB	0e4H
	DB	020H
	DB	0e3H
	DB	018H
	DB	0c3H
	DB	018H
	DB	0e4H
	DB	020H
	DB	0c3H
	DB	018H
	DB	0c3H
	DB	018H
	DB	0e4H
	DB	020H
	DB	0e3H
	DB	018H
	DB	0c3H
	DB	018H
	DB	0e4H
	DB	020H
	DB	0c3H
	DB	018H
	DB	0e3H
	DB	018H
	DB	0e4H
	DB	020H
	DB	0c3H
	DB	018H
	DB	0c3H
	DB	018H
	DB	0e4H
	DB	020H
	DB	0c3H
	DB	018H
	DB	0c3H
	DB	018H
	DB	0e4H
	DB	020H
	DB	0c3H
	DB	018H
	DB	0e3H
	DB	018H
	DB	0e4H
	DB	020H
	DB	0c3H
	DB	018H
	DB	0c3H
	DB	018H
	DB	0e4H
	DB	020H
	DB	0e3H
	DB	018H
	DB	0c3H
	DB	018H
	DB	0e4H
	DB	020H
	DB	0c3H
	DB	018H
	DB	0e3H
	DB	018H
	DB	0c4H
	DB	020H
	DB	0e3H
	DB	018H
	DB	0c3H
	DB	018H
	DB	0e4H
	DB	020H
	DB	0e3H
	DB	018H
	DB	0c3H
	DB	018H
	DB	0c3H
	DB	018H
	DB	0e4H
	DB	020H
	DB	0c3H
	DB	018H
	DB	0c3H
	DB	018H
	DB	0c3H
	DB	018H
	DB	0e3H
	DB	018H
	DB	0c3H
	DB	018H
	DB	0e3H
	DB	018H
	DB	0c3H
	DB	018H
	DB	0e3H
	DB	018H
	DB	0c3H
	DB	018H
	DB	0e4H
	DB	020H
	DB	0e3H
	DB	018H
	DB	0c3H
	DB	018H
	DB	0e3H
	DB	018H
	DB	0c3H
	DB	018H
	DB	0c3H
	DB	018H
	DB	0e3H
	DB	018H
	DB	0c3H
	DB	018H
	DB	0e3H
	DB	018H
	DB	0e3H
	DB	018H
	DB	0c3H
	DB	018H
	DB	0e3H
	DB	018H
	DB	0c3H
	DB	018H
	DB	093H
	DB	013H
	DB	05dH
	DB	05H
	DB	07eH
	DB	05H
	DB	09eH
	DB	05H
	DB	09eH
	DB	05H
	DB	099H
	DB	0cH
	DB	031H
	DB	013H
	DB	0c3H
	DB	018H
	DB	0e3H
	DB	018H
	DB	0c3H
	DB	018H
	DB	0c3H
	DB	018H
	DB	067H
	DB	019H
	DB	09eH
	DB	05H
	DB	07eH
	DB	05H
	DB	09eH
	DB	05H
	DB	0efH
	DB	012H
	DB	0c3H
	DB	018H
	DB	0e3H
	DB	018H
	DB	0c3H
	DB	018H
	DB	08eH
	DB	01aH
	DB	09eH
	DB	05H
	DB	07eH
	DB	05H
	DB	0e3H
	DB	018H
	DB	0c3H
	DB	018H
	DB	0c3H
	DB	018H
	DB	0e3H
	DB	018H
	DB	0c3H
	DB	018H
	DB	0c3H
	DB	018H
	DB	0e3H
	DB	018H
	DB	0c3H
	DB	018H
	DB	0e3H
	DB	018H
	DB	0c3H
	DB	018H
	DB	0e3H
	DB	018H
	DB	0c4H
	DB	020H
	DB	0c3H
	DB	018H
	DB	0e3H
	DB	018H
	DB	0e4H
	DB	020H
	DB	0c3H
	DB	018H
	DB	0e3H
	DB	018H
	DB	0e3H
	DB	018H
	DB	0c3H
	DB	018H
	DB	0e3H
	DB	018H
	DB	0c4H
	DB	020H
	DB	0c3H
	DB	018H
	DB	0e4H
	DB	020H
	DB	0c3H
	DB	018H
	DB	0e3H
	DB	018H
	DB	0c3H
	DB	018H
	DB	0c3H
	DB	018H
	DB	0e4H
	DB	020H
	DB	0e3H
	DB	018H
	DB	0c3H
	DB	018H
	DB	0e4H
	DB	020H
	DB	0e3H
	DB	018H
	DB	0c4H
	DB	020H
	DB	0c3H
	DB	018H
	DB	0e4H
	DB	020H
	DB	0c3H
	DB	018H
	DB	0e3H
	DB	018H
	DB	0daH
	DB	0cH
	DB	07eH
	DB	05H
	DB	07eH
	DB	05H
	DB	09eH
	DB	05H
	DB	07eH
	DB	05H
	DB	09eH
	DB	05H
	DB	07eH
	DB	05H
	DB	09eH
	DB	05H
	DB	093H
	DB	013H
	DB	0c3H
	DB	018H
	DB	0e3H
	DB	018H
	DB	0e4H
	DB	020H
	DB	0c9H
	DB	019H
	DB	07eH
	DB	05H
	DB	09eH
	DB	05H
	DB	07eH
	DB	05H
	DB	0daH
	DB	0cH
	DB	0e3H
	DB	018H
	DB	0e4H
	DB	018H
	DB	0c3H
	DB	018H
	DB	08eH
	DB	01aH
	DB	09eH
	DB	05H
	DB	07eH
	DB	05H
	DB	0e3H
	DB	018H
	DB	0e3H
	DB	020H
	DB	0c4H
	DB	018H
	DB	0e3H
	DB	018H
	DB	0e4H
	DB	020H
	DB	0c3H
	DB	018H
	DB	0e4H
	DB	020H
	DB	0e3H
	DB	018H
	DB	0c3H
	DB	018H
	DB	0e4H
	DB	020H
	DB	0c3H
	DB	018H
	DB	0e3H
	DB	018H
	DB	0c3H
	DB	018H
	DB	0e3H
	DB	018H
	DB	0c3H
	DB	018H
	DB	0c3H
	DB	018H
	DB	0e4H
	DB	020H
	DB	0c3H
	DB	018H
	DB	0e3H
	DB	018H
	DB	0c3H
	DB	018H
	DB	0e4H
	DB	020H
	DB	0e3H
	DB	018H
	DB	0c3H
	DB	018H
	DB	0e4H
	DB	020H
	DB	0c3H
	DB	018H
	DB	0e3H
	DB	018H
	DB	0c4H
	DB	020H
	DB	0e3H
	DB	018H
	DB	0c3H
	DB	018H
	DB	0c4H
	DB	020H
	DB	0e3H
	DB	018H
	DB	0c3H
	DB	018H
	DB	0e3H
	DB	018H
	DB	0c3H
	DB	018H
	DB	0c4H
	DB	020H
	DB	0e3H
	DB	018H
	DB	0f0H
	DB	012H
	DB	07eH
	DB	05H
	DB	09eH
	DB	05H
	DB	0efH
	DB	012H
	DB	0c3H
	DB	018H
	DB	0e3H
	DB	018H
	DB	0c3H
	DB	018H
	DB	057H
	DB	0cH
	DB	09eH
	DB	05H
	DB	05dH
	DB	05H
	DB	067H
	DB	019H
	DB	0c3H
	DB	018H
	DB	0e3H
	DB	018H
	DB	0c9H
	DB	019H
	DB	07eH
	DB	05H
	DB	09eH
	DB	05H
	DB	016H
	DB	0cH
	DB	07eH
	DB	05H
	DB	08eH
	DB	01aH
	DB	0e3H
	DB	018H
	DB	0c3H
	DB	018H
	DB	08dH
	DB	012H
	DB	09eH
	DB	05H
	DB	07eH
	DB	05H
	DB	0c3H
	DB	018H
	DB	0e3H
	DB	018H
	DB	0c3H
	DB	020H
	DB	0c4H
	DB	018H
	DB	0e3H
	DB	018H
	DB	0c3H
	DB	020H
	DB	0c3H
	DB	018H
	DB	0e4H
	DB	018H
	DB	0c3H
	DB	020H
	DB	0e3H
	DB	018H
	DB	0e4H
	DB	018H
	DB	0c3H
	DB	020H
	DB	0e4H
	DB	018H
	DB	0e3H
	DB	020H
	DB	0c3H
	DB	018H
	DB	0e4H
	DB	018H
	DB	0c3H
	DB	020H
	DB	0c3H
	DB	018H
	DB	0c3H
	DB	018H
	DB	0e3H
	DB	018H
	DB	0c3H
	DB	018H
	DB	0c3H
	DB	018H
	DB	0e3H
	DB	018H
	DB	0c3H
	DB	018H
	DB	0e4H
	DB	020H
	DB	0e3H
	DB	018H
	DB	0c3H
	DB	018H
	DB	0e3H
	DB	018H
	DB	0e3H
	DB	018H
	DB	0c3H
	DB	018H
	DB	0c3H
	DB	018H
	DB	0e4H
	DB	020H
	DB	0e3H
	DB	018H
	DB	0c3H
	DB	018H
	DB	0e3H
	DB	018H
	DB	0e3H
	DB	018H
	DB	0d5H
	DB	013H
	DB	07eH
	DB	05H
	DB	0daH
	DB	0cH
	DB	0e3H
	DB	018H
	DB	0c3H
	DB	018H
	DB	0e3H
	DB	020H
	DB	0c3H
	DB	018H
	DB	02cH
	DB	01aH
	DB	07eH
	DB	05H
	DB	07eH
	DB	05H
	DB	08eH
	DB	01aH
	DB	0c3H
	DB	018H
	DB	0e3H
	DB	018H
	DB	0c9H
	DB	019H
	DB	09eH
	DB	05H
	DB	07eH
	DB	05H
	DB	08dH
	DB	012H
	DB	09eH
	DB	05H
	DB	099H
	DB	0cH
	DB	0c3H
	DB	018H
	DB	0e3H
	DB	018H
	DB	08eH
	DB	01aH
	DB	09eH
	DB	05H
	DB	09eH
	DB	05H
	DB	0c3H
	DB	018H
	DB	0e3H
	DB	018H
	DB	0e3H
	DB	018H
	DB	0c3H
	DB	018H
	DB	0e3H
	DB	018H
	DB	0e3H
	DB	018H
	DB	0c3H
	DB	018H
	DB	0c3H
	DB	018H
	DB	0e3H
	DB	018H
	DB	0c3H
	DB	018H
	DB	0c3H
	DB	018H
	DB	0e3H
	DB	018H
	DB	0c3H
	DB	020H
	DB	0c4H
	DB	018H
	DB	0e3H
	DB	018H
	DB	0e3H
	DB	018H
	DB	0e3H
	DB	018H
	DB	0c3H
	DB	018H
	DB	0c3H
	DB	018H
	DB	0e4H
	DB	020H
	DB	0e3H
	DB	018H
	DB	0c4H
	DB	020H
	DB	0e3H
	DB	018H
	DB	0c3H
	DB	018H
	DB	0c3H
	DB	018H
	DB	0e4H
	DB	020H
	DB	0c3H
	DB	018H
	DB	0c4H
	DB	020H
	DB	0e3H
	DB	018H
	DB	0e3H
	DB	018H
	DB	0c4H
	DB	020H
	DB	0e3H
	DB	018H
	DB	0c3H
	DB	018H
	DB	0c4H
	DB	020H
	DB	0e3H
	DB	018H
	DB	0c3H
	DB	018H
	DB	099H
	DB	0cH
	DB	09eH
	DB	05H
	DB	016H
	DB	0cH
	DB	0c3H
	DB	018H
	DB	0e4H
	DB	018H
	DB	0c3H
	DB	018H
	DB	0e3H
	DB	018H
	DB	0e3H
	DB	018H
	DB	07eH
	DB	05H
	DB	09eH
	DB	05H
	DB	031H
	DB	013H
	DB	0e3H
	DB	018H
	DB	0c3H
	DB	018H
	DB	0caH
	DB	019H
	DB	09eH
	DB	05H
	DB	09eH
	DB	05H
	DB	0c9H
	DB	019H
	DB	016H
	DB	0cH
	DB	09eH
	DB	05H
	DB	08eH
	DB	01aH
	DB	0e3H
	DB	018H
	DB	08eH
	DB	01aH
	DB	07eH
	DB	05H
	DB	09eH
	DB	05H
	DB	0c3H
	DB	018H
	DB	0c4H
	DB	020H
	DB	0e4H
	DB	018H
	DB	0c3H
	DB	020H
	DB	0c4H
	DB	018H
	DB	0e4H
	DB	018H
	DB	0e3H
	DB	020H
	DB	0c4H
	DB	020H
	DB	0e3H
	DB	018H
	DB	0c4H
	DB	020H
	DB	0e3H
	DB	018H
	DB	0e3H
	DB	018H
	DB	0c3H
	DB	018H
	DB	0c3H
	DB	018H
	DB	0e4H
	DB	020H
	DB	0c3H
	DB	018H
	DB	0c3H
	DB	018H
	DB	0e4H
	DB	018H
	DB	0c3H
	DB	018H
	DB	0e3H
	DB	018H
	DB	0c3H
	DB	018H
	DB	0e3H
	DB	018H
	DB	0e4H
	DB	020H
	DB	0c3H
	DB	018H
	DB	0e3H
	DB	018H
	DB	0e3H
	DB	018H
	DB	0c3H
	DB	018H
	DB	0c3H
	DB	018H
	DB	0e4H
	DB	020H
	DB	0c3H
	DB	018H
	DB	0e3H
	DB	018H
	DB	0c3H
	DB	018H
	DB	0e3H
	DB	018H
	DB	0e4H
	DB	020H
	DB	0c3H
	DB	018H
	DB	0c3H
	DB	018H
	DB	099H
	DB	0cH
	DB	09eH
	DB	05H
	DB	016H
	DB	0cH
	DB	0c3H
	DB	018H
	DB	0e3H
	DB	020H
	DB	0c4H
	DB	018H
	DB	0e3H
	DB	018H
	DB	0e3H
	DB	018H
	DB	07eH
	DB	05H
	DB	09eH
	DB	05H
	DB	093H
	DB	013H
	DB	0e3H
	DB	018H
	DB	0c3H
	DB	018H
	DB	0c9H
	DB	019H
	DB	09eH
	DB	05H
	DB	07eH
	DB	05H
	DB	0c9H
	DB	019H
	DB	02cH
	DB	01aH
	DB	09eH
	DB	05H
	DB	099H
	DB	0cH
	DB	0c3H
	DB	018H
	DB	08dH
	DB	012H
	DB	09eH
	DB	05H
	DB	07eH
	DB	05H
	DB	0e3H
	DB	018H
	DB	0e3H
	DB	018H
	DB	0c3H
	DB	020H
	DB	0e3H
	DB	018H
	DB	0c3H
	DB	018H
	DB	0e3H
	DB	018H
	DB	0c3H
	DB	018H
	DB	0e3H
	DB	018H
	DB	0e4H
	DB	018H
	DB	0c3H
	DB	018H
	DB	0c4H
	DB	020H
	DB	0e3H
	DB	018H
	DB	0e4H
	DB	018H
	DB	0c3H
	DB	020H
	DB	0e3H
	DB	018H
	DB	0c4H
	DB	020H
	DB	0e3H
	DB	018H
	DB	0c3H
	DB	018H
	DB	0c3H
	DB	018H
	DB	0e3H
	DB	018H
	DB	0c4H
	DB	020H
	DB	0c3H
	DB	018H
	DB	0e3H
	DB	018H
	DB	0c4H
	DB	020H
	DB	0c3H
	DB	018H
	DB	0e3H
	DB	018H
	DB	0e4H
	DB	020H
	DB	0c3H
	DB	018H
	DB	0e3H
	DB	018H
	DB	0c4H
	DB	020H
	DB	0c3H
	DB	018H
	DB	0e3H
	DB	018H
	DB	0c4H
	DB	020H
	DB	0e3H
	DB	018H
	DB	0e3H
	DB	018H
	DB	0c3H
	DB	018H
	DB	099H
	DB	0cH
	DB	07eH
	DB	05H
	DB	016H
	DB	0cH
	DB	0e3H
	DB	018H
	DB	0c3H
	DB	020H
	DB	0c3H
	DB	018H
	DB	0e3H
	DB	020H
	DB	0c3H
	DB	018H
	DB	07eH
	DB	05H
	DB	09eH
	DB	05H
	DB	093H
	DB	013H
	DB	0c3H
	DB	018H
	DB	0e3H
	DB	018H
	DB	0c9H
	DB	019H
	DB	07eH
	DB	05H
	DB	09eH
	DB	05H
	DB	0c9H
	DB	019H
	DB	0e3H
	DB	018H
	DB	099H
	DB	0cH
	DB	07eH
	DB	05H
	DB	08dH
	DB	012H
	DB	08dH
	DB	012H
	DB	09eH
	DB	05H
	DB	07eH
	DB	05H
	DB	0e3H
	DB	018H
	DB	0c3H
	DB	018H
	DB	0e3H
	DB	018H
	DB	0e3H
	DB	018H
	DB	0c3H
	DB	020H
	DB	0c3H
	DB	018H
	DB	0e3H
	DB	018H
	DB	0c3H
	DB	020H
	DB	0c3H
	DB	018H
	DB	0e3H
	DB	018H
	DB	0c3H
	DB	018H
	DB	0c3H
	DB	020H
	DB	0e3H
	DB	018H
	DB	0e3H
	DB	018H
	DB	0c3H
	DB	018H
	DB	0e3H
	DB	018H
	DB	0e3H
	DB	020H
	DB	0c3H
	DB	018H
	DB	0e3H
	DB	018H
	DB	0c3H
	DB	018H
	DB	0e4H
	DB	020H
	DB	0c3H
	DB	018H
	DB	0e3H
	DB	018H
	DB	0e3H
	DB	018H
	DB	0c3H
	DB	018H
	DB	0c4H
	DB	020H
	DB	0e3H
	DB	018H
	DB	0e3H
	DB	018H
	DB	0c3H
	DB	018H
	DB	0e3H
	DB	018H
	DB	0e4H
	DB	020H
	DB	0c3H
	DB	018H
	DB	0c3H
	DB	018H
	DB	0e3H
	DB	018H
	DB	0c3H
	DB	018H
	DB	0e3H
	DB	020H
	DB	099H
	DB	0cH
	DB	07eH
	DB	05H
	DB	016H
	DB	0cH
	DB	0e3H
	DB	018H
	DB	0c3H
	DB	018H
	DB	0e4H
	DB	018H
	DB	0e3H
	DB	018H
	DB	0c3H
	DB	020H
	DB	07eH
	DB	05H
	DB	09eH
	DB	05H
	DB	031H
	DB	013H
	DB	0c3H
	DB	018H
	DB	0e4H
	DB	018H
	DB	0c9H
	DB	019H
	DB	09eH
	DB	05H
	DB	09eH
	DB	05H
	DB	0c9H
	DB	019H
	DB	0c3H
	DB	018H
	DB	08dH
	DB	012H
	DB	09eH
	DB	05H
	DB	016H
	DB	0cH
	DB	08eH
	DB	01aH
	DB	09eH
	DB	05H
	DB	09eH
	DB	05H
	DB	0c3H
	DB	020H
	DB	0c4H
	DB	018H
	DB	0e4H
	DB	018H
	DB	0c3H
	DB	020H
	DB	0e4H
	DB	018H
	DB	0e4H
	DB	018H
	DB	0c3H
	DB	020H
	DB	0e4H
	DB	018H
	DB	0e3H
	DB	018H
	DB	0e3H
	DB	020H
	DB	0c4H
	DB	018H
	DB	0e3H
	DB	018H
	DB	0c3H
	DB	018H
	DB	0c4H
	DB	018H
	DB	0e4H
	DB	020H
	DB	0c3H
	DB	018H
	DB	0c3H
	DB	018H
	DB	0e4H
	DB	018H
	DB	0c3H
	DB	018H
	DB	0e3H
	DB	018H
	DB	0c3H
	DB	018H
	DB	0e3H
	DB	018H
	DB	0c4H
	DB	020H
	DB	0e3H
	DB	018H
	DB	0e3H
	DB	018H
	DB	0c3H
	DB	018H
	DB	0c3H
	DB	018H
	DB	0e4H
	DB	020H
	DB	0c3H
	DB	018H
	DB	0c3H
	DB	018H
	DB	0e3H
	DB	018H
	DB	0e3H
	DB	018H
	DB	0c4H
	DB	020H
	DB	0c3H
	DB	018H
	DB	0e4H
	DB	018H
	DB	0c3H
	DB	018H
	DB	0d4H
	DB	0bH
	DB	09eH
	DB	05H
	DB	0daH
	DB	0cH
	DB	0c3H
	DB	018H
	DB	0e3H
	DB	018H
	DB	0c4H
	DB	020H
	DB	0e3H
	DB	018H
	DB	02cH
	DB	01aH
	DB	09eH
	DB	05H
	DB	07eH
	DB	05H
	DB	08eH
	DB	012H
	DB	0e3H
	DB	018H
	DB	0c3H
	DB	020H
	DB	0c9H
	DB	019H
	DB	09eH
	DB	05H
	DB	07eH
	DB	05H
	DB	0c9H
	DB	019H
	DB	0e3H
	DB	018H
	DB	0e3H
	DB	018H
	DB	01bH
	DB	05H
	DB	09eH
	DB	05H
	DB	031H
	DB	013H
	DB	07eH
	DB	05H
	DB	09eH
	DB	05H
	DB	0c3H
	DB	018H
	DB	0e3H
	DB	018H
	DB	0c3H
	DB	020H
	DB	0c3H
	DB	018H
	DB	0e3H
	DB	018H
	DB	0c3H
	DB	018H
	DB	0c3H
	DB	018H
	DB	0e4H
	DB	018H
	DB	0c3H
	DB	018H
	DB	0c3H
	DB	020H
	DB	0e4H
	DB	018H
	DB	0e3H
	DB	018H
	DB	0c3H
	DB	020H
	DB	0e3H
	DB	018H
	DB	0e3H
	DB	018H
	DB	0c3H
	DB	020H
	DB	0c3H
	DB	018H
	DB	0e3H
	DB	018H
	DB	0c3H
	DB	018H
	DB	0e4H
	DB	020H
	DB	0c3H
	DB	018H
	DB	0c3H
	DB	018H
	DB	0e4H
	DB	020H
	DB	0c3H
	DB	018H
	DB	0c3H
	DB	018H
	DB	0e4H
	DB	020H
	DB	0e3H
	DB	018H
	DB	0c3H
	DB	018H
	DB	0e4H
	DB	020H
	DB	0c3H
	DB	018H
	DB	0c3H
	DB	018H
	DB	0e4H
	DB	020H
	DB	0e3H
	DB	018H
	DB	0c3H
	DB	018H
	DB	0e3H
	DB	020H
	DB	0e4H
	DB	018H
	DB	0efH
	DB	012H
	DB	07eH
	DB	05H
	DB	09eH
	DB	05H
	DB	0f0H
	DB	012H
	DB	0c3H
	DB	018H
	DB	0e3H
	DB	018H
	DB	0c3H
	DB	018H
	DB	058H
	DB	0cH
	DB	09eH
	DB	05H
	DB	05dH
	DB	05H
	DB	067H
	DB	019H
	DB	0e3H
	DB	018H
	DB	0c3H
	DB	018H
	DB	0c9H
	DB	019H
	DB	09eH
	DB	05H
	DB	07eH
	DB	05H
	DB	0c9H
	DB	019H
	DB	0e4H
	DB	018H
	DB	0c3H
	DB	018H
	DB	031H
	DB	013H
	DB	09eH
	DB	05H
	DB	0daH
	DB	0cH
	DB	07eH
	DB	05H
	DB	09eH
	DB	05H
	DB	0e3H
	DB	018H
	DB	0c3H
	DB	018H
	DB	0e3H
	DB	018H
	DB	0e3H
	DB	018H
	DB	0c4H
	DB	020H
	DB	0e3H
	DB	018H
	DB	0e3H
	DB	020H
	DB	0c3H
	DB	018H
	DB	0c3H
	DB	018H
	DB	0e3H
	DB	018H
	DB	0c3H
	DB	018H
	DB	0c4H
	DB	020H
	DB	0e3H
	DB	018H
	DB	0c3H
	DB	018H
	DB	0e4H
	DB	018H
	DB	0e3H
	DB	018H
	DB	0c3H
	DB	018H
	DB	0c3H
	DB	018H
	DB	0e3H
	DB	018H
	DB	0c3H
	DB	018H
	DB	0e3H
	DB	018H
	DB	0e3H
	DB	018H
	DB	0c3H
	DB	018H
	DB	0e3H
	DB	018H
	DB	0c4H
	DB	020H
	DB	0e3H
	DB	018H
	DB	0c3H
	DB	018H
	DB	0e3H
	DB	018H
	DB	0e3H
	DB	018H
	DB	0c4H
	DB	020H
	DB	0e3H
	DB	018H
	DB	0c3H
	DB	018H
	DB	0e3H
	DB	018H
	DB	0c3H
	DB	018H
	DB	0c3H
	DB	020H
	DB	0e3H
	DB	018H
	DB	0c3H
	DB	018H
	DB	0daH
	DB	0cH
	DB	09eH
	DB	05H
	DB	07eH
	DB	05H
	DB	07eH
	DB	05H
	DB	09eH
	DB	05H
	DB	07eH
	DB	05H
	DB	07eH
	DB	05H
	DB	09eH
	DB	05H
	DB	093H
	DB	013H
	DB	0c3H
	DB	018H
	DB	0c3H
	DB	018H
	DB	0e3H
	DB	018H
	DB	0caH
	DB	019H
	DB	09eH
	DB	05H
	DB	09eH
	DB	05H
	DB	0c9H
	DB	019H
	DB	0c3H
	DB	018H
	DB	0e4H
	DB	018H
	DB	0c3H
	DB	018H
	DB	05dH
	DB	05H
	DB	07eH
	DB	05H
	DB	09eH
	DB	05H
	DB	07eH
	DB	05H
	DB	0c3H
	DB	018H
	DB	0e4H
	DB	020H
	DB	0c3H
	DB	018H
	DB	0c3H
	DB	018H
	DB	0e4H
	DB	018H
	DB	0c3H
	DB	020H
	DB	0e3H
	DB	018H
	DB	0e4H
	DB	018H
	DB	0c3H
	DB	020H
	DB	0e3H
	DB	018H
	DB	0e4H
	DB	018H
	DB	0c3H
	DB	018H
	DB	0e3H
	DB	018H
	DB	0c4H
	DB	020H
	DB	0c3H
	DB	018H
	DB	0e4H
	DB	018H
	DB	0e3H
	DB	020H
	DB	0c3H
	DB	018H
	DB	0c3H
	DB	018H
	DB	0e3H
	DB	018H
	DB	0c4H
	DB	020H
	DB	0e3H
	DB	018H
	DB	0c3H
	DB	018H
	DB	0e4H
	DB	020H
	DB	0e3H
	DB	018H
	DB	0c3H
	DB	018H
	DB	0c4H
	DB	020H
	DB	0e3H
	DB	018H
	DB	0c3H
	DB	018H
	DB	0e3H
	DB	018H
	DB	0c4H
	DB	020H
	DB	0e3H
	DB	018H
	DB	0c4H
	DB	018H
	DB	0e4H
	DB	020H
	DB	0c3H
	DB	018H
	DB	0e3H
	DB	018H
	DB	0c4H
	DB	018H
	DB	0c3H
	DB	018H
	DB	093H
	DB	013H
	DB	05dH
	DB	05H
	DB	09eH
	DB	05H
	DB	09eH
	DB	05H
	DB	07eH
	DB	05H
	DB	099H
	DB	0cH
	DB	031H
	DB	013H
	DB	0c3H
	DB	018H
	DB	0e3H
	DB	018H
	DB	0c3H
	DB	020H
	DB	0e3H
	DB	018H
	DB	0c9H
	DB	019H
	DB	07eH
	DB	05H
	DB	09eH
	DB	05H
	DB	0c9H
	DB	019H
	DB	0e3H
	DB	018H
	DB	0e3H
	DB	018H
	DB	0c3H
	DB	020H
	DB	093H
	DB	013H
	DB	09eH
	DB	05H
	DB	07eH
	DB	05H
	DB	05dH
	DB	05H
	DB	0e3H
	DB	018H
	DB	0c3H
	DB	020H
	DB	0e3H
	DB	018H
	DB	0e3H
	DB	018H
	DB	0c3H
	DB	018H
	DB	0c3H
	DB	018H
	DB	0c4H
	DB	018H
	DB	0e3H
	DB	018H
	DB	0c3H
	DB	020H
	DB	0c4H
	DB	018H
	DB	0e3H
	DB	018H
	DB	0e3H
	DB	020H
	DB	0c3H
	DB	018H
	DB	0e3H
	DB	018H
	DB	0c3H
	DB	020H
	DB	0c3H
	DB	018H
	DB	0e4H
	DB	018H
	DB	0e3H
	DB	018H
	DB	0c3H
	DB	018H
	DB	0e3H
	DB	018H
	DB	0c4H
	DB	020H
	DB	0c3H
	DB	018H
	DB	0e3H
	DB	018H
	DB	0c4H
	DB	020H
	DB	0c3H
	DB	018H
	DB	0e3H
	DB	018H
	DB	0e3H
	DB	018H
	DB	0c4H
	DB	020H
	DB	0c3H
	DB	018H
	DB	0e3H
	DB	018H
	DB	0e3H
	DB	018H
	DB	0c3H
	DB	020H
	DB	0e3H
	DB	018H
	DB	0c3H
	DB	018H
	DB	0e3H
	DB	018H
	DB	0e4H
	DB	020H
	DB	0c3H
	DB	018H
	DB	0e3H
	DB	018H
	DB	0c3H
	DB	018H
	DB	0c3H
	DB	020H
	DB	0e3H
	DB	018H
	DB	0c3H
	DB	018H
	DB	0e3H
	DB	018H
	DB	0e3H
	DB	018H
	DB	0c3H
	DB	018H
	DB	0e3H
	DB	018H
	DB	0e3H
	DB	018H
	DB	0c4H
	DB	018H
	DB	0e3H
	DB	018H
	DB	0c3H
	DB	018H
	DB	0c3H
	DB	018H
	DB	0e3H
	DB	018H
	DB	0c4H
	DB	018H
	DB	0c3H
	DB	018H
	DB	0e3H
	DB	018H
	DB	0c3H
	DB	018H
	DB	0c3H
	DB	018H
	DB	0e3H
	DB	018H
	DB	0c3H
	DB	018H
	DB	0e3H
	DB	018H
	DB	0c3H
	DB	018H
	DB	0c3H
	DB	018H
	DB	0e4H
	DB	020H
	DB	0e4H
	DB	018H
	DB	0c3H
	DB	020H
	DB	0e3H
	DB	018H
	DB	0e3H
	DB	018H
	DB	0c3H
	DB	020H
	DB	0e3H
	DB	018H
	DB	0c3H
	DB	018H
	DB	0c3H
	DB	020H
	DB	0e4H
	DB	018H
	DB	0c3H
	DB	018H
	DB	0e3H
	DB	018H
	DB	0e4H
	DB	018H
	DB	0c3H
	DB	020H
	DB	0c3H
	DB	018H
	DB	0c3H
	DB	018H
	DB	0e3H
	DB	018H
	DB	0c3H
	DB	018H
	DB	0e3H
	DB	018H
	DB	0e3H
	DB	018H
	DB	0c3H
	DB	018H
	DB	0e3H
	DB	018H
	DB	0c3H
	DB	018H
	DB	0e3H
	DB	018H
	DB	0c3H
	DB	018H
	DB	0e4H
	DB	020H
	DB	0c3H
	DB	018H
	DB	0c3H
	DB	018H
	DB	0e4H
	DB	018H
	DB	0c3H
	DB	018H
	DB	0e3H
	DB	020H
	DB	0c3H
	DB	018H
	DB	0c4H
	DB	018H
	DB	0e3H
	DB	018H
	DB	0e3H
	DB	020H
	DB	0c3H
	DB	018H
	DB	0e3H
	DB	018H
	DB	0e3H
	DB	018H
	DB	0c3H
	DB	020H
	DB	0c3H
	DB	018H
	DB	0e3H
	DB	018H
	DB	0c3H
	DB	020H
	DB	0c3H
	DB	018H
	DB	0e3H
	DB	020H
	DB	0c3H
	DB	018H
	DB	0c4H
	DB	020H
	DB	0e3H
	DB	018H
	DB	0e4H
	DB	018H
	DB	0e3H
	DB	018H
	DB	0c3H
	DB	018H
	DB	0e4H
	DB	020H
	DB	0c3H
	DB	018H
	DB	0e4H
	DB	018H
	DB	0e4H
	DB	020H
	DB	0c3H
	DB	018H
	DB	0e3H
	DB	018H
	DB	0e3H
	DB	020H
	DB	0c3H
	DB	018H
	DB	0e4H
	DB	018H
	DB	0c3H
	DB	018H
	DB	0c3H
	DB	018H
	DB	0e3H
	DB	020H
	DB	0c4H
	DB	018H
	DB	0e3H
	DB	018H
	DB	0c3H
	DB	020H
	DB	0e4H
	DB	018H
	DB	0e4H
	DB	018H
	DB	0e3H
	DB	018H
	DB	0c3H
	DB	018H
	DB	0c4H
	DB	018H
	DB	0e3H
	DB	020H
	DB	0c3H
	DB	018H
	DB	0e4H
	DB	018H
	DB	0e3H
	DB	018H
	DB	0c3H
	DB	020H
	DB	0e3H
	DB	018H
	DB	0c3H
	DB	018H
	DB	0c3H
	DB	018H
	DB	0e4H
	DB	020H
	DB	0c4H
	DB	020H
	DB	0e3H
	DB	018H
	DB	0c3H
	DB	018H
	DB	0e4H
	DB	020H
	DB	0c3H
	DB	018H
	DB	0e3H
	DB	018H
	DB	0e3H
	DB	018H
	DB	0c3H
	DB	020H
	DB	0e4H
	DB	018H
	DB	0c3H
	DB	018H
	DB	0e3H
	DB	020H
	DB	0c4H
	DB	018H
	DB	0e3H
	DB	018H
	DB	0c3H
	DB	018H
	DB	0c3H
	DB	020H
	DB	0e4H
	DB	018H
	DB	0c4H
	DB	018H
	DB	0c3H
	DB	020H
	DB	0e4H
	DB	018H
	DB	0c4H
	DB	018H
	DB	0e3H
	DB	020H
	DB	0e3H
	DB	018H
	DB	0c4H
	DB	018H
	DB	0e3H
	DB	018H
	DB	0e3H
	DB	018H
	DB	0c4H
	DB	020H
	DB	0e3H
	DB	018H
	DB	0c3H
	DB	018H
	DB	0c3H
	DB	020H
	DB	0e4H
	DB	018H
	DB	0c3H
	DB	018H
	DB	0e3H
	DB	020H
	DB	0e3H
	DB	018H
	DB	0c3H
	DB	018H
	DB	0c3H
	DB	020H
	DB	0e3H
	DB	018H
	DB	0c4H
	DB	018H
	DB	0c3H
	DB	020H
	DB	0e3H
	DB	018H
	DB	0e4H
	DB	020H
	DB	0c3H
	DB	018H
	DB	0e3H
	DB	018H
	DB	0c3H
	DB	018H
	DB	0e3H
	DB	018H
	DB	0c4H
	DB	018H
	DB	0c3H
	DB	018H
	DB	0c3H
	DB	018H
	DB	0e3H
	DB	020H
	DB	0c3H
	DB	018H
	DB	0e3H
	DB	018H
	DB	0e3H
	DB	020H
	DB	0c3H
	DB	018H
	DB	0c3H
	DB	018H
	DB	0e3H
	DB	020H
	DB	0c4H
	DB	018H
	DB	0e3H
	DB	018H
	DB	0c3H
	DB	018H
	DB	082H
	DB	010H
	DB	0e3H
	DB	018H
	DB	0c3H
	DB	018H
	DB	0c3H
	DB	018H
	DB	0e4H
	DB	020H
	DB	0e3H
	DB	018H
	DB	0c3H
	DB	018H
	DB	0c4H
	DB	020H
	DB	0e3H
	DB	018H
	DB	0c3H
	DB	018H
	DB	0e4H
	DB	020H
	DB	0e3H
	DB	018H
	DB	0c3H
	DB	018H
	DB	0c3H
	DB	018H
	DB	0e4H
	DB	018H
	DB	0e3H
	DB	020H
	DB	0e3H
	DB	018H
	DB	0c3H
	DB	018H
	DB	0e3H
	DB	018H
	DB	0e3H
	DB	018H
	DB	0c3H
	DB	020H
	DB	0e3H
	DB	018H
	DB	0c3H
	DB	018H
	DB	0e3H
	DB	018H
	DB	0c4H
	DB	020H
	DB	0c3H
	DB	018H
	DB	0e3H
	DB	018H
	DB	0c4H
	DB	018H
	DB	0e3H
	DB	018H
	DB	0e3H
	DB	018H
	DB	0c3H
	DB	018H
	DB	0e3H
	DB	020H
	DB	0c3H
	DB	018H
	DB	0c3H
	DB	018H
	DB	0e3H
	DB	018H
	DB	0c4H
	DB	018H
	DB	0c3H
	DB	018H
	DB	0e3H
	DB	018H
	DB	0e3H
	DB	018H
	DB	0c4H
	DB	018H
	DB	0c3H
	DB	018H
	DB	0e3H
	DB	018H
	DB	0c3H
	DB	018H
	DB	0e3H
	DB	020H
	DB	0e4H
	DB	018H
	DB	0c3H
	DB	020H
	DB	0e3H
	DB	018H
	DB	0e3H
	DB	020H
	DB	0c3H
	DB	018H
	DB	0e3H
	DB	018H
	DB	0c4H
	DB	020H
	DB	0c3H
	DB	018H
	DB	0e4H
	DB	018H
	DB	0e3H
	DB	020H
	DB	0c4H
	DB	018H
	DB	0e3H
	DB	018H
	DB	0c3H
	DB	018H
	DB	0c3H
	DB	020H
	DB	0e3H
	DB	018H
	DB	082H
	DB	010H
	DB	021H
	DB	08H
	DB	0c3H
	DB	018H
	DB	0e3H
	DB	018H
	DB	0c3H
	DB	018H
	DB	0c3H
	DB	018H
	DB	0e3H
	DB	018H
	DB	0c3H
	DB	018H
	DB	0e4H
	DB	020H
	DB	0c3H
	DB	018H
	DB	0c3H
	DB	018H
	DB	0e3H
	DB	018H
	DB	0c3H
	DB	020H
	DB	0e3H
	DB	018H
	DB	0c4H
	DB	018H
	DB	0c3H
	DB	020H
	DB	0e3H
	DB	018H
	DB	0c4H
	DB	018H
	DB	0c3H
	DB	020H
	DB	0e3H
	DB	018H
	DB	0c4H
	DB	018H
	DB	0e3H
	DB	018H
	DB	0c3H
	DB	018H
	DB	0e3H
	DB	018H
	DB	0c3H
	DB	018H
	DB	0e4H
	DB	018H
	DB	0e3H
	DB	020H
	DB	0c3H
	DB	018H
	DB	0c3H
	DB	020H
	DB	0e3H
	DB	018H
	DB	0c4H
	DB	018H
	DB	0e3H
	DB	020H
	DB	0e4H
	DB	018H
	DB	0c3H
	DB	018H
	DB	0e3H
	DB	020H
	DB	0e4H
	DB	018H
	DB	0c3H
	DB	020H
	DB	0e3H
	DB	018H
	DB	0e4H
	DB	018H
	DB	0c3H
	DB	020H
	DB	0e3H
	DB	018H
	DB	0e4H
	DB	018H
	DB	0c3H
	DB	020H
	DB	0c3H
	DB	018H
	DB	0e4H
	DB	018H
	DB	0c3H
	DB	018H
	DB	0c3H
	DB	018H
	DB	0e4H
	DB	020H
	DB	0c3H
	DB	018H
	DB	0e3H
	DB	018H
	DB	0e4H
	DB	018H
	DB	0c3H
	DB	018H
	DB	0e3H
	DB	018H
	DB	0c3H
	DB	018H
	DB	0c4H
	DB	018H
	DB	0e3H
	DB	020H
	DB	0e3H
	DB	018H
	DB	0c4H
	DB	018H
	DB	0e3H
	DB	018H
	DB	0c3H
	DB	018H
	DB	021H
	DB	08H
	DB	00H
	DB	00H
	DB	021H
	DB	08H
	DB	082H
	DB	010H
	DB	0c3H
	DB	018H
	DB	0e4H
	DB	020H
	DB	0c3H
	DB	018H
	DB	0e3H
	DB	018H
	DB	0e3H
	DB	018H
	DB	0c4H
	DB	020H
	DB	0e3H
	DB	018H
	DB	0c4H
	DB	018H
	DB	0e3H
	DB	018H
	DB	0e3H
	DB	020H
	DB	0c3H
	DB	018H
	DB	0e3H
	DB	018H
	DB	0e3H
	DB	018H
	DB	0c4H
	DB	018H
	DB	0e3H
	DB	020H
	DB	0c3H
	DB	018H
	DB	0e4H
	DB	018H
	DB	0c3H
	DB	020H
	DB	0e4H
	DB	018H
	DB	0c3H
	DB	020H
	DB	0c3H
	DB	018H
	DB	0e3H
	DB	018H
	DB	0e3H
	DB	018H
	DB	0c4H
	DB	018H
	DB	0e3H
	DB	020H
	DB	0c3H
	DB	018H
	DB	0c3H
	DB	018H
	DB	0e3H
	DB	020H
	DB	0c4H
	DB	018H
	DB	0c3H
	DB	018H
	DB	0e3H
	DB	018H
	DB	0c4H
	DB	020H
	DB	0c3H
	DB	018H
	DB	0e3H
	DB	018H
	DB	0c3H
	DB	020H
	DB	0c3H
	DB	018H
	DB	0e3H
	DB	018H
	DB	0e3H
	DB	020H
	DB	0c3H
	DB	018H
	DB	0e4H
	DB	018H
	DB	0e3H
	DB	020H
	DB	0c3H
	DB	018H
	DB	0e3H
	DB	018H
	DB	0c4H
	DB	018H
	DB	0c3H
	DB	018H
	DB	0e3H
	DB	020H
	DB	0c4H
	DB	018H
	DB	0e3H
	DB	020H
	DB	0e3H
	DB	018H
	DB	0c3H
	DB	018H
	DB	0c3H
	DB	018H
	DB	0e3H
	DB	018H
	DB	0c3H
	DB	020H
	DB	0c3H
	DB	018H
	DB	082H
	DB	010H
	DB	021H
	DB	08H
	DB	00H
	DB	00H
CONST	ENDS
END
