; Listing generated by Microsoft (R) Optimizing Compiler Version 19.27.29112.0 

	TITLE	D:\hackTuesProject\project\TouchGFX\generated\images\src\image_istockphoto-685475894-170667a.cpp
	.686P
	.XMM
	include listing.inc
	.model	flat

INCLUDELIB MSVCRTD
INCLUDELIB OLDNAMES

PUBLIC	?image_istockphoto_685475894_170667a@@3QBEB	; image_istockphoto_685475894_170667a
CONST	SEGMENT
?image_istockphoto_685475894_170667a@@3QBEB DB 0f7H	; image_istockphoto_685475894_170667a
	DB	0bdH
	DB	0f7H
	DB	0bdH
	DB	0f7H
	DB	0bdH
	DB	0f7H
	DB	0bdH
	DB	0f7H
	DB	0bdH
	DB	0f7H
	DB	0bdH
	DB	0f7H
	DB	0bdH
	DB	0f7H
	DB	0bdH
	DB	0f7H
	DB	0bdH
	DB	0f7H
	DB	0bdH
	DB	0f7H
	DB	0bdH
	DB	0f7H
	DB	0bdH
	DB	0f7H
	DB	0bdH
	DB	0f7H
	DB	0bdH
	DB	0f7H
	DB	0bdH
	DB	0f7H
	DB	0bdH
	DB	0f7H
	DB	0bdH
	DB	0f7H
	DB	0bdH
	DB	0f7H
	DB	0bdH
	DB	0f7H
	DB	0bdH
	DB	0f7H
	DB	0bdH
	DB	0f7H
	DB	0bdH
	DB	0f7H
	DB	0bdH
	DB	0f7H
	DB	0bdH
	DB	0f7H
	DB	0c5H
	DB	0f7H
	DB	0bdH
	DB	0f7H
	DB	0bdH
	DB	0f7H
	DB	0c5H
	DB	0f7H
	DB	0bdH
	DB	0f7H
	DB	0bdH
	DB	0f7H
	DB	0c5H
	DB	0f7H
	DB	0bdH
	DB	0f7H
	DB	0bdH
	DB	0f7H
	DB	0c5H
	DB	017H
	DB	0beH
	DB	0f7H
	DB	0bdH
	DB	0f7H
	DB	0c5H
	DB	017H
	DB	0beH
	DB	0f7H
	DB	0bdH
	DB	0f7H
	DB	0c5H
	DB	0f7H
	DB	0c5H
	DB	0f7H
	DB	0bdH
	DB	0f7H
	DB	0c5H
	DB	0f7H
	DB	0c5H
	DB	0f7H
	DB	0bdH
	DB	0f7H
	DB	0c5H
	DB	0f7H
	DB	0c5H
	DB	0f7H
	DB	0bdH
	DB	0f7H
	DB	0c5H
	DB	0f7H
	DB	0c5H
	DB	0f7H
	DB	0bdH
	DB	0f7H
	DB	0c5H
	DB	0f7H
	DB	0c5H
	DB	0f7H
	DB	0bdH
	DB	0f7H
	DB	0c5H
	DB	0f7H
	DB	0c5H
	DB	0f7H
	DB	0bdH
	DB	0f7H
	DB	0c5H
	DB	0f7H
	DB	0c5H
	DB	0f8H
	DB	0c5H
	DB	0f7H
	DB	0c5H
	DB	017H
	DB	0c6H
	DB	0f8H
	DB	0c5H
	DB	0f7H
	DB	0bdH
	DB	017H
	DB	0c6H
	DB	018H
	DB	0c6H
	DB	017H
	DB	0beH
	DB	017H
	DB	0c6H
	DB	018H
	DB	0c6H
	DB	017H
	DB	0beH
	DB	017H
	DB	0c6H
	DB	018H
	DB	0c6H
	DB	017H
	DB	0beH
	DB	017H
	DB	0c6H
	DB	018H
	DB	0c6H
	DB	017H
	DB	0beH
	DB	017H
	DB	0c6H
	DB	018H
	DB	0c6H
	DB	017H
	DB	0beH
	DB	017H
	DB	0c6H
	DB	018H
	DB	0c6H
	DB	017H
	DB	0beH
	DB	018H
	DB	0c6H
	DB	018H
	DB	0c6H
	DB	017H
	DB	0c6H
	DB	018H
	DB	0c6H
	DB	018H
	DB	0c6H
	DB	017H
	DB	0c6H
	DB	018H
	DB	0c6H
	DB	018H
	DB	0c6H
	DB	017H
	DB	0c6H
	DB	018H
	DB	0c6H
	DB	018H
	DB	0c6H
	DB	017H
	DB	0c6H
	DB	018H
	DB	0c6H
	DB	018H
	DB	0c6H
	DB	017H
	DB	0c6H
	DB	018H
	DB	0c6H
	DB	018H
	DB	0c6H
	DB	017H
	DB	0c6H
	DB	018H
	DB	0c6H
	DB	018H
	DB	0c6H
	DB	017H
	DB	0c6H
	DB	018H
	DB	0c6H
	DB	018H
	DB	0c6H
	DB	017H
	DB	0c6H
	DB	018H
	DB	0c6H
	DB	018H
	DB	0c6H
	DB	017H
	DB	0c6H
	DB	018H
	DB	0c6H
	DB	018H
	DB	0c6H
	DB	017H
	DB	0c6H
	DB	018H
	DB	0c6H
	DB	018H
	DB	0c6H
	DB	017H
	DB	0c6H
	DB	018H
	DB	0c6H
	DB	018H
	DB	0c6H
	DB	018H
	DB	0c6H
	DB	018H
	DB	0c6H
	DB	018H
	DB	0c6H
	DB	017H
	DB	0c6H
	DB	018H
	DB	0c6H
	DB	018H
	DB	0c6H
	DB	018H
	DB	0c6H
	DB	018H
	DB	0c6H
	DB	018H
	DB	0c6H
	DB	018H
	DB	0c6H
	DB	018H
	DB	0c6H
	DB	018H
	DB	0c6H
	DB	018H
	DB	0c6H
	DB	018H
	DB	0c6H
	DB	018H
	DB	0c6H
	DB	018H
	DB	0c6H
	DB	018H
	DB	0c6H
	DB	018H
	DB	0c6H
	DB	018H
	DB	0c6H
	DB	018H
	DB	0c6H
	DB	018H
	DB	0c6H
	DB	018H
	DB	0c6H
	DB	018H
	DB	0c6H
	DB	018H
	DB	0c6H
	DB	018H
	DB	0c6H
	DB	018H
	DB	0c6H
	DB	018H
	DB	0c6H
	DB	018H
	DB	0c6H
	DB	018H
	DB	0c6H
	DB	018H
	DB	0c6H
	DB	018H
	DB	0c6H
	DB	018H
	DB	0c6H
	DB	018H
	DB	0c6H
	DB	018H
	DB	0c6H
	DB	018H
	DB	0c6H
	DB	018H
	DB	0c6H
	DB	018H
	DB	0c6H
	DB	018H
	DB	0c6H
	DB	018H
	DB	0c6H
	DB	018H
	DB	0c6H
	DB	018H
	DB	0c6H
	DB	018H
	DB	0c6H
	DB	018H
	DB	0c6H
	DB	018H
	DB	0c6H
	DB	018H
	DB	0c6H
	DB	038H
	DB	0c6H
	DB	018H
	DB	0c6H
	DB	038H
	DB	0c6H
	DB	038H
	DB	0c6H
	DB	038H
	DB	0c6H
	DB	038H
	DB	0c6H
	DB	038H
	DB	0c6H
	DB	038H
	DB	0c6H
	DB	038H
	DB	0c6H
	DB	038H
	DB	0c6H
	DB	038H
	DB	0c6H
	DB	038H
	DB	0c6H
	DB	038H
	DB	0c6H
	DB	038H
	DB	0c6H
	DB	038H
	DB	0c6H
	DB	038H
	DB	0c6H
	DB	038H
	DB	0c6H
	DB	038H
	DB	0c6H
	DB	038H
	DB	0c6H
	DB	038H
	DB	0c6H
	DB	038H
	DB	0c6H
	DB	038H
	DB	0c6H
	DB	038H
	DB	0c6H
	DB	038H
	DB	0c6H
	DB	038H
	DB	0c6H
	DB	038H
	DB	0c6H
	DB	038H
	DB	0c6H
	DB	038H
	DB	0c6H
	DB	038H
	DB	0c6H
	DB	038H
	DB	0c6H
	DB	038H
	DB	0c6H
	DB	038H
	DB	0c6H
	DB	038H
	DB	0c6H
	DB	038H
	DB	0c6H
	DB	038H
	DB	0c6H
	DB	038H
	DB	0c6H
	DB	038H
	DB	0c6H
	DB	038H
	DB	0c6H
	DB	038H
	DB	0c6H
	DB	038H
	DB	0c6H
	DB	038H
	DB	0c6H
	DB	038H
	DB	0c6H
	DB	038H
	DB	0c6H
	DB	038H
	DB	0c6H
	DB	038H
	DB	0c6H
	DB	038H
	DB	0c6H
	DB	038H
	DB	0ceH
	DB	038H
	DB	0c6H
	DB	058H
	DB	0c6H
	DB	038H
	DB	0ceH
	DB	038H
	DB	0c6H
	DB	058H
	DB	0c6H
	DB	038H
	DB	0ceH
	DB	038H
	DB	0c6H
	DB	058H
	DB	0c6H
	DB	038H
	DB	0ceH
	DB	038H
	DB	0c6H
	DB	058H
	DB	0c6H
	DB	038H
	DB	0ceH
	DB	038H
	DB	0c6H
	DB	058H
	DB	0c6H
	DB	038H
	DB	0ceH
	DB	059H
	DB	0ceH
	DB	058H
	DB	0c6H
	DB	058H
	DB	0ceH
	DB	059H
	DB	0ceH
	DB	058H
	DB	0c6H
	DB	058H
	DB	0ceH
	DB	059H
	DB	0ceH
	DB	058H
	DB	0c6H
	DB	058H
	DB	0ceH
	DB	058H
	DB	0ceH
	DB	058H
	DB	0c6H
	DB	058H
	DB	0ceH
	DB	058H
	DB	0ceH
	DB	058H
	DB	0c6H
	DB	058H
	DB	0ceH
	DB	058H
	DB	0ceH
	DB	038H
	DB	0c6H
	DB	058H
	DB	0ceH
	DB	059H
	DB	0ceH
	DB	059H
	DB	0ceH
	DB	058H
	DB	0ceH
	DB	059H
	DB	0ceH
	DB	058H
	DB	0c6H
	DB	058H
	DB	0ceH
	DB	059H
	DB	0ceH
	DB	059H
	DB	0ceH
	DB	058H
	DB	0ceH
	DB	059H
	DB	0ceH
	DB	059H
	DB	0ceH
	DB	058H
	DB	0ceH
	DB	059H
	DB	0ceH
	DB	059H
	DB	0ceH
	DB	059H
	DB	0ceH
	DB	058H
	DB	0ceH
	DB	059H
	DB	0ceH
	DB	059H
	DB	0ceH
	DB	058H
	DB	0ceH
	DB	059H
	DB	0ceH
	DB	059H
	DB	0ceH
	DB	058H
	DB	0ceH
	DB	058H
	DB	0c6H
	DB	058H
	DB	0ceH
	DB	058H
	DB	0ceH
	DB	058H
	DB	0ceH
	DB	059H
	DB	0ceH
	DB	058H
	DB	0ceH
	DB	058H
	DB	0ceH
	DB	059H
	DB	0ceH
	DB	058H
	DB	0c6H
	DB	058H
	DB	0ceH
	DB	059H
	DB	0ceH
	DB	078H
	DB	0c6H
	DB	058H
	DB	0c6H
	DB	058H
	DB	0ceH
	DB	059H
	DB	0ceH
	DB	058H
	DB	0c6H
	DB	058H
	DB	0ceH
	DB	059H
	DB	0ceH
	DB	058H
	DB	0ceH
	DB	078H
	DB	0c6H
	DB	059H
	DB	0ceH
	DB	058H
	DB	0ceH
	DB	078H
	DB	0c6H
	DB	059H
	DB	0ceH
	DB	058H
	DB	0ceH
	DB	078H
	DB	0c6H
	DB	059H
	DB	0ceH
	DB	058H
	DB	0ceH
	DB	078H
	DB	0c6H
	DB	059H
	DB	0ceH
	DB	058H
	DB	0ceH
	DB	078H
	DB	0c6H
	DB	058H
	DB	0c6H
	DB	058H
	DB	0ceH
	DB	059H
	DB	0ceH
	DB	058H
	DB	0c6H
	DB	078H
	DB	0ceH
	DB	059H
	DB	0ceH
	DB	058H
	DB	0c6H
	DB	078H
	DB	0ceH
	DB	059H
	DB	0ceH
	DB	058H
	DB	0ceH
	DB	058H
	DB	0ceH
	DB	059H
	DB	0c6H
	DB	078H
	DB	0ceH
	DB	058H
	DB	0ceH
	DB	059H
	DB	0c6H
	DB	078H
	DB	0ceH
	DB	058H
	DB	0ceH
	DB	059H
	DB	0c6H
	DB	078H
	DB	0ceH
	DB	058H
	DB	0ceH
	DB	058H
	DB	0c6H
	DB	058H
	DB	0c6H
	DB	058H
	DB	0ceH
	DB	058H
	DB	0c6H
	DB	058H
	DB	0c6H
	DB	058H
	DB	0ceH
	DB	058H
	DB	0c6H
	DB	058H
	DB	0c6H
	DB	058H
	DB	0ceH
	DB	058H
	DB	0c6H
	DB	058H
	DB	0c6H
	DB	058H
	DB	0ceH
	DB	058H
	DB	0c6H
	DB	058H
	DB	0c6H
	DB	058H
	DB	0c6H
	DB	058H
	DB	0c6H
	DB	058H
	DB	0ceH
	DB	058H
	DB	0c6H
	DB	058H
	DB	0c6H
	DB	058H
	DB	0c6H
	DB	058H
	DB	0c6H
	DB	058H
	DB	0c6H
	DB	058H
	DB	0c6H
	DB	058H
	DB	0c6H
	DB	058H
	DB	0c6H
	DB	058H
	DB	0c6H
	DB	058H
	DB	0c6H
	DB	058H
	DB	0c6H
	DB	058H
	DB	0ceH
	DB	058H
	DB	0ceH
	DB	058H
	DB	0c6H
	DB	079H
	DB	0ceH
	DB	079H
	DB	0ceH
	DB	038H
	DB	0c6H
	DB	038H
	DB	0c6H
	DB	038H
	DB	0c6H
	DB	038H
	DB	0c6H
	DB	058H
	DB	0c6H
	DB	038H
	DB	0c6H
	DB	038H
	DB	0c6H
	DB	058H
	DB	0c6H
	DB	038H
	DB	0c6H
	DB	038H
	DB	0c6H
	DB	038H
	DB	0c6H
	DB	038H
	DB	0c6H
	DB	038H
	DB	0c6H
	DB	038H
	DB	0c6H
	DB	038H
	DB	0c6H
	DB	038H
	DB	0c6H
	DB	038H
	DB	0c6H
	DB	038H
	DB	0c6H
	DB	038H
	DB	0c6H
	DB	038H
	DB	0c6H
	DB	038H
	DB	0c6H
	DB	038H
	DB	0c6H
	DB	038H
	DB	0c6H
	DB	038H
	DB	0c6H
	DB	038H
	DB	0c6H
	DB	038H
	DB	0c6H
	DB	038H
	DB	0c6H
	DB	038H
	DB	0c6H
	DB	038H
	DB	0c6H
	DB	038H
	DB	0c6H
	DB	038H
	DB	0c6H
	DB	038H
	DB	0c6H
	DB	038H
	DB	0c6H
	DB	038H
	DB	0c6H
	DB	038H
	DB	0c6H
	DB	058H
	DB	0c6H
	DB	038H
	DB	0c6H
	DB	038H
	DB	0c6H
	DB	058H
	DB	0c6H
	DB	038H
	DB	0c6H
	DB	038H
	DB	0c6H
	DB	058H
	DB	0c6H
	DB	038H
	DB	0c6H
	DB	038H
	DB	0c6H
	DB	058H
	DB	0c6H
	DB	038H
	DB	0c6H
	DB	038H
	DB	0c6H
	DB	058H
	DB	0c6H
	DB	038H
	DB	0c6H
	DB	038H
	DB	0c6H
	DB	058H
	DB	0c6H
	DB	038H
	DB	0c6H
	DB	038H
	DB	0c6H
	DB	058H
	DB	0c6H
	DB	038H
	DB	0c6H
	DB	038H
	DB	0c6H
	DB	058H
	DB	0c6H
	DB	038H
	DB	0c6H
	DB	038H
	DB	0c6H
	DB	058H
	DB	0c6H
	DB	038H
	DB	0c6H
	DB	038H
	DB	0c6H
	DB	058H
	DB	0c6H
	DB	038H
	DB	0c6H
	DB	038H
	DB	0c6H
	DB	058H
	DB	0c6H
	DB	038H
	DB	0c6H
	DB	038H
	DB	0c6H
	DB	038H
	DB	0c6H
	DB	038H
	DB	0c6H
	DB	038H
	DB	0c6H
	DB	038H
	DB	0c6H
	DB	038H
	DB	0c6H
	DB	038H
	DB	0c6H
	DB	038H
	DB	0c6H
	DB	038H
	DB	0c6H
	DB	038H
	DB	0c6H
	DB	038H
	DB	0c6H
	DB	079H
	DB	0ceH
	DB	0ceH
	DB	07bH
	DB	079H
	DB	0ceH
	DB	038H
	DB	0c6H
	DB	038H
	DB	0c6H
	DB	038H
	DB	0c6H
	DB	038H
	DB	0c6H
	DB	038H
	DB	0c6H
	DB	038H
	DB	0c6H
	DB	038H
	DB	0c6H
	DB	038H
	DB	0c6H
	DB	038H
	DB	0c6H
	DB	038H
	DB	0c6H
	DB	038H
	DB	0c6H
	DB	038H
	DB	0c6H
	DB	038H
	DB	0c6H
	DB	038H
	DB	0c6H
	DB	038H
	DB	0c6H
	DB	038H
	DB	0c6H
	DB	038H
	DB	0c6H
	DB	038H
	DB	0c6H
	DB	038H
	DB	0c6H
	DB	038H
	DB	0c6H
	DB	038H
	DB	0c6H
	DB	038H
	DB	0c6H
	DB	038H
	DB	0c6H
	DB	038H
	DB	0c6H
	DB	038H
	DB	0c6H
	DB	038H
	DB	0c6H
	DB	038H
	DB	0c6H
	DB	038H
	DB	0c6H
	DB	038H
	DB	0c6H
	DB	038H
	DB	0c6H
	DB	038H
	DB	0c6H
	DB	038H
	DB	0c6H
	DB	038H
	DB	0c6H
	DB	038H
	DB	0c6H
	DB	038H
	DB	0c6H
	DB	038H
	DB	0c6H
	DB	038H
	DB	0c6H
	DB	038H
	DB	0c6H
	DB	038H
	DB	0c6H
	DB	038H
	DB	0c6H
	DB	038H
	DB	0c6H
	DB	038H
	DB	0c6H
	DB	038H
	DB	0c6H
	DB	038H
	DB	0c6H
	DB	038H
	DB	0c6H
	DB	038H
	DB	0c6H
	DB	038H
	DB	0c6H
	DB	038H
	DB	0c6H
	DB	038H
	DB	0c6H
	DB	038H
	DB	0c6H
	DB	038H
	DB	0c6H
	DB	038H
	DB	0c6H
	DB	038H
	DB	0c6H
	DB	038H
	DB	0c6H
	DB	038H
	DB	0c6H
	DB	038H
	DB	0c6H
	DB	038H
	DB	0c6H
	DB	038H
	DB	0c6H
	DB	038H
	DB	0c6H
	DB	038H
	DB	0c6H
	DB	038H
	DB	0c6H
	DB	038H
	DB	0c6H
	DB	038H
	DB	0c6H
	DB	038H
	DB	0c6H
	DB	038H
	DB	0c6H
	DB	038H
	DB	0c6H
	DB	038H
	DB	0c6H
	DB	038H
	DB	0c6H
	DB	038H
	DB	0c6H
	DB	038H
	DB	0c6H
	DB	038H
	DB	0c6H
	DB	038H
	DB	0c6H
	DB	038H
	DB	0c6H
	DB	038H
	DB	0c6H
	DB	038H
	DB	0c6H
	DB	038H
	DB	0c6H
	DB	038H
	DB	0c6H
	DB	038H
	DB	0c6H
	DB	038H
	DB	0c6H
	DB	0f7H
	DB	0bdH
	DB	0f7H
	DB	0c5H
	DB	0f7H
	DB	0bdH
	DB	0f7H
	DB	0bdH
	DB	0f7H
	DB	0c5H
	DB	0f7H
	DB	0c5H
	DB	018H
	DB	0c6H
	DB	0f7H
	DB	0c5H
	DB	0f7H
	DB	0bdH
	DB	0f7H
	DB	0c5H
	DB	0f7H
	DB	0bdH
	DB	018H
	DB	0c6H
	DB	0f7H
	DB	0c5H
	DB	018H
	DB	0c6H
	DB	017H
	DB	0c6H
	DB	0f8H
	DB	0c5H
	DB	017H
	DB	0c6H
	DB	018H
	DB	0c6H
	DB	0f7H
	DB	0c5H
	DB	018H
	DB	0c6H
	DB	017H
	DB	0c6H
	DB	0f8H
	DB	0c5H
	DB	017H
	DB	0c6H
	DB	018H
	DB	0beH
	DB	0f7H
	DB	0c5H
	DB	0f8H
	DB	0c5H
	DB	0f7H
	DB	0c5H
	DB	0f8H
	DB	0c5H
	DB	0f7H
	DB	0c5H
	DB	0f8H
	DB	0c5H
	DB	0f7H
	DB	0c5H
	DB	0f8H
	DB	0c5H
	DB	018H
	DB	0c6H
	DB	018H
	DB	0c6H
	DB	018H
	DB	0c6H
	DB	018H
	DB	0c6H
	DB	018H
	DB	0c6H
	DB	018H
	DB	0c6H
	DB	018H
	DB	0c6H
	DB	018H
	DB	0beH
	DB	018H
	DB	0c6H
	DB	0f8H
	DB	0c5H
	DB	018H
	DB	0c6H
	DB	018H
	DB	0c6H
	DB	0f8H
	DB	0c5H
	DB	018H
	DB	0c6H
	DB	018H
	DB	0c6H
	DB	0f8H
	DB	0c5H
	DB	018H
	DB	0c6H
	DB	018H
	DB	0c6H
	DB	0f8H
	DB	0c5H
	DB	018H
	DB	0c6H
	DB	018H
	DB	0c6H
	DB	0f8H
	DB	0c5H
	DB	018H
	DB	0c6H
	DB	018H
	DB	0c6H
	DB	0f7H
	DB	0bdH
	DB	018H
	DB	0c6H
	DB	018H
	DB	0c6H
	DB	018H
	DB	0c6H
	DB	018H
	DB	0c6H
	DB	018H
	DB	0c6H
	DB	0f7H
	DB	0c5H
	DB	0f8H
	DB	0c5H
	DB	018H
	DB	0beH
	DB	018H
	DB	0c6H
	DB	018H
	DB	0c6H
	DB	018H
	DB	0c6H
	DB	018H
	DB	0c6H
	DB	018H
	DB	0c6H
	DB	018H
	DB	0c6H
	DB	018H
	DB	0c6H
	DB	018H
	DB	0c6H
	DB	018H
	DB	0c6H
	DB	018H
	DB	0c6H
	DB	018H
	DB	0c6H
	DB	018H
	DB	0c6H
	DB	018H
	DB	0c6H
	DB	018H
	DB	0c6H
	DB	018H
	DB	0c6H
	DB	018H
	DB	0c6H
	DB	018H
	DB	0c6H
	DB	018H
	DB	0c6H
	DB	018H
	DB	0c6H
	DB	018H
	DB	0c6H
	DB	018H
	DB	0c6H
	DB	018H
	DB	0c6H
	DB	018H
	DB	0c6H
	DB	018H
	DB	0c6H
	DB	018H
	DB	0c6H
	DB	018H
	DB	0c6H
	DB	018H
	DB	0c6H
	DB	018H
	DB	0c6H
	DB	018H
	DB	0c6H
	DB	018H
	DB	0c6H
	DB	018H
	DB	0c6H
	DB	018H
	DB	0c6H
	DB	018H
	DB	0c6H
	DB	018H
	DB	0c6H
	DB	018H
	DB	0c6H
	DB	018H
	DB	0c6H
	DB	018H
	DB	0c6H
	DB	018H
	DB	0c6H
	DB	018H
	DB	0c6H
	DB	018H
	DB	0c6H
	DB	018H
	DB	0c6H
	DB	018H
	DB	0c6H
	DB	018H
	DB	0c6H
	DB	018H
	DB	0c6H
	DB	018H
	DB	0c6H
	DB	018H
	DB	0c6H
	DB	018H
	DB	0c6H
	DB	018H
	DB	0c6H
	DB	018H
	DB	0c6H
	DB	018H
	DB	0c6H
	DB	018H
	DB	0c6H
	DB	018H
	DB	0c6H
	DB	018H
	DB	0c6H
	DB	018H
	DB	0c6H
	DB	018H
	DB	0c6H
	DB	018H
	DB	0c6H
	DB	018H
	DB	0c6H
	DB	018H
	DB	0c6H
	DB	018H
	DB	0c6H
	DB	018H
	DB	0c6H
	DB	018H
	DB	0c6H
	DB	018H
	DB	0c6H
	DB	018H
	DB	0c6H
	DB	018H
	DB	0c6H
	DB	018H
	DB	0c6H
	DB	018H
	DB	0c6H
	DB	018H
	DB	0c6H
	DB	018H
	DB	0c6H
	DB	018H
	DB	0c6H
	DB	018H
	DB	0c6H
	DB	018H
	DB	0c6H
	DB	018H
	DB	0c6H
	DB	018H
	DB	0c6H
	DB	018H
	DB	0c6H
	DB	018H
	DB	0c6H
	DB	018H
	DB	0c6H
	DB	018H
	DB	0c6H
	DB	018H
	DB	0c6H
	DB	018H
	DB	0c6H
	DB	038H
	DB	0c6H
	DB	038H
	DB	0c6H
	DB	018H
	DB	0c6H
	DB	038H
	DB	0c6H
	DB	038H
	DB	0c6H
	DB	018H
	DB	0c6H
	DB	038H
	DB	0c6H
	DB	038H
	DB	0c6H
	DB	018H
	DB	0c6H
	DB	038H
	DB	0c6H
	DB	038H
	DB	0c6H
	DB	018H
	DB	0c6H
	DB	038H
	DB	0c6H
	DB	038H
	DB	0c6H
	DB	018H
	DB	0c6H
	DB	038H
	DB	0c6H
	DB	038H
	DB	0c6H
	DB	038H
	DB	0c6H
	DB	038H
	DB	0c6H
	DB	038H
	DB	0c6H
	DB	038H
	DB	0c6H
	DB	038H
	DB	0c6H
	DB	038H
	DB	0c6H
	DB	038H
	DB	0c6H
	DB	038H
	DB	0c6H
	DB	038H
	DB	0c6H
	DB	038H
	DB	0c6H
	DB	038H
	DB	0c6H
	DB	038H
	DB	0ceH
	DB	038H
	DB	0c6H
	DB	038H
	DB	0ceH
	DB	038H
	DB	0c6H
	DB	038H
	DB	0ceH
	DB	038H
	DB	0c6H
	DB	038H
	DB	0ceH
	DB	038H
	DB	0c6H
	DB	038H
	DB	0ceH
	DB	038H
	DB	0c6H
	DB	039H
	DB	0ceH
	DB	038H
	DB	0ceH
	DB	038H
	DB	0c6H
	DB	038H
	DB	0ceH
	DB	038H
	DB	0c6H
	DB	038H
	DB	0ceH
	DB	038H
	DB	0c6H
	DB	059H
	DB	0ceH
	DB	038H
	DB	0ceH
	DB	058H
	DB	0ceH
	DB	059H
	DB	0ceH
	DB	038H
	DB	0ceH
	DB	059H
	DB	0ceH
	DB	058H
	DB	0ceH
	DB	039H
	DB	0ceH
	DB	058H
	DB	0ceH
	DB	059H
	DB	0ceH
	DB	038H
	DB	0ceH
	DB	059H
	DB	0ceH
	DB	059H
	DB	0ceH
	DB	059H
	DB	0ceH
	DB	059H
	DB	0ceH
	DB	058H
	DB	0ceH
	DB	059H
	DB	0ceH
	DB	059H
	DB	0ceH
	DB	058H
	DB	0ceH
	DB	058H
	DB	0ceH
	DB	058H
	DB	0ceH
	DB	058H
	DB	0ceH
	DB	058H
	DB	0ceH
	DB	058H
	DB	0ceH
	DB	058H
	DB	0ceH
	DB	058H
	DB	0ceH
	DB	058H
	DB	0ceH
	DB	059H
	DB	0ceH
	DB	059H
	DB	0ceH
	DB	059H
	DB	0ceH
	DB	059H
	DB	0ceH
	DB	059H
	DB	0ceH
	DB	059H
	DB	0ceH
	DB	059H
	DB	0ceH
	DB	059H
	DB	0ceH
	DB	059H
	DB	0ceH
	DB	059H
	DB	0ceH
	DB	059H
	DB	0ceH
	DB	059H
	DB	0ceH
	DB	059H
	DB	0ceH
	DB	059H
	DB	0ceH
	DB	059H
	DB	0ceH
	DB	059H
	DB	0ceH
	DB	058H
	DB	0ceH
	DB	059H
	DB	0ceH
	DB	058H
	DB	0ceH
	DB	059H
	DB	0ceH
	DB	058H
	DB	0ceH
	DB	059H
	DB	0ceH
	DB	058H
	DB	0ceH
	DB	058H
	DB	0ceH
	DB	059H
	DB	0ceH
	DB	058H
	DB	0c6H
	DB	059H
	DB	0ceH
	DB	059H
	DB	0ceH
	DB	059H
	DB	0ceH
	DB	059H
	DB	0ceH
	DB	059H
	DB	0ceH
	DB	059H
	DB	0ceH
	DB	059H
	DB	0ceH
	DB	059H
	DB	0ceH
	DB	059H
	DB	0ceH
	DB	059H
	DB	0ceH
	DB	059H
	DB	0ceH
	DB	059H
	DB	0ceH
	DB	059H
	DB	0ceH
	DB	059H
	DB	0ceH
	DB	059H
	DB	0ceH
	DB	059H
	DB	0ceH
	DB	059H
	DB	0ceH
	DB	059H
	DB	0ceH
	DB	059H
	DB	0ceH
	DB	059H
	DB	0ceH
	DB	059H
	DB	0ceH
	DB	059H
	DB	0ceH
	DB	059H
	DB	0ceH
	DB	059H
	DB	0ceH
	DB	059H
	DB	0ceH
	DB	079H
	DB	0ceH
	DB	059H
	DB	0ceH
	DB	079H
	DB	0ceH
	DB	079H
	DB	0ceH
	DB	059H
	DB	0ceH
	DB	079H
	DB	0ceH
	DB	079H
	DB	0ceH
	DB	079H
	DB	0ceH
	DB	079H
	DB	0ceH
	DB	079H
	DB	0ceH
	DB	079H
	DB	0ceH
	DB	079H
	DB	0ceH
	DB	079H
	DB	0ceH
	DB	079H
	DB	0ceH
	DB	079H
	DB	0ceH
	DB	059H
	DB	0ceH
	DB	079H
	DB	0ceH
	DB	079H
	DB	0ceH
	DB	079H
	DB	0ceH
	DB	079H
	DB	0ceH
	DB	079H
	DB	0ceH
	DB	058H
	DB	0c6H
	DB	079H
	DB	0ceH
	DB	079H
	DB	0ceH
	DB	079H
	DB	0ceH
	DB	079H
	DB	0ceH
	DB	079H
	DB	0ceH
	DB	079H
	DB	0ceH
	DB	059H
	DB	0ceH
	DB	079H
	DB	0ceH
	DB	078H
	DB	0c6H
	DB	059H
	DB	0ceH
	DB	079H
	DB	0ceH
	DB	079H
	DB	0ceH
	DB	079H
	DB	0ceH
	DB	079H
	DB	0ceH
	DB	079H
	DB	0ceH
	DB	058H
	DB	0ceH
	DB	059H
	DB	0ceH
	DB	059H
	DB	0ceH
	DB	078H
	DB	0c6H
	DB	079H
	DB	0ceH
	DB	059H
	DB	0ceH
	DB	078H
	DB	0c6H
	DB	059H
	DB	0ceH
	DB	079H
	DB	0ceH
	DB	058H
	DB	0c6H
	DB	079H
	DB	0ceH
	DB	079H
	DB	0ceH
	DB	059H
	DB	0ceH
	DB	079H
	DB	0ceH
	DB	079H
	DB	0ceH
	DB	059H
	DB	0ceH
	DB	079H
	DB	0ceH
	DB	079H
	DB	0ceH
	DB	059H
	DB	0ceH
	DB	079H
	DB	0ceH
	DB	079H
	DB	0ceH
	DB	059H
	DB	0ceH
	DB	079H
	DB	0ceH
	DB	079H
	DB	0ceH
	DB	059H
	DB	0ceH
	DB	079H
	DB	0ceH
	DB	058H
	DB	0ceH
	DB	059H
	DB	0ceH
	DB	079H
	DB	0ceH
	DB	059H
	DB	0ceH
	DB	058H
	DB	0ceH
	DB	059H
	DB	0ceH
	DB	058H
	DB	0ceH
	DB	059H
	DB	0ceH
	DB	058H
	DB	0ceH
	DB	059H
	DB	0ceH
	DB	058H
	DB	0ceH
	DB	059H
	DB	0ceH
	DB	058H
	DB	0ceH
	DB	059H
	DB	0c6H
	DB	058H
	DB	0ceH
	DB	059H
	DB	0ceH
	DB	058H
	DB	0ceH
	DB	079H
	DB	0ceH
	DB	079H
	DB	0ceH
	DB	058H
	DB	0c6H
	DB	038H
	DB	0c6H
	DB	058H
	DB	0c6H
	DB	058H
	DB	0c6H
	DB	038H
	DB	0c6H
	DB	058H
	DB	0c6H
	DB	038H
	DB	0c6H
	DB	058H
	DB	0c6H
	DB	058H
	DB	0c6H
	DB	038H
	DB	0ceH
	DB	038H
	DB	0c6H
	DB	038H
	DB	0ceH
	DB	038H
	DB	0ceH
	DB	038H
	DB	0c6H
	DB	038H
	DB	0ceH
	DB	038H
	DB	0ceH
	DB	038H
	DB	0c6H
	DB	038H
	DB	0ceH
	DB	038H
	DB	0ceH
	DB	038H
	DB	0c6H
	DB	038H
	DB	0ceH
	DB	038H
	DB	0ceH
	DB	038H
	DB	0c6H
	DB	038H
	DB	0ceH
	DB	038H
	DB	0ceH
	DB	038H
	DB	0c6H
	DB	038H
	DB	0ceH
	DB	058H
	DB	0c6H
	DB	058H
	DB	0c6H
	DB	038H
	DB	0ceH
	DB	038H
	DB	0c6H
	DB	038H
	DB	0ceH
	DB	038H
	DB	0ceH
	DB	058H
	DB	0c6H
	DB	058H
	DB	0c6H
	DB	038H
	DB	0c6H
	DB	058H
	DB	0c6H
	DB	038H
	DB	0c6H
	DB	058H
	DB	0c6H
	DB	038H
	DB	0c6H
	DB	058H
	DB	0c6H
	DB	058H
	DB	0c6H
	DB	038H
	DB	0c6H
	DB	058H
	DB	0c6H
	DB	038H
	DB	0c6H
	DB	058H
	DB	0c6H
	DB	038H
	DB	0c6H
	DB	058H
	DB	0c6H
	DB	038H
	DB	0c6H
	DB	058H
	DB	0c6H
	DB	058H
	DB	0c6H
	DB	038H
	DB	0c6H
	DB	058H
	DB	0c6H
	DB	038H
	DB	0c6H
	DB	058H
	DB	0c6H
	DB	038H
	DB	0c6H
	DB	058H
	DB	0c6H
	DB	038H
	DB	0c6H
	DB	058H
	DB	0c6H
	DB	058H
	DB	0c6H
	DB	038H
	DB	0c6H
	DB	058H
	DB	0c6H
	DB	038H
	DB	0c6H
	DB	058H
	DB	0c6H
	DB	038H
	DB	0c6H
	DB	058H
	DB	0c6H
	DB	058H
	DB	0c6H
	DB	038H
	DB	0c6H
	DB	038H
	DB	0c6H
	DB	038H
	DB	0c6H
	DB	038H
	DB	0c6H
	DB	038H
	DB	0c6H
	DB	038H
	DB	0c6H
	DB	038H
	DB	0c6H
	DB	038H
	DB	0c6H
	DB	038H
	DB	0c6H
	DB	038H
	DB	0c6H
	DB	038H
	DB	0c6H
	DB	099H
	DB	0ceH
	DB	0ceH
	DB	07bH
	DB	099H
	DB	0ceH
	DB	058H
	DB	0c6H
	DB	038H
	DB	0c6H
	DB	038H
	DB	0c6H
	DB	038H
	DB	0c6H
	DB	038H
	DB	0c6H
	DB	038H
	DB	0c6H
	DB	038H
	DB	0c6H
	DB	038H
	DB	0c6H
	DB	038H
	DB	0c6H
	DB	038H
	DB	0c6H
	DB	038H
	DB	0c6H
	DB	038H
	DB	0c6H
	DB	038H
	DB	0c6H
	DB	038H
	DB	0c6H
	DB	038H
	DB	0c6H
	DB	038H
	DB	0c6H
	DB	038H
	DB	0c6H
	DB	038H
	DB	0c6H
	DB	038H
	DB	0c6H
	DB	038H
	DB	0c6H
	DB	038H
	DB	0c6H
	DB	038H
	DB	0c6H
	DB	038H
	DB	0c6H
	DB	038H
	DB	0c6H
	DB	037H
	DB	0c6H
	DB	038H
	DB	0c6H
	DB	038H
	DB	0c6H
	DB	017H
	DB	0c6H
	DB	038H
	DB	0c6H
	DB	038H
	DB	0c6H
	DB	038H
	DB	0c6H
	DB	038H
	DB	0c6H
	DB	038H
	DB	0c6H
	DB	038H
	DB	0c6H
	DB	037H
	DB	0c6H
	DB	018H
	DB	0c6H
	DB	038H
	DB	0c6H
	DB	017H
	DB	0c6H
	DB	038H
	DB	0c6H
	DB	018H
	DB	0c6H
	DB	037H
	DB	0c6H
	DB	018H
	DB	0c6H
	DB	038H
	DB	0c6H
	DB	017H
	DB	0c6H
	DB	038H
	DB	0c6H
	DB	018H
	DB	0c6H
	DB	037H
	DB	0c6H
	DB	018H
	DB	0c6H
	DB	038H
	DB	0c6H
	DB	017H
	DB	0c6H
	DB	038H
	DB	0c6H
	DB	018H
	DB	0c6H
	DB	037H
	DB	0c6H
	DB	018H
	DB	0c6H
	DB	038H
	DB	0c6H
	DB	017H
	DB	0c6H
	DB	038H
	DB	0c6H
	DB	038H
	DB	0c6H
	DB	037H
	DB	0c6H
	DB	038H
	DB	0c6H
	DB	038H
	DB	0c6H
	DB	037H
	DB	0c6H
	DB	038H
	DB	0c6H
	DB	038H
	DB	0c6H
	DB	037H
	DB	0c6H
	DB	038H
	DB	0c6H
	DB	038H
	DB	0c6H
	DB	037H
	DB	0c6H
	DB	038H
	DB	0c6H
	DB	038H
	DB	0c6H
	DB	037H
	DB	0c6H
	DB	038H
	DB	0c6H
	DB	038H
	DB	0c6H
	DB	037H
	DB	0c6H
	DB	038H
	DB	0c6H
	DB	018H
	DB	0c6H
	DB	037H
	DB	0c6H
	DB	038H
	DB	0c6H
	DB	038H
	DB	0c6H
	DB	0f7H
	DB	0c5H
	DB	018H
	DB	0c6H
	DB	018H
	DB	0c6H
	DB	0f7H
	DB	0bdH
	DB	018H
	DB	0c6H
	DB	017H
	DB	0beH
	DB	018H
	DB	0c6H
	DB	018H
	DB	0c6H
	DB	018H
	DB	0c6H
	DB	018H
	DB	0c6H
	DB	018H
	DB	0c6H
	DB	017H
	DB	0c6H
	DB	018H
	DB	0c6H
	DB	018H
	DB	0beH
	DB	017H
	DB	0c6H
	DB	018H
	DB	0c6H
	DB	018H
	DB	0beH
	DB	017H
	DB	0c6H
	DB	018H
	DB	0c6H
	DB	018H
	DB	0beH
	DB	017H
	DB	0c6H
	DB	018H
	DB	0c6H
	DB	018H
	DB	0c6H
	DB	017H
	DB	0c6H
	DB	018H
	DB	0beH
	DB	018H
	DB	0c6H
	DB	017H
	DB	0beH
	DB	018H
	DB	0beH
	DB	018H
	DB	0c6H
	DB	017H
	DB	0beH
	DB	018H
	DB	0beH
	DB	017H
	DB	0c6H
	DB	018H
	DB	0c6H
	DB	018H
	DB	0beH
	DB	017H
	DB	0c6H
	DB	018H
	DB	0c6H
	DB	018H
	DB	0beH
	DB	017H
	DB	0c6H
	DB	018H
	DB	0c6H
	DB	018H
	DB	0c6H
	DB	017H
	DB	0c6H
	DB	018H
	DB	0c6H
	DB	018H
	DB	0beH
	DB	017H
	DB	0c6H
	DB	018H
	DB	0c6H
	DB	018H
	DB	0beH
	DB	017H
	DB	0c6H
	DB	018H
	DB	0beH
	DB	018H
	DB	0c6H
	DB	017H
	DB	0c6H
	DB	018H
	DB	0c6H
	DB	018H
	DB	0c6H
	DB	017H
	DB	0c6H
	DB	018H
	DB	0c6H
	DB	018H
	DB	0c6H
	DB	018H
	DB	0c6H
	DB	018H
	DB	0c6H
	DB	018H
	DB	0beH
	DB	017H
	DB	0c6H
	DB	018H
	DB	0c6H
	DB	018H
	DB	0beH
	DB	018H
	DB	0c6H
	DB	018H
	DB	0c6H
	DB	018H
	DB	0c6H
	DB	018H
	DB	0c6H
	DB	017H
	DB	0c6H
	DB	018H
	DB	0c6H
	DB	018H
	DB	0c6H
	DB	017H
	DB	0c6H
	DB	018H
	DB	0c6H
	DB	018H
	DB	0c6H
	DB	017H
	DB	0c6H
	DB	018H
	DB	0c6H
	DB	018H
	DB	0c6H
	DB	018H
	DB	0c6H
	DB	018H
	DB	0c6H
	DB	018H
	DB	0c6H
	DB	018H
	DB	0c6H
	DB	018H
	DB	0c6H
	DB	018H
	DB	0c6H
	DB	018H
	DB	0c6H
	DB	018H
	DB	0c6H
	DB	038H
	DB	0c6H
	DB	018H
	DB	0c6H
	DB	038H
	DB	0c6H
	DB	038H
	DB	0c6H
	DB	018H
	DB	0c6H
	DB	038H
	DB	0c6H
	DB	038H
	DB	0c6H
	DB	018H
	DB	0c6H
	DB	038H
	DB	0c6H
	DB	038H
	DB	0c6H
	DB	018H
	DB	0c6H
	DB	038H
	DB	0c6H
	DB	038H
	DB	0c6H
	DB	018H
	DB	0c6H
	DB	038H
	DB	0c6H
	DB	038H
	DB	0c6H
	DB	018H
	DB	0c6H
	DB	038H
	DB	0c6H
	DB	038H
	DB	0c6H
	DB	038H
	DB	0c6H
	DB	038H
	DB	0c6H
	DB	038H
	DB	0c6H
	DB	038H
	DB	0c6H
	DB	018H
	DB	0c6H
	DB	038H
	DB	0c6H
	DB	038H
	DB	0c6H
	DB	018H
	DB	0c6H
	DB	018H
	DB	0c6H
	DB	018H
	DB	0c6H
	DB	018H
	DB	0c6H
	DB	038H
	DB	0c6H
	DB	018H
	DB	0c6H
	DB	038H
	DB	0c6H
	DB	038H
	DB	0c6H
	DB	038H
	DB	0c6H
	DB	038H
	DB	0c6H
	DB	038H
	DB	0c6H
	DB	038H
	DB	0c6H
	DB	018H
	DB	0c6H
	DB	038H
	DB	0c6H
	DB	018H
	DB	0c6H
	DB	038H
	DB	0c6H
	DB	038H
	DB	0c6H
	DB	018H
	DB	0c6H
	DB	038H
	DB	0c6H
	DB	038H
	DB	0c6H
	DB	018H
	DB	0c6H
	DB	038H
	DB	0c6H
	DB	038H
	DB	0c6H
	DB	018H
	DB	0c6H
	DB	038H
	DB	0c6H
	DB	038H
	DB	0c6H
	DB	018H
	DB	0c6H
	DB	038H
	DB	0c6H
	DB	038H
	DB	0c6H
	DB	018H
	DB	0c6H
	DB	038H
	DB	0c6H
	DB	038H
	DB	0c6H
	DB	018H
	DB	0c6H
	DB	038H
	DB	0c6H
	DB	038H
	DB	0ceH
	DB	038H
	DB	0c6H
	DB	038H
	DB	0c6H
	DB	038H
	DB	0ceH
	DB	038H
	DB	0c6H
	DB	038H
	DB	0c6H
	DB	038H
	DB	0ceH
	DB	038H
	DB	0c6H
	DB	038H
	DB	0c6H
	DB	038H
	DB	0ceH
	DB	038H
	DB	0ceH
	DB	038H
	DB	0c6H
	DB	038H
	DB	0ceH
	DB	038H
	DB	0ceH
	DB	038H
	DB	0ceH
	DB	038H
	DB	0ceH
	DB	038H
	DB	0ceH
	DB	038H
	DB	0ceH
	DB	038H
	DB	0c6H
	DB	038H
	DB	0ceH
	DB	038H
	DB	0c6H
	DB	038H
	DB	0ceH
	DB	038H
	DB	0ceH
	DB	038H
	DB	0c6H
	DB	038H
	DB	0ceH
	DB	039H
	DB	0ceH
	DB	038H
	DB	0ceH
	DB	038H
	DB	0ceH
	DB	039H
	DB	0ceH
	DB	038H
	DB	0ceH
	DB	059H
	DB	0c6H
	DB	039H
	DB	0ceH
	DB	058H
	DB	0ceH
	DB	059H
	DB	0c6H
	DB	059H
	DB	0ceH
	DB	059H
	DB	0ceH
	DB	059H
	DB	0ceH
	DB	059H
	DB	0ceH
	DB	059H
	DB	0ceH
	DB	059H
	DB	0ceH
	DB	058H
	DB	0ceH
	DB	059H
	DB	0ceH
	DB	059H
	DB	0ceH
	DB	059H
	DB	0ceH
	DB	059H
	DB	0ceH
	DB	059H
	DB	0ceH
	DB	059H
	DB	0ceH
	DB	059H
	DB	0ceH
	DB	059H
	DB	0ceH
	DB	059H
	DB	0c6H
	DB	058H
	DB	0ceH
	DB	059H
	DB	0ceH
	DB	059H
	DB	0c6H
	DB	058H
	DB	0ceH
	DB	059H
	DB	0ceH
	DB	059H
	DB	0c6H
	DB	058H
	DB	0ceH
	DB	059H
	DB	0ceH
	DB	059H
	DB	0ceH
	DB	058H
	DB	0ceH
	DB	059H
	DB	0ceH
	DB	059H
	DB	0ceH
	DB	059H
	DB	0ceH
	DB	059H
	DB	0ceH
	DB	059H
	DB	0ceH
	DB	059H
	DB	0ceH
	DB	059H
	DB	0c6H
	DB	059H
	DB	0ceH
	DB	059H
	DB	0ceH
	DB	059H
	DB	0c6H
	DB	059H
	DB	0ceH
	DB	059H
	DB	0ceH
	DB	059H
	DB	0c6H
	DB	059H
	DB	0ceH
	DB	059H
	DB	0ceH
	DB	059H
	DB	0c6H
	DB	058H
	DB	0ceH
	DB	059H
	DB	0ceH
	DB	059H
	DB	0ceH
	DB	058H
	DB	0ceH
	DB	059H
	DB	0ceH
	DB	059H
	DB	0c6H
	DB	058H
	DB	0ceH
	DB	059H
	DB	0ceH
	DB	059H
	DB	0ceH
	DB	058H
	DB	0ceH
	DB	059H
	DB	0ceH
	DB	059H
	DB	0ceH
	DB	059H
	DB	0ceH
	DB	059H
	DB	0ceH
	DB	059H
	DB	0ceH
	DB	059H
	DB	0ceH
	DB	059H
	DB	0ceH
	DB	059H
	DB	0ceH
	DB	059H
	DB	0ceH
	DB	059H
	DB	0ceH
	DB	059H
	DB	0ceH
	DB	059H
	DB	0ceH
	DB	059H
	DB	0ceH
	DB	058H
	DB	0ceH
	DB	059H
	DB	0ceH
	DB	079H
	DB	0ceH
	DB	059H
	DB	0ceH
	DB	079H
	DB	0ceH
	DB	059H
	DB	0ceH
	DB	059H
	DB	0ceH
	DB	058H
	DB	0ceH
	DB	059H
	DB	0c6H
	DB	059H
	DB	0ceH
	DB	058H
	DB	0ceH
	DB	059H
	DB	0c6H
	DB	059H
	DB	0ceH
	DB	079H
	DB	0ceH
	DB	078H
	DB	0ceH
	DB	079H
	DB	0ceH
	DB	079H
	DB	0ceH
	DB	059H
	DB	0ceH
	DB	079H
	DB	0ceH
	DB	079H
	DB	0ceH
	DB	059H
	DB	0ceH
	DB	079H
	DB	0ceH
	DB	079H
	DB	0ceH
	DB	058H
	DB	0ceH
	DB	079H
	DB	0ceH
	DB	079H
	DB	0ceH
	DB	079H
	DB	0ceH
	DB	078H
	DB	0ceH
	DB	079H
	DB	0ceH
	DB	079H
	DB	0ceH
	DB	078H
	DB	0ceH
	DB	079H
	DB	0ceH
	DB	079H
	DB	0ceH
	DB	078H
	DB	0ceH
	DB	079H
	DB	0ceH
	DB	079H
	DB	0ceH
	DB	079H
	DB	0ceH
	DB	078H
	DB	0ceH
	DB	079H
	DB	0ceH
	DB	079H
	DB	0ceH
	DB	078H
	DB	0ceH
	DB	079H
	DB	0ceH
	DB	079H
	DB	0ceH
	DB	078H
	DB	0ceH
	DB	079H
	DB	0ceH
	DB	079H
	DB	0ceH
	DB	079H
	DB	0ceH
	DB	079H
	DB	0ceH
	DB	079H
	DB	0ceH
	DB	079H
	DB	0ceH
	DB	079H
	DB	0ceH
	DB	079H
	DB	0ceH
	DB	078H
	DB	0ceH
	DB	079H
	DB	0ceH
	DB	079H
	DB	0ceH
	DB	079H
	DB	0ceH
	DB	079H
	DB	0ceH
	DB	079H
	DB	0ceH
	DB	079H
	DB	0ceH
	DB	079H
	DB	0ceH
	DB	078H
	DB	0ceH
	DB	079H
	DB	0ceH
	DB	079H
	DB	0ceH
	DB	079H
	DB	0ceH
	DB	079H
	DB	0ceH
	DB	058H
	DB	0ceH
	DB	079H
	DB	0ceH
	DB	059H
	DB	0ceH
	DB	079H
	DB	0ceH
	DB	078H
	DB	0ceH
	DB	079H
	DB	0ceH
	DB	079H
	DB	0ceH
	DB	059H
	DB	0ceH
	DB	058H
	DB	0ceH
	DB	079H
	DB	0ceH
	DB	059H
	DB	0ceH
	DB	078H
	DB	0ceH
	DB	059H
	DB	0ceH
	DB	059H
	DB	0ceH
	DB	078H
	DB	0ceH
	DB	059H
	DB	0ceH
	DB	079H
	DB	0ceH
	DB	058H
	DB	0ceH
	DB	079H
	DB	0ceH
	DB	059H
	DB	0ceH
	DB	078H
	DB	0ceH
	DB	059H
	DB	0ceH
	DB	079H
	DB	0ceH
	DB	079H
	DB	0ceH
	DB	059H
	DB	0ceH
	DB	078H
	DB	0ceH
	DB	079H
	DB	0ceH
	DB	059H
	DB	0ceH
	DB	079H
	DB	0ceH
	DB	058H
	DB	0ceH
	DB	059H
	DB	0ceH
	DB	059H
	DB	0ceH
	DB	058H
	DB	0ceH
	DB	059H
	DB	0ceH
	DB	059H
	DB	0ceH
	DB	058H
	DB	0ceH
	DB	059H
	DB	0ceH
	DB	059H
	DB	0ceH
	DB	058H
	DB	0ceH
	DB	059H
	DB	0ceH
	DB	059H
	DB	0ceH
	DB	079H
	DB	0ceH
	DB	078H
	DB	0ceH
	DB	058H
	DB	0c6H
	DB	038H
	DB	0c6H
	DB	058H
	DB	0c6H
	DB	038H
	DB	0c6H
	DB	058H
	DB	0c6H
	DB	038H
	DB	0c6H
	DB	058H
	DB	0c6H
	DB	038H
	DB	0c6H
	DB	038H
	DB	0c6H
	DB	038H
	DB	0ceH
	DB	058H
	DB	0c6H
	DB	038H
	DB	0c6H
	DB	058H
	DB	0ceH
	DB	038H
	DB	0c6H
	DB	058H
	DB	0c6H
	DB	038H
	DB	0ceH
	DB	058H
	DB	0c6H
	DB	038H
	DB	0c6H
	DB	058H
	DB	0ceH
	DB	038H
	DB	0c6H
	DB	058H
	DB	0c6H
	DB	038H
	DB	0ceH
	DB	058H
	DB	0c6H
	DB	038H
	DB	0c6H
	DB	058H
	DB	0ceH
	DB	038H
	DB	0c6H
	DB	038H
	DB	0c6H
	DB	058H
	DB	0c6H
	DB	058H
	DB	0c6H
	DB	038H
	DB	0ceH
	DB	038H
	DB	0c6H
	DB	058H
	DB	0c6H
	DB	038H
	DB	0ceH
	DB	058H
	DB	0c6H
	DB	058H
	DB	0c6H
	DB	038H
	DB	0c6H
	DB	058H
	DB	0c6H
	DB	058H
	DB	0c6H
	DB	038H
	DB	0c6H
	DB	058H
	DB	0c6H
	DB	038H
	DB	0c6H
	DB	038H
	DB	0c6H
	DB	058H
	DB	0c6H
	DB	038H
	DB	0c6H
	DB	058H
	DB	0c6H
	DB	038H
	DB	0c6H
	DB	058H
	DB	0c6H
	DB	038H
	DB	0c6H
	DB	058H
	DB	0c6H
	DB	038H
	DB	0c6H
	DB	038H
	DB	0c6H
	DB	058H
	DB	0c6H
	DB	038H
	DB	0c6H
	DB	058H
	DB	0c6H
	DB	038H
	DB	0c6H
	DB	058H
	DB	0c6H
	DB	038H
	DB	0c6H
	DB	058H
	DB	0c6H
	DB	038H
	DB	0c6H
	DB	038H
	DB	0c6H
	DB	058H
	DB	0c6H
	DB	038H
	DB	0c6H
	DB	058H
	DB	0c6H
	DB	038H
	DB	0c6H
	DB	058H
	DB	0c6H
	DB	038H
	DB	0c6H
	DB	038H
	DB	0c6H
	DB	038H
	DB	0c6H
	DB	058H
	DB	0c6H
	DB	038H
	DB	0c6H
	DB	058H
	DB	0c6H
	DB	038H
	DB	0c6H
	DB	058H
	DB	0c6H
	DB	038H
	DB	0c6H
	DB	058H
	DB	0c6H
	DB	038H
	DB	0c6H
	DB	038H
	DB	0c6H
	DB	058H
	DB	0c6H
	DB	079H
	DB	0ceH
	DB	0efH
	DB	07bH
	DB	079H
	DB	0ceH
	DB	058H
	DB	0c6H
	DB	038H
	DB	0c6H
	DB	038H
	DB	0c6H
	DB	058H
	DB	0c6H
	DB	038H
	DB	0c6H
	DB	038H
	DB	0c6H
	DB	038H
	DB	0c6H
	DB	038H
	DB	0ceH
	DB	038H
	DB	0c6H
	DB	038H
	DB	0c6H
	DB	038H
	DB	0c6H
	DB	038H
	DB	0ceH
	DB	037H
	DB	0c6H
	DB	038H
	DB	0c6H
	DB	038H
	DB	0ceH
	DB	038H
	DB	0c6H
	DB	038H
	DB	0c6H
	DB	037H
	DB	0c6H
	DB	038H
	DB	0ceH
	DB	038H
	DB	0c6H
	DB	038H
	DB	0c6H
	DB	037H
	DB	0ceH
	DB	038H
	DB	0c6H
	DB	038H
	DB	0c6H
	DB	038H
	DB	0c6H
	DB	038H
	DB	0c6H
	DB	038H
	DB	0c6H
	DB	038H
	DB	0c6H
	DB	038H
	DB	0c6H
	DB	038H
	DB	0ceH
	DB	038H
	DB	0c6H
	DB	038H
	DB	0ceH
	DB	038H
	DB	0ceH
	DB	038H
	DB	0c6H
	DB	037H
	DB	0c6H
	DB	038H
	DB	0c6H
	DB	018H
	DB	0c6H
	DB	037H
	DB	0c6H
	DB	038H
	DB	0c6H
	DB	038H
	DB	0c6H
	DB	017H
	DB	0c6H
	DB	038H
	DB	0c6H
	DB	038H
	DB	0c6H
	DB	037H
	DB	0c6H
	DB	018H
	DB	0c6H
	DB	038H
	DB	0c6H
	DB	037H
	DB	0c6H
	DB	038H
	DB	0c6H
	DB	018H
	DB	0c6H
	DB	037H
	DB	0c6H
	DB	038H
	DB	0c6H
	DB	038H
	DB	0c6H
	DB	017H
	DB	0c6H
	DB	038H
	DB	0c6H
	DB	038H
	DB	0c6H
	DB	037H
	DB	0c6H
	DB	018H
	DB	0c6H
	DB	038H
	DB	0c6H
	DB	017H
	DB	0c6H
	DB	038H
	DB	0c6H
	DB	038H
	DB	0c6H
	DB	037H
	DB	0c6H
	DB	038H
	DB	0c6H
	DB	038H
	DB	0c6H
	DB	037H
	DB	0c6H
	DB	038H
	DB	0c6H
	DB	038H
	DB	0c6H
	DB	037H
	DB	0c6H
	DB	038H
	DB	0c6H
	DB	038H
	DB	0c6H
	DB	037H
	DB	0c6H
	DB	038H
	DB	0c6H
	DB	038H
	DB	0c6H
	DB	037H
	DB	0c6H
	DB	018H
	DB	0c6H
	DB	038H
	DB	0c6H
	DB	037H
	DB	0c6H
	DB	018H
	DB	0c6H
	DB	038H
	DB	0c6H
	DB	018H
	DB	0beH
	DB	017H
	DB	0c6H
	DB	018H
	DB	0c6H
	DB	018H
	DB	0c6H
	DB	017H
	DB	0beH
	DB	018H
	DB	0beH
	DB	0f7H
	DB	0c5H
	DB	017H
	DB	0beH
	DB	018H
	DB	0c6H
	DB	018H
	DB	0c6H
	DB	017H
	DB	0beH
	DB	018H
	DB	0c6H
	DB	018H
	DB	0c6H
	DB	017H
	DB	0beH
	DB	018H
	DB	0c6H
	DB	018H
	DB	0c6H
	DB	017H
	DB	0beH
	DB	018H
	DB	0c6H
	DB	018H
	DB	0c6H
	DB	017H
	DB	0beH
	DB	018H
	DB	0c6H
	DB	018H
	DB	0beH
	DB	017H
	DB	0c6H
	DB	018H
	DB	0c6H
	DB	018H
	DB	0c6H
	DB	017H
	DB	0c6H
	DB	018H
	DB	0c6H
	DB	018H
	DB	0c6H
	DB	017H
	DB	0c6H
	DB	018H
	DB	0c6H
	DB	018H
	DB	0c6H
	DB	017H
	DB	0c6H
	DB	018H
	DB	0c6H
	DB	018H
	DB	0c6H
	DB	017H
	DB	0c6H
	DB	018H
	DB	0c6H
	DB	018H
	DB	0c6H
	DB	017H
	DB	0c6H
	DB	018H
	DB	0c6H
	DB	018H
	DB	0c6H
	DB	017H
	DB	0c6H
	DB	018H
	DB	0c6H
	DB	018H
	DB	0c6H
	DB	017H
	DB	0c6H
	DB	018H
	DB	0c6H
	DB	018H
	DB	0c6H
	DB	017H
	DB	0c6H
	DB	018H
	DB	0c6H
	DB	018H
	DB	0c6H
	DB	017H
	DB	0c6H
	DB	018H
	DB	0beH
	DB	018H
	DB	0c6H
	DB	017H
	DB	0c6H
	DB	018H
	DB	0beH
	DB	017H
	DB	0c6H
	DB	018H
	DB	0c6H
	DB	018H
	DB	0c6H
	DB	017H
	DB	0c6H
	DB	018H
	DB	0c6H
	DB	038H
	DB	0c6H
	DB	018H
	DB	0c6H
	DB	038H
	DB	0c6H
	DB	038H
	DB	0c6H
	DB	038H
	DB	0c6H
	DB	038H
	DB	0c6H
	DB	018H
	DB	0c6H
	DB	038H
	DB	0c6H
	DB	018H
	DB	0c6H
	DB	018H
	DB	0c6H
	DB	038H
	DB	0c6H
	DB	018H
	DB	0c6H
	DB	018H
	DB	0c6H
	DB	018H
	DB	0c6H
	DB	038H
	DB	0c6H
	DB	017H
	DB	0c6H
	DB	038H
	DB	0c6H
	DB	038H
	DB	0c6H
	DB	017H
	DB	0c6H
	DB	038H
	DB	0c6H
	DB	038H
	DB	0c6H
	DB	038H
	DB	0c6H
	DB	038H
	DB	0c6H
	DB	038H
	DB	0c6H
	DB	038H
	DB	0c6H
	DB	038H
	DB	0c6H
	DB	038H
	DB	0c6H
	DB	038H
	DB	0c6H
	DB	038H
	DB	0c6H
	DB	038H
	DB	0c6H
	DB	038H
	DB	0c6H
	DB	038H
	DB	0c6H
	DB	038H
	DB	0c6H
	DB	038H
	DB	0c6H
	DB	038H
	DB	0c6H
	DB	038H
	DB	0c6H
	DB	038H
	DB	0c6H
	DB	038H
	DB	0c6H
	DB	038H
	DB	0c6H
	DB	038H
	DB	0c6H
	DB	038H
	DB	0c6H
	DB	038H
	DB	0c6H
	DB	038H
	DB	0c6H
	DB	038H
	DB	0c6H
	DB	038H
	DB	0c6H
	DB	037H
	DB	0c6H
	DB	038H
	DB	0c6H
	DB	038H
	DB	0c6H
	DB	038H
	DB	0c6H
	DB	038H
	DB	0c6H
	DB	038H
	DB	0c6H
	DB	038H
	DB	0c6H
	DB	038H
	DB	0c6H
	DB	038H
	DB	0c6H
	DB	038H
	DB	0c6H
	DB	038H
	DB	0c6H
	DB	038H
	DB	0c6H
	DB	038H
	DB	0c6H
	DB	038H
	DB	0c6H
	DB	038H
	DB	0c6H
	DB	038H
	DB	0c6H
	DB	038H
	DB	0ceH
	DB	038H
	DB	0ceH
	DB	038H
	DB	0c6H
	DB	038H
	DB	0ceH
	DB	038H
	DB	0ceH
	DB	038H
	DB	0c6H
	DB	038H
	DB	0ceH
	DB	038H
	DB	0ceH
	DB	038H
	DB	0c6H
	DB	038H
	DB	0ceH
	DB	038H
	DB	0ceH
	DB	038H
	DB	0c6H
	DB	038H
	DB	0ceH
	DB	038H
	DB	0ceH
	DB	038H
	DB	0c6H
	DB	038H
	DB	0ceH
	DB	038H
	DB	0ceH
	DB	038H
	DB	0c6H
	DB	038H
	DB	0ceH
	DB	038H
	DB	0ceH
	DB	038H
	DB	0c6H
	DB	038H
	DB	0ceH
	DB	038H
	DB	0ceH
	DB	038H
	DB	0ceH
	DB	038H
	DB	0c6H
	DB	038H
	DB	0ceH
	DB	038H
	DB	0ceH
	DB	038H
	DB	0c6H
	DB	038H
	DB	0ceH
	DB	038H
	DB	0ceH
	DB	038H
	DB	0c6H
	DB	038H
	DB	0c6H
	DB	038H
	DB	0ceH
	DB	038H
	DB	0ceH
	DB	038H
	DB	0c6H
	DB	038H
	DB	0c6H
	DB	038H
	DB	0ceH
	DB	058H
	DB	0c6H
	DB	039H
	DB	0c6H
	DB	058H
	DB	0ceH
	DB	058H
	DB	0ceH
	DB	059H
	DB	0c6H
	DB	058H
	DB	0ceH
	DB	059H
	DB	0ceH
	DB	039H
	DB	0c6H
	DB	058H
	DB	0ceH
	DB	058H
	DB	0c6H
	DB	039H
	DB	0ceH
	DB	059H
	DB	0ceH
	DB	058H
	DB	0c6H
	DB	059H
	DB	0ceH
	DB	059H
	DB	0ceH
	DB	058H
	DB	0c6H
	DB	059H
	DB	0ceH
	DB	058H
	DB	0ceH
	DB	059H
	DB	0c6H
	DB	058H
	DB	0c6H
	DB	058H
	DB	0c6H
	DB	058H
	DB	0c6H
	DB	058H
	DB	0c6H
	DB	058H
	DB	0c6H
	DB	058H
	DB	0c6H
	DB	058H
	DB	0c6H
	DB	058H
	DB	0c6H
	DB	059H
	DB	0ceH
	DB	059H
	DB	0c6H
	DB	058H
	DB	0ceH
	DB	059H
	DB	0ceH
	DB	058H
	DB	0c6H
	DB	058H
	DB	0ceH
	DB	059H
	DB	0ceH
	DB	059H
	DB	0c6H
	DB	058H
	DB	0ceH
	DB	059H
	DB	0ceH
	DB	059H
	DB	0c6H
	DB	058H
	DB	0ceH
	DB	059H
	DB	0ceH
	DB	059H
	DB	0c6H
	DB	058H
	DB	0ceH
	DB	059H
	DB	0c6H
	DB	058H
	DB	0c6H
	DB	058H
	DB	0ceH
	DB	058H
	DB	0ceH
	DB	058H
	DB	0c6H
	DB	058H
	DB	0ceH
	DB	058H
	DB	0ceH
	DB	058H
	DB	0ceH
	DB	058H
	DB	0ceH
	DB	059H
	DB	0ceH
	DB	059H
	DB	0ceH
	DB	059H
	DB	0ceH
	DB	059H
	DB	0ceH
	DB	059H
	DB	0ceH
	DB	059H
	DB	0ceH
	DB	059H
	DB	0ceH
	DB	059H
	DB	0ceH
	DB	058H
	DB	0ceH
	DB	059H
	DB	0ceH
	DB	059H
	DB	0ceH
	DB	058H
	DB	0ceH
	DB	059H
	DB	0c6H
	DB	059H
	DB	0ceH
	DB	059H
	DB	0ceH
	DB	058H
	DB	0ceH
	DB	059H
	DB	0ceH
	DB	079H
	DB	0ceH
	DB	059H
	DB	0ceH
	DB	059H
	DB	0ceH
	DB	079H
	DB	0ceH
	DB	059H
	DB	0ceH
	DB	058H
	DB	0ceH
	DB	059H
	DB	0ceH
	DB	059H
	DB	0ceH
	DB	079H
	DB	0ceH
	DB	059H
	DB	0ceH
	DB	059H
	DB	0ceH
	DB	059H
	DB	0ceH
	DB	079H
	DB	0ceH
	DB	059H
	DB	0ceH
	DB	059H
	DB	0ceH
	DB	078H
	DB	0ceH
	DB	059H
	DB	0ceH
	DB	079H
	DB	0ceH
	DB	059H
	DB	0ceH
	DB	079H
	DB	0ceH
	DB	058H
	DB	0ceH
	DB	079H
	DB	0ceH
	DB	079H
	DB	0ceH
	DB	079H
	DB	0ceH
	DB	079H
	DB	0ceH
	DB	079H
	DB	0ceH
	DB	079H
	DB	0ceH
	DB	079H
	DB	0ceH
	DB	079H
	DB	0ceH
	DB	059H
	DB	0ceH
	DB	059H
	DB	0ceH
	DB	079H
	DB	0ceH
	DB	079H
	DB	0ceH
	DB	079H
	DB	0ceH
	DB	079H
	DB	0ceH
	DB	079H
	DB	0ceH
	DB	079H
	DB	0ceH
	DB	079H
	DB	0ceH
	DB	079H
	DB	0ceH
	DB	078H
	DB	0ceH
	DB	079H
	DB	0ceH
	DB	079H
	DB	0ceH
	DB	058H
	DB	0ceH
	DB	079H
	DB	0ceH
	DB	079H
	DB	0ceH
	DB	058H
	DB	0ceH
	DB	079H
	DB	0ceH
	DB	079H
	DB	0ceH
	DB	058H
	DB	0ceH
	DB	079H
	DB	0ceH
	DB	059H
	DB	0ceH
	DB	079H
	DB	0ceH
	DB	079H
	DB	0ceH
	DB	079H
	DB	0ceH
	DB	058H
	DB	0ceH
	DB	079H
	DB	0ceH
	DB	079H
	DB	0ceH
	DB	079H
	DB	0ceH
	DB	079H
	DB	0ceH
	DB	079H
	DB	0ceH
	DB	079H
	DB	0ceH
	DB	079H
	DB	0ceH
	DB	079H
	DB	0ceH
	DB	079H
	DB	0ceH
	DB	079H
	DB	0ceH
	DB	078H
	DB	0ceH
	DB	079H
	DB	0ceH
	DB	079H
	DB	0ceH
	DB	079H
	DB	0ceH
	DB	079H
	DB	0ceH
	DB	079H
	DB	0ceH
	DB	079H
	DB	0ceH
	DB	079H
	DB	0ceH
	DB	079H
	DB	0ceH
	DB	079H
	DB	0ceH
	DB	079H
	DB	0ceH
	DB	079H
	DB	0ceH
	DB	079H
	DB	0ceH
	DB	079H
	DB	0ceH
	DB	078H
	DB	0ceH
	DB	079H
	DB	0ceH
	DB	079H
	DB	0ceH
	DB	079H
	DB	0ceH
	DB	079H
	DB	0ceH
	DB	078H
	DB	0ceH
	DB	079H
	DB	0ceH
	DB	079H
	DB	0ceH
	DB	079H
	DB	0ceH
	DB	079H
	DB	0ceH
	DB	079H
	DB	0ceH
	DB	078H
	DB	0ceH
	DB	079H
	DB	0ceH
	DB	079H
	DB	0ceH
	DB	078H
	DB	0ceH
	DB	079H
	DB	0ceH
	DB	079H
	DB	0ceH
	DB	078H
	DB	0ceH
	DB	079H
	DB	0ceH
	DB	079H
	DB	0ceH
	DB	058H
	DB	0ceH
	DB	078H
	DB	0ceH
	DB	059H
	DB	0ceH
	DB	058H
	DB	0ceH
	DB	078H
	DB	0ceH
	DB	079H
	DB	0ceH
	DB	058H
	DB	0ceH
	DB	079H
	DB	0ceH
	DB	079H
	DB	0ceH
	DB	079H
	DB	0ceH
	DB	079H
	DB	0ceH
	DB	078H
	DB	0ceH
	DB	079H
	DB	0ceH
	DB	079H
	DB	0ceH
	DB	079H
	DB	0ceH
	DB	079H
	DB	0ceH
	DB	079H
	DB	0ceH
	DB	079H
	DB	0ceH
	DB	079H
	DB	0ceH
	DB	079H
	DB	0ceH
	DB	059H
	DB	0ceH
	DB	079H
	DB	0ceH
	DB	058H
	DB	0ceH
	DB	079H
	DB	0ceH
	DB	079H
	DB	0ceH
	DB	058H
	DB	0c6H
	DB	038H
	DB	0c6H
	DB	038H
	DB	0c6H
	DB	058H
	DB	0c6H
	DB	038H
	DB	0c6H
	DB	058H
	DB	0c6H
	DB	058H
	DB	0c6H
	DB	038H
	DB	0c6H
	DB	058H
	DB	0c6H
	DB	038H
	DB	0ceH
	DB	038H
	DB	0c6H
	DB	058H
	DB	0c6H
	DB	058H
	DB	0c6H
	DB	058H
	DB	0c6H
	DB	038H
	DB	0c6H
	DB	058H
	DB	0c6H
	DB	058H
	DB	0c6H
	DB	058H
	DB	0c6H
	DB	038H
	DB	0c6H
	DB	038H
	DB	0c6H
	DB	038H
	DB	0c6H
	DB	058H
	DB	0ceH
	DB	038H
	DB	0c6H
	DB	038H
	DB	0c6H
	DB	038H
	DB	0ceH
	DB	058H
	DB	0c6H
	DB	038H
	DB	0ceH
	DB	058H
	DB	0c6H
	DB	038H
	DB	0c6H
	DB	038H
	DB	0c6H
	DB	038H
	DB	0c6H
	DB	038H
	DB	0c6H
	DB	038H
	DB	0c6H
	DB	058H
	DB	0c6H
	DB	038H
	DB	0c6H
	DB	038H
	DB	0c6H
	DB	058H
	DB	0c6H
	DB	038H
	DB	0c6H
	DB	038H
	DB	0c6H
	DB	058H
	DB	0c6H
	DB	038H
	DB	0c6H
	DB	058H
	DB	0c6H
	DB	058H
	DB	0c6H
	DB	038H
	DB	0c6H
	DB	058H
	DB	0c6H
	DB	058H
	DB	0c6H
	DB	038H
	DB	0c6H
	DB	058H
	DB	0c6H
	DB	038H
	DB	0c6H
	DB	058H
	DB	0c6H
	DB	038H
	DB	0c6H
	DB	058H
	DB	0c6H
	DB	058H
	DB	0c6H
	DB	038H
	DB	0c6H
	DB	058H
	DB	0c6H
	DB	038H
	DB	0c6H
	DB	058H
	DB	0c6H
	DB	058H
	DB	0c6H
	DB	038H
	DB	0c6H
	DB	058H
	DB	0c6H
	DB	038H
	DB	0c6H
	DB	058H
	DB	0c6H
	DB	038H
	DB	0c6H
	DB	058H
	DB	0c6H
	DB	058H
	DB	0c6H
	DB	038H
	DB	0c6H
	DB	058H
	DB	0c6H
	DB	058H
	DB	0c6H
	DB	038H
	DB	0c6H
	DB	038H
	DB	0c6H
	DB	037H
	DB	0c6H
	DB	038H
	DB	0c6H
	DB	038H
	DB	0c6H
	DB	057H
	DB	0c6H
	DB	038H
	DB	0c6H
	DB	038H
	DB	0c6H
	DB	057H
	DB	0c6H
	DB	038H
	DB	0c6H
	DB	079H
	DB	0d6H
	DB	0efH
	DB	07bH
	DB	099H
	DB	0ceH
	DB	038H
	DB	0c6H
	DB	038H
	DB	0c6H
	DB	038H
	DB	0c6H
	DB	037H
	DB	0c6H
	DB	058H
	DB	0c6H
	DB	038H
	DB	0c6H
	DB	037H
	DB	0c6H
	DB	038H
	DB	0c6H
	DB	038H
	DB	0ceH
	DB	037H
	DB	0c6H
	DB	038H
	DB	0c6H
	DB	038H
	DB	0c6H
	DB	037H
	DB	0c6H
	DB	038H
	DB	0c6H
	DB	038H
	DB	0ceH
	DB	038H
	DB	0c6H
	DB	037H
	DB	0c6H
	DB	038H
	DB	0c6H
	DB	038H
	DB	0c6H
	DB	038H
	DB	0c6H
	DB	038H
	DB	0c6H
	DB	038H
	DB	0c6H
	DB	037H
	DB	0c6H
	DB	038H
	DB	0c6H
	DB	038H
	DB	0c6H
	DB	038H
	DB	0c6H
	DB	038H
	DB	0c6H
	DB	038H
	DB	0c6H
	DB	038H
	DB	0ceH
	DB	037H
	DB	0c6H
	DB	038H
	DB	0c6H
	DB	038H
	DB	0c6H
	DB	038H
	DB	0c6H
	DB	038H
	DB	0c6H
	DB	038H
	DB	0c6H
	DB	038H
	DB	0c6H
	DB	038H
	DB	0c6H
	DB	038H
	DB	0c6H
	DB	038H
	DB	0c6H
	DB	038H
	DB	0c6H
	DB	038H
	DB	0c6H
	DB	038H
	DB	0c6H
	DB	038H
	DB	0c6H
	DB	038H
	DB	0c6H
	DB	038H
	DB	0c6H
	DB	038H
	DB	0c6H
	DB	038H
	DB	0c6H
	DB	038H
	DB	0c6H
	DB	038H
	DB	0c6H
	DB	038H
	DB	0c6H
	DB	038H
	DB	0c6H
	DB	038H
	DB	0c6H
	DB	038H
	DB	0c6H
	DB	038H
	DB	0c6H
	DB	038H
	DB	0c6H
	DB	038H
	DB	0c6H
	DB	038H
	DB	0c6H
	DB	038H
	DB	0c6H
	DB	038H
	DB	0c6H
	DB	018H
	DB	0c6H
	DB	038H
	DB	0c6H
	DB	018H
	DB	0c6H
	DB	038H
	DB	0c6H
	DB	018H
	DB	0c6H
	DB	038H
	DB	0c6H
	DB	018H
	DB	0c6H
	DB	038H
	DB	0c6H
	DB	018H
	DB	0c6H
	DB	038H
	DB	0c6H
	DB	018H
	DB	0c6H
	DB	038H
	DB	0c6H
	DB	018H
	DB	0c6H
	DB	038H
	DB	0c6H
	DB	038H
	DB	0c6H
	DB	038H
	DB	0c6H
	DB	038H
	DB	0c6H
	DB	038H
	DB	0c6H
	DB	017H
	DB	0c6H
	DB	038H
	DB	0c6H
	DB	018H
	DB	0c6H
	DB	017H
	DB	0beH
	DB	018H
	DB	0c6H
	DB	018H
	DB	0c6H
	DB	017H
	DB	0c6H
	DB	018H
	DB	0c6H
	DB	018H
	DB	0c6H
	DB	017H
	DB	0c6H
	DB	018H
	DB	0c6H
	DB	018H
	DB	0c6H
	DB	018H
	DB	0c6H
	DB	018H
	DB	0c6H
	DB	018H
	DB	0c6H
	DB	018H
	DB	0c6H
	DB	018H
	DB	0c6H
	DB	017H
	DB	0c6H
	DB	018H
	DB	0c6H
	DB	018H
	DB	0c6H
	DB	018H
	DB	0c6H
	DB	018H
	DB	0c6H
	DB	018H
	DB	0c6H
	DB	018H
	DB	0c6H
	DB	018H
	DB	0c6H
	DB	018H
	DB	0c6H
	DB	018H
	DB	0c6H
	DB	018H
	DB	0c6H
	DB	018H
	DB	0c6H
	DB	018H
	DB	0c6H
	DB	018H
	DB	0c6H
	DB	018H
	DB	0c6H
	DB	018H
	DB	0c6H
	DB	018H
	DB	0c6H
	DB	018H
	DB	0c6H
	DB	018H
	DB	0c6H
	DB	018H
	DB	0c6H
	DB	018H
	DB	0c6H
	DB	018H
	DB	0c6H
	DB	018H
	DB	0c6H
	DB	018H
	DB	0beH
	DB	018H
	DB	0c6H
	DB	018H
	DB	0c6H
	DB	018H
	DB	0beH
	DB	018H
	DB	0c6H
	DB	038H
	DB	0c6H
	DB	018H
	DB	0c6H
	DB	018H
	DB	0c6H
	DB	018H
	DB	0c6H
	DB	018H
	DB	0c6H
	DB	038H
	DB	0c6H
	DB	018H
	DB	0c6H
	DB	038H
	DB	0c6H
	DB	018H
	DB	0c6H
	DB	018H
	DB	0c6H
	DB	038H
	DB	0c6H
	DB	018H
	DB	0c6H
	DB	018H
	DB	0c6H
	DB	038H
	DB	0c6H
	DB	018H
	DB	0c6H
	DB	038H
	DB	0c6H
	DB	018H
	DB	0c6H
	DB	037H
	DB	0c6H
	DB	018H
	DB	0c6H
	DB	038H
	DB	0c6H
	DB	017H
	DB	0c6H
	DB	038H
	DB	0c6H
	DB	038H
	DB	0c6H
	DB	038H
	DB	0c6H
	DB	038H
	DB	0c6H
	DB	038H
	DB	0c6H
	DB	038H
	DB	0c6H
	DB	038H
	DB	0c6H
	DB	038H
	DB	0c6H
	DB	038H
	DB	0c6H
	DB	038H
	DB	0c6H
	DB	038H
	DB	0c6H
	DB	038H
	DB	0c6H
	DB	038H
	DB	0c6H
	DB	038H
	DB	0c6H
	DB	038H
	DB	0c6H
	DB	038H
	DB	0c6H
	DB	037H
	DB	0c6H
	DB	037H
	DB	0c6H
	DB	038H
	DB	0c6H
	DB	037H
	DB	0c6H
	DB	017H
	DB	0c6H
	DB	038H
	DB	0c6H
	DB	037H
	DB	0c6H
	DB	017H
	DB	0c6H
	DB	038H
	DB	0c6H
	DB	038H
	DB	0c6H
	DB	037H
	DB	0c6H
	DB	038H
	DB	0c6H
	DB	037H
	DB	0c6H
	DB	038H
	DB	0c6H
	DB	038H
	DB	0c6H
	DB	037H
	DB	0c6H
	DB	038H
	DB	0c6H
	DB	037H
	DB	0c6H
	DB	038H
	DB	0c6H
	DB	038H
	DB	0c6H
	DB	037H
	DB	0c6H
	DB	038H
	DB	0c6H
	DB	038H
	DB	0c6H
	DB	038H
	DB	0c6H
	DB	038H
	DB	0c6H
	DB	038H
	DB	0c6H
	DB	038H
	DB	0c6H
	DB	038H
	DB	0c6H
	DB	038H
	DB	0ceH
	DB	038H
	DB	0c6H
	DB	038H
	DB	0ceH
	DB	038H
	DB	0c6H
	DB	038H
	DB	0ceH
	DB	038H
	DB	0ceH
	DB	038H
	DB	0c6H
	DB	038H
	DB	0ceH
	DB	038H
	DB	0ceH
	DB	038H
	DB	0c6H
	DB	038H
	DB	0ceH
	DB	038H
	DB	0c6H
	DB	038H
	DB	0c6H
	DB	038H
	DB	0ceH
	DB	038H
	DB	0c6H
	DB	038H
	DB	0c6H
	DB	038H
	DB	0ceH
	DB	038H
	DB	0c6H
	DB	038H
	DB	0c6H
	DB	038H
	DB	0ceH
	DB	038H
	DB	0c6H
	DB	038H
	DB	0c6H
	DB	038H
	DB	0ceH
	DB	038H
	DB	0c6H
	DB	038H
	DB	0c6H
	DB	038H
	DB	0ceH
	DB	038H
	DB	0c6H
	DB	038H
	DB	0c6H
	DB	038H
	DB	0ceH
	DB	038H
	DB	0c6H
	DB	038H
	DB	0c6H
	DB	038H
	DB	0ceH
	DB	038H
	DB	0c6H
	DB	038H
	DB	0c6H
	DB	038H
	DB	0ceH
	DB	058H
	DB	0c6H
	DB	058H
	DB	0c6H
	DB	039H
	DB	0ceH
	DB	058H
	DB	0c6H
	DB	058H
	DB	0c6H
	DB	059H
	DB	0ceH
	DB	058H
	DB	0ceH
	DB	059H
	DB	0c6H
	DB	059H
	DB	0ceH
	DB	058H
	DB	0c6H
	DB	059H
	DB	0ceH
	DB	059H
	DB	0ceH
	DB	059H
	DB	0c6H
	DB	059H
	DB	0ceH
	DB	059H
	DB	0ceH
	DB	059H
	DB	0c6H
	DB	058H
	DB	0ceH
	DB	059H
	DB	0ceH
	DB	059H
	DB	0c6H
	DB	058H
	DB	0ceH
	DB	059H
	DB	0c6H
	DB	059H
	DB	0ceH
	DB	058H
	DB	0ceH
	DB	059H
	DB	0c6H
	DB	059H
	DB	0ceH
	DB	058H
	DB	0ceH
	DB	059H
	DB	0c6H
	DB	059H
	DB	0ceH
	DB	058H
	DB	0ceH
	DB	059H
	DB	0ceH
	DB	059H
	DB	0ceH
	DB	058H
	DB	0ceH
	DB	059H
	DB	0ceH
	DB	058H
	DB	0c6H
	DB	058H
	DB	0ceH
	DB	058H
	DB	0ceH
	DB	058H
	DB	0c6H
	DB	059H
	DB	0ceH
	DB	058H
	DB	0c6H
	DB	058H
	DB	0c6H
	DB	058H
	DB	0ceH
	DB	059H
	DB	0ceH
	DB	058H
	DB	0ceH
	DB	059H
	DB	0c6H
	DB	059H
	DB	0ceH
	DB	059H
	DB	0ceH
	DB	059H
	DB	0ceH
	DB	059H
	DB	0ceH
	DB	059H
	DB	0ceH
	DB	058H
	DB	0ceH
	DB	059H
	DB	0ceH
	DB	059H
	DB	0ceH
	DB	059H
	DB	0ceH
	DB	059H
	DB	0ceH
	DB	059H
	DB	0ceH
	DB	059H
	DB	0ceH
	DB	059H
	DB	0ceH
	DB	058H
	DB	0ceH
	DB	059H
	DB	0ceH
	DB	059H
	DB	0ceH
	DB	058H
	DB	0ceH
	DB	058H
	DB	0ceH
	DB	059H
	DB	0ceH
	DB	059H
	DB	0c6H
	DB	058H
	DB	0ceH
	DB	059H
	DB	0ceH
	DB	079H
	DB	0ceH
	DB	079H
	DB	0ceH
	DB	059H
	DB	0ceH
	DB	079H
	DB	0ceH
	DB	079H
	DB	0ceH
	DB	059H
	DB	0ceH
	DB	079H
	DB	0ceH
	DB	059H
	DB	0ceH
	DB	079H
	DB	0ceH
	DB	079H
	DB	0ceH
	DB	059H
	DB	0ceH
	DB	079H
	DB	0ceH
	DB	079H
	DB	0ceH
	DB	079H
	DB	0ceH
	DB	059H
	DB	0ceH
	DB	079H
	DB	0ceH
	DB	079H
	DB	0ceH
	DB	059H
	DB	0ceH
	DB	079H
	DB	0ceH
	DB	079H
	DB	0ceH
	DB	059H
	DB	0ceH
	DB	079H
	DB	0ceH
	DB	079H
	DB	0ceH
	DB	079H
	DB	0ceH
	DB	059H
	DB	0ceH
	DB	079H
	DB	0ceH
	DB	079H
	DB	0ceH
	DB	059H
	DB	0ceH
	DB	079H
	DB	0ceH
	DB	079H
	DB	0ceH
	DB	079H
	DB	0ceH
	DB	079H
	DB	0ceH
	DB	079H
	DB	0ceH
	DB	079H
	DB	0ceH
	DB	079H
	DB	0ceH
	DB	079H
	DB	0ceH
	DB	079H
	DB	0ceH
	DB	079H
	DB	0ceH
	DB	079H
	DB	0ceH
	DB	079H
	DB	0ceH
	DB	079H
	DB	0ceH
	DB	079H
	DB	0ceH
	DB	079H
	DB	0ceH
	DB	079H
	DB	0ceH
	DB	079H
	DB	0ceH
	DB	079H
	DB	0ceH
	DB	079H
	DB	0ceH
	DB	079H
	DB	0ceH
	DB	079H
	DB	0ceH
	DB	059H
	DB	0ceH
	DB	079H
	DB	0ceH
	DB	079H
	DB	0ceH
	DB	059H
	DB	0ceH
	DB	079H
	DB	0ceH
	DB	079H
	DB	0ceH
	DB	079H
	DB	0ceH
	DB	079H
	DB	0ceH
	DB	079H
	DB	0ceH
	DB	079H
	DB	0ceH
	DB	079H
	DB	0ceH
	DB	079H
	DB	0ceH
	DB	079H
	DB	0ceH
	DB	079H
	DB	0ceH
	DB	079H
	DB	0ceH
	DB	079H
	DB	0ceH
	DB	079H
	DB	0ceH
	DB	079H
	DB	0ceH
	DB	078H
	DB	0ceH
	DB	079H
	DB	0ceH
	DB	079H
	DB	0ceH
	DB	079H
	DB	0ceH
	DB	079H
	DB	0d6H
	DB	079H
	DB	0ceH
	DB	079H
	DB	0ceH
	DB	079H
	DB	0d6H
	DB	079H
	DB	0ceH
	DB	079H
	DB	0ceH
	DB	079H
	DB	0ceH
	DB	079H
	DB	0ceH
	DB	079H
	DB	0ceH
	DB	079H
	DB	0ceH
	DB	079H
	DB	0ceH
	DB	079H
	DB	0d6H
	DB	079H
	DB	0ceH
	DB	079H
	DB	0ceH
	DB	079H
	DB	0ceH
	DB	078H
	DB	0ceH
	DB	079H
	DB	0ceH
	DB	079H
	DB	0ceH
	DB	079H
	DB	0ceH
	DB	079H
	DB	0ceH
	DB	078H
	DB	0ceH
	DB	079H
	DB	0ceH
	DB	079H
	DB	0ceH
	DB	079H
	DB	0ceH
	DB	079H
	DB	0ceH
	DB	079H
	DB	0ceH
	DB	079H
	DB	0ceH
	DB	079H
	DB	0ceH
	DB	079H
	DB	0ceH
	DB	079H
	DB	0ceH
	DB	079H
	DB	0ceH
	DB	079H
	DB	0ceH
	DB	079H
	DB	0ceH
	DB	079H
	DB	0ceH
	DB	079H
	DB	0ceH
	DB	079H
	DB	0ceH
	DB	079H
	DB	0ceH
	DB	079H
	DB	0ceH
	DB	079H
	DB	0ceH
	DB	079H
	DB	0ceH
	DB	079H
	DB	0ceH
	DB	079H
	DB	0ceH
	DB	079H
	DB	0ceH
	DB	079H
	DB	0ceH
	DB	079H
	DB	0ceH
	DB	079H
	DB	0ceH
	DB	079H
	DB	0ceH
	DB	079H
	DB	0ceH
	DB	079H
	DB	0ceH
	DB	079H
	DB	0ceH
	DB	079H
	DB	0ceH
	DB	079H
	DB	0ceH
	DB	058H
	DB	0ceH
	DB	079H
	DB	0ceH
	DB	079H
	DB	0ceH
	DB	079H
	DB	0ceH
	DB	079H
	DB	0ceH
	DB	079H
	DB	0ceH
	DB	079H
	DB	0ceH
	DB	079H
	DB	0ceH
	DB	079H
	DB	0ceH
	DB	079H
	DB	0ceH
	DB	079H
	DB	0ceH
	DB	079H
	DB	0ceH
	DB	059H
	DB	0ceH
	DB	079H
	DB	0ceH
	DB	079H
	DB	0ceH
	DB	079H
	DB	0ceH
	DB	079H
	DB	0ceH
	DB	038H
	DB	0ceH
	DB	038H
	DB	0c6H
	DB	058H
	DB	0c6H
	DB	038H
	DB	0c6H
	DB	038H
	DB	0ceH
	DB	058H
	DB	0c6H
	DB	038H
	DB	0c6H
	DB	058H
	DB	0c6H
	DB	058H
	DB	0c6H
	DB	038H
	DB	0ceH
	DB	038H
	DB	0c6H
	DB	058H
	DB	0c6H
	DB	038H
	DB	0c6H
	DB	038H
	DB	0c6H
	DB	058H
	DB	0c6H
	DB	038H
	DB	0c6H
	DB	038H
	DB	0c6H
	DB	058H
	DB	0c6H
	DB	058H
	DB	0c6H
	DB	038H
	DB	0ceH
	DB	038H
	DB	0ceH
	DB	038H
	DB	0c6H
	DB	038H
	DB	0c6H
	DB	038H
	DB	0ceH
	DB	038H
	DB	0c6H
	DB	038H
	DB	0c6H
	DB	038H
	DB	0ceH
	DB	058H
	DB	0c6H
	DB	058H
	DB	0c6H
	DB	038H
	DB	0ceH
	DB	038H
	DB	0ceH
	DB	058H
	DB	0ceH
	DB	038H
	DB	0c6H
	DB	058H
	DB	0c6H
	DB	038H
	DB	0c6H
	DB	058H
	DB	0c6H
	DB	038H
	DB	0ceH
	DB	058H
	DB	0c6H
	DB	058H
	DB	0c6H
	DB	038H
	DB	0ceH
	DB	058H
	DB	0c6H
	DB	038H
	DB	0c6H
	DB	038H
	DB	0ceH
	DB	058H
	DB	0c6H
	DB	038H
	DB	0c6H
	DB	038H
	DB	0ceH
	DB	058H
	DB	0c6H
	DB	038H
	DB	0c6H
	DB	058H
	DB	0ceH
	DB	058H
	DB	0c6H
	DB	038H
	DB	0c6H
	DB	038H
	DB	0ceH
	DB	058H
	DB	0c6H
	DB	038H
	DB	0c6H
	DB	058H
	DB	0ceH
	DB	038H
	DB	0c6H
	DB	038H
	DB	0c6H
	DB	058H
	DB	0ceH
	DB	038H
	DB	0c6H
	DB	058H
	DB	0c6H
	DB	058H
	DB	0ceH
	DB	038H
	DB	0c6H
	DB	038H
	DB	0c6H
	DB	058H
	DB	0ceH
	DB	038H
	DB	0c6H
	DB	038H
	DB	0c6H
	DB	058H
	DB	0c6H
	DB	058H
	DB	0c6H
	DB	038H
	DB	0c6H
	DB	058H
	DB	0c6H
	DB	038H
	DB	0c6H
	DB	038H
	DB	0c6H
	DB	038H
	DB	0c6H
	DB	038H
	DB	0c6H
	DB	038H
	DB	0c6H
	DB	038H
	DB	0c6H
	DB	038H
	DB	0c6H
	DB	038H
	DB	0c6H
	DB	079H
	DB	0ceH
	DB	0fH
	DB	084H
	DB	079H
	DB	0ceH
	DB	038H
	DB	0c6H
	DB	038H
	DB	0c6H
	DB	058H
	DB	0c6H
	DB	038H
	DB	0c6H
	DB	038H
	DB	0c6H
	DB	038H
	DB	0c6H
	DB	038H
	DB	0c6H
	DB	038H
	DB	0c6H
	DB	038H
	DB	0c6H
	DB	038H
	DB	0ceH
	DB	038H
	DB	0c6H
	DB	038H
	DB	0c6H
	DB	038H
	DB	0c6H
	DB	038H
	DB	0c6H
	DB	038H
	DB	0c6H
	DB	038H
	DB	0ceH
	DB	038H
	DB	0c6H
	DB	038H
	DB	0c6H
	DB	037H
	DB	0c6H
	DB	038H
	DB	0ceH
	DB	038H
	DB	0c6H
	DB	038H
	DB	0c6H
	DB	038H
	DB	0ceH
	DB	037H
	DB	0c6H
	DB	038H
	DB	0c6H
	DB	038H
	DB	0c6H
	DB	037H
	DB	0ceH
	DB	038H
	DB	0c6H
	DB	038H
	DB	0c6H
	DB	038H
	DB	0c6H
	DB	038H
	DB	0c6H
	DB	037H
	DB	0ceH
	DB	038H
	DB	0c6H
	DB	038H
	DB	0c6H
	DB	038H
	DB	0c6H
	DB	037H
	DB	0c6H
	DB	038H
	DB	0c6H
	DB	037H
	DB	0c6H
	DB	038H
	DB	0c6H
	DB	037H
	DB	0c6H
	DB	038H
	DB	0c6H
	DB	037H
	DB	0c6H
	DB	037H
	DB	0c6H
	DB	018H
	DB	0c6H
	DB	037H
	DB	0ceH
	DB	018H
	DB	0c6H
	DB	017H
	DB	0c6H
	DB	037H
	DB	0ceH
	DB	038H
	DB	0c6H
	DB	017H
	DB	0c6H
	DB	018H
	DB	0ceH
	DB	037H
	DB	0c6H
	DB	038H
	DB	0c6H
	DB	017H
	DB	0ceH
	DB	017H
	DB	0c6H
	DB	038H
	DB	0c6H
	DB	017H
	DB	0c6H
	DB	038H
	DB	0c6H
	DB	037H
	DB	0c6H
	DB	037H
	DB	0c6H
	DB	038H
	DB	0c6H
	DB	037H
	DB	0c6H
	DB	018H
	DB	0c6H
	DB	037H
	DB	0c6H
	DB	038H
	DB	0c6H
	DB	037H
	DB	0c6H
	DB	017H
	DB	0c6H
	DB	038H
	DB	0c6H
	DB	037H
	DB	0c6H
	DB	038H
	DB	0c6H
	DB	017H
	DB	0c6H
	DB	037H
	DB	0c6H
	DB	038H
	DB	0c6H
	DB	017H
	DB	0c6H
	DB	038H
	DB	0c6H
	DB	038H
	DB	0c6H
	DB	017H
	DB	0c6H
	DB	038H
	DB	0c6H
	DB	038H
	DB	0c6H
	DB	018H
	DB	0c6H
	DB	018H
	DB	0c6H
	DB	018H
	DB	0c6H
	DB	018H
	DB	0c6H
	DB	018H
	DB	0c6H
	DB	018H
	DB	0c6H
	DB	018H
	DB	0c6H
	DB	018H
	DB	0c6H
	DB	018H
	DB	0c6H
	DB	017H
	DB	0beH
	DB	018H
	DB	0c6H
	DB	038H
	DB	0c6H
	DB	017H
	DB	0c6H
	DB	018H
	DB	0c6H
	DB	018H
	DB	0c6H
	DB	018H
	DB	0c6H
	DB	018H
	DB	0c6H
	DB	038H
	DB	0c6H
	DB	018H
	DB	0c6H
	DB	018H
	DB	0c6H
	DB	037H
	DB	0c6H
	DB	018H
	DB	0c6H
	DB	018H
	DB	0c6H
	DB	038H
	DB	0c6H
	DB	017H
	DB	0c6H
	DB	038H
	DB	0c6H
	DB	018H
	DB	0c6H
	DB	038H
	DB	0c6H
	DB	038H
	DB	0c6H
	DB	018H
	DB	0c6H
	DB	038H
	DB	0c6H
	DB	038H
	DB	0c6H
	DB	037H
	DB	0c6H
	DB	038H
	DB	0c6H
	DB	038H
	DB	0c6H
	DB	038H
	DB	0c6H
	DB	037H
	DB	0c6H
	DB	038H
	DB	0c6H
	DB	038H
	DB	0c6H
	DB	038H
	DB	0c6H
	DB	038H
	DB	0c6H
	DB	037H
	DB	0c6H
	DB	038H
	DB	0c6H
	DB	038H
	DB	0c6H
	DB	038H
	DB	0c6H
	DB	037H
	DB	0c6H
	DB	038H
	DB	0c6H
	DB	038H
	DB	0c6H
	DB	038H
	DB	0c6H
	DB	038H
	DB	0c6H
	DB	038H
	DB	0c6H
	DB	038H
	DB	0c6H
	DB	038H
	DB	0c6H
	DB	038H
	DB	0c6H
	DB	038H
	DB	0c6H
	DB	038H
	DB	0c6H
	DB	038H
	DB	0c6H
	DB	038H
	DB	0c6H
	DB	038H
	DB	0c6H
	DB	038H
	DB	0c6H
	DB	038H
	DB	0c6H
	DB	038H
	DB	0c6H
	DB	038H
	DB	0c6H
	DB	038H
	DB	0c6H
	DB	038H
	DB	0c6H
	DB	038H
	DB	0c6H
	DB	038H
	DB	0c6H
	DB	038H
	DB	0c6H
	DB	038H
	DB	0c6H
	DB	038H
	DB	0c6H
	DB	038H
	DB	0c6H
	DB	038H
	DB	0c6H
	DB	038H
	DB	0c6H
	DB	038H
	DB	0c6H
	DB	038H
	DB	0c6H
	DB	038H
	DB	0c6H
	DB	038H
	DB	0c6H
	DB	038H
	DB	0c6H
	DB	038H
	DB	0c6H
	DB	038H
	DB	0c6H
	DB	038H
	DB	0c6H
	DB	038H
	DB	0c6H
	DB	038H
	DB	0c6H
	DB	038H
	DB	0c6H
	DB	038H
	DB	0c6H
	DB	038H
	DB	0c6H
	DB	038H
	DB	0c6H
	DB	038H
	DB	0c6H
	DB	038H
	DB	0c6H
	DB	058H
	DB	0c6H
	DB	038H
	DB	0c6H
	DB	038H
	DB	0c6H
	DB	058H
	DB	0c6H
	DB	038H
	DB	0c6H
	DB	038H
	DB	0c6H
	DB	058H
	DB	0c6H
	DB	038H
	DB	0c6H
	DB	038H
	DB	0c6H
	DB	038H
	DB	0c6H
	DB	038H
	DB	0c6H
	DB	038H
	DB	0c6H
	DB	038H
	DB	0c6H
	DB	038H
	DB	0ceH
	DB	038H
	DB	0c6H
	DB	038H
	DB	0c6H
	DB	038H
	DB	0c6H
	DB	058H
	DB	0c6H
	DB	038H
	DB	0ceH
	DB	038H
	DB	0c6H
	DB	038H
	DB	0c6H
	DB	058H
	DB	0ceH
	DB	038H
	DB	0c6H
	DB	058H
	DB	0ceH
	DB	058H
	DB	0c6H
	DB	038H
	DB	0ceH
	DB	058H
	DB	0ceH
	DB	038H
	DB	0c6H
	DB	038H
	DB	0ceH
	DB	059H
	DB	0ceH
	DB	058H
	DB	0ceH
	DB	038H
	DB	0c6H
	DB	038H
	DB	0ceH
	DB	059H
	DB	0c6H
	DB	038H
	DB	0ceH
	DB	038H
	DB	0c6H
	DB	058H
	DB	0ceH
	DB	038H
	DB	0c6H
	DB	038H
	DB	0ceH
	DB	058H
	DB	0ceH
	DB	038H
	DB	0c6H
	DB	038H
	DB	0ceH
	DB	058H
	DB	0ceH
	DB	038H
	DB	0c6H
	DB	038H
	DB	0ceH
	DB	058H
	DB	0ceH
	DB	038H
	DB	0c6H
	DB	038H
	DB	0ceH
	DB	058H
	DB	0ceH
	DB	038H
	DB	0c6H
	DB	038H
	DB	0ceH
	DB	058H
	DB	0c6H
	DB	059H
	DB	0ceH
	DB	059H
	DB	0ceH
	DB	059H
	DB	0ceH
	DB	059H
	DB	0ceH
	DB	059H
	DB	0ceH
	DB	059H
	DB	0ceH
	DB	059H
	DB	0c6H
	DB	058H
	DB	0ceH
	DB	039H
	DB	0ceH
	DB	059H
	DB	0ceH
	DB	058H
	DB	0ceH
	DB	059H
	DB	0c6H
	DB	059H
	DB	0ceH
	DB	058H
	DB	0ceH
	DB	058H
	DB	0ceH
	DB	059H
	DB	0c6H
	DB	058H
	DB	0ceH
	DB	059H
	DB	0ceH
	DB	059H
	DB	0ceH
	DB	059H
	DB	0ceH
	DB	058H
	DB	0ceH
	DB	059H
	DB	0ceH
	DB	058H
	DB	0ceH
	DB	059H
	DB	0ceH
	DB	059H
	DB	0ceH
	DB	058H
	DB	0ceH
	DB	059H
	DB	0ceH
	DB	058H
	DB	0ceH
	DB	059H
	DB	0ceH
	DB	059H
	DB	0c6H
	DB	058H
	DB	0ceH
	DB	059H
	DB	0ceH
	DB	059H
	DB	0c6H
	DB	058H
	DB	0ceH
	DB	059H
	DB	0ceH
	DB	059H
	DB	0ceH
	DB	059H
	DB	0ceH
	DB	059H
	DB	0ceH
	DB	059H
	DB	0ceH
	DB	059H
	DB	0ceH
	DB	059H
	DB	0ceH
	DB	079H
	DB	0ceH
	DB	059H
	DB	0ceH
	DB	059H
	DB	0ceH
	DB	059H
	DB	0ceH
	DB	059H
	DB	0ceH
	DB	058H
	DB	0ceH
	DB	059H
	DB	0ceH
	DB	059H
	DB	0ceH
	DB	058H
	DB	0ceH
	DB	059H
	DB	0ceH
	DB	059H
	DB	0ceH
	DB	059H
	DB	0ceH
	DB	058H
	DB	0ceH
	DB	059H
	DB	0ceH
	DB	079H
	DB	0ceH
	DB	059H
	DB	0ceH
	DB	059H
	DB	0ceH
	DB	079H
	DB	0ceH
	DB	079H
	DB	0ceH
	DB	059H
	DB	0ceH
	DB	079H
	DB	0ceH
	DB	079H
	DB	0ceH
	DB	079H
	DB	0ceH
	DB	079H
	DB	0ceH
	DB	079H
	DB	0ceH
	DB	079H
	DB	0ceH
	DB	079H
	DB	0ceH
	DB	059H
	DB	0ceH
	DB	079H
	DB	0ceH
	DB	058H
	DB	0ceH
	DB	059H
	DB	0ceH
	DB	079H
	DB	0ceH
	DB	058H
	DB	0ceH
	DB	079H
	DB	0ceH
	DB	059H
	DB	0ceH
	DB	059H
	DB	0ceH
	DB	079H
	DB	0ceH
	DB	059H
	DB	0ceH
	DB	059H
	DB	0ceH
	DB	079H
	DB	0ceH
	DB	079H
	DB	0ceH
	DB	079H
	DB	0ceH
	DB	079H
	DB	0ceH
	DB	079H
	DB	0ceH
	DB	079H
	DB	0ceH
	DB	079H
	DB	0ceH
	DB	079H
	DB	0ceH
	DB	079H
	DB	0ceH
	DB	079H
	DB	0ceH
	DB	079H
	DB	0ceH
	DB	079H
	DB	0ceH
	DB	079H
	DB	0ceH
	DB	079H
	DB	0ceH
	DB	079H
	DB	0ceH
	DB	079H
	DB	0ceH
	DB	079H
	DB	0ceH
	DB	079H
	DB	0ceH
	DB	079H
	DB	0ceH
	DB	079H
	DB	0ceH
	DB	079H
	DB	0ceH
	DB	079H
	DB	0ceH
	DB	079H
	DB	0ceH
	DB	079H
	DB	0ceH
	DB	079H
	DB	0ceH
	DB	079H
	DB	0ceH
	DB	079H
	DB	0ceH
	DB	079H
	DB	0ceH
	DB	079H
	DB	0ceH
	DB	079H
	DB	0ceH
	DB	079H
	DB	0ceH
	DB	079H
	DB	0ceH
	DB	079H
	DB	0ceH
	DB	079H
	DB	0ceH
	DB	079H
	DB	0ceH
	DB	079H
	DB	0ceH
	DB	079H
	DB	0ceH
	DB	079H
	DB	0ceH
	DB	079H
	DB	0ceH
	DB	079H
	DB	0ceH
	DB	079H
	DB	0ceH
	DB	079H
	DB	0ceH
	DB	079H
	DB	0ceH
	DB	079H
	DB	0ceH
	DB	079H
	DB	0d6H
	DB	079H
	DB	0ceH
	DB	079H
	DB	0d6H
	DB	079H
	DB	0d6H
	DB	079H
	DB	0ceH
	DB	079H
	DB	0d6H
	DB	079H
	DB	0d6H
	DB	079H
	DB	0ceH
	DB	079H
	DB	0d6H
	DB	079H
	DB	0d6H
	DB	079H
	DB	0ceH
	DB	079H
	DB	0d6H
	DB	079H
	DB	0d6H
	DB	079H
	DB	0ceH
	DB	079H
	DB	0d6H
	DB	079H
	DB	0ceH
	DB	079H
	DB	0d6H
	DB	079H
	DB	0ceH
	DB	079H
	DB	0d6H
	DB	079H
	DB	0d6H
	DB	079H
	DB	0ceH
	DB	079H
	DB	0d6H
	DB	079H
	DB	0d6H
	DB	079H
	DB	0d6H
	DB	079H
	DB	0ceH
	DB	079H
	DB	0d6H
	DB	079H
	DB	0ceH
	DB	079H
	DB	0d6H
	DB	079H
	DB	0d6H
	DB	079H
	DB	0ceH
	DB	079H
	DB	0d6H
	DB	079H
	DB	0d6H
	DB	079H
	DB	0d6H
	DB	079H
	DB	0ceH
	DB	079H
	DB	0d6H
	DB	079H
	DB	0ceH
	DB	079H
	DB	0ceH
	DB	079H
	DB	0d6H
	DB	079H
	DB	0ceH
	DB	079H
	DB	0ceH
	DB	079H
	DB	0ceH
	DB	079H
	DB	0ceH
	DB	079H
	DB	0d6H
	DB	079H
	DB	0ceH
	DB	079H
	DB	0ceH
	DB	079H
	DB	0d6H
	DB	079H
	DB	0ceH
	DB	079H
	DB	0ceH
	DB	079H
	DB	0d6H
	DB	079H
	DB	0ceH
	DB	079H
	DB	0ceH
	DB	079H
	DB	0d6H
	DB	079H
	DB	0ceH
	DB	079H
	DB	0ceH
	DB	079H
	DB	0d6H
	DB	079H
	DB	0ceH
	DB	079H
	DB	0ceH
	DB	079H
	DB	0ceH
	DB	079H
	DB	0ceH
	DB	079H
	DB	0ceH
	DB	079H
	DB	0ceH
	DB	079H
	DB	0ceH
	DB	079H
	DB	0ceH
	DB	079H
	DB	0ceH
	DB	079H
	DB	0ceH
	DB	079H
	DB	0ceH
	DB	079H
	DB	0ceH
	DB	079H
	DB	0ceH
	DB	079H
	DB	0ceH
	DB	079H
	DB	0ceH
	DB	058H
	DB	0ceH
	DB	079H
	DB	0ceH
	DB	079H
	DB	0ceH
	DB	079H
	DB	0ceH
	DB	079H
	DB	0ceH
	DB	079H
	DB	0ceH
	DB	079H
	DB	0ceH
	DB	079H
	DB	0ceH
	DB	079H
	DB	0ceH
	DB	079H
	DB	0ceH
	DB	079H
	DB	0ceH
	DB	078H
	DB	0ceH
	DB	079H
	DB	0d6H
	DB	078H
	DB	0ceH
	DB	038H
	DB	0c6H
	DB	038H
	DB	0c6H
	DB	058H
	DB	0c6H
	DB	058H
	DB	0c6H
	DB	038H
	DB	0c6H
	DB	058H
	DB	0c6H
	DB	038H
	DB	0c6H
	DB	038H
	DB	0c6H
	DB	058H
	DB	0c6H
	DB	038H
	DB	0ceH
	DB	038H
	DB	0c6H
	DB	038H
	DB	0ceH
	DB	038H
	DB	0ceH
	DB	038H
	DB	0c6H
	DB	038H
	DB	0ceH
	DB	038H
	DB	0ceH
	DB	038H
	DB	0c6H
	DB	038H
	DB	0ceH
	DB	038H
	DB	0c6H
	DB	038H
	DB	0c6H
	DB	058H
	DB	0ceH
	DB	038H
	DB	0c6H
	DB	058H
	DB	0c6H
	DB	058H
	DB	0ceH
	DB	038H
	DB	0c6H
	DB	038H
	DB	0c6H
	DB	038H
	DB	0ceH
	DB	058H
	DB	0c6H
	DB	058H
	DB	0c6H
	DB	038H
	DB	0c6H
	DB	038H
	DB	0c6H
	DB	038H
	DB	0ceH
	DB	038H
	DB	0ceH
	DB	058H
	DB	0c6H
	DB	058H
	DB	0c6H
	DB	038H
	DB	0c6H
	DB	038H
	DB	0c6H
	DB	058H
	DB	0c6H
	DB	038H
	DB	0c6H
	DB	058H
	DB	0c6H
	DB	038H
	DB	0c6H
	DB	058H
	DB	0c6H
	DB	038H
	DB	0c6H
	DB	058H
	DB	0c6H
	DB	038H
	DB	0c6H
	DB	058H
	DB	0c6H
	DB	038H
	DB	0c6H
	DB	038H
	DB	0c6H
	DB	058H
	DB	0c6H
	DB	038H
	DB	0c6H
	DB	058H
	DB	0c6H
	DB	038H
	DB	0c6H
	DB	038H
	DB	0c6H
	DB	058H
	DB	0c6H
	DB	058H
	DB	0c6H
	DB	038H
	DB	0c6H
	DB	058H
	DB	0c6H
	DB	038H
	DB	0c6H
	DB	038H
	DB	0c6H
	DB	058H
	DB	0c6H
	DB	038H
	DB	0c6H
	DB	058H
	DB	0c6H
	DB	058H
	DB	0c6H
	DB	038H
	DB	0c6H
	DB	058H
	DB	0c6H
	DB	038H
	DB	0c6H
	DB	038H
	DB	0ceH
	DB	058H
	DB	0c6H
	DB	038H
	DB	0c6H
	DB	058H
	DB	0c6H
	DB	058H
	DB	0c6H
	DB	038H
	DB	0c6H
	DB	058H
	DB	0c6H
	DB	038H
	DB	0c6H
	DB	058H
	DB	0c6H
	DB	038H
	DB	0c6H
	DB	038H
	DB	0c6H
	DB	058H
	DB	0c6H
	DB	078H
	DB	0ceH
	DB	0fH
	DB	084H
	DB	079H
	DB	0ceH
	DB	038H
	DB	0c6H
	DB	058H
	DB	0c6H
	DB	038H
	DB	0c6H
	DB	038H
	DB	0c6H
	DB	038H
	DB	0c6H
	DB	058H
	DB	0c6H
	DB	038H
	DB	0c6H
	DB	038H
	DB	0ceH
	DB	038H
	DB	0c6H
	DB	038H
	DB	0c6H
	DB	038H
	DB	0c6H
	DB	038H
	DB	0ceH
	DB	038H
	DB	0c6H
	DB	038H
	DB	0c6H
	DB	037H
	DB	0ceH
	DB	038H
	DB	0c6H
	DB	038H
	DB	0c6H
	DB	037H
	DB	0c6H
	DB	038H
	DB	0c6H
	DB	038H
	DB	0c6H
	DB	038H
	DB	0ceH
	DB	038H
	DB	0c6H
	DB	038H
	DB	0c6H
	DB	038H
	DB	0c6H
	DB	038H
	DB	0ceH
	DB	038H
	DB	0c6H
	DB	038H
	DB	0c6H
	DB	038H
	DB	0ceH
	DB	038H
	DB	0c6H
	DB	038H
	DB	0c6H
	DB	038H
	DB	0ceH
	DB	038H
	DB	0c6H
	DB	038H
	DB	0c6H
	DB	038H
	DB	0ceH
	DB	038H
	DB	0c6H
	DB	038H
	DB	0c6H
	DB	038H
	DB	0c6H
	DB	038H
	DB	0c6H
	DB	037H
	DB	0c6H
	DB	038H
	DB	0c6H
	DB	038H
	DB	0c6H
	DB	038H
	DB	0c6H
	DB	018H
	DB	0c6H
	DB	038H
	DB	0c6H
	DB	038H
	DB	0c6H
	DB	038H
	DB	0c6H
	DB	038H
	DB	0c6H
	DB	038H
	DB	0c6H
	DB	038H
	DB	0c6H
	DB	038H
	DB	0c6H
	DB	037H
	DB	0c6H
	DB	018H
	DB	0c6H
	DB	038H
	DB	0c6H
	DB	038H
	DB	0c6H
	DB	038H
	DB	0c6H
	DB	038H
	DB	0ceH
	DB	018H
	DB	0c6H
	DB	038H
	DB	0c6H
	DB	038H
	DB	0c6H
	DB	018H
	DB	0c6H
	DB	038H
	DB	0c6H
	DB	038H
	DB	0c6H
	DB	037H
	DB	0c6H
	DB	038H
	DB	0c6H
	DB	038H
	DB	0c6H
	DB	038H
	DB	0c6H
	DB	038H
	DB	0c6H
	DB	038H
	DB	0c6H
	DB	038H
	DB	0c6H
	DB	038H
	DB	0c6H
	DB	038H
	DB	0c6H
	DB	038H
	DB	0c6H
	DB	038H
	DB	0c6H
	DB	017H
	DB	0c6H
	DB	038H
	DB	0c6H
	DB	038H
	DB	0c6H
	DB	038H
	DB	0c6H
	DB	038H
	DB	0c6H
	DB	038H
	DB	0c6H
	DB	018H
	DB	0c6H
	DB	038H
	DB	0c6H
	DB	018H
	DB	0c6H
	DB	018H
	DB	0c6H
	DB	038H
	DB	0c6H
	DB	018H
	DB	0c6H
	DB	038H
	DB	0c6H
	DB	038H
	DB	0c6H
	DB	038H
	DB	0c6H
	DB	038H
	DB	0c6H
	DB	038H
	DB	0c6H
	DB	018H
	DB	0c6H
	DB	038H
	DB	0c6H
	DB	038H
	DB	0c6H
	DB	038H
	DB	0c6H
	DB	018H
	DB	0c6H
	DB	037H
	DB	0c6H
	DB	038H
	DB	0c6H
	DB	018H
	DB	0c6H
	DB	038H
	DB	0c6H
	DB	038H
	DB	0c6H
	DB	018H
	DB	0c6H
	DB	038H
	DB	0c6H
	DB	038H
	DB	0c6H
	DB	038H
	DB	0c6H
	DB	038H
	DB	0c6H
	DB	038H
	DB	0c6H
	DB	038H
	DB	0c6H
	DB	038H
	DB	0c6H
	DB	038H
	DB	0c6H
	DB	038H
	DB	0c6H
	DB	038H
	DB	0c6H
	DB	038H
	DB	0c6H
	DB	038H
	DB	0c6H
	DB	038H
	DB	0c6H
	DB	038H
	DB	0c6H
	DB	038H
	DB	0c6H
	DB	038H
	DB	0c6H
	DB	038H
	DB	0c6H
	DB	038H
	DB	0c6H
	DB	038H
	DB	0c6H
	DB	038H
	DB	0c6H
	DB	038H
	DB	0c6H
	DB	018H
	DB	0c6H
	DB	038H
	DB	0c6H
	DB	038H
	DB	0c6H
	DB	038H
	DB	0c6H
	DB	038H
	DB	0c6H
	DB	038H
	DB	0c6H
	DB	038H
	DB	0c6H
	DB	038H
	DB	0c6H
	DB	038H
	DB	0c6H
	DB	038H
	DB	0c6H
	DB	038H
	DB	0c6H
	DB	038H
	DB	0c6H
	DB	038H
	DB	0c6H
	DB	038H
	DB	0c6H
	DB	038H
	DB	0c6H
	DB	038H
	DB	0c6H
	DB	038H
	DB	0c6H
	DB	038H
	DB	0c6H
	DB	038H
	DB	0c6H
	DB	038H
	DB	0c6H
	DB	038H
	DB	0c6H
	DB	038H
	DB	0c6H
	DB	038H
	DB	0c6H
	DB	038H
	DB	0c6H
	DB	038H
	DB	0c6H
	DB	038H
	DB	0c6H
	DB	038H
	DB	0c6H
	DB	038H
	DB	0c6H
	DB	038H
	DB	0c6H
	DB	038H
	DB	0c6H
	DB	038H
	DB	0c6H
	DB	038H
	DB	0c6H
	DB	038H
	DB	0c6H
	DB	038H
	DB	0c6H
	DB	038H
	DB	0c6H
	DB	038H
	DB	0c6H
	DB	038H
	DB	0c6H
	DB	038H
	DB	0c6H
	DB	038H
	DB	0c6H
	DB	038H
	DB	0c6H
	DB	038H
	DB	0c6H
	DB	038H
	DB	0c6H
	DB	038H
	DB	0c6H
	DB	058H
	DB	0c6H
	DB	038H
	DB	0c6H
	DB	058H
	DB	0c6H
	DB	058H
	DB	0c6H
	DB	038H
	DB	0c6H
	DB	058H
	DB	0c6H
	DB	058H
	DB	0c6H
	DB	038H
	DB	0c6H
	DB	058H
	DB	0c6H
	DB	058H
	DB	0c6H
	DB	058H
	DB	0c6H
	DB	058H
	DB	0c6H
	DB	058H
	DB	0ceH
	DB	058H
	DB	0c6H
	DB	058H
	DB	0c6H
	DB	058H
	DB	0ceH
	DB	058H
	DB	0c6H
	DB	058H
	DB	0c6H
	DB	058H
	DB	0c6H
	DB	058H
	DB	0ceH
	DB	058H
	DB	0c6H
	DB	058H
	DB	0c6H
	DB	058H
	DB	0c6H
	DB	059H
	DB	0ceH
	DB	058H
	DB	0c6H
	DB	039H
	DB	0ceH
	DB	039H
	DB	0c6H
	DB	059H
	DB	0ceH
	DB	059H
	DB	0c6H
	DB	059H
	DB	0ceH
	DB	059H
	DB	0c6H
	DB	059H
	DB	0ceH
	DB	058H
	DB	0ceH
	DB	059H
	DB	0c6H
	DB	059H
	DB	0ceH
	DB	059H
	DB	0ceH
	DB	058H
	DB	0ceH
	DB	059H
	DB	0ceH
	DB	059H
	DB	0ceH
	DB	059H
	DB	0ceH
	DB	059H
	DB	0ceH
	DB	059H
	DB	0ceH
	DB	059H
	DB	0c6H
	DB	059H
	DB	0ceH
	DB	059H
	DB	0ceH
	DB	059H
	DB	0c6H
	DB	059H
	DB	0ceH
	DB	059H
	DB	0ceH
	DB	059H
	DB	0c6H
	DB	059H
	DB	0ceH
	DB	059H
	DB	0ceH
	DB	059H
	DB	0c6H
	DB	059H
	DB	0ceH
	DB	059H
	DB	0ceH
	DB	059H
	DB	0ceH
	DB	059H
	DB	0ceH
	DB	058H
	DB	0ceH
	DB	059H
	DB	0c6H
	DB	058H
	DB	0ceH
	DB	058H
	DB	0ceH
	DB	059H
	DB	0ceH
	DB	059H
	DB	0ceH
	DB	058H
	DB	0ceH
	DB	059H
	DB	0c6H
	DB	058H
	DB	0ceH
	DB	059H
	DB	0ceH
	DB	058H
	DB	0ceH
	DB	058H
	DB	0c6H
	DB	058H
	DB	0ceH
	DB	058H
	DB	0ceH
	DB	058H
	DB	0ceH
	DB	058H
	DB	0ceH
	DB	058H
	DB	0c6H
	DB	058H
	DB	0ceH
	DB	058H
	DB	0ceH
	DB	059H
	DB	0ceH
	DB	058H
	DB	0ceH
	DB	058H
	DB	0ceH
	DB	059H
	DB	0ceH
	DB	058H
	DB	0ceH
	DB	058H
	DB	0ceH
	DB	059H
	DB	0c6H
	DB	059H
	DB	0ceH
	DB	059H
	DB	0ceH
	DB	059H
	DB	0ceH
	DB	059H
	DB	0ceH
	DB	059H
	DB	0ceH
	DB	059H
	DB	0ceH
	DB	059H
	DB	0ceH
	DB	059H
	DB	0ceH
	DB	079H
	DB	0ceH
	DB	079H
	DB	0ceH
	DB	079H
	DB	0ceH
	DB	079H
	DB	0ceH
	DB	079H
	DB	0ceH
	DB	079H
	DB	0ceH
	DB	079H
	DB	0ceH
	DB	079H
	DB	0ceH
	DB	079H
	DB	0ceH
	DB	079H
	DB	0ceH
	DB	079H
	DB	0ceH
	DB	079H
	DB	0ceH
	DB	079H
	DB	0ceH
	DB	079H
	DB	0ceH
	DB	079H
	DB	0ceH
	DB	079H
	DB	0ceH
	DB	079H
	DB	0ceH
	DB	059H
	DB	0ceH
	DB	079H
	DB	0ceH
	DB	079H
	DB	0ceH
	DB	059H
	DB	0ceH
	DB	078H
	DB	0ceH
	DB	079H
	DB	0ceH
	DB	059H
	DB	0ceH
	DB	079H
	DB	0ceH
	DB	059H
	DB	0ceH
	DB	059H
	DB	0ceH
	DB	079H
	DB	0ceH
	DB	079H
	DB	0ceH
	DB	079H
	DB	0ceH
	DB	079H
	DB	0ceH
	DB	079H
	DB	0ceH
	DB	079H
	DB	0ceH
	DB	079H
	DB	0ceH
	DB	079H
	DB	0ceH
	DB	079H
	DB	0ceH
	DB	079H
	DB	0ceH
	DB	079H
	DB	0ceH
	DB	079H
	DB	0ceH
	DB	079H
	DB	0ceH
	DB	079H
	DB	0ceH
	DB	079H
	DB	0ceH
	DB	079H
	DB	0ceH
	DB	079H
	DB	0ceH
	DB	079H
	DB	0ceH
	DB	079H
	DB	0ceH
	DB	079H
	DB	0ceH
	DB	059H
	DB	0ceH
	DB	079H
	DB	0ceH
	DB	079H
	DB	0ceH
	DB	059H
	DB	0ceH
	DB	079H
	DB	0ceH
	DB	079H
	DB	0ceH
	DB	079H
	DB	0ceH
	DB	079H
	DB	0ceH
	DB	079H
	DB	0ceH
	DB	079H
	DB	0ceH
	DB	079H
	DB	0ceH
	DB	079H
	DB	0ceH
	DB	079H
	DB	0ceH
	DB	079H
	DB	0ceH
	DB	079H
	DB	0ceH
	DB	079H
	DB	0ceH
	DB	079H
	DB	0ceH
	DB	079H
	DB	0ceH
	DB	079H
	DB	0ceH
	DB	079H
	DB	0ceH
	DB	079H
	DB	0ceH
	DB	079H
	DB	0ceH
	DB	079H
	DB	0ceH
	DB	079H
	DB	0ceH
	DB	079H
	DB	0ceH
	DB	079H
	DB	0d6H
	DB	079H
	DB	0ceH
	DB	079H
	DB	0ceH
	DB	079H
	DB	0d6H
	DB	079H
	DB	0ceH
	DB	079H
	DB	0ceH
	DB	079H
	DB	0d6H
	DB	079H
	DB	0ceH
	DB	079H
	DB	0ceH
	DB	079H
	DB	0d6H
	DB	079H
	DB	0ceH
	DB	079H
	DB	0ceH
	DB	079H
	DB	0d6H
	DB	079H
	DB	0ceH
	DB	079H
	DB	0ceH
	DB	079H
	DB	0d6H
	DB	079H
	DB	0ceH
	DB	079H
	DB	0ceH
	DB	079H
	DB	0d6H
	DB	079H
	DB	0ceH
	DB	079H
	DB	0ceH
	DB	07aH
	DB	0ceH
	DB	079H
	DB	0d6H
	DB	099H
	DB	0d6H
	DB	099H
	DB	0ceH
	DB	079H
	DB	0d6H
	DB	099H
	DB	0ceH
	DB	099H
	DB	0d6H
	DB	079H
	DB	0d6H
	DB	099H
	DB	0ceH
	DB	099H
	DB	0d6H
	DB	079H
	DB	0d6H
	DB	099H
	DB	0ceH
	DB	099H
	DB	0d6H
	DB	099H
	DB	0d6H
	DB	099H
	DB	0ceH
	DB	099H
	DB	0ceH
	DB	099H
	DB	0d6H
	DB	099H
	DB	0d6H
	DB	079H
	DB	0ceH
	DB	099H
	DB	0ceH
	DB	099H
	DB	0ceH
	DB	099H
	DB	0ceH
	DB	099H
	DB	0ceH
	DB	099H
	DB	0ceH
	DB	099H
	DB	0ceH
	DB	099H
	DB	0ceH
	DB	079H
	DB	0ceH
	DB	099H
	DB	0d6H
	DB	099H
	DB	0ceH
	DB	099H
	DB	0d6H
	DB	099H
	DB	0d6H
	DB	099H
	DB	0d6H
	DB	099H
	DB	0d6H
	DB	079H
	DB	0ceH
	DB	099H
	DB	0d6H
	DB	099H
	DB	0ceH
	DB	099H
	DB	0ceH
	DB	099H
	DB	0ceH
	DB	099H
	DB	0ceH
	DB	099H
	DB	0ceH
	DB	079H
	DB	0d6H
	DB	079H
	DB	0d6H
	DB	099H
	DB	0d6H
	DB	079H
	DB	0d6H
	DB	079H
	DB	0d6H
	DB	09aH
	DB	0d6H
	DB	079H
	DB	0d6H
	DB	09aH
	DB	0d6H
	DB	079H
	DB	0ceH
	DB	09aH
	DB	0d6H
	DB	079H
	DB	0d6H
	DB	079H
	DB	0ceH
	DB	079H
	DB	0d6H
	DB	079H
	DB	0d6H
	DB	079H
	DB	0ceH
	DB	079H
	DB	0d6H
	DB	07aH
	DB	0d6H
	DB	079H
	DB	0ceH
	DB	079H
	DB	0d6H
	DB	079H
	DB	0d6H
	DB	079H
	DB	0ceH
	DB	079H
	DB	0d6H
	DB	079H
	DB	0d6H
	DB	079H
	DB	0ceH
	DB	079H
	DB	0d6H
	DB	079H
	DB	0ceH
	DB	079H
	DB	0ceH
	DB	079H
	DB	0d6H
	DB	079H
	DB	0ceH
	DB	079H
	DB	0ceH
	DB	079H
	DB	0d6H
	DB	079H
	DB	0ceH
	DB	079H
	DB	0ceH
	DB	079H
	DB	0ceH
	DB	079H
	DB	0ceH
	DB	079H
	DB	0ceH
	DB	079H
	DB	0d6H
	DB	079H
	DB	0ceH
	DB	079H
	DB	0ceH
	DB	078H
	DB	0ceH
	DB	058H
	DB	0c6H
	DB	038H
	DB	0c6H
	DB	058H
	DB	0c6H
	DB	038H
	DB	0c6H
	DB	058H
	DB	0c6H
	DB	058H
	DB	0ceH
	DB	038H
	DB	0c6H
	DB	038H
	DB	0c6H
	DB	058H
	DB	0c6H
	DB	038H
	DB	0ceH
	DB	038H
	DB	0c6H
	DB	038H
	DB	0c6H
	DB	058H
	DB	0c6H
	DB	038H
	DB	0ceH
	DB	038H
	DB	0c6H
	DB	058H
	DB	0c6H
	DB	038H
	DB	0ceH
	DB	038H
	DB	0c6H
	DB	038H
	DB	0ceH
	DB	038H
	DB	0c6H
	DB	038H
	DB	0c6H
	DB	038H
	DB	0ceH
	DB	038H
	DB	0c6H
	DB	038H
	DB	0ceH
	DB	058H
	DB	0c6H
	DB	038H
	DB	0c6H
	DB	038H
	DB	0ceH
	DB	058H
	DB	0c6H
	DB	038H
	DB	0c6H
	DB	038H
	DB	0c6H
	DB	038H
	DB	0c6H
	DB	038H
	DB	0c6H
	DB	038H
	DB	0c6H
	DB	058H
	DB	0c6H
	DB	038H
	DB	0c6H
	DB	058H
	DB	0c6H
	DB	058H
	DB	0c6H
	DB	038H
	DB	0c6H
	DB	038H
	DB	0c6H
	DB	058H
	DB	0c6H
	DB	058H
	DB	0c6H
	DB	038H
	DB	0c6H
	DB	058H
	DB	0c6H
	DB	038H
	DB	0c6H
	DB	058H
	DB	0c6H
	DB	058H
	DB	0c6H
	DB	038H
	DB	0c6H
	DB	058H
	DB	0c6H
	DB	038H
	DB	0c6H
	DB	058H
	DB	0c6H
	DB	058H
	DB	0c6H
	DB	058H
	DB	0c6H
	DB	038H
	DB	0c6H
	DB	058H
	DB	0c6H
	DB	038H
	DB	0c6H
	DB	058H
	DB	0c6H
	DB	058H
	DB	0c6H
	DB	038H
	DB	0c6H
	DB	058H
	DB	0c6H
	DB	038H
	DB	0c6H
	DB	038H
	DB	0c6H
	DB	058H
	DB	0c6H
	DB	038H
	DB	0c6H
	DB	058H
	DB	0c6H
	DB	058H
	DB	0c6H
	DB	038H
	DB	0c6H
	DB	058H
	DB	0c6H
	DB	038H
	DB	0c6H
	DB	058H
	DB	0c6H
	DB	038H
	DB	0c6H
	DB	058H
	DB	0c6H
	DB	058H
	DB	0c6H
	DB	037H
	DB	0c6H
	DB	038H
	DB	0c6H
	DB	038H
	DB	0c6H
	DB	057H
	DB	0c6H
	DB	038H
	DB	0c6H
	DB	038H
	DB	0c6H
	DB	079H
	DB	0ceH
	DB	0fH
	DB	084H
	DB	079H
	DB	0ceH
	DB	038H
	DB	0c6H
	DB	038H
	DB	0c6H
	DB	037H
	DB	0c6H
	DB	058H
	DB	0c6H
	DB	038H
	DB	0c6H
	DB	037H
	DB	0c6H
	DB	038H
	DB	0c6H
	DB	038H
	DB	0c6H
	DB	037H
	DB	0c6H
	DB	038H
	DB	0c6H
	DB	037H
	DB	0c6H
	DB	037H
	DB	0c6H
	DB	038H
	DB	0c6H
	DB	038H
	DB	0ceH
	DB	038H
	DB	0c6H
	DB	038H
	DB	0c6H
	DB	038H
	DB	0c6H
	DB	038H
	DB	0c6H
	DB	038H
	DB	0c6H
	DB	038H
	DB	0c6H
	DB	038H
	DB	0c6H
	DB	038H
	DB	0ceH
	DB	038H
	DB	0c6H
	DB	038H
	DB	0c6H
	DB	038H
	DB	0c6H
	DB	038H
	DB	0c6H
	DB	038H
	DB	0c6H
	DB	038H
	DB	0c6H
	DB	037H
	DB	0ceH
	DB	038H
	DB	0c6H
	DB	038H
	DB	0c6H
	DB	038H
	DB	0c6H
	DB	038H
	DB	0c6H
	DB	037H
	DB	0ceH
	DB	038H
	DB	0c6H
	DB	038H
	DB	0c6H
	DB	038H
	DB	0ceH
	DB	038H
	DB	0c6H
	DB	018H
	DB	0c6H
	DB	038H
	DB	0c6H
	DB	038H
	DB	0c6H
	DB	018H
	DB	0c6H
	DB	037H
	DB	0c6H
	DB	038H
	DB	0c6H
	DB	038H
	DB	0c6H
	DB	037H
	DB	0c6H
	DB	018H
	DB	0c6H
	DB	038H
	DB	0c6H
	DB	018H
	DB	0c6H
	DB	038H
	DB	0c6H
	DB	038H
	DB	0c6H
	DB	038H
	DB	0c6H
	DB	038H
	DB	0c6H
	DB	037H
	DB	0c6H
	DB	038H
	DB	0c6H
	DB	038H
	DB	0c6H
	DB	037H
	DB	0c6H
	DB	038H
	DB	0ceH
	DB	018H
	DB	0c6H
	DB	037H
	DB	0c6H
	DB	038H
	DB	0ceH
	DB	018H
	DB	0c6H
	DB	038H
	DB	0c6H
	DB	018H
	DB	0c6H
	DB	018H
	DB	0c6H
	DB	038H
	DB	0c6H
	DB	037H
	DB	0c6H
	DB	018H
	DB	0c6H
	DB	018H
	DB	0c6H
	DB	037H
	DB	0c6H
	DB	038H
	DB	0c6H
	DB	018H
	DB	0c6H
	DB	038H
	DB	0c6H
	DB	038H
	DB	0c6H
	DB	017H
	DB	0c6H
	DB	038H
	DB	0ceH
	DB	017H
	DB	0c6H
	DB	038H
	DB	0c6H
	DB	038H
	DB	0c6H
	DB	018H
	DB	0c6H
	DB	038H
	DB	0c6H
	DB	037H
	DB	0c6H
	DB	018H
	DB	0c6H
	DB	038H
	DB	0c6H
	DB	037H
	DB	0c6H
	DB	018H
	DB	0c6H
	DB	018H
	DB	0c6H
	DB	018H
	DB	0c6H
	DB	038H
	DB	0c6H
	DB	038H
	DB	0c6H
	DB	038H
	DB	0c6H
	DB	038H
	DB	0c6H
	DB	038H
	DB	0c6H
	DB	038H
	DB	0c6H
	DB	038H
	DB	0c6H
	DB	038H
	DB	0c6H
	DB	038H
	DB	0c6H
	DB	038H
	DB	0c6H
	DB	038H
	DB	0c6H
	DB	038H
	DB	0c6H
	DB	038H
	DB	0c6H
	DB	038H
	DB	0c6H
	DB	038H
	DB	0c6H
	DB	018H
	DB	0c6H
	DB	038H
	DB	0c6H
	DB	038H
	DB	0c6H
	DB	038H
	DB	0c6H
	DB	038H
	DB	0c6H
	DB	038H
	DB	0c6H
	DB	038H
	DB	0c6H
	DB	038H
	DB	0c6H
	DB	038H
	DB	0c6H
	DB	038H
	DB	0c6H
	DB	038H
	DB	0c6H
	DB	038H
	DB	0c6H
	DB	038H
	DB	0c6H
	DB	038H
	DB	0c6H
	DB	038H
	DB	0c6H
	DB	038H
	DB	0c6H
	DB	038H
	DB	0c6H
	DB	038H
	DB	0c6H
	DB	038H
	DB	0c6H
	DB	038H
	DB	0c6H
	DB	038H
	DB	0c6H
	DB	038H
	DB	0c6H
	DB	038H
	DB	0c6H
	DB	038H
	DB	0c6H
	DB	038H
	DB	0c6H
	DB	038H
	DB	0c6H
	DB	038H
	DB	0c6H
	DB	038H
	DB	0c6H
	DB	038H
	DB	0c6H
	DB	038H
	DB	0c6H
	DB	038H
	DB	0c6H
	DB	038H
	DB	0c6H
	DB	038H
	DB	0ceH
	DB	038H
	DB	0c6H
	DB	038H
	DB	0c6H
	DB	038H
	DB	0ceH
	DB	038H
	DB	0c6H
	DB	038H
	DB	0c6H
	DB	038H
	DB	0ceH
	DB	038H
	DB	0c6H
	DB	038H
	DB	0c6H
	DB	038H
	DB	0ceH
	DB	038H
	DB	0ceH
	DB	038H
	DB	0c6H
	DB	038H
	DB	0ceH
	DB	038H
	DB	0ceH
	DB	038H
	DB	0c6H
	DB	038H
	DB	0ceH
	DB	058H
	DB	0c6H
	DB	058H
	DB	0c6H
	DB	058H
	DB	0c6H
	DB	058H
	DB	0c6H
	DB	058H
	DB	0c6H
	DB	058H
	DB	0c6H
	DB	058H
	DB	0c6H
	DB	058H
	DB	0c6H
	DB	038H
	DB	0c6H
	DB	058H
	DB	0ceH
	DB	058H
	DB	0c6H
	DB	058H
	DB	0c6H
	DB	058H
	DB	0ceH
	DB	058H
	DB	0c6H
	DB	058H
	DB	0c6H
	DB	058H
	DB	0c6H
	DB	058H
	DB	0c6H
	DB	058H
	DB	0c6H
	DB	058H
	DB	0c6H
	DB	058H
	DB	0c6H
	DB	058H
	DB	0c6H
	DB	058H
	DB	0c6H
	DB	058H
	DB	0c6H
	DB	058H
	DB	0c6H
	DB	038H
	DB	0c6H
	DB	058H
	DB	0ceH
	DB	058H
	DB	0c6H
	DB	038H
	DB	0c6H
	DB	058H
	DB	0ceH
	DB	058H
	DB	0c6H
	DB	058H
	DB	0c6H
	DB	058H
	DB	0ceH
	DB	058H
	DB	0c6H
	DB	058H
	DB	0c6H
	DB	058H
	DB	0ceH
	DB	058H
	DB	0c6H
	DB	058H
	DB	0ceH
	DB	059H
	DB	0ceH
	DB	059H
	DB	0ceH
	DB	058H
	DB	0ceH
	DB	058H
	DB	0ceH
	DB	059H
	DB	0c6H
	DB	058H
	DB	0ceH
	DB	058H
	DB	0ceH
	DB	059H
	DB	0c6H
	DB	058H
	DB	0ceH
	DB	059H
	DB	0ceH
	DB	059H
	DB	0ceH
	DB	059H
	DB	0ceH
	DB	058H
	DB	0c6H
	DB	059H
	DB	0ceH
	DB	059H
	DB	0ceH
	DB	058H
	DB	0c6H
	DB	059H
	DB	0ceH
	DB	059H
	DB	0ceH
	DB	059H
	DB	0ceH
	DB	058H
	DB	0ceH
	DB	059H
	DB	0ceH
	DB	059H
	DB	0ceH
	DB	058H
	DB	0ceH
	DB	059H
	DB	0ceH
	DB	059H
	DB	0ceH
	DB	058H
	DB	0ceH
	DB	059H
	DB	0ceH
	DB	059H
	DB	0ceH
	DB	058H
	DB	0ceH
	DB	059H
	DB	0ceH
	DB	058H
	DB	0c6H
	DB	059H
	DB	0ceH
	DB	058H
	DB	0ceH
	DB	059H
	DB	0c6H
	DB	059H
	DB	0ceH
	DB	058H
	DB	0ceH
	DB	059H
	DB	0c6H
	DB	058H
	DB	0c6H
	DB	059H
	DB	0ceH
	DB	059H
	DB	0ceH
	DB	059H
	DB	0ceH
	DB	059H
	DB	0ceH
	DB	059H
	DB	0ceH
	DB	058H
	DB	0ceH
	DB	059H
	DB	0ceH
	DB	059H
	DB	0ceH
	DB	059H
	DB	0ceH
	DB	059H
	DB	0ceH
	DB	059H
	DB	0ceH
	DB	058H
	DB	0ceH
	DB	059H
	DB	0ceH
	DB	059H
	DB	0ceH
	DB	058H
	DB	0c6H
	DB	059H
	DB	0ceH
	DB	059H
	DB	0ceH
	DB	058H
	DB	0c6H
	DB	059H
	DB	0ceH
	DB	058H
	DB	0ceH
	DB	058H
	DB	0ceH
	DB	079H
	DB	0ceH
	DB	079H
	DB	0ceH
	DB	059H
	DB	0ceH
	DB	079H
	DB	0ceH
	DB	078H
	DB	0ceH
	DB	059H
	DB	0ceH
	DB	059H
	DB	0ceH
	DB	079H
	DB	0ceH
	DB	059H
	DB	0ceH
	DB	059H
	DB	0ceH
	DB	059H
	DB	0ceH
	DB	059H
	DB	0ceH
	DB	059H
	DB	0ceH
	DB	059H
	DB	0ceH
	DB	059H
	DB	0ceH
	DB	059H
	DB	0ceH
	DB	059H
	DB	0ceH
	DB	079H
	DB	0ceH
	DB	059H
	DB	0ceH
	DB	059H
	DB	0ceH
	DB	079H
	DB	0ceH
	DB	059H
	DB	0ceH
	DB	059H
	DB	0ceH
	DB	079H
	DB	0ceH
	DB	059H
	DB	0ceH
	DB	059H
	DB	0ceH
	DB	079H
	DB	0ceH
	DB	059H
	DB	0ceH
	DB	079H
	DB	0ceH
	DB	079H
	DB	0ceH
	DB	079H
	DB	0ceH
	DB	079H
	DB	0ceH
	DB	059H
	DB	0ceH
	DB	079H
	DB	0ceH
	DB	059H
	DB	0ceH
	DB	059H
	DB	0ceH
	DB	079H
	DB	0ceH
	DB	059H
	DB	0ceH
	DB	059H
	DB	0ceH
	DB	079H
	DB	0ceH
	DB	059H
	DB	0ceH
	DB	079H
	DB	0ceH
	DB	079H
	DB	0ceH
	DB	079H
	DB	0ceH
	DB	079H
	DB	0ceH
	DB	059H
	DB	0ceH
	DB	079H
	DB	0ceH
	DB	079H
	DB	0ceH
	DB	079H
	DB	0ceH
	DB	079H
	DB	0ceH
	DB	079H
	DB	0ceH
	DB	079H
	DB	0ceH
	DB	079H
	DB	0ceH
	DB	079H
	DB	0ceH
	DB	079H
	DB	0ceH
	DB	079H
	DB	0ceH
	DB	079H
	DB	0ceH
	DB	079H
	DB	0ceH
	DB	079H
	DB	0ceH
	DB	079H
	DB	0ceH
	DB	079H
	DB	0ceH
	DB	079H
	DB	0ceH
	DB	079H
	DB	0ceH
	DB	079H
	DB	0ceH
	DB	079H
	DB	0ceH
	DB	079H
	DB	0ceH
	DB	079H
	DB	0ceH
	DB	079H
	DB	0ceH
	DB	079H
	DB	0ceH
	DB	079H
	DB	0ceH
	DB	079H
	DB	0ceH
	DB	079H
	DB	0d6H
	DB	079H
	DB	0ceH
	DB	079H
	DB	0d6H
	DB	079H
	DB	0d6H
	DB	079H
	DB	0ceH
	DB	079H
	DB	0d6H
	DB	079H
	DB	0d6H
	DB	079H
	DB	0d6H
	DB	07aH
	DB	0d6H
	DB	079H
	DB	0ceH
	DB	079H
	DB	0ceH
	DB	079H
	DB	0d6H
	DB	079H
	DB	0d6H
	DB	079H
	DB	0ceH
	DB	079H
	DB	0d6H
	DB	079H
	DB	0ceH
	DB	079H
	DB	0ceH
	DB	099H
	DB	0d6H
	DB	079H
	DB	0d6H
	DB	099H
	DB	0d6H
	DB	079H
	DB	0ceH
	DB	099H
	DB	0d6H
	DB	079H
	DB	0d6H
	DB	09aH
	DB	0d6H
	DB	079H
	DB	0d6H
	DB	09aH
	DB	0ceH
	DB	09aH
	DB	0d6H
	DB	09aH
	DB	0d6H
	DB	099H
	DB	0ceH
	DB	09aH
	DB	0d6H
	DB	09aH
	DB	0ceH
	DB	079H
	DB	0ceH
	DB	09aH
	DB	0ceH
	DB	079H
	DB	0ceH
	DB	07aH
	DB	0d6H
	DB	099H
	DB	0ceH
	DB	07aH
	DB	0ceH
	DB	079H
	DB	0ceH
	DB	099H
	DB	0ceH
	DB	07aH
	DB	0d6H
	DB	09aH
	DB	0d6H
	DB	099H
	DB	0ceH
	DB	099H
	DB	0ceH
	DB	079H
	DB	0ceH
	DB	099H
	DB	0d6H
	DB	099H
	DB	0d6H
	DB	099H
	DB	0d6H
	DB	099H
	DB	0ceH
	DB	099H
	DB	0d6H
	DB	099H
	DB	0ceH
	DB	099H
	DB	0ceH
	DB	099H
	DB	0ceH
	DB	099H
	DB	0d6H
	DB	099H
	DB	0ceH
	DB	099H
	DB	0ceH
	DB	099H
	DB	0ceH
	DB	099H
	DB	0ceH
	DB	079H
	DB	0d6H
	DB	079H
	DB	0ceH
	DB	079H
	DB	0ceH
	DB	09aH
	DB	0ceH
	DB	079H
	DB	0d6H
	DB	079H
	DB	0ceH
	DB	09aH
	DB	0d6H
	DB	079H
	DB	0d6H
	DB	099H
	DB	0ceH
	DB	099H
	DB	0ceH
	DB	099H
	DB	0d6H
	DB	099H
	DB	0ceH
	DB	099H
	DB	0ceH
	DB	099H
	DB	0ceH
	DB	07aH
	DB	0ceH
	DB	099H
	DB	0ceH
	DB	099H
	DB	0ceH
	DB	07aH
	DB	0ceH
	DB	099H
	DB	0ceH
	DB	099H
	DB	0ceH
	DB	07aH
	DB	0d6H
	DB	099H
	DB	0ceH
	DB	09aH
	DB	0ceH
	DB	07aH
	DB	0d6H
	DB	099H
	DB	0ceH
	DB	09aH
	DB	0d6H
	DB	07aH
	DB	0ceH
	DB	099H
	DB	0d6H
	DB	09aH
	DB	0d6H
	DB	09aH
	DB	0ceH
	DB	099H
	DB	0d6H
	DB	09aH
	DB	0d6H
	DB	079H
	DB	0ceH
	DB	099H
	DB	0d6H
	DB	079H
	DB	0ceH
	DB	079H
	DB	0ceH
	DB	099H
	DB	0d6H
	DB	079H
	DB	0d6H
	DB	099H
	DB	0d6H
	DB	079H
	DB	0ceH
	DB	079H
	DB	0ceH
	DB	079H
	DB	0d6H
	DB	079H
	DB	0ceH
	DB	079H
	DB	0ceH
	DB	079H
	DB	0d6H
	DB	079H
	DB	0d6H
	DB	079H
	DB	0ceH
	DB	079H
	DB	0ceH
	DB	079H
	DB	0ceH
	DB	079H
	DB	0d6H
	DB	079H
	DB	0ceH
	DB	079H
	DB	0ceH
	DB	079H
	DB	0ceH
	DB	038H
	DB	0c6H
	DB	038H
	DB	0c6H
	DB	058H
	DB	0ceH
	DB	038H
	DB	0c6H
	DB	038H
	DB	0c6H
	DB	058H
	DB	0c6H
	DB	058H
	DB	0c6H
	DB	038H
	DB	0c6H
	DB	058H
	DB	0c6H
	DB	038H
	DB	0ceH
	DB	038H
	DB	0c6H
	DB	058H
	DB	0c6H
	DB	038H
	DB	0ceH
	DB	038H
	DB	0c6H
	DB	038H
	DB	0c6H
	DB	058H
	DB	0ceH
	DB	038H
	DB	0c6H
	DB	038H
	DB	0c6H
	DB	058H
	DB	0ceH
	DB	038H
	DB	0c6H
	DB	038H
	DB	0c6H
	DB	058H
	DB	0ceH
	DB	038H
	DB	0c6H
	DB	038H
	DB	0c6H
	DB	038H
	DB	0ceH
	DB	038H
	DB	0c6H
	DB	038H
	DB	0c6H
	DB	058H
	DB	0c6H
	DB	058H
	DB	0c6H
	DB	038H
	DB	0ceH
	DB	058H
	DB	0ceH
	DB	038H
	DB	0c6H
	DB	038H
	DB	0ceH
	DB	058H
	DB	0c6H
	DB	038H
	DB	0c6H
	DB	038H
	DB	0ceH
	DB	058H
	DB	0c6H
	DB	058H
	DB	0c6H
	DB	038H
	DB	0ceH
	DB	038H
	DB	0c6H
	DB	058H
	DB	0c6H
	DB	038H
	DB	0ceH
	DB	058H
	DB	0c6H
	DB	038H
	DB	0c6H
	DB	038H
	DB	0ceH
	DB	058H
	DB	0c6H
	DB	058H
	DB	0c6H
	DB	038H
	DB	0ceH
	DB	058H
	DB	0c6H
	DB	038H
	DB	0c6H
	DB	038H
	DB	0ceH
	DB	058H
	DB	0c6H
	DB	038H
	DB	0c6H
	DB	038H
	DB	0ceH
	DB	058H
	DB	0c6H
	DB	038H
	DB	0c6H
	DB	038H
	DB	0ceH
	DB	058H
	DB	0c6H
	DB	058H
	DB	0c6H
	DB	038H
	DB	0ceH
	DB	058H
	DB	0c6H
	DB	038H
	DB	0c6H
	DB	038H
	DB	0ceH
	DB	058H
	DB	0c6H
	DB	038H
	DB	0c6H
	DB	058H
	DB	0ceH
	DB	058H
	DB	0c6H
	DB	038H
	DB	0c6H
	DB	038H
	DB	0c6H
	DB	058H
	DB	0ceH
	DB	038H
	DB	0c6H
	DB	038H
	DB	0c6H
	DB	038H
	DB	0c6H
	DB	038H
	DB	0c6H
	DB	038H
	DB	0c6H
	DB	038H
	DB	0c6H
	DB	038H
	DB	0c6H
	DB	038H
	DB	0c6H
	DB	079H
	DB	0ceH
	DB	0fH
	DB	084H
	DB	079H
	DB	0ceH
	DB	058H
	DB	0c6H
	DB	038H
	DB	0c6H
	DB	038H
	DB	0c6H
	DB	058H
	DB	0c6H
	DB	038H
	DB	0c6H
	DB	038H
	DB	0c6H
	DB	038H
	DB	0c6H
	DB	038H
	DB	0ceH
	DB	038H
	DB	0c6H
	DB	038H
	DB	0c6H
	DB	038H
	DB	0c6H
	DB	038H
	DB	0c6H
	DB	038H
	DB	0c6H
	DB	038H
	DB	0c6H
	DB	038H
	DB	0ceH
	DB	038H
	DB	0c6H
	DB	038H
	DB	0c6H
	DB	037H
	DB	0c6H
	DB	038H
	DB	0ceH
	DB	038H
	DB	0c6H
	DB	017H
	DB	0c6H
	DB	038H
	DB	0c6H
	DB	038H
	DB	0ceH
	DB	037H
	DB	0c6H
	DB	038H
	DB	0ceH
	DB	038H
	DB	0ceH
	DB	038H
	DB	0c6H
	DB	038H
	DB	0c6H
	DB	038H
	DB	0c6H
	DB	038H
	DB	0c6H
	DB	038H
	DB	0ceH
	DB	037H
	DB	0c6H
	DB	038H
	DB	0c6H
	DB	038H
	DB	0c6H
	DB	038H
	DB	0ceH
	DB	038H
	DB	0c6H
	DB	037H
	DB	0c6H
	DB	038H
	DB	0ceH
	DB	038H
	DB	0c6H
	DB	017H
	DB	0c6H
	DB	038H
	DB	0c6H
	DB	037H
	DB	0ceH
	DB	038H
	DB	0c6H
	DB	018H
	DB	0c6H
	DB	037H
	DB	0ceH
	DB	038H
	DB	0c6H
	DB	018H
	DB	0c6H
	DB	037H
	DB	0ceH
	DB	037H
	DB	0c6H
	DB	018H
	DB	0c6H
	DB	038H
	DB	0ceH
	DB	037H
	DB	0c6H
	DB	018H
	DB	0c6H
	DB	018H
	DB	0ceH
	DB	037H
	DB	0c6H
	DB	018H
	DB	0c6H
	DB	038H
	DB	0c6H
	DB	037H
	DB	0c6H
	DB	038H
	DB	0c6H
	DB	038H
	DB	0c6H
	DB	037H
	DB	0c6H
	DB	038H
	DB	0c6H
	DB	038H
	DB	0c6H
	DB	037H
	DB	0c6H
	DB	038H
	DB	0c6H
	DB	037H
	DB	0c6H
	DB	038H
	DB	0c6H
	DB	038H
	DB	0c6H
	DB	037H
	DB	0c6H
	DB	018H
	DB	0c6H
	DB	038H
	DB	0c6H
	DB	037H
	DB	0c6H
	DB	038H
	DB	0ceH
	DB	038H
	DB	0c6H
	DB	038H
	DB	0c6H
	DB	038H
	DB	0c6H
	DB	017H
	DB	0c6H
	DB	038H
	DB	0c6H
	DB	038H
	DB	0c6H
	DB	038H
	DB	0c6H
	DB	038H
	DB	0c6H
	DB	038H
	DB	0c6H
	DB	038H
	DB	0c6H
	DB	038H
	DB	0c6H
	DB	038H
	DB	0c6H
	DB	038H
	DB	0c6H
	DB	038H
	DB	0c6H
	DB	038H
	DB	0c6H
	DB	018H
	DB	0c6H
	DB	038H
	DB	0c6H
	DB	038H
	DB	0c6H
	DB	038H
	DB	0c6H
	DB	038H
	DB	0c6H
	DB	038H
	DB	0c6H
	DB	038H
	DB	0c6H
	DB	038H
	DB	0c6H
	DB	038H
	DB	0c6H
	DB	038H
	DB	0c6H
	DB	038H
	DB	0c6H
	DB	038H
	DB	0c6H
	DB	038H
	DB	0c6H
	DB	038H
	DB	0c6H
	DB	038H
	DB	0c6H
	DB	038H
	DB	0c6H
	DB	038H
	DB	0c6H
	DB	038H
	DB	0c6H
	DB	038H
	DB	0c6H
	DB	038H
	DB	0c6H
	DB	038H
	DB	0c6H
	DB	038H
	DB	0c6H
	DB	038H
	DB	0c6H
	DB	038H
	DB	0c6H
	DB	038H
	DB	0c6H
	DB	038H
	DB	0c6H
	DB	038H
	DB	0c6H
	DB	038H
	DB	0c6H
	DB	038H
	DB	0c6H
	DB	038H
	DB	0c6H
	DB	038H
	DB	0c6H
	DB	038H
	DB	0ceH
	DB	038H
	DB	0c6H
	DB	038H
	DB	0c6H
	DB	038H
	DB	0ceH
	DB	038H
	DB	0c6H
	DB	038H
	DB	0c6H
	DB	038H
	DB	0c6H
	DB	038H
	DB	0ceH
	DB	038H
	DB	0c6H
	DB	038H
	DB	0c6H
	DB	038H
	DB	0ceH
	DB	038H
	DB	0ceH
	DB	038H
	DB	0c6H
	DB	038H
	DB	0ceH
	DB	038H
	DB	0c6H
	DB	038H
	DB	0ceH
	DB	038H
	DB	0c6H
	DB	038H
	DB	0c6H
	DB	038H
	DB	0ceH
	DB	038H
	DB	0c6H
	DB	059H
	DB	0ceH
	DB	058H
	DB	0c6H
	DB	058H
	DB	0c6H
	DB	059H
	DB	0c6H
	DB	038H
	DB	0c6H
	DB	058H
	DB	0c6H
	DB	058H
	DB	0c6H
	DB	038H
	DB	0c6H
	DB	058H
	DB	0c6H
	DB	058H
	DB	0c6H
	DB	058H
	DB	0c6H
	DB	058H
	DB	0c6H
	DB	058H
	DB	0c6H
	DB	058H
	DB	0c6H
	DB	058H
	DB	0ceH
	DB	058H
	DB	0c6H
	DB	058H
	DB	0c6H
	DB	058H
	DB	0ceH
	DB	058H
	DB	0c6H
	DB	058H
	DB	0c6H
	DB	058H
	DB	0ceH
	DB	058H
	DB	0c6H
	DB	058H
	DB	0c6H
	DB	058H
	DB	0ceH
	DB	058H
	DB	0ceH
	DB	058H
	DB	0c6H
	DB	058H
	DB	0ceH
	DB	058H
	DB	0ceH
	DB	058H
	DB	0ceH
	DB	058H
	DB	0c6H
	DB	058H
	DB	0ceH
	DB	058H
	DB	0ceH
	DB	058H
	DB	0c6H
	DB	058H
	DB	0ceH
	DB	058H
	DB	0ceH
	DB	058H
	DB	0c6H
	DB	058H
	DB	0ceH
	DB	058H
	DB	0c6H
	DB	058H
	DB	0c6H
	DB	058H
	DB	0ceH
	DB	058H
	DB	0c6H
	DB	058H
	DB	0c6H
	DB	058H
	DB	0ceH
	DB	058H
	DB	0ceH
	DB	058H
	DB	0c6H
	DB	058H
	DB	0c6H
	DB	058H
	DB	0ceH
	DB	058H
	DB	0c6H
	DB	058H
	DB	0c6H
	DB	058H
	DB	0c6H
	DB	058H
	DB	0c6H
	DB	058H
	DB	0c6H
	DB	059H
	DB	0ceH
	DB	059H
	DB	0ceH
	DB	058H
	DB	0ceH
	DB	059H
	DB	0ceH
	DB	059H
	DB	0ceH
	DB	058H
	DB	0c6H
	DB	059H
	DB	0ceH
	DB	058H
	DB	0ceH
	DB	058H
	DB	0c6H
	DB	059H
	DB	0ceH
	DB	059H
	DB	0ceH
	DB	058H
	DB	0c6H
	DB	058H
	DB	0ceH
	DB	059H
	DB	0c6H
	DB	058H
	DB	0ceH
	DB	058H
	DB	0c6H
	DB	059H
	DB	0ceH
	DB	058H
	DB	0c6H
	DB	058H
	DB	0ceH
	DB	059H
	DB	0c6H
	DB	058H
	DB	0c6H
	DB	058H
	DB	0ceH
	DB	059H
	DB	0c6H
	DB	058H
	DB	0ceH
	DB	058H
	DB	0c6H
	DB	059H
	DB	0ceH
	DB	058H
	DB	0ceH
	DB	059H
	DB	0c6H
	DB	059H
	DB	0ceH
	DB	059H
	DB	0ceH
	DB	059H
	DB	0ceH
	DB	059H
	DB	0ceH
	DB	059H
	DB	0ceH
	DB	059H
	DB	0ceH
	DB	059H
	DB	0ceH
	DB	058H
	DB	0ceH
	DB	059H
	DB	0ceH
	DB	059H
	DB	0ceH
	DB	058H
	DB	0ceH
	DB	059H
	DB	0c6H
	DB	059H
	DB	0ceH
	DB	059H
	DB	0ceH
	DB	059H
	DB	0ceH
	DB	059H
	DB	0c6H
	DB	059H
	DB	0ceH
	DB	059H
	DB	0ceH
	DB	059H
	DB	0ceH
	DB	079H
	DB	0ceH
	DB	059H
	DB	0ceH
	DB	079H
	DB	0ceH
	DB	079H
	DB	0ceH
	DB	059H
	DB	0ceH
	DB	079H
	DB	0ceH
	DB	079H
	DB	0ceH
	DB	079H
	DB	0ceH
	DB	059H
	DB	0ceH
	DB	079H
	DB	0ceH
	DB	059H
	DB	0ceH
	DB	079H
	DB	0ceH
	DB	059H
	DB	0ceH
	DB	079H
	DB	0ceH
	DB	079H
	DB	0ceH
	DB	059H
	DB	0ceH
	DB	078H
	DB	0ceH
	DB	079H
	DB	0ceH
	DB	079H
	DB	0ceH
	DB	079H
	DB	0ceH
	DB	079H
	DB	0ceH
	DB	079H
	DB	0ceH
	DB	079H
	DB	0ceH
	DB	079H
	DB	0ceH
	DB	079H
	DB	0ceH
	DB	059H
	DB	0ceH
	DB	059H
	DB	0ceH
	DB	078H
	DB	0ceH
	DB	079H
	DB	0ceH
	DB	079H
	DB	0ceH
	DB	079H
	DB	0ceH
	DB	079H
	DB	0ceH
	DB	079H
	DB	0ceH
	DB	079H
	DB	0ceH
	DB	079H
	DB	0ceH
	DB	079H
	DB	0ceH
	DB	079H
	DB	0ceH
	DB	079H
	DB	0ceH
	DB	059H
	DB	0ceH
	DB	079H
	DB	0ceH
	DB	079H
	DB	0ceH
	DB	079H
	DB	0ceH
	DB	079H
	DB	0ceH
	DB	079H
	DB	0ceH
	DB	079H
	DB	0ceH
	DB	079H
	DB	0ceH
	DB	079H
	DB	0ceH
	DB	079H
	DB	0ceH
	DB	079H
	DB	0ceH
	DB	079H
	DB	0ceH
	DB	079H
	DB	0ceH
	DB	079H
	DB	0ceH
	DB	079H
	DB	0ceH
	DB	079H
	DB	0ceH
	DB	079H
	DB	0ceH
	DB	079H
	DB	0ceH
	DB	079H
	DB	0ceH
	DB	079H
	DB	0ceH
	DB	079H
	DB	0ceH
	DB	079H
	DB	0ceH
	DB	079H
	DB	0ceH
	DB	079H
	DB	0ceH
	DB	079H
	DB	0ceH
	DB	079H
	DB	0ceH
	DB	079H
	DB	0d6H
	DB	079H
	DB	0ceH
	DB	079H
	DB	0ceH
	DB	079H
	DB	0d6H
	DB	079H
	DB	0ceH
	DB	079H
	DB	0ceH
	DB	079H
	DB	0d6H
	DB	079H
	DB	0ceH
	DB	079H
	DB	0ceH
	DB	079H
	DB	0d6H
	DB	079H
	DB	0ceH
	DB	079H
	DB	0d6H
	DB	079H
	DB	0ceH
	DB	079H
	DB	0d6H
	DB	079H
	DB	0ceH
	DB	079H
	DB	0d6H
	DB	079H
	DB	0ceH
	DB	099H
	DB	0d6H
	DB	079H
	DB	0ceH
	DB	099H
	DB	0d6H
	DB	079H
	DB	0ceH
	DB	09aH
	DB	0d6H
	DB	099H
	DB	0ceH
	DB	079H
	DB	0ceH
	DB	09aH
	DB	0d6H
	DB	099H
	DB	0d6H
	DB	07aH
	DB	0ceH
	DB	09aH
	DB	0d6H
	DB	099H
	DB	0ceH
	DB	07aH
	DB	0d6H
	DB	09aH
	DB	0d6H
	DB	099H
	DB	0ceH
	DB	07aH
	DB	0d6H
	DB	09aH
	DB	0d6H
	DB	099H
	DB	0ceH
	DB	07aH
	DB	0ceH
	DB	09aH
	DB	0d6H
	DB	079H
	DB	0ceH
	DB	09aH
	DB	0ceH
	DB	079H
	DB	0ceH
	DB	099H
	DB	0d6H
	DB	079H
	DB	0ceH
	DB	079H
	DB	0d6H
	DB	079H
	DB	0ceH
	DB	09aH
	DB	0d6H
	DB	09aH
	DB	0d6H
	DB	099H
	DB	0d6H
	DB	09aH
	DB	0d6H
	DB	09aH
	DB	0d6H
	DB	09aH
	DB	0d6H
	DB	099H
	DB	0d6H
	DB	09aH
	DB	0d6H
	DB	09aH
	DB	0d6H
	DB	09aH
	DB	0d6H
	DB	099H
	DB	0d6H
	DB	09aH
	DB	0ceH
	DB	099H
	DB	0d6H
	DB	099H
	DB	0d6H
	DB	07aH
	DB	0ceH
	DB	09aH
	DB	0d6H
	DB	079H
	DB	0d6H
	DB	079H
	DB	0ceH
	DB	099H
	DB	0d6H
	DB	079H
	DB	0d6H
	DB	099H
	DB	0d6H
	DB	099H
	DB	0d6H
	DB	079H
	DB	0d6H
	DB	099H
	DB	0ceH
	DB	099H
	DB	0d6H
	DB	099H
	DB	0d6H
	DB	099H
	DB	0ceH
	DB	099H
	DB	0d6H
	DB	099H
	DB	0ceH
	DB	099H
	DB	0ceH
	DB	09aH
	DB	0d6H
	DB	099H
	DB	0ceH
	DB	099H
	DB	0ceH
	DB	099H
	DB	0ceH
	DB	099H
	DB	0ceH
	DB	09aH
	DB	0ceH
	DB	099H
	DB	0ceH
	DB	099H
	DB	0d6H
	DB	09aH
	DB	0ceH
	DB	099H
	DB	0d6H
	DB	09aH
	DB	0d6H
	DB	099H
	DB	0ceH
	DB	099H
	DB	0d6H
	DB	099H
	DB	0ceH
	DB	099H
	DB	0ceH
	DB	099H
	DB	0ceH
	DB	099H
	DB	0ceH
	DB	099H
	DB	0ceH
	DB	099H
	DB	0ceH
	DB	079H
	DB	0d6H
	DB	079H
	DB	0d6H
	DB	099H
	DB	0ceH
	DB	079H
	DB	0ceH
	DB	099H
	DB	0d6H
	DB	07aH
	DB	0ceH
	DB	079H
	DB	0ceH
	DB	099H
	DB	0d6H
	DB	079H
	DB	0ceH
	DB	079H
	DB	0ceH
	DB	07aH
	DB	0ceH
	DB	099H
	DB	0ceH
	DB	09aH
	DB	0d6H
	DB	07aH
	DB	0ceH
	DB	099H
	DB	0d6H
	DB	09aH
	DB	0ceH
	DB	07aH
	DB	0ceH
	DB	099H
	DB	0ceH
	DB	07aH
	DB	0d6H
	DB	09aH
	DB	0d6H
	DB	09aH
	DB	0ceH
	DB	07aH
	DB	0d6H
	DB	09aH
	DB	0d6H
	DB	09aH
	DB	0ceH
	DB	079H
	DB	0d6H
	DB	07aH
	DB	0d6H
	DB	079H
	DB	0ceH
	DB	079H
	DB	0d6H
	DB	079H
	DB	0d6H
	DB	099H
	DB	0ceH
	DB	079H
	DB	0d6H
	DB	079H
	DB	0ceH
	DB	079H
	DB	0ceH
	DB	038H
	DB	0ceH
	DB	038H
	DB	0ceH
	DB	038H
	DB	0c6H
	DB	038H
	DB	0ceH
	DB	038H
	DB	0ceH
	DB	038H
	DB	0c6H
	DB	038H
	DB	0ceH
	DB	038H
	DB	0c6H
	DB	038H
	DB	0ceH
	DB	038H
	DB	0c6H
	DB	038H
	DB	0ceH
	DB	038H
	DB	0c6H
	DB	038H
	DB	0c6H
	DB	038H
	DB	0ceH
	DB	058H
	DB	0c6H
	DB	038H
	DB	0c6H
	DB	038H
	DB	0ceH
	DB	038H
	DB	0c6H
	DB	058H
	DB	0c6H
	DB	038H
	DB	0ceH
	DB	038H
	DB	0c6H
	DB	058H
	DB	0c6H
	DB	038H
	DB	0ceH
	DB	038H
	DB	0c6H
	DB	058H
	DB	0ceH
	DB	038H
	DB	0ceH
	DB	038H
	DB	0c6H
	DB	038H
	DB	0ceH
	DB	038H
	DB	0c6H
	DB	038H
	DB	0c6H
	DB	038H
	DB	0ceH
	DB	058H
	DB	0c6H
	DB	038H
	DB	0ceH
	DB	038H
	DB	0ceH
	DB	038H
	DB	0c6H
	DB	038H
	DB	0ceH
	DB	038H
	DB	0ceH
	DB	038H
	DB	0c6H
	DB	038H
	DB	0ceH
	DB	058H
	DB	0c6H
	DB	038H
	DB	0c6H
	DB	058H
	DB	0c6H
	DB	058H
	DB	0c6H
	DB	038H
	DB	0c6H
	DB	038H
	DB	0c6H
	DB	058H
	DB	0c6H
	DB	038H
	DB	0c6H
	DB	038H
	DB	0c6H
	DB	058H
	DB	0c6H
	DB	038H
	DB	0c6H
	DB	038H
	DB	0c6H
	DB	058H
	DB	0c6H
	DB	058H
	DB	0c6H
	DB	038H
	DB	0c6H
	DB	058H
	DB	0c6H
	DB	038H
	DB	0c6H
	DB	038H
	DB	0c6H
	DB	058H
	DB	0c6H
	DB	038H
	DB	0c6H
	DB	058H
	DB	0c6H
	DB	058H
	DB	0c6H
	DB	038H
	DB	0c6H
	DB	058H
	DB	0c6H
	DB	038H
	DB	0c6H
	DB	038H
	DB	0c6H
	DB	058H
	DB	0c6H
	DB	038H
	DB	0c6H
	DB	058H
	DB	0c6H
	DB	058H
	DB	0c6H
	DB	038H
	DB	0c6H
	DB	058H
	DB	0c6H
	DB	038H
	DB	0c6H
	DB	038H
	DB	0c6H
	DB	058H
	DB	0c6H
	DB	058H
	DB	0c6H
	DB	058H
	DB	0c6H
	DB	058H
	DB	0c6H
	DB	037H
	DB	0c6H
	DB	079H
	DB	0ceH
	DB	030H
	DB	084H
	DB	079H
	DB	0ceH
	DB	038H
	DB	0c6H
	DB	058H
	DB	0c6H
	DB	038H
	DB	0c6H
	DB	038H
	DB	0c6H
	DB	038H
	DB	0c6H
	DB	058H
	DB	0c6H
	DB	038H
	DB	0c6H
	DB	038H
	DB	0ceH
	DB	038H
	DB	0c6H
	DB	038H
	DB	0ceH
	DB	038H
	DB	0c6H
	DB	038H
	DB	0ceH
	DB	038H
	DB	0c6H
	DB	038H
	DB	0c6H
	DB	037H
	DB	0c6H
	DB	038H
	DB	0ceH
	DB	038H
	DB	0c6H
	DB	017H
	DB	0c6H
	DB	038H
	DB	0c6H
	DB	038H
	DB	0ceH
	DB	038H
	DB	0c6H
	DB	038H
	DB	0c6H
	DB	038H
	DB	0c6H
	DB	038H
	DB	0c6H
	DB	038H
	DB	0c6H
	DB	037H
	DB	0c6H
	DB	038H
	DB	0ceH
	DB	038H
	DB	0c6H
	DB	037H
	DB	0c6H
	DB	038H
	DB	0c6H
	DB	038H
	DB	0ceH
	DB	038H
	DB	0c6H
	DB	038H
	DB	0c6H
	DB	038H
	DB	0c6H
	DB	038H
	DB	0c6H
	DB	038H
	DB	0c6H
	DB	038H
	DB	0c6H
	DB	038H
	DB	0c6H
	DB	038H
	DB	0ceH
	DB	038H
	DB	0c6H
	DB	038H
	DB	0c6H
	DB	038H
	DB	0ceH
	DB	038H
	DB	0c6H
	DB	038H
	DB	0c6H
	DB	018H
	DB	0c6H
	DB	038H
	DB	0c6H
	DB	038H
	DB	0c6H
	DB	038H
	DB	0c6H
	DB	038H
	DB	0c6H
	DB	037H
	DB	0c6H
	DB	038H
	DB	0c6H
	DB	038H
	DB	0c6H
	DB	038H
	DB	0c6H
	DB	038H
	DB	0c6H
	DB	038H
	DB	0c6H
	DB	018H
	DB	0c6H
	DB	038H
	DB	0c6H
	DB	038H
	DB	0c6H
	DB	018H
	DB	0c6H
	DB	038H
	DB	0c6H
	DB	018H
	DB	0c6H
	DB	037H
	DB	0c6H
	DB	038H
	DB	0ceH
	DB	018H
	DB	0c6H
	DB	038H
	DB	0c6H
	DB	018H
	DB	0ceH
	DB	038H
	DB	0c6H
	DB	038H
	DB	0c6H
	DB	038H
	DB	0ceH
	DB	038H
	DB	0c6H
	DB	018H
	DB	0c6H
	DB	037H
	DB	0c6H
	DB	018H
	DB	0c6H
	DB	038H
	DB	0c6H
	DB	017H
	DB	0c6H
	DB	018H
	DB	0c6H
	DB	018H
	DB	0c6H
	DB	037H
	DB	0c6H
	DB	038H
	DB	0c6H
	DB	038H
	DB	0c6H
	DB	038H
	DB	0c6H
	DB	018H
	DB	0c6H
	DB	038H
	DB	0c6H
	DB	038H
	DB	0c6H
	DB	018H
	DB	0c6H
	DB	038H
	DB	0c6H
	DB	038H
	DB	0c6H
	DB	038H
	DB	0c6H
	DB	038H
	DB	0c6H
	DB	038H
	DB	0c6H
	DB	038H
	DB	0c6H
	DB	038H
	DB	0c6H
	DB	038H
	DB	0c6H
	DB	038H
	DB	0c6H
	DB	038H
	DB	0c6H
	DB	038H
	DB	0c6H
	DB	038H
	DB	0c6H
	DB	038H
	DB	0c6H
	DB	038H
	DB	0c6H
	DB	038H
	DB	0c6H
	DB	038H
	DB	0c6H
	DB	038H
	DB	0c6H
	DB	038H
	DB	0c6H
	DB	038H
	DB	0c6H
	DB	038H
	DB	0c6H
	DB	038H
	DB	0c6H
	DB	038H
	DB	0c6H
	DB	038H
	DB	0ceH
	DB	038H
	DB	0ceH
	DB	038H
	DB	0c6H
	DB	038H
	DB	0ceH
	DB	038H
	DB	0ceH
	DB	038H
	DB	0c6H
	DB	038H
	DB	0ceH
	DB	038H
	DB	0ceH
	DB	038H
	DB	0c6H
	DB	038H
	DB	0ceH
	DB	038H
	DB	0ceH
	DB	038H
	DB	0c6H
	DB	038H
	DB	0ceH
	DB	038H
	DB	0c6H
	DB	038H
	DB	0c6H
	DB	038H
	DB	0ceH
	DB	038H
	DB	0c6H
	DB	038H
	DB	0ceH
	DB	038H
	DB	0c6H
	DB	038H
	DB	0c6H
	DB	038H
	DB	0ceH
	DB	038H
	DB	0c6H
	DB	038H
	DB	0c6H
	DB	038H
	DB	0ceH
	DB	038H
	DB	0c6H
	DB	038H
	DB	0c6H
	DB	038H
	DB	0ceH
	DB	038H
	DB	0c6H
	DB	039H
	DB	0c6H
	DB	059H
	DB	0ceH
	DB	058H
	DB	0ceH
	DB	039H
	DB	0c6H
	DB	058H
	DB	0c6H
	DB	059H
	DB	0ceH
	DB	058H
	DB	0c6H
	DB	058H
	DB	0c6H
	DB	058H
	DB	0ceH
	DB	058H
	DB	0c6H
	DB	058H
	DB	0c6H
	DB	058H
	DB	0c6H
	DB	058H
	DB	0c6H
	DB	058H
	DB	0ceH
	DB	058H
	DB	0c6H
	DB	058H
	DB	0c6H
	DB	058H
	DB	0ceH
	DB	038H
	DB	0c6H
	DB	038H
	DB	0c6H
	DB	058H
	DB	0ceH
	DB	058H
	DB	0c6H
	DB	058H
	DB	0ceH
	DB	058H
	DB	0ceH
	DB	058H
	DB	0c6H
	DB	058H
	DB	0ceH
	DB	058H
	DB	0c6H
	DB	058H
	DB	0c6H
	DB	058H
	DB	0ceH
	DB	058H
	DB	0c6H
	DB	058H
	DB	0c6H
	DB	058H
	DB	0c6H
	DB	058H
	DB	0ceH
	DB	058H
	DB	0c6H
	DB	058H
	DB	0c6H
	DB	058H
	DB	0ceH
	DB	058H
	DB	0c6H
	DB	058H
	DB	0c6H
	DB	058H
	DB	0c6H
	DB	058H
	DB	0ceH
	DB	059H
	DB	0c6H
	DB	058H
	DB	0c6H
	DB	058H
	DB	0ceH
	DB	059H
	DB	0c6H
	DB	058H
	DB	0ceH
	DB	059H
	DB	0ceH
	DB	059H
	DB	0c6H
	DB	058H
	DB	0ceH
	DB	059H
	DB	0c6H
	DB	058H
	DB	0c6H
	DB	059H
	DB	0ceH
	DB	058H
	DB	0c6H
	DB	059H
	DB	0c6H
	DB	059H
	DB	0ceH
	DB	058H
	DB	0ceH
	DB	058H
	DB	0c6H
	DB	059H
	DB	0c6H
	DB	059H
	DB	0ceH
	DB	058H
	DB	0ceH
	DB	059H
	DB	0c6H
	DB	059H
	DB	0ceH
	DB	059H
	DB	0ceH
	DB	058H
	DB	0ceH
	DB	059H
	DB	0c6H
	DB	059H
	DB	0ceH
	DB	059H
	DB	0ceH
	DB	059H
	DB	0ceH
	DB	059H
	DB	0ceH
	DB	059H
	DB	0ceH
	DB	059H
	DB	0ceH
	DB	059H
	DB	0ceH
	DB	059H
	DB	0ceH
	DB	059H
	DB	0ceH
	DB	059H
	DB	0ceH
	DB	059H
	DB	0ceH
	DB	059H
	DB	0ceH
	DB	059H
	DB	0ceH
	DB	059H
	DB	0ceH
	DB	059H
	DB	0ceH
	DB	059H
	DB	0ceH
	DB	059H
	DB	0ceH
	DB	059H
	DB	0ceH
	DB	059H
	DB	0ceH
	DB	059H
	DB	0ceH
	DB	059H
	DB	0ceH
	DB	058H
	DB	0ceH
	DB	059H
	DB	0ceH
	DB	058H
	DB	0ceH
	DB	059H
	DB	0ceH
	DB	059H
	DB	0ceH
	DB	059H
	DB	0ceH
	DB	059H
	DB	0ceH
	DB	059H
	DB	0ceH
	DB	079H
	DB	0ceH
	DB	079H
	DB	0ceH
	DB	059H
	DB	0ceH
	DB	079H
	DB	0ceH
	DB	079H
	DB	0ceH
	DB	058H
	DB	0ceH
	DB	058H
	DB	0ceH
	DB	059H
	DB	0ceH
	DB	058H
	DB	0ceH
	DB	079H
	DB	0ceH
	DB	079H
	DB	0ceH
	DB	059H
	DB	0ceH
	DB	079H
	DB	0ceH
	DB	059H
	DB	0ceH
	DB	079H
	DB	0ceH
	DB	059H
	DB	0ceH
	DB	059H
	DB	0ceH
	DB	079H
	DB	0ceH
	DB	059H
	DB	0ceH
	DB	079H
	DB	0ceH
	DB	059H
	DB	0ceH
	DB	059H
	DB	0ceH
	DB	079H
	DB	0ceH
	DB	079H
	DB	0ceH
	DB	079H
	DB	0ceH
	DB	079H
	DB	0ceH
	DB	059H
	DB	0ceH
	DB	059H
	DB	0ceH
	DB	079H
	DB	0ceH
	DB	079H
	DB	0ceH
	DB	079H
	DB	0ceH
	DB	079H
	DB	0ceH
	DB	079H
	DB	0ceH
	DB	079H
	DB	0ceH
	DB	079H
	DB	0ceH
	DB	079H
	DB	0ceH
	DB	079H
	DB	0ceH
	DB	079H
	DB	0ceH
	DB	079H
	DB	0ceH
	DB	079H
	DB	0ceH
	DB	059H
	DB	0ceH
	DB	079H
	DB	0ceH
	DB	079H
	DB	0ceH
	DB	059H
	DB	0ceH
	DB	079H
	DB	0ceH
	DB	079H
	DB	0ceH
	DB	079H
	DB	0ceH
	DB	079H
	DB	0ceH
	DB	079H
	DB	0ceH
	DB	079H
	DB	0ceH
	DB	079H
	DB	0ceH
	DB	079H
	DB	0ceH
	DB	079H
	DB	0ceH
	DB	079H
	DB	0ceH
	DB	079H
	DB	0ceH
	DB	079H
	DB	0ceH
	DB	079H
	DB	0ceH
	DB	079H
	DB	0ceH
	DB	079H
	DB	0ceH
	DB	079H
	DB	0ceH
	DB	079H
	DB	0ceH
	DB	079H
	DB	0d6H
	DB	079H
	DB	0ceH
	DB	079H
	DB	0ceH
	DB	079H
	DB	0ceH
	DB	079H
	DB	0ceH
	DB	079H
	DB	0ceH
	DB	079H
	DB	0d6H
	DB	079H
	DB	0d6H
	DB	079H
	DB	0ceH
	DB	079H
	DB	0d6H
	DB	079H
	DB	0d6H
	DB	079H
	DB	0d6H
	DB	079H
	DB	0ceH
	DB	079H
	DB	0d6H
	DB	079H
	DB	0d6H
	DB	079H
	DB	0ceH
	DB	079H
	DB	0d6H
	DB	079H
	DB	0d6H
	DB	079H
	DB	0ceH
	DB	079H
	DB	0d6H
	DB	079H
	DB	0ceH
	DB	079H
	DB	0d6H
	DB	079H
	DB	0ceH
	DB	09aH
	DB	0d6H
	DB	079H
	DB	0d6H
	DB	079H
	DB	0ceH
	DB	09aH
	DB	0d6H
	DB	099H
	DB	0d6H
	DB	07aH
	DB	0d6H
	DB	099H
	DB	0ceH
	DB	09aH
	DB	0d6H
	DB	079H
	DB	0ceH
	DB	09aH
	DB	0ceH
	DB	079H
	DB	0d6H
	DB	09aH
	DB	0ceH
	DB	07aH
	DB	0ceH
	DB	099H
	DB	0d6H
	DB	07aH
	DB	0ceH
	DB	099H
	DB	0ceH
	DB	09aH
	DB	0d6H
	DB	099H
	DB	0d6H
	DB	09aH
	DB	0ceH
	DB	099H
	DB	0d6H
	DB	09aH
	DB	0d6H
	DB	099H
	DB	0ceH
	DB	09aH
	DB	0d6H
	DB	09aH
	DB	0d6H
	DB	099H
	DB	0ceH
	DB	09aH
	DB	0d6H
	DB	09aH
	DB	0d6H
	DB	099H
	DB	0d6H
	DB	09aH
	DB	0d6H
	DB	09aH
	DB	0d6H
	DB	09aH
	DB	0d6H
	DB	09aH
	DB	0ceH
	DB	09aH
	DB	0d6H
	DB	099H
	DB	0d6H
	DB	09aH
	DB	0ceH
	DB	099H
	DB	0d6H
	DB	079H
	DB	0d6H
	DB	099H
	DB	0ceH
	DB	099H
	DB	0d6H
	DB	079H
	DB	0d6H
	DB	09aH
	DB	0ceH
	DB	099H
	DB	0ceH
	DB	099H
	DB	0d6H
	DB	09aH
	DB	0d6H
	DB	099H
	DB	0ceH
	DB	07aH
	DB	0d6H
	DB	099H
	DB	0ceH
	DB	09aH
	DB	0d6H
	DB	079H
	DB	0d6H
	DB	09aH
	DB	0ceH
	DB	099H
	DB	0d6H
	DB	09aH
	DB	0d6H
	DB	099H
	DB	0ceH
	DB	099H
	DB	0ceH
	DB	09aH
	DB	0d6H
	DB	079H
	DB	0ceH
	DB	099H
	DB	0d6H
	DB	099H
	DB	0d6H
	DB	099H
	DB	0ceH
	DB	099H
	DB	0ceH
	DB	099H
	DB	0ceH
	DB	099H
	DB	0d6H
	DB	09aH
	DB	0ceH
	DB	099H
	DB	0d6H
	DB	099H
	DB	0ceH
	DB	09aH
	DB	0d6H
	DB	099H
	DB	0d6H
	DB	099H
	DB	0ceH
	DB	09aH
	DB	0d6H
	DB	099H
	DB	0d6H
	DB	099H
	DB	0ceH
	DB	099H
	DB	0ceH
	DB	09aH
	DB	0d6H
	DB	099H
	DB	0ceH
	DB	099H
	DB	0ceH
	DB	09aH
	DB	0ceH
	DB	099H
	DB	0d6H
	DB	099H
	DB	0d6H
	DB	09aH
	DB	0d6H
	DB	099H
	DB	0d6H
	DB	09aH
	DB	0d6H
	DB	099H
	DB	0d6H
	DB	099H
	DB	0d6H
	DB	09aH
	DB	0ceH
	DB	099H
	DB	0d6H
	DB	099H
	DB	0d6H
	DB	099H
	DB	0d6H
	DB	099H
	DB	0d6H
	DB	09aH
	DB	0d6H
	DB	09aH
	DB	0d6H
	DB	079H
	DB	0ceH
	DB	09aH
	DB	0d6H
	DB	079H
	DB	0d6H
	DB	079H
	DB	0ceH
	DB	09aH
	DB	0d6H
	DB	099H
	DB	0d6H
	DB	079H
	DB	0ceH
	DB	07aH
	DB	0d6H
	DB	099H
	DB	0d6H
	DB	079H
	DB	0d6H
	DB	07aH
	DB	0ceH
	DB	099H
	DB	0ceH
	DB	079H
	DB	0d6H
	DB	079H
	DB	0ceH
	DB	099H
	DB	0ceH
	DB	079H
	DB	0d6H
	DB	099H
	DB	0ceH
	DB	099H
	DB	0ceH
	DB	07aH
	DB	0d6H
	DB	099H
	DB	0ceH
	DB	09aH
	DB	0ceH
	DB	07aH
	DB	0d6H
	DB	079H
	DB	0ceH
	DB	099H
	DB	0d6H
	DB	079H
	DB	0ceH
	DB	079H
	DB	0ceH
	DB	079H
	DB	0ceH
	DB	038H
	DB	0c6H
	DB	038H
	DB	0c6H
	DB	038H
	DB	0c6H
	DB	058H
	DB	0c6H
	DB	038H
	DB	0ceH
	DB	038H
	DB	0c6H
	DB	038H
	DB	0c6H
	DB	038H
	DB	0c6H
	DB	038H
	DB	0c6H
	DB	038H
	DB	0c6H
	DB	058H
	DB	0ceH
	DB	038H
	DB	0c6H
	DB	038H
	DB	0c6H
	DB	058H
	DB	0ceH
	DB	038H
	DB	0c6H
	DB	038H
	DB	0c6H
	DB	038H
	DB	0ceH
	DB	058H
	DB	0c6H
	DB	058H
	DB	0c6H
	DB	038H
	DB	0ceH
	DB	038H
	DB	0c6H
	DB	038H
	DB	0c6H
	DB	038H
	DB	0ceH
	DB	058H
	DB	0c6H
	DB	038H
	DB	0c6H
	DB	038H
	DB	0c6H
	DB	058H
	DB	0ceH
	DB	038H
	DB	0c6H
	DB	038H
	DB	0c6H
	DB	038H
	DB	0ceH
	DB	038H
	DB	0c6H
	DB	038H
	DB	0c6H
	DB	058H
	DB	0c6H
	DB	038H
	DB	0c6H
	DB	038H
	DB	0c6H
	DB	058H
	DB	0c6H
	DB	038H
	DB	0c6H
	DB	038H
	DB	0ceH
	DB	038H
	DB	0c6H
	DB	058H
	DB	0c6H
	DB	038H
	DB	0c6H
	DB	038H
	DB	0c6H
	DB	058H
	DB	0c6H
	DB	058H
	DB	0ceH
	DB	038H
	DB	0c6H
	DB	058H
	DB	0c6H
	DB	058H
	DB	0c6H
	DB	038H
	DB	0c6H
	DB	058H
	DB	0ceH
	DB	058H
	DB	0c6H
	DB	038H
	DB	0c6H
	DB	058H
	DB	0c6H
	DB	038H
	DB	0ceH
	DB	058H
	DB	0c6H
	DB	058H
	DB	0c6H
	DB	058H
	DB	0c6H
	DB	038H
	DB	0c6H
	DB	058H
	DB	0ceH
	DB	038H
	DB	0c6H
	DB	038H
	DB	0c6H
	DB	058H
	DB	0c6H
	DB	058H
	DB	0ceH
	DB	038H
	DB	0c6H
	DB	058H
	DB	0c6H
	DB	058H
	DB	0c6H
	DB	038H
	DB	0c6H
	DB	038H
	DB	0ceH
	DB	058H
	DB	0c6H
	DB	038H
	DB	0c6H
	DB	058H
	DB	0c6H
	DB	058H
	DB	0c6H
	DB	038H
	DB	0c6H
	DB	038H
	DB	0c6H
	DB	037H
	DB	0c6H
	DB	038H
	DB	0c6H
	DB	058H
	DB	0c6H
	DB	038H
	DB	0c6H
	DB	038H
	DB	0c6H
	DB	079H
	DB	0ceH
	DB	02fH
	DB	084H
	DB	079H
	DB	0ceH
	DB	038H
	DB	0c6H
	DB	038H
	DB	0c6H
	DB	037H
	DB	0c6H
	DB	038H
	DB	0c6H
	DB	038H
	DB	0c6H
	DB	037H
	DB	0c6H
	DB	038H
	DB	0c6H
	DB	038H
	DB	0c6H
	DB	037H
	DB	0c6H
	DB	038H
	DB	0c6H
	DB	038H
	DB	0c6H
	DB	037H
	DB	0c6H
	DB	038H
	DB	0ceH
	DB	038H
	DB	0c6H
	DB	038H
	DB	0c6H
	DB	038H
	DB	0c6H
	DB	038H
	DB	0ceH
	DB	038H
	DB	0c6H
	DB	038H
	DB	0c6H
	DB	038H
	DB	0c6H
	DB	038H
	DB	0ceH
	DB	038H
	DB	0c6H
	DB	038H
	DB	0c6H
	DB	038H
	DB	0ceH
	DB	038H
	DB	0c6H
	DB	038H
	DB	0c6H
	DB	038H
	DB	0c6H
	DB	038H
	DB	0ceH
	DB	037H
	DB	0c6H
	DB	038H
	DB	0c6H
	DB	038H
	DB	0c6H
	DB	038H
	DB	0ceH
	DB	037H
	DB	0c6H
	DB	017H
	DB	0c6H
	DB	038H
	DB	0ceH
	DB	038H
	DB	0c6H
	DB	038H
	DB	0c6H
	DB	038H
	DB	0ceH
	DB	038H
	DB	0c6H
	DB	038H
	DB	0c6H
	DB	038H
	DB	0c6H
	DB	038H
	DB	0c6H
	DB	037H
	DB	0c6H
	DB	038H
	DB	0c6H
	DB	037H
	DB	0c6H
	DB	038H
	DB	0c6H
	DB	017H
	DB	0c6H
	DB	038H
	DB	0c6H
	DB	038H
	DB	0c6H
	DB	038H
	DB	0c6H
	DB	037H
	DB	0c6H
	DB	018H
	DB	0c6H
	DB	037H
	DB	0c6H
	DB	038H
	DB	0c6H
	DB	037H
	DB	0c6H
	DB	038H
	DB	0ceH
	DB	037H
	DB	0c6H
	DB	038H
	DB	0c6H
	DB	037H
	DB	0c6H
	DB	038H
	DB	0ceH
	DB	018H
	DB	0c6H
	DB	038H
	DB	0c6H
	DB	037H
	DB	0c6H
	DB	018H
	DB	0c6H
	DB	038H
	DB	0c6H
	DB	037H
	DB	0c6H
	DB	017H
	DB	0c6H
	DB	018H
	DB	0c6H
	DB	037H
	DB	0c6H
	DB	038H
	DB	0c6H
	DB	038H
	DB	0c6H
	DB	038H
	DB	0ceH
	DB	037H
	DB	0c6H
	DB	038H
	DB	0c6H
	DB	038H
	DB	0c6H
	DB	037H
	DB	0c6H
	DB	038H
	DB	0ceH
	DB	038H
	DB	0c6H
	DB	018H
	DB	0c6H
	DB	038H
	DB	0c6H
	DB	038H
	DB	0c6H
	DB	038H
	DB	0c6H
	DB	038H
	DB	0c6H
	DB	038H
	DB	0c6H
	DB	038H
	DB	0c6H
	DB	038H
	DB	0c6H
	DB	038H
	DB	0c6H
	DB	038H
	DB	0c6H
	DB	038H
	DB	0c6H
	DB	038H
	DB	0c6H
	DB	038H
	DB	0c6H
	DB	038H
	DB	0c6H
	DB	038H
	DB	0c6H
	DB	038H
	DB	0c6H
	DB	038H
	DB	0c6H
	DB	038H
	DB	0c6H
	DB	038H
	DB	0c6H
	DB	038H
	DB	0c6H
	DB	038H
	DB	0c6H
	DB	038H
	DB	0c6H
	DB	038H
	DB	0c6H
	DB	038H
	DB	0c6H
	DB	038H
	DB	0c6H
	DB	038H
	DB	0c6H
	DB	038H
	DB	0c6H
	DB	038H
	DB	0c6H
	DB	038H
	DB	0c6H
	DB	038H
	DB	0c6H
	DB	038H
	DB	0c6H
	DB	058H
	DB	0c6H
	DB	038H
	DB	0c6H
	DB	038H
	DB	0c6H
	DB	058H
	DB	0c6H
	DB	038H
	DB	0c6H
	DB	038H
	DB	0c6H
	DB	058H
	DB	0c6H
	DB	038H
	DB	0c6H
	DB	038H
	DB	0c6H
	DB	058H
	DB	0c6H
	DB	058H
	DB	0c6H
	DB	058H
	DB	0c6H
	DB	058H
	DB	0c6H
	DB	058H
	DB	0c6H
	DB	058H
	DB	0c6H
	DB	058H
	DB	0c6H
	DB	058H
	DB	0c6H
	DB	058H
	DB	0c6H
	DB	058H
	DB	0ceH
	DB	059H
	DB	0ceH
	DB	038H
	DB	0c6H
	DB	058H
	DB	0ceH
	DB	058H
	DB	0ceH
	DB	059H
	DB	0c6H
	DB	058H
	DB	0ceH
	DB	058H
	DB	0ceH
	DB	058H
	DB	0c6H
	DB	038H
	DB	0ceH
	DB	058H
	DB	0ceH
	DB	038H
	DB	0c6H
	DB	058H
	DB	0c6H
	DB	058H
	DB	0c6H
	DB	038H
	DB	0c6H
	DB	038H
	DB	0ceH
	DB	059H
	DB	0ceH
	DB	058H
	DB	0c6H
	DB	058H
	DB	0ceH
	DB	059H
	DB	0ceH
	DB	059H
	DB	0c6H
	DB	058H
	DB	0ceH
	DB	059H
	DB	0ceH
	DB	059H
	DB	0c6H
	DB	058H
	DB	0c6H
	DB	058H
	DB	0ceH
	DB	059H
	DB	0c6H
	DB	058H
	DB	0c6H
	DB	058H
	DB	0ceH
	DB	059H
	DB	0c6H
	DB	058H
	DB	0c6H
	DB	058H
	DB	0c6H
	DB	059H
	DB	0ceH
	DB	058H
	DB	0c6H
	DB	059H
	DB	0c6H
	DB	059H
	DB	0ceH
	DB	059H
	DB	0ceH
	DB	059H
	DB	0c6H
	DB	059H
	DB	0ceH
	DB	059H
	DB	0c6H
	DB	059H
	DB	0ceH
	DB	059H
	DB	0c6H
	DB	059H
	DB	0ceH
	DB	059H
	DB	0ceH
	DB	059H
	DB	0c6H
	DB	059H
	DB	0ceH
	DB	058H
	DB	0ceH
	DB	059H
	DB	0c6H
	DB	058H
	DB	0ceH
	DB	059H
	DB	0ceH
	DB	058H
	DB	0c6H
	DB	058H
	DB	0c6H
	DB	059H
	DB	0ceH
	DB	058H
	DB	0ceH
	DB	058H
	DB	0c6H
	DB	059H
	DB	0ceH
	DB	059H
	DB	0ceH
	DB	058H
	DB	0ceH
	DB	058H
	DB	0c6H
	DB	059H
	DB	0ceH
	DB	058H
	DB	0ceH
	DB	058H
	DB	0c6H
	DB	059H
	DB	0ceH
	DB	058H
	DB	0ceH
	DB	059H
	DB	0ceH
	DB	059H
	DB	0ceH
	DB	059H
	DB	0ceH
	DB	059H
	DB	0ceH
	DB	058H
	DB	0ceH
	DB	059H
	DB	0ceH
	DB	059H
	DB	0ceH
	DB	059H
	DB	0ceH
	DB	059H
	DB	0ceH
	DB	058H
	DB	0ceH
	DB	059H
	DB	0ceH
	DB	059H
	DB	0ceH
	DB	059H
	DB	0ceH
	DB	059H
	DB	0ceH
	DB	059H
	DB	0ceH
	DB	059H
	DB	0ceH
	DB	059H
	DB	0ceH
	DB	059H
	DB	0ceH
	DB	059H
	DB	0ceH
	DB	059H
	DB	0ceH
	DB	059H
	DB	0ceH
	DB	059H
	DB	0ceH
	DB	059H
	DB	0ceH
	DB	059H
	DB	0ceH
	DB	059H
	DB	0ceH
	DB	058H
	DB	0ceH
	DB	059H
	DB	0ceH
	DB	079H
	DB	0ceH
	DB	079H
	DB	0ceH
	DB	079H
	DB	0ceH
	DB	079H
	DB	0ceH
	DB	079H
	DB	0ceH
	DB	079H
	DB	0ceH
	DB	078H
	DB	0ceH
	DB	079H
	DB	0ceH
	DB	059H
	DB	0ceH
	DB	079H
	DB	0ceH
	DB	059H
	DB	0ceH
	DB	059H
	DB	0ceH
	DB	079H
	DB	0ceH
	DB	079H
	DB	0ceH
	DB	059H
	DB	0ceH
	DB	079H
	DB	0ceH
	DB	079H
	DB	0ceH
	DB	079H
	DB	0ceH
	DB	059H
	DB	0ceH
	DB	079H
	DB	0ceH
	DB	059H
	DB	0ceH
	DB	079H
	DB	0ceH
	DB	079H
	DB	0ceH
	DB	079H
	DB	0ceH
	DB	079H
	DB	0ceH
	DB	079H
	DB	0ceH
	DB	079H
	DB	0ceH
	DB	079H
	DB	0ceH
	DB	079H
	DB	0ceH
	DB	079H
	DB	0ceH
	DB	079H
	DB	0ceH
	DB	079H
	DB	0ceH
	DB	079H
	DB	0ceH
	DB	059H
	DB	0ceH
	DB	079H
	DB	0ceH
	DB	079H
	DB	0ceH
	DB	079H
	DB	0ceH
	DB	079H
	DB	0ceH
	DB	059H
	DB	0ceH
	DB	059H
	DB	0ceH
	DB	079H
	DB	0ceH
	DB	059H
	DB	0ceH
	DB	079H
	DB	0ceH
	DB	079H
	DB	0ceH
	DB	079H
	DB	0ceH
	DB	079H
	DB	0ceH
	DB	079H
	DB	0ceH
	DB	079H
	DB	0ceH
	DB	079H
	DB	0ceH
	DB	079H
	DB	0ceH
	DB	079H
	DB	0ceH
	DB	079H
	DB	0ceH
	DB	079H
	DB	0ceH
	DB	079H
	DB	0ceH
	DB	079H
	DB	0ceH
	DB	079H
	DB	0ceH
	DB	079H
	DB	0ceH
	DB	079H
	DB	0ceH
	DB	079H
	DB	0ceH
	DB	079H
	DB	0ceH
	DB	079H
	DB	0ceH
	DB	079H
	DB	0ceH
	DB	079H
	DB	0ceH
	DB	079H
	DB	0d6H
	DB	079H
	DB	0ceH
	DB	079H
	DB	0ceH
	DB	079H
	DB	0d6H
	DB	079H
	DB	0d6H
	DB	079H
	DB	0d6H
	DB	079H
	DB	0ceH
	DB	079H
	DB	0d6H
	DB	079H
	DB	0d6H
	DB	079H
	DB	0ceH
	DB	079H
	DB	0d6H
	DB	079H
	DB	0d6H
	DB	079H
	DB	0ceH
	DB	079H
	DB	0ceH
	DB	079H
	DB	0d6H
	DB	079H
	DB	0ceH
	DB	079H
	DB	0ceH
	DB	079H
	DB	0ceH
	DB	09aH
	DB	0d6H
	DB	099H
	DB	0d6H
	DB	07aH
	DB	0ceH
	DB	099H
	DB	0ceH
	DB	09aH
	DB	0d6H
	DB	09aH
	DB	0ceH
	DB	099H
	DB	0ceH
	DB	09aH
	DB	0d6H
	DB	09aH
	DB	0d6H
	DB	099H
	DB	0ceH
	DB	07aH
	DB	0d6H
	DB	099H
	DB	0d6H
	DB	09aH
	DB	0ceH
	DB	079H
	DB	0ceH
	DB	099H
	DB	0d6H
	DB	09aH
	DB	0ceH
	DB	079H
	DB	0ceH
	DB	079H
	DB	0ceH
	DB	09aH
	DB	0d6H
	DB	079H
	DB	0d6H
	DB	09aH
	DB	0d6H
	DB	09aH
	DB	0d6H
	DB	099H
	DB	0d6H
	DB	09aH
	DB	0d6H
	DB	099H
	DB	0d6H
	DB	09aH
	DB	0d6H
	DB	099H
	DB	0d6H
	DB	09aH
	DB	0d6H
	DB	079H
	DB	0d6H
	DB	099H
	DB	0ceH
	DB	09aH
	DB	0d6H
	DB	079H
	DB	0d6H
	DB	099H
	DB	0ceH
	DB	09aH
	DB	0d6H
	DB	079H
	DB	0d6H
	DB	099H
	DB	0ceH
	DB	079H
	DB	0d6H
	DB	09aH
	DB	0d6H
	DB	099H
	DB	0ceH
	DB	079H
	DB	0ceH
	DB	099H
	DB	0d6H
	DB	099H
	DB	0d6H
	DB	099H
	DB	0ceH
	DB	07aH
	DB	0d6H
	DB	099H
	DB	0d6H
	DB	09aH
	DB	0ceH
	DB	09aH
	DB	0d6H
	DB	099H
	DB	0ceH
	DB	07aH
	DB	0d6H
	DB	09aH
	DB	0ceH
	DB	099H
	DB	0ceH
	DB	07aH
	DB	0d6H
	DB	09aH
	DB	0d6H
	DB	09aH
	DB	0d6H
	DB	09aH
	DB	0d6H
	DB	099H
	DB	0ceH
	DB	09aH
	DB	0d6H
	DB	09aH
	DB	0d6H
	DB	09aH
	DB	0d6H
	DB	09aH
	DB	0d6H
	DB	09aH
	DB	0ceH
	DB	099H
	DB	0ceH
	DB	09aH
	DB	0ceH
	DB	09aH
	DB	0d6H
	DB	099H
	DB	0ceH
	DB	09aH
	DB	0d6H
	DB	099H
	DB	0ceH
	DB	09aH
	DB	0ceH
	DB	09aH
	DB	0d6H
	DB	09aH
	DB	0d6H
	DB	09aH
	DB	0ceH
	DB	09aH
	DB	0d6H
	DB	099H
	DB	0d6H
	DB	09aH
	DB	0ceH
	DB	09aH
	DB	0d6H
	DB	099H
	DB	0d6H
	DB	099H
	DB	0ceH
	DB	099H
	DB	0ceH
	DB	099H
	DB	0ceH
	DB	09aH
	DB	0ceH
	DB	099H
	DB	0d6H
	DB	099H
	DB	0ceH
	DB	099H
	DB	0ceH
	DB	099H
	DB	0d6H
	DB	099H
	DB	0ceH
	DB	099H
	DB	0ceH
	DB	099H
	DB	0d6H
	DB	099H
	DB	0ceH
	DB	099H
	DB	0ceH
	DB	09aH
	DB	0ceH
	DB	099H
	DB	0ceH
	DB	099H
	DB	0ceH
	DB	099H
	DB	0ceH
	DB	09aH
	DB	0ceH
	DB	099H
	DB	0ceH
	DB	099H
	DB	0ceH
	DB	099H
	DB	0d6H
	DB	09aH
	DB	0ceH
	DB	079H
	DB	0ceH
	DB	099H
	DB	0d6H
	DB	09aH
	DB	0d6H
	DB	099H
	DB	0ceH
	DB	09aH
	DB	0d6H
	DB	09aH
	DB	0d6H
	DB	09aH
	DB	0d6H
	DB	09aH
	DB	0d6H
	DB	099H
	DB	0d6H
	DB	09aH
	DB	0d6H
	DB	09aH
	DB	0ceH
	DB	099H
	DB	0d6H
	DB	09aH
	DB	0ceH
	DB	099H
	DB	0d6H
	DB	09aH
	DB	0d6H
	DB	09aH
	DB	0d6H
	DB	099H
	DB	0d6H
	DB	09aH
	DB	0d6H
	DB	09aH
	DB	0d6H
	DB	099H
	DB	0d6H
	DB	09aH
	DB	0d6H
	DB	09aH
	DB	0d6H
	DB	079H
	DB	0ceH
	DB	099H
	DB	0d6H
	DB	099H
	DB	0ceH
	DB	07aH
	DB	0ceH
	DB	099H
	DB	0d6H
	DB	099H
	DB	0d6H
	DB	079H
	DB	0ceH
	DB	079H
	DB	0ceH
	DB	079H
	DB	0ceH
	DB	038H
	DB	0c6H
	DB	038H
	DB	0ceH
	DB	038H
	DB	0c6H
	DB	038H
	DB	0c6H
	DB	058H
	DB	0ceH
	DB	038H
	DB	0c6H
	DB	038H
	DB	0c6H
	DB	038H
	DB	0ceH
	DB	038H
	DB	0c6H
	DB	038H
	DB	0c6H
	DB	038H
	DB	0c6H
	DB	038H
	DB	0c6H
	DB	058H
	DB	0c6H
	DB	038H
	DB	0ceH
	DB	038H
	DB	0c6H
	DB	038H
	DB	0ceH
	DB	058H
	DB	0c6H
	DB	038H
	DB	0c6H
	DB	058H
	DB	0c6H
	DB	038H
	DB	0ceH
	DB	038H
	DB	0c6H
	DB	058H
	DB	0ceH
	DB	038H
	DB	0c6H
	DB	038H
	DB	0c6H
	DB	038H
	DB	0ceH
	DB	038H
	DB	0c6H
	DB	058H
	DB	0c6H
	DB	038H
	DB	0ceH
	DB	058H
	DB	0c6H
	DB	058H
	DB	0ceH
	DB	038H
	DB	0c6H
	DB	038H
	DB	0ceH
	DB	038H
	DB	0c6H
	DB	038H
	DB	0ceH
	DB	058H
	DB	0ceH
	DB	038H
	DB	0c6H
	DB	038H
	DB	0c6H
	DB	058H
	DB	0ceH
	DB	038H
	DB	0c6H
	DB	058H
	DB	0c6H
	DB	058H
	DB	0c6H
	DB	038H
	DB	0c6H
	DB	038H
	DB	0c6H
	DB	058H
	DB	0c6H
	DB	038H
	DB	0c6H
	DB	038H
	DB	0ceH
	DB	058H
	DB	0c6H
	DB	038H
	DB	0c6H
	DB	058H
	DB	0c6H
	DB	038H
	DB	0c6H
	DB	058H
	DB	0c6H
	DB	038H
	DB	0c6H
	DB	038H
	DB	0c6H
	DB	038H
	DB	0c6H
	DB	058H
	DB	0ceH
	DB	038H
	DB	0c6H
	DB	058H
	DB	0c6H
	DB	058H
	DB	0c6H
	DB	038H
	DB	0c6H
	DB	038H
	DB	0c6H
	DB	058H
	DB	0c6H
	DB	038H
	DB	0c6H
	DB	038H
	DB	0c6H
	DB	058H
	DB	0ceH
	DB	058H
	DB	0c6H
	DB	038H
	DB	0c6H
	DB	058H
	DB	0c6H
	DB	038H
	DB	0c6H
	DB	038H
	DB	0c6H
	DB	058H
	DB	0ceH
	DB	038H
	DB	0c6H
	DB	058H
	DB	0c6H
	DB	038H
	DB	0c6H
	DB	038H
	DB	0c6H
	DB	038H
	DB	0c6H
	DB	038H
	DB	0c6H
	DB	058H
	DB	0c6H
	DB	038H
	DB	0c6H
	DB	079H
	DB	0ceH
	DB	02fH
	DB	084H
	DB	079H
	DB	0ceH
	DB	038H
	DB	0c6H
	DB	058H
	DB	0c6H
	DB	038H
	DB	0c6H
	DB	058H
	DB	0c6H
	DB	058H
	DB	0c6H
	DB	038H
	DB	0c6H
	DB	038H
	DB	0c6H
	DB	038H
	DB	0ceH
	DB	038H
	DB	0c6H
	DB	038H
	DB	0c6H
	DB	038H
	DB	0ceH
	DB	038H
	DB	0c6H
	DB	038H
	DB	0c6H
	DB	038H
	DB	0ceH
	DB	038H
	DB	0c6H
	DB	038H
	DB	0c6H
	DB	038H
	DB	0c6H
	DB	038H
	DB	0c6H
	DB	038H
	DB	0c6H
	DB	037H
	DB	0c6H
	DB	038H
	DB	0c6H
	DB	038H
	DB	0ceH
	DB	037H
	DB	0c6H
	DB	038H
	DB	0c6H
	DB	038H
	DB	0ceH
	DB	038H
	DB	0c6H
	DB	037H
	DB	0c6H
	DB	038H
	DB	0c6H
	DB	038H
	DB	0c6H
	DB	018H
	DB	0c6H
	DB	037H
	DB	0c6H
	DB	038H
	DB	0c6H
	DB	038H
	DB	0c6H
	DB	038H
	DB	0c6H
	DB	038H
	DB	0ceH
	DB	038H
	DB	0c6H
	DB	037H
	DB	0c6H
	DB	038H
	DB	0c6H
	DB	037H
	DB	0c6H
	DB	037H
	DB	0c6H
	DB	018H
	DB	0c6H
	DB	038H
	DB	0c6H
	DB	038H
	DB	0c6H
	DB	017H
	DB	0c6H
	DB	038H
	DB	0c6H
	DB	038H
	DB	0ceH
	DB	018H
	DB	0c6H
	DB	037H
	DB	0c6H
	DB	038H
	DB	0ceH
	DB	038H
	DB	0c6H
	DB	038H
	DB	0c6H
	DB	038H
	DB	0c6H
	DB	018H
	DB	0c6H
	DB	037H
	DB	0ceH
	DB	018H
	DB	0c6H
	DB	038H
	DB	0c6H
	DB	038H
	DB	0c6H
	DB	037H
	DB	0c6H
	DB	018H
	DB	0c6H
	DB	038H
	DB	0c6H
	DB	037H
	DB	0c6H
	DB	038H
	DB	0c6H
	DB	038H
	DB	0c6H
	DB	037H
	DB	0c6H
	DB	038H
	DB	0c6H
	DB	038H
	DB	0c6H
	DB	038H
	DB	0ceH
	DB	038H
	DB	0c6H
	DB	038H
	DB	0c6H
	DB	017H
	DB	0c6H
	DB	038H
	DB	0c6H
	DB	038H
	DB	0c6H
	DB	018H
	DB	0c6H
	DB	038H
	DB	0c6H
	DB	038H
	DB	0c6H
	DB	038H
	DB	0c6H
	DB	037H
	DB	0c6H
	DB	038H
	DB	0c6H
	DB	038H
	DB	0c6H
	DB	038H
	DB	0c6H
	DB	038H
	DB	0c6H
	DB	038H
	DB	0c6H
	DB	038H
	DB	0c6H
	DB	038H
	DB	0c6H
	DB	038H
	DB	0c6H
	DB	037H
	DB	0c6H
	DB	038H
	DB	0c6H
	DB	058H
	DB	0c6H
	DB	038H
	DB	0c6H
	DB	058H
	DB	0c6H
	DB	038H
	DB	0c6H
	DB	038H
	DB	0c6H
	DB	058H
	DB	0c6H
	DB	038H
	DB	0c6H
	DB	058H
	DB	0c6H
	DB	058H
	DB	0ceH
	DB	038H
	DB	0c6H
	DB	058H
	DB	0c6H
	DB	058H
	DB	0ceH
	DB	038H
	DB	0c6H
	DB	058H
	DB	0c6H
	DB	058H
	DB	0ceH
	DB	058H
	DB	0c6H
	DB	058H
	DB	0ceH
	DB	058H
	DB	0ceH
	DB	058H
	DB	0c6H
	DB	058H
	DB	0c6H
	DB	058H
	DB	0c6H
	DB	058H
	DB	0c6H
	DB	058H
	DB	0c6H
	DB	058H
	DB	0c6H
	DB	058H
	DB	0c6H
	DB	058H
	DB	0c6H
	DB	058H
	DB	0c6H
	DB	058H
	DB	0c6H
	DB	058H
	DB	0c6H
	DB	058H
	DB	0c6H
	DB	058H
	DB	0c6H
	DB	058H
	DB	0c6H
	DB	058H
	DB	0ceH
	DB	058H
	DB	0c6H
	DB	058H
	DB	0ceH
	DB	058H
	DB	0c6H
	DB	059H
	DB	0c6H
	DB	058H
	DB	0ceH
	DB	058H
	DB	0c6H
	DB	059H
	DB	0c6H
	DB	038H
	DB	0ceH
	DB	038H
	DB	0ceH
	DB	058H
	DB	0c6H
	DB	038H
	DB	0c6H
	DB	038H
	DB	0ceH
	DB	038H
	DB	0c6H
	DB	038H
	DB	0c6H
	DB	058H
	DB	0ceH
	DB	058H
	DB	0ceH
	DB	058H
	DB	0c6H
	DB	058H
	DB	0c6H
	DB	058H
	DB	0ceH
	DB	058H
	DB	0ceH
	DB	059H
	DB	0c6H
	DB	058H
	DB	0c6H
	DB	058H
	DB	0ceH
	DB	059H
	DB	0c6H
	DB	058H
	DB	0c6H
	DB	058H
	DB	0c6H
	DB	058H
	DB	0ceH
	DB	058H
	DB	0c6H
	DB	058H
	DB	0c6H
	DB	058H
	DB	0c6H
	DB	058H
	DB	0ceH
	DB	058H
	DB	0c6H
	DB	058H
	DB	0ceH
	DB	059H
	DB	0c6H
	DB	059H
	DB	0ceH
	DB	058H
	DB	0ceH
	DB	059H
	DB	0c6H
	DB	059H
	DB	0ceH
	DB	058H
	DB	0ceH
	DB	059H
	DB	0c6H
	DB	058H
	DB	0ceH
	DB	058H
	DB	0ceH
	DB	058H
	DB	0c6H
	DB	058H
	DB	0c6H
	DB	058H
	DB	0ceH
	DB	058H
	DB	0ceH
	DB	058H
	DB	0c6H
	DB	058H
	DB	0ceH
	DB	058H
	DB	0c6H
	DB	058H
	DB	0c6H
	DB	058H
	DB	0ceH
	DB	058H
	DB	0c6H
	DB	058H
	DB	0ceH
	DB	059H
	DB	0c6H
	DB	058H
	DB	0c6H
	DB	058H
	DB	0ceH
	DB	059H
	DB	0ceH
	DB	058H
	DB	0c6H
	DB	058H
	DB	0c6H
	DB	059H
	DB	0ceH
	DB	058H
	DB	0c6H
	DB	058H
	DB	0c6H
	DB	079H
	DB	0ceH
	DB	078H
	DB	0ceH
	DB	059H
	DB	0c6H
	DB	079H
	DB	0ceH
	DB	078H
	DB	0ceH
	DB	059H
	DB	0c6H
	DB	079H
	DB	0ceH
	DB	078H
	DB	0ceH
	DB	078H
	DB	0c6H
	DB	058H
	DB	0ceH
	DB	058H
	DB	0ceH
	DB	058H
	DB	0ceH
	DB	058H
	DB	0ceH
	DB	058H
	DB	0ceH
	DB	059H
	DB	0ceH
	DB	058H
	DB	0ceH
	DB	058H
	DB	0ceH
	DB	059H
	DB	0ceH
	DB	059H
	DB	0ceH
	DB	078H
	DB	0ceH
	DB	059H
	DB	0ceH
	DB	078H
	DB	0ceH
	DB	078H
	DB	0ceH
	DB	059H
	DB	0ceH
	DB	078H
	DB	0ceH
	DB	079H
	DB	0ceH
	DB	079H
	DB	0ceH
	DB	078H
	DB	0ceH
	DB	079H
	DB	0ceH
	DB	079H
	DB	0ceH
	DB	078H
	DB	0ceH
	DB	079H
	DB	0ceH
	DB	079H
	DB	0ceH
	DB	079H
	DB	0ceH
	DB	079H
	DB	0ceH
	DB	079H
	DB	0ceH
	DB	059H
	DB	0ceH
	DB	059H
	DB	0ceH
	DB	079H
	DB	0ceH
	DB	059H
	DB	0ceH
	DB	059H
	DB	0ceH
	DB	059H
	DB	0ceH
	DB	079H
	DB	0ceH
	DB	059H
	DB	0ceH
	DB	058H
	DB	0ceH
	DB	079H
	DB	0ceH
	DB	079H
	DB	0ceH
	DB	079H
	DB	0ceH
	DB	079H
	DB	0ceH
	DB	079H
	DB	0ceH
	DB	079H
	DB	0ceH
	DB	079H
	DB	0ceH
	DB	079H
	DB	0ceH
	DB	079H
	DB	0ceH
	DB	079H
	DB	0ceH
	DB	079H
	DB	0ceH
	DB	079H
	DB	0ceH
	DB	079H
	DB	0ceH
	DB	079H
	DB	0ceH
	DB	079H
	DB	0ceH
	DB	079H
	DB	0ceH
	DB	079H
	DB	0ceH
	DB	059H
	DB	0ceH
	DB	079H
	DB	0ceH
	DB	079H
	DB	0ceH
	DB	079H
	DB	0ceH
	DB	079H
	DB	0ceH
	DB	079H
	DB	0ceH
	DB	059H
	DB	0ceH
	DB	079H
	DB	0ceH
	DB	079H
	DB	0ceH
	DB	079H
	DB	0ceH
	DB	079H
	DB	0ceH
	DB	079H
	DB	0ceH
	DB	079H
	DB	0ceH
	DB	079H
	DB	0ceH
	DB	079H
	DB	0ceH
	DB	079H
	DB	0ceH
	DB	079H
	DB	0ceH
	DB	079H
	DB	0d6H
	DB	079H
	DB	0ceH
	DB	079H
	DB	0ceH
	DB	079H
	DB	0d6H
	DB	079H
	DB	0ceH
	DB	079H
	DB	0ceH
	DB	079H
	DB	0ceH
	DB	079H
	DB	0ceH
	DB	079H
	DB	0ceH
	DB	079H
	DB	0ceH
	DB	079H
	DB	0d6H
	DB	079H
	DB	0ceH
	DB	079H
	DB	0ceH
	DB	079H
	DB	0d6H
	DB	079H
	DB	0d6H
	DB	079H
	DB	0ceH
	DB	079H
	DB	0d6H
	DB	079H
	DB	0d6H
	DB	079H
	DB	0ceH
	DB	079H
	DB	0d6H
	DB	079H
	DB	0d6H
	DB	079H
	DB	0ceH
	DB	079H
	DB	0ceH
	DB	079H
	DB	0d6H
	DB	079H
	DB	0ceH
	DB	07aH
	DB	0ceH
	DB	079H
	DB	0ceH
	DB	079H
	DB	0ceH
	DB	07aH
	DB	0ceH
	DB	079H
	DB	0d6H
	DB	09aH
	DB	0d6H
	DB	07aH
	DB	0d6H
	DB	099H
	DB	0ceH
	DB	09aH
	DB	0d6H
	DB	07aH
	DB	0ceH
	DB	09aH
	DB	0d6H
	DB	099H
	DB	0d6H
	DB	07aH
	DB	0ceH
	DB	099H
	DB	0ceH
	DB	079H
	DB	0d6H
	DB	07aH
	DB	0ceH
	DB	099H
	DB	0d6H
	DB	079H
	DB	0d6H
	DB	07aH
	DB	0ceH
	DB	079H
	DB	0ceH
	DB	079H
	DB	0d6H
	DB	09aH
	DB	0d6H
	DB	09aH
	DB	0ceH
	DB	099H
	DB	0d6H
	DB	09aH
	DB	0d6H
	DB	09aH
	DB	0ceH
	DB	099H
	DB	0d6H
	DB	09aH
	DB	0d6H
	DB	09aH
	DB	0d6H
	DB	099H
	DB	0d6H
	DB	09aH
	DB	0d6H
	DB	09aH
	DB	0ceH
	DB	099H
	DB	0ceH
	DB	099H
	DB	0d6H
	DB	09aH
	DB	0ceH
	DB	099H
	DB	0ceH
	DB	079H
	DB	0d6H
	DB	09aH
	DB	0ceH
	DB	099H
	DB	0d6H
	DB	09aH
	DB	0ceH
	DB	079H
	DB	0d6H
	DB	09aH
	DB	0ceH
	DB	09aH
	DB	0d6H
	DB	079H
	DB	0d6H
	DB	09aH
	DB	0ceH
	DB	09aH
	DB	0ceH
	DB	079H
	DB	0d6H
	DB	09aH
	DB	0d6H
	DB	09aH
	DB	0ceH
	DB	09aH
	DB	0d6H
	DB	09aH
	DB	0d6H
	DB	09aH
	DB	0d6H
	DB	09aH
	DB	0d6H
	DB	09aH
	DB	0d6H
	DB	09aH
	DB	0ceH
	DB	09aH
	DB	0d6H
	DB	099H
	DB	0d6H
	DB	09aH
	DB	0d6H
	DB	09aH
	DB	0d6H
	DB	099H
	DB	0d6H
	DB	09aH
	DB	0d6H
	DB	09aH
	DB	0d6H
	DB	09aH
	DB	0d6H
	DB	09aH
	DB	0d6H
	DB	099H
	DB	0d6H
	DB	099H
	DB	0ceH
	DB	099H
	DB	0ceH
	DB	099H
	DB	0ceH
	DB	099H
	DB	0d6H
	DB	099H
	DB	0ceH
	DB	099H
	DB	0ceH
	DB	099H
	DB	0ceH
	DB	099H
	DB	0ceH
	DB	09aH
	DB	0d6H
	DB	09aH
	DB	0d6H
	DB	099H
	DB	0ceH
	DB	09aH
	DB	0d6H
	DB	099H
	DB	0d6H
	DB	099H
	DB	0ceH
	DB	099H
	DB	0d6H
	DB	099H
	DB	0ceH
	DB	099H
	DB	0d6H
	DB	099H
	DB	0d6H
	DB	099H
	DB	0ceH
	DB	099H
	DB	0d6H
	DB	09aH
	DB	0ceH
	DB	099H
	DB	0ceH
	DB	099H
	DB	0d6H
	DB	09aH
	DB	0ceH
	DB	09aH
	DB	0d6H
	DB	099H
	DB	0d6H
	DB	09aH
	DB	0ceH
	DB	099H
	DB	0d6H
	DB	09aH
	DB	0d6H
	DB	09aH
	DB	0ceH
	DB	09aH
	DB	0d6H
	DB	09aH
	DB	0d6H
	DB	09aH
	DB	0ceH
	DB	09aH
	DB	0d6H
	DB	09aH
	DB	0d6H
	DB	099H
	DB	0d6H
	DB	09aH
	DB	0ceH
	DB	099H
	DB	0d6H
	DB	09aH
	DB	0d6H
	DB	099H
	DB	0ceH
	DB	099H
	DB	0ceH
	DB	099H
	DB	0d6H
	DB	09aH
	DB	0ceH
	DB	099H
	DB	0ceH
	DB	099H
	DB	0d6H
	DB	079H
	DB	0d6H
	DB	099H
	DB	0ceH
	DB	099H
	DB	0d6H
	DB	079H
	DB	0ceH
	DB	099H
	DB	0d6H
	DB	099H
	DB	0ceH
	DB	099H
	DB	0ceH
	DB	099H
	DB	0ceH
	DB	099H
	DB	0d6H
	DB	099H
	DB	0ceH
	DB	099H
	DB	0d6H
	DB	099H
	DB	0d6H
	DB	099H
	DB	0ceH
	DB	099H
	DB	0d6H
	DB	099H
	DB	0ceH
	DB	099H
	DB	0ceH
	DB	099H
	DB	0d6H
	DB	099H
	DB	0ceH
	DB	099H
	DB	0ceH
	DB	099H
	DB	0d6H
	DB	079H
	DB	0ceH
	DB	099H
	DB	0d6H
	DB	099H
	DB	0d6H
	DB	099H
	DB	0d6H
	DB	099H
	DB	0d6H
	DB	099H
	DB	0d6H
	DB	099H
	DB	0d6H
	DB	07aH
	DB	0ceH
	DB	099H
	DB	0d6H
	DB	079H
	DB	0ceH
	DB	079H
	DB	0ceH
	DB	079H
	DB	0d6H
	DB	038H
	DB	0c6H
	DB	038H
	DB	0ceH
	DB	038H
	DB	0ceH
	DB	038H
	DB	0c6H
	DB	038H
	DB	0c6H
	DB	058H
	DB	0ceH
	DB	038H
	DB	0ceH
	DB	038H
	DB	0c6H
	DB	058H
	DB	0ceH
	DB	038H
	DB	0ceH
	DB	038H
	DB	0c6H
	DB	058H
	DB	0c6H
	DB	038H
	DB	0ceH
	DB	038H
	DB	0c6H
	DB	038H
	DB	0c6H
	DB	058H
	DB	0ceH
	DB	038H
	DB	0c6H
	DB	038H
	DB	0ceH
	DB	058H
	DB	0c6H
	DB	038H
	DB	0c6H
	DB	038H
	DB	0ceH
	DB	038H
	DB	0c6H
	DB	058H
	DB	0c6H
	DB	038H
	DB	0ceH
	DB	038H
	DB	0ceH
	DB	058H
	DB	0c6H
	DB	038H
	DB	0c6H
	DB	038H
	DB	0ceH
	DB	038H
	DB	0c6H
	DB	038H
	DB	0c6H
	DB	038H
	DB	0ceH
	DB	058H
	DB	0c6H
	DB	038H
	DB	0c6H
	DB	038H
	DB	0ceH
	DB	038H
	DB	0c6H
	DB	038H
	DB	0c6H
	DB	038H
	DB	0ceH
	DB	038H
	DB	0c6H
	DB	038H
	DB	0ceH
	DB	058H
	DB	0c6H
	DB	058H
	DB	0c6H
	DB	038H
	DB	0ceH
	DB	058H
	DB	0c6H
	DB	058H
	DB	0c6H
	DB	038H
	DB	0c6H
	DB	058H
	DB	0c6H
	DB	038H
	DB	0c6H
	DB	058H
	DB	0c6H
	DB	038H
	DB	0c6H
	DB	058H
	DB	0ceH
	DB	038H
	DB	0c6H
	DB	058H
	DB	0c6H
	DB	058H
	DB	0c6H
	DB	038H
	DB	0c6H
	DB	038H
	DB	0c6H
	DB	058H
	DB	0c6H
	DB	038H
	DB	0c6H
	DB	058H
	DB	0c6H
	DB	058H
	DB	0ceH
	DB	038H
	DB	0c6H
	DB	058H
	DB	0c6H
	DB	058H
	DB	0c6H
	DB	038H
	DB	0c6H
	DB	038H
	DB	0c6H
	DB	038H
	DB	0c6H
	DB	058H
	DB	0c6H
	DB	058H
	DB	0c6H
	DB	038H
	DB	0c6H
	DB	058H
	DB	0c6H
	DB	038H
	DB	0c6H
	DB	058H
	DB	0c6H
	DB	058H
	DB	0c6H
	DB	038H
	DB	0c6H
	DB	038H
	DB	0c6H
	DB	058H
	DB	0c6H
	DB	038H
	DB	0c6H
	DB	058H
	DB	0c6H
	DB	037H
	DB	0c6H
	DB	079H
	DB	0ceH
	DB	010H
	DB	084H
	DB	079H
	DB	0ceH
	DB	038H
	DB	0c6H
	DB	038H
	DB	0c6H
	DB	038H
	DB	0c6H
	DB	038H
	DB	0c6H
	DB	038H
	DB	0c6H
	DB	038H
	DB	0c6H
	DB	037H
	DB	0c6H
	DB	038H
	DB	0c6H
	DB	038H
	DB	0ceH
	DB	038H
	DB	0c6H
	DB	038H
	DB	0c6H
	DB	038H
	DB	0c6H
	DB	038H
	DB	0c6H
	DB	037H
	DB	0c6H
	DB	038H
	DB	0ceH
	DB	038H
	DB	0c6H
	DB	037H
	DB	0c6H
	DB	038H
	DB	0ceH
	DB	038H
	DB	0ceH
	DB	038H
	DB	0c6H
	DB	038H
	DB	0c6H
	DB	038H
	DB	0c6H
	DB	038H
	DB	0c6H
	DB	038H
	DB	0c6H
	DB	038H
	DB	0c6H
	DB	038H
	DB	0ceH
	DB	038H
	DB	0c6H
	DB	038H
	DB	0c6H
	DB	038H
	DB	0c6H
	DB	038H
	DB	0c6H
	DB	038H
	DB	0c6H
	DB	038H
	DB	0c6H
	DB	038H
	DB	0c6H
	DB	038H
	DB	0c6H
	DB	038H
	DB	0c6H
	DB	038H
	DB	0c6H
	DB	038H
	DB	0c6H
	DB	038H
	DB	0c6H
	DB	038H
	DB	0c6H
	DB	038H
	DB	0c6H
	DB	037H
	DB	0c6H
	DB	038H
	DB	0c6H
	DB	038H
	DB	0c6H
	DB	038H
	DB	0c6H
	DB	038H
	DB	0c6H
	DB	038H
	DB	0c6H
	DB	038H
	DB	0c6H
	DB	018H
	DB	0c6H
	DB	037H
	DB	0c6H
	DB	038H
	DB	0c6H
	DB	038H
	DB	0c6H
	DB	037H
	DB	0c6H
	DB	038H
	DB	0c6H
	DB	038H
	DB	0c6H
	DB	018H
	DB	0c6H
	DB	038H
	DB	0c6H
	DB	038H
	DB	0c6H
	DB	038H
	DB	0c6H
	DB	038H
	DB	0c6H
	DB	018H
	DB	0c6H
	DB	037H
	DB	0c6H
	DB	038H
	DB	0ceH
	DB	018H
	DB	0c6H
	DB	038H
	DB	0c6H
	DB	018H
	DB	0ceH
	DB	038H
	DB	0c6H
	DB	037H
	DB	0c6H
	DB	038H
	DB	0c6H
	DB	018H
	DB	0c6H
	DB	038H
	DB	0ceH
	DB	037H
	DB	0c6H
	DB	018H
	DB	0c6H
	DB	037H
	DB	0c6H
	DB	018H
	DB	0ceH
	DB	038H
	DB	0c6H
	DB	017H
	DB	0c6H
	DB	018H
	DB	0c6H
	DB	038H
	DB	0c6H
	DB	037H
	DB	0c6H
	DB	038H
	DB	0c6H
	DB	038H
	DB	0c6H
	DB	058H
	DB	0c6H
	DB	058H
	DB	0c6H
	DB	058H
	DB	0c6H
	DB	058H
	DB	0c6H
	DB	058H
	DB	0c6H
	DB	058H
	DB	0c6H
	DB	038H
	DB	0c6H
	DB	058H
	DB	0c6H
	DB	058H
	DB	0c6H
	DB	038H
	DB	0c6H
	DB	058H
	DB	0c6H
	DB	058H
	DB	0c6H
	DB	038H
	DB	0c6H
	DB	058H
	DB	0c6H
	DB	058H
	DB	0c6H
	DB	038H
	DB	0c6H
	DB	058H
	DB	0ceH
	DB	058H
	DB	0c6H
	DB	058H
	DB	0c6H
	DB	058H
	DB	0ceH
	DB	058H
	DB	0c6H
	DB	058H
	DB	0c6H
	DB	058H
	DB	0c6H
	DB	058H
	DB	0c6H
	DB	058H
	DB	0ceH
	DB	058H
	DB	0c6H
	DB	058H
	DB	0ceH
	DB	058H
	DB	0ceH
	DB	058H
	DB	0c6H
	DB	058H
	DB	0ceH
	DB	058H
	DB	0c6H
	DB	058H
	DB	0ceH
	DB	058H
	DB	0c6H
	DB	058H
	DB	0ceH
	DB	058H
	DB	0c6H
	DB	058H
	DB	0ceH
	DB	038H
	DB	0c6H
	DB	058H
	DB	0ceH
	DB	038H
	DB	0c6H
	DB	058H
	DB	0c6H
	DB	038H
	DB	0c6H
	DB	058H
	DB	0ceH
	DB	038H
	DB	0c6H
	DB	058H
	DB	0c6H
	DB	058H
	DB	0ceH
	DB	058H
	DB	0c6H
	DB	059H
	DB	0c6H
	DB	058H
	DB	0c6H
	DB	058H
	DB	0c6H
	DB	059H
	DB	0ceH
	DB	059H
	DB	0c6H
	DB	058H
	DB	0c6H
	DB	058H
	DB	0c6H
	DB	059H
	DB	0c6H
	DB	059H
	DB	0ceH
	DB	058H
	DB	0c6H
	DB	059H
	DB	0c6H
	DB	058H
	DB	0c6H
	DB	058H
	DB	0ceH
	DB	059H
	DB	0c6H
	DB	058H
	DB	0c6H
	DB	058H
	DB	0ceH
	DB	059H
	DB	0ceH
	DB	058H
	DB	0c6H
	DB	059H
	DB	0ceH
	DB	059H
	DB	0ceH
	DB	058H
	DB	0c6H
	DB	059H
	DB	0ceH
	DB	059H
	DB	0ceH
	DB	058H
	DB	0c6H
	DB	058H
	DB	0c6H
	DB	059H
	DB	0ceH
	DB	058H
	DB	0ceH
	DB	058H
	DB	0c6H
	DB	058H
	DB	0c6H
	DB	079H
	DB	0ceH
	DB	058H
	DB	0ceH
	DB	059H
	DB	0ceH
	DB	058H
	DB	0c6H
	DB	059H
	DB	0c6H
	DB	058H
	DB	0ceH
	DB	059H
	DB	0c6H
	DB	058H
	DB	0ceH
	DB	078H
	DB	0c6H
	DB	059H
	DB	0c6H
	DB	058H
	DB	0ceH
	DB	079H
	DB	0ceH
	DB	079H
	DB	0ceH
	DB	078H
	DB	0ceH
	DB	058H
	DB	0c6H
	DB	059H
	DB	0ceH
	DB	058H
	DB	0c6H
	DB	058H
	DB	0ceH
	DB	079H
	DB	0c6H
	DB	058H
	DB	0c6H
	DB	058H
	DB	0ceH
	DB	079H
	DB	0ceH
	DB	079H
	DB	0ceH
	DB	079H
	DB	0ceH
	DB	078H
	DB	0ceH
	DB	079H
	DB	0c6H
	DB	058H
	DB	0ceH
	DB	059H
	DB	0ceH
	DB	059H
	DB	0ceH
	DB	059H
	DB	0ceH
	DB	059H
	DB	0ceH
	DB	059H
	DB	0ceH
	DB	059H
	DB	0ceH
	DB	059H
	DB	0ceH
	DB	059H
	DB	0ceH
	DB	059H
	DB	0ceH
	DB	059H
	DB	0ceH
	DB	059H
	DB	0c6H
	DB	079H
	DB	0ceH
	DB	079H
	DB	0ceH
	DB	079H
	DB	0ceH
	DB	078H
	DB	0ceH
	DB	079H
	DB	0ceH
	DB	079H
	DB	0ceH
	DB	079H
	DB	0ceH
	DB	079H
	DB	0ceH
	DB	059H
	DB	0ceH
	DB	079H
	DB	0ceH
	DB	079H
	DB	0ceH
	DB	059H
	DB	0ceH
	DB	079H
	DB	0ceH
	DB	079H
	DB	0ceH
	DB	059H
	DB	0ceH
	DB	079H
	DB	0ceH
	DB	059H
	DB	0ceH
	DB	079H
	DB	0ceH
	DB	059H
	DB	0ceH
	DB	059H
	DB	0ceH
	DB	079H
	DB	0ceH
	DB	059H
	DB	0ceH
	DB	059H
	DB	0ceH
	DB	079H
	DB	0ceH
	DB	059H
	DB	0ceH
	DB	078H
	DB	0ceH
	DB	059H
	DB	0ceH
	DB	079H
	DB	0ceH
	DB	058H
	DB	0ceH
	DB	079H
	DB	0ceH
	DB	059H
	DB	0ceH
	DB	079H
	DB	0ceH
	DB	079H
	DB	0ceH
	DB	079H
	DB	0ceH
	DB	079H
	DB	0ceH
	DB	079H
	DB	0ceH
	DB	059H
	DB	0ceH
	DB	079H
	DB	0ceH
	DB	079H
	DB	0ceH
	DB	059H
	DB	0ceH
	DB	079H
	DB	0ceH
	DB	059H
	DB	0ceH
	DB	079H
	DB	0ceH
	DB	079H
	DB	0ceH
	DB	059H
	DB	0ceH
	DB	079H
	DB	0ceH
	DB	079H
	DB	0ceH
	DB	079H
	DB	0ceH
	DB	059H
	DB	0ceH
	DB	079H
	DB	0ceH
	DB	079H
	DB	0ceH
	DB	059H
	DB	0ceH
	DB	079H
	DB	0ceH
	DB	059H
	DB	0ceH
	DB	079H
	DB	0ceH
	DB	079H
	DB	0ceH
	DB	079H
	DB	0ceH
	DB	079H
	DB	0ceH
	DB	079H
	DB	0ceH
	DB	079H
	DB	0ceH
	DB	079H
	DB	0ceH
	DB	079H
	DB	0ceH
	DB	079H
	DB	0ceH
	DB	079H
	DB	0ceH
	DB	079H
	DB	0d6H
	DB	079H
	DB	0ceH
	DB	079H
	DB	0ceH
	DB	079H
	DB	0d6H
	DB	079H
	DB	0ceH
	DB	079H
	DB	0ceH
	DB	079H
	DB	0d6H
	DB	079H
	DB	0ceH
	DB	079H
	DB	0d6H
	DB	079H
	DB	0d6H
	DB	079H
	DB	0d6H
	DB	079H
	DB	0ceH
	DB	079H
	DB	0d6H
	DB	079H
	DB	0d6H
	DB	099H
	DB	0d6H
	DB	079H
	DB	0ceH
	DB	079H
	DB	0ceH
	DB	079H
	DB	0d6H
	DB	079H
	DB	0ceH
	DB	079H
	DB	0ceH
	DB	079H
	DB	0ceH
	DB	079H
	DB	0d6H
	DB	079H
	DB	0ceH
	DB	079H
	DB	0ceH
	DB	079H
	DB	0d6H
	DB	07aH
	DB	0ceH
	DB	079H
	DB	0ceH
	DB	099H
	DB	0d6H
	DB	07aH
	DB	0ceH
	DB	079H
	DB	0d6H
	DB	099H
	DB	0ceH
	DB	09aH
	DB	0d6H
	DB	099H
	DB	0ceH
	DB	079H
	DB	0ceH
	DB	07aH
	DB	0ceH
	DB	099H
	DB	0d6H
	DB	079H
	DB	0d6H
	DB	099H
	DB	0ceH
	DB	079H
	DB	0ceH
	DB	09aH
	DB	0d6H
	DB	079H
	DB	0d6H
	DB	099H
	DB	0ceH
	DB	09aH
	DB	0d6H
	DB	079H
	DB	0ceH
	DB	09aH
	DB	0d6H
	DB	099H
	DB	0d6H
	DB	09aH
	DB	0d6H
	DB	09aH
	DB	0d6H
	DB	099H
	DB	0ceH
	DB	099H
	DB	0d6H
	DB	09aH
	DB	0ceH
	DB	079H
	DB	0d6H
	DB	099H
	DB	0d6H
	DB	09aH
	DB	0ceH
	DB	079H
	DB	0d6H
	DB	09aH
	DB	0d6H
	DB	099H
	DB	0ceH
	DB	07aH
	DB	0d6H
	DB	099H
	DB	0d6H
	DB	09aH
	DB	0ceH
	DB	079H
	DB	0d6H
	DB	09aH
	DB	0d6H
	DB	09aH
	DB	0ceH
	DB	09aH
	DB	0d6H
	DB	09aH
	DB	0d6H
	DB	09aH
	DB	0d6H
	DB	09aH
	DB	0d6H
	DB	099H
	DB	0d6H
	DB	09aH
	DB	0d6H
	DB	09aH
	DB	0d6H
	DB	09aH
	DB	0d6H
	DB	099H
	DB	0d6H
	DB	09aH
	DB	0d6H
	DB	09aH
	DB	0d6H
	DB	099H
	DB	0d6H
	DB	09aH
	DB	0d6H
	DB	09aH
	DB	0d6H
	DB	099H
	DB	0ceH
	DB	099H
	DB	0d6H
	DB	09aH
	DB	0d6H
	DB	09aH
	DB	0d6H
	DB	099H
	DB	0ceH
	DB	09aH
	DB	0d6H
	DB	09aH
	DB	0d6H
	DB	099H
	DB	0ceH
	DB	09aH
	DB	0d6H
	DB	09aH
	DB	0d6H
	DB	099H
	DB	0ceH
	DB	09aH
	DB	0d6H
	DB	099H
	DB	0d6H
	DB	09aH
	DB	0d6H
	DB	09aH
	DB	0d6H
	DB	09aH
	DB	0d6H
	DB	099H
	DB	0ceH
	DB	099H
	DB	0d6H
	DB	09aH
	DB	0d6H
	DB	09aH
	DB	0ceH
	DB	099H
	DB	0d6H
	DB	099H
	DB	0d6H
	DB	099H
	DB	0ceH
	DB	099H
	DB	0d6H
	DB	09aH
	DB	0d6H
	DB	0baH
	DB	0ceH
	DB	099H
	DB	0ceH
	DB	09aH
	DB	0d6H
	DB	0b9H
	DB	0ceH
	DB	09aH
	DB	0ceH
	DB	09aH
	DB	0d6H
	DB	099H
	DB	0d6H
	DB	099H
	DB	0d6H
	DB	09aH
	DB	0d6H
	DB	099H
	DB	0ceH
	DB	099H
	DB	0ceH
	DB	09aH
	DB	0d6H
	DB	099H
	DB	0d6H
	DB	099H
	DB	0ceH
	DB	0b9H
	DB	0ceH
	DB	099H
	DB	0d6H
	DB	09aH
	DB	0ceH
	DB	0b9H
	DB	0d6H
	DB	099H
	DB	0ceH
	DB	099H
	DB	0ceH
	DB	0b9H
	DB	0d6H
	DB	099H
	DB	0ceH
	DB	099H
	DB	0d6H
	DB	099H
	DB	0ceH
	DB	099H
	DB	0ceH
	DB	099H
	DB	0d6H
	DB	09aH
	DB	0ceH
	DB	099H
	DB	0d6H
	DB	099H
	DB	0ceH
	DB	09aH
	DB	0d6H
	DB	09aH
	DB	0d6H
	DB	099H
	DB	0d6H
	DB	09aH
	DB	0d6H
	DB	099H
	DB	0d6H
	DB	09aH
	DB	0d6H
	DB	09aH
	DB	0d6H
	DB	099H
	DB	0d6H
	DB	09aH
	DB	0d6H
	DB	09aH
	DB	0d6H
	DB	099H
	DB	0d6H
	DB	09aH
	DB	0d6H
	DB	099H
	DB	0d6H
	DB	099H
	DB	0d6H
	DB	099H
	DB	0d6H
	DB	09aH
	DB	0d6H
	DB	099H
	DB	0d6H
	DB	099H
	DB	0ceH
	DB	09aH
	DB	0d6H
	DB	099H
	DB	0d6H
	DB	09aH
	DB	0d6H
	DB	09aH
	DB	0ceH
	DB	099H
	DB	0ceH
	DB	09aH
	DB	0d6H
	DB	079H
	DB	0d6H
	DB	099H
	DB	0d6H
	DB	09aH
	DB	0ceH
	DB	079H
	DB	0d6H
	DB	099H
	DB	0ceH
	DB	07aH
	DB	0ceH
	DB	099H
	DB	0ceH
	DB	07aH
	DB	0d6H
	DB	099H
	DB	0d6H
	DB	099H
	DB	0ceH
	DB	07aH
	DB	0ceH
	DB	099H
	DB	0d6H
	DB	079H
	DB	0d6H
	DB	079H
	DB	0ceH
	DB	079H
	DB	0ceH
	DB	037H
	DB	0c6H
	DB	038H
	DB	0c6H
	DB	058H
	DB	0ceH
	DB	038H
	DB	0c6H
	DB	038H
	DB	0c6H
	DB	038H
	DB	0ceH
	DB	038H
	DB	0c6H
	DB	038H
	DB	0c6H
	DB	038H
	DB	0c6H
	DB	038H
	DB	0ceH
	DB	038H
	DB	0c6H
	DB	058H
	DB	0c6H
	DB	038H
	DB	0ceH
	DB	038H
	DB	0c6H
	DB	058H
	DB	0c6H
	DB	038H
	DB	0ceH
	DB	038H
	DB	0c6H
	DB	038H
	DB	0c6H
	DB	058H
	DB	0c6H
	DB	038H
	DB	0c6H
	DB	038H
	DB	0ceH
	DB	038H
	DB	0c6H
	DB	038H
	DB	0c6H
	DB	058H
	DB	0ceH
	DB	038H
	DB	0c6H
	DB	038H
	DB	0c6H
	DB	038H
	DB	0ceH
	DB	038H
	DB	0c6H
	DB	038H
	DB	0c6H
	DB	038H
	DB	0ceH
	DB	058H
	DB	0c6H
	DB	038H
	DB	0c6H
	DB	038H
	DB	0ceH
	DB	058H
	DB	0c6H
	DB	038H
	DB	0c6H
	DB	058H
	DB	0ceH
	DB	038H
	DB	0c6H
	DB	038H
	DB	0c6H
	DB	038H
	DB	0ceH
	DB	058H
	DB	0c6H
	DB	038H
	DB	0c6H
	DB	038H
	DB	0c6H
	DB	058H
	DB	0c6H
	DB	038H
	DB	0c6H
	DB	058H
	DB	0c6H
	DB	058H
	DB	0c6H
	DB	038H
	DB	0c6H
	DB	038H
	DB	0c6H
	DB	058H
	DB	0c6H
	DB	038H
	DB	0c6H
	DB	058H
	DB	0c6H
	DB	038H
	DB	0c6H
	DB	058H
	DB	0ceH
	DB	058H
	DB	0c6H
	DB	038H
	DB	0c6H
	DB	058H
	DB	0c6H
	DB	038H
	DB	0c6H
	DB	038H
	DB	0c6H
	DB	058H
	DB	0c6H
	DB	038H
	DB	0c6H
	DB	038H
	DB	0c6H
	DB	058H
	DB	0ceH
	DB	058H
	DB	0c6H
	DB	038H
	DB	0c6H
	DB	058H
	DB	0c6H
	DB	038H
	DB	0ceH
	DB	038H
	DB	0c6H
	DB	038H
	DB	0ceH
	DB	038H
	DB	0ceH
	DB	038H
	DB	0ceH
	DB	038H
	DB	0ceH
	DB	038H
	DB	0ceH
	DB	038H
	DB	0c6H
	DB	038H
	DB	0ceH
	DB	037H
	DB	0c6H
	DB	038H
	DB	0c6H
	DB	038H
	DB	0c6H
	DB	038H
	DB	0c6H
	DB	079H
	DB	0ceH
	DB	02fH
	DB	084H
	DB	079H
	DB	0ceH
	DB	058H
	DB	0c6H
	DB	037H
	DB	0c6H
	DB	038H
	DB	0c6H
	DB	058H
	DB	0c6H
	DB	037H
	DB	0c6H
	DB	038H
	DB	0c6H
	DB	038H
	DB	0c6H
	DB	038H
	DB	0c6H
	DB	038H
	DB	0c6H
	DB	037H
	DB	0ceH
	DB	037H
	DB	0c6H
	DB	038H
	DB	0c6H
	DB	038H
	DB	0ceH
	DB	038H
	DB	0c6H
	DB	038H
	DB	0c6H
	DB	038H
	DB	0ceH
	DB	038H
	DB	0c6H
	DB	038H
	DB	0c6H
	DB	038H
	DB	0c6H
	DB	038H
	DB	0ceH
	DB	038H
	DB	0c6H
	DB	038H
	DB	0c6H
	DB	038H
	DB	0ceH
	DB	037H
	DB	0c6H
	DB	038H
	DB	0c6H
	DB	038H
	DB	0c6H
	DB	037H
	DB	0c6H
	DB	038H
	DB	0c6H
	DB	038H
	DB	0c6H
	DB	038H
	DB	0c6H
	DB	037H
	DB	0c6H
	DB	038H
	DB	0c6H
	DB	037H
	DB	0c6H
	DB	038H
	DB	0c6H
	DB	038H
	DB	0c6H
	DB	038H
	DB	0c6H
	DB	037H
	DB	0c6H
	DB	038H
	DB	0c6H
	DB	038H
	DB	0c6H
	DB	038H
	DB	0c6H
	DB	038H
	DB	0c6H
	DB	037H
	DB	0c6H
	DB	038H
	DB	0c6H
	DB	038H
	DB	0c6H
	DB	017H
	DB	0c6H
	DB	037H
	DB	0c6H
	DB	038H
	DB	0c6H
	DB	038H
	DB	0c6H
	DB	018H
	DB	0c6H
	DB	037H
	DB	0c6H
	DB	038H
	DB	0c6H
	DB	018H
	DB	0c6H
	DB	037H
	DB	0c6H
	DB	038H
	DB	0c6H
	DB	038H
	DB	0c6H
	DB	017H
	DB	0c6H
	DB	037H
	DB	0c6H
	DB	038H
	DB	0c6H
	DB	038H
	DB	0c6H
	DB	038H
	DB	0c6H
	DB	018H
	DB	0c6H
	DB	038H
	DB	0c6H
	DB	037H
	DB	0c6H
	DB	018H
	DB	0c6H
	DB	038H
	DB	0c6H
	DB	037H
	DB	0c6H
	DB	018H
	DB	0c6H
	DB	038H
	DB	0c6H
	DB	037H
	DB	0c6H
	DB	038H
	DB	0c6H
	DB	038H
	DB	0c6H
	DB	038H
	DB	0c6H
	DB	037H
	DB	0c6H
	DB	038H
	DB	0c6H
	DB	038H
	DB	0c6H
	DB	038H
	DB	0c6H
	DB	038H
	DB	0ceH
	DB	038H
	DB	0c6H
	DB	018H
	DB	0c6H
	DB	058H
	DB	0c6H
	DB	058H
	DB	0c6H
	DB	038H
	DB	0c6H
	DB	058H
	DB	0c6H
	DB	038H
	DB	0c6H
	DB	038H
	DB	0c6H
	DB	058H
	DB	0c6H
	DB	038H
	DB	0c6H
	DB	038H
	DB	0c6H
	DB	058H
	DB	0c6H
	DB	058H
	DB	0ceH
	DB	058H
	DB	0c6H
	DB	058H
	DB	0ceH
	DB	058H
	DB	0ceH
	DB	058H
	DB	0c6H
	DB	058H
	DB	0ceH
	DB	058H
	DB	0c6H
	DB	058H
	DB	0c6H
	DB	058H
	DB	0c6H
	DB	058H
	DB	0c6H
	DB	038H
	DB	0c6H
	DB	058H
	DB	0c6H
	DB	038H
	DB	0c6H
	DB	038H
	DB	0ceH
	DB	058H
	DB	0c6H
	DB	058H
	DB	0c6H
	DB	038H
	DB	0c6H
	DB	058H
	DB	0c6H
	DB	058H
	DB	0c6H
	DB	058H
	DB	0ceH
	DB	059H
	DB	0c6H
	DB	058H
	DB	0c6H
	DB	058H
	DB	0ceH
	DB	058H
	DB	0c6H
	DB	058H
	DB	0ceH
	DB	058H
	DB	0c6H
	DB	058H
	DB	0ceH
	DB	058H
	DB	0c6H
	DB	058H
	DB	0c6H
	DB	058H
	DB	0ceH
	DB	059H
	DB	0c6H
	DB	058H
	DB	0c6H
	DB	059H
	DB	0ceH
	DB	059H
	DB	0ceH
	DB	058H
	DB	0c6H
	DB	059H
	DB	0c6H
	DB	058H
	DB	0ceH
	DB	058H
	DB	0ceH
	DB	058H
	DB	0c6H
	DB	058H
	DB	0c6H
	DB	058H
	DB	0ceH
	DB	058H
	DB	0c6H
	DB	058H
	DB	0ceH
	DB	058H
	DB	0ceH
	DB	058H
	DB	0c6H
	DB	058H
	DB	0ceH
	DB	059H
	DB	0ceH
	DB	058H
	DB	0ceH
	DB	059H
	DB	0ceH
	DB	059H
	DB	0c6H
	DB	058H
	DB	0ceH
	DB	058H
	DB	0ceH
	DB	059H
	DB	0c6H
	DB	058H
	DB	0ceH
	DB	058H
	DB	0c6H
	DB	059H
	DB	0c6H
	DB	058H
	DB	0ceH
	DB	058H
	DB	0c6H
	DB	059H
	DB	0c6H
	DB	058H
	DB	0ceH
	DB	058H
	DB	0ceH
	DB	059H
	DB	0c6H
	DB	059H
	DB	0ceH
	DB	058H
	DB	0c6H
	DB	058H
	DB	0c6H
	DB	079H
	DB	0ceH
	DB	079H
	DB	0ceH
	DB	058H
	DB	0c6H
	DB	078H
	DB	0ceH
	DB	079H
	DB	0c6H
	DB	058H
	DB	0c6H
	DB	058H
	DB	0ceH
	DB	079H
	DB	0ceH
	DB	079H
	DB	0ceH
	DB	079H
	DB	0ceH
	DB	079H
	DB	0ceH
	DB	079H
	DB	0c6H
	DB	078H
	DB	0ceH
	DB	059H
	DB	0c6H
	DB	079H
	DB	0ceH
	DB	059H
	DB	0ceH
	DB	079H
	DB	0c6H
	DB	079H
	DB	0ceH
	DB	079H
	DB	0ceH
	DB	078H
	DB	0ceH
	DB	079H
	DB	0ceH
	DB	079H
	DB	0ceH
	DB	078H
	DB	0c6H
	DB	059H
	DB	0ceH
	DB	078H
	DB	0c6H
	DB	058H
	DB	0ceH
	DB	079H
	DB	0ceH
	DB	059H
	DB	0c6H
	DB	078H
	DB	0ceH
	DB	059H
	DB	0ceH
	DB	059H
	DB	0ceH
	DB	058H
	DB	0ceH
	DB	059H
	DB	0ceH
	DB	059H
	DB	0ceH
	DB	079H
	DB	0ceH
	DB	079H
	DB	0ceH
	DB	059H
	DB	0ceH
	DB	079H
	DB	0ceH
	DB	079H
	DB	0ceH
	DB	079H
	DB	0ceH
	DB	059H
	DB	0ceH
	DB	059H
	DB	0ceH
	DB	059H
	DB	0ceH
	DB	059H
	DB	0ceH
	DB	079H
	DB	0ceH
	DB	059H
	DB	0ceH
	DB	059H
	DB	0ceH
	DB	059H
	DB	0ceH
	DB	079H
	DB	0ceH
	DB	059H
	DB	0ceH
	DB	059H
	DB	0ceH
	DB	059H
	DB	0ceH
	DB	059H
	DB	0ceH
	DB	059H
	DB	0ceH
	DB	079H
	DB	0ceH
	DB	059H
	DB	0ceH
	DB	059H
	DB	0ceH
	DB	079H
	DB	0ceH
	DB	059H
	DB	0ceH
	DB	078H
	DB	0ceH
	DB	059H
	DB	0ceH
	DB	079H
	DB	0ceH
	DB	058H
	DB	0ceH
	DB	079H
	DB	0ceH
	DB	079H
	DB	0ceH
	DB	079H
	DB	0ceH
	DB	079H
	DB	0ceH
	DB	079H
	DB	0ceH
	DB	079H
	DB	0ceH
	DB	079H
	DB	0ceH
	DB	079H
	DB	0ceH
	DB	079H
	DB	0ceH
	DB	079H
	DB	0ceH
	DB	059H
	DB	0ceH
	DB	079H
	DB	0ceH
	DB	079H
	DB	0ceH
	DB	059H
	DB	0ceH
	DB	079H
	DB	0ceH
	DB	079H
	DB	0ceH
	DB	059H
	DB	0ceH
	DB	079H
	DB	0ceH
	DB	079H
	DB	0ceH
	DB	079H
	DB	0ceH
	DB	079H
	DB	0ceH
	DB	059H
	DB	0ceH
	DB	079H
	DB	0ceH
	DB	079H
	DB	0ceH
	DB	079H
	DB	0ceH
	DB	079H
	DB	0ceH
	DB	079H
	DB	0ceH
	DB	079H
	DB	0ceH
	DB	079H
	DB	0ceH
	DB	079H
	DB	0ceH
	DB	079H
	DB	0ceH
	DB	079H
	DB	0ceH
	DB	079H
	DB	0d6H
	DB	079H
	DB	0ceH
	DB	079H
	DB	0ceH
	DB	079H
	DB	0d6H
	DB	079H
	DB	0ceH
	DB	079H
	DB	0ceH
	DB	079H
	DB	0d6H
	DB	079H
	DB	0ceH
	DB	079H
	DB	0d6H
	DB	079H
	DB	0d6H
	DB	079H
	DB	0ceH
	DB	079H
	DB	0ceH
	DB	079H
	DB	0d6H
	DB	079H
	DB	0ceH
	DB	079H
	DB	0ceH
	DB	079H
	DB	0d6H
	DB	079H
	DB	0ceH
	DB	079H
	DB	0ceH
	DB	079H
	DB	0ceH
	DB	079H
	DB	0d6H
	DB	079H
	DB	0ceH
	DB	079H
	DB	0ceH
	DB	07aH
	DB	0ceH
	DB	079H
	DB	0ceH
	DB	09aH
	DB	0d6H
	DB	09aH
	DB	0d6H
	DB	099H
	DB	0ceH
	DB	07aH
	DB	0d6H
	DB	09aH
	DB	0d6H
	DB	099H
	DB	0ceH
	DB	079H
	DB	0ceH
	DB	07aH
	DB	0ceH
	DB	09aH
	DB	0d6H
	DB	099H
	DB	0d6H
	DB	09aH
	DB	0ceH
	DB	099H
	DB	0d6H
	DB	09aH
	DB	0d6H
	DB	099H
	DB	0d6H
	DB	099H
	DB	0ceH
	DB	07aH
	DB	0d6H
	DB	079H
	DB	0d6H
	DB	099H
	DB	0ceH
	DB	079H
	DB	0d6H
	DB	09aH
	DB	0ceH
	DB	079H
	DB	0ceH
	DB	099H
	DB	0d6H
	DB	09aH
	DB	0d6H
	DB	09aH
	DB	0d6H
	DB	099H
	DB	0ceH
	DB	09aH
	DB	0d6H
	DB	09aH
	DB	0d6H
	DB	099H
	DB	0d6H
	DB	09aH
	DB	0ceH
	DB	09aH
	DB	0ceH
	DB	099H
	DB	0d6H
	DB	099H
	DB	0d6H
	DB	09aH
	DB	0ceH
	DB	099H
	DB	0d6H
	DB	09aH
	DB	0d6H
	DB	07aH
	DB	0ceH
	DB	099H
	DB	0d6H
	DB	09aH
	DB	0d6H
	DB	079H
	DB	0ceH
	DB	09aH
	DB	0d6H
	DB	099H
	DB	0ceH
	DB	07aH
	DB	0ceH
	DB	099H
	DB	0d6H
	DB	099H
	DB	0ceH
	DB	09aH
	DB	0d6H
	DB	079H
	DB	0d6H
	DB	09aH
	DB	0d6H
	DB	099H
	DB	0d6H
	DB	099H
	DB	0d6H
	DB	09aH
	DB	0d6H
	DB	099H
	DB	0ceH
	DB	09aH
	DB	0d6H
	DB	09aH
	DB	0d6H
	DB	099H
	DB	0ceH
	DB	09aH
	DB	0d6H
	DB	099H
	DB	0ceH
	DB	09aH
	DB	0d6H
	DB	09aH
	DB	0d6H
	DB	099H
	DB	0ceH
	DB	09aH
	DB	0d6H
	DB	099H
	DB	0d6H
	DB	09aH
	DB	0ceH
	DB	099H
	DB	0d6H
	DB	09aH
	DB	0d6H
	DB	099H
	DB	0ceH
	DB	099H
	DB	0d6H
	DB	09aH
	DB	0d6H
	DB	099H
	DB	0d6H
	DB	09aH
	DB	0d6H
	DB	099H
	DB	0ceH
	DB	09aH
	DB	0d6H
	DB	099H
	DB	0d6H
	DB	09aH
	DB	0ceH
	DB	09aH
	DB	0d6H
	DB	099H
	DB	0ceH
	DB	099H
	DB	0ceH
	DB	09aH
	DB	0d6H
	DB	09aH
	DB	0d6H
	DB	09aH
	DB	0d6H
	DB	09aH
	DB	0d6H
	DB	09aH
	DB	0d6H
	DB	09aH
	DB	0d6H
	DB	09aH
	DB	0d6H
	DB	09aH
	DB	0d6H
	DB	09aH
	DB	0d6H
	DB	09aH
	DB	0d6H
	DB	0baH
	DB	0ceH
	DB	099H
	DB	0ceH
	DB	09aH
	DB	0d6H
	DB	0baH
	DB	0d6H
	DB	099H
	DB	0ceH
	DB	099H
	DB	0d6H
	DB	0baH
	DB	0ceH
	DB	099H
	DB	0ceH
	DB	09aH
	DB	0d6H
	DB	09aH
	DB	0d6H
	DB	099H
	DB	0ceH
	DB	0b9H
	DB	0d6H
	DB	09aH
	DB	0d6H
	DB	099H
	DB	0ceH
	DB	0baH
	DB	0d6H
	DB	099H
	DB	0d6H
	DB	0baH
	DB	0ceH
	DB	0baH
	DB	0d6H
	DB	0b9H
	DB	0d6H
	DB	0baH
	DB	0d6H
	DB	0baH
	DB	0d6H
	DB	0b9H
	DB	0d6H
	DB	0baH
	DB	0d6H
	DB	0baH
	DB	0d6H
	DB	099H
	DB	0ceH
	DB	0b9H
	DB	0d6H
	DB	09aH
	DB	0ceH
	DB	099H
	DB	0ceH
	DB	0b9H
	DB	0d6H
	DB	09aH
	DB	0ceH
	DB	099H
	DB	0ceH
	DB	0b9H
	DB	0ceH
	DB	09aH
	DB	0ceH
	DB	099H
	DB	0ceH
	DB	099H
	DB	0ceH
	DB	099H
	DB	0ceH
	DB	09aH
	DB	0d6H
	DB	099H
	DB	0d6H
	DB	099H
	DB	0d6H
	DB	09aH
	DB	0ceH
	DB	09aH
	DB	0d6H
	DB	09aH
	DB	0d6H
	DB	09aH
	DB	0d6H
	DB	09aH
	DB	0d6H
	DB	09aH
	DB	0d6H
	DB	09aH
	DB	0d6H
	DB	09aH
	DB	0d6H
	DB	09aH
	DB	0d6H
	DB	09aH
	DB	0d6H
	DB	09aH
	DB	0d6H
	DB	09aH
	DB	0ceH
	DB	09aH
	DB	0d6H
	DB	09aH
	DB	0d6H
	DB	09aH
	DB	0ceH
	DB	09aH
	DB	0d6H
	DB	09aH
	DB	0d6H
	DB	09aH
	DB	0d6H
	DB	09aH
	DB	0d6H
	DB	09aH
	DB	0d6H
	DB	09aH
	DB	0d6H
	DB	09aH
	DB	0d6H
	DB	09aH
	DB	0d6H
	DB	09aH
	DB	0d6H
	DB	09aH
	DB	0d6H
	DB	099H
	DB	0d6H
	DB	099H
	DB	0d6H
	DB	079H
	DB	0ceH
	DB	079H
	DB	0ceH
	DB	079H
	DB	0ceH
	DB	038H
	DB	0c6H
	DB	038H
	DB	0ceH
	DB	038H
	DB	0c6H
	DB	058H
	DB	0c6H
	DB	038H
	DB	0ceH
	DB	058H
	DB	0c6H
	DB	038H
	DB	0c6H
	DB	058H
	DB	0ceH
	DB	038H
	DB	0c6H
	DB	038H
	DB	0c6H
	DB	058H
	DB	0ceH
	DB	058H
	DB	0c6H
	DB	038H
	DB	0c6H
	DB	038H
	DB	0ceH
	DB	038H
	DB	0c6H
	DB	038H
	DB	0c6H
	DB	038H
	DB	0ceH
	DB	038H
	DB	0ceH
	DB	038H
	DB	0c6H
	DB	038H
	DB	0c6H
	DB	058H
	DB	0ceH
	DB	038H
	DB	0c6H
	DB	038H
	DB	0c6H
	DB	038H
	DB	0ceH
	DB	038H
	DB	0c6H
	DB	058H
	DB	0c6H
	DB	038H
	DB	0ceH
	DB	058H
	DB	0c6H
	DB	038H
	DB	0ceH
	DB	038H
	DB	0c6H
	DB	058H
	DB	0c6H
	DB	038H
	DB	0ceH
	DB	038H
	DB	0c6H
	DB	038H
	DB	0c6H
	DB	058H
	DB	0ceH
	DB	038H
	DB	0c6H
	DB	058H
	DB	0c6H
	DB	038H
	DB	0ceH
	DB	038H
	DB	0c6H
	DB	058H
	DB	0c6H
	DB	058H
	DB	0c6H
	DB	038H
	DB	0c6H
	DB	038H
	DB	0c6H
	DB	058H
	DB	0ceH
	DB	038H
	DB	0c6H
	DB	038H
	DB	0c6H
	DB	058H
	DB	0ceH
	DB	058H
	DB	0c6H
	DB	038H
	DB	0c6H
	DB	058H
	DB	0c6H
	DB	038H
	DB	0c6H
	DB	038H
	DB	0c6H
	DB	058H
	DB	0c6H
	DB	038H
	DB	0c6H
	DB	058H
	DB	0c6H
	DB	038H
	DB	0ceH
	DB	058H
	DB	0c6H
	DB	038H
	DB	0c6H
	DB	058H
	DB	0c6H
	DB	058H
	DB	0c6H
	DB	038H
	DB	0c6H
	DB	038H
	DB	0c6H
	DB	058H
	DB	0c6H
	DB	058H
	DB	0c6H
	DB	038H
	DB	0c6H
	DB	058H
	DB	0c6H
	DB	058H
	DB	0c6H
	DB	038H
	DB	0c6H
	DB	038H
	DB	0c6H
	DB	038H
	DB	0c6H
	DB	038H
	DB	0c6H
	DB	038H
	DB	0c6H
	DB	058H
	DB	0ceH
	DB	038H
	DB	0c6H
	DB	038H
	DB	0ceH
	DB	038H
	DB	0c6H
	DB	058H
	DB	0c6H
	DB	038H
	DB	0c6H
	DB	079H
	DB	0d6H
	DB	02fH
	DB	084H
	DB	079H
	DB	0ceH
	DB	038H
	DB	0c6H
	DB	058H
	DB	0c6H
	DB	038H
	DB	0c6H
	DB	038H
	DB	0c6H
	DB	058H
	DB	0c6H
	DB	038H
	DB	0c6H
	DB	038H
	DB	0ceH
	DB	038H
	DB	0c6H
	DB	038H
	DB	0c6H
	DB	038H
	DB	0c6H
	DB	038H
	DB	0ceH
	DB	038H
	DB	0c6H
	DB	038H
	DB	0c6H
	DB	038H
	DB	0c6H
	DB	038H
	DB	0c6H
	DB	038H
	DB	0c6H
	DB	038H
	DB	0c6H
	DB	038H
	DB	0c6H
	DB	037H
	DB	0c6H
	DB	038H
	DB	0c6H
	DB	038H
	DB	0ceH
	DB	037H
	DB	0c6H
	DB	038H
	DB	0c6H
	DB	038H
	DB	0c6H
	DB	038H
	DB	0ceH
	DB	038H
	DB	0c6H
	DB	038H
	DB	0c6H
	DB	038H
	DB	0c6H
	DB	038H
	DB	0ceH
	DB	038H
	DB	0c6H
	DB	038H
	DB	0c6H
	DB	037H
	DB	0c6H
	DB	038H
	DB	0c6H
	DB	038H
	DB	0c6H
	DB	038H
	DB	0c6H
	DB	038H
	DB	0c6H
	DB	037H
	DB	0c6H
	DB	038H
	DB	0c6H
	DB	037H
	DB	0c6H
	DB	038H
	DB	0c6H
	DB	038H
	DB	0c6H
	DB	018H
	DB	0c6H
	DB	037H
	DB	0c6H
	DB	038H
	DB	0c6H
	DB	038H
	DB	0c6H
	DB	018H
	DB	0ceH
	DB	037H
	DB	0c6H
	DB	038H
	DB	0c6H
	DB	038H
	DB	0c6H
	DB	038H
	DB	0c6H
	DB	038H
	DB	0c6H
	DB	038H
	DB	0c6H
	DB	018H
	DB	0c6H
	DB	038H
	DB	0ceH
	DB	038H
	DB	0c6H
	DB	038H
	DB	0c6H
	DB	018H
	DB	0ceH
	DB	037H
	DB	0c6H
	DB	038H
	DB	0c6H
	DB	037H
	DB	0c6H
	DB	038H
	DB	0ceH
	DB	038H
	DB	0c6H
	DB	037H
	DB	0c6H
	DB	038H
	DB	0c6H
	DB	038H
	DB	0c6H
	DB	038H
	DB	0c6H
	DB	018H
	DB	0ceH
	DB	038H
	DB	0c6H
	DB	038H
	DB	0c6H
	DB	017H
	DB	0c6H
	DB	038H
	DB	0c6H
	DB	018H
	DB	0ceH
	DB	038H
	DB	0c6H
	DB	037H
	DB	0c6H
	DB	018H
	DB	0c6H
	DB	038H
	DB	0c6H
	DB	037H
	DB	0c6H
	DB	038H
	DB	0c6H
	DB	017H
	DB	0c6H
	DB	038H
	DB	0c6H
	DB	038H
	DB	0c6H
	DB	058H
	DB	0c6H
	DB	058H
	DB	0c6H
	DB	058H
	DB	0ceH
	DB	058H
	DB	0c6H
	DB	058H
	DB	0c6H
	DB	058H
	DB	0ceH
	DB	058H
	DB	0c6H
	DB	058H
	DB	0c6H
	DB	038H
	DB	0c6H
	DB	058H
	DB	0c6H
	DB	058H
	DB	0c6H
	DB	038H
	DB	0c6H
	DB	058H
	DB	0c6H
	DB	038H
	DB	0ceH
	DB	038H
	DB	0c6H
	DB	058H
	DB	0c6H
	DB	058H
	DB	0ceH
	DB	058H
	DB	0ceH
	DB	058H
	DB	0ceH
	DB	058H
	DB	0c6H
	DB	058H
	DB	0ceH
	DB	058H
	DB	0ceH
	DB	059H
	DB	0c6H
	DB	058H
	DB	0ceH
	DB	058H
	DB	0ceH
	DB	059H
	DB	0c6H
	DB	058H
	DB	0c6H
	DB	058H
	DB	0ceH
	DB	058H
	DB	0c6H
	DB	059H
	DB	0c6H
	DB	058H
	DB	0ceH
	DB	059H
	DB	0c6H
	DB	058H
	DB	0c6H
	DB	059H
	DB	0c6H
	DB	058H
	DB	0ceH
	DB	059H
	DB	0ceH
	DB	059H
	DB	0c6H
	DB	058H
	DB	0ceH
	DB	058H
	DB	0c6H
	DB	058H
	DB	0c6H
	DB	058H
	DB	0ceH
	DB	058H
	DB	0c6H
	DB	058H
	DB	0c6H
	DB	058H
	DB	0ceH
	DB	059H
	DB	0c6H
	DB	058H
	DB	0c6H
	DB	059H
	DB	0ceH
	DB	059H
	DB	0ceH
	DB	059H
	DB	0ceH
	DB	058H
	DB	0c6H
	DB	059H
	DB	0ceH
	DB	059H
	DB	0ceH
	DB	058H
	DB	0c6H
	DB	059H
	DB	0c6H
	DB	058H
	DB	0c6H
	DB	058H
	DB	0ceH
	DB	058H
	DB	0c6H
	DB	058H
	DB	0c6H
	DB	059H
	DB	0ceH
	DB	058H
	DB	0c6H
	DB	058H
	DB	0ceH
	DB	079H
	DB	0c6H
	DB	058H
	DB	0ceH
	DB	058H
	DB	0ceH
	DB	078H
	DB	0c6H
	DB	058H
	DB	0ceH
	DB	059H
	DB	0c6H
	DB	078H
	DB	0c6H
	DB	078H
	DB	0ceH
	DB	079H
	DB	0ceH
	DB	058H
	DB	0c6H
	DB	079H
	DB	0ceH
	DB	079H
	DB	0ceH
	DB	058H
	DB	0ceH
	DB	059H
	DB	0ceH
	DB	078H
	DB	0c6H
	DB	059H
	DB	0ceH
	DB	079H
	DB	0ceH
	DB	078H
	DB	0ceH
	DB	079H
	DB	0ceH
	DB	058H
	DB	0c6H
	DB	058H
	DB	0c6H
	DB	058H
	DB	0ceH
	DB	059H
	DB	0ceH
	DB	078H
	DB	0ceH
	DB	058H
	DB	0c6H
	DB	058H
	DB	0ceH
	DB	078H
	DB	0c6H
	DB	058H
	DB	0ceH
	DB	058H
	DB	0ceH
	DB	078H
	DB	0c6H
	DB	059H
	DB	0ceH
	DB	058H
	DB	0c6H
	DB	058H
	DB	0ceH
	DB	059H
	DB	0ceH
	DB	059H
	DB	0ceH
	DB	059H
	DB	0ceH
	DB	059H
	DB	0ceH
	DB	079H
	DB	0ceH
	DB	059H
	DB	0ceH
	DB	059H
	DB	0ceH
	DB	079H
	DB	0ceH
	DB	079H
	DB	0ceH
	DB	079H
	DB	0ceH
	DB	079H
	DB	0ceH
	DB	079H
	DB	0ceH
	DB	079H
	DB	0ceH
	DB	058H
	DB	0ceH
	DB	079H
	DB	0ceH
	DB	079H
	DB	0ceH
	DB	059H
	DB	0ceH
	DB	079H
	DB	0ceH
	DB	079H
	DB	0ceH
	DB	059H
	DB	0ceH
	DB	079H
	DB	0ceH
	DB	079H
	DB	0ceH
	DB	059H
	DB	0ceH
	DB	059H
	DB	0ceH
	DB	079H
	DB	0ceH
	DB	059H
	DB	0ceH
	DB	079H
	DB	0ceH
	DB	079H
	DB	0ceH
	DB	059H
	DB	0ceH
	DB	079H
	DB	0ceH
	DB	079H
	DB	0ceH
	DB	078H
	DB	0ceH
	DB	079H
	DB	0ceH
	DB	079H
	DB	0ceH
	DB	079H
	DB	0ceH
	DB	079H
	DB	0ceH
	DB	079H
	DB	0ceH
	DB	079H
	DB	0ceH
	DB	079H
	DB	0ceH
	DB	079H
	DB	0ceH
	DB	079H
	DB	0ceH
	DB	079H
	DB	0ceH
	DB	079H
	DB	0ceH
	DB	079H
	DB	0ceH
	DB	059H
	DB	0ceH
	DB	079H
	DB	0ceH
	DB	079H
	DB	0ceH
	DB	079H
	DB	0ceH
	DB	059H
	DB	0ceH
	DB	079H
	DB	0ceH
	DB	079H
	DB	0ceH
	DB	059H
	DB	0ceH
	DB	079H
	DB	0ceH
	DB	079H
	DB	0ceH
	DB	079H
	DB	0ceH
	DB	079H
	DB	0ceH
	DB	079H
	DB	0ceH
	DB	079H
	DB	0ceH
	DB	079H
	DB	0ceH
	DB	079H
	DB	0ceH
	DB	079H
	DB	0ceH
	DB	079H
	DB	0ceH
	DB	079H
	DB	0ceH
	DB	079H
	DB	0ceH
	DB	079H
	DB	0d6H
	DB	079H
	DB	0ceH
	DB	079H
	DB	0d6H
	DB	079H
	DB	0ceH
	DB	079H
	DB	0d6H
	DB	079H
	DB	0d6H
	DB	079H
	DB	0ceH
	DB	079H
	DB	0d6H
	DB	079H
	DB	0ceH
	DB	079H
	DB	0ceH
	DB	079H
	DB	0d6H
	DB	079H
	DB	0ceH
	DB	079H
	DB	0d6H
	DB	079H
	DB	0d6H
	DB	079H
	DB	0ceH
	DB	079H
	DB	0d6H
	DB	079H
	DB	0d6H
	DB	079H
	DB	0ceH
	DB	079H
	DB	0ceH
	DB	079H
	DB	0ceH
	DB	079H
	DB	0d6H
	DB	079H
	DB	0ceH
	DB	09aH
	DB	0d6H
	DB	079H
	DB	0d6H
	DB	079H
	DB	0ceH
	DB	07aH
	DB	0ceH
	DB	079H
	DB	0d6H
	DB	07aH
	DB	0ceH
	DB	09aH
	DB	0ceH
	DB	079H
	DB	0ceH
	DB	079H
	DB	0d6H
	DB	09aH
	DB	0d6H
	DB	079H
	DB	0ceH
	DB	079H
	DB	0ceH
	DB	099H
	DB	0d6H
	DB	07aH
	DB	0ceH
	DB	079H
	DB	0ceH
	DB	099H
	DB	0d6H
	DB	07aH
	DB	0d6H
	DB	079H
	DB	0d6H
	DB	09aH
	DB	0ceH
	DB	099H
	DB	0d6H
	DB	079H
	DB	0d6H
	DB	09aH
	DB	0ceH
	DB	079H
	DB	0ceH
	DB	079H
	DB	0d6H
	DB	07aH
	DB	0ceH
	DB	079H
	DB	0ceH
	DB	09aH
	DB	0d6H
	DB	09aH
	DB	0d6H
	DB	09aH
	DB	0ceH
	DB	09aH
	DB	0d6H
	DB	09aH
	DB	0d6H
	DB	099H
	DB	0d6H
	DB	09aH
	DB	0d6H
	DB	09aH
	DB	0ceH
	DB	099H
	DB	0d6H
	DB	079H
	DB	0d6H
	DB	099H
	DB	0ceH
	DB	099H
	DB	0ceH
	DB	079H
	DB	0d6H
	DB	099H
	DB	0d6H
	DB	099H
	DB	0d6H
	DB	079H
	DB	0ceH
	DB	09aH
	DB	0d6H
	DB	079H
	DB	0ceH
	DB	09aH
	DB	0d6H
	DB	079H
	DB	0d6H
	DB	09aH
	DB	0d6H
	DB	09aH
	DB	0d6H
	DB	09aH
	DB	0d6H
	DB	09aH
	DB	0d6H
	DB	09aH
	DB	0d6H
	DB	099H
	DB	0d6H
	DB	09aH
	DB	0d6H
	DB	09aH
	DB	0d6H
	DB	09aH
	DB	0d6H
	DB	09aH
	DB	0d6H
	DB	09aH
	DB	0d6H
	DB	09aH
	DB	0ceH
	DB	099H
	DB	0d6H
	DB	09aH
	DB	0d6H
	DB	09aH
	DB	0ceH
	DB	099H
	DB	0d6H
	DB	09aH
	DB	0d6H
	DB	099H
	DB	0ceH
	DB	09aH
	DB	0d6H
	DB	09aH
	DB	0d6H
	DB	099H
	DB	0ceH
	DB	09aH
	DB	0d6H
	DB	09aH
	DB	0d6H
	DB	099H
	DB	0ceH
	DB	09aH
	DB	0d6H
	DB	09aH
	DB	0d6H
	DB	099H
	DB	0ceH
	DB	09aH
	DB	0d6H
	DB	09aH
	DB	0d6H
	DB	09aH
	DB	0d6H
	DB	09aH
	DB	0d6H
	DB	09aH
	DB	0d6H
	DB	09aH
	DB	0d6H
	DB	09aH
	DB	0d6H
	DB	09aH
	DB	0d6H
	DB	09aH
	DB	0d6H
	DB	09aH
	DB	0d6H
	DB	09aH
	DB	0d6H
	DB	09aH
	DB	0d6H
	DB	09aH
	DB	0d6H
	DB	09aH
	DB	0d6H
	DB	09aH
	DB	0d6H
	DB	099H
	DB	0d6H
	DB	099H
	DB	0ceH
	DB	09aH
	DB	0d6H
	DB	09aH
	DB	0d6H
	DB	099H
	DB	0d6H
	DB	0baH
	DB	0d6H
	DB	09aH
	DB	0d6H
	DB	09aH
	DB	0d6H
	DB	0baH
	DB	0d6H
	DB	09aH
	DB	0d6H
	DB	09aH
	DB	0d6H
	DB	09aH
	DB	0d6H
	DB	09aH
	DB	0d6H
	DB	09aH
	DB	0d6H
	DB	099H
	DB	0d6H
	DB	0baH
	DB	0d6H
	DB	099H
	DB	0d6H
	DB	09aH
	DB	0d6H
	DB	0b9H
	DB	0d6H
	DB	09aH
	DB	0d6H
	DB	0baH
	DB	0d6H
	DB	0b9H
	DB	0ceH
	DB	0baH
	DB	0d6H
	DB	0baH
	DB	0ceH
	DB	099H
	DB	0d6H
	DB	0baH
	DB	0d6H
	DB	099H
	DB	0ceH
	DB	09aH
	DB	0d6H
	DB	099H
	DB	0ceH
	DB	09aH
	DB	0d6H
	DB	09aH
	DB	0ceH
	DB	099H
	DB	0ceH
	DB	0baH
	DB	0d6H
	DB	09aH
	DB	0ceH
	DB	0b9H
	DB	0d6H
	DB	0baH
	DB	0d6H
	DB	0baH
	DB	0d6H
	DB	0b9H
	DB	0d6H
	DB	0baH
	DB	0d6H
	DB	0baH
	DB	0d6H
	DB	0b9H
	DB	0d6H
	DB	0baH
	DB	0d6H
	DB	099H
	DB	0d6H
	DB	099H
	DB	0ceH
	DB	0baH
	DB	0d6H
	DB	099H
	DB	0ceH
	DB	099H
	DB	0d6H
	DB	09aH
	DB	0d6H
	DB	099H
	DB	0ceH
	DB	099H
	DB	0d6H
	DB	09aH
	DB	0d6H
	DB	099H
	DB	0ceH
	DB	09aH
	DB	0d6H
	DB	09aH
	DB	0d6H
	DB	09aH
	DB	0ceH
	DB	09aH
	DB	0d6H
	DB	099H
	DB	0ceH
	DB	09aH
	DB	0d6H
	DB	099H
	DB	0d6H
	DB	099H
	DB	0ceH
	DB	099H
	DB	0ceH
	DB	099H
	DB	0d6H
	DB	09aH
	DB	0ceH
	DB	099H
	DB	0ceH
	DB	099H
	DB	0d6H
	DB	09aH
	DB	0d6H
	DB	099H
	DB	0ceH
	DB	09aH
	DB	0ceH
	DB	099H
	DB	0ceH
	DB	099H
	DB	0d6H
	DB	09aH
	DB	0ceH
	DB	099H
	DB	0ceH
	DB	09aH
	DB	0ceH
	DB	09aH
	DB	0ceH
	DB	099H
	DB	0d6H
	DB	099H
	DB	0d6H
	DB	079H
	DB	0ceH
	DB	079H
	DB	0ceH
	DB	079H
	DB	0d6H
	DB	038H
	DB	0c6H
	DB	038H
	DB	0ceH
	DB	038H
	DB	0c6H
	DB	038H
	DB	0c6H
	DB	038H
	DB	0ceH
	DB	038H
	DB	0c6H
	DB	058H
	DB	0c6H
	DB	038H
	DB	0ceH
	DB	038H
	DB	0c6H
	DB	038H
	DB	0c6H
	DB	038H
	DB	0ceH
	DB	058H
	DB	0c6H
	DB	038H
	DB	0c6H
	DB	038H
	DB	0ceH
	DB	058H
	DB	0c6H
	DB	038H
	DB	0c6H
	DB	058H
	DB	0ceH
	DB	038H
	DB	0c6H
	DB	038H
	DB	0c6H
	DB	058H
	DB	0ceH
	DB	038H
	DB	0c6H
	DB	038H
	DB	0c6H
	DB	058H
	DB	0ceH
	DB	038H
	DB	0c6H
	DB	038H
	DB	0c6H
	DB	038H
	DB	0ceH
	DB	058H
	DB	0c6H
	DB	038H
	DB	0c6H
	DB	038H
	DB	0ceH
	DB	038H
	DB	0c6H
	DB	038H
	DB	0ceH
	DB	038H
	DB	0c6H
	DB	038H
	DB	0c6H
	DB	038H
	DB	0ceH
	DB	038H
	DB	0ceH
	DB	038H
	DB	0c6H
	DB	038H
	DB	0c6H
	DB	038H
	DB	0ceH
	DB	038H
	DB	0c6H
	DB	058H
	DB	0c6H
	DB	058H
	DB	0c6H
	DB	038H
	DB	0c6H
	DB	058H
	DB	0c6H
	DB	058H
	DB	0c6H
	DB	038H
	DB	0c6H
	DB	058H
	DB	0c6H
	DB	058H
	DB	0c6H
	DB	038H
	DB	0c6H
	DB	058H
	DB	0ceH
	DB	058H
	DB	0c6H
	DB	038H
	DB	0c6H
	DB	058H
	DB	0ceH
	DB	038H
	DB	0c6H
	DB	058H
	DB	0c6H
	DB	038H
	DB	0c6H
	DB	058H
	DB	0c6H
	DB	038H
	DB	0c6H
	DB	058H
	DB	0ceH
	DB	038H
	DB	0c6H
	DB	058H
	DB	0c6H
	DB	058H
	DB	0ceH
	DB	038H
	DB	0c6H
	DB	038H
	DB	0c6H
	DB	058H
	DB	0c6H
	DB	038H
	DB	0c6H
	DB	058H
	DB	0c6H
	DB	058H
	DB	0c6H
	DB	038H
	DB	0ceH
	DB	058H
	DB	0c6H
	DB	058H
	DB	0c6H
	DB	038H
	DB	0ceH
	DB	038H
	DB	0c6H
	DB	058H
	DB	0c6H
	DB	038H
	DB	0c6H
	DB	038H
	DB	0ceH
	DB	058H
	DB	0c6H
	DB	058H
	DB	0c6H
	DB	038H
	DB	0c6H
	DB	079H
	DB	0ceH
	DB	0fH
	DB	084H
	DB	099H
	DB	0ceH
	DB	038H
	DB	0c6H
	DB	038H
	DB	0c6H
	DB	038H
	DB	0c6H
	DB	038H
	DB	0c6H
	DB	038H
	DB	0c6H
	DB	058H
	DB	0c6H
	DB	037H
	DB	0c6H
	DB	038H
	DB	0ceH
	DB	038H
	DB	0c6H
	DB	038H
	DB	0c6H
	DB	038H
	DB	0c6H
	DB	038H
	DB	0ceH
	DB	038H
	DB	0c6H
	DB	037H
	DB	0ceH
	DB	038H
	DB	0c6H
	DB	038H
	DB	0c6H
	DB	037H
	DB	0ceH
	DB	038H
	DB	0ceH
	DB	038H
	DB	0c6H
	DB	038H
	DB	0c6H
	DB	038H
	DB	0c6H
	DB	037H
	DB	0c6H
	DB	038H
	DB	0c6H
	DB	018H
	DB	0c6H
	DB	038H
	DB	0c6H
	DB	038H
	DB	0ceH
	DB	038H
	DB	0c6H
	DB	038H
	DB	0c6H
	DB	037H
	DB	0c6H
	DB	038H
	DB	0c6H
	DB	038H
	DB	0c6H
	DB	038H
	DB	0ceH
	DB	038H
	DB	0c6H
	DB	037H
	DB	0c6H
	DB	038H
	DB	0ceH
	DB	038H
	DB	0c6H
	DB	038H
	DB	0c6H
	DB	038H
	DB	0c6H
	DB	018H
	DB	0c6H
	DB	037H
	DB	0c6H
	DB	038H
	DB	0c6H
	DB	038H
	DB	0ceH
	DB	038H
	DB	0c6H
	DB	038H
	DB	0c6H
	DB	038H
	DB	0c6H
	DB	038H
	DB	0c6H
	DB	018H
	DB	0c6H
	DB	037H
	DB	0c6H
	DB	038H
	DB	0c6H
	DB	037H
	DB	0c6H
	DB	038H
	DB	0c6H
	DB	037H
	DB	0c6H
	DB	038H
	DB	0c6H
	DB	017H
	DB	0c6H
	DB	038H
	DB	0c6H
	DB	038H
	DB	0c6H
	DB	038H
	DB	0c6H
	DB	038H
	DB	0c6H
	DB	018H
	DB	0c6H
	DB	037H
	DB	0c6H
	DB	018H
	DB	0c6H
	DB	038H
	DB	0c6H
	DB	018H
	DB	0c6H
	DB	037H
	DB	0ceH
	DB	038H
	DB	0c6H
	DB	017H
	DB	0c6H
	DB	037H
	DB	0c6H
	DB	038H
	DB	0c6H
	DB	017H
	DB	0c6H
	DB	038H
	DB	0c6H
	DB	037H
	DB	0c6H
	DB	038H
	DB	0c6H
	DB	017H
	DB	0c6H
	DB	038H
	DB	0c6H
	DB	038H
	DB	0c6H
	DB	017H
	DB	0c6H
	DB	017H
	DB	0c6H
	DB	018H
	DB	0c6H
	DB	038H
	DB	0c6H
	DB	038H
	DB	0c6H
	DB	058H
	DB	0c6H
	DB	058H
	DB	0c6H
	DB	058H
	DB	0ceH
	DB	058H
	DB	0c6H
	DB	058H
	DB	0c6H
	DB	038H
	DB	0c6H
	DB	058H
	DB	0ceH
	DB	058H
	DB	0c6H
	DB	058H
	DB	0c6H
	DB	038H
	DB	0ceH
	DB	058H
	DB	0c6H
	DB	058H
	DB	0ceH
	DB	058H
	DB	0c6H
	DB	058H
	DB	0ceH
	DB	058H
	DB	0c6H
	DB	058H
	DB	0ceH
	DB	058H
	DB	0c6H
	DB	059H
	DB	0c6H
	DB	058H
	DB	0ceH
	DB	058H
	DB	0c6H
	DB	059H
	DB	0c6H
	DB	058H
	DB	0c6H
	DB	058H
	DB	0c6H
	DB	058H
	DB	0c6H
	DB	058H
	DB	0c6H
	DB	059H
	DB	0ceH
	DB	058H
	DB	0c6H
	DB	058H
	DB	0ceH
	DB	059H
	DB	0c6H
	DB	058H
	DB	0c6H
	DB	058H
	DB	0ceH
	DB	058H
	DB	0c6H
	DB	058H
	DB	0ceH
	DB	059H
	DB	0c6H
	DB	058H
	DB	0c6H
	DB	058H
	DB	0ceH
	DB	059H
	DB	0c6H
	DB	058H
	DB	0ceH
	DB	059H
	DB	0ceH
	DB	059H
	DB	0ceH
	DB	058H
	DB	0c6H
	DB	059H
	DB	0ceH
	DB	058H
	DB	0ceH
	DB	059H
	DB	0c6H
	DB	058H
	DB	0ceH
	DB	058H
	DB	0ceH
	DB	059H
	DB	0c6H
	DB	058H
	DB	0c6H
	DB	058H
	DB	0ceH
	DB	059H
	DB	0c6H
	DB	078H
	DB	0c6H
	DB	058H
	DB	0c6H
	DB	059H
	DB	0ceH
	DB	078H
	DB	0ceH
	DB	058H
	DB	0c6H
	DB	059H
	DB	0ceH
	DB	078H
	DB	0c6H
	DB	058H
	DB	0ceH
	DB	059H
	DB	0ceH
	DB	078H
	DB	0c6H
	DB	059H
	DB	0c6H
	DB	079H
	DB	0ceH
	DB	079H
	DB	0ceH
	DB	058H
	DB	0c6H
	DB	059H
	DB	0ceH
	DB	079H
	DB	0c6H
	DB	079H
	DB	0ceH
	DB	058H
	DB	0ceH
	DB	079H
	DB	0ceH
	DB	059H
	DB	0ceH
	DB	058H
	DB	0c6H
	DB	078H
	DB	0ceH
	DB	079H
	DB	0ceH
	DB	058H
	DB	0c6H
	DB	078H
	DB	0ceH
	DB	079H
	DB	0c6H
	DB	058H
	DB	0ceH
	DB	059H
	DB	0ceH
	DB	058H
	DB	0c6H
	DB	079H
	DB	0ceH
	DB	059H
	DB	0c6H
	DB	078H
	DB	0ceH
	DB	079H
	DB	0c6H
	DB	058H
	DB	0c6H
	DB	078H
	DB	0ceH
	DB	059H
	DB	0c6H
	DB	059H
	DB	0ceH
	DB	079H
	DB	0ceH
	DB	079H
	DB	0c6H
	DB	058H
	DB	0ceH
	DB	079H
	DB	0ceH
	DB	079H
	DB	0ceH
	DB	079H
	DB	0ceH
	DB	079H
	DB	0c6H
	DB	079H
	DB	0ceH
	DB	059H
	DB	0ceH
	DB	079H
	DB	0ceH
	DB	079H
	DB	0ceH
	DB	059H
	DB	0ceH
	DB	079H
	DB	0ceH
	DB	079H
	DB	0ceH
	DB	059H
	DB	0ceH
	DB	059H
	DB	0ceH
	DB	079H
	DB	0ceH
	DB	059H
	DB	0ceH
	DB	059H
	DB	0ceH
	DB	079H
	DB	0ceH
	DB	059H
	DB	0ceH
	DB	059H
	DB	0ceH
	DB	079H
	DB	0ceH
	DB	059H
	DB	0ceH
	DB	059H
	DB	0ceH
	DB	058H
	DB	0ceH
	DB	079H
	DB	0ceH
	DB	059H
	DB	0ceH
	DB	078H
	DB	0ceH
	DB	079H
	DB	0ceH
	DB	079H
	DB	0ceH
	DB	079H
	DB	0ceH
	DB	079H
	DB	0ceH
	DB	079H
	DB	0ceH
	DB	079H
	DB	0ceH
	DB	079H
	DB	0ceH
	DB	079H
	DB	0ceH
	DB	079H
	DB	0ceH
	DB	079H
	DB	0ceH
	DB	079H
	DB	0ceH
	DB	079H
	DB	0ceH
	DB	079H
	DB	0ceH
	DB	079H
	DB	0ceH
	DB	079H
	DB	0ceH
	DB	079H
	DB	0ceH
	DB	079H
	DB	0ceH
	DB	059H
	DB	0ceH
	DB	079H
	DB	0ceH
	DB	079H
	DB	0ceH
	DB	059H
	DB	0ceH
	DB	079H
	DB	0ceH
	DB	079H
	DB	0ceH
	DB	079H
	DB	0ceH
	DB	059H
	DB	0ceH
	DB	079H
	DB	0ceH
	DB	079H
	DB	0ceH
	DB	079H
	DB	0ceH
	DB	079H
	DB	0ceH
	DB	079H
	DB	0ceH
	DB	079H
	DB	0ceH
	DB	079H
	DB	0ceH
	DB	079H
	DB	0ceH
	DB	079H
	DB	0ceH
	DB	079H
	DB	0d6H
	DB	079H
	DB	0ceH
	DB	079H
	DB	0ceH
	DB	079H
	DB	0d6H
	DB	079H
	DB	0ceH
	DB	079H
	DB	0d6H
	DB	079H
	DB	0d6H
	DB	079H
	DB	0ceH
	DB	079H
	DB	0ceH
	DB	079H
	DB	0ceH
	DB	079H
	DB	0ceH
	DB	079H
	DB	0ceH
	DB	079H
	DB	0d6H
	DB	079H
	DB	0ceH
	DB	079H
	DB	0ceH
	DB	079H
	DB	0d6H
	DB	079H
	DB	0ceH
	DB	079H
	DB	0ceH
	DB	079H
	DB	0ceH
	DB	079H
	DB	0d6H
	DB	079H
	DB	0ceH
	DB	079H
	DB	0ceH
	DB	079H
	DB	0ceH
	DB	079H
	DB	0ceH
	DB	079H
	DB	0ceH
	DB	079H
	DB	0ceH
	DB	07aH
	DB	0d6H
	DB	079H
	DB	0ceH
	DB	079H
	DB	0ceH
	DB	09aH
	DB	0d6H
	DB	09aH
	DB	0d6H
	DB	079H
	DB	0ceH
	DB	09aH
	DB	0d6H
	DB	079H
	DB	0ceH
	DB	079H
	DB	0ceH
	DB	09aH
	DB	0d6H
	DB	099H
	DB	0d6H
	DB	099H
	DB	0d6H
	DB	09aH
	DB	0ceH
	DB	09aH
	DB	0d6H
	DB	099H
	DB	0d6H
	DB	09aH
	DB	0ceH
	DB	099H
	DB	0d6H
	DB	079H
	DB	0d6H
	DB	09aH
	DB	0ceH
	DB	079H
	DB	0d6H
	DB	099H
	DB	0ceH
	DB	099H
	DB	0ceH
	DB	07aH
	DB	0d6H
	DB	099H
	DB	0ceH
	DB	079H
	DB	0d6H
	DB	079H
	DB	0ceH
	DB	09aH
	DB	0ceH
	DB	09aH
	DB	0d6H
	DB	099H
	DB	0d6H
	DB	09aH
	DB	0d6H
	DB	09aH
	DB	0ceH
	DB	099H
	DB	0d6H
	DB	099H
	DB	0d6H
	DB	099H
	DB	0ceH
	DB	09aH
	DB	0d6H
	DB	099H
	DB	0d6H
	DB	079H
	DB	0ceH
	DB	09aH
	DB	0d6H
	DB	09aH
	DB	0ceH
	DB	079H
	DB	0d6H
	DB	099H
	DB	0d6H
	DB	099H
	DB	0d6H
	DB	079H
	DB	0ceH
	DB	099H
	DB	0d6H
	DB	099H
	DB	0ceH
	DB	09aH
	DB	0d6H
	DB	099H
	DB	0d6H
	DB	09aH
	DB	0d6H
	DB	09aH
	DB	0d6H
	DB	09aH
	DB	0ceH
	DB	09aH
	DB	0d6H
	DB	099H
	DB	0ceH
	DB	099H
	DB	0d6H
	DB	099H
	DB	0ceH
	DB	09aH
	DB	0ceH
	DB	09aH
	DB	0d6H
	DB	099H
	DB	0d6H
	DB	09aH
	DB	0d6H
	DB	099H
	DB	0d6H
	DB	09aH
	DB	0ceH
	DB	099H
	DB	0d6H
	DB	099H
	DB	0d6H
	DB	09aH
	DB	0ceH
	DB	09aH
	DB	0d6H
	DB	09aH
	DB	0d6H
	DB	09aH
	DB	0d6H
	DB	099H
	DB	0d6H
	DB	09aH
	DB	0d6H
	DB	09aH
	DB	0d6H
	DB	099H
	DB	0d6H
	DB	09aH
	DB	0d6H
	DB	09aH
	DB	0d6H
	DB	09aH
	DB	0d6H
	DB	09aH
	DB	0d6H
	DB	099H
	DB	0d6H
	DB	09aH
	DB	0d6H
	DB	09aH
	DB	0d6H
	DB	09aH
	DB	0d6H
	DB	09aH
	DB	0d6H
	DB	09aH
	DB	0d6H
	DB	09aH
	DB	0d6H
	DB	09aH
	DB	0d6H
	DB	09aH
	DB	0d6H
	DB	09aH
	DB	0ceH
	DB	099H
	DB	0d6H
	DB	09aH
	DB	0d6H
	DB	09aH
	DB	0d6H
	DB	099H
	DB	0d6H
	DB	09aH
	DB	0d6H
	DB	09aH
	DB	0d6H
	DB	099H
	DB	0d6H
	DB	09aH
	DB	0d6H
	DB	09aH
	DB	0d6H
	DB	09aH
	DB	0d6H
	DB	09aH
	DB	0d6H
	DB	09aH
	DB	0d6H
	DB	0b9H
	DB	0d6H
	DB	09aH
	DB	0ceH
	DB	09aH
	DB	0d6H
	DB	099H
	DB	0d6H
	DB	099H
	DB	0ceH
	DB	09aH
	DB	0d6H
	DB	099H
	DB	0d6H
	DB	0baH
	DB	0d6H
	DB	099H
	DB	0d6H
	DB	0baH
	DB	0d6H
	DB	09aH
	DB	0d6H
	DB	099H
	DB	0d6H
	DB	09aH
	DB	0d6H
	DB	09aH
	DB	0d6H
	DB	099H
	DB	0d6H
	DB	099H
	DB	0d6H
	DB	09aH
	DB	0d6H
	DB	0b9H
	DB	0ceH
	DB	099H
	DB	0d6H
	DB	09aH
	DB	0d6H
	DB	0b9H
	DB	0ceH
	DB	09aH
	DB	0d6H
	DB	0b9H
	DB	0ceH
	DB	0baH
	DB	0d6H
	DB	099H
	DB	0d6H
	DB	0b9H
	DB	0ceH
	DB	0baH
	DB	0d6H
	DB	099H
	DB	0d6H
	DB	099H
	DB	0ceH
	DB	0b9H
	DB	0d6H
	DB	09aH
	DB	0d6H
	DB	099H
	DB	0ceH
	DB	09aH
	DB	0d6H
	DB	099H
	DB	0ceH
	DB	099H
	DB	0d6H
	DB	09aH
	DB	0ceH
	DB	099H
	DB	0d6H
	DB	0baH
	DB	0d6H
	DB	09aH
	DB	0ceH
	DB	0b9H
	DB	0d6H
	DB	0baH
	DB	0d6H
	DB	0baH
	DB	0d6H
	DB	09aH
	DB	0d6H
	DB	099H
	DB	0d6H
	DB	09aH
	DB	0d6H
	DB	09aH
	DB	0d6H
	DB	099H
	DB	0d6H
	DB	09aH
	DB	0d6H
	DB	09aH
	DB	0d6H
	DB	099H
	DB	0d6H
	DB	09aH
	DB	0d6H
	DB	09aH
	DB	0d6H
	DB	099H
	DB	0d6H
	DB	09aH
	DB	0d6H
	DB	09aH
	DB	0d6H
	DB	09aH
	DB	0d6H
	DB	09aH
	DB	0d6H
	DB	09aH
	DB	0ceH
	DB	09aH
	DB	0d6H
	DB	099H
	DB	0ceH
	DB	09aH
	DB	0d6H
	DB	09aH
	DB	0d6H
	DB	099H
	DB	0d6H
	DB	09aH
	DB	0ceH
	DB	09aH
	DB	0ceH
	DB	09aH
	DB	0d6H
	DB	09aH
	DB	0ceH
	DB	099H
	DB	0ceH
	DB	09aH
	DB	0d6H
	DB	099H
	DB	0ceH
	DB	09aH
	DB	0ceH
	DB	09aH
	DB	0d6H
	DB	099H
	DB	0d6H
	DB	079H
	DB	0ceH
	DB	079H
	DB	0ceH
	DB	079H
	DB	0ceH
	DB	038H
	DB	0ceH
	DB	038H
	DB	0c6H
	DB	058H
	DB	0c6H
	DB	038H
	DB	0c6H
	DB	038H
	DB	0ceH
	DB	038H
	DB	0c6H
	DB	038H
	DB	0ceH
	DB	038H
	DB	0c6H
	DB	058H
	DB	0ceH
	DB	038H
	DB	0c6H
	DB	038H
	DB	0c6H
	DB	058H
	DB	0c6H
	DB	038H
	DB	0c6H
	DB	038H
	DB	0ceH
	DB	038H
	DB	0c6H
	DB	058H
	DB	0c6H
	DB	038H
	DB	0ceH
	DB	038H
	DB	0c6H
	DB	038H
	DB	0c6H
	DB	038H
	DB	0c6H
	DB	038H
	DB	0c6H
	DB	038H
	DB	0c6H
	DB	038H
	DB	0c6H
	DB	038H
	DB	0c6H
	DB	038H
	DB	0c6H
	DB	038H
	DB	0ceH
	DB	038H
	DB	0c6H
	DB	038H
	DB	0c6H
	DB	058H
	DB	0ceH
	DB	038H
	DB	0c6H
	DB	058H
	DB	0c6H
	DB	058H
	DB	0ceH
	DB	038H
	DB	0c6H
	DB	058H
	DB	0c6H
	DB	038H
	DB	0ceH
	DB	038H
	DB	0c6H
	DB	058H
	DB	0ceH
	DB	038H
	DB	0c6H
	DB	038H
	DB	0ceH
	DB	058H
	DB	0c6H
	DB	038H
	DB	0c6H
	DB	038H
	DB	0ceH
	DB	058H
	DB	0c6H
	DB	038H
	DB	0c6H
	DB	038H
	DB	0c6H
	DB	058H
	DB	0c6H
	DB	038H
	DB	0c6H
	DB	038H
	DB	0c6H
	DB	058H
	DB	0c6H
	DB	038H
	DB	0c6H
	DB	058H
	DB	0c6H
	DB	038H
	DB	0c6H
	DB	058H
	DB	0c6H
	DB	038H
	DB	0c6H
	DB	058H
	DB	0c6H
	DB	038H
	DB	0c6H
	DB	058H
	DB	0c6H
	DB	038H
	DB	0c6H
	DB	038H
	DB	0c6H
	DB	038H
	DB	0c6H
	DB	058H
	DB	0c6H
	DB	058H
	DB	0c6H
	DB	038H
	DB	0c6H
	DB	038H
	DB	0ceH
	DB	058H
	DB	0c6H
	DB	038H
	DB	0c6H
	DB	038H
	DB	0c6H
	DB	038H
	DB	0ceH
	DB	038H
	DB	0ceH
	DB	038H
	DB	0c6H
	DB	038H
	DB	0ceH
	DB	038H
	DB	0ceH
	DB	038H
	DB	0c6H
	DB	038H
	DB	0c6H
	DB	038H
	DB	0c6H
	DB	058H
	DB	0c6H
	DB	058H
	DB	0c6H
	DB	038H
	DB	0c6H
	DB	079H
	DB	0d6H
	DB	030H
	DB	084H
	DB	099H
	DB	0ceH
	DB	038H
	DB	0c6H
	DB	038H
	DB	0c6H
	DB	057H
	DB	0c6H
	DB	038H
	DB	0c6H
	DB	038H
	DB	0c6H
	DB	038H
	DB	0c6H
	DB	038H
	DB	0c6H
	DB	038H
	DB	0c6H
	DB	038H
	DB	0ceH
	DB	038H
	DB	0c6H
	DB	037H
	DB	0c6H
	DB	038H
	DB	0c6H
	DB	038H
	DB	0c6H
	DB	038H
	DB	0c6H
	DB	038H
	DB	0ceH
	DB	038H
	DB	0c6H
	DB	038H
	DB	0c6H
	DB	038H
	DB	0c6H
	DB	038H
	DB	0ceH
	DB	038H
	DB	0c6H
	DB	038H
	DB	0c6H
	DB	038H
	DB	0c6H
	DB	037H
	DB	0ceH
	DB	038H
	DB	0c6H
	DB	037H
	DB	0c6H
	DB	038H
	DB	0c6H
	DB	038H
	DB	0ceH
	DB	037H
	DB	0c6H
	DB	038H
	DB	0c6H
	DB	038H
	DB	0c6H
	DB	038H
	DB	0ceH
	DB	038H
	DB	0c6H
	DB	018H
	DB	0c6H
	DB	038H
	DB	0c6H
	DB	038H
	DB	0c6H
	DB	038H
	DB	0ceH
	DB	037H
	DB	0c6H
	DB	018H
	DB	0c6H
	DB	038H
	DB	0c6H
	DB	038H
	DB	0c6H
	DB	017H
	DB	0c6H
	DB	038H
	DB	0c6H
	DB	038H
	DB	0c6H
	DB	017H
	DB	0c6H
	DB	037H
	DB	0c6H
	DB	038H
	DB	0c6H
	DB	038H
	DB	0ceH
	DB	018H
	DB	0c6H
	DB	038H
	DB	0c6H
	DB	038H
	DB	0c6H
	DB	037H
	DB	0c6H
	DB	038H
	DB	0c6H
	DB	038H
	DB	0c6H
	DB	037H
	DB	0c6H
	DB	018H
	DB	0c6H
	DB	037H
	DB	0c6H
	DB	037H
	DB	0c6H
	DB	038H
	DB	0c6H
	DB	038H
	DB	0c6H
	DB	038H
	DB	0c6H
	DB	038H
	DB	0c6H
	DB	018H
	DB	0c6H
	DB	038H
	DB	0c6H
	DB	038H
	DB	0c6H
	DB	018H
	DB	0c6H
	DB	038H
	DB	0c6H
	DB	037H
	DB	0c6H
	DB	038H
	DB	0c6H
	DB	038H
	DB	0c6H
	DB	037H
	DB	0c6H
	DB	038H
	DB	0c6H
	DB	038H
	DB	0c6H
	DB	037H
	DB	0c6H
	DB	038H
	DB	0c6H
	DB	038H
	DB	0c6H
	DB	038H
	DB	0c6H
	DB	038H
	DB	0c6H
	DB	038H
	DB	0c6H
	DB	038H
	DB	0c6H
	DB	058H
	DB	0c6H
	DB	058H
	DB	0c6H
	DB	058H
	DB	0ceH
	DB	038H
	DB	0c6H
	DB	058H
	DB	0c6H
	DB	058H
	DB	0c6H
	DB	058H
	DB	0ceH
	DB	058H
	DB	0c6H
	DB	058H
	DB	0ceH
	DB	058H
	DB	0ceH
	DB	058H
	DB	0c6H
	DB	058H
	DB	0ceH
	DB	058H
	DB	0c6H
	DB	058H
	DB	0ceH
	DB	059H
	DB	0c6H
	DB	058H
	DB	0c6H
	DB	058H
	DB	0ceH
	DB	058H
	DB	0c6H
	DB	059H
	DB	0c6H
	DB	058H
	DB	0c6H
	DB	058H
	DB	0ceH
	DB	059H
	DB	0c6H
	DB	058H
	DB	0ceH
	DB	059H
	DB	0ceH
	DB	059H
	DB	0ceH
	DB	058H
	DB	0c6H
	DB	059H
	DB	0ceH
	DB	058H
	DB	0ceH
	DB	059H
	DB	0c6H
	DB	058H
	DB	0ceH
	DB	059H
	DB	0ceH
	DB	059H
	DB	0c6H
	DB	058H
	DB	0ceH
	DB	058H
	DB	0ceH
	DB	059H
	DB	0ceH
	DB	058H
	DB	0c6H
	DB	058H
	DB	0ceH
	DB	058H
	DB	0c6H
	DB	058H
	DB	0c6H
	DB	058H
	DB	0ceH
	DB	079H
	DB	0c6H
	DB	058H
	DB	0c6H
	DB	058H
	DB	0ceH
	DB	059H
	DB	0c6H
	DB	058H
	DB	0c6H
	DB	059H
	DB	0ceH
	DB	058H
	DB	0ceH
	DB	058H
	DB	0c6H
	DB	058H
	DB	0ceH
	DB	058H
	DB	0c6H
	DB	079H
	DB	0ceH
	DB	058H
	DB	0ceH
	DB	058H
	DB	0c6H
	DB	079H
	DB	0c6H
	DB	058H
	DB	0ceH
	DB	058H
	DB	0ceH
	DB	059H
	DB	0c6H
	DB	079H
	DB	0ceH
	DB	079H
	DB	0ceH
	DB	078H
	DB	0ceH
	DB	079H
	DB	0ceH
	DB	058H
	DB	0ceH
	DB	078H
	DB	0ceH
	DB	079H
	DB	0c6H
	DB	058H
	DB	0ceH
	DB	078H
	DB	0ceH
	DB	059H
	DB	0c6H
	DB	078H
	DB	0ceH
	DB	058H
	DB	0ceH
	DB	079H
	DB	0c6H
	DB	059H
	DB	0ceH
	DB	058H
	DB	0c6H
	DB	079H
	DB	0ceH
	DB	059H
	DB	0ceH
	DB	058H
	DB	0c6H
	DB	079H
	DB	0ceH
	DB	079H
	DB	0c6H
	DB	058H
	DB	0ceH
	DB	078H
	DB	0c6H
	DB	079H
	DB	0ceH
	DB	058H
	DB	0c6H
	DB	058H
	DB	0ceH
	DB	079H
	DB	0ceH
	DB	059H
	DB	0ceH
	DB	059H
	DB	0ceH
	DB	059H
	DB	0ceH
	DB	059H
	DB	0ceH
	DB	059H
	DB	0ceH
	DB	079H
	DB	0ceH
	DB	079H
	DB	0ceH
	DB	079H
	DB	0c6H
	DB	079H
	DB	0ceH
	DB	078H
	DB	0ceH
	DB	078H
	DB	0ceH
	DB	079H
	DB	0ceH
	DB	078H
	DB	0ceH
	DB	059H
	DB	0ceH
	DB	078H
	DB	0ceH
	DB	058H
	DB	0ceH
	DB	059H
	DB	0ceH
	DB	078H
	DB	0ceH
	DB	058H
	DB	0ceH
	DB	078H
	DB	0ceH
	DB	078H
	DB	0ceH
	DB	059H
	DB	0ceH
	DB	059H
	DB	0ceH
	DB	078H
	DB	0ceH
	DB	059H
	DB	0ceH
	DB	079H
	DB	0ceH
	DB	079H
	DB	0ceH
	DB	079H
	DB	0ceH
	DB	079H
	DB	0ceH
	DB	078H
	DB	0ceH
	DB	079H
	DB	0ceH
	DB	079H
	DB	0ceH
	DB	079H
	DB	0ceH
	DB	079H
	DB	0ceH
	DB	079H
	DB	0ceH
	DB	079H
	DB	0ceH
	DB	079H
	DB	0ceH
	DB	058H
	DB	0ceH
	DB	059H
	DB	0ceH
	DB	079H
	DB	0ceH
	DB	079H
	DB	0ceH
	DB	059H
	DB	0ceH
	DB	079H
	DB	0ceH
	DB	059H
	DB	0ceH
	DB	059H
	DB	0ceH
	DB	079H
	DB	0ceH
	DB	059H
	DB	0ceH
	DB	059H
	DB	0ceH
	DB	079H
	DB	0ceH
	DB	059H
	DB	0ceH
	DB	079H
	DB	0ceH
	DB	079H
	DB	0ceH
	DB	079H
	DB	0ceH
	DB	079H
	DB	0ceH
	DB	079H
	DB	0ceH
	DB	079H
	DB	0ceH
	DB	079H
	DB	0ceH
	DB	079H
	DB	0ceH
	DB	079H
	DB	0ceH
	DB	079H
	DB	0ceH
	DB	079H
	DB	0ceH
	DB	079H
	DB	0ceH
	DB	079H
	DB	0ceH
	DB	079H
	DB	0ceH
	DB	079H
	DB	0d6H
	DB	079H
	DB	0ceH
	DB	079H
	DB	0ceH
	DB	079H
	DB	0d6H
	DB	079H
	DB	0ceH
	DB	079H
	DB	0ceH
	DB	079H
	DB	0ceH
	DB	079H
	DB	0ceH
	DB	079H
	DB	0d6H
	DB	079H
	DB	0ceH
	DB	079H
	DB	0ceH
	DB	079H
	DB	0d6H
	DB	079H
	DB	0d6H
	DB	079H
	DB	0d6H
	DB	079H
	DB	0ceH
	DB	079H
	DB	0d6H
	DB	079H
	DB	0ceH
	DB	079H
	DB	0ceH
	DB	07aH
	DB	0d6H
	DB	079H
	DB	0ceH
	DB	079H
	DB	0d6H
	DB	079H
	DB	0ceH
	DB	079H
	DB	0d6H
	DB	07aH
	DB	0ceH
	DB	079H
	DB	0ceH
	DB	079H
	DB	0d6H
	DB	09aH
	DB	0d6H
	DB	07aH
	DB	0ceH
	DB	079H
	DB	0ceH
	DB	099H
	DB	0d6H
	DB	09aH
	DB	0d6H
	DB	09aH
	DB	0d6H
	DB	099H
	DB	0ceH
	DB	079H
	DB	0d6H
	DB	099H
	DB	0ceH
	DB	079H
	DB	0ceH
	DB	09aH
	DB	0d6H
	DB	099H
	DB	0d6H
	DB	099H
	DB	0ceH
	DB	07aH
	DB	0d6H
	DB	079H
	DB	0ceH
	DB	079H
	DB	0d6H
	DB	079H
	DB	0ceH
	DB	09aH
	DB	0d6H
	DB	099H
	DB	0d6H
	DB	079H
	DB	0ceH
	DB	07aH
	DB	0ceH
	DB	099H
	DB	0d6H
	DB	09aH
	DB	0d6H
	DB	09aH
	DB	0d6H
	DB	09aH
	DB	0d6H
	DB	09aH
	DB	0ceH
	DB	099H
	DB	0d6H
	DB	09aH
	DB	0d6H
	DB	09aH
	DB	0d6H
	DB	09aH
	DB	0d6H
	DB	099H
	DB	0d6H
	DB	099H
	DB	0d6H
	DB	09aH
	DB	0ceH
	DB	099H
	DB	0d6H
	DB	099H
	DB	0d6H
	DB	07aH
	DB	0ceH
	DB	099H
	DB	0d6H
	DB	07aH
	DB	0d6H
	DB	099H
	DB	0ceH
	DB	09aH
	DB	0ceH
	DB	079H
	DB	0d6H
	DB	099H
	DB	0d6H
	DB	09aH
	DB	0ceH
	DB	09aH
	DB	0ceH
	DB	09aH
	DB	0d6H
	DB	09aH
	DB	0d6H
	DB	09aH
	DB	0d6H
	DB	09aH
	DB	0d6H
	DB	09aH
	DB	0d6H
	DB	09aH
	DB	0d6H
	DB	09aH
	DB	0d6H
	DB	099H
	DB	0ceH
	DB	099H
	DB	0d6H
	DB	09aH
	DB	0d6H
	DB	09aH
	DB	0d6H
	DB	09aH
	DB	0d6H
	DB	099H
	DB	0d6H
	DB	09aH
	DB	0d6H
	DB	09aH
	DB	0d6H
	DB	099H
	DB	0ceH
	DB	09aH
	DB	0d6H
	DB	09aH
	DB	0ceH
	DB	099H
	DB	0d6H
	DB	09aH
	DB	0d6H
	DB	09aH
	DB	0d6H
	DB	099H
	DB	0d6H
	DB	09aH
	DB	0d6H
	DB	09aH
	DB	0d6H
	DB	099H
	DB	0d6H
	DB	09aH
	DB	0d6H
	DB	09aH
	DB	0d6H
	DB	09aH
	DB	0ceH
	DB	09aH
	DB	0d6H
	DB	09aH
	DB	0d6H
	DB	099H
	DB	0d6H
	DB	09aH
	DB	0d6H
	DB	09aH
	DB	0d6H
	DB	099H
	DB	0d6H
	DB	09aH
	DB	0d6H
	DB	09aH
	DB	0d6H
	DB	09aH
	DB	0d6H
	DB	099H
	DB	0d6H
	DB	09aH
	DB	0d6H
	DB	0baH
	DB	0d6H
	DB	0b9H
	DB	0d6H
	DB	099H
	DB	0d6H
	DB	09aH
	DB	0d6H
	DB	0baH
	DB	0d6H
	DB	099H
	DB	0d6H
	DB	09aH
	DB	0d6H
	DB	0baH
	DB	0ceH
	DB	099H
	DB	0d6H
	DB	09aH
	DB	0d6H
	DB	0baH
	DB	0d6H
	DB	099H
	DB	0d6H
	DB	09aH
	DB	0d6H
	DB	0baH
	DB	0d6H
	DB	099H
	DB	0d6H
	DB	09aH
	DB	0d6H
	DB	0baH
	DB	0d6H
	DB	09aH
	DB	0d6H
	DB	09aH
	DB	0d6H
	DB	0baH
	DB	0d6H
	DB	0baH
	DB	0d6H
	DB	0baH
	DB	0d6H
	DB	0baH
	DB	0d6H
	DB	0baH
	DB	0d6H
	DB	0b9H
	DB	0d6H
	DB	0baH
	DB	0d6H
	DB	0b9H
	DB	0d6H
	DB	0baH
	DB	0d6H
	DB	0baH
	DB	0d6H
	DB	0b9H
	DB	0d6H
	DB	099H
	DB	0d6H
	DB	0baH
	DB	0d6H
	DB	0baH
	DB	0d6H
	DB	09aH
	DB	0d6H
	DB	0baH
	DB	0d6H
	DB	09aH
	DB	0d6H
	DB	0baH
	DB	0d6H
	DB	0baH
	DB	0d6H
	DB	099H
	DB	0ceH
	DB	09aH
	DB	0d6H
	DB	099H
	DB	0d6H
	DB	09aH
	DB	0d6H
	DB	09aH
	DB	0d6H
	DB	099H
	DB	0d6H
	DB	09aH
	DB	0d6H
	DB	09aH
	DB	0d6H
	DB	099H
	DB	0d6H
	DB	09aH
	DB	0d6H
	DB	0b9H
	DB	0ceH
	DB	0baH
	DB	0d6H
	DB	0baH
	DB	0d6H
	DB	0b9H
	DB	0ceH
	DB	09aH
	DB	0ceH
	DB	0b9H
	DB	0d6H
	DB	099H
	DB	0ceH
	DB	09aH
	DB	0ceH
	DB	09aH
	DB	0d6H
	DB	09aH
	DB	0d6H
	DB	09aH
	DB	0d6H
	DB	09aH
	DB	0d6H
	DB	09aH
	DB	0d6H
	DB	0baH
	DB	0d6H
	DB	09aH
	DB	0d6H
	DB	09aH
	DB	0d6H
	DB	09aH
	DB	0d6H
	DB	09aH
	DB	0d6H
	DB	09aH
	DB	0d6H
	DB	09aH
	DB	0d6H
	DB	099H
	DB	0d6H
	DB	09aH
	DB	0d6H
	DB	09aH
	DB	0d6H
	DB	09aH
	DB	0d6H
	DB	09aH
	DB	0d6H
	DB	09aH
	DB	0d6H
	DB	09aH
	DB	0d6H
	DB	09aH
	DB	0d6H
	DB	0baH
	DB	0d6H
	DB	09aH
	DB	0d6H
	DB	09aH
	DB	0d6H
	DB	099H
	DB	0d6H
	DB	09aH
	DB	0d6H
	DB	0baH
	DB	0d6H
	DB	09aH
	DB	0d6H
	DB	0baH
	DB	0d6H
	DB	099H
	DB	0d6H
	DB	099H
	DB	0d6H
	DB	0baH
	DB	0d6H
	DB	099H
	DB	0d6H
	DB	09aH
	DB	0d6H
	DB	09aH
	DB	0d6H
	DB	099H
	DB	0d6H
	DB	079H
	DB	0ceH
	DB	079H
	DB	0ceH
	DB	038H
	DB	0ceH
	DB	038H
	DB	0c6H
	DB	038H
	DB	0ceH
	DB	038H
	DB	0c6H
	DB	038H
	DB	0c6H
	DB	058H
	DB	0ceH
	DB	038H
	DB	0c6H
	DB	038H
	DB	0c6H
	DB	058H
	DB	0ceH
	DB	038H
	DB	0c6H
	DB	038H
	DB	0ceH
	DB	038H
	DB	0c6H
	DB	058H
	DB	0ceH
	DB	038H
	DB	0c6H
	DB	038H
	DB	0c6H
	DB	038H
	DB	0ceH
	DB	038H
	DB	0c6H
	DB	038H
	DB	0c6H
	DB	038H
	DB	0c6H
	DB	038H
	DB	0c6H
	DB	038H
	DB	0ceH
	DB	038H
	DB	0c6H
	DB	038H
	DB	0ceH
	DB	038H
	DB	0c6H
	DB	038H
	DB	0c6H
	DB	038H
	DB	0c6H
	DB	038H
	DB	0c6H
	DB	038H
	DB	0ceH
	DB	038H
	DB	0c6H
	DB	038H
	DB	0c6H
	DB	038H
	DB	0ceH
	DB	038H
	DB	0ceH
	DB	038H
	DB	0c6H
	DB	058H
	DB	0c6H
	DB	038H
	DB	0c6H
	DB	038H
	DB	0ceH
	DB	058H
	DB	0c6H
	DB	038H
	DB	0c6H
	DB	038H
	DB	0ceH
	DB	038H
	DB	0c6H
	DB	038H
	DB	0ceH
	DB	038H
	DB	0ceH
	DB	038H
	DB	0c6H
	DB	038H
	DB	0ceH
	DB	058H
	DB	0c6H
	DB	058H
	DB	0c6H
	DB	038H
	DB	0ceH
	DB	058H
	DB	0c6H
	DB	038H
	DB	0c6H
	DB	038H
	DB	0c6H
	DB	058H
	DB	0c6H
	DB	058H
	DB	0c6H
	DB	038H
	DB	0c6H
	DB	058H
	DB	0ceH
	DB	038H
	DB	0c6H
	DB	058H
	DB	0c6H
	DB	058H
	DB	0ceH
	DB	038H
	DB	0c6H
	DB	058H
	DB	0c6H
	DB	058H
	DB	0c6H
	DB	038H
	DB	0c6H
	DB	058H
	DB	0c6H
	DB	058H
	DB	0c6H
	DB	038H
	DB	0c6H
	DB	058H
	DB	0c6H
	DB	058H
	DB	0c6H
	DB	038H
	DB	0c6H
	DB	058H
	DB	0c6H
	DB	058H
	DB	0c6H
	DB	058H
	DB	0c6H
	DB	058H
	DB	0c6H
	DB	038H
	DB	0c6H
	DB	058H
	DB	0ceH
	DB	038H
	DB	0ceH
	DB	038H
	DB	0c6H
	DB	038H
	DB	0c6H
	DB	038H
	DB	0c6H
	DB	038H
	DB	0c6H
	DB	079H
	DB	0d6H
	DB	02fH
	DB	084H
	DB	079H
	DB	0ceH
	DB	038H
	DB	0c6H
	DB	038H
	DB	0c6H
	DB	058H
	DB	0c6H
	DB	038H
	DB	0c6H
	DB	038H
	DB	0c6H
	DB	057H
	DB	0c6H
	DB	038H
	DB	0c6H
	DB	038H
	DB	0c6H
	DB	038H
	DB	0c6H
	DB	038H
	DB	0ceH
	DB	037H
	DB	0c6H
	DB	038H
	DB	0c6H
	DB	038H
	DB	0c6H
	DB	037H
	DB	0c6H
	DB	038H
	DB	0c6H
	DB	038H
	DB	0ceH
	DB	038H
	DB	0c6H
	DB	038H
	DB	0c6H
	DB	038H
	DB	0c6H
	DB	037H
	DB	0ceH
	DB	038H
	DB	0c6H
	DB	038H
	DB	0c6H
	DB	038H
	DB	0ceH
	DB	038H
	DB	0c6H
	DB	038H
	DB	0c6H
	DB	038H
	DB	0c6H
	DB	037H
	DB	0c6H
	DB	038H
	DB	0c6H
	DB	018H
	DB	0c6H
	DB	037H
	DB	0c6H
	DB	037H
	DB	0c6H
	DB	038H
	DB	0c6H
	DB	037H
	DB	0c6H
	DB	038H
	DB	0c6H
	DB	038H
	DB	0c6H
	DB	037H
	DB	0c6H
	DB	038H
	DB	0c6H
	DB	038H
	DB	0c6H
	DB	037H
	DB	0c6H
	DB	038H
	DB	0c6H
	DB	038H
	DB	0c6H
	DB	038H
	DB	0c6H
	DB	038H
	DB	0c6H
	DB	038H
	DB	0c6H
	DB	038H
	DB	0c6H
	DB	037H
	DB	0c6H
	DB	038H
	DB	0c6H
	DB	038H
	DB	0c6H
	DB	037H
	DB	0c6H
	DB	038H
	DB	0c6H
	DB	018H
	DB	0c6H
	DB	038H
	DB	0c6H
	DB	038H
	DB	0c6H
	DB	038H
	DB	0ceH
	DB	038H
	DB	0c6H
	DB	018H
	DB	0c6H
	DB	038H
	DB	0c6H
	DB	038H
	DB	0c6H
	DB	017H
	DB	0c6H
	DB	038H
	DB	0ceH
	DB	037H
	DB	0c6H
	DB	037H
	DB	0c6H
	DB	038H
	DB	0c6H
	DB	037H
	DB	0c6H
	DB	038H
	DB	0c6H
	DB	038H
	DB	0c6H
	DB	018H
	DB	0c6H
	DB	038H
	DB	0c6H
	DB	038H
	DB	0c6H
	DB	018H
	DB	0c6H
	DB	018H
	DB	0c6H
	DB	038H
	DB	0c6H
	DB	018H
	DB	0c6H
	DB	017H
	DB	0c6H
	DB	017H
	DB	0c6H
	DB	018H
	DB	0c6H
	DB	017H
	DB	0c6H
	DB	017H
	DB	0c6H
	DB	038H
	DB	0c6H
	DB	058H
	DB	0c6H
	DB	058H
	DB	0c6H
	DB	038H
	DB	0c6H
	DB	058H
	DB	0c6H
	DB	058H
	DB	0ceH
	DB	058H
	DB	0ceH
	DB	058H
	DB	0c6H
	DB	058H
	DB	0c6H
	DB	058H
	DB	0c6H
	DB	059H
	DB	0c6H
	DB	058H
	DB	0c6H
	DB	058H
	DB	0c6H
	DB	059H
	DB	0ceH
	DB	058H
	DB	0c6H
	DB	058H
	DB	0c6H
	DB	059H
	DB	0ceH
	DB	058H
	DB	0c6H
	DB	058H
	DB	0ceH
	DB	059H
	DB	0ceH
	DB	058H
	DB	0ceH
	DB	059H
	DB	0c6H
	DB	058H
	DB	0ceH
	DB	058H
	DB	0c6H
	DB	059H
	DB	0ceH
	DB	058H
	DB	0c6H
	DB	058H
	DB	0ceH
	DB	058H
	DB	0c6H
	DB	059H
	DB	0c6H
	DB	058H
	DB	0ceH
	DB	058H
	DB	0c6H
	DB	058H
	DB	0ceH
	DB	059H
	DB	0c6H
	DB	058H
	DB	0c6H
	DB	059H
	DB	0ceH
	DB	058H
	DB	0c6H
	DB	059H
	DB	0ceH
	DB	059H
	DB	0c6H
	DB	058H
	DB	0ceH
	DB	079H
	DB	0c6H
	DB	058H
	DB	0ceH
	DB	058H
	DB	0c6H
	DB	079H
	DB	0ceH
	DB	058H
	DB	0ceH
	DB	079H
	DB	0ceH
	DB	079H
	DB	0ceH
	DB	078H
	DB	0c6H
	DB	079H
	DB	0ceH
	DB	059H
	DB	0c6H
	DB	058H
	DB	0ceH
	DB	079H
	DB	0c6H
	DB	058H
	DB	0ceH
	DB	058H
	DB	0ceH
	DB	059H
	DB	0c6H
	DB	058H
	DB	0c6H
	DB	059H
	DB	0ceH
	DB	078H
	DB	0c6H
	DB	079H
	DB	0ceH
	DB	058H
	DB	0c6H
	DB	058H
	DB	0c6H
	DB	079H
	DB	0c6H
	DB	059H
	DB	0ceH
	DB	058H
	DB	0c6H
	DB	078H
	DB	0ceH
	DB	059H
	DB	0c6H
	DB	059H
	DB	0ceH
	DB	078H
	DB	0ceH
	DB	059H
	DB	0c6H
	DB	058H
	DB	0ceH
	DB	079H
	DB	0c6H
	DB	079H
	DB	0ceH
	DB	078H
	DB	0ceH
	DB	079H
	DB	0ceH
	DB	078H
	DB	0c6H
	DB	058H
	DB	0ceH
	DB	059H
	DB	0ceH
	DB	078H
	DB	0c6H
	DB	059H
	DB	0ceH
	DB	079H
	DB	0ceH
	DB	079H
	DB	0ceH
	DB	079H
	DB	0ceH
	DB	079H
	DB	0ceH
	DB	078H
	DB	0ceH
	DB	079H
	DB	0ceH
	DB	059H
	DB	0ceH
	DB	079H
	DB	0ceH
	DB	079H
	DB	0ceH
	DB	079H
	DB	0ceH
	DB	059H
	DB	0ceH
	DB	078H
	DB	0ceH
	DB	078H
	DB	0ceH
	DB	079H
	DB	0ceH
	DB	058H
	DB	0c6H
	DB	079H
	DB	0ceH
	DB	059H
	DB	0c6H
	DB	078H
	DB	0ceH
	DB	079H
	DB	0c6H
	DB	059H
	DB	0ceH
	DB	078H
	DB	0ceH
	DB	059H
	DB	0ceH
	DB	079H
	DB	0ceH
	DB	059H
	DB	0ceH
	DB	059H
	DB	0ceH
	DB	079H
	DB	0ceH
	DB	079H
	DB	0ceH
	DB	059H
	DB	0ceH
	DB	079H
	DB	0ceH
	DB	079H
	DB	0ceH
	DB	079H
	DB	0ceH
	DB	079H
	DB	0ceH
	DB	079H
	DB	0ceH
	DB	079H
	DB	0ceH
	DB	079H
	DB	0ceH
	DB	079H
	DB	0ceH
	DB	079H
	DB	0ceH
	DB	059H
	DB	0ceH
	DB	079H
	DB	0ceH
	DB	059H
	DB	0ceH
	DB	079H
	DB	0ceH
	DB	059H
	DB	0ceH
	DB	079H
	DB	0ceH
	DB	079H
	DB	0ceH
	DB	079H
	DB	0ceH
	DB	079H
	DB	0ceH
	DB	059H
	DB	0ceH
	DB	079H
	DB	0ceH
	DB	079H
	DB	0ceH
	DB	079H
	DB	0ceH
	DB	079H
	DB	0ceH
	DB	079H
	DB	0ceH
	DB	079H
	DB	0ceH
	DB	079H
	DB	0ceH
	DB	079H
	DB	0ceH
	DB	079H
	DB	0ceH
	DB	059H
	DB	0ceH
	DB	079H
	DB	0ceH
	DB	079H
	DB	0ceH
	DB	079H
	DB	0ceH
	DB	079H
	DB	0ceH
	DB	079H
	DB	0ceH
	DB	079H
	DB	0ceH
	DB	079H
	DB	0d6H
	DB	079H
	DB	0ceH
	DB	079H
	DB	0ceH
	DB	079H
	DB	0d6H
	DB	079H
	DB	0ceH
	DB	079H
	DB	0ceH
	DB	079H
	DB	0d6H
	DB	079H
	DB	0ceH
	DB	079H
	DB	0d6H
	DB	079H
	DB	0d6H
	DB	079H
	DB	0ceH
	DB	079H
	DB	0d6H
	DB	079H
	DB	0d6H
	DB	079H
	DB	0ceH
	DB	079H
	DB	0d6H
	DB	079H
	DB	0ceH
	DB	07aH
	DB	0ceH
	DB	079H
	DB	0ceH
	DB	079H
	DB	0ceH
	DB	07aH
	DB	0d6H
	DB	079H
	DB	0ceH
	DB	079H
	DB	0ceH
	DB	099H
	DB	0d6H
	DB	079H
	DB	0ceH
	DB	099H
	DB	0d6H
	DB	079H
	DB	0ceH
	DB	09aH
	DB	0ceH
	DB	079H
	DB	0d6H
	DB	09aH
	DB	0d6H
	DB	09aH
	DB	0ceH
	DB	099H
	DB	0d6H
	DB	09aH
	DB	0d6H
	DB	099H
	DB	0ceH
	DB	09aH
	DB	0d6H
	DB	099H
	DB	0d6H
	DB	079H
	DB	0d6H
	DB	09aH
	DB	0ceH
	DB	079H
	DB	0ceH
	DB	079H
	DB	0d6H
	DB	09aH
	DB	0ceH
	DB	079H
	DB	0d6H
	DB	07aH
	DB	0ceH
	DB	099H
	DB	0d6H
	DB	079H
	DB	0ceH
	DB	07aH
	DB	0d6H
	DB	099H
	DB	0d6H
	DB	099H
	DB	0ceH
	DB	07aH
	DB	0ceH
	DB	099H
	DB	0d6H
	DB	09aH
	DB	0d6H
	DB	09aH
	DB	0ceH
	DB	099H
	DB	0d6H
	DB	079H
	DB	0ceH
	DB	07aH
	DB	0ceH
	DB	09aH
	DB	0d6H
	DB	099H
	DB	0ceH
	DB	099H
	DB	0d6H
	DB	07aH
	DB	0d6H
	DB	099H
	DB	0ceH
	DB	099H
	DB	0d6H
	DB	07aH
	DB	0ceH
	DB	099H
	DB	0ceH
	DB	09aH
	DB	0d6H
	DB	079H
	DB	0d6H
	DB	09aH
	DB	0ceH
	DB	07aH
	DB	0ceH
	DB	099H
	DB	0d6H
	DB	09aH
	DB	0d6H
	DB	09aH
	DB	0ceH
	DB	079H
	DB	0d6H
	DB	09aH
	DB	0d6H
	DB	09aH
	DB	0ceH
	DB	099H
	DB	0d6H
	DB	09aH
	DB	0d6H
	DB	079H
	DB	0d6H
	DB	099H
	DB	0d6H
	DB	099H
	DB	0ceH
	DB	09aH
	DB	0d6H
	DB	09aH
	DB	0d6H
	DB	09aH
	DB	0ceH
	DB	09aH
	DB	0d6H
	DB	099H
	DB	0d6H
	DB	09aH
	DB	0ceH
	DB	09aH
	DB	0d6H
	DB	099H
	DB	0d6H
	DB	09aH
	DB	0ceH
	DB	099H
	DB	0d6H
	DB	099H
	DB	0d6H
	DB	09aH
	DB	0ceH
	DB	09aH
	DB	0d6H
	DB	09aH
	DB	0d6H
	DB	099H
	DB	0d6H
	DB	099H
	DB	0d6H
	DB	09aH
	DB	0d6H
	DB	09aH
	DB	0d6H
	DB	099H
	DB	0ceH
	DB	09aH
	DB	0d6H
	DB	09aH
	DB	0ceH
	DB	099H
	DB	0d6H
	DB	09aH
	DB	0d6H
	DB	09aH
	DB	0ceH
	DB	099H
	DB	0d6H
	DB	09aH
	DB	0d6H
	DB	09aH
	DB	0d6H
	DB	099H
	DB	0d6H
	DB	09aH
	DB	0d6H
	DB	09aH
	DB	0d6H
	DB	099H
	DB	0ceH
	DB	09aH
	DB	0d6H
	DB	0baH
	DB	0d6H
	DB	09aH
	DB	0ceH
	DB	09aH
	DB	0d6H
	DB	0baH
	DB	0d6H
	DB	099H
	DB	0d6H
	DB	09aH
	DB	0ceH
	DB	0baH
	DB	0d6H
	DB	09aH
	DB	0d6H
	DB	09aH
	DB	0ceH
	DB	09aH
	DB	0d6H
	DB	09aH
	DB	0d6H
	DB	0baH
	DB	0d6H
	DB	09aH
	DB	0d6H
	DB	09aH
	DB	0d6H
	DB	0baH
	DB	0d6H
	DB	09aH
	DB	0d6H
	DB	09aH
	DB	0d6H
	DB	0baH
	DB	0ceH
	DB	09aH
	DB	0d6H
	DB	09aH
	DB	0d6H
	DB	0baH
	DB	0ceH
	DB	099H
	DB	0d6H
	DB	09aH
	DB	0d6H
	DB	09aH
	DB	0ceH
	DB	099H
	DB	0d6H
	DB	0baH
	DB	0d6H
	DB	0baH
	DB	0d6H
	DB	09aH
	DB	0d6H
	DB	09aH
	DB	0d6H
	DB	0baH
	DB	0d6H
	DB	09aH
	DB	0d6H
	DB	09aH
	DB	0d6H
	DB	09aH
	DB	0d6H
	DB	099H
	DB	0d6H
	DB	09aH
	DB	0d6H
	DB	0baH
	DB	0d6H
	DB	099H
	DB	0d6H
	DB	0baH
	DB	0d6H
	DB	0baH
	DB	0d6H
	DB	09aH
	DB	0d6H
	DB	0baH
	DB	0d6H
	DB	099H
	DB	0d6H
	DB	0baH
	DB	0d6H
	DB	0b9H
	DB	0d6H
	DB	0baH
	DB	0d6H
	DB	0b9H
	DB	0ceH
	DB	099H
	DB	0d6H
	DB	0baH
	DB	0d6H
	DB	0baH
	DB	0d6H
	DB	0baH
	DB	0d6H
	DB	0b9H
	DB	0d6H
	DB	0baH
	DB	0d6H
	DB	0baH
	DB	0d6H
	DB	0baH
	DB	0d6H
	DB	0b9H
	DB	0d6H
	DB	099H
	DB	0d6H
	DB	0baH
	DB	0ceH
	DB	099H
	DB	0d6H
	DB	0baH
	DB	0d6H
	DB	0baH
	DB	0d6H
	DB	099H
	DB	0d6H
	DB	0b9H
	DB	0d6H
	DB	0baH
	DB	0d6H
	DB	09aH
	DB	0d6H
	DB	099H
	DB	0d6H
	DB	099H
	DB	0d6H
	DB	09aH
	DB	0d6H
	DB	0baH
	DB	0ceH
	DB	099H
	DB	0d6H
	DB	09aH
	DB	0d6H
	DB	0baH
	DB	0ceH
	DB	099H
	DB	0d6H
	DB	0baH
	DB	0d6H
	DB	09aH
	DB	0ceH
	DB	0b9H
	DB	0d6H
	DB	09aH
	DB	0d6H
	DB	09aH
	DB	0ceH
	DB	0b9H
	DB	0d6H
	DB	099H
	DB	0d6H
	DB	09aH
	DB	0ceH
	DB	099H
	DB	0d6H
	DB	099H
	DB	0d6H
	DB	0baH
	DB	0d6H
	DB	09aH
	DB	0d6H
	DB	099H
	DB	0d6H
	DB	0baH
	DB	0d6H
	DB	09aH
	DB	0d6H
	DB	09aH
	DB	0d6H
	DB	099H
	DB	0d6H
	DB	0baH
	DB	0d6H
	DB	09aH
	DB	0d6H
	DB	099H
	DB	0d6H
	DB	0baH
	DB	0d6H
	DB	099H
	DB	0d6H
	DB	099H
	DB	0d6H
	DB	09aH
	DB	0d6H
	DB	09aH
	DB	0d6H
	DB	099H
	DB	0d6H
	DB	079H
	DB	0ceH
	DB	079H
	DB	0ceH
	DB	038H
	DB	0c6H
	DB	038H
	DB	0ceH
	DB	058H
	DB	0c6H
	DB	038H
	DB	0c6H
	DB	038H
	DB	0ceH
	DB	038H
	DB	0c6H
	DB	038H
	DB	0c6H
	DB	038H
	DB	0ceH
	DB	038H
	DB	0c6H
	DB	058H
	DB	0c6H
	DB	038H
	DB	0ceH
	DB	058H
	DB	0c6H
	DB	038H
	DB	0c6H
	DB	038H
	DB	0ceH
	DB	058H
	DB	0c6H
	DB	038H
	DB	0ceH
	DB	038H
	DB	0c6H
	DB	058H
	DB	0ceH
	DB	038H
	DB	0c6H
	DB	038H
	DB	0c6H
	DB	038H
	DB	0c6H
	DB	038H
	DB	0c6H
	DB	038H
	DB	0ceH
	DB	038H
	DB	0c6H
	DB	038H
	DB	0c6H
	DB	038H
	DB	0ceH
	DB	038H
	DB	0c6H
	DB	038H
	DB	0c6H
	DB	038H
	DB	0c6H
	DB	038H
	DB	0c6H
	DB	038H
	DB	0ceH
	DB	038H
	DB	0c6H
	DB	038H
	DB	0c6H
	DB	038H
	DB	0ceH
	DB	038H
	DB	0c6H
	DB	038H
	DB	0c6H
	DB	038H
	DB	0ceH
	DB	058H
	DB	0c6H
	DB	038H
	DB	0c6H
	DB	038H
	DB	0c6H
	DB	058H
	DB	0c6H
	DB	038H
	DB	0c6H
	DB	038H
	DB	0ceH
	DB	038H
	DB	0c6H
	DB	038H
	DB	0ceH
	DB	038H
	DB	0ceH
	DB	058H
	DB	0c6H
	DB	058H
	DB	0c6H
	DB	038H
	DB	0c6H
	DB	058H
	DB	0ceH
	DB	038H
	DB	0c6H
	DB	038H
	DB	0c6H
	DB	058H
	DB	0c6H
	DB	038H
	DB	0c6H
	DB	038H
	DB	0c6H
	DB	058H
	DB	0c6H
	DB	038H
	DB	0c6H
	DB	058H
	DB	0c6H
	DB	058H
	DB	0c6H
	DB	038H
	DB	0ceH
	DB	038H
	DB	0c6H
	DB	038H
	DB	0c6H
	DB	058H
	DB	0ceH
	DB	038H
	DB	0c6H
	DB	038H
	DB	0c6H
	DB	058H
	DB	0ceH
	DB	058H
	DB	0c6H
	DB	038H
	DB	0c6H
	DB	038H
	DB	0c6H
	DB	058H
	DB	0c6H
	DB	038H
	DB	0c6H
	DB	038H
	DB	0c6H
	DB	038H
	DB	0c6H
	DB	058H
	DB	0ceH
	DB	038H
	DB	0c6H
	DB	038H
	DB	0c6H
	DB	058H
	DB	0c6H
	DB	038H
	DB	0c6H
	DB	079H
	DB	0ceH
	DB	02fH
	DB	084H
	DB	079H
	DB	0ceH
	DB	038H
	DB	0c6H
	DB	038H
	DB	0c6H
	DB	038H
	DB	0c6H
	DB	038H
	DB	0c6H
	DB	038H
	DB	0c6H
	DB	038H
	DB	0c6H
	DB	038H
	DB	0ceH
	DB	038H
	DB	0c6H
	DB	038H
	DB	0c6H
	DB	038H
	DB	0c6H
	DB	038H
	DB	0ceH
	DB	038H
	DB	0c6H
	DB	038H
	DB	0ceH
	DB	038H
	DB	0c6H
	DB	038H
	DB	0c6H
	DB	038H
	DB	0c6H
	DB	037H
	DB	0ceH
	DB	038H
	DB	0c6H
	DB	038H
	DB	0c6H
	DB	037H
	DB	0c6H
	DB	038H
	DB	0c6H
	DB	038H
	DB	0c6H
	DB	038H
	DB	0c6H
	DB	038H
	DB	0ceH
	DB	038H
	DB	0c6H
	DB	038H
	DB	0c6H
	DB	038H
	DB	0c6H
	DB	038H
	DB	0c6H
	DB	038H
	DB	0c6H
	DB	018H
	DB	0c6H
	DB	038H
	DB	0c6H
	DB	018H
	DB	0c6H
	DB	038H
	DB	0c6H
	DB	037H
	DB	0c6H
	DB	038H
	DB	0c6H
	DB	038H
	DB	0c6H
	DB	038H
	DB	0c6H
	DB	038H
	DB	0c6H
	DB	037H
	DB	0c6H
	DB	038H
	DB	0c6H
	DB	038H
	DB	0c6H
	DB	037H
	DB	0c6H
	DB	038H
	DB	0c6H
	DB	038H
	DB	0c6H
	DB	038H
	DB	0c6H
	DB	038H
	DB	0c6H
	DB	037H
	DB	0c6H
	DB	038H
	DB	0c6H
	DB	038H
	DB	0c6H
	DB	038H
	DB	0c6H
	DB	038H
	DB	0c6H
	DB	017H
	DB	0c6H
	DB	038H
	DB	0c6H
	DB	018H
	DB	0c6H
	DB	037H
	DB	0c6H
	DB	038H
	DB	0c6H
	DB	018H
	DB	0ceH
	DB	038H
	DB	0c6H
	DB	038H
	DB	0c6H
	DB	018H
	DB	0c6H
	DB	038H
	DB	0c6H
	DB	038H
	DB	0c6H
	DB	017H
	DB	0c6H
	DB	037H
	DB	0c6H
	DB	038H
	DB	0c6H
	DB	017H
	DB	0c6H
	DB	017H
	DB	0c6H
	DB	017H
	DB	0c6H
	DB	017H
	DB	0c6H
	DB	018H
	DB	0c6H
	DB	037H
	DB	0c6H
	DB	017H
	DB	0c6H
	DB	038H
	DB	0c6H
	DB	038H
	DB	0c6H
	DB	018H
	DB	0c6H
	DB	038H
	DB	0c6H
	DB	037H
	DB	0c6H
	DB	038H
	DB	0c6H
	DB	038H
	DB	0c6H
	DB	058H
	DB	0ceH
	DB	058H
	DB	0ceH
	DB	058H
	DB	0c6H
	DB	058H
	DB	0ceH
	DB	059H
	DB	0c6H
	DB	058H
	DB	0c6H
	DB	059H
	DB	0ceH
	DB	058H
	DB	0c6H
	DB	059H
	DB	0ceH
	DB	059H
	DB	0ceH
	DB	058H
	DB	0ceH
	DB	059H
	DB	0ceH
	DB	058H
	DB	0c6H
	DB	059H
	DB	0ceH
	DB	058H
	DB	0ceH
	DB	059H
	DB	0c6H
	DB	058H
	DB	0ceH
	DB	059H
	DB	0c6H
	DB	058H
	DB	0ceH
	DB	058H
	DB	0c6H
	DB	059H
	DB	0ceH
	DB	058H
	DB	0c6H
	DB	058H
	DB	0c6H
	DB	058H
	DB	0ceH
	DB	079H
	DB	0c6H
	DB	058H
	DB	0ceH
	DB	058H
	DB	0c6H
	DB	079H
	DB	0ceH
	DB	058H
	DB	0c6H
	DB	058H
	DB	0ceH
	DB	059H
	DB	0c6H
	DB	058H
	DB	0ceH
	DB	079H
	DB	0ceH
	DB	078H
	DB	0c6H
	DB	079H
	DB	0ceH
	DB	078H
	DB	0ceH
	DB	079H
	DB	0ceH
	DB	079H
	DB	0ceH
	DB	079H
	DB	0ceH
	DB	079H
	DB	0ceH
	DB	058H
	DB	0c6H
	DB	079H
	DB	0ceH
	DB	078H
	DB	0c6H
	DB	058H
	DB	0ceH
	DB	079H
	DB	0ceH
	DB	058H
	DB	0c6H
	DB	079H
	DB	0ceH
	DB	079H
	DB	0ceH
	DB	078H
	DB	0c6H
	DB	079H
	DB	0ceH
	DB	079H
	DB	0ceH
	DB	079H
	DB	0c6H
	DB	078H
	DB	0ceH
	DB	079H
	DB	0ceH
	DB	078H
	DB	0ceH
	DB	059H
	DB	0ceH
	DB	078H
	DB	0ceH
	DB	059H
	DB	0ceH
	DB	078H
	DB	0ceH
	DB	059H
	DB	0ceH
	DB	078H
	DB	0c6H
	DB	079H
	DB	0ceH
	DB	059H
	DB	0ceH
	DB	078H
	DB	0c6H
	DB	078H
	DB	0ceH
	DB	059H
	DB	0c6H
	DB	079H
	DB	0ceH
	DB	079H
	DB	0ceH
	DB	078H
	DB	0ceH
	DB	079H
	DB	0ceH
	DB	079H
	DB	0ceH
	DB	079H
	DB	0ceH
	DB	079H
	DB	0ceH
	DB	079H
	DB	0ceH
	DB	079H
	DB	0ceH
	DB	078H
	DB	0ceH
	DB	078H
	DB	0ceH
	DB	079H
	DB	0ceH
	DB	078H
	DB	0c6H
	DB	059H
	DB	0ceH
	DB	079H
	DB	0ceH
	DB	078H
	DB	0c6H
	DB	078H
	DB	0ceH
	DB	059H
	DB	0ceH
	DB	079H
	DB	0ceH
	DB	079H
	DB	0ceH
	DB	059H
	DB	0ceH
	DB	079H
	DB	0ceH
	DB	058H
	DB	0ceH
	DB	059H
	DB	0ceH
	DB	058H
	DB	0ceH
	DB	059H
	DB	0ceH
	DB	059H
	DB	0ceH
	DB	079H
	DB	0ceH
	DB	058H
	DB	0ceH
	DB	059H
	DB	0ceH
	DB	079H
	DB	0ceH
	DB	079H
	DB	0ceH
	DB	079H
	DB	0ceH
	DB	079H
	DB	0ceH
	DB	079H
	DB	0ceH
	DB	079H
	DB	0ceH
	DB	079H
	DB	0ceH
	DB	079H
	DB	0ceH
	DB	079H
	DB	0ceH
	DB	079H
	DB	0ceH
	DB	079H
	DB	0ceH
	DB	059H
	DB	0ceH
	DB	079H
	DB	0ceH
	DB	079H
	DB	0ceH
	DB	059H
	DB	0ceH
	DB	059H
	DB	0ceH
	DB	079H
	DB	0ceH
	DB	078H
	DB	0ceH
	DB	079H
	DB	0ceH
	DB	079H
	DB	0ceH
	DB	079H
	DB	0ceH
	DB	079H
	DB	0ceH
	DB	079H
	DB	0ceH
	DB	079H
	DB	0ceH
	DB	079H
	DB	0ceH
	DB	079H
	DB	0ceH
	DB	079H
	DB	0ceH
	DB	079H
	DB	0ceH
	DB	079H
	DB	0ceH
	DB	079H
	DB	0ceH
	DB	079H
	DB	0ceH
	DB	079H
	DB	0ceH
	DB	079H
	DB	0ceH
	DB	079H
	DB	0ceH
	DB	079H
	DB	0ceH
	DB	079H
	DB	0ceH
	DB	079H
	DB	0ceH
	DB	079H
	DB	0ceH
	DB	079H
	DB	0ceH
	DB	079H
	DB	0d6H
	DB	079H
	DB	0ceH
	DB	079H
	DB	0d6H
	DB	079H
	DB	0ceH
	DB	079H
	DB	0ceH
	DB	079H
	DB	0d6H
	DB	079H
	DB	0ceH
	DB	079H
	DB	0ceH
	DB	079H
	DB	0d6H
	DB	079H
	DB	0ceH
	DB	079H
	DB	0d6H
	DB	079H
	DB	0ceH
	DB	079H
	DB	0ceH
	DB	079H
	DB	0ceH
	DB	07aH
	DB	0ceH
	DB	079H
	DB	0ceH
	DB	079H
	DB	0ceH
	DB	07aH
	DB	0ceH
	DB	079H
	DB	0d6H
	DB	079H
	DB	0ceH
	DB	09aH
	DB	0d6H
	DB	079H
	DB	0d6H
	DB	099H
	DB	0ceH
	DB	099H
	DB	0ceH
	DB	079H
	DB	0ceH
	DB	099H
	DB	0d6H
	DB	099H
	DB	0d6H
	DB	099H
	DB	0ceH
	DB	099H
	DB	0d6H
	DB	07aH
	DB	0d6H
	DB	099H
	DB	0ceH
	DB	09aH
	DB	0d6H
	DB	099H
	DB	0ceH
	DB	079H
	DB	0ceH
	DB	079H
	DB	0d6H
	DB	099H
	DB	0ceH
	DB	07aH
	DB	0d6H
	DB	079H
	DB	0ceH
	DB	079H
	DB	0ceH
	DB	09aH
	DB	0d6H
	DB	079H
	DB	0ceH
	DB	079H
	DB	0ceH
	DB	09aH
	DB	0d6H
	DB	079H
	DB	0ceH
	DB	099H
	DB	0d6H
	DB	09aH
	DB	0ceH
	DB	07aH
	DB	0d6H
	DB	099H
	DB	0ceH
	DB	099H
	DB	0ceH
	DB	09aH
	DB	0d6H
	DB	09aH
	DB	0d6H
	DB	09aH
	DB	0d6H
	DB	09aH
	DB	0d6H
	DB	099H
	DB	0ceH
	DB	09aH
	DB	0d6H
	DB	09aH
	DB	0d6H
	DB	099H
	DB	0d6H
	DB	09aH
	DB	0d6H
	DB	099H
	DB	0d6H
	DB	09aH
	DB	0d6H
	DB	099H
	DB	0ceH
	DB	079H
	DB	0ceH
	DB	09aH
	DB	0d6H
	DB	099H
	DB	0d6H
	DB	07aH
	DB	0ceH
	DB	099H
	DB	0d6H
	DB	099H
	DB	0d6H
	DB	09aH
	DB	0ceH
	DB	099H
	DB	0d6H
	DB	079H
	DB	0d6H
	DB	09aH
	DB	0ceH
	DB	099H
	DB	0d6H
	DB	079H
	DB	0d6H
	DB	09aH
	DB	0d6H
	DB	09aH
	DB	0ceH
	DB	099H
	DB	0d6H
	DB	09aH
	DB	0d6H
	DB	09aH
	DB	0d6H
	DB	09aH
	DB	0ceH
	DB	09aH
	DB	0ceH
	DB	079H
	DB	0d6H
	DB	099H
	DB	0ceH
	DB	099H
	DB	0ceH
	DB	099H
	DB	0d6H
	DB	099H
	DB	0ceH
	DB	099H
	DB	0ceH
	DB	099H
	DB	0ceH
	DB	099H
	DB	0ceH
	DB	099H
	DB	0ceH
	DB	09aH
	DB	0d6H
	DB	09aH
	DB	0d6H
	DB	09aH
	DB	0d6H
	DB	099H
	DB	0ceH
	DB	09aH
	DB	0d6H
	DB	099H
	DB	0d6H
	DB	09aH
	DB	0ceH
	DB	09aH
	DB	0ceH
	DB	09aH
	DB	0d6H
	DB	09aH
	DB	0d6H
	DB	09aH
	DB	0d6H
	DB	09aH
	DB	0d6H
	DB	09aH
	DB	0d6H
	DB	09aH
	DB	0d6H
	DB	09aH
	DB	0d6H
	DB	09aH
	DB	0d6H
	DB	09aH
	DB	0d6H
	DB	09aH
	DB	0d6H
	DB	0baH
	DB	0d6H
	DB	099H
	DB	0ceH
	DB	09aH
	DB	0d6H
	DB	0baH
	DB	0d6H
	DB	09aH
	DB	0d6H
	DB	09aH
	DB	0d6H
	DB	0b9H
	DB	0d6H
	DB	09aH
	DB	0d6H
	DB	099H
	DB	0d6H
	DB	0baH
	DB	0d6H
	DB	09aH
	DB	0d6H
	DB	099H
	DB	0d6H
	DB	0baH
	DB	0d6H
	DB	09aH
	DB	0d6H
	DB	099H
	DB	0d6H
	DB	09aH
	DB	0d6H
	DB	0baH
	DB	0d6H
	DB	099H
	DB	0d6H
	DB	099H
	DB	0ceH
	DB	09aH
	DB	0d6H
	DB	099H
	DB	0d6H
	DB	09aH
	DB	0d6H
	DB	0baH
	DB	0d6H
	DB	0baH
	DB	0d6H
	DB	09aH
	DB	0d6H
	DB	0baH
	DB	0d6H
	DB	0baH
	DB	0d6H
	DB	09aH
	DB	0d6H
	DB	0baH
	DB	0d6H
	DB	0baH
	DB	0d6H
	DB	0baH
	DB	0d6H
	DB	0baH
	DB	0d6H
	DB	09aH
	DB	0d6H
	DB	0baH
	DB	0d6H
	DB	09aH
	DB	0d6H
	DB	09aH
	DB	0d6H
	DB	0baH
	DB	0d6H
	DB	09aH
	DB	0d6H
	DB	0b9H
	DB	0d6H
	DB	0baH
	DB	0d6H
	DB	099H
	DB	0d6H
	DB	09aH
	DB	0d6H
	DB	0baH
	DB	0d6H
	DB	099H
	DB	0d6H
	DB	09aH
	DB	0d6H
	DB	0b9H
	DB	0d6H
	DB	09aH
	DB	0d6H
	DB	09aH
	DB	0d6H
	DB	0b9H
	DB	0d6H
	DB	09aH
	DB	0d6H
	DB	0baH
	DB	0d6H
	DB	0b9H
	DB	0d6H
	DB	0baH
	DB	0d6H
	DB	0baH
	DB	0d6H
	DB	099H
	DB	0d6H
	DB	0baH
	DB	0d6H
	DB	099H
	DB	0d6H
	DB	09aH
	DB	0d6H
	DB	0b9H
	DB	0d6H
	DB	09aH
	DB	0d6H
	DB	09aH
	DB	0d6H
	DB	0baH
	DB	0d6H
	DB	099H
	DB	0d6H
	DB	09aH
	DB	0d6H
	DB	099H
	DB	0d6H
	DB	099H
	DB	0d6H
	DB	09aH
	DB	0d6H
	DB	09aH
	DB	0d6H
	DB	099H
	DB	0d6H
	DB	099H
	DB	0d6H
	DB	0baH
	DB	0d6H
	DB	0baH
	DB	0d6H
	DB	0baH
	DB	0d6H
	DB	0baH
	DB	0d6H
	DB	0baH
	DB	0d6H
	DB	09aH
	DB	0d6H
	DB	0baH
	DB	0d6H
	DB	0baH
	DB	0d6H
	DB	0baH
	DB	0d6H
	DB	09aH
	DB	0d6H
	DB	0baH
	DB	0d6H
	DB	0baH
	DB	0d6H
	DB	0baH
	DB	0d6H
	DB	0baH
	DB	0d6H
	DB	0baH
	DB	0d6H
	DB	0baH
	DB	0d6H
	DB	09aH
	DB	0d6H
	DB	09aH
	DB	0d6H
	DB	0baH
	DB	0d6H
	DB	09aH
	DB	0d6H
	DB	099H
	DB	0d6H
	DB	09aH
	DB	0d6H
	DB	0baH
	DB	0d6H
	DB	09aH
	DB	0d6H
	DB	09aH
	DB	0d6H
	DB	099H
	DB	0d6H
	DB	09aH
	DB	0d6H
	DB	09aH
	DB	0d6H
	DB	099H
	DB	0d6H
	DB	09aH
	DB	0d6H
	DB	099H
	DB	0d6H
	DB	099H
	DB	0ceH
	DB	09aH
	DB	0d6H
	DB	09aH
	DB	0d6H
	DB	099H
	DB	0d6H
	DB	079H
	DB	0ceH
	DB	079H
	DB	0ceH
	DB	058H
	DB	0ceH
	DB	038H
	DB	0c6H
	DB	038H
	DB	0c6H
	DB	038H
	DB	0ceH
	DB	038H
	DB	0c6H
	DB	058H
	DB	0c6H
	DB	038H
	DB	0ceH
	DB	038H
	DB	0c6H
	DB	058H
	DB	0c6H
	DB	038H
	DB	0ceH
	DB	038H
	DB	0c6H
	DB	038H
	DB	0c6H
	DB	038H
	DB	0c6H
	DB	038H
	DB	0ceH
	DB	058H
	DB	0c6H
	DB	038H
	DB	0c6H
	DB	038H
	DB	0ceH
	DB	058H
	DB	0c6H
	DB	058H
	DB	0c6H
	DB	037H
	DB	0ceH
	DB	038H
	DB	0c6H
	DB	038H
	DB	0c6H
	DB	037H
	DB	0c6H
	DB	038H
	DB	0c6H
	DB	038H
	DB	0ceH
	DB	037H
	DB	0c6H
	DB	038H
	DB	0c6H
	DB	038H
	DB	0ceH
	DB	038H
	DB	0c6H
	DB	038H
	DB	0c6H
	DB	038H
	DB	0c6H
	DB	038H
	DB	0c6H
	DB	038H
	DB	0c6H
	DB	058H
	DB	0ceH
	DB	038H
	DB	0ceH
	DB	038H
	DB	0c6H
	DB	058H
	DB	0c6H
	DB	038H
	DB	0ceH
	DB	038H
	DB	0ceH
	DB	058H
	DB	0c6H
	DB	038H
	DB	0ceH
	DB	038H
	DB	0c6H
	DB	058H
	DB	0c6H
	DB	038H
	DB	0c6H
	DB	038H
	DB	0c6H
	DB	038H
	DB	0ceH
	DB	038H
	DB	0c6H
	DB	038H
	DB	0ceH
	DB	058H
	DB	0c6H
	DB	058H
	DB	0c6H
	DB	038H
	DB	0c6H
	DB	058H
	DB	0c6H
	DB	058H
	DB	0ceH
	DB	038H
	DB	0c6H
	DB	058H
	DB	0c6H
	DB	038H
	DB	0c6H
	DB	038H
	DB	0c6H
	DB	058H
	DB	0c6H
	DB	038H
	DB	0c6H
	DB	038H
	DB	0c6H
	DB	058H
	DB	0c6H
	DB	058H
	DB	0c6H
	DB	038H
	DB	0c6H
	DB	058H
	DB	0c6H
	DB	038H
	DB	0c6H
	DB	038H
	DB	0c6H
	DB	058H
	DB	0c6H
	DB	038H
	DB	0c6H
	DB	038H
	DB	0c6H
	DB	058H
	DB	0c6H
	DB	058H
	DB	0c6H
	DB	038H
	DB	0ceH
	DB	038H
	DB	0c6H
	DB	038H
	DB	0c6H
	DB	038H
	DB	0ceH
	DB	038H
	DB	0c6H
	DB	058H
	DB	0c6H
	DB	038H
	DB	0ceH
	DB	079H
	DB	0d6H
	DB	010H
	DB	084H
	DB	079H
	DB	0ceH
	DB	038H
	DB	0c6H
	DB	058H
	DB	0c6H
	DB	037H
	DB	0c6H
	DB	058H
	DB	0c6H
	DB	038H
	DB	0c6H
	DB	038H
	DB	0c6H
	DB	038H
	DB	0c6H
	DB	037H
	DB	0c6H
	DB	038H
	DB	0ceH
	DB	038H
	DB	0c6H
	DB	038H
	DB	0c6H
	DB	038H
	DB	0c6H
	DB	038H
	DB	0c6H
	DB	038H
	DB	0ceH
	DB	038H
	DB	0c6H
	DB	038H
	DB	0c6H
	DB	038H
	DB	0c6H
	DB	038H
	DB	0c6H
	DB	038H
	DB	0c6H
	DB	018H
	DB	0c6H
	DB	038H
	DB	0c6H
	DB	017H
	DB	0c6H
	DB	038H
	DB	0ceH
	DB	038H
	DB	0c6H
	DB	038H
	DB	0c6H
	DB	038H
	DB	0ceH
	DB	037H
	DB	0c6H
	DB	038H
	DB	0c6H
	DB	037H
	DB	0c6H
	DB	038H
	DB	0c6H
	DB	038H
	DB	0c6H
	DB	038H
	DB	0ceH
	DB	018H
	DB	0c6H
	DB	038H
	DB	0c6H
	DB	017H
	DB	0c6H
	DB	038H
	DB	0c6H
	DB	038H
	DB	0c6H
	DB	037H
	DB	0c6H
	DB	038H
	DB	0c6H
	DB	038H
	DB	0c6H
	DB	038H
	DB	0c6H
	DB	037H
	DB	0c6H
	DB	038H
	DB	0c6H
	DB	037H
	DB	0c6H
	DB	038H
	DB	0c6H
	DB	018H
	DB	0c6H
	DB	038H
	DB	0c6H
	DB	037H
	DB	0c6H
	DB	038H
	DB	0c6H
	DB	038H
	DB	0c6H
	DB	037H
	DB	0c6H
	DB	038H
	DB	0c6H
	DB	038H
	DB	0c6H
	DB	017H
	DB	0c6H
	DB	038H
	DB	0c6H
	DB	038H
	DB	0c6H
	DB	037H
	DB	0c6H
	DB	037H
	DB	0c6H
	DB	038H
	DB	0c6H
	DB	038H
	DB	0c6H
	DB	018H
	DB	0c6H
	DB	017H
	DB	0c6H
	DB	038H
	DB	0c6H
	DB	038H
	DB	0c6H
	DB	038H
	DB	0c6H
	DB	038H
	DB	0c6H
	DB	038H
	DB	0c6H
	DB	038H
	DB	0c6H
	DB	038H
	DB	0c6H
	DB	037H
	DB	0c6H
	DB	038H
	DB	0c6H
	DB	038H
	DB	0c6H
	DB	037H
	DB	0c6H
	DB	038H
	DB	0c6H
	DB	017H
	DB	0c6H
	DB	038H
	DB	0c6H
	DB	038H
	DB	0c6H
	DB	037H
	DB	0c6H
	DB	038H
	DB	0c6H
	DB	058H
	DB	0c6H
	DB	059H
	DB	0ceH
	DB	059H
	DB	0ceH
	DB	058H
	DB	0c6H
	DB	058H
	DB	0ceH
	DB	059H
	DB	0ceH
	DB	058H
	DB	0c6H
	DB	058H
	DB	0c6H
	DB	058H
	DB	0ceH
	DB	058H
	DB	0c6H
	DB	058H
	DB	0c6H
	DB	058H
	DB	0ceH
	DB	059H
	DB	0c6H
	DB	058H
	DB	0c6H
	DB	058H
	DB	0ceH
	DB	058H
	DB	0c6H
	DB	059H
	DB	0c6H
	DB	058H
	DB	0ceH
	DB	078H
	DB	0c6H
	DB	059H
	DB	0c6H
	DB	058H
	DB	0ceH
	DB	079H
	DB	0ceH
	DB	079H
	DB	0ceH
	DB	079H
	DB	0ceH
	DB	079H
	DB	0ceH
	DB	079H
	DB	0c6H
	DB	079H
	DB	0ceH
	DB	078H
	DB	0ceH
	DB	079H
	DB	0ceH
	DB	079H
	DB	0ceH
	DB	078H
	DB	0c6H
	DB	079H
	DB	0ceH
	DB	058H
	DB	0ceH
	DB	059H
	DB	0c6H
	DB	058H
	DB	0ceH
	DB	058H
	DB	0c6H
	DB	058H
	DB	0c6H
	DB	058H
	DB	0ceH
	DB	058H
	DB	0c6H
	DB	079H
	DB	0c6H
	DB	058H
	DB	0ceH
	DB	059H
	DB	0ceH
	DB	079H
	DB	0c6H
	DB	058H
	DB	0c6H
	DB	058H
	DB	0ceH
	DB	079H
	DB	0ceH
	DB	058H
	DB	0c6H
	DB	058H
	DB	0ceH
	DB	059H
	DB	0ceH
	DB	058H
	DB	0c6H
	DB	058H
	DB	0ceH
	DB	059H
	DB	0ceH
	DB	078H
	DB	0c6H
	DB	059H
	DB	0ceH
	DB	059H
	DB	0c6H
	DB	078H
	DB	0c6H
	DB	059H
	DB	0ceH
	DB	078H
	DB	0c6H
	DB	059H
	DB	0ceH
	DB	078H
	DB	0ceH
	DB	058H
	DB	0c6H
	DB	059H
	DB	0ceH
	DB	079H
	DB	0ceH
	DB	058H
	DB	0c6H
	DB	079H
	DB	0ceH
	DB	079H
	DB	0ceH
	DB	078H
	DB	0ceH
	DB	079H
	DB	0ceH
	DB	058H
	DB	0c6H
	DB	078H
	DB	0ceH
	DB	079H
	DB	0c6H
	DB	058H
	DB	0c6H
	DB	078H
	DB	0ceH
	DB	079H
	DB	0c6H
	DB	079H
	DB	0ceH
	DB	059H
	DB	0c6H
	DB	079H
	DB	0ceH
	DB	078H
	DB	0ceH
	DB	059H
	DB	0c6H
	DB	079H
	DB	0ceH
	DB	078H
	DB	0ceH
	DB	079H
	DB	0c6H
	DB	079H
	DB	0ceH
	DB	078H
	DB	0ceH
	DB	079H
	DB	0ceH
	DB	059H
	DB	0ceH
	DB	079H
	DB	0ceH
	DB	079H
	DB	0ceH
	DB	079H
	DB	0ceH
	DB	079H
	DB	0ceH
	DB	079H
	DB	0ceH
	DB	079H
	DB	0ceH
	DB	079H
	DB	0ceH
	DB	078H
	DB	0ceH
	DB	079H
	DB	0ceH
	DB	079H
	DB	0ceH
	DB	079H
	DB	0ceH
	DB	079H
	DB	0ceH
	DB	079H
	DB	0ceH
	DB	079H
	DB	0ceH
	DB	079H
	DB	0ceH
	DB	079H
	DB	0ceH
	DB	059H
	DB	0ceH
	DB	079H
	DB	0ceH
	DB	058H
	DB	0ceH
	DB	079H
	DB	0ceH
	DB	079H
	DB	0ceH
	DB	058H
	DB	0ceH
	DB	079H
	DB	0ceH
	DB	079H
	DB	0ceH
	DB	078H
	DB	0ceH
	DB	079H
	DB	0ceH
	DB	059H
	DB	0ceH
	DB	079H
	DB	0ceH
	DB	079H
	DB	0ceH
	DB	079H
	DB	0ceH
	DB	079H
	DB	0ceH
	DB	079H
	DB	0ceH
	DB	079H
	DB	0ceH
	DB	079H
	DB	0ceH
	DB	079H
	DB	0ceH
	DB	079H
	DB	0ceH
	DB	079H
	DB	0ceH
	DB	079H
	DB	0ceH
	DB	079H
	DB	0ceH
	DB	079H
	DB	0ceH
	DB	079H
	DB	0ceH
	DB	079H
	DB	0ceH
	DB	079H
	DB	0d6H
	DB	079H
	DB	0ceH
	DB	079H
	DB	0ceH
	DB	079H
	DB	0d6H
	DB	079H
	DB	0ceH
	DB	079H
	DB	0ceH
	DB	079H
	DB	0d6H
	DB	079H
	DB	0ceH
	DB	079H
	DB	0ceH
	DB	079H
	DB	0ceH
	DB	079H
	DB	0d6H
	DB	079H
	DB	0ceH
	DB	079H
	DB	0ceH
	DB	079H
	DB	0d6H
	DB	079H
	DB	0ceH
	DB	079H
	DB	0ceH
	DB	07aH
	DB	0d6H
	DB	079H
	DB	0ceH
	DB	079H
	DB	0d6H
	DB	07aH
	DB	0ceH
	DB	079H
	DB	0d6H
	DB	099H
	DB	0d6H
	DB	07aH
	DB	0ceH
	DB	079H
	DB	0ceH
	DB	099H
	DB	0d6H
	DB	099H
	DB	0d6H
	DB	099H
	DB	0ceH
	DB	099H
	DB	0ceH
	DB	079H
	DB	0d6H
	DB	079H
	DB	0d6H
	DB	079H
	DB	0ceH
	DB	079H
	DB	0ceH
	DB	099H
	DB	0d6H
	DB	079H
	DB	0ceH
	DB	079H
	DB	0ceH
	DB	099H
	DB	0d6H
	DB	07aH
	DB	0ceH
	DB	079H
	DB	0d6H
	DB	099H
	DB	0d6H
	DB	07aH
	DB	0ceH
	DB	079H
	DB	0d6H
	DB	099H
	DB	0ceH
	DB	079H
	DB	0d6H
	DB	099H
	DB	0ceH
	DB	079H
	DB	0d6H
	DB	099H
	DB	0ceH
	DB	079H
	DB	0d6H
	DB	099H
	DB	0ceH
	DB	09aH
	DB	0d6H
	DB	079H
	DB	0d6H
	DB	099H
	DB	0ceH
	DB	07aH
	DB	0d6H
	DB	099H
	DB	0d6H
	DB	09aH
	DB	0d6H
	DB	09aH
	DB	0d6H
	DB	099H
	DB	0d6H
	DB	07aH
	DB	0ceH
	DB	099H
	DB	0ceH
	DB	099H
	DB	0d6H
	DB	07aH
	DB	0d6H
	DB	099H
	DB	0ceH
	DB	079H
	DB	0ceH
	DB	07aH
	DB	0d6H
	DB	099H
	DB	0ceH
	DB	09aH
	DB	0ceH
	DB	099H
	DB	0d6H
	DB	07aH
	DB	0d6H
	DB	09aH
	DB	0d6H
	DB	099H
	DB	0ceH
	DB	09aH
	DB	0d6H
	DB	09aH
	DB	0d6H
	DB	099H
	DB	0ceH
	DB	099H
	DB	0d6H
	DB	079H
	DB	0d6H
	DB	099H
	DB	0ceH
	DB	099H
	DB	0d6H
	DB	099H
	DB	0d6H
	DB	099H
	DB	0ceH
	DB	099H
	DB	0d6H
	DB	099H
	DB	0ceH
	DB	099H
	DB	0ceH
	DB	099H
	DB	0ceH
	DB	099H
	DB	0ceH
	DB	099H
	DB	0d6H
	DB	099H
	DB	0ceH
	DB	099H
	DB	0ceH
	DB	099H
	DB	0d6H
	DB	09aH
	DB	0d6H
	DB	09aH
	DB	0ceH
	DB	099H
	DB	0d6H
	DB	099H
	DB	0d6H
	DB	09aH
	DB	0ceH
	DB	099H
	DB	0d6H
	DB	09aH
	DB	0d6H
	DB	099H
	DB	0d6H
	DB	099H
	DB	0ceH
	DB	09aH
	DB	0d6H
	DB	09aH
	DB	0d6H
	DB	09aH
	DB	0d6H
	DB	09aH
	DB	0d6H
	DB	09aH
	DB	0d6H
	DB	09aH
	DB	0d6H
	DB	099H
	DB	0d6H
	DB	09aH
	DB	0d6H
	DB	09aH
	DB	0d6H
	DB	099H
	DB	0d6H
	DB	09aH
	DB	0d6H
	DB	099H
	DB	0d6H
	DB	09aH
	DB	0d6H
	DB	099H
	DB	0d6H
	DB	09aH
	DB	0d6H
	DB	099H
	DB	0d6H
	DB	0b9H
	DB	0d6H
	DB	09aH
	DB	0d6H
	DB	09aH
	DB	0d6H
	DB	09aH
	DB	0d6H
	DB	0b9H
	DB	0d6H
	DB	09aH
	DB	0d6H
	DB	09aH
	DB	0d6H
	DB	0baH
	DB	0d6H
	DB	0baH
	DB	0d6H
	DB	09aH
	DB	0d6H
	DB	09aH
	DB	0d6H
	DB	099H
	DB	0d6H
	DB	09aH
	DB	0ceH
	DB	09aH
	DB	0d6H
	DB	09aH
	DB	0d6H
	DB	099H
	DB	0d6H
	DB	0baH
	DB	0d6H
	DB	0baH
	DB	0d6H
	DB	0baH
	DB	0d6H
	DB	0baH
	DB	0d6H
	DB	0baH
	DB	0d6H
	DB	0baH
	DB	0d6H
	DB	0baH
	DB	0d6H
	DB	09aH
	DB	0d6H
	DB	0b9H
	DB	0d6H
	DB	09aH
	DB	0d6H
	DB	09aH
	DB	0d6H
	DB	0b9H
	DB	0d6H
	DB	09aH
	DB	0d6H
	DB	09aH
	DB	0d6H
	DB	0baH
	DB	0d6H
	DB	09aH
	DB	0d6H
	DB	09aH
	DB	0d6H
	DB	0baH
	DB	0d6H
	DB	09aH
	DB	0d6H
	DB	0b9H
	DB	0d6H
	DB	0baH
	DB	0d6H
	DB	0baH
	DB	0d6H
	DB	09aH
	DB	0d6H
	DB	0baH
	DB	0d6H
	DB	099H
	DB	0d6H
	DB	0baH
	DB	0d6H
	DB	0baH
	DB	0d6H
	DB	0b9H
	DB	0d6H
	DB	09aH
	DB	0d6H
	DB	0baH
	DB	0d6H
	DB	099H
	DB	0d6H
	DB	0baH
	DB	0d6H
	DB	0baH
	DB	0d6H
	DB	09aH
	DB	0d6H
	DB	0baH
	DB	0d6H
	DB	0baH
	DB	0d6H
	DB	099H
	DB	0ceH
	DB	0baH
	DB	0d6H
	DB	0baH
	DB	0d6H
	DB	0baH
	DB	0ceH
	DB	0b9H
	DB	0d6H
	DB	0baH
	DB	0d6H
	DB	0baH
	DB	0ceH
	DB	0b9H
	DB	0d6H
	DB	0baH
	DB	0d6H
	DB	0b9H
	DB	0d6H
	DB	0b9H
	DB	0ceH
	DB	0baH
	DB	0d6H
	DB	09aH
	DB	0d6H
	DB	0baH
	DB	0d6H
	DB	0baH
	DB	0d6H
	DB	099H
	DB	0d6H
	DB	0baH
	DB	0d6H
	DB	0baH
	DB	0d6H
	DB	09aH
	DB	0d6H
	DB	0baH
	DB	0d6H
	DB	09aH
	DB	0d6H
	DB	09aH
	DB	0d6H
	DB	0baH
	DB	0d6H
	DB	09aH
	DB	0d6H
	DB	09aH
	DB	0d6H
	DB	0baH
	DB	0d6H
	DB	09aH
	DB	0d6H
	DB	09aH
	DB	0d6H
	DB	0b9H
	DB	0d6H
	DB	099H
	DB	0d6H
	DB	099H
	DB	0d6H
	DB	09aH
	DB	0d6H
	DB	099H
	DB	0d6H
	DB	09aH
	DB	0d6H
	DB	09aH
	DB	0d6H
	DB	0b9H
	DB	0d6H
	DB	0baH
	DB	0d6H
	DB	0baH
	DB	0d6H
	DB	0baH
	DB	0d6H
	DB	0baH
	DB	0d6H
	DB	09aH
	DB	0ceH
	DB	09aH
	DB	0d6H
	DB	099H
	DB	0d6H
	DB	0baH
	DB	0ceH
	DB	09aH
	DB	0d6H
	DB	0baH
	DB	0d6H
	DB	09aH
	DB	0d6H
	DB	0baH
	DB	0d6H
	DB	099H
	DB	0d6H
	DB	09aH
	DB	0d6H
	DB	09aH
	DB	0d6H
	DB	099H
	DB	0d6H
	DB	09aH
	DB	0d6H
	DB	09aH
	DB	0d6H
	DB	099H
	DB	0ceH
	DB	079H
	DB	0ceH
	DB	078H
	DB	0ceH
	DB	038H
	DB	0c6H
	DB	038H
	DB	0ceH
	DB	038H
	DB	0c6H
	DB	058H
	DB	0ceH
	DB	038H
	DB	0c6H
	DB	038H
	DB	0ceH
	DB	058H
	DB	0c6H
	DB	038H
	DB	0c6H
	DB	038H
	DB	0ceH
	DB	038H
	DB	0c6H
	DB	038H
	DB	0c6H
	DB	058H
	DB	0c6H
	DB	038H
	DB	0c6H
	DB	038H
	DB	0c6H
	DB	038H
	DB	0ceH
	DB	038H
	DB	0c6H
	DB	038H
	DB	0c6H
	DB	058H
	DB	0c6H
	DB	038H
	DB	0c6H
	DB	038H
	DB	0c6H
	DB	038H
	DB	0c6H
	DB	038H
	DB	0c6H
	DB	058H
	DB	0c6H
	DB	058H
	DB	0c6H
	DB	038H
	DB	0c6H
	DB	038H
	DB	0c6H
	DB	058H
	DB	0c6H
	DB	038H
	DB	0c6H
	DB	038H
	DB	0ceH
	DB	038H
	DB	0c6H
	DB	038H
	DB	0c6H
	DB	038H
	DB	0ceH
	DB	038H
	DB	0c6H
	DB	038H
	DB	0c6H
	DB	038H
	DB	0c6H
	DB	038H
	DB	0ceH
	DB	038H
	DB	0c6H
	DB	038H
	DB	0c6H
	DB	038H
	DB	0ceH
	DB	038H
	DB	0c6H
	DB	038H
	DB	0ceH
	DB	058H
	DB	0ceH
	DB	038H
	DB	0c6H
	DB	058H
	DB	0ceH
	DB	038H
	DB	0c6H
	DB	038H
	DB	0c6H
	DB	038H
	DB	0c6H
	DB	038H
	DB	0ceH
	DB	038H
	DB	0c6H
	DB	038H
	DB	0ceH
	DB	058H
	DB	0c6H
	DB	038H
	DB	0c6H
	DB	038H
	DB	0c6H
	DB	058H
	DB	0c6H
	DB	058H
	DB	0c6H
	DB	038H
	DB	0ceH
	DB	058H
	DB	0c6H
	DB	058H
	DB	0c6H
	DB	038H
	DB	0ceH
	DB	058H
	DB	0c6H
	DB	058H
	DB	0c6H
	DB	038H
	DB	0c6H
	DB	058H
	DB	0c6H
	DB	058H
	DB	0c6H
	DB	038H
	DB	0c6H
	DB	058H
	DB	0c6H
	DB	058H
	DB	0c6H
	DB	038H
	DB	0c6H
	DB	058H
	DB	0ceH
	DB	058H
	DB	0c6H
	DB	038H
	DB	0c6H
	DB	038H
	DB	0ceH
	DB	058H
	DB	0c6H
	DB	038H
	DB	0c6H
	DB	038H
	DB	0ceH
	DB	037H
	DB	0c6H
	DB	058H
	DB	0c6H
	DB	038H
	DB	0c6H
	DB	079H
	DB	0ceH
	DB	02fH
	DB	084H
	DB	079H
	DB	0ceH
	DB	038H
	DB	0c6H
	DB	038H
	DB	0c6H
	DB	038H
	DB	0c6H
	DB	038H
	DB	0c6H
	DB	058H
	DB	0c6H
	DB	037H
	DB	0c6H
	DB	038H
	DB	0c6H
	DB	038H
	DB	0c6H
	DB	038H
	DB	0c6H
	DB	038H
	DB	0ceH
	DB	037H
	DB	0c6H
	DB	038H
	DB	0c6H
	DB	038H
	DB	0c6H
	DB	037H
	DB	0c6H
	DB	038H
	DB	0ceH
	DB	038H
	DB	0c6H
	DB	038H
	DB	0c6H
	DB	038H
	DB	0ceH
	DB	037H
	DB	0c6H
	DB	038H
	DB	0c6H
	DB	038H
	DB	0c6H
	DB	038H
	DB	0c6H
	DB	037H
	DB	0c6H
	DB	038H
	DB	0c6H
	DB	038H
	DB	0c6H
	DB	038H
	DB	0c6H
	DB	037H
	DB	0c6H
	DB	038H
	DB	0c6H
	DB	038H
	DB	0c6H
	DB	017H
	DB	0c6H
	DB	038H
	DB	0c6H
	DB	037H
	DB	0c6H
	DB	038H
	DB	0c6H
	DB	038H
	DB	0c6H
	DB	037H
	DB	0c6H
	DB	018H
	DB	0c6H
	DB	038H
	DB	0c6H
	DB	018H
	DB	0c6H
	DB	018H
	DB	0c6H
	DB	038H
	DB	0c6H
	DB	017H
	DB	0c6H
	DB	038H
	DB	0c6H
	DB	018H
	DB	0c6H
	DB	038H
	DB	0c6H
	DB	037H
	DB	0c6H
	DB	038H
	DB	0c6H
	DB	018H
	DB	0c6H
	DB	038H
	DB	0c6H
	DB	017H
	DB	0c6H
	DB	038H
	DB	0c6H
	DB	018H
	DB	0c6H
	DB	038H
	DB	0ceH
	DB	038H
	DB	0c6H
	DB	038H
	DB	0c6H
	DB	038H
	DB	0ceH
	DB	018H
	DB	0c6H
	DB	038H
	DB	0c6H
	DB	018H
	DB	0c6H
	DB	037H
	DB	0ceH
	DB	038H
	DB	0c6H
	DB	038H
	DB	0c6H
	DB	017H
	DB	0c6H
	DB	038H
	DB	0c6H
	DB	038H
	DB	0c6H
	DB	017H
	DB	0c6H
	DB	037H
	DB	0beH
	DB	038H
	DB	0c6H
	DB	038H
	DB	0c6H
	DB	037H
	DB	0c6H
	DB	038H
	DB	0beH
	DB	038H
	DB	0c6H
	DB	037H
	DB	0c6H
	DB	018H
	DB	0c6H
	DB	037H
	DB	0c6H
	DB	038H
	DB	0c6H
	DB	037H
	DB	0c6H
	DB	018H
	DB	0c6H
	DB	037H
	DB	0c6H
	DB	018H
	DB	0c6H
	DB	058H
	DB	0c6H
	DB	058H
	DB	0c6H
	DB	059H
	DB	0ceH
	DB	058H
	DB	0c6H
	DB	058H
	DB	0c6H
	DB	059H
	DB	0ceH
	DB	058H
	DB	0ceH
	DB	059H
	DB	0c6H
	DB	059H
	DB	0ceH
	DB	058H
	DB	0c6H
	DB	079H
	DB	0ceH
	DB	058H
	DB	0ceH
	DB	058H
	DB	0c6H
	DB	079H
	DB	0ceH
	DB	058H
	DB	0ceH
	DB	078H
	DB	0c6H
	DB	059H
	DB	0ceH
	DB	058H
	DB	0ceH
	DB	078H
	DB	0c6H
	DB	059H
	DB	0ceH
	DB	058H
	DB	0c6H
	DB	078H
	DB	0ceH
	DB	059H
	DB	0c6H
	DB	058H
	DB	0c6H
	DB	058H
	DB	0ceH
	DB	058H
	DB	0ceH
	DB	059H
	DB	0c6H
	DB	058H
	DB	0ceH
	DB	059H
	DB	0c6H
	DB	078H
	DB	0ceH
	DB	059H
	DB	0ceH
	DB	078H
	DB	0c6H
	DB	079H
	DB	0ceH
	DB	059H
	DB	0ceH
	DB	078H
	DB	0c6H
	DB	079H
	DB	0ceH
	DB	079H
	DB	0ceH
	DB	058H
	DB	0c6H
	DB	079H
	DB	0ceH
	DB	058H
	DB	0ceH
	DB	078H
	DB	0ceH
	DB	059H
	DB	0ceH
	DB	079H
	DB	0ceH
	DB	078H
	DB	0c6H
	DB	059H
	DB	0ceH
	DB	079H
	DB	0ceH
	DB	078H
	DB	0c6H
	DB	059H
	DB	0ceH
	DB	079H
	DB	0ceH
	DB	078H
	DB	0c6H
	DB	058H
	DB	0ceH
	DB	079H
	DB	0ceH
	DB	058H
	DB	0c6H
	DB	058H
	DB	0ceH
	DB	079H
	DB	0ceH
	DB	078H
	DB	0c6H
	DB	058H
	DB	0ceH
	DB	059H
	DB	0ceH
	DB	079H
	DB	0ceH
	DB	079H
	DB	0ceH
	DB	059H
	DB	0ceH
	DB	078H
	DB	0ceH
	DB	059H
	DB	0ceH
	DB	059H
	DB	0ceH
	DB	078H
	DB	0ceH
	DB	059H
	DB	0ceH
	DB	058H
	DB	0ceH
	DB	059H
	DB	0ceH
	DB	059H
	DB	0ceH
	DB	059H
	DB	0ceH
	DB	059H
	DB	0ceH
	DB	058H
	DB	0ceH
	DB	059H
	DB	0ceH
	DB	058H
	DB	0ceH
	DB	058H
	DB	0ceH
	DB	059H
	DB	0ceH
	DB	079H
	DB	0ceH
	DB	079H
	DB	0ceH
	DB	079H
	DB	0ceH
	DB	079H
	DB	0ceH
	DB	079H
	DB	0ceH
	DB	059H
	DB	0ceH
	DB	079H
	DB	0ceH
	DB	079H
	DB	0ceH
	DB	059H
	DB	0ceH
	DB	079H
	DB	0ceH
	DB	079H
	DB	0ceH
	DB	079H
	DB	0ceH
	DB	079H
	DB	0ceH
	DB	079H
	DB	0ceH
	DB	079H
	DB	0ceH
	DB	079H
	DB	0ceH
	DB	079H
	DB	0ceH
	DB	079H
	DB	0ceH
	DB	079H
	DB	0ceH
	DB	079H
	DB	0ceH
	DB	059H
	DB	0ceH
	DB	079H
	DB	0ceH
	DB	059H
	DB	0ceH
	DB	059H
	DB	0ceH
	DB	079H
	DB	0ceH
	DB	079H
	DB	0ceH
	DB	079H
	DB	0ceH
	DB	059H
	DB	0ceH
	DB	079H
	DB	0ceH
	DB	079H
	DB	0ceH
	DB	079H
	DB	0ceH
	DB	078H
	DB	0ceH
	DB	059H
	DB	0ceH
	DB	079H
	DB	0ceH
	DB	078H
	DB	0ceH
	DB	079H
	DB	0ceH
	DB	079H
	DB	0ceH
	DB	079H
	DB	0d6H
	DB	079H
	DB	0ceH
	DB	079H
	DB	0d6H
	DB	079H
	DB	0ceH
	DB	079H
	DB	0d6H
	DB	079H
	DB	0d6H
	DB	079H
	DB	0ceH
	DB	079H
	DB	0d6H
	DB	079H
	DB	0d6H
	DB	079H
	DB	0ceH
	DB	079H
	DB	0d6H
	DB	079H
	DB	0d6H
	DB	079H
	DB	0ceH
	DB	079H
	DB	0d6H
	DB	079H
	DB	0d6H
	DB	079H
	DB	0ceH
	DB	079H
	DB	0d6H
	DB	079H
	DB	0ceH
	DB	079H
	DB	0d6H
	DB	079H
	DB	0d6H
	DB	079H
	DB	0ceH
	DB	079H
	DB	0d6H
	DB	079H
	DB	0ceH
	DB	079H
	DB	0ceH
	DB	079H
	DB	0ceH
	DB	079H
	DB	0d6H
	DB	07aH
	DB	0ceH
	DB	079H
	DB	0ceH
	DB	07aH
	DB	0d6H
	DB	079H
	DB	0ceH
	DB	079H
	DB	0ceH
	DB	07aH
	DB	0d6H
	DB	079H
	DB	0ceH
	DB	099H
	DB	0ceH
	DB	07aH
	DB	0d6H
	DB	079H
	DB	0ceH
	DB	099H
	DB	0d6H
	DB	09aH
	DB	0d6H
	DB	099H
	DB	0d6H
	DB	099H
	DB	0ceH
	DB	079H
	DB	0d6H
	DB	079H
	DB	0ceH
	DB	099H
	DB	0ceH
	DB	099H
	DB	0d6H
	DB	079H
	DB	0d6H
	DB	09aH
	DB	0d6H
	DB	099H
	DB	0d6H
	DB	079H
	DB	0ceH
	DB	099H
	DB	0d6H
	DB	079H
	DB	0d6H
	DB	099H
	DB	0ceH
	DB	07aH
	DB	0ceH
	DB	099H
	DB	0d6H
	DB	079H
	DB	0ceH
	DB	09aH
	DB	0d6H
	DB	099H
	DB	0ceH
	DB	079H
	DB	0d6H
	DB	099H
	DB	0ceH
	DB	099H
	DB	0d6H
	DB	079H
	DB	0ceH
	DB	099H
	DB	0d6H
	DB	079H
	DB	0ceH
	DB	099H
	DB	0d6H
	DB	099H
	DB	0d6H
	DB	099H
	DB	0ceH
	DB	099H
	DB	0d6H
	DB	099H
	DB	0ceH
	DB	099H
	DB	0d6H
	DB	099H
	DB	0ceH
	DB	079H
	DB	0d6H
	DB	099H
	DB	0d6H
	DB	099H
	DB	0ceH
	DB	099H
	DB	0ceH
	DB	099H
	DB	0ceH
	DB	099H
	DB	0ceH
	DB	099H
	DB	0ceH
	DB	099H
	DB	0ceH
	DB	099H
	DB	0ceH
	DB	099H
	DB	0ceH
	DB	099H
	DB	0ceH
	DB	099H
	DB	0ceH
	DB	099H
	DB	0ceH
	DB	099H
	DB	0ceH
	DB	099H
	DB	0ceH
	DB	099H
	DB	0ceH
	DB	099H
	DB	0ceH
	DB	099H
	DB	0ceH
	DB	09aH
	DB	0d6H
	DB	09aH
	DB	0ceH
	DB	09aH
	DB	0ceH
	DB	09aH
	DB	0ceH
	DB	09aH
	DB	0ceH
	DB	099H
	DB	0d6H
	DB	09aH
	DB	0ceH
	DB	09aH
	DB	0d6H
	DB	099H
	DB	0d6H
	DB	09aH
	DB	0d6H
	DB	09aH
	DB	0ceH
	DB	099H
	DB	0d6H
	DB	099H
	DB	0d6H
	DB	09aH
	DB	0ceH
	DB	099H
	DB	0d6H
	DB	099H
	DB	0ceH
	DB	0baH
	DB	0ceH
	DB	099H
	DB	0d6H
	DB	09aH
	DB	0ceH
	DB	0b9H
	DB	0ceH
	DB	099H
	DB	0d6H
	DB	09aH
	DB	0d6H
	DB	0baH
	DB	0d6H
	DB	0b9H
	DB	0d6H
	DB	09aH
	DB	0d6H
	DB	09aH
	DB	0d6H
	DB	099H
	DB	0d6H
	DB	09aH
	DB	0d6H
	DB	09aH
	DB	0d6H
	DB	09aH
	DB	0d6H
	DB	09aH
	DB	0d6H
	DB	09aH
	DB	0d6H
	DB	0b9H
	DB	0d6H
	DB	09aH
	DB	0d6H
	DB	09aH
	DB	0ceH
	DB	0baH
	DB	0d6H
	DB	099H
	DB	0d6H
	DB	0baH
	DB	0ceH
	DB	09aH
	DB	0d6H
	DB	09aH
	DB	0d6H
	DB	0baH
	DB	0ceH
	DB	09aH
	DB	0d6H
	DB	0baH
	DB	0d6H
	DB	0baH
	DB	0d6H
	DB	0baH
	DB	0d6H
	DB	09aH
	DB	0d6H
	DB	0baH
	DB	0d6H
	DB	0baH
	DB	0d6H
	DB	09aH
	DB	0d6H
	DB	0baH
	DB	0d6H
	DB	0baH
	DB	0d6H
	DB	0baH
	DB	0d6H
	DB	0baH
	DB	0d6H
	DB	0baH
	DB	0d6H
	DB	09aH
	DB	0d6H
	DB	09aH
	DB	0d6H
	DB	0baH
	DB	0d6H
	DB	09aH
	DB	0d6H
	DB	09aH
	DB	0d6H
	DB	09aH
	DB	0d6H
	DB	09aH
	DB	0d6H
	DB	0baH
	DB	0d6H
	DB	09aH
	DB	0d6H
	DB	0baH
	DB	0d6H
	DB	0baH
	DB	0d6H
	DB	09aH
	DB	0d6H
	DB	0baH
	DB	0d6H
	DB	0baH
	DB	0d6H
	DB	09aH
	DB	0d6H
	DB	0b9H
	DB	0d6H
	DB	0baH
	DB	0d6H
	DB	09aH
	DB	0d6H
	DB	099H
	DB	0d6H
	DB	0baH
	DB	0d6H
	DB	09aH
	DB	0d6H
	DB	09aH
	DB	0d6H
	DB	0baH
	DB	0d6H
	DB	099H
	DB	0d6H
	DB	09aH
	DB	0d6H
	DB	0baH
	DB	0d6H
	DB	0baH
	DB	0d6H
	DB	0baH
	DB	0d6H
	DB	0baH
	DB	0d6H
	DB	0b9H
	DB	0d6H
	DB	0baH
	DB	0d6H
	DB	0baH
	DB	0d6H
	DB	0baH
	DB	0d6H
	DB	0baH
	DB	0d6H
	DB	0baH
	DB	0d6H
	DB	0baH
	DB	0d6H
	DB	0baH
	DB	0d6H
	DB	0baH
	DB	0d6H
	DB	0baH
	DB	0d6H
	DB	0b9H
	DB	0d6H
	DB	09aH
	DB	0ceH
	DB	0b9H
	DB	0d6H
	DB	0baH
	DB	0d6H
	DB	09aH
	DB	0d6H
	DB	0b9H
	DB	0ceH
	DB	0baH
	DB	0d6H
	DB	09aH
	DB	0d6H
	DB	0baH
	DB	0ceH
	DB	0b9H
	DB	0d6H
	DB	0baH
	DB	0d6H
	DB	099H
	DB	0d6H
	DB	09aH
	DB	0d6H
	DB	0baH
	DB	0d6H
	DB	099H
	DB	0d6H
	DB	0baH
	DB	0d6H
	DB	099H
	DB	0d6H
	DB	0b9H
	DB	0d6H
	DB	0baH
	DB	0d6H
	DB	09aH
	DB	0d6H
	DB	09aH
	DB	0d6H
	DB	0baH
	DB	0d6H
	DB	09aH
	DB	0d6H
	DB	0b9H
	DB	0d6H
	DB	0baH
	DB	0d6H
	DB	09aH
	DB	0d6H
	DB	09aH
	DB	0d6H
	DB	0b9H
	DB	0d6H
	DB	0baH
	DB	0d6H
	DB	0baH
	DB	0d6H
	DB	0b9H
	DB	0d6H
	DB	09aH
	DB	0d6H
	DB	0b9H
	DB	0d6H
	DB	09aH
	DB	0d6H
	DB	099H
	DB	0d6H
	DB	09aH
	DB	0d6H
	DB	09aH
	DB	0d6H
	DB	09aH
	DB	0d6H
	DB	0baH
	DB	0d6H
	DB	0baH
	DB	0d6H
	DB	0baH
	DB	0d6H
	DB	0baH
	DB	0d6H
	DB	09aH
	DB	0d6H
	DB	099H
	DB	0d6H
	DB	0b9H
	DB	0d6H
	DB	0b9H
	DB	0d6H
	DB	0baH
	DB	0d6H
	DB	0baH
	DB	0d6H
	DB	09aH
	DB	0d6H
	DB	0baH
	DB	0d6H
	DB	09aH
	DB	0d6H
	DB	0baH
	DB	0d6H
	DB	09aH
	DB	0d6H
	DB	099H
	DB	0d6H
	DB	079H
	DB	0ceH
	DB	079H
	DB	0ceH
	DB	038H
	DB	0ceH
	DB	038H
	DB	0c6H
	DB	038H
	DB	0c6H
	DB	038H
	DB	0c6H
	DB	038H
	DB	0ceH
	DB	038H
	DB	0c6H
	DB	038H
	DB	0c6H
	DB	058H
	DB	0ceH
	DB	038H
	DB	0ceH
	DB	038H
	DB	0c6H
	DB	058H
	DB	0ceH
	DB	038H
	DB	0c6H
	DB	038H
	DB	0c6H
	DB	038H
	DB	0c6H
	DB	038H
	DB	0c6H
	DB	038H
	DB	0c6H
	DB	038H
	DB	0ceH
	DB	038H
	DB	0c6H
	DB	038H
	DB	0c6H
	DB	038H
	DB	0c6H
	DB	058H
	DB	0c6H
	DB	038H
	DB	0c6H
	DB	058H
	DB	0c6H
	DB	058H
	DB	0c6H
	DB	038H
	DB	0c6H
	DB	038H
	DB	0c6H
	DB	038H
	DB	0c6H
	DB	037H
	DB	0c6H
	DB	058H
	DB	0c6H
	DB	038H
	DB	0c6H
	DB	057H
	DB	0c6H
	DB	038H
	DB	0c6H
	DB	038H
	DB	0c6H
	DB	058H
	DB	0c6H
	DB	038H
	DB	0c6H
	DB	058H
	DB	0c6H
	DB	038H
	DB	0c6H
	DB	058H
	DB	0c6H
	DB	038H
	DB	0c6H
	DB	038H
	DB	0c6H
	DB	058H
	DB	0c6H
	DB	038H
	DB	0c6H
	DB	038H
	DB	0c6H
	DB	038H
	DB	0c6H
	DB	058H
	DB	0ceH
	DB	038H
	DB	0c6H
	DB	058H
	DB	0ceH
	DB	038H
	DB	0c6H
	DB	038H
	DB	0c6H
	DB	038H
	DB	0ceH
	DB	058H
	DB	0c6H
	DB	038H
	DB	0c6H
	DB	038H
	DB	0c6H
	DB	058H
	DB	0c6H
	DB	038H
	DB	0c6H
	DB	058H
	DB	0c6H
	DB	038H
	DB	0c6H
	DB	038H
	DB	0c6H
	DB	058H
	DB	0c6H
	DB	038H
	DB	0c6H
	DB	038H
	DB	0c6H
	DB	038H
	DB	0ceH
	DB	058H
	DB	0c6H
	DB	038H
	DB	0c6H
	DB	038H
	DB	0ceH
	DB	058H
	DB	0c6H
	DB	038H
	DB	0c6H
	DB	058H
	DB	0c6H
	DB	038H
	DB	0c6H
	DB	038H
	DB	0c6H
	DB	058H
	DB	0c6H
	DB	038H
	DB	0ceH
	DB	038H
	DB	0c6H
	DB	058H
	DB	0c6H
	DB	038H
	DB	0ceH
	DB	038H
	DB	0c6H
	DB	058H
	DB	0c6H
	DB	038H
	DB	0c6H
	DB	079H
	DB	0d6H
	DB	02fH
	DB	084H
	DB	079H
	DB	0ceH
	DB	038H
	DB	0c6H
	DB	038H
	DB	0c6H
	DB	058H
	DB	0c6H
	DB	038H
	DB	0c6H
	DB	038H
	DB	0c6H
	DB	058H
	DB	0c6H
	DB	038H
	DB	0ceH
	DB	038H
	DB	0c6H
	DB	038H
	DB	0c6H
	DB	038H
	DB	0c6H
	DB	037H
	DB	0c6H
	DB	038H
	DB	0c6H
	DB	038H
	DB	0c6H
	DB	038H
	DB	0ceH
	DB	038H
	DB	0c6H
	DB	038H
	DB	0c6H
	DB	037H
	DB	0ceH
	DB	038H
	DB	0c6H
	DB	038H
	DB	0c6H
	DB	038H
	DB	0c6H
	DB	038H
	DB	0c6H
	DB	038H
	DB	0c6H
	DB	038H
	DB	0c6H
	DB	037H
	DB	0c6H
	DB	038H
	DB	0c6H
	DB	038H
	DB	0c6H
	DB	038H
	DB	0c6H
	DB	038H
	DB	0c6H
	DB	038H
	DB	0c6H
	DB	038H
	DB	0c6H
	DB	018H
	DB	0c6H
	DB	037H
	DB	0c6H
	DB	018H
	DB	0c6H
	DB	038H
	DB	0ceH
	DB	038H
	DB	0c6H
	DB	037H
	DB	0c6H
	DB	038H
	DB	0c6H
	DB	038H
	DB	0c6H
	DB	037H
	DB	0c6H
	DB	038H
	DB	0c6H
	DB	038H
	DB	0c6H
	DB	038H
	DB	0c6H
	DB	018H
	DB	0c6H
	DB	038H
	DB	0c6H
	DB	037H
	DB	0c6H
	DB	038H
	DB	0c6H
	DB	038H
	DB	0c6H
	DB	038H
	DB	0c6H
	DB	038H
	DB	0c6H
	DB	017H
	DB	0c6H
	DB	038H
	DB	0c6H
	DB	037H
	DB	0c6H
	DB	018H
	DB	0c6H
	DB	037H
	DB	0c6H
	DB	038H
	DB	0c6H
	DB	037H
	DB	0c6H
	DB	038H
	DB	0c6H
	DB	038H
	DB	0c6H
	DB	018H
	DB	0c6H
	DB	037H
	DB	0c6H
	DB	038H
	DB	0c6H
	DB	038H
	DB	0c6H
	DB	038H
	DB	0c6H
	DB	037H
	DB	0c6H
	DB	038H
	DB	0c6H
	DB	038H
	DB	0c6H
	DB	038H
	DB	0c6H
	DB	038H
	DB	0c6H
	DB	038H
	DB	0c6H
	DB	037H
	DB	0beH
	DB	018H
	DB	0c6H
	DB	038H
	DB	0beH
	DB	037H
	DB	0beH
	DB	038H
	DB	0c6H
	DB	018H
	DB	0c6H
	DB	018H
	DB	0c6H
	DB	037H
	DB	0beH
	DB	038H
	DB	0c6H
	DB	038H
	DB	0c6H
	DB	058H
	DB	0ceH
	DB	058H
	DB	0c6H
	DB	079H
	DB	0ceH
	DB	058H
	DB	0ceH
	DB	059H
	DB	0c6H
	DB	078H
	DB	0c6H
	DB	058H
	DB	0ceH
	DB	058H
	DB	0ceH
	DB	079H
	DB	0c6H
	DB	058H
	DB	0ceH
	DB	059H
	DB	0c6H
	DB	058H
	DB	0c6H
	DB	078H
	DB	0ceH
	DB	059H
	DB	0c6H
	DB	059H
	DB	0c6H
	DB	058H
	DB	0ceH
	DB	079H
	DB	0c6H
	DB	058H
	DB	0c6H
	DB	059H
	DB	0ceH
	DB	058H
	DB	0c6H
	DB	079H
	DB	0ceH
	DB	078H
	DB	0ceH
	DB	058H
	DB	0c6H
	DB	079H
	DB	0ceH
	DB	078H
	DB	0ceH
	DB	059H
	DB	0c6H
	DB	078H
	DB	0ceH
	DB	079H
	DB	0c6H
	DB	058H
	DB	0ceH
	DB	059H
	DB	0c6H
	DB	058H
	DB	0ceH
	DB	058H
	DB	0c6H
	DB	079H
	DB	0ceH
	DB	078H
	DB	0ceH
	DB	059H
	DB	0c6H
	DB	079H
	DB	0ceH
	DB	058H
	DB	0ceH
	DB	079H
	DB	0c6H
	DB	079H
	DB	0ceH
	DB	058H
	DB	0ceH
	DB	079H
	DB	0c6H
	DB	058H
	DB	0c6H
	DB	058H
	DB	0ceH
	DB	079H
	DB	0ceH
	DB	058H
	DB	0c6H
	DB	058H
	DB	0ceH
	DB	079H
	DB	0c6H
	DB	058H
	DB	0ceH
	DB	079H
	DB	0c6H
	DB	079H
	DB	0ceH
	DB	058H
	DB	0c6H
	DB	079H
	DB	0ceH
	DB	079H
	DB	0ceH
	DB	058H
	DB	0c6H
	DB	079H
	DB	0ceH
	DB	059H
	DB	0ceH
	DB	079H
	DB	0ceH
	DB	059H
	DB	0ceH
	DB	078H
	DB	0ceH
	DB	059H
	DB	0ceH
	DB	079H
	DB	0ceH
	DB	078H
	DB	0ceH
	DB	059H
	DB	0ceH
	DB	078H
	DB	0ceH
	DB	079H
	DB	0ceH
	DB	059H
	DB	0ceH
	DB	078H
	DB	0ceH
	DB	079H
	DB	0ceH
	DB	079H
	DB	0ceH
	DB	079H
	DB	0ceH
	DB	079H
	DB	0ceH
	DB	079H
	DB	0ceH
	DB	079H
	DB	0ceH
	DB	079H
	DB	0ceH
	DB	079H
	DB	0ceH
	DB	078H
	DB	0ceH
	DB	079H
	DB	0ceH
	DB	079H
	DB	0ceH
	DB	058H
	DB	0ceH
	DB	078H
	DB	0ceH
	DB	079H
	DB	0ceH
	DB	059H
	DB	0ceH
	DB	078H
	DB	0ceH
	DB	079H
	DB	0ceH
	DB	079H
	DB	0ceH
	DB	079H
	DB	0ceH
	DB	059H
	DB	0ceH
	DB	079H
	DB	0ceH
	DB	059H
	DB	0ceH
	DB	079H
	DB	0ceH
	DB	079H
	DB	0ceH
	DB	059H
	DB	0ceH
	DB	079H
	DB	0ceH
	DB	059H
	DB	0ceH
	DB	079H
	DB	0ceH
	DB	079H
	DB	0ceH
	DB	079H
	DB	0ceH
	DB	079H
	DB	0ceH
	DB	079H
	DB	0ceH
	DB	079H
	DB	0ceH
	DB	059H
	DB	0ceH
	DB	079H
	DB	0ceH
	DB	079H
	DB	0ceH
	DB	079H
	DB	0ceH
	DB	079H
	DB	0ceH
	DB	079H
	DB	0ceH
	DB	079H
	DB	0ceH
	DB	079H
	DB	0ceH
	DB	079H
	DB	0ceH
	DB	079H
	DB	0d6H
	DB	079H
	DB	0ceH
	DB	079H
	DB	0ceH
	DB	079H
	DB	0d6H
	DB	079H
	DB	0ceH
	DB	079H
	DB	0ceH
	DB	079H
	DB	0ceH
	DB	079H
	DB	0ceH
	DB	079H
	DB	0ceH
	DB	079H
	DB	0ceH
	DB	079H
	DB	0ceH
	DB	079H
	DB	0ceH
	DB	079H
	DB	0ceH
	DB	079H
	DB	0ceH
	DB	079H
	DB	0ceH
	DB	079H
	DB	0d6H
	DB	079H
	DB	0ceH
	DB	079H
	DB	0ceH
	DB	079H
	DB	0ceH
	DB	079H
	DB	0ceH
	DB	079H
	DB	0ceH
	DB	079H
	DB	0d6H
	DB	079H
	DB	0ceH
	DB	079H
	DB	0ceH
	DB	079H
	DB	0ceH
	DB	079H
	DB	0d6H
	DB	079H
	DB	0ceH
	DB	07aH
	DB	0d6H
	DB	079H
	DB	0d6H
	DB	079H
	DB	0ceH
	DB	079H
	DB	0ceH
	DB	079H
	DB	0d6H
	DB	079H
	DB	0ceH
	DB	09aH
	DB	0d6H
	DB	079H
	DB	0ceH
	DB	079H
	DB	0ceH
	DB	09aH
	DB	0d6H
	DB	099H
	DB	0d6H
	DB	099H
	DB	0ceH
	DB	09aH
	DB	0ceH
	DB	079H
	DB	0ceH
	DB	079H
	DB	0d6H
	DB	09aH
	DB	0ceH
	DB	07aH
	DB	0ceH
	DB	07aH
	DB	0d6H
	DB	09aH
	DB	0d6H
	DB	07aH
	DB	0ceH
	DB	07aH
	DB	0ceH
	DB	099H
	DB	0ceH
	DB	09aH
	DB	0ceH
	DB	07aH
	DB	0d6H
	DB	099H
	DB	0ceH
	DB	079H
	DB	0d6H
	DB	099H
	DB	0d6H
	DB	079H
	DB	0ceH
	DB	09aH
	DB	0d6H
	DB	079H
	DB	0ceH
	DB	09aH
	DB	0ceH
	DB	079H
	DB	0d6H
	DB	09aH
	DB	0d6H
	DB	09aH
	DB	0d6H
	DB	09aH
	DB	0d6H
	DB	09aH
	DB	0d6H
	DB	09aH
	DB	0d6H
	DB	09aH
	DB	0d6H
	DB	09aH
	DB	0ceH
	DB	09aH
	DB	0d6H
	DB	079H
	DB	0d6H
	DB	09aH
	DB	0ceH
	DB	099H
	DB	0d6H
	DB	079H
	DB	0d6H
	DB	09aH
	DB	0ceH
	DB	099H
	DB	0ceH
	DB	079H
	DB	0d6H
	DB	099H
	DB	0d6H
	DB	09aH
	DB	0ceH
	DB	099H
	DB	0ceH
	DB	099H
	DB	0d6H
	DB	09aH
	DB	0d6H
	DB	099H
	DB	0ceH
	DB	099H
	DB	0d6H
	DB	09aH
	DB	0d6H
	DB	099H
	DB	0d6H
	DB	099H
	DB	0ceH
	DB	099H
	DB	0d6H
	DB	099H
	DB	0ceH
	DB	09aH
	DB	0d6H
	DB	099H
	DB	0d6H
	DB	099H
	DB	0ceH
	DB	099H
	DB	0d6H
	DB	099H
	DB	0ceH
	DB	09aH
	DB	0d6H
	DB	09aH
	DB	0d6H
	DB	099H
	DB	0ceH
	DB	09aH
	DB	0d6H
	DB	09aH
	DB	0d6H
	DB	09aH
	DB	0ceH
	DB	09aH
	DB	0ceH
	DB	09aH
	DB	0d6H
	DB	09aH
	DB	0d6H
	DB	09aH
	DB	0d6H
	DB	09aH
	DB	0d6H
	DB	09aH
	DB	0d6H
	DB	09aH
	DB	0d6H
	DB	09aH
	DB	0d6H
	DB	09aH
	DB	0d6H
	DB	09aH
	DB	0d6H
	DB	099H
	DB	0ceH
	DB	099H
	DB	0d6H
	DB	0baH
	DB	0d6H
	DB	099H
	DB	0ceH
	DB	099H
	DB	0ceH
	DB	0baH
	DB	0ceH
	DB	0b9H
	DB	0ceH
	DB	09aH
	DB	0d6H
	DB	09aH
	DB	0d6H
	DB	0baH
	DB	0d6H
	DB	09aH
	DB	0d6H
	DB	0b9H
	DB	0d6H
	DB	09aH
	DB	0ceH
	DB	0b9H
	DB	0d6H
	DB	09aH
	DB	0d6H
	DB	09aH
	DB	0d6H
	DB	0baH
	DB	0d6H
	DB	09aH
	DB	0d6H
	DB	09aH
	DB	0d6H
	DB	09aH
	DB	0d6H
	DB	0baH
	DB	0d6H
	DB	09aH
	DB	0d6H
	DB	09aH
	DB	0d6H
	DB	09aH
	DB	0d6H
	DB	0baH
	DB	0d6H
	DB	0baH
	DB	0d6H
	DB	099H
	DB	0d6H
	DB	09aH
	DB	0d6H
	DB	0baH
	DB	0d6H
	DB	09aH
	DB	0d6H
	DB	099H
	DB	0d6H
	DB	0baH
	DB	0d6H
	DB	09aH
	DB	0d6H
	DB	09aH
	DB	0d6H
	DB	0baH
	DB	0d6H
	DB	09aH
	DB	0d6H
	DB	0baH
	DB	0d6H
	DB	0baH
	DB	0d6H
	DB	0baH
	DB	0d6H
	DB	0baH
	DB	0d6H
	DB	09aH
	DB	0d6H
	DB	0baH
	DB	0d6H
	DB	0b9H
	DB	0d6H
	DB	09aH
	DB	0d6H
	DB	0baH
	DB	0d6H
	DB	09aH
	DB	0d6H
	DB	09aH
	DB	0d6H
	DB	0baH
	DB	0d6H
	DB	09aH
	DB	0d6H
	DB	09aH
	DB	0d6H
	DB	0b9H
	DB	0d6H
	DB	09aH
	DB	0d6H
	DB	0baH
	DB	0d6H
	DB	09aH
	DB	0d6H
	DB	0baH
	DB	0d6H
	DB	0baH
	DB	0d6H
	DB	0baH
	DB	0d6H
	DB	0baH
	DB	0d6H
	DB	0baH
	DB	0d6H
	DB	0baH
	DB	0d6H
	DB	0baH
	DB	0d6H
	DB	0baH
	DB	0d6H
	DB	0baH
	DB	0d6H
	DB	0baH
	DB	0d6H
	DB	0b9H
	DB	0d6H
	DB	09aH
	DB	0d6H
	DB	09aH
	DB	0d6H
	DB	0baH
	DB	0d6H
	DB	0b9H
	DB	0d6H
	DB	09aH
	DB	0d6H
	DB	0baH
	DB	0d6H
	DB	0b9H
	DB	0d6H
	DB	09aH
	DB	0d6H
	DB	0baH
	DB	0d6H
	DB	0b9H
	DB	0d6H
	DB	09aH
	DB	0d6H
	DB	0baH
	DB	0d6H
	DB	0baH
	DB	0d6H
	DB	0baH
	DB	0d6H
	DB	0baH
	DB	0d6H
	DB	0baH
	DB	0d6H
	DB	09aH
	DB	0d6H
	DB	0baH
	DB	0d6H
	DB	0baH
	DB	0d6H
	DB	09aH
	DB	0d6H
	DB	0baH
	DB	0d6H
	DB	0baH
	DB	0d6H
	DB	0baH
	DB	0d6H
	DB	0baH
	DB	0d6H
	DB	0b9H
	DB	0d6H
	DB	0baH
	DB	0d6H
	DB	0baH
	DB	0d6H
	DB	0baH
	DB	0d6H
	DB	0baH
	DB	0d6H
	DB	0baH
	DB	0d6H
	DB	0baH
	DB	0d6H
	DB	09aH
	DB	0d6H
	DB	0baH
	DB	0d6H
	DB	0baH
	DB	0d6H
	DB	09aH
	DB	0d6H
	DB	09aH
	DB	0d6H
	DB	0baH
	DB	0d6H
	DB	0baH
	DB	0d6H
	DB	09aH
	DB	0d6H
	DB	09aH
	DB	0d6H
	DB	0baH
	DB	0d6H
	DB	09aH
	DB	0d6H
	DB	0baH
	DB	0d6H
	DB	0baH
	DB	0d6H
	DB	0baH
	DB	0d6H
	DB	0baH
	DB	0d6H
	DB	0baH
	DB	0d6H
	DB	0baH
	DB	0d6H
	DB	09aH
	DB	0d6H
	DB	09aH
	DB	0d6H
	DB	099H
	DB	0d6H
	DB	09aH
	DB	0d6H
	DB	0baH
	DB	0d6H
	DB	09aH
	DB	0d6H
	DB	0baH
	DB	0d6H
	DB	0b9H
	DB	0d6H
	DB	09aH
	DB	0d6H
	DB	09aH
	DB	0d6H
	DB	099H
	DB	0d6H
	DB	0baH
	DB	0d6H
	DB	0baH
	DB	0d6H
	DB	09aH
	DB	0d6H
	DB	099H
	DB	0ceH
	DB	0baH
	DB	0d6H
	DB	09aH
	DB	0d6H
	DB	099H
	DB	0d6H
	DB	079H
	DB	0ceH
	DB	079H
	DB	0ceH
	DB	038H
	DB	0c6H
	DB	038H
	DB	0c6H
	DB	038H
	DB	0c6H
	DB	058H
	DB	0ceH
	DB	038H
	DB	0c6H
	DB	038H
	DB	0c6H
	DB	058H
	DB	0ceH
	DB	038H
	DB	0c6H
	DB	038H
	DB	0c6H
	DB	058H
	DB	0c6H
	DB	038H
	DB	0ceH
	DB	037H
	DB	0c6H
	DB	058H
	DB	0c6H
	DB	038H
	DB	0c6H
	DB	037H
	DB	0c6H
	DB	038H
	DB	0c6H
	DB	058H
	DB	0c6H
	DB	038H
	DB	0c6H
	DB	038H
	DB	0c6H
	DB	037H
	DB	0c6H
	DB	038H
	DB	0ceH
	DB	038H
	DB	0c6H
	DB	038H
	DB	0ceH
	DB	038H
	DB	0ceH
	DB	037H
	DB	0c6H
	DB	038H
	DB	0c6H
	DB	038H
	DB	0c6H
	DB	038H
	DB	0c6H
	DB	038H
	DB	0c6H
	DB	038H
	DB	0c6H
	DB	038H
	DB	0c6H
	DB	058H
	DB	0c6H
	DB	038H
	DB	0c6H
	DB	037H
	DB	0c6H
	DB	038H
	DB	0c6H
	DB	038H
	DB	0c6H
	DB	058H
	DB	0c6H
	DB	038H
	DB	0c6H
	DB	038H
	DB	0c6H
	DB	058H
	DB	0c6H
	DB	038H
	DB	0c6H
	DB	038H
	DB	0c6H
	DB	038H
	DB	0c6H
	DB	038H
	DB	0c6H
	DB	038H
	DB	0ceH
	DB	038H
	DB	0c6H
	DB	038H
	DB	0c6H
	DB	058H
	DB	0ceH
	DB	058H
	DB	0c6H
	DB	058H
	DB	0c6H
	DB	038H
	DB	0c6H
	DB	058H
	DB	0c6H
	DB	058H
	DB	0c6H
	DB	038H
	DB	0ceH
	DB	058H
	DB	0c6H
	DB	038H
	DB	0c6H
	DB	058H
	DB	0c6H
	DB	038H
	DB	0c6H
	DB	058H
	DB	0c6H
	DB	058H
	DB	0c6H
	DB	038H
	DB	0c6H
	DB	058H
	DB	0c6H
	DB	058H
	DB	0c6H
	DB	038H
	DB	0c6H
	DB	058H
	DB	0c6H
	DB	038H
	DB	0c6H
	DB	058H
	DB	0c6H
	DB	038H
	DB	0ceH
	DB	058H
	DB	0c6H
	DB	058H
	DB	0c6H
	DB	038H
	DB	0c6H
	DB	038H
	DB	0ceH
	DB	038H
	DB	0c6H
	DB	038H
	DB	0c6H
	DB	058H
	DB	0ceH
	DB	038H
	DB	0c6H
	DB	058H
	DB	0c6H
	DB	038H
	DB	0c6H
	DB	079H
	DB	0d6H
	DB	030H
	DB	084H
	DB	079H
	DB	0ceH
	DB	038H
	DB	0c6H
	DB	037H
	DB	0c6H
	DB	058H
	DB	0c6H
	DB	038H
	DB	0c6H
	DB	038H
	DB	0c6H
	DB	038H
	DB	0c6H
	DB	038H
	DB	0c6H
	DB	037H
	DB	0ceH
	DB	038H
	DB	0c6H
	DB	038H
	DB	0c6H
	DB	038H
	DB	0ceH
	DB	038H
	DB	0c6H
	DB	038H
	DB	0c6H
	DB	038H
	DB	0ceH
	DB	038H
	DB	0c6H
	DB	037H
	DB	0c6H
	DB	038H
	DB	0c6H
	DB	038H
	DB	0c6H
	DB	038H
	DB	0c6H
	DB	038H
	DB	0c6H
	DB	038H
	DB	0c6H
	DB	038H
	DB	0c6H
	DB	038H
	DB	0c6H
	DB	038H
	DB	0c6H
	DB	037H
	DB	0c6H
	DB	038H
	DB	0c6H
	DB	038H
	DB	0c6H
	DB	037H
	DB	0c6H
	DB	038H
	DB	0c6H
	DB	038H
	DB	0c6H
	DB	037H
	DB	0ceH
	DB	038H
	DB	0c6H
	DB	018H
	DB	0c6H
	DB	038H
	DB	0c6H
	DB	038H
	DB	0c6H
	DB	018H
	DB	0c6H
	DB	037H
	DB	0ceH
	DB	038H
	DB	0c6H
	DB	018H
	DB	0c6H
	DB	037H
	DB	0ceH
	DB	038H
	DB	0c6H
	DB	037H
	DB	0c6H
	DB	038H
	DB	0ceH
	DB	018H
	DB	0c6H
	DB	038H
	DB	0c6H
	DB	017H
	DB	0ceH
	DB	038H
	DB	0c6H
	DB	038H
	DB	0c6H
	DB	037H
	DB	0ceH
	DB	038H
	DB	0c6H
	DB	038H
	DB	0c6H
	DB	038H
	DB	0c6H
	DB	018H
	DB	0c6H
	DB	038H
	DB	0c6H
	DB	037H
	DB	0c6H
	DB	018H
	DB	0ceH
	DB	038H
	DB	0c6H
	DB	038H
	DB	0c6H
	DB	038H
	DB	0c6H
	DB	018H
	DB	0ceH
	DB	037H
	DB	0c6H
	DB	038H
	DB	0c6H
	DB	038H
	DB	0c6H
	DB	017H
	DB	0c6H
	DB	038H
	DB	0beH
	DB	037H
	DB	0c6H
	DB	038H
	DB	0c6H
	DB	038H
	DB	0c6H
	DB	037H
	DB	0beH
	DB	018H
	DB	0c6H
	DB	037H
	DB	0c6H
	DB	038H
	DB	0c6H
	DB	038H
	DB	0c6H
	DB	037H
	DB	0c6H
	DB	018H
	DB	0c6H
	DB	018H
	DB	0c6H
	DB	037H
	DB	0c6H
	DB	018H
	DB	0c6H
	DB	037H
	DB	0c6H
	DB	058H
	DB	0c6H
	DB	059H
	DB	0ceH
	DB	058H
	DB	0c6H
	DB	078H
	DB	0ceH
	DB	059H
	DB	0ceH
	DB	058H
	DB	0c6H
	DB	079H
	DB	0ceH
	DB	079H
	DB	0ceH
	DB	078H
	DB	0c6H
	DB	079H
	DB	0ceH
	DB	058H
	DB	0ceH
	DB	079H
	DB	0ceH
	DB	079H
	DB	0ceH
	DB	078H
	DB	0ceH
	DB	079H
	DB	0ceH
	DB	078H
	DB	0ceH
	DB	059H
	DB	0ceH
	DB	079H
	DB	0ceH
	DB	078H
	DB	0ceH
	DB	059H
	DB	0c6H
	DB	079H
	DB	0ceH
	DB	058H
	DB	0ceH
	DB	079H
	DB	0ceH
	DB	079H
	DB	0c6H
	DB	058H
	DB	0ceH
	DB	079H
	DB	0ceH
	DB	079H
	DB	0c6H
	DB	058H
	DB	0ceH
	DB	078H
	DB	0ceH
	DB	079H
	DB	0ceH
	DB	079H
	DB	0c6H
	DB	058H
	DB	0ceH
	DB	058H
	DB	0c6H
	DB	079H
	DB	0ceH
	DB	058H
	DB	0ceH
	DB	058H
	DB	0c6H
	DB	078H
	DB	0ceH
	DB	059H
	DB	0ceH
	DB	058H
	DB	0c6H
	DB	079H
	DB	0ceH
	DB	059H
	DB	0ceH
	DB	058H
	DB	0ceH
	DB	079H
	DB	0ceH
	DB	079H
	DB	0ceH
	DB	059H
	DB	0ceH
	DB	079H
	DB	0ceH
	DB	059H
	DB	0ceH
	DB	058H
	DB	0ceH
	DB	079H
	DB	0ceH
	DB	059H
	DB	0ceH
	DB	058H
	DB	0ceH
	DB	079H
	DB	0ceH
	DB	059H
	DB	0ceH
	DB	078H
	DB	0ceH
	DB	059H
	DB	0ceH
	DB	058H
	DB	0ceH
	DB	079H
	DB	0ceH
	DB	078H
	DB	0ceH
	DB	058H
	DB	0ceH
	DB	059H
	DB	0ceH
	DB	058H
	DB	0ceH
	DB	079H
	DB	0ceH
	DB	059H
	DB	0ceH
	DB	058H
	DB	0ceH
	DB	079H
	DB	0ceH
	DB	059H
	DB	0ceH
	DB	058H
	DB	0ceH
	DB	079H
	DB	0ceH
	DB	078H
	DB	0ceH
	DB	078H
	DB	0ceH
	DB	079H
	DB	0ceH
	DB	079H
	DB	0ceH
	DB	079H
	DB	0ceH
	DB	079H
	DB	0ceH
	DB	079H
	DB	0ceH
	DB	079H
	DB	0ceH
	DB	059H
	DB	0ceH
	DB	079H
	DB	0ceH
	DB	079H
	DB	0ceH
	DB	059H
	DB	0ceH
	DB	079H
	DB	0ceH
	DB	078H
	DB	0ceH
	DB	059H
	DB	0ceH
	DB	079H
	DB	0ceH
	DB	079H
	DB	0ceH
	DB	059H
	DB	0ceH
	DB	079H
	DB	0ceH
	DB	079H
	DB	0ceH
	DB	079H
	DB	0ceH
	DB	059H
	DB	0ceH
	DB	079H
	DB	0ceH
	DB	079H
	DB	0ceH
	DB	079H
	DB	0ceH
	DB	059H
	DB	0ceH
	DB	079H
	DB	0ceH
	DB	079H
	DB	0ceH
	DB	079H
	DB	0d6H
	DB	079H
	DB	0ceH
	DB	079H
	DB	0ceH
	DB	079H
	DB	0d6H
	DB	079H
	DB	0ceH
	DB	079H
	DB	0ceH
	DB	079H
	DB	0d6H
	DB	079H
	DB	0ceH
	DB	079H
	DB	0d6H
	DB	079H
	DB	0ceH
	DB	079H
	DB	0d6H
	DB	079H
	DB	0ceH
	DB	079H
	DB	0ceH
	DB	079H
	DB	0d6H
	DB	079H
	DB	0ceH
	DB	079H
	DB	0ceH
	DB	079H
	DB	0ceH
	DB	079H
	DB	0ceH
	DB	079H
	DB	0d6H
	DB	079H
	DB	0ceH
	DB	079H
	DB	0d6H
	DB	079H
	DB	0d6H
	DB	07aH
	DB	0ceH
	DB	079H
	DB	0d6H
	DB	079H
	DB	0ceH
	DB	079H
	DB	0ceH
	DB	079H
	DB	0ceH
	DB	07aH
	DB	0d6H
	DB	079H
	DB	0ceH
	DB	079H
	DB	0ceH
	DB	07aH
	DB	0d6H
	DB	079H
	DB	0d6H
	DB	07aH
	DB	0ceH
	DB	079H
	DB	0ceH
	DB	07aH
	DB	0d6H
	DB	09aH
	DB	0ceH
	DB	079H
	DB	0ceH
	DB	07aH
	DB	0d6H
	DB	079H
	DB	0ceH
	DB	079H
	DB	0ceH
	DB	07aH
	DB	0ceH
	DB	079H
	DB	0d6H
	DB	079H
	DB	0ceH
	DB	09aH
	DB	0d6H
	DB	09aH
	DB	0d6H
	DB	099H
	DB	0ceH
	DB	09aH
	DB	0d6H
	DB	099H
	DB	0d6H
	DB	099H
	DB	0ceH
	DB	07aH
	DB	0d6H
	DB	079H
	DB	0d6H
	DB	09aH
	DB	0ceH
	DB	079H
	DB	0d6H
	DB	09aH
	DB	0d6H
	DB	079H
	DB	0ceH
	DB	099H
	DB	0d6H
	DB	099H
	DB	0ceH
	DB	099H
	DB	0ceH
	DB	099H
	DB	0ceH
	DB	099H
	DB	0ceH
	DB	099H
	DB	0ceH
	DB	099H
	DB	0ceH
	DB	099H
	DB	0ceH
	DB	09aH
	DB	0ceH
	DB	099H
	DB	0d6H
	DB	09aH
	DB	0ceH
	DB	099H
	DB	0d6H
	DB	099H
	DB	0d6H
	DB	09aH
	DB	0d6H
	DB	09aH
	DB	0d6H
	DB	099H
	DB	0d6H
	DB	09aH
	DB	0ceH
	DB	099H
	DB	0d6H
	DB	099H
	DB	0ceH
	DB	07aH
	DB	0ceH
	DB	099H
	DB	0ceH
	DB	099H
	DB	0d6H
	DB	07aH
	DB	0ceH
	DB	099H
	DB	0d6H
	DB	09aH
	DB	0d6H
	DB	099H
	DB	0ceH
	DB	099H
	DB	0ceH
	DB	09aH
	DB	0ceH
	DB	099H
	DB	0ceH
	DB	099H
	DB	0ceH
	DB	09aH
	DB	0ceH
	DB	099H
	DB	0ceH
	DB	099H
	DB	0ceH
	DB	09aH
	DB	0ceH
	DB	099H
	DB	0d6H
	DB	099H
	DB	0ceH
	DB	09aH
	DB	0ceH
	DB	099H
	DB	0d6H
	DB	099H
	DB	0ceH
	DB	09aH
	DB	0d6H
	DB	09aH
	DB	0ceH
	DB	09aH
	DB	0d6H
	DB	099H
	DB	0d6H
	DB	09aH
	DB	0ceH
	DB	09aH
	DB	0d6H
	DB	099H
	DB	0d6H
	DB	09aH
	DB	0ceH
	DB	09aH
	DB	0d6H
	DB	099H
	DB	0ceH
	DB	09aH
	DB	0ceH
	DB	099H
	DB	0d6H
	DB	099H
	DB	0d6H
	DB	09aH
	DB	0ceH
	DB	099H
	DB	0d6H
	DB	099H
	DB	0d6H
	DB	099H
	DB	0ceH
	DB	0b9H
	DB	0ceH
	DB	09aH
	DB	0d6H
	DB	099H
	DB	0d6H
	DB	099H
	DB	0ceH
	DB	09aH
	DB	0d6H
	DB	099H
	DB	0d6H
	DB	0baH
	DB	0d6H
	DB	09aH
	DB	0d6H
	DB	09aH
	DB	0d6H
	DB	0baH
	DB	0d6H
	DB	09aH
	DB	0d6H
	DB	09aH
	DB	0d6H
	DB	09aH
	DB	0d6H
	DB	09aH
	DB	0d6H
	DB	09aH
	DB	0d6H
	DB	09aH
	DB	0d6H
	DB	09aH
	DB	0d6H
	DB	099H
	DB	0d6H
	DB	09aH
	DB	0ceH
	DB	09aH
	DB	0d6H
	DB	09aH
	DB	0d6H
	DB	0baH
	DB	0d6H
	DB	099H
	DB	0d6H
	DB	09aH
	DB	0d6H
	DB	09aH
	DB	0ceH
	DB	0baH
	DB	0d6H
	DB	0b9H
	DB	0d6H
	DB	0baH
	DB	0d6H
	DB	0baH
	DB	0d6H
	DB	09aH
	DB	0d6H
	DB	0baH
	DB	0d6H
	DB	0b9H
	DB	0d6H
	DB	0baH
	DB	0d6H
	DB	09aH
	DB	0d6H
	DB	09aH
	DB	0d6H
	DB	0baH
	DB	0d6H
	DB	09aH
	DB	0d6H
	DB	0baH
	DB	0d6H
	DB	0baH
	DB	0d6H
	DB	09aH
	DB	0d6H
	DB	0baH
	DB	0d6H
	DB	0b9H
	DB	0d6H
	DB	09aH
	DB	0d6H
	DB	09aH
	DB	0d6H
	DB	0b9H
	DB	0d6H
	DB	09aH
	DB	0d6H
	DB	09aH
	DB	0d6H
	DB	099H
	DB	0d6H
	DB	0baH
	DB	0d6H
	DB	09aH
	DB	0d6H
	DB	0baH
	DB	0d6H
	DB	09aH
	DB	0d6H
	DB	0baH
	DB	0d6H
	DB	0baH
	DB	0d6H
	DB	099H
	DB	0d6H
	DB	0baH
	DB	0d6H
	DB	0baH
	DB	0d6H
	DB	0baH
	DB	0d6H
	DB	0baH
	DB	0d6H
	DB	0baH
	DB	0d6H
	DB	0baH
	DB	0d6H
	DB	0baH
	DB	0d6H
	DB	0baH
	DB	0d6H
	DB	0baH
	DB	0d6H
	DB	0baH
	DB	0d6H
	DB	0baH
	DB	0d6H
	DB	0baH
	DB	0d6H
	DB	0baH
	DB	0d6H
	DB	0baH
	DB	0d6H
	DB	0baH
	DB	0d6H
	DB	0baH
	DB	0d6H
	DB	09aH
	DB	0d6H
	DB	0baH
	DB	0d6H
	DB	0baH
	DB	0d6H
	DB	0b9H
	DB	0d6H
	DB	0baH
	DB	0d6H
	DB	0baH
	DB	0d6H
	DB	09aH
	DB	0d6H
	DB	0baH
	DB	0d6H
	DB	0b9H
	DB	0d6H
	DB	09aH
	DB	0d6H
	DB	0baH
	DB	0d6H
	DB	0baH
	DB	0d6H
	DB	0baH
	DB	0d6H
	DB	0b9H
	DB	0d6H
	DB	0baH
	DB	0d6H
	DB	0baH
	DB	0d6H
	DB	0b9H
	DB	0d6H
	DB	0baH
	DB	0d6H
	DB	0b9H
	DB	0d6H
	DB	0baH
	DB	0d6H
	DB	0b9H
	DB	0d6H
	DB	0b9H
	DB	0d6H
	DB	0baH
	DB	0d6H
	DB	099H
	DB	0d6H
	DB	0baH
	DB	0d6H
	DB	09aH
	DB	0d6H
	DB	0baH
	DB	0d6H
	DB	0baH
	DB	0d6H
	DB	09aH
	DB	0d6H
	DB	0baH
	DB	0d6H
	DB	0baH
	DB	0d6H
	DB	09aH
	DB	0d6H
	DB	0baH
	DB	0d6H
	DB	0baH
	DB	0d6H
	DB	0baH
	DB	0d6H
	DB	0baH
	DB	0d6H
	DB	0baH
	DB	0d6H
	DB	0baH
	DB	0d6H
	DB	0baH
	DB	0d6H
	DB	0baH
	DB	0d6H
	DB	0baH
	DB	0d6H
	DB	0baH
	DB	0d6H
	DB	0baH
	DB	0d6H
	DB	0baH
	DB	0d6H
	DB	0baH
	DB	0d6H
	DB	09aH
	DB	0d6H
	DB	0baH
	DB	0d6H
	DB	0baH
	DB	0d6H
	DB	09aH
	DB	0d6H
	DB	0baH
	DB	0d6H
	DB	0baH
	DB	0d6H
	DB	0baH
	DB	0d6H
	DB	0baH
	DB	0d6H
	DB	0baH
	DB	0d6H
	DB	09aH
	DB	0d6H
	DB	09aH
	DB	0d6H
	DB	0baH
	DB	0d6H
	DB	09aH
	DB	0d6H
	DB	0b9H
	DB	0d6H
	DB	09aH
	DB	0d6H
	DB	0baH
	DB	0d6H
	DB	099H
	DB	0d6H
	DB	09aH
	DB	0d6H
	DB	0baH
	DB	0d6H
	DB	0baH
	DB	0d6H
	DB	0baH
	DB	0d6H
	DB	0baH
	DB	0d6H
	DB	0baH
	DB	0d6H
	DB	099H
	DB	0d6H
	DB	079H
	DB	0ceH
	DB	079H
	DB	0ceH
	DB	038H
	DB	0ceH
	DB	038H
	DB	0c6H
	DB	038H
	DB	0c6H
	DB	038H
	DB	0ceH
	DB	058H
	DB	0c6H
	DB	038H
	DB	0ceH
	DB	038H
	DB	0c6H
	DB	038H
	DB	0c6H
	DB	038H
	DB	0ceH
	DB	038H
	DB	0c6H
	DB	038H
	DB	0c6H
	DB	038H
	DB	0c6H
	DB	058H
	DB	0c6H
	DB	038H
	DB	0c6H
	DB	038H
	DB	0ceH
	DB	038H
	DB	0c6H
	DB	038H
	DB	0c6H
	DB	058H
	DB	0c6H
	DB	038H
	DB	0c6H
	DB	038H
	DB	0c6H
	DB	038H
	DB	0c6H
	DB	038H
	DB	0c6H
	DB	038H
	DB	0c6H
	DB	038H
	DB	0c6H
	DB	038H
	DB	0ceH
	DB	038H
	DB	0c6H
	DB	038H
	DB	0c6H
	DB	058H
	DB	0c6H
	DB	038H
	DB	0c6H
	DB	038H
	DB	0c6H
	DB	038H
	DB	0c6H
	DB	038H
	DB	0c6H
	DB	058H
	DB	0c6H
	DB	038H
	DB	0c6H
	DB	038H
	DB	0c6H
	DB	038H
	DB	0c6H
	DB	038H
	DB	0c6H
	DB	038H
	DB	0c6H
	DB	038H
	DB	0c6H
	DB	038H
	DB	0c6H
	DB	038H
	DB	0c6H
	DB	058H
	DB	0c6H
	DB	038H
	DB	0c6H
	DB	038H
	DB	0c6H
	DB	038H
	DB	0c6H
	DB	038H
	DB	0c6H
	DB	038H
	DB	0c6H
	DB	038H
	DB	0c6H
	DB	038H
	DB	0c6H
	DB	038H
	DB	0c6H
	DB	038H
	DB	0c6H
	DB	038H
	DB	0ceH
	DB	038H
	DB	0ceH
	DB	038H
	DB	0c6H
	DB	038H
	DB	0ceH
	DB	038H
	DB	0ceH
	DB	038H
	DB	0ceH
	DB	038H
	DB	0ceH
	DB	038H
	DB	0ceH
	DB	058H
	DB	0c6H
	DB	038H
	DB	0c6H
	DB	058H
	DB	0c6H
	DB	038H
	DB	0c6H
	DB	058H
	DB	0c6H
	DB	058H
	DB	0c6H
	DB	038H
	DB	0c6H
	DB	038H
	DB	0c6H
	DB	058H
	DB	0c6H
	DB	038H
	DB	0c6H
	DB	058H
	DB	0c6H
	DB	058H
	DB	0c6H
	DB	038H
	DB	0ceH
	DB	038H
	DB	0c6H
	DB	038H
	DB	0c6H
	DB	038H
	DB	0ceH
	DB	038H
	DB	0c6H
	DB	058H
	DB	0c6H
	DB	038H
	DB	0c6H
	DB	079H
	DB	0ceH
	DB	0fH
	DB	084H
	DB	079H
	DB	0ceH
	DB	038H
	DB	0c6H
	DB	038H
	DB	0c6H
	DB	038H
	DB	0c6H
	DB	037H
	DB	0c6H
	DB	058H
	DB	0c6H
	DB	038H
	DB	0c6H
	DB	038H
	DB	0c6H
	DB	038H
	DB	0c6H
	DB	038H
	DB	0ceH
	DB	038H
	DB	0c6H
	DB	038H
	DB	0c6H
	DB	038H
	DB	0ceH
	DB	037H
	DB	0c6H
	DB	038H
	DB	0c6H
	DB	038H
	DB	0c6H
	DB	038H
	DB	0c6H
	DB	018H
	DB	0c6H
	DB	037H
	DB	0c6H
	DB	038H
	DB	0ceH
	DB	038H
	DB	0c6H
	DB	037H
	DB	0ceH
	DB	037H
	DB	0c6H
	DB	038H
	DB	0c6H
	DB	038H
	DB	0c6H
	DB	018H
	DB	0c6H
	DB	037H
	DB	0c6H
	DB	038H
	DB	0c6H
	DB	038H
	DB	0c6H
	DB	017H
	DB	0c6H
	DB	038H
	DB	0c6H
	DB	038H
	DB	0c6H
	DB	018H
	DB	0c6H
	DB	037H
	DB	0c6H
	DB	037H
	DB	0c6H
	DB	018H
	DB	0c6H
	DB	038H
	DB	0c6H
	DB	038H
	DB	0c6H
	DB	018H
	DB	0c6H
	DB	038H
	DB	0c6H
	DB	038H
	DB	0c6H
	DB	018H
	DB	0c6H
	DB	037H
	DB	0c6H
	DB	038H
	DB	0c6H
	DB	038H
	DB	0c6H
	DB	037H
	DB	0c6H
	DB	018H
	DB	0c6H
	DB	038H
	DB	0c6H
	DB	017H
	DB	0c6H
	DB	018H
	DB	0c6H
	DB	038H
	DB	0c6H
	DB	038H
	DB	0c6H
	DB	017H
	DB	0ceH
	DB	038H
	DB	0c6H
	DB	038H
	DB	0c6H
	DB	018H
	DB	0c6H
	DB	038H
	DB	0c6H
	DB	037H
	DB	0c6H
	DB	017H
	DB	0c6H
	DB	038H
	DB	0c6H
	DB	038H
	DB	0c6H
	DB	018H
	DB	0c6H
	DB	038H
	DB	0c6H
	DB	037H
	DB	0c6H
	DB	018H
	DB	0c6H
	DB	037H
	DB	0c6H
	DB	038H
	DB	0beH
	DB	017H
	DB	0c6H
	DB	017H
	DB	0c6H
	DB	018H
	DB	0c6H
	DB	018H
	DB	0c6H
	DB	017H
	DB	0c6H
	DB	018H
	DB	0c6H
	DB	018H
	DB	0c6H
	DB	017H
	DB	0c6H
	DB	037H
	DB	0c6H
	DB	038H
	DB	0c6H
	DB	018H
	DB	0c6H
	DB	017H
	DB	0c6H
	DB	018H
	DB	0c6H
	DB	058H
	DB	0c6H
	DB	059H
	DB	0ceH
	DB	058H
	DB	0c6H
	DB	058H
	DB	0c6H
	DB	079H
	DB	0ceH
	DB	079H
	DB	0ceH
	DB	058H
	DB	0c6H
	DB	059H
	DB	0ceH
	DB	058H
	DB	0ceH
	DB	078H
	DB	0c6H
	DB	079H
	DB	0ceH
	DB	059H
	DB	0c6H
	DB	058H
	DB	0c6H
	DB	058H
	DB	0ceH
	DB	079H
	DB	0c6H
	DB	058H
	DB	0c6H
	DB	058H
	DB	0ceH
	DB	079H
	DB	0ceH
	DB	078H
	DB	0c6H
	DB	058H
	DB	0ceH
	DB	059H
	DB	0c6H
	DB	078H
	DB	0ceH
	DB	059H
	DB	0c6H
	DB	058H
	DB	0ceH
	DB	058H
	DB	0c6H
	DB	079H
	DB	0ceH
	DB	058H
	DB	0ceH
	DB	058H
	DB	0c6H
	DB	079H
	DB	0ceH
	DB	058H
	DB	0ceH
	DB	079H
	DB	0c6H
	DB	079H
	DB	0ceH
	DB	058H
	DB	0ceH
	DB	079H
	DB	0c6H
	DB	079H
	DB	0ceH
	DB	058H
	DB	0c6H
	DB	079H
	DB	0ceH
	DB	058H
	DB	0ceH
	DB	078H
	DB	0c6H
	DB	079H
	DB	0c6H
	DB	058H
	DB	0ceH
	DB	059H
	DB	0ceH
	DB	079H
	DB	0ceH
	DB	058H
	DB	0ceH
	DB	078H
	DB	0ceH
	DB	079H
	DB	0ceH
	DB	059H
	DB	0ceH
	DB	078H
	DB	0ceH
	DB	079H
	DB	0ceH
	DB	058H
	DB	0ceH
	DB	079H
	DB	0ceH
	DB	059H
	DB	0ceH
	DB	078H
	DB	0ceH
	DB	059H
	DB	0ceH
	DB	079H
	DB	0ceH
	DB	078H
	DB	0ceH
	DB	059H
	DB	0ceH
	DB	059H
	DB	0ceH
	DB	079H
	DB	0ceH
	DB	079H
	DB	0ceH
	DB	058H
	DB	0ceH
	DB	079H
	DB	0ceH
	DB	079H
	DB	0ceH
	DB	079H
	DB	0ceH
	DB	079H
	DB	0ceH
	DB	079H
	DB	0ceH
	DB	079H
	DB	0ceH
	DB	079H
	DB	0ceH
	DB	079H
	DB	0ceH
	DB	059H
	DB	0ceH
	DB	078H
	DB	0ceH
	DB	079H
	DB	0ceH
	DB	059H
	DB	0ceH
	DB	059H
	DB	0ceH
	DB	079H
	DB	0ceH
	DB	079H
	DB	0ceH
	DB	059H
	DB	0ceH
	DB	079H
	DB	0ceH
	DB	079H
	DB	0ceH
	DB	079H
	DB	0ceH
	DB	079H
	DB	0ceH
	DB	079H
	DB	0ceH
	DB	079H
	DB	0ceH
	DB	058H
	DB	0ceH
	DB	079H
	DB	0ceH
	DB	079H
	DB	0ceH
	DB	079H
	DB	0ceH
	DB	079H
	DB	0d6H
	DB	079H
	DB	0ceH
	DB	079H
	DB	0ceH
	DB	079H
	DB	0d6H
	DB	079H
	DB	0ceH
	DB	079H
	DB	0d6H
	DB	079H
	DB	0ceH
	DB	079H
	DB	0ceH
	DB	079H
	DB	0d6H
	DB	079H
	DB	0ceH
	DB	079H
	DB	0ceH
	DB	079H
	DB	0d6H
	DB	079H
	DB	0ceH
	DB	079H
	DB	0ceH
	DB	079H
	DB	0d6H
	DB	079H
	DB	0ceH
	DB	079H
	DB	0ceH
	DB	079H
	DB	0ceH
	DB	079H
	DB	0ceH
	DB	079H
	DB	0d6H
	DB	079H
	DB	0ceH
	DB	079H
	DB	0ceH
	DB	079H
	DB	0ceH
	DB	079H
	DB	0ceH
	DB	079H
	DB	0d6H
	DB	079H
	DB	0d6H
	DB	079H
	DB	0ceH
	DB	079H
	DB	0ceH
	DB	079H
	DB	0d6H
	DB	079H
	DB	0ceH
	DB	079H
	DB	0ceH
	DB	079H
	DB	0d6H
	DB	07aH
	DB	0ceH
	DB	079H
	DB	0d6H
	DB	079H
	DB	0d6H
	DB	07aH
	DB	0ceH
	DB	079H
	DB	0d6H
	DB	079H
	DB	0ceH
	DB	09aH
	DB	0ceH
	DB	079H
	DB	0d6H
	DB	099H
	DB	0ceH
	DB	079H
	DB	0d6H
	DB	079H
	DB	0ceH
	DB	099H
	DB	0ceH
	DB	079H
	DB	0d6H
	DB	079H
	DB	0ceH
	DB	09aH
	DB	0d6H
	DB	099H
	DB	0ceH
	DB	079H
	DB	0ceH
	DB	09aH
	DB	0d6H
	DB	099H
	DB	0ceH
	DB	09aH
	DB	0d6H
	DB	079H
	DB	0ceH
	DB	099H
	DB	0ceH
	DB	07aH
	DB	0d6H
	DB	079H
	DB	0ceH
	DB	09aH
	DB	0d6H
	DB	079H
	DB	0ceH
	DB	099H
	DB	0ceH
	DB	07aH
	DB	0d6H
	DB	079H
	DB	0ceH
	DB	099H
	DB	0d6H
	DB	07aH
	DB	0ceH
	DB	09aH
	DB	0ceH
	DB	079H
	DB	0d6H
	DB	099H
	DB	0ceH
	DB	09aH
	DB	0ceH
	DB	099H
	DB	0ceH
	DB	09aH
	DB	0d6H
	DB	09aH
	DB	0d6H
	DB	079H
	DB	0ceH
	DB	099H
	DB	0ceH
	DB	099H
	DB	0ceH
	DB	079H
	DB	0d6H
	DB	099H
	DB	0d6H
	DB	09aH
	DB	0ceH
	DB	099H
	DB	0ceH
	DB	07aH
	DB	0d6H
	DB	099H
	DB	0ceH
	DB	099H
	DB	0d6H
	DB	07aH
	DB	0d6H
	DB	09aH
	DB	0ceH
	DB	099H
	DB	0d6H
	DB	079H
	DB	0d6H
	DB	09aH
	DB	0d6H
	DB	099H
	DB	0ceH
	DB	079H
	DB	0d6H
	DB	09aH
	DB	0d6H
	DB	099H
	DB	0ceH
	DB	099H
	DB	0ceH
	DB	099H
	DB	0d6H
	DB	099H
	DB	0ceH
	DB	099H
	DB	0d6H
	DB	099H
	DB	0d6H
	DB	099H
	DB	0d6H
	DB	099H
	DB	0ceH
	DB	099H
	DB	0d6H
	DB	099H
	DB	0ceH
	DB	099H
	DB	0d6H
	DB	099H
	DB	0ceH
	DB	099H
	DB	0ceH
	DB	099H
	DB	0ceH
	DB	09aH
	DB	0d6H
	DB	099H
	DB	0ceH
	DB	099H
	DB	0ceH
	DB	099H
	DB	0d6H
	DB	099H
	DB	0ceH
	DB	09aH
	DB	0ceH
	DB	099H
	DB	0d6H
	DB	099H
	DB	0ceH
	DB	09aH
	DB	0ceH
	DB	099H
	DB	0d6H
	DB	099H
	DB	0d6H
	DB	09aH
	DB	0ceH
	DB	0baH
	DB	0ceH
	DB	09aH
	DB	0d6H
	DB	0baH
	DB	0ceH
	DB	0baH
	DB	0ceH
	DB	09aH
	DB	0d6H
	DB	09aH
	DB	0d6H
	DB	09aH
	DB	0ceH
	DB	099H
	DB	0d6H
	DB	09aH
	DB	0d6H
	DB	09aH
	DB	0ceH
	DB	099H
	DB	0d6H
	DB	09aH
	DB	0d6H
	DB	09aH
	DB	0ceH
	DB	099H
	DB	0d6H
	DB	0baH
	DB	0d6H
	DB	09aH
	DB	0d6H
	DB	09aH
	DB	0d6H
	DB	09aH
	DB	0d6H
	DB	0baH
	DB	0d6H
	DB	09aH
	DB	0d6H
	DB	099H
	DB	0d6H
	DB	0baH
	DB	0d6H
	DB	09aH
	DB	0d6H
	DB	0baH
	DB	0d6H
	DB	099H
	DB	0d6H
	DB	09aH
	DB	0d6H
	DB	09aH
	DB	0d6H
	DB	09aH
	DB	0d6H
	DB	09aH
	DB	0d6H
	DB	0b9H
	DB	0d6H
	DB	09aH
	DB	0d6H
	DB	09aH
	DB	0d6H
	DB	0baH
	DB	0d6H
	DB	09aH
	DB	0d6H
	DB	099H
	DB	0d6H
	DB	0baH
	DB	0d6H
	DB	09aH
	DB	0d6H
	DB	0baH
	DB	0d6H
	DB	09aH
	DB	0d6H
	DB	0baH
	DB	0d6H
	DB	0b9H
	DB	0d6H
	DB	09aH
	DB	0d6H
	DB	0baH
	DB	0d6H
	DB	09aH
	DB	0d6H
	DB	09aH
	DB	0d6H
	DB	0baH
	DB	0d6H
	DB	09aH
	DB	0d6H
	DB	0baH
	DB	0d6H
	DB	0baH
	DB	0d6H
	DB	09aH
	DB	0d6H
	DB	0baH
	DB	0d6H
	DB	09aH
	DB	0d6H
	DB	09aH
	DB	0d6H
	DB	0baH
	DB	0d6H
	DB	09aH
	DB	0d6H
	DB	0baH
	DB	0d6H
	DB	0baH
	DB	0d6H
	DB	0baH
	DB	0d6H
	DB	0baH
	DB	0d6H
	DB	0baH
	DB	0d6H
	DB	0baH
	DB	0d6H
	DB	0baH
	DB	0d6H
	DB	0baH
	DB	0d6H
	DB	0baH
	DB	0d6H
	DB	0baH
	DB	0d6H
	DB	09aH
	DB	0d6H
	DB	0baH
	DB	0d6H
	DB	0baH
	DB	0d6H
	DB	09aH
	DB	0d6H
	DB	09aH
	DB	0d6H
	DB	0baH
	DB	0d6H
	DB	09aH
	DB	0d6H
	DB	09aH
	DB	0d6H
	DB	0baH
	DB	0d6H
	DB	09aH
	DB	0d6H
	DB	0baH
	DB	0d6H
	DB	0baH
	DB	0d6H
	DB	09aH
	DB	0d6H
	DB	0baH
	DB	0d6H
	DB	0baH
	DB	0d6H
	DB	09aH
	DB	0d6H
	DB	0b9H
	DB	0d6H
	DB	0baH
	DB	0d6H
	DB	0baH
	DB	0d6H
	DB	0baH
	DB	0d6H
	DB	0baH
	DB	0d6H
	DB	0baH
	DB	0d6H
	DB	0baH
	DB	0d6H
	DB	09aH
	DB	0d6H
	DB	0baH
	DB	0d6H
	DB	0baH
	DB	0d6H
	DB	0baH
	DB	0d6H
	DB	0b9H
	DB	0d6H
	DB	0baH
	DB	0d6H
	DB	0baH
	DB	0d6H
	DB	09aH
	DB	0d6H
	DB	0baH
	DB	0d6H
	DB	09aH
	DB	0d6H
	DB	0baH
	DB	0d6H
	DB	0baH
	DB	0d6H
	DB	0baH
	DB	0d6H
	DB	0b9H
	DB	0d6H
	DB	0baH
	DB	0d6H
	DB	09aH
	DB	0d6H
	DB	0baH
	DB	0d6H
	DB	0baH
	DB	0d6H
	DB	09aH
	DB	0d6H
	DB	0baH
	DB	0d6H
	DB	0baH
	DB	0d6H
	DB	09aH
	DB	0d6H
	DB	0baH
	DB	0d6H
	DB	0baH
	DB	0d6H
	DB	09aH
	DB	0d6H
	DB	0baH
	DB	0d6H
	DB	0baH
	DB	0d6H
	DB	0baH
	DB	0d6H
	DB	09aH
	DB	0d6H
	DB	0baH
	DB	0d6H
	DB	0baH
	DB	0d6H
	DB	0baH
	DB	0d6H
	DB	0baH
	DB	0d6H
	DB	0baH
	DB	0d6H
	DB	09aH
	DB	0d6H
	DB	0baH
	DB	0d6H
	DB	0baH
	DB	0d6H
	DB	09aH
	DB	0d6H
	DB	0baH
	DB	0d6H
	DB	09aH
	DB	0d6H
	DB	09aH
	DB	0d6H
	DB	0baH
	DB	0d6H
	DB	0baH
	DB	0d6H
	DB	099H
	DB	0d6H
	DB	0baH
	DB	0d6H
	DB	09aH
	DB	0d6H
	DB	09aH
	DB	0d6H
	DB	0b9H
	DB	0d6H
	DB	0baH
	DB	0d6H
	DB	09aH
	DB	0d6H
	DB	0b9H
	DB	0d6H
	DB	09aH
	DB	0d6H
	DB	09aH
	DB	0d6H
	DB	09aH
	DB	0d6H
	DB	09aH
	DB	0d6H
	DB	0baH
	DB	0d6H
	DB	09aH
	DB	0d6H
	DB	099H
	DB	0d6H
	DB	079H
	DB	0ceH
	DB	079H
	DB	0ceH
	DB	038H
	DB	0ceH
	DB	038H
	DB	0c6H
	DB	038H
	DB	0ceH
	DB	038H
	DB	0c6H
	DB	037H
	DB	0c6H
	DB	038H
	DB	0c6H
	DB	038H
	DB	0c6H
	DB	038H
	DB	0c6H
	DB	058H
	DB	0ceH
	DB	038H
	DB	0ceH
	DB	038H
	DB	0c6H
	DB	058H
	DB	0c6H
	DB	058H
	DB	0c6H
	DB	038H
	DB	0c6H
	DB	038H
	DB	0c6H
	DB	058H
	DB	0c6H
	DB	037H
	DB	0c6H
	DB	038H
	DB	0c6H
	DB	058H
	DB	0c6H
	DB	038H
	DB	0ceH
	DB	037H
	DB	0c6H
	DB	038H
	DB	0c6H
	DB	038H
	DB	0c6H
	DB	038H
	DB	0c6H
	DB	038H
	DB	0c6H
	DB	038H
	DB	0ceH
	DB	037H
	DB	0c6H
	DB	038H
	DB	0c6H
	DB	058H
	DB	0c6H
	DB	037H
	DB	0c6H
	DB	038H
	DB	0c6H
	DB	058H
	DB	0c6H
	DB	037H
	DB	0c6H
	DB	038H
	DB	0c6H
	DB	058H
	DB	0c6H
	DB	038H
	DB	0c6H
	DB	037H
	DB	0c6H
	DB	058H
	DB	0c6H
	DB	038H
	DB	0c6H
	DB	037H
	DB	0c6H
	DB	058H
	DB	0c6H
	DB	038H
	DB	0c6H
	DB	037H
	DB	0c6H
	DB	038H
	DB	0c6H
	DB	058H
	DB	0c6H
	DB	038H
	DB	0c6H
	DB	038H
	DB	0c6H
	DB	038H
	DB	0c6H
	DB	038H
	DB	0c6H
	DB	038H
	DB	0c6H
	DB	038H
	DB	0c6H
	DB	038H
	DB	0c6H
	DB	038H
	DB	0c6H
	DB	058H
	DB	0c6H
	DB	038H
	DB	0c6H
	DB	038H
	DB	0c6H
	DB	058H
	DB	0c6H
	DB	038H
	DB	0c6H
	DB	038H
	DB	0ceH
	DB	058H
	DB	0c6H
	DB	038H
	DB	0c6H
	DB	038H
	DB	0ceH
	DB	058H
	DB	0c6H
	DB	038H
	DB	0c6H
	DB	038H
	DB	0ceH
	DB	058H
	DB	0c6H
	DB	058H
	DB	0c6H
	DB	038H
	DB	0c6H
	DB	038H
	DB	0c6H
	DB	058H
	DB	0c6H
	DB	038H
	DB	0c6H
	DB	038H
	DB	0ceH
	DB	058H
	DB	0c6H
	DB	038H
	DB	0c6H
	DB	038H
	DB	0ceH
	DB	038H
	DB	0c6H
	DB	058H
	DB	0c6H
	DB	038H
	DB	0c6H
	DB	079H
	DB	0d6H
	DB	02fH
	DB	084H
	DB	079H
	DB	0ceH
	DB	038H
	DB	0c6H
	DB	058H
	DB	0c6H
	DB	038H
	DB	0c6H
	DB	038H
	DB	0c6H
	DB	038H
	DB	0c6H
	DB	058H
	DB	0c6H
	DB	037H
	DB	0c6H
	DB	038H
	DB	0c6H
	DB	038H
	DB	0c6H
	DB	038H
	DB	0c6H
	DB	038H
	DB	0c6H
	DB	038H
	DB	0c6H
	DB	038H
	DB	0ceH
	DB	038H
	DB	0c6H
	DB	038H
	DB	0c6H
	DB	038H
	DB	0ceH
	DB	038H
	DB	0c6H
	DB	038H
	DB	0c6H
	DB	037H
	DB	0c6H
	DB	038H
	DB	0c6H
	DB	038H
	DB	0c6H
	DB	038H
	DB	0c6H
	DB	037H
	DB	0c6H
	DB	018H
	DB	0c6H
	DB	038H
	DB	0c6H
	DB	038H
	DB	0c6H
	DB	038H
	DB	0c6H
	DB	038H
	DB	0c6H
	DB	038H
	DB	0c6H
	DB	017H
	DB	0c6H
	DB	038H
	DB	0c6H
	DB	038H
	DB	0c6H
	DB	038H
	DB	0c6H
	DB	038H
	DB	0ceH
	DB	037H
	DB	0c6H
	DB	038H
	DB	0c6H
	DB	037H
	DB	0c6H
	DB	038H
	DB	0c6H
	DB	037H
	DB	0c6H
	DB	038H
	DB	0c6H
	DB	018H
	DB	0c6H
	DB	038H
	DB	0c6H
	DB	038H
	DB	0c6H
	DB	018H
	DB	0c6H
	DB	037H
	DB	0c6H
	DB	038H
	DB	0c6H
	DB	038H
	DB	0c6H
	DB	038H
	DB	0c6H
	DB	038H
	DB	0c6H
	DB	038H
	DB	0c6H
	DB	017H
	DB	0c6H
	DB	038H
	DB	0c6H
	DB	038H
	DB	0c6H
	DB	037H
	DB	0ceH
	DB	038H
	DB	0c6H
	DB	038H
	DB	0c6H
	DB	038H
	DB	0c6H
	DB	018H
	DB	0ceH
	DB	037H
	DB	0c6H
	DB	038H
	DB	0c6H
	DB	038H
	DB	0c6H
	DB	017H
	DB	0c6H
	DB	038H
	DB	0c6H
	DB	038H
	DB	0c6H
	DB	038H
	DB	0c6H
	DB	018H
	DB	0c6H
	DB	018H
	DB	0c6H
	DB	037H
	DB	0c6H
	DB	038H
	DB	0c6H
	DB	038H
	DB	0c6H
	DB	037H
	DB	0c6H
	DB	038H
	DB	0c6H
	DB	018H
	DB	0c6H
	DB	037H
	DB	0c6H
	DB	018H
	DB	0c6H
	DB	038H
	DB	0c6H
	DB	037H
	DB	0c6H
	DB	018H
	DB	0c6H
	DB	038H
	DB	0c6H
	DB	079H
	DB	0ceH
	DB	079H
	DB	0ceH
	DB	079H
	DB	0ceH
	DB	078H
	DB	0ceH
	DB	059H
	DB	0c6H
	DB	078H
	DB	0ceH
	DB	078H
	DB	0c6H
	DB	059H
	DB	0ceH
	DB	059H
	DB	0ceH
	DB	078H
	DB	0c6H
	DB	058H
	DB	0ceH
	DB	079H
	DB	0ceH
	DB	058H
	DB	0c6H
	DB	079H
	DB	0ceH
	DB	059H
	DB	0ceH
	DB	078H
	DB	0c6H
	DB	059H
	DB	0ceH
	DB	058H
	DB	0c6H
	DB	079H
	DB	0ceH
	DB	078H
	DB	0ceH
	DB	059H
	DB	0c6H
	DB	078H
	DB	0ceH
	DB	079H
	DB	0ceH
	DB	079H
	DB	0ceH
	DB	079H
	DB	0ceH
	DB	079H
	DB	0ceH
	DB	058H
	DB	0c6H
	DB	079H
	DB	0ceH
	DB	059H
	DB	0c6H
	DB	078H
	DB	0ceH
	DB	079H
	DB	0ceH
	DB	079H
	DB	0ceH
	DB	059H
	DB	0ceH
	DB	059H
	DB	0ceH
	DB	079H
	DB	0ceH
	DB	059H
	DB	0ceH
	DB	079H
	DB	0ceH
	DB	059H
	DB	0ceH
	DB	059H
	DB	0ceH
	DB	079H
	DB	0ceH
	DB	079H
	DB	0ceH
	DB	078H
	DB	0ceH
	DB	079H
	DB	0ceH
	DB	079H
	DB	0ceH
	DB	078H
	DB	0ceH
	DB	079H
	DB	0ceH
	DB	078H
	DB	0ceH
	DB	079H
	DB	0ceH
	DB	059H
	DB	0ceH
	DB	078H
	DB	0ceH
	DB	059H
	DB	0ceH
	DB	079H
	DB	0ceH
	DB	059H
	DB	0ceH
	DB	079H
	DB	0ceH
	DB	059H
	DB	0ceH
	DB	079H
	DB	0ceH
	DB	079H
	DB	0ceH
	DB	079H
	DB	0ceH
	DB	079H
	DB	0ceH
	DB	079H
	DB	0ceH
	DB	079H
	DB	0ceH
	DB	079H
	DB	0ceH
	DB	079H
	DB	0ceH
	DB	079H
	DB	0ceH
	DB	079H
	DB	0ceH
	DB	079H
	DB	0ceH
	DB	078H
	DB	0ceH
	DB	079H
	DB	0ceH
	DB	059H
	DB	0ceH
	DB	079H
	DB	0ceH
	DB	079H
	DB	0ceH
	DB	079H
	DB	0ceH
	DB	079H
	DB	0ceH
	DB	079H
	DB	0ceH
	DB	079H
	DB	0ceH
	DB	079H
	DB	0d6H
	DB	079H
	DB	0ceH
	DB	079H
	DB	0ceH
	DB	079H
	DB	0d6H
	DB	079H
	DB	0ceH
	DB	079H
	DB	0d6H
	DB	079H
	DB	0ceH
	DB	079H
	DB	0d6H
	DB	079H
	DB	0d6H
	DB	079H
	DB	0ceH
	DB	079H
	DB	0d6H
	DB	079H
	DB	0ceH
	DB	079H
	DB	0ceH
	DB	079H
	DB	0d6H
	DB	079H
	DB	0ceH
	DB	079H
	DB	0ceH
	DB	079H
	DB	0ceH
	DB	079H
	DB	0ceH
	DB	079H
	DB	0d6H
	DB	079H
	DB	0ceH
	DB	079H
	DB	0ceH
	DB	079H
	DB	0ceH
	DB	079H
	DB	0ceH
	DB	079H
	DB	0ceH
	DB	079H
	DB	0ceH
	DB	079H
	DB	0ceH
	DB	079H
	DB	0ceH
	DB	079H
	DB	0ceH
	DB	079H
	DB	0d6H
	DB	079H
	DB	0ceH
	DB	079H
	DB	0ceH
	DB	079H
	DB	0d6H
	DB	079H
	DB	0d6H
	DB	079H
	DB	0ceH
	DB	07aH
	DB	0d6H
	DB	079H
	DB	0ceH
	DB	079H
	DB	0ceH
	DB	079H
	DB	0d6H
	DB	079H
	DB	0ceH
	DB	079H
	DB	0ceH
	DB	07aH
	DB	0d6H
	DB	079H
	DB	0ceH
	DB	079H
	DB	0ceH
	DB	07aH
	DB	0ceH
	DB	079H
	DB	0ceH
	DB	079H
	DB	0ceH
	DB	079H
	DB	0d6H
	DB	079H
	DB	0ceH
	DB	079H
	DB	0ceH
	DB	099H
	DB	0d6H
	DB	079H
	DB	0ceH
	DB	079H
	DB	0ceH
	DB	07aH
	DB	0ceH
	DB	099H
	DB	0d6H
	DB	079H
	DB	0ceH
	DB	07aH
	DB	0d6H
	DB	079H
	DB	0ceH
	DB	099H
	DB	0d6H
	DB	09aH
	DB	0d6H
	DB	079H
	DB	0d6H
	DB	099H
	DB	0d6H
	DB	09aH
	DB	0ceH
	DB	079H
	DB	0d6H
	DB	079H
	DB	0d6H
	DB	09aH
	DB	0ceH
	DB	079H
	DB	0d6H
	DB	079H
	DB	0ceH
	DB	099H
	DB	0d6H
	DB	07aH
	DB	0ceH
	DB	099H
	DB	0d6H
	DB	099H
	DB	0d6H
	DB	079H
	DB	0ceH
	DB	099H
	DB	0ceH
	DB	099H
	DB	0ceH
	DB	099H
	DB	0ceH
	DB	099H
	DB	0ceH
	DB	099H
	DB	0d6H
	DB	079H
	DB	0d6H
	DB	079H
	DB	0d6H
	DB	079H
	DB	0d6H
	DB	099H
	DB	0d6H
	DB	099H
	DB	0d6H
	DB	07aH
	DB	0d6H
	DB	099H
	DB	0d6H
	DB	099H
	DB	0d6H
	DB	07aH
	DB	0ceH
	DB	079H
	DB	0d6H
	DB	079H
	DB	0ceH
	DB	09aH
	DB	0d6H
	DB	099H
	DB	0d6H
	DB	09aH
	DB	0ceH
	DB	079H
	DB	0ceH
	DB	09aH
	DB	0d6H
	DB	099H
	DB	0ceH
	DB	099H
	DB	0ceH
	DB	099H
	DB	0ceH
	DB	099H
	DB	0ceH
	DB	099H
	DB	0ceH
	DB	099H
	DB	0ceH
	DB	099H
	DB	0ceH
	DB	099H
	DB	0ceH
	DB	09aH
	DB	0d6H
	DB	099H
	DB	0ceH
	DB	099H
	DB	0ceH
	DB	09aH
	DB	0ceH
	DB	099H
	DB	0d6H
	DB	09aH
	DB	0d6H
	DB	09aH
	DB	0d6H
	DB	09aH
	DB	0d6H
	DB	09aH
	DB	0d6H
	DB	09aH
	DB	0d6H
	DB	09aH
	DB	0d6H
	DB	09aH
	DB	0d6H
	DB	09aH
	DB	0d6H
	DB	09aH
	DB	0d6H
	DB	09aH
	DB	0d6H
	DB	09aH
	DB	0d6H
	DB	0b9H
	DB	0ceH
	DB	099H
	DB	0d6H
	DB	09aH
	DB	0d6H
	DB	0b9H
	DB	0ceH
	DB	099H
	DB	0d6H
	DB	0b9H
	DB	0ceH
	DB	09aH
	DB	0d6H
	DB	099H
	DB	0d6H
	DB	099H
	DB	0d6H
	DB	099H
	DB	0d6H
	DB	099H
	DB	0d6H
	DB	099H
	DB	0d6H
	DB	099H
	DB	0d6H
	DB	099H
	DB	0d6H
	DB	0baH
	DB	0d6H
	DB	099H
	DB	0d6H
	DB	0baH
	DB	0ceH
	DB	0baH
	DB	0d6H
	DB	0baH
	DB	0d6H
	DB	0baH
	DB	0ceH
	DB	0baH
	DB	0ceH
	DB	0baH
	DB	0d6H
	DB	0b9H
	DB	0ceH
	DB	0baH
	DB	0ceH
	DB	099H
	DB	0d6H
	DB	099H
	DB	0d6H
	DB	0baH
	DB	0d6H
	DB	099H
	DB	0d6H
	DB	09aH
	DB	0d6H
	DB	0baH
	DB	0d6H
	DB	0baH
	DB	0d6H
	DB	0baH
	DB	0d6H
	DB	0baH
	DB	0d6H
	DB	0baH
	DB	0d6H
	DB	0baH
	DB	0d6H
	DB	0baH
	DB	0d6H
	DB	0baH
	DB	0d6H
	DB	0baH
	DB	0d6H
	DB	0baH
	DB	0d6H
	DB	0baH
	DB	0d6H
	DB	09aH
	DB	0d6H
	DB	0baH
	DB	0d6H
	DB	09aH
	DB	0d6H
	DB	0baH
	DB	0d6H
	DB	09aH
	DB	0d6H
	DB	09aH
	DB	0d6H
	DB	0baH
	DB	0d6H
	DB	09aH
	DB	0d6H
	DB	09aH
	DB	0d6H
	DB	0baH
	DB	0d6H
	DB	09aH
	DB	0d6H
	DB	0baH
	DB	0d6H
	DB	099H
	DB	0d6H
	DB	0baH
	DB	0d6H
	DB	09aH
	DB	0d6H
	DB	099H
	DB	0d6H
	DB	0baH
	DB	0d6H
	DB	0baH
	DB	0d6H
	DB	0baH
	DB	0d6H
	DB	0baH
	DB	0d6H
	DB	0baH
	DB	0d6H
	DB	0baH
	DB	0d6H
	DB	0baH
	DB	0d6H
	DB	0baH
	DB	0d6H
	DB	0b9H
	DB	0d6H
	DB	0b9H
	DB	0d6H
	DB	09aH
	DB	0d6H
	DB	0b9H
	DB	0d6H
	DB	0baH
	DB	0d6H
	DB	09aH
	DB	0d6H
	DB	0b9H
	DB	0d6H
	DB	09aH
	DB	0d6H
	DB	0baH
	DB	0d6H
	DB	0baH
	DB	0d6H
	DB	09aH
	DB	0d6H
	DB	0baH
	DB	0d6H
	DB	0baH
	DB	0d6H
	DB	0baH
	DB	0d6H
	DB	0baH
	DB	0d6H
	DB	0baH
	DB	0d6H
	DB	0baH
	DB	0d6H
	DB	0baH
	DB	0d6H
	DB	0baH
	DB	0d6H
	DB	0baH
	DB	0d6H
	DB	0baH
	DB	0d6H
	DB	0baH
	DB	0d6H
	DB	0baH
	DB	0d6H
	DB	0baH
	DB	0d6H
	DB	0baH
	DB	0d6H
	DB	0baH
	DB	0deH
	DB	0baH
	DB	0d6H
	DB	0baH
	DB	0d6H
	DB	0baH
	DB	0deH
	DB	0baH
	DB	0d6H
	DB	0baH
	DB	0d6H
	DB	0baH
	DB	0deH
	DB	0baH
	DB	0d6H
	DB	0baH
	DB	0d6H
	DB	0baH
	DB	0deH
	DB	0baH
	DB	0d6H
	DB	0baH
	DB	0d6H
	DB	0baH
	DB	0d6H
	DB	0baH
	DB	0d6H
	DB	0baH
	DB	0d6H
	DB	0baH
	DB	0d6H
	DB	0baH
	DB	0d6H
	DB	0baH
	DB	0d6H
	DB	0baH
	DB	0d6H
	DB	0baH
	DB	0d6H
	DB	0baH
	DB	0deH
	DB	0baH
	DB	0d6H
	DB	0b9H
	DB	0d6H
	DB	0baH
	DB	0d6H
	DB	0baH
	DB	0d6H
	DB	0baH
	DB	0d6H
	DB	0baH
	DB	0d6H
	DB	0baH
	DB	0d6H
	DB	0baH
	DB	0d6H
	DB	0baH
	DB	0d6H
	DB	09aH
	DB	0d6H
	DB	0baH
	DB	0d6H
	DB	0baH
	DB	0d6H
	DB	09aH
	DB	0d6H
	DB	0baH
	DB	0d6H
	DB	0baH
	DB	0d6H
	DB	09aH
	DB	0d6H
	DB	0baH
	DB	0d6H
	DB	09aH
	DB	0d6H
	DB	09aH
	DB	0d6H
	DB	0baH
	DB	0d6H
	DB	0baH
	DB	0d6H
	DB	0baH
	DB	0d6H
	DB	0baH
	DB	0d6H
	DB	0baH
	DB	0d6H
	DB	0baH
	DB	0d6H
	DB	0baH
	DB	0d6H
	DB	0baH
	DB	0d6H
	DB	0baH
	DB	0d6H
	DB	09aH
	DB	0d6H
	DB	0baH
	DB	0d6H
	DB	0baH
	DB	0d6H
	DB	0baH
	DB	0d6H
	DB	0baH
	DB	0d6H
	DB	0baH
	DB	0d6H
	DB	0baH
	DB	0d6H
	DB	0baH
	DB	0d6H
	DB	09aH
	DB	0d6H
	DB	0baH
	DB	0d6H
	DB	0b9H
	DB	0d6H
	DB	0b9H
	DB	0d6H
	DB	099H
	DB	0d6H
	DB	099H
	DB	0d6H
	DB	0baH
	DB	0d6H
	DB	099H
	DB	0d6H
	DB	0baH
	DB	0d6H
	DB	079H
	DB	0ceH
	DB	079H
	DB	0ceH
	DB	038H
	DB	0c6H
	DB	038H
	DB	0ceH
	DB	058H
	DB	0c6H
	DB	038H
	DB	0ceH
	DB	038H
	DB	0c6H
	DB	058H
	DB	0ceH
	DB	038H
	DB	0ceH
	DB	038H
	DB	0c6H
	DB	038H
	DB	0c6H
	DB	038H
	DB	0c6H
	DB	038H
	DB	0c6H
	DB	038H
	DB	0c6H
	DB	037H
	DB	0c6H
	DB	038H
	DB	0c6H
	DB	038H
	DB	0c6H
	DB	038H
	DB	0c6H
	DB	038H
	DB	0c6H
	DB	038H
	DB	0c6H
	DB	038H
	DB	0c6H
	DB	038H
	DB	0c6H
	DB	038H
	DB	0c6H
	DB	038H
	DB	0c6H
	DB	037H
	DB	0c6H
	DB	038H
	DB	0c6H
	DB	038H
	DB	0c6H
	DB	038H
	DB	0c6H
	DB	038H
	DB	0c6H
	DB	038H
	DB	0c6H
	DB	038H
	DB	0c6H
	DB	058H
	DB	0c6H
	DB	038H
	DB	0c6H
	DB	038H
	DB	0c6H
	DB	038H
	DB	0c6H
	DB	038H
	DB	0c6H
	DB	058H
	DB	0c6H
	DB	038H
	DB	0c6H
	DB	038H
	DB	0c6H
	DB	058H
	DB	0c6H
	DB	038H
	DB	0c6H
	DB	038H
	DB	0c6H
	DB	058H
	DB	0c6H
	DB	038H
	DB	0c6H
	DB	038H
	DB	0c6H
	DB	058H
	DB	0c6H
	DB	038H
	DB	0c6H
	DB	038H
	DB	0c6H
	DB	058H
	DB	0c6H
	DB	058H
	DB	0c6H
	DB	038H
	DB	0c6H
	DB	058H
	DB	0c6H
	DB	058H
	DB	0c6H
	DB	058H
	DB	0c6H
	DB	058H
	DB	0c6H
	DB	038H
	DB	0ceH
	DB	038H
	DB	0c6H
	DB	038H
	DB	0c6H
	DB	038H
	DB	0c6H
	DB	038H
	DB	0c6H
	DB	038H
	DB	0ceH
	DB	058H
	DB	0c6H
	DB	058H
	DB	0c6H
	DB	038H
	DB	0c6H
	DB	058H
	DB	0c6H
	DB	038H
	DB	0c6H
	DB	058H
	DB	0c6H
	DB	058H
	DB	0c6H
	DB	038H
	DB	0ceH
	DB	038H
	DB	0ceH
	DB	038H
	DB	0ceH
	DB	038H
	DB	0ceH
	DB	038H
	DB	0c6H
	DB	038H
	DB	0c6H
	DB	058H
	DB	0ceH
	DB	038H
	DB	0c6H
	DB	038H
	DB	0c6H
	DB	038H
	DB	0c6H
	DB	058H
	DB	0c6H
	DB	037H
	DB	0c6H
	DB	079H
	DB	0ceH
	DB	030H
	DB	084H
	DB	079H
	DB	0d6H
	DB	038H
	DB	0c6H
	DB	038H
	DB	0c6H
	DB	058H
	DB	0c6H
	DB	038H
	DB	0c6H
	DB	038H
	DB	0c6H
	DB	038H
	DB	0ceH
	DB	038H
	DB	0c6H
	DB	038H
	DB	0ceH
	DB	038H
	DB	0c6H
	DB	037H
	DB	0ceH
	DB	038H
	DB	0c6H
	DB	038H
	DB	0c6H
	DB	038H
	DB	0c6H
	DB	038H
	DB	0ceH
	DB	037H
	DB	0c6H
	DB	038H
	DB	0c6H
	DB	038H
	DB	0c6H
	DB	038H
	DB	0c6H
	DB	038H
	DB	0ceH
	DB	038H
	DB	0c6H
	DB	038H
	DB	0c6H
	DB	018H
	DB	0c6H
	DB	038H
	DB	0c6H
	DB	037H
	DB	0ceH
	DB	038H
	DB	0c6H
	DB	017H
	DB	0c6H
	DB	038H
	DB	0c6H
	DB	038H
	DB	0c6H
	DB	037H
	DB	0c6H
	DB	038H
	DB	0c6H
	DB	018H
	DB	0c6H
	DB	037H
	DB	0c6H
	DB	038H
	DB	0c6H
	DB	018H
	DB	0c6H
	DB	038H
	DB	0c6H
	DB	018H
	DB	0ceH
	DB	038H
	DB	0c6H
	DB	018H
	DB	0c6H
	DB	038H
	DB	0ceH
	DB	037H
	DB	0c6H
	DB	038H
	DB	0c6H
	DB	017H
	DB	0ceH
	DB	038H
	DB	0c6H
	DB	038H
	DB	0c6H
	DB	018H
	DB	0ceH
	DB	038H
	DB	0c6H
	DB	037H
	DB	0c6H
	DB	038H
	DB	0ceH
	DB	038H
	DB	0c6H
	DB	037H
	DB	0c6H
	DB	038H
	DB	0ceH
	DB	038H
	DB	0c6H
	DB	018H
	DB	0c6H
	DB	037H
	DB	0c6H
	DB	038H
	DB	0c6H
	DB	018H
	DB	0c6H
	DB	038H
	DB	0c6H
	DB	038H
	DB	0c6H
	DB	037H
	DB	0c6H
	DB	037H
	DB	0c6H
	DB	038H
	DB	0c6H
	DB	037H
	DB	0c6H
	DB	017H
	DB	0c6H
	DB	038H
	DB	0c6H
	DB	037H
	DB	0beH
	DB	017H
	DB	0c6H
	DB	038H
	DB	0c6H
	DB	018H
	DB	0c6H
	DB	017H
	DB	0c6H
	DB	038H
	DB	0c6H
	DB	017H
	DB	0c6H
	DB	038H
	DB	0c6H
	DB	038H
	DB	0c6H
	DB	017H
	DB	0c6H
	DB	038H
	DB	0c6H
	DB	018H
	DB	0c6H
	DB	037H
	DB	0c6H
	DB	038H
	DB	0c6H
	DB	017H
	DB	0c6H
	DB	058H
	DB	0ceH
	DB	078H
	DB	0c6H
	DB	079H
	DB	0ceH
	DB	058H
	DB	0ceH
	DB	059H
	DB	0c6H
	DB	079H
	DB	0ceH
	DB	078H
	DB	0ceH
	DB	058H
	DB	0c6H
	DB	079H
	DB	0ceH
	DB	059H
	DB	0c6H
	DB	078H
	DB	0ceH
	DB	059H
	DB	0ceH
	DB	078H
	DB	0ceH
	DB	078H
	DB	0c6H
	DB	059H
	DB	0ceH
	DB	079H
	DB	0ceH
	DB	079H
	DB	0ceH
	DB	079H
	DB	0ceH
	DB	079H
	DB	0ceH
	DB	079H
	DB	0ceH
	DB	079H
	DB	0ceH
	DB	079H
	DB	0ceH
	DB	078H
	DB	0ceH
	DB	079H
	DB	0c6H
	DB	079H
	DB	0ceH
	DB	078H
	DB	0ceH
	DB	079H
	DB	0ceH
	DB	079H
	DB	0ceH
	DB	079H
	DB	0ceH
	DB	078H
	DB	0c6H
	DB	079H
	DB	0ceH
	DB	078H
	DB	0ceH
	DB	078H
	DB	0c6H
	DB	079H
	DB	0ceH
	DB	078H
	DB	0ceH
	DB	079H
	DB	0ceH
	DB	079H
	DB	0ceH
	DB	079H
	DB	0ceH
	DB	078H
	DB	0ceH
	DB	079H
	DB	0ceH
	DB	079H
	DB	0ceH
	DB	078H
	DB	0c6H
	DB	059H
	DB	0ceH
	DB	079H
	DB	0c6H
	DB	059H
	DB	0ceH
	DB	078H
	DB	0c6H
	DB	079H
	DB	0ceH
	DB	059H
	DB	0ceH
	DB	058H
	DB	0ceH
	DB	079H
	DB	0ceH
	DB	058H
	DB	0ceH
	DB	079H
	DB	0ceH
	DB	079H
	DB	0ceH
	DB	079H
	DB	0ceH
	DB	079H
	DB	0ceH
	DB	079H
	DB	0ceH
	DB	079H
	DB	0ceH
	DB	059H
	DB	0ceH
	DB	079H
	DB	0ceH
	DB	079H
	DB	0ceH
	DB	059H
	DB	0ceH
	DB	079H
	DB	0ceH
	DB	059H
	DB	0ceH
	DB	059H
	DB	0ceH
	DB	079H
	DB	0ceH
	DB	059H
	DB	0ceH
	DB	079H
	DB	0ceH
	DB	078H
	DB	0ceH
	DB	059H
	DB	0ceH
	DB	079H
	DB	0ceH
	DB	079H
	DB	0d6H
	DB	079H
	DB	0ceH
	DB	059H
	DB	0ceH
	DB	079H
	DB	0ceH
	DB	079H
	DB	0d6H
	DB	079H
	DB	0ceH
	DB	079H
	DB	0ceH
	DB	079H
	DB	0ceH
	DB	079H
	DB	0ceH
	DB	079H
	DB	0ceH
	DB	079H
	DB	0ceH
	DB	079H
	DB	0ceH
	DB	079H
	DB	0ceH
	DB	079H
	DB	0ceH
	DB	079H
	DB	0ceH
	DB	079H
	DB	0ceH
	DB	079H
	DB	0ceH
	DB	079H
	DB	0ceH
	DB	079H
	DB	0ceH
	DB	079H
	DB	0d6H
	DB	079H
	DB	0ceH
	DB	079H
	DB	0ceH
	DB	079H
	DB	0ceH
	DB	079H
	DB	0ceH
	DB	079H
	DB	0d6H
	DB	079H
	DB	0ceH
	DB	079H
	DB	0ceH
	DB	079H
	DB	0d6H
	DB	079H
	DB	0ceH
	DB	079H
	DB	0d6H
	DB	079H
	DB	0ceH
	DB	079H
	DB	0ceH
	DB	079H
	DB	0d6H
	DB	079H
	DB	0ceH
	DB	079H
	DB	0ceH
	DB	07aH
	DB	0d6H
	DB	079H
	DB	0ceH
	DB	079H
	DB	0ceH
	DB	07aH
	DB	0d6H
	DB	079H
	DB	0ceH
	DB	079H
	DB	0d6H
	DB	079H
	DB	0ceH
	DB	07aH
	DB	0ceH
	DB	079H
	DB	0d6H
	DB	099H
	DB	0ceH
	DB	079H
	DB	0d6H
	DB	09aH
	DB	0d6H
	DB	099H
	DB	0ceH
	DB	079H
	DB	0d6H
	DB	099H
	DB	0d6H
	DB	09aH
	DB	0ceH
	DB	09aH
	DB	0d6H
	DB	09aH
	DB	0d6H
	DB	09aH
	DB	0ceH
	DB	099H
	DB	0d6H
	DB	07aH
	DB	0d6H
	DB	09aH
	DB	0d6H
	DB	099H
	DB	0d6H
	DB	079H
	DB	0ceH
	DB	07aH
	DB	0ceH
	DB	079H
	DB	0ceH
	DB	09aH
	DB	0d6H
	DB	099H
	DB	0ceH
	DB	079H
	DB	0ceH
	DB	07aH
	DB	0ceH
	DB	099H
	DB	0d6H
	DB	079H
	DB	0ceH
	DB	07aH
	DB	0ceH
	DB	099H
	DB	0d6H
	DB	09aH
	DB	0ceH
	DB	079H
	DB	0d6H
	DB	099H
	DB	0d6H
	DB	09aH
	DB	0ceH
	DB	079H
	DB	0d6H
	DB	079H
	DB	0ceH
	DB	099H
	DB	0d6H
	DB	099H
	DB	0d6H
	DB	099H
	DB	0d6H
	DB	079H
	DB	0d6H
	DB	099H
	DB	0ceH
	DB	099H
	DB	0ceH
	DB	099H
	DB	0ceH
	DB	079H
	DB	0d6H
	DB	099H
	DB	0ceH
	DB	09aH
	DB	0ceH
	DB	099H
	DB	0d6H
	DB	079H
	DB	0ceH
	DB	099H
	DB	0d6H
	DB	09aH
	DB	0d6H
	DB	099H
	DB	0d6H
	DB	09aH
	DB	0d6H
	DB	09aH
	DB	0ceH
	DB	099H
	DB	0d6H
	DB	09aH
	DB	0d6H
	DB	09aH
	DB	0d6H
	DB	079H
	DB	0d6H
	DB	09aH
	DB	0d6H
	DB	099H
	DB	0d6H
	DB	099H
	DB	0ceH
	DB	099H
	DB	0ceH
	DB	09aH
	DB	0d6H
	DB	099H
	DB	0ceH
	DB	09aH
	DB	0d6H
	DB	09aH
	DB	0d6H
	DB	099H
	DB	0ceH
	DB	099H
	DB	0ceH
	DB	09aH
	DB	0d6H
	DB	09aH
	DB	0d6H
	DB	099H
	DB	0ceH
	DB	09aH
	DB	0d6H
	DB	099H
	DB	0ceH
	DB	099H
	DB	0ceH
	DB	099H
	DB	0ceH
	DB	099H
	DB	0d6H
	DB	099H
	DB	0ceH
	DB	099H
	DB	0ceH
	DB	09aH
	DB	0d6H
	DB	099H
	DB	0ceH
	DB	099H
	DB	0ceH
	DB	099H
	DB	0d6H
	DB	099H
	DB	0ceH
	DB	099H
	DB	0d6H
	DB	09aH
	DB	0ceH
	DB	0b9H
	DB	0d6H
	DB	099H
	DB	0ceH
	DB	09aH
	DB	0d6H
	DB	0baH
	DB	0d6H
	DB	099H
	DB	0ceH
	DB	099H
	DB	0ceH
	DB	0baH
	DB	0ceH
	DB	099H
	DB	0d6H
	DB	09aH
	DB	0d6H
	DB	099H
	DB	0d6H
	DB	09aH
	DB	0d6H
	DB	099H
	DB	0d6H
	DB	099H
	DB	0d6H
	DB	09aH
	DB	0d6H
	DB	099H
	DB	0d6H
	DB	0baH
	DB	0ceH
	DB	09aH
	DB	0d6H
	DB	099H
	DB	0d6H
	DB	09aH
	DB	0ceH
	DB	0baH
	DB	0d6H
	DB	099H
	DB	0d6H
	DB	09aH
	DB	0d6H
	DB	0baH
	DB	0d6H
	DB	09aH
	DB	0d6H
	DB	09aH
	DB	0d6H
	DB	09aH
	DB	0d6H
	DB	09aH
	DB	0d6H
	DB	099H
	DB	0d6H
	DB	0baH
	DB	0d6H
	DB	09aH
	DB	0d6H
	DB	09aH
	DB	0d6H
	DB	09aH
	DB	0d6H
	DB	09aH
	DB	0d6H
	DB	0b9H
	DB	0d6H
	DB	09aH
	DB	0d6H
	DB	09aH
	DB	0d6H
	DB	099H
	DB	0d6H
	DB	09aH
	DB	0d6H
	DB	0baH
	DB	0d6H
	DB	099H
	DB	0d6H
	DB	0baH
	DB	0d6H
	DB	0baH
	DB	0d6H
	DB	09aH
	DB	0d6H
	DB	0baH
	DB	0d6H
	DB	0b9H
	DB	0d6H
	DB	09aH
	DB	0d6H
	DB	0baH
	DB	0d6H
	DB	099H
	DB	0d6H
	DB	0baH
	DB	0d6H
	DB	09aH
	DB	0d6H
	DB	0baH
	DB	0d6H
	DB	0baH
	DB	0d6H
	DB	0baH
	DB	0d6H
	DB	0baH
	DB	0d6H
	DB	0baH
	DB	0d6H
	DB	0baH
	DB	0d6H
	DB	0baH
	DB	0d6H
	DB	0baH
	DB	0d6H
	DB	0baH
	DB	0d6H
	DB	0baH
	DB	0d6H
	DB	0baH
	DB	0d6H
	DB	0baH
	DB	0d6H
	DB	0baH
	DB	0d6H
	DB	09aH
	DB	0d6H
	DB	0baH
	DB	0d6H
	DB	0baH
	DB	0d6H
	DB	09aH
	DB	0d6H
	DB	0baH
	DB	0d6H
	DB	0baH
	DB	0d6H
	DB	0baH
	DB	0d6H
	DB	09aH
	DB	0d6H
	DB	0baH
	DB	0d6H
	DB	0baH
	DB	0d6H
	DB	0baH
	DB	0d6H
	DB	0baH
	DB	0d6H
	DB	0baH
	DB	0d6H
	DB	0baH
	DB	0d6H
	DB	09aH
	DB	0d6H
	DB	0baH
	DB	0d6H
	DB	0baH
	DB	0d6H
	DB	0baH
	DB	0d6H
	DB	0baH
	DB	0deH
	DB	0baH
	DB	0d6H
	DB	0baH
	DB	0deH
	DB	0baH
	DB	0d6H
	DB	0baH
	DB	0deH
	DB	0baH
	DB	0d6H
	DB	0baH
	DB	0d6H
	DB	0baH
	DB	0d6H
	DB	0baH
	DB	0d6H
	DB	0baH
	DB	0d6H
	DB	0baH
	DB	0deH
	DB	0baH
	DB	0d6H
	DB	0baH
	DB	0d6H
	DB	0baH
	DB	0deH
	DB	0baH
	DB	0d6H
	DB	0baH
	DB	0d6H
	DB	0baH
	DB	0d6H
	DB	0baH
	DB	0d6H
	DB	0baH
	DB	0d6H
	DB	0baH
	DB	0d6H
	DB	0baH
	DB	0d6H
	DB	0b9H
	DB	0d6H
	DB	0baH
	DB	0d6H
	DB	0baH
	DB	0d6H
	DB	0b9H
	DB	0deH
	DB	0baH
	DB	0d6H
	DB	0baH
	DB	0d6H
	DB	0baH
	DB	0d6H
	DB	0baH
	DB	0d6H
	DB	0baH
	DB	0deH
	DB	0baH
	DB	0d6H
	DB	0baH
	DB	0deH
	DB	0baH
	DB	0d6H
	DB	0baH
	DB	0d6H
	DB	09aH
	DB	0d6H
	DB	0baH
	DB	0d6H
	DB	0baH
	DB	0d6H
	DB	0baH
	DB	0d6H
	DB	0baH
	DB	0d6H
	DB	0baH
	DB	0d6H
	DB	09aH
	DB	0d6H
	DB	0baH
	DB	0d6H
	DB	0baH
	DB	0d6H
	DB	0baH
	DB	0d6H
	DB	0baH
	DB	0d6H
	DB	0baH
	DB	0d6H
	DB	0baH
	DB	0d6H
	DB	09aH
	DB	0d6H
	DB	0baH
	DB	0d6H
	DB	09aH
	DB	0d6H
	DB	0baH
	DB	0d6H
	DB	09aH
	DB	0d6H
	DB	0baH
	DB	0d6H
	DB	0baH
	DB	0d6H
	DB	0baH
	DB	0d6H
	DB	0baH
	DB	0d6H
	DB	0baH
	DB	0d6H
	DB	0baH
	DB	0d6H
	DB	0baH
	DB	0d6H
	DB	0baH
	DB	0d6H
	DB	0baH
	DB	0d6H
	DB	0baH
	DB	0d6H
	DB	0baH
	DB	0d6H
	DB	09aH
	DB	0d6H
	DB	0baH
	DB	0d6H
	DB	0baH
	DB	0d6H
	DB	09aH
	DB	0d6H
	DB	0baH
	DB	0d6H
	DB	0baH
	DB	0d6H
	DB	0baH
	DB	0d6H
	DB	0baH
	DB	0d6H
	DB	099H
	DB	0d6H
	DB	09aH
	DB	0d6H
	DB	078H
	DB	0ceH
	DB	079H
	DB	0ceH
	DB	038H
	DB	0c6H
	DB	038H
	DB	0c6H
	DB	058H
	DB	0ceH
	DB	038H
	DB	0c6H
	DB	038H
	DB	0c6H
	DB	038H
	DB	0c6H
	DB	038H
	DB	0ceH
	DB	058H
	DB	0c6H
	DB	038H
	DB	0ceH
	DB	038H
	DB	0c6H
	DB	038H
	DB	0c6H
	DB	038H
	DB	0c6H
	DB	058H
	DB	0c6H
	DB	038H
	DB	0c6H
	DB	038H
	DB	0c6H
	DB	057H
	DB	0c6H
	DB	038H
	DB	0c6H
	DB	058H
	DB	0c6H
	DB	037H
	DB	0c6H
	DB	038H
	DB	0c6H
	DB	058H
	DB	0c6H
	DB	058H
	DB	0c6H
	DB	038H
	DB	0c6H
	DB	058H
	DB	0c6H
	DB	038H
	DB	0c6H
	DB	057H
	DB	0c6H
	DB	038H
	DB	0c6H
	DB	038H
	DB	0c6H
	DB	058H
	DB	0c6H
	DB	038H
	DB	0c6H
	DB	038H
	DB	0c6H
	DB	058H
	DB	0c6H
	DB	038H
	DB	0c6H
	DB	038H
	DB	0c6H
	DB	037H
	DB	0c6H
	DB	038H
	DB	0c6H
	DB	038H
	DB	0c6H
	DB	058H
	DB	0c6H
	DB	038H
	DB	0c6H
	DB	038H
	DB	0c6H
	DB	038H
	DB	0c6H
	DB	038H
	DB	0c6H
	DB	038H
	DB	0c6H
	DB	038H
	DB	0c6H
	DB	037H
	DB	0c6H
	DB	038H
	DB	0c6H
	DB	038H
	DB	0c6H
	DB	037H
	DB	0c6H
	DB	038H
	DB	0c6H
	DB	038H
	DB	0c6H
	DB	038H
	DB	0c6H
	DB	058H
	DB	0c6H
	DB	038H
	DB	0c6H
	DB	038H
	DB	0ceH
	DB	038H
	DB	0ceH
	DB	038H
	DB	0ceH
	DB	038H
	DB	0c6H
	DB	058H
	DB	0ceH
	DB	038H
	DB	0c6H
	DB	058H
	DB	0c6H
	DB	038H
	DB	0c6H
	DB	058H
	DB	0c6H
	DB	038H
	DB	0c6H
	DB	058H
	DB	0c6H
	DB	038H
	DB	0c6H
	DB	038H
	DB	0c6H
	DB	058H
	DB	0c6H
	DB	038H
	DB	0c6H
	DB	038H
	DB	0c6H
	DB	058H
	DB	0ceH
	DB	038H
	DB	0c6H
	DB	038H
	DB	0c6H
	DB	038H
	DB	0ceH
	DB	058H
	DB	0c6H
	DB	038H
	DB	0c6H
	DB	038H
	DB	0c6H
	DB	058H
	DB	0c6H
	DB	038H
	DB	0c6H
	DB	079H
	DB	0ceH
	DB	0fH
	DB	084H
	DB	079H
	DB	0ceH
	DB	038H
	DB	0c6H
	DB	038H
	DB	0c6H
	DB	057H
	DB	0c6H
	DB	038H
	DB	0c6H
	DB	038H
	DB	0c6H
	DB	037H
	DB	0c6H
	DB	038H
	DB	0c6H
	DB	038H
	DB	0c6H
	DB	038H
	DB	0ceH
	DB	038H
	DB	0c6H
	DB	038H
	DB	0c6H
	DB	037H
	DB	0ceH
	DB	038H
	DB	0c6H
	DB	038H
	DB	0c6H
	DB	038H
	DB	0c6H
	DB	038H
	DB	0ceH
	DB	038H
	DB	0c6H
	DB	017H
	DB	0c6H
	DB	038H
	DB	0ceH
	DB	038H
	DB	0c6H
	DB	037H
	DB	0c6H
	DB	038H
	DB	0c6H
	DB	018H
	DB	0c6H
	DB	038H
	DB	0c6H
	DB	038H
	DB	0c6H
	DB	037H
	DB	0c6H
	DB	018H
	DB	0c6H
	DB	038H
	DB	0c6H
	DB	037H
	DB	0c6H
	DB	038H
	DB	0c6H
	DB	038H
	DB	0ceH
	DB	018H
	DB	0c6H
	DB	037H
	DB	0c6H
	DB	038H
	DB	0c6H
	DB	018H
	DB	0c6H
	DB	038H
	DB	0c6H
	DB	038H
	DB	0c6H
	DB	038H
	DB	0c6H
	DB	018H
	DB	0c6H
	DB	038H
	DB	0c6H
	DB	038H
	DB	0c6H
	DB	037H
	DB	0c6H
	DB	038H
	DB	0c6H
	DB	038H
	DB	0c6H
	DB	037H
	DB	0c6H
	DB	018H
	DB	0c6H
	DB	038H
	DB	0c6H
	DB	017H
	DB	0c6H
	DB	018H
	DB	0c6H
	DB	038H
	DB	0c6H
	DB	038H
	DB	0c6H
	DB	018H
	DB	0c6H
	DB	037H
	DB	0c6H
	DB	038H
	DB	0c6H
	DB	018H
	DB	0c6H
	DB	037H
	DB	0ceH
	DB	038H
	DB	0c6H
	DB	018H
	DB	0c6H
	DB	037H
	DB	0c6H
	DB	018H
	DB	0c6H
	DB	038H
	DB	0c6H
	DB	038H
	DB	0c6H
	DB	038H
	DB	0c6H
	DB	037H
	DB	0beH
	DB	038H
	DB	0c6H
	DB	018H
	DB	0c6H
	DB	037H
	DB	0c6H
	DB	038H
	DB	0c6H
	DB	018H
	DB	0c6H
	DB	017H
	DB	0c6H
	DB	018H
	DB	0c6H
	DB	017H
	DB	0c6H
	DB	038H
	DB	0c6H
	DB	018H
	DB	0c6H
	DB	017H
	DB	0c6H
	DB	038H
	DB	0c6H
	DB	018H
	DB	0c6H
	DB	017H
	DB	0c6H
	DB	038H
	DB	0c6H
	DB	058H
	DB	0ceH
	DB	059H
	DB	0c6H
	DB	078H
	DB	0c6H
	DB	058H
	DB	0ceH
	DB	059H
	DB	0ceH
	DB	079H
	DB	0c6H
	DB	058H
	DB	0ceH
	DB	078H
	DB	0ceH
	DB	059H
	DB	0c6H
	DB	078H
	DB	0ceH
	DB	059H
	DB	0c6H
	DB	059H
	DB	0ceH
	DB	078H
	DB	0c6H
	DB	058H
	DB	0ceH
	DB	059H
	DB	0c6H
	DB	078H
	DB	0ceH
	DB	078H
	DB	0ceH
	DB	079H
	DB	0c6H
	DB	058H
	DB	0ceH
	DB	078H
	DB	0c6H
	DB	079H
	DB	0ceH
	DB	058H
	DB	0ceH
	DB	078H
	DB	0c6H
	DB	059H
	DB	0ceH
	DB	078H
	DB	0ceH
	DB	079H
	DB	0c6H
	DB	058H
	DB	0ceH
	DB	079H
	DB	0ceH
	DB	078H
	DB	0ceH
	DB	059H
	DB	0ceH
	DB	079H
	DB	0ceH
	DB	059H
	DB	0ceH
	DB	079H
	DB	0ceH
	DB	078H
	DB	0ceH
	DB	059H
	DB	0c6H
	DB	078H
	DB	0ceH
	DB	079H
	DB	0ceH
	DB	078H
	DB	0c6H
	DB	079H
	DB	0ceH
	DB	059H
	DB	0ceH
	DB	058H
	DB	0ceH
	DB	059H
	DB	0ceH
	DB	058H
	DB	0ceH
	DB	058H
	DB	0ceH
	DB	079H
	DB	0ceH
	DB	079H
	DB	0ceH
	DB	079H
	DB	0ceH
	DB	079H
	DB	0ceH
	DB	079H
	DB	0ceH
	DB	079H
	DB	0ceH
	DB	079H
	DB	0ceH
	DB	078H
	DB	0ceH
	DB	079H
	DB	0ceH
	DB	059H
	DB	0ceH
	DB	079H
	DB	0ceH
	DB	079H
	DB	0ceH
	DB	059H
	DB	0ceH
	DB	079H
	DB	0ceH
	DB	079H
	DB	0ceH
	DB	079H
	DB	0ceH
	DB	079H
	DB	0ceH
	DB	079H
	DB	0ceH
	DB	079H
	DB	0ceH
	DB	079H
	DB	0ceH
	DB	079H
	DB	0ceH
	DB	059H
	DB	0ceH
	DB	079H
	DB	0d6H
	DB	079H
	DB	0ceH
	DB	079H
	DB	0ceH
	DB	079H
	DB	0d6H
	DB	079H
	DB	0ceH
	DB	079H
	DB	0ceH
	DB	079H
	DB	0d6H
	DB	079H
	DB	0ceH
	DB	079H
	DB	0ceH
	DB	079H
	DB	0ceH
	DB	079H
	DB	0d6H
	DB	079H
	DB	0ceH
	DB	079H
	DB	0d6H
	DB	079H
	DB	0ceH
	DB	079H
	DB	0ceH
	DB	079H
	DB	0d6H
	DB	079H
	DB	0ceH
	DB	079H
	DB	0ceH
	DB	079H
	DB	0d6H
	DB	079H
	DB	0ceH
	DB	079H
	DB	0d6H
	DB	079H
	DB	0ceH
	DB	079H
	DB	0ceH
	DB	079H
	DB	0ceH
	DB	079H
	DB	0d6H
	DB	079H
	DB	0d6H
	DB	079H
	DB	0ceH
	DB	079H
	DB	0ceH
	DB	079H
	DB	0ceH
	DB	079H
	DB	0d6H
	DB	079H
	DB	0d6H
	DB	07aH
	DB	0ceH
	DB	079H
	DB	0d6H
	DB	079H
	DB	0d6H
	DB	07aH
	DB	0ceH
	DB	079H
	DB	0d6H
	DB	07aH
	DB	0ceH
	DB	079H
	DB	0ceH
	DB	079H
	DB	0d6H
	DB	079H
	DB	0ceH
	DB	07aH
	DB	0ceH
	DB	079H
	DB	0ceH
	DB	079H
	DB	0ceH
	DB	099H
	DB	0d6H
	DB	079H
	DB	0ceH
	DB	07aH
	DB	0ceH
	DB	099H
	DB	0d6H
	DB	079H
	DB	0ceH
	DB	079H
	DB	0ceH
	DB	079H
	DB	0ceH
	DB	079H
	DB	0ceH
	DB	07aH
	DB	0ceH
	DB	099H
	DB	0d6H
	DB	09aH
	DB	0d6H
	DB	079H
	DB	0ceH
	DB	079H
	DB	0ceH
	DB	099H
	DB	0d6H
	DB	079H
	DB	0ceH
	DB	07aH
	DB	0ceH
	DB	099H
	DB	0d6H
	DB	079H
	DB	0ceH
	DB	09aH
	DB	0ceH
	DB	099H
	DB	0d6H
	DB	099H
	DB	0d6H
	DB	09aH
	DB	0d6H
	DB	079H
	DB	0ceH
	DB	079H
	DB	0d6H
	DB	09aH
	DB	0ceH
	DB	09aH
	DB	0d6H
	DB	079H
	DB	0ceH
	DB	099H
	DB	0d6H
	DB	09aH
	DB	0d6H
	DB	079H
	DB	0ceH
	DB	099H
	DB	0ceH
	DB	07aH
	DB	0d6H
	DB	09aH
	DB	0ceH
	DB	079H
	DB	0ceH
	DB	099H
	DB	0d6H
	DB	079H
	DB	0ceH
	DB	09aH
	DB	0ceH
	DB	099H
	DB	0d6H
	DB	09aH
	DB	0d6H
	DB	099H
	DB	0d6H
	DB	07aH
	DB	0d6H
	DB	099H
	DB	0d6H
	DB	09aH
	DB	0ceH
	DB	099H
	DB	0ceH
	DB	099H
	DB	0ceH
	DB	09aH
	DB	0ceH
	DB	099H
	DB	0ceH
	DB	099H
	DB	0ceH
	DB	099H
	DB	0ceH
	DB	099H
	DB	0ceH
	DB	099H
	DB	0ceH
	DB	09aH
	DB	0d6H
	DB	09aH
	DB	0d6H
	DB	079H
	DB	0ceH
	DB	099H
	DB	0ceH
	DB	09aH
	DB	0ceH
	DB	099H
	DB	0d6H
	DB	09aH
	DB	0ceH
	DB	09aH
	DB	0d6H
	DB	079H
	DB	0d6H
	DB	099H
	DB	0d6H
	DB	099H
	DB	0d6H
	DB	099H
	DB	0d6H
	DB	099H
	DB	0d6H
	DB	099H
	DB	0d6H
	DB	079H
	DB	0d6H
	DB	09aH
	DB	0d6H
	DB	099H
	DB	0d6H
	DB	099H
	DB	0ceH
	DB	099H
	DB	0d6H
	DB	09aH
	DB	0d6H
	DB	099H
	DB	0ceH
	DB	09aH
	DB	0d6H
	DB	099H
	DB	0d6H
	DB	09aH
	DB	0ceH
	DB	099H
	DB	0d6H
	DB	099H
	DB	0ceH
	DB	099H
	DB	0d6H
	DB	099H
	DB	0d6H
	DB	09aH
	DB	0ceH
	DB	0b9H
	DB	0ceH
	DB	099H
	DB	0d6H
	DB	09aH
	DB	0ceH
	DB	099H
	DB	0d6H
	DB	09aH
	DB	0ceH
	DB	099H
	DB	0ceH
	DB	0baH
	DB	0d6H
	DB	0baH
	DB	0d6H
	DB	0b9H
	DB	0d6H
	DB	0baH
	DB	0d6H
	DB	0baH
	DB	0ceH
	DB	0baH
	DB	0d6H
	DB	099H
	DB	0ceH
	DB	0baH
	DB	0ceH
	DB	0baH
	DB	0ceH
	DB	0baH
	DB	0ceH
	DB	0baH
	DB	0ceH
	DB	0b9H
	DB	0d6H
	DB	0b9H
	DB	0d6H
	DB	09aH
	DB	0ceH
	DB	0baH
	DB	0d6H
	DB	09aH
	DB	0d6H
	DB	0b9H
	DB	0ceH
	DB	09aH
	DB	0d6H
	DB	09aH
	DB	0d6H
	DB	0baH
	DB	0ceH
	DB	09aH
	DB	0ceH
	DB	0baH
	DB	0d6H
	DB	0baH
	DB	0d6H
	DB	0baH
	DB	0d6H
	DB	0baH
	DB	0d6H
	DB	0baH
	DB	0d6H
	DB	09aH
	DB	0d6H
	DB	0baH
	DB	0d6H
	DB	099H
	DB	0d6H
	DB	0baH
	DB	0d6H
	DB	09aH
	DB	0d6H
	DB	09aH
	DB	0d6H
	DB	0baH
	DB	0d6H
	DB	0baH
	DB	0d6H
	DB	09aH
	DB	0d6H
	DB	0baH
	DB	0d6H
	DB	09aH
	DB	0d6H
	DB	09aH
	DB	0d6H
	DB	0baH
	DB	0d6H
	DB	09aH
	DB	0d6H
	DB	09aH
	DB	0d6H
	DB	0baH
	DB	0d6H
	DB	09aH
	DB	0d6H
	DB	0baH
	DB	0d6H
	DB	0baH
	DB	0d6H
	DB	0baH
	DB	0d6H
	DB	0baH
	DB	0d6H
	DB	0baH
	DB	0d6H
	DB	0baH
	DB	0d6H
	DB	0baH
	DB	0d6H
	DB	09aH
	DB	0d6H
	DB	0baH
	DB	0d6H
	DB	0baH
	DB	0d6H
	DB	09aH
	DB	0d6H
	DB	0baH
	DB	0d6H
	DB	09aH
	DB	0d6H
	DB	09aH
	DB	0d6H
	DB	0baH
	DB	0d6H
	DB	09aH
	DB	0d6H
	DB	0baH
	DB	0d6H
	DB	0baH
	DB	0d6H
	DB	0baH
	DB	0d6H
	DB	0baH
	DB	0d6H
	DB	0baH
	DB	0d6H
	DB	0baH
	DB	0d6H
	DB	0baH
	DB	0d6H
	DB	0baH
	DB	0d6H
	DB	0baH
	DB	0d6H
	DB	0baH
	DB	0d6H
	DB	0baH
	DB	0d6H
	DB	0baH
	DB	0deH
	DB	0baH
	DB	0d6H
	DB	0baH
	DB	0d6H
	DB	0baH
	DB	0deH
	DB	0baH
	DB	0d6H
	DB	0baH
	DB	0d6H
	DB	0baH
	DB	0deH
	DB	0baH
	DB	0d6H
	DB	0baH
	DB	0d6H
	DB	0baH
	DB	0d6H
	DB	0baH
	DB	0d6H
	DB	0baH
	DB	0d6H
	DB	0baH
	DB	0deH
	DB	0baH
	DB	0d6H
	DB	0baH
	DB	0d6H
	DB	0baH
	DB	0deH
	DB	0baH
	DB	0d6H
	DB	0baH
	DB	0d6H
	DB	0baH
	DB	0deH
	DB	0baH
	DB	0d6H
	DB	0baH
	DB	0d6H
	DB	0baH
	DB	0d6H
	DB	0baH
	DB	0d6H
	DB	0baH
	DB	0d6H
	DB	0baH
	DB	0d6H
	DB	0b9H
	DB	0d6H
	DB	0baH
	DB	0d6H
	DB	0baH
	DB	0d6H
	DB	0baH
	DB	0d6H
	DB	0baH
	DB	0d6H
	DB	0baH
	DB	0d6H
	DB	0baH
	DB	0d6H
	DB	0baH
	DB	0deH
	DB	0baH
	DB	0d6H
	DB	0baH
	DB	0d6H
	DB	0baH
	DB	0deH
	DB	0b9H
	DB	0d6H
	DB	0baH
	DB	0d6H
	DB	0baH
	DB	0d6H
	DB	0baH
	DB	0d6H
	DB	0baH
	DB	0deH
	DB	0baH
	DB	0d6H
	DB	0baH
	DB	0deH
	DB	0baH
	DB	0d6H
	DB	0baH
	DB	0deH
	DB	0baH
	DB	0d6H
	DB	0baH
	DB	0d6H
	DB	0baH
	DB	0deH
	DB	0baH
	DB	0d6H
	DB	0baH
	DB	0d6H
	DB	0baH
	DB	0deH
	DB	0baH
	DB	0d6H
	DB	0baH
	DB	0d6H
	DB	0baH
	DB	0deH
	DB	0baH
	DB	0d6H
	DB	0baH
	DB	0d6H
	DB	0baH
	DB	0d6H
	DB	0baH
	DB	0d6H
	DB	0baH
	DB	0d6H
	DB	09aH
	DB	0d6H
	DB	0baH
	DB	0d6H
	DB	0baH
	DB	0d6H
	DB	09aH
	DB	0d6H
	DB	09aH
	DB	0d6H
	DB	0baH
	DB	0d6H
	DB	09aH
	DB	0d6H
	DB	0baH
	DB	0d6H
	DB	09aH
	DB	0d6H
	DB	09aH
	DB	0d6H
	DB	0baH
	DB	0d6H
	DB	09aH
	DB	0d6H
	DB	0baH
	DB	0d6H
	DB	0baH
	DB	0d6H
	DB	0baH
	DB	0d6H
	DB	0baH
	DB	0d6H
	DB	0baH
	DB	0d6H
	DB	09aH
	DB	0d6H
	DB	0baH
	DB	0d6H
	DB	0baH
	DB	0d6H
	DB	0baH
	DB	0d6H
	DB	099H
	DB	0d6H
	DB	0baH
	DB	0d6H
	DB	079H
	DB	0ceH
	DB	079H
	DB	0ceH
	DB	038H
	DB	0ceH
	DB	038H
	DB	0c6H
	DB	038H
	DB	0c6H
	DB	038H
	DB	0c6H
	DB	038H
	DB	0c6H
	DB	038H
	DB	0c6H
	DB	038H
	DB	0c6H
	DB	038H
	DB	0ceH
	DB	058H
	DB	0c6H
	DB	038H
	DB	0ceH
	DB	038H
	DB	0ceH
	DB	038H
	DB	0c6H
	DB	038H
	DB	0c6H
	DB	038H
	DB	0ceH
	DB	038H
	DB	0c6H
	DB	038H
	DB	0c6H
	DB	038H
	DB	0c6H
	DB	038H
	DB	0c6H
	DB	038H
	DB	0c6H
	DB	038H
	DB	0ceH
	DB	038H
	DB	0c6H
	DB	038H
	DB	0c6H
	DB	038H
	DB	0ceH
	DB	038H
	DB	0c6H
	DB	038H
	DB	0c6H
	DB	038H
	DB	0ceH
	DB	038H
	DB	0c6H
	DB	038H
	DB	0c6H
	DB	037H
	DB	0c6H
	DB	038H
	DB	0c6H
	DB	038H
	DB	0c6H
	DB	057H
	DB	0c6H
	DB	038H
	DB	0c6H
	DB	038H
	DB	0c6H
	DB	058H
	DB	0c6H
	DB	038H
	DB	0c6H
	DB	038H
	DB	0c6H
	DB	037H
	DB	0c6H
	DB	058H
	DB	0c6H
	DB	038H
	DB	0c6H
	DB	037H
	DB	0c6H
	DB	058H
	DB	0c6H
	DB	038H
	DB	0c6H
	DB	058H
	DB	0c6H
	DB	038H
	DB	0c6H
	DB	058H
	DB	0c6H
	DB	038H
	DB	0c6H
	DB	038H
	DB	0c6H
	DB	058H
	DB	0c6H
	DB	037H
	DB	0c6H
	DB	038H
	DB	0c6H
	DB	038H
	DB	0c6H
	DB	038H
	DB	0c6H
	DB	038H
	DB	0c6H
	DB	058H
	DB	0c6H
	DB	038H
	DB	0c6H
	DB	038H
	DB	0ceH
	DB	038H
	DB	0c6H
	DB	038H
	DB	0c6H
	DB	038H
	DB	0ceH
	DB	038H
	DB	0ceH
	DB	038H
	DB	0ceH
	DB	038H
	DB	0ceH
	DB	038H
	DB	0ceH
	DB	038H
	DB	0ceH
	DB	038H
	DB	0ceH
	DB	038H
	DB	0c6H
	DB	058H
	DB	0c6H
	DB	038H
	DB	0c6H
	DB	038H
	DB	0ceH
	DB	058H
	DB	0c6H
	DB	038H
	DB	0ceH
	DB	038H
	DB	0c6H
	DB	038H
	DB	0ceH
	DB	038H
	DB	0ceH
	DB	038H
	DB	0c6H
	DB	058H
	DB	0c6H
	DB	038H
	DB	0c6H
	DB	079H
	DB	0ceH
	DB	02fH
	DB	084H
	DB	079H
	DB	0ceH
	DB	058H
	DB	0c6H
	DB	038H
	DB	0c6H
	DB	038H
	DB	0c6H
	DB	058H
	DB	0c6H
	DB	038H
	DB	0c6H
	DB	038H
	DB	0c6H
	DB	038H
	DB	0c6H
	DB	038H
	DB	0c6H
	DB	038H
	DB	0c6H
	DB	038H
	DB	0c6H
	DB	038H
	DB	0c6H
	DB	038H
	DB	0ceH
	DB	038H
	DB	0c6H
	DB	038H
	DB	0c6H
	DB	038H
	DB	0ceH
	DB	038H
	DB	0c6H
	DB	038H
	DB	0c6H
	DB	038H
	DB	0c6H
	DB	038H
	DB	0c6H
	DB	038H
	DB	0ceH
	DB	038H
	DB	0c6H
	DB	037H
	DB	0c6H
	DB	038H
	DB	0ceH
	DB	018H
	DB	0c6H
	DB	038H
	DB	0c6H
	DB	038H
	DB	0c6H
	DB	038H
	DB	0c6H
	DB	018H
	DB	0ceH
	DB	018H
	DB	0c6H
	DB	038H
	DB	0c6H
	DB	038H
	DB	0c6H
	DB	038H
	DB	0c6H
	DB	038H
	DB	0ceH
	DB	038H
	DB	0c6H
	DB	038H
	DB	0c6H
	DB	038H
	DB	0c6H
	DB	037H
	DB	0c6H
	DB	037H
	DB	0ceH
	DB	018H
	DB	0c6H
	DB	038H
	DB	0c6H
	DB	038H
	DB	0c6H
	DB	018H
	DB	0c6H
	DB	018H
	DB	0ceH
	DB	037H
	DB	0c6H
	DB	038H
	DB	0c6H
	DB	038H
	DB	0c6H
	DB	038H
	DB	0c6H
	DB	038H
	DB	0c6H
	DB	037H
	DB	0c6H
	DB	018H
	DB	0c6H
	DB	038H
	DB	0c6H
	DB	037H
	DB	0c6H
	DB	038H
	DB	0ceH
	DB	038H
	DB	0c6H
	DB	038H
	DB	0c6H
	DB	037H
	DB	0c6H
	DB	038H
	DB	0c6H
	DB	038H
	DB	0c6H
	DB	018H
	DB	0c6H
	DB	037H
	DB	0c6H
	DB	038H
	DB	0c6H
	DB	018H
	DB	0c6H
	DB	037H
	DB	0beH
	DB	018H
	DB	0c6H
	DB	018H
	DB	0c6H
	DB	017H
	DB	0c6H
	DB	038H
	DB	0c6H
	DB	038H
	DB	0c6H
	DB	017H
	DB	0c6H
	DB	038H
	DB	0c6H
	DB	038H
	DB	0c6H
	DB	017H
	DB	0c6H
	DB	038H
	DB	0c6H
	DB	037H
	DB	0c6H
	DB	017H
	DB	0c6H
	DB	017H
	DB	0c6H
	DB	018H
	DB	0c6H
	DB	017H
	DB	0c6H
	DB	038H
	DB	0c6H
	DB	079H
	DB	0ceH
	DB	059H
	DB	0ceH
	DB	078H
	DB	0c6H
	DB	079H
	DB	0ceH
	DB	058H
	DB	0ceH
	DB	078H
	DB	0c6H
	DB	059H
	DB	0ceH
	DB	059H
	DB	0ceH
	DB	078H
	DB	0c6H
	DB	078H
	DB	0ceH
	DB	059H
	DB	0ceH
	DB	078H
	DB	0c6H
	DB	079H
	DB	0ceH
	DB	059H
	DB	0ceH
	DB	058H
	DB	0c6H
	DB	078H
	DB	0c6H
	DB	079H
	DB	0ceH
	DB	059H
	DB	0ceH
	DB	078H
	DB	0ceH
	DB	079H
	DB	0c6H
	DB	059H
	DB	0ceH
	DB	079H
	DB	0ceH
	DB	079H
	DB	0c6H
	DB	078H
	DB	0ceH
	DB	059H
	DB	0ceH
	DB	079H
	DB	0c6H
	DB	078H
	DB	0ceH
	DB	079H
	DB	0c6H
	DB	059H
	DB	0c6H
	DB	078H
	DB	0ceH
	DB	078H
	DB	0c6H
	DB	079H
	DB	0ceH
	DB	079H
	DB	0ceH
	DB	079H
	DB	0c6H
	DB	058H
	DB	0ceH
	DB	079H
	DB	0ceH
	DB	079H
	DB	0c6H
	DB	058H
	DB	0ceH
	DB	079H
	DB	0ceH
	DB	078H
	DB	0c6H
	DB	059H
	DB	0ceH
	DB	079H
	DB	0ceH
	DB	079H
	DB	0ceH
	DB	079H
	DB	0ceH
	DB	079H
	DB	0ceH
	DB	078H
	DB	0ceH
	DB	059H
	DB	0ceH
	DB	078H
	DB	0ceH
	DB	079H
	DB	0ceH
	DB	079H
	DB	0ceH
	DB	059H
	DB	0ceH
	DB	079H
	DB	0ceH
	DB	079H
	DB	0ceH
	DB	059H
	DB	0ceH
	DB	079H
	DB	0ceH
	DB	079H
	DB	0ceH
	DB	079H
	DB	0ceH
	DB	059H
	DB	0ceH
	DB	079H
	DB	0ceH
	DB	059H
	DB	0ceH
	DB	079H
	DB	0ceH
	DB	079H
	DB	0ceH
	DB	059H
	DB	0ceH
	DB	079H
	DB	0ceH
	DB	079H
	DB	0d6H
	DB	079H
	DB	0ceH
	DB	079H
	DB	0ceH
	DB	079H
	DB	0ceH
	DB	079H
	DB	0ceH
	DB	079H
	DB	0ceH
	DB	079H
	DB	0ceH
	DB	079H
	DB	0ceH
	DB	079H
	DB	0d6H
	DB	079H
	DB	0ceH
	DB	079H
	DB	0ceH
	DB	079H
	DB	0d6H
	DB	079H
	DB	0ceH
	DB	079H
	DB	0ceH
	DB	079H
	DB	0d6H
	DB	079H
	DB	0ceH
	DB	079H
	DB	0ceH
	DB	079H
	DB	0d6H
	DB	079H
	DB	0ceH
	DB	079H
	DB	0ceH
	DB	079H
	DB	0ceH
	DB	079H
	DB	0d6H
	DB	079H
	DB	0ceH
	DB	079H
	DB	0ceH
	DB	079H
	DB	0d6H
	DB	079H
	DB	0ceH
	DB	079H
	DB	0ceH
	DB	07aH
	DB	0d6H
	DB	079H
	DB	0d6H
	DB	079H
	DB	0ceH
	DB	07aH
	DB	0ceH
	DB	079H
	DB	0d6H
	DB	079H
	DB	0ceH
	DB	07aH
	DB	0ceH
	DB	079H
	DB	0ceH
	DB	079H
	DB	0ceH
	DB	079H
	DB	0ceH
	DB	079H
	DB	0d6H
	DB	079H
	DB	0ceH
	DB	07aH
	DB	0ceH
	DB	079H
	DB	0d6H
	DB	079H
	DB	0ceH
	DB	099H
	DB	0d6H
	DB	07aH
	DB	0d6H
	DB	079H
	DB	0ceH
	DB	099H
	DB	0ceH
	DB	07aH
	DB	0d6H
	DB	079H
	DB	0ceH
	DB	099H
	DB	0d6H
	DB	07aH
	DB	0ceH
	DB	07aH
	DB	0d6H
	DB	099H
	DB	0d6H
	DB	09aH
	DB	0ceH
	DB	079H
	DB	0d6H
	DB	079H
	DB	0ceH
	DB	09aH
	DB	0ceH
	DB	079H
