; Listing generated by Microsoft (R) Optimizing Compiler Version 19.27.29112.0 

	TITLE	D:\hackTuesProject\project\TouchGFX\generated\images\src\Bathtub\image_bathtub_water.cpp
	.686P
	.XMM
	include listing.inc
	.model	flat

INCLUDELIB MSVCRTD
INCLUDELIB OLDNAMES

PUBLIC	?image_bathtub_water@@3QBEB			; image_bathtub_water
CONST	SEGMENT
?image_bathtub_water@@3QBEB DB 0f8H			; image_bathtub_water
	DB	0fcH
	DB	0f8H
	DB	00H
	DB	0f8H
	DB	0fcH
	DB	0f8H
	DB	00H
	DB	0f8H
	DB	0fcH
	DB	0f8H
	DB	00H
	DB	0f8H
	DB	0fcH
	DB	0f8H
	DB	00H
	DB	0f8H
	DB	0fcH
	DB	0f8H
	DB	00H
	DB	0f8H
	DB	0fcH
	DB	0f8H
	DB	00H
	DB	0f8H
	DB	0fcH
	DB	0f8H
	DB	00H
	DB	0f8H
	DB	0fcH
	DB	0f8H
	DB	00H
	DB	0f8H
	DB	0fcH
	DB	0f8H
	DB	00H
	DB	0f8H
	DB	0fcH
	DB	0f8H
	DB	00H
	DB	0f8H
	DB	0fcH
	DB	0f8H
	DB	00H
	DB	0f8H
	DB	0fcH
	DB	0f8H
	DB	00H
	DB	0f8H
	DB	0fcH
	DB	0f8H
	DB	00H
	DB	0f8H
	DB	0fcH
	DB	0f8H
	DB	00H
	DB	0f8H
	DB	0fcH
	DB	0f8H
	DB	00H
	DB	0f8H
	DB	0fcH
	DB	0f8H
	DB	00H
	DB	0f8H
	DB	0fcH
	DB	0f8H
	DB	00H
	DB	0f8H
	DB	0fcH
	DB	0f8H
	DB	00H
	DB	0f8H
	DB	0fcH
	DB	0f8H
	DB	00H
	DB	0f8H
	DB	0fcH
	DB	0f8H
	DB	00H
	DB	0f8H
	DB	0fcH
	DB	0f8H
	DB	00H
	DB	0f8H
	DB	0fcH
	DB	0f8H
	DB	00H
	DB	0f8H
	DB	0fcH
	DB	0f8H
	DB	00H
	DB	0f8H
	DB	0fcH
	DB	0f8H
	DB	00H
	DB	0f8H
	DB	0fcH
	DB	0f8H
	DB	00H
	DB	0f8H
	DB	0fcH
	DB	0f8H
	DB	00H
	DB	0f8H
	DB	0fcH
	DB	0f8H
	DB	00H
	DB	0f8H
	DB	0fcH
	DB	0f8H
	DB	00H
	DB	0f8H
	DB	0fcH
	DB	0f8H
	DB	00H
	DB	0f8H
	DB	0fcH
	DB	0f8H
	DB	00H
	DB	0f8H
	DB	0fcH
	DB	0f8H
	DB	00H
	DB	0f8H
	DB	0fcH
	DB	0f8H
	DB	00H
	DB	0f8H
	DB	0fcH
	DB	0f8H
	DB	00H
	DB	0f8H
	DB	0fcH
	DB	0f8H
	DB	00H
	DB	0f8H
	DB	0fcH
	DB	0f8H
	DB	00H
	DB	0f8H
	DB	0fcH
	DB	0f8H
	DB	00H
	DB	0f8H
	DB	0fcH
	DB	0f8H
	DB	00H
	DB	0f8H
	DB	0fcH
	DB	0f8H
	DB	00H
	DB	0f8H
	DB	0fcH
	DB	0f8H
	DB	00H
	DB	0f8H
	DB	0fcH
	DB	0f8H
	DB	00H
	DB	0f8H
	DB	0fcH
	DB	0f8H
	DB	00H
	DB	0f8H
	DB	0fcH
	DB	0f8H
	DB	00H
	DB	0f8H
	DB	0fcH
	DB	0f8H
	DB	00H
	DB	0f8H
	DB	0fcH
	DB	0f8H
	DB	00H
	DB	0f8H
	DB	0fcH
	DB	0f8H
	DB	00H
	DB	0f8H
	DB	0fcH
	DB	0f8H
	DB	00H
	DB	0f8H
	DB	0fcH
	DB	0f8H
	DB	00H
	DB	0f8H
	DB	0fcH
	DB	0f8H
	DB	00H
	DB	0f8H
	DB	0fcH
	DB	0f8H
	DB	00H
	DB	0f8H
	DB	0fcH
	DB	0f8H
	DB	00H
	DB	0f8H
	DB	0fcH
	DB	0f8H
	DB	00H
	DB	0f8H
	DB	0fcH
	DB	0f8H
	DB	00H
	DB	0f8H
	DB	0fcH
	DB	0f8H
	DB	00H
	DB	0f8H
	DB	0fcH
	DB	0f8H
	DB	00H
	DB	0f8H
	DB	0fcH
	DB	0f8H
	DB	00H
	DB	0f8H
	DB	0fcH
	DB	0f8H
	DB	00H
	DB	0f8H
	DB	0fcH
	DB	0f8H
	DB	00H
	DB	0f8H
	DB	0fcH
	DB	0f8H
	DB	00H
	DB	0f8H
	DB	0fcH
	DB	0f8H
	DB	00H
	DB	0f8H
	DB	0fcH
	DB	0f8H
	DB	00H
	DB	0f8H
	DB	0fcH
	DB	0f8H
	DB	00H
	DB	0f8H
	DB	0fcH
	DB	0f8H
	DB	00H
	DB	0f8H
	DB	0fcH
	DB	0f8H
	DB	00H
	DB	0f8H
	DB	0fcH
	DB	0f8H
	DB	00H
	DB	0f8H
	DB	0fcH
	DB	0f8H
	DB	00H
	DB	0f8H
	DB	0fcH
	DB	0f8H
	DB	00H
	DB	0f8H
	DB	0fcH
	DB	0f8H
	DB	00H
	DB	0f8H
	DB	0fcH
	DB	0f8H
	DB	00H
	DB	0f8H
	DB	0fcH
	DB	0f8H
	DB	00H
	DB	0f8H
	DB	0fcH
	DB	0f8H
	DB	00H
	DB	0f8H
	DB	0fcH
	DB	0f8H
	DB	00H
	DB	0f8H
	DB	0fcH
	DB	0f8H
	DB	00H
	DB	0f8H
	DB	0fcH
	DB	0f8H
	DB	00H
	DB	0f8H
	DB	0fcH
	DB	0f8H
	DB	00H
	DB	0f8H
	DB	0fcH
	DB	0f8H
	DB	00H
	DB	0f8H
	DB	0fcH
	DB	0f8H
	DB	00H
	DB	0f8H
	DB	0fcH
	DB	0f8H
	DB	00H
	DB	0f8H
	DB	0fcH
	DB	0f8H
	DB	00H
	DB	0f8H
	DB	0fcH
	DB	0f8H
	DB	00H
	DB	0f8H
	DB	0fcH
	DB	0f8H
	DB	00H
	DB	0f8H
	DB	0fcH
	DB	0f8H
	DB	00H
	DB	0f8H
	DB	0fcH
	DB	0f8H
	DB	00H
	DB	0f8H
	DB	0fcH
	DB	0f8H
	DB	00H
	DB	0f8H
	DB	0fcH
	DB	0f8H
	DB	00H
	DB	0f8H
	DB	0fcH
	DB	0f8H
	DB	00H
	DB	0f8H
	DB	0fcH
	DB	0f8H
	DB	00H
	DB	0f8H
	DB	0fcH
	DB	0f8H
	DB	00H
	DB	0f8H
	DB	0fcH
	DB	0f8H
	DB	00H
	DB	0f8H
	DB	0fcH
	DB	0f8H
	DB	00H
	DB	0f8H
	DB	0fcH
	DB	0f8H
	DB	00H
	DB	0f8H
	DB	0fcH
	DB	0f8H
	DB	00H
	DB	0f8H
	DB	0fcH
	DB	0f8H
	DB	00H
	DB	0f8H
	DB	0fcH
	DB	0f8H
	DB	00H
	DB	0f8H
	DB	0fcH
	DB	0f8H
	DB	00H
	DB	0f8H
	DB	0fcH
	DB	0f8H
	DB	00H
	DB	0f8H
	DB	0fcH
	DB	0f8H
	DB	00H
	DB	0f8H
	DB	0fcH
	DB	0f8H
	DB	00H
	DB	0f8H
	DB	0fcH
	DB	0f8H
	DB	00H
	DB	0f8H
	DB	0fcH
	DB	0f8H
	DB	00H
	DB	0f8H
	DB	0fcH
	DB	0f8H
	DB	00H
	DB	0f8H
	DB	0fcH
	DB	0f8H
	DB	00H
	DB	0f8H
	DB	0fcH
	DB	0f8H
	DB	00H
	DB	0f8H
	DB	0fcH
	DB	0f8H
	DB	00H
	DB	0f8H
	DB	0fcH
	DB	0f8H
	DB	00H
	DB	0f8H
	DB	0fcH
	DB	0f8H
	DB	00H
	DB	0f8H
	DB	0fcH
	DB	0f8H
	DB	00H
	DB	0f8H
	DB	0fcH
	DB	0f8H
	DB	00H
	DB	0f8H
	DB	0fcH
	DB	0f8H
	DB	00H
	DB	0f8H
	DB	0fcH
	DB	0f8H
	DB	00H
	DB	0f8H
	DB	0fcH
	DB	0f8H
	DB	00H
	DB	0f8H
	DB	0fcH
	DB	0f8H
	DB	00H
	DB	0f8H
	DB	0fcH
	DB	0f8H
	DB	00H
	DB	0f8H
	DB	0fcH
	DB	0f8H
	DB	00H
	DB	0f8H
	DB	0fcH
	DB	0f8H
	DB	00H
	DB	0f8H
	DB	0fcH
	DB	0f8H
	DB	00H
	DB	0f8H
	DB	0fcH
	DB	0f8H
	DB	00H
	DB	0f8H
	DB	0fcH
	DB	0f8H
	DB	00H
	DB	0f8H
	DB	0fcH
	DB	0f8H
	DB	00H
	DB	0f8H
	DB	0fcH
	DB	0f8H
	DB	00H
	DB	0f8H
	DB	0fcH
	DB	0f8H
	DB	00H
	DB	0f8H
	DB	0fcH
	DB	0f8H
	DB	00H
	DB	0f8H
	DB	0fcH
	DB	0f8H
	DB	00H
	DB	0f8H
	DB	0fcH
	DB	0f8H
	DB	00H
	DB	0f8H
	DB	0fcH
	DB	0f8H
	DB	00H
	DB	0f8H
	DB	0fcH
	DB	0f8H
	DB	00H
	DB	0f8H
	DB	0fcH
	DB	0f8H
	DB	00H
	DB	0f8H
	DB	0fcH
	DB	0f8H
	DB	00H
	DB	0f8H
	DB	0fcH
	DB	0f8H
	DB	00H
	DB	0f8H
	DB	0fcH
	DB	0f8H
	DB	00H
	DB	0f8H
	DB	0fcH
	DB	0f8H
	DB	00H
	DB	0f8H
	DB	0fcH
	DB	0f8H
	DB	00H
	DB	0f8H
	DB	0fcH
	DB	0f8H
	DB	00H
	DB	0f8H
	DB	0fcH
	DB	0f8H
	DB	00H
	DB	0f8H
	DB	0fcH
	DB	0f8H
	DB	00H
	DB	0f8H
	DB	0fcH
	DB	0f8H
	DB	00H
	DB	0f8H
	DB	0fcH
	DB	0f8H
	DB	00H
	DB	0f8H
	DB	0fcH
	DB	0f8H
	DB	00H
	DB	0f8H
	DB	0fcH
	DB	0f8H
	DB	00H
	DB	0f8H
	DB	0fcH
	DB	0f8H
	DB	00H
	DB	0f8H
	DB	0fcH
	DB	0f8H
	DB	00H
	DB	0f8H
	DB	0fcH
	DB	0f8H
	DB	00H
	DB	0f8H
	DB	0fcH
	DB	0f8H
	DB	00H
	DB	0f8H
	DB	0fcH
	DB	0f8H
	DB	00H
	DB	0f8H
	DB	0fcH
	DB	0f8H
	DB	00H
	DB	0f8H
	DB	0fcH
	DB	0f8H
	DB	00H
	DB	0f8H
	DB	0fcH
	DB	0f8H
	DB	00H
	DB	0f8H
	DB	0fcH
	DB	0f8H
	DB	00H
	DB	0f8H
	DB	0fcH
	DB	0f8H
	DB	00H
	DB	0f8H
	DB	0fcH
	DB	0f8H
	DB	00H
	DB	0f8H
	DB	0fcH
	DB	0f8H
	DB	00H
	DB	0f8H
	DB	0fcH
	DB	0f8H
	DB	00H
	DB	0f8H
	DB	0fcH
	DB	0f8H
	DB	00H
	DB	0f8H
	DB	0fcH
	DB	0f8H
	DB	00H
	DB	0f8H
	DB	0fcH
	DB	0f8H
	DB	00H
	DB	0f8H
	DB	0fcH
	DB	0f8H
	DB	00H
	DB	0f8H
	DB	0fcH
	DB	0f8H
	DB	00H
	DB	0f8H
	DB	0fcH
	DB	0f8H
	DB	00H
	DB	0f8H
	DB	0fcH
	DB	0f8H
	DB	00H
	DB	0f8H
	DB	0fcH
	DB	0f8H
	DB	00H
	DB	0f8H
	DB	0fcH
	DB	0f8H
	DB	00H
	DB	0f8H
	DB	0fcH
	DB	0f8H
	DB	00H
	DB	0f8H
	DB	0fcH
	DB	0f8H
	DB	00H
	DB	0f8H
	DB	0fcH
	DB	0f8H
	DB	00H
	DB	0f8H
	DB	0fcH
	DB	0f8H
	DB	00H
	DB	0f8H
	DB	0fcH
	DB	0f8H
	DB	00H
	DB	0f8H
	DB	0fcH
	DB	0f8H
	DB	00H
	DB	0f8H
	DB	0fcH
	DB	0f8H
	DB	00H
	DB	0f8H
	DB	0fcH
	DB	0f8H
	DB	00H
	DB	0f8H
	DB	0fcH
	DB	0f8H
	DB	00H
	DB	0f8H
	DB	0fcH
	DB	0f8H
	DB	00H
	DB	0f8H
	DB	0fcH
	DB	0f8H
	DB	00H
	DB	0f8H
	DB	0fcH
	DB	0f8H
	DB	00H
	DB	0f8H
	DB	0fcH
	DB	0f8H
	DB	00H
	DB	0f8H
	DB	0fcH
	DB	0f8H
	DB	00H
	DB	0f8H
	DB	0fcH
	DB	0f8H
	DB	00H
	DB	0f8H
	DB	0fcH
	DB	0f8H
	DB	00H
	DB	0f8H
	DB	0fcH
	DB	0f8H
	DB	00H
	DB	0f8H
	DB	0fcH
	DB	0f8H
	DB	00H
	DB	0f8H
	DB	0fcH
	DB	0f8H
	DB	00H
	DB	0f8H
	DB	0fcH
	DB	0f8H
	DB	00H
	DB	0f8H
	DB	0fcH
	DB	0f8H
	DB	00H
	DB	0f8H
	DB	0fcH
	DB	0f8H
	DB	00H
	DB	0f8H
	DB	0fcH
	DB	0f8H
	DB	00H
	DB	0f8H
	DB	0fcH
	DB	0f8H
	DB	00H
	DB	0f8H
	DB	0fcH
	DB	0f8H
	DB	00H
	DB	0f8H
	DB	0fcH
	DB	0f8H
	DB	00H
	DB	0f8H
	DB	0fcH
	DB	0f8H
	DB	00H
	DB	0f8H
	DB	0fcH
	DB	0f8H
	DB	00H
	DB	0f8H
	DB	0fcH
	DB	0f8H
	DB	00H
	DB	0f8H
	DB	0fcH
	DB	0f8H
	DB	00H
	DB	0f8H
	DB	0fcH
	DB	0f8H
	DB	00H
	DB	0f8H
	DB	0fcH
	DB	0f8H
	DB	00H
	DB	0f8H
	DB	0fcH
	DB	0f8H
	DB	00H
	DB	0f8H
	DB	0fcH
	DB	0f8H
	DB	00H
	DB	0f8H
	DB	0fcH
	DB	0f8H
	DB	00H
	DB	0f8H
	DB	0fcH
	DB	0f8H
	DB	00H
	DB	0f8H
	DB	0fcH
	DB	0f8H
	DB	00H
	DB	0f8H
	DB	0fcH
	DB	0f8H
	DB	00H
	DB	0f8H
	DB	0fcH
	DB	0f8H
	DB	00H
	DB	0f8H
	DB	0fcH
	DB	0f8H
	DB	00H
	DB	0f8H
	DB	0fcH
	DB	0f8H
	DB	00H
	DB	0f8H
	DB	0fcH
	DB	0f8H
	DB	00H
	DB	0f8H
	DB	0fcH
	DB	0f8H
	DB	00H
	DB	0f8H
	DB	0fcH
	DB	0f8H
	DB	00H
	DB	0f8H
	DB	0fcH
	DB	0f8H
	DB	00H
	DB	0f8H
	DB	0fcH
	DB	0f8H
	DB	00H
	DB	0f8H
	DB	0fcH
	DB	0f8H
	DB	00H
	DB	0f8H
	DB	0fcH
	DB	0f8H
	DB	00H
	DB	0f8H
	DB	0fcH
	DB	0f8H
	DB	00H
	DB	0f8H
	DB	0fcH
	DB	0f8H
	DB	00H
	DB	0f8H
	DB	0fcH
	DB	0f8H
	DB	00H
	DB	0f8H
	DB	0fcH
	DB	0f8H
	DB	00H
	DB	0f8H
	DB	0fcH
	DB	0f8H
	DB	00H
	DB	0f8H
	DB	0fcH
	DB	0f8H
	DB	00H
	DB	0f8H
	DB	0fcH
	DB	0f8H
	DB	00H
	DB	0f8H
	DB	0fcH
	DB	0f8H
	DB	00H
	DB	0f8H
	DB	0fcH
	DB	0f8H
	DB	00H
	DB	0f8H
	DB	0fcH
	DB	0f8H
	DB	00H
	DB	0f8H
	DB	0fcH
	DB	0f8H
	DB	00H
	DB	0f8H
	DB	0fcH
	DB	0f8H
	DB	00H
	DB	0f8H
	DB	0fcH
	DB	0f8H
	DB	00H
	DB	0f8H
	DB	0fcH
	DB	0f8H
	DB	00H
	DB	0f8H
	DB	0fcH
	DB	0f8H
	DB	00H
	DB	0f8H
	DB	0fcH
	DB	0f8H
	DB	00H
	DB	0f8H
	DB	0fcH
	DB	0f8H
	DB	00H
	DB	0f8H
	DB	0fcH
	DB	0f8H
	DB	00H
	DB	0f8H
	DB	0fcH
	DB	0f8H
	DB	00H
	DB	0f8H
	DB	0fcH
	DB	0f8H
	DB	00H
	DB	0f8H
	DB	0fcH
	DB	0f8H
	DB	00H
	DB	0f8H
	DB	0fcH
	DB	0f8H
	DB	00H
	DB	0f8H
	DB	0fcH
	DB	0f8H
	DB	00H
	DB	0f8H
	DB	0fcH
	DB	0f8H
	DB	00H
	DB	0f8H
	DB	0fcH
	DB	0f8H
	DB	00H
	DB	0f8H
	DB	0fcH
	DB	0f8H
	DB	00H
	DB	0f8H
	DB	0fcH
	DB	0f8H
	DB	00H
	DB	0f8H
	DB	0fcH
	DB	0f8H
	DB	00H
	DB	0f8H
	DB	0fcH
	DB	0f8H
	DB	00H
	DB	0f8H
	DB	0fcH
	DB	0f8H
	DB	00H
	DB	0f8H
	DB	0fcH
	DB	0f8H
	DB	00H
	DB	0f8H
	DB	0fcH
	DB	0f8H
	DB	00H
	DB	0f8H
	DB	0fcH
	DB	0f8H
	DB	00H
	DB	0f8H
	DB	0fcH
	DB	0f8H
	DB	00H
	DB	0f8H
	DB	0fcH
	DB	0f8H
	DB	00H
	DB	0f8H
	DB	0fcH
	DB	0f8H
	DB	00H
	DB	0f8H
	DB	0fcH
	DB	0f8H
	DB	00H
	DB	0f8H
	DB	0fcH
	DB	0f8H
	DB	00H
	DB	0f8H
	DB	0fcH
	DB	0f8H
	DB	00H
	DB	0f8H
	DB	0fcH
	DB	0f8H
	DB	00H
	DB	0f8H
	DB	0fcH
	DB	0f8H
	DB	00H
	DB	0f8H
	DB	0fcH
	DB	0f8H
	DB	00H
	DB	0f8H
	DB	0fcH
	DB	0f8H
	DB	00H
	DB	0f8H
	DB	0fcH
	DB	0f8H
	DB	00H
	DB	0f8H
	DB	0fcH
	DB	0f8H
	DB	00H
	DB	0f8H
	DB	0fcH
	DB	0f8H
	DB	00H
	DB	0f8H
	DB	0fcH
	DB	0f8H
	DB	00H
	DB	0f8H
	DB	0fcH
	DB	0f8H
	DB	00H
	DB	0f8H
	DB	0fcH
	DB	0f8H
	DB	00H
	DB	0f8H
	DB	0fcH
	DB	0f8H
	DB	00H
	DB	0f8H
	DB	0fcH
	DB	0f8H
	DB	00H
	DB	0f8H
	DB	0fcH
	DB	0f8H
	DB	00H
	DB	0f8H
	DB	0fcH
	DB	0f8H
	DB	00H
	DB	0f8H
	DB	0fcH
	DB	0f8H
	DB	00H
	DB	0f8H
	DB	0fcH
	DB	0f8H
	DB	00H
	DB	0f8H
	DB	0fcH
	DB	0f8H
	DB	00H
	DB	0f8H
	DB	0fcH
	DB	0f8H
	DB	00H
	DB	0f8H
	DB	0fcH
	DB	0f8H
	DB	00H
	DB	0f8H
	DB	0fcH
	DB	0f8H
	DB	00H
	DB	0f8H
	DB	0fcH
	DB	0f8H
	DB	00H
	DB	0f8H
	DB	0fcH
	DB	0f8H
	DB	00H
	DB	0f8H
	DB	0fcH
	DB	0f8H
	DB	00H
	DB	0f8H
	DB	0fcH
	DB	0f8H
	DB	00H
	DB	0f8H
	DB	0fcH
	DB	0f8H
	DB	00H
	DB	0f8H
	DB	0fcH
	DB	0f8H
	DB	00H
	DB	0f8H
	DB	0fcH
	DB	0f8H
	DB	00H
	DB	0f8H
	DB	0fcH
	DB	0f8H
	DB	00H
	DB	0f8H
	DB	0fcH
	DB	0f8H
	DB	00H
	DB	0f8H
	DB	0fcH
	DB	0f8H
	DB	00H
	DB	0f8H
	DB	0fcH
	DB	0f8H
	DB	00H
	DB	0f8H
	DB	0fcH
	DB	0f8H
	DB	00H
	DB	0f8H
	DB	0fcH
	DB	0f8H
	DB	00H
	DB	0f8H
	DB	0fcH
	DB	0f8H
	DB	00H
	DB	0f8H
	DB	0fcH
	DB	0f8H
	DB	00H
	DB	0f8H
	DB	0fcH
	DB	0f8H
	DB	00H
	DB	0f8H
	DB	0fcH
	DB	0f8H
	DB	00H
	DB	0f8H
	DB	0fcH
	DB	0f8H
	DB	00H
	DB	0f8H
	DB	0fcH
	DB	0f8H
	DB	00H
	DB	0f8H
	DB	0fcH
	DB	0f8H
	DB	00H
	DB	0f8H
	DB	0fcH
	DB	0f8H
	DB	00H
	DB	0f8H
	DB	0fcH
	DB	0f8H
	DB	00H
	DB	0f8H
	DB	0fcH
	DB	0f8H
	DB	00H
	DB	0f8H
	DB	0fcH
	DB	0f8H
	DB	00H
	DB	0f8H
	DB	0fcH
	DB	0f8H
	DB	00H
	DB	0f8H
	DB	0fcH
	DB	0f8H
	DB	00H
	DB	0f8H
	DB	0fcH
	DB	0f8H
	DB	00H
	DB	0f8H
	DB	0fcH
	DB	0f8H
	DB	00H
	DB	0f8H
	DB	0fcH
	DB	0f8H
	DB	00H
	DB	0f8H
	DB	0fcH
	DB	0f8H
	DB	00H
	DB	0f8H
	DB	0fcH
	DB	0f8H
	DB	00H
	DB	0f8H
	DB	0fcH
	DB	0f8H
	DB	00H
	DB	0f8H
	DB	0fcH
	DB	0f8H
	DB	00H
	DB	0f8H
	DB	0fcH
	DB	0f8H
	DB	00H
	DB	0f8H
	DB	0fcH
	DB	0f8H
	DB	00H
	DB	0f8H
	DB	0fcH
	DB	0f8H
	DB	00H
	DB	0f8H
	DB	0fcH
	DB	0f8H
	DB	00H
	DB	0f8H
	DB	0fcH
	DB	0f8H
	DB	00H
	DB	0f8H
	DB	0fcH
	DB	0f8H
	DB	00H
	DB	0f8H
	DB	0fcH
	DB	0f8H
	DB	00H
	DB	0f8H
	DB	0fcH
	DB	0f8H
	DB	00H
	DB	0f8H
	DB	0fcH
	DB	0f8H
	DB	00H
	DB	0f8H
	DB	0fcH
	DB	0f8H
	DB	00H
	DB	0f8H
	DB	0fcH
	DB	0f8H
	DB	00H
	DB	0f8H
	DB	0fcH
	DB	0f8H
	DB	00H
	DB	0f8H
	DB	0fcH
	DB	0f8H
	DB	00H
	DB	0f8H
	DB	0fcH
	DB	0f8H
	DB	00H
	DB	0f8H
	DB	0fcH
	DB	0f8H
	DB	00H
	DB	0f8H
	DB	0fcH
	DB	0f8H
	DB	00H
	DB	0f8H
	DB	0fcH
	DB	0f8H
	DB	00H
	DB	0f8H
	DB	0fcH
	DB	0f8H
	DB	00H
	DB	0f8H
	DB	0fcH
	DB	0f8H
	DB	00H
	DB	0f8H
	DB	0fcH
	DB	0f8H
	DB	00H
	DB	0f8H
	DB	0fcH
	DB	0f8H
	DB	00H
	DB	0f8H
	DB	0fcH
	DB	0f8H
	DB	00H
	DB	0f8H
	DB	0fcH
	DB	0f8H
	DB	00H
	DB	0f8H
	DB	0fcH
	DB	0f8H
	DB	00H
	DB	0f8H
	DB	0fcH
	DB	0f8H
	DB	00H
	DB	0f8H
	DB	0fcH
	DB	0f8H
	DB	00H
	DB	0f8H
	DB	0fcH
	DB	0f8H
	DB	00H
	DB	0f8H
	DB	0fcH
	DB	0f8H
	DB	00H
	DB	0f8H
	DB	0fcH
	DB	0f8H
	DB	00H
	DB	0f8H
	DB	0fcH
	DB	0f8H
	DB	00H
	DB	0f8H
	DB	0fcH
	DB	0f8H
	DB	00H
	DB	0f8H
	DB	0fcH
	DB	0f8H
	DB	00H
	DB	0f8H
	DB	0fcH
	DB	0f8H
	DB	00H
	DB	0f8H
	DB	0fcH
	DB	0f8H
	DB	00H
	DB	0f8H
	DB	0fcH
	DB	0f8H
	DB	00H
	DB	0f8H
	DB	0fcH
	DB	0f8H
	DB	00H
	DB	0f8H
	DB	0fcH
	DB	0f8H
	DB	00H
	DB	0f8H
	DB	0fcH
	DB	0f8H
	DB	00H
	DB	0f8H
	DB	0fcH
	DB	0f8H
	DB	00H
	DB	0f8H
	DB	0fcH
	DB	0f8H
	DB	00H
	DB	0f8H
	DB	0fcH
	DB	0f8H
	DB	00H
	DB	0f8H
	DB	0fcH
	DB	0f8H
	DB	00H
	DB	0f8H
	DB	0fcH
	DB	0f8H
	DB	00H
	DB	0f8H
	DB	0fcH
	DB	0f8H
	DB	00H
	DB	0f8H
	DB	0fcH
	DB	0f8H
	DB	00H
	DB	0f8H
	DB	0fcH
	DB	0f8H
	DB	00H
	DB	0f8H
	DB	0fcH
	DB	0f8H
	DB	00H
	DB	0f8H
	DB	0fcH
	DB	0f8H
	DB	00H
	DB	0f8H
	DB	0fcH
	DB	0f8H
	DB	00H
	DB	0f8H
	DB	0fcH
	DB	0f8H
	DB	00H
	DB	0f8H
	DB	0fcH
	DB	0f8H
	DB	00H
	DB	0f8H
	DB	0fcH
	DB	0f8H
	DB	00H
	DB	0f8H
	DB	0fcH
	DB	0f8H
	DB	00H
	DB	0f8H
	DB	0fcH
	DB	0f8H
	DB	00H
	DB	0f8H
	DB	0fcH
	DB	0f8H
	DB	00H
	DB	0f8H
	DB	0fcH
	DB	0f8H
	DB	00H
	DB	0f8H
	DB	0fcH
	DB	0f8H
	DB	00H
	DB	0f8H
	DB	0fcH
	DB	0f8H
	DB	00H
	DB	0f8H
	DB	0fcH
	DB	0f8H
	DB	00H
	DB	0f8H
	DB	0fcH
	DB	0f8H
	DB	00H
	DB	0f8H
	DB	0fcH
	DB	0f8H
	DB	00H
	DB	0f8H
	DB	0fcH
	DB	0f8H
	DB	00H
	DB	0f8H
	DB	0fcH
	DB	0f8H
	DB	00H
	DB	0f8H
	DB	0fcH
	DB	0f8H
	DB	00H
	DB	0f8H
	DB	0fcH
	DB	0f8H
	DB	00H
	DB	0f8H
	DB	0fcH
	DB	0f8H
	DB	00H
	DB	0f8H
	DB	0fcH
	DB	0f8H
	DB	00H
	DB	0f8H
	DB	0fcH
	DB	0f8H
	DB	00H
	DB	0f8H
	DB	0fcH
	DB	0f8H
	DB	00H
	DB	0f8H
	DB	0fcH
	DB	0f8H
	DB	00H
	DB	0f8H
	DB	0fcH
	DB	0f8H
	DB	00H
	DB	0f8H
	DB	0fcH
	DB	0f8H
	DB	00H
	DB	0f8H
	DB	0fcH
	DB	0f8H
	DB	00H
	DB	0f8H
	DB	0fcH
	DB	0f8H
	DB	00H
	DB	0f8H
	DB	0fcH
	DB	0f8H
	DB	00H
	DB	0f8H
	DB	0fcH
	DB	0f8H
	DB	00H
	DB	0f8H
	DB	0fcH
	DB	0f8H
	DB	00H
	DB	0f8H
	DB	0fcH
	DB	0f8H
	DB	00H
	DB	0f8H
	DB	0fcH
	DB	0f8H
	DB	00H
	DB	0f8H
	DB	0fcH
	DB	0f8H
	DB	00H
	DB	0f8H
	DB	0fcH
	DB	0f8H
	DB	00H
	DB	0f8H
	DB	0fcH
	DB	0f8H
	DB	00H
	DB	0f8H
	DB	0fcH
	DB	0f8H
	DB	00H
	DB	0f8H
	DB	0fcH
	DB	0f8H
	DB	00H
	DB	0f8H
	DB	0fcH
	DB	0f8H
	DB	00H
	DB	0f8H
	DB	0fcH
	DB	0f8H
	DB	00H
	DB	0f8H
	DB	0fcH
	DB	0f8H
	DB	00H
	DB	0f8H
	DB	0fcH
	DB	0f8H
	DB	00H
	DB	0f8H
	DB	0fcH
	DB	0f8H
	DB	00H
	DB	0f8H
	DB	0fcH
	DB	0f8H
	DB	00H
	DB	0f8H
	DB	0fcH
	DB	0f8H
	DB	00H
	DB	0f8H
	DB	0fcH
	DB	0f8H
	DB	00H
	DB	0f8H
	DB	0fcH
	DB	0f8H
	DB	00H
	DB	0f8H
	DB	0fcH
	DB	0f8H
	DB	00H
	DB	0f8H
	DB	0fcH
	DB	0f8H
	DB	00H
	DB	0f8H
	DB	0fcH
	DB	0f8H
	DB	00H
	DB	0f8H
	DB	0fcH
	DB	0f8H
	DB	00H
	DB	0f8H
	DB	0fcH
	DB	0f8H
	DB	00H
	DB	0f8H
	DB	0fcH
	DB	0f8H
	DB	00H
	DB	0f8H
	DB	0fcH
	DB	0f8H
	DB	00H
	DB	0f8H
	DB	0fcH
	DB	0f8H
	DB	00H
	DB	0f8H
	DB	0fcH
	DB	0f8H
	DB	00H
	DB	0f8H
	DB	0fcH
	DB	0f8H
	DB	00H
	DB	0f8H
	DB	0fcH
	DB	0f8H
	DB	00H
	DB	0f8H
	DB	0fcH
	DB	0f8H
	DB	00H
	DB	0f8H
	DB	0fcH
	DB	0f8H
	DB	00H
	DB	0f8H
	DB	0fcH
	DB	0f8H
	DB	00H
	DB	0f8H
	DB	0fcH
	DB	0f8H
	DB	00H
	DB	0f8H
	DB	0fcH
	DB	0f8H
	DB	00H
	DB	0f8H
	DB	0fcH
	DB	0f8H
	DB	00H
	DB	0f8H
	DB	0fcH
	DB	0f8H
	DB	00H
	DB	0f8H
	DB	0fcH
	DB	0f8H
	DB	00H
	DB	0f8H
	DB	0fcH
	DB	0f8H
	DB	00H
	DB	0f8H
	DB	0fcH
	DB	0f8H
	DB	00H
	DB	0f8H
	DB	0fcH
	DB	0f8H
	DB	00H
	DB	0f8H
	DB	0fcH
	DB	0f8H
	DB	00H
	DB	0f8H
	DB	0fcH
	DB	0f8H
	DB	00H
	DB	0f8H
	DB	0fcH
	DB	0f8H
	DB	00H
	DB	0f8H
	DB	0fcH
	DB	0f8H
	DB	00H
	DB	0f8H
	DB	0fcH
	DB	0f8H
	DB	00H
	DB	0f8H
	DB	0fcH
	DB	0f8H
	DB	00H
	DB	0f8H
	DB	0fcH
	DB	0f8H
	DB	00H
	DB	0f8H
	DB	0fcH
	DB	0f8H
	DB	00H
	DB	0f8H
	DB	0fcH
	DB	0f8H
	DB	00H
	DB	0f8H
	DB	0fcH
	DB	0f8H
	DB	00H
	DB	0f8H
	DB	0fcH
	DB	0f8H
	DB	00H
	DB	0f8H
	DB	0fcH
	DB	0f8H
	DB	00H
	DB	0f8H
	DB	0fcH
	DB	0f8H
	DB	00H
	DB	0f8H
	DB	0fcH
	DB	0f8H
	DB	00H
	DB	0f8H
	DB	0fcH
	DB	0f8H
	DB	00H
	DB	0f8H
	DB	0fcH
	DB	0f8H
	DB	00H
	DB	0f8H
	DB	0fcH
	DB	0f8H
	DB	00H
	DB	0f8H
	DB	0fcH
	DB	0f8H
	DB	00H
	DB	0f8H
	DB	0fcH
	DB	0f8H
	DB	00H
	DB	0f8H
	DB	0fcH
	DB	0f8H
	DB	00H
	DB	0f8H
	DB	0fcH
	DB	0f8H
	DB	00H
	DB	0f8H
	DB	0fcH
	DB	0f8H
	DB	00H
	DB	0f8H
	DB	0fcH
	DB	0f8H
	DB	00H
	DB	0f8H
	DB	0fcH
	DB	0f8H
	DB	00H
	DB	0f8H
	DB	0fcH
	DB	0f8H
	DB	00H
	DB	0f8H
	DB	0fcH
	DB	0f8H
	DB	00H
	DB	0f8H
	DB	0fcH
	DB	0f8H
	DB	00H
	DB	0f8H
	DB	0fcH
	DB	0f8H
	DB	00H
	DB	0f8H
	DB	0fcH
	DB	0f8H
	DB	00H
	DB	0f8H
	DB	0fcH
	DB	0f8H
	DB	00H
	DB	0f8H
	DB	0fcH
	DB	0f8H
	DB	00H
	DB	0f8H
	DB	0fcH
	DB	0f8H
	DB	00H
	DB	0f8H
	DB	0fcH
	DB	0f8H
	DB	00H
	DB	0f8H
	DB	0fcH
	DB	0f8H
	DB	00H
	DB	0f8H
	DB	0fcH
	DB	0f8H
	DB	00H
	DB	0f8H
	DB	0fcH
	DB	0f8H
	DB	00H
	DB	0f8H
	DB	0fcH
	DB	0f8H
	DB	00H
	DB	0f8H
	DB	0fcH
	DB	0f8H
	DB	00H
	DB	0f8H
	DB	0fcH
	DB	0f8H
	DB	00H
	DB	0f8H
	DB	0fcH
	DB	0f8H
	DB	00H
	DB	0f8H
	DB	0fcH
	DB	0f8H
	DB	00H
	DB	0f8H
	DB	0fcH
	DB	0f8H
	DB	00H
	DB	0f8H
	DB	0fcH
	DB	0f8H
	DB	00H
	DB	0f8H
	DB	0fcH
	DB	0f8H
	DB	00H
	DB	0f8H
	DB	0fcH
	DB	0f8H
	DB	00H
	DB	0f8H
	DB	0fcH
	DB	0f8H
	DB	00H
	DB	0f8H
	DB	0fcH
	DB	0f8H
	DB	00H
	DB	0f8H
	DB	0fcH
	DB	0f8H
	DB	00H
	DB	0f8H
	DB	0fcH
	DB	0f8H
	DB	00H
	DB	0f8H
	DB	0fcH
	DB	0f8H
	DB	00H
	DB	0f8H
	DB	0fcH
	DB	0f8H
	DB	00H
	DB	0f8H
	DB	0fcH
	DB	0f8H
	DB	00H
	DB	0f8H
	DB	0fcH
	DB	0f8H
	DB	00H
	DB	0f8H
	DB	0fcH
	DB	0f8H
	DB	00H
	DB	0f8H
	DB	0fcH
	DB	0f8H
	DB	00H
	DB	0f8H
	DB	0fcH
	DB	0f8H
	DB	00H
	DB	0f8H
	DB	0fcH
	DB	0f8H
	DB	00H
	DB	0f8H
	DB	0fcH
	DB	0f8H
	DB	00H
	DB	0f8H
	DB	0fcH
	DB	0f8H
	DB	00H
	DB	0f8H
	DB	0fcH
	DB	0f8H
	DB	00H
	DB	0f8H
	DB	0fcH
	DB	0f8H
	DB	00H
	DB	0f8H
	DB	0fcH
	DB	0f8H
	DB	00H
	DB	0f8H
	DB	0fcH
	DB	0f8H
	DB	00H
	DB	0f8H
	DB	0fcH
	DB	0f8H
	DB	00H
	DB	0f8H
	DB	0fcH
	DB	0f8H
	DB	00H
	DB	0f8H
	DB	0fcH
	DB	0f8H
	DB	00H
	DB	0f8H
	DB	0fcH
	DB	0f8H
	DB	00H
	DB	0f8H
	DB	0fcH
	DB	0f8H
	DB	00H
	DB	0f8H
	DB	0fcH
	DB	0f8H
	DB	00H
	DB	0f8H
	DB	0fcH
	DB	0f8H
	DB	00H
	DB	0f8H
	DB	0fcH
	DB	0f8H
	DB	00H
	DB	0f8H
	DB	0fcH
	DB	0f8H
	DB	00H
	DB	0f8H
	DB	0fcH
	DB	0f8H
	DB	00H
	DB	0f8H
	DB	0fcH
	DB	0f8H
	DB	00H
	DB	0f8H
	DB	0fcH
	DB	0f8H
	DB	00H
	DB	0f8H
	DB	0fcH
	DB	0f8H
	DB	00H
	DB	0f8H
	DB	0fcH
	DB	0f8H
	DB	00H
	DB	0f8H
	DB	0fcH
	DB	0f8H
	DB	00H
	DB	0f8H
	DB	0fcH
	DB	0f8H
	DB	00H
	DB	0f8H
	DB	0fcH
	DB	0f8H
	DB	00H
	DB	0f8H
	DB	0fcH
	DB	0f8H
	DB	00H
	DB	0f8H
	DB	0fcH
	DB	0f8H
	DB	00H
	DB	0f8H
	DB	0fcH
	DB	0f8H
	DB	00H
	DB	0f8H
	DB	0fcH
	DB	0f8H
	DB	00H
	DB	0f8H
	DB	0fcH
	DB	0f8H
	DB	00H
	DB	0f8H
	DB	0fcH
	DB	0f8H
	DB	00H
	DB	0f8H
	DB	0fcH
	DB	0f8H
	DB	00H
	DB	0f8H
	DB	0fcH
	DB	0f8H
	DB	00H
	DB	0f8H
	DB	0fcH
	DB	0f8H
	DB	00H
	DB	0f8H
	DB	0fcH
	DB	0f8H
	DB	00H
	DB	0f8H
	DB	0fcH
	DB	0f8H
	DB	00H
	DB	0f8H
	DB	0fcH
	DB	0f8H
	DB	00H
	DB	0f8H
	DB	0fcH
	DB	0f8H
	DB	00H
	DB	0f8H
	DB	0fcH
	DB	0f8H
	DB	00H
	DB	0f8H
	DB	0fcH
	DB	0f8H
	DB	00H
	DB	0f8H
	DB	0fcH
	DB	0f8H
	DB	00H
	DB	0f8H
	DB	0fcH
	DB	0f8H
	DB	00H
	DB	0f8H
	DB	0fcH
	DB	0f8H
	DB	00H
	DB	0f8H
	DB	0fcH
	DB	0f8H
	DB	00H
	DB	0f8H
	DB	0fcH
	DB	0f8H
	DB	00H
	DB	0f8H
	DB	0fcH
	DB	0f8H
	DB	00H
	DB	0f8H
	DB	0fcH
	DB	0f8H
	DB	00H
	DB	0f8H
	DB	0fcH
	DB	0f8H
	DB	00H
	DB	0f8H
	DB	0fcH
	DB	0f8H
	DB	00H
	DB	0f8H
	DB	0fcH
	DB	0f8H
	DB	00H
	DB	0f8H
	DB	0fcH
	DB	0f8H
	DB	00H
	DB	0f8H
	DB	0fcH
	DB	0f8H
	DB	00H
	DB	0f8H
	DB	0fcH
	DB	0f8H
	DB	00H
	DB	0f8H
	DB	0fcH
	DB	0f8H
	DB	00H
	DB	0f8H
	DB	0fcH
	DB	0f8H
	DB	00H
	DB	0f8H
	DB	0fcH
	DB	0f8H
	DB	00H
	DB	0f8H
	DB	0fcH
	DB	0f8H
	DB	00H
	DB	0f8H
	DB	0fcH
	DB	0f8H
	DB	00H
	DB	0f8H
	DB	0fcH
	DB	0f8H
	DB	00H
	DB	0f8H
	DB	0fcH
	DB	0f8H
	DB	00H
	DB	0f8H
	DB	0fcH
	DB	0f8H
	DB	00H
	DB	0f8H
	DB	0fcH
	DB	0f8H
	DB	00H
	DB	0f8H
	DB	0fcH
	DB	0f8H
	DB	00H
	DB	0f8H
	DB	0fcH
	DB	0f8H
	DB	00H
	DB	0f8H
	DB	0fcH
	DB	0f8H
	DB	00H
	DB	0f8H
	DB	0fcH
	DB	0f8H
	DB	00H
	DB	0f8H
	DB	0fcH
	DB	0f8H
	DB	00H
	DB	0f8H
	DB	0fcH
	DB	0f8H
	DB	00H
	DB	0f8H
	DB	0fcH
	DB	0f8H
	DB	00H
	DB	0f8H
	DB	0fcH
	DB	0f8H
	DB	00H
	DB	0f8H
	DB	0fcH
	DB	0f8H
	DB	00H
	DB	0f8H
	DB	0fcH
	DB	0f8H
	DB	00H
	DB	0f8H
	DB	0fcH
	DB	0f8H
	DB	00H
	DB	0f8H
	DB	0fcH
	DB	0f8H
	DB	00H
	DB	0f8H
	DB	0fcH
	DB	0f8H
	DB	00H
	DB	0f8H
	DB	0fcH
	DB	0f8H
	DB	00H
	DB	0f8H
	DB	0fcH
	DB	0f8H
	DB	00H
	DB	0f8H
	DB	0fcH
	DB	0f8H
	DB	00H
	DB	0f8H
	DB	0fcH
	DB	0f8H
	DB	00H
	DB	0f8H
	DB	0fcH
	DB	0f8H
	DB	00H
	DB	0f8H
	DB	0fcH
	DB	0f8H
	DB	00H
	DB	0f8H
	DB	0fcH
	DB	0f8H
	DB	00H
	DB	0f8H
	DB	0fcH
	DB	0f8H
	DB	00H
	DB	0f8H
	DB	0fcH
	DB	0f8H
	DB	00H
	DB	0f8H
	DB	0fcH
	DB	0f8H
	DB	00H
	DB	0f8H
	DB	0fcH
	DB	0f8H
	DB	00H
	DB	0f8H
	DB	0fcH
	DB	0f8H
	DB	00H
	DB	0f8H
	DB	0fcH
	DB	0f8H
	DB	00H
	DB	0f8H
	DB	0fcH
	DB	0f8H
	DB	00H
	DB	0f8H
	DB	0fcH
	DB	0f8H
	DB	00H
	DB	0f8H
	DB	0fcH
	DB	0f8H
	DB	00H
	DB	0f8H
	DB	0fcH
	DB	0f8H
	DB	00H
	DB	0f8H
	DB	0fcH
	DB	0f8H
	DB	00H
	DB	0f8H
	DB	0fcH
	DB	0f8H
	DB	00H
	DB	0f8H
	DB	0fcH
	DB	0f8H
	DB	00H
	DB	0f8H
	DB	0fcH
	DB	0f8H
	DB	00H
	DB	0f8H
	DB	0fcH
	DB	0f8H
	DB	00H
	DB	0f8H
	DB	0fcH
	DB	0f8H
	DB	00H
	DB	0f8H
	DB	0fcH
	DB	0f8H
	DB	00H
	DB	0f8H
	DB	0fcH
	DB	0f8H
	DB	00H
	DB	0f8H
	DB	0fcH
	DB	0f8H
	DB	00H
	DB	0f8H
	DB	0fcH
	DB	0f8H
	DB	00H
	DB	0f8H
	DB	0fcH
	DB	0f8H
	DB	00H
	DB	0f8H
	DB	0fcH
	DB	0f8H
	DB	00H
	DB	0f8H
	DB	0fcH
	DB	0f8H
	DB	00H
	DB	0f8H
	DB	0fcH
	DB	0f8H
	DB	00H
	DB	0f8H
	DB	0fcH
	DB	0f8H
	DB	00H
	DB	0f8H
	DB	0fcH
	DB	0f8H
	DB	00H
	DB	0f8H
	DB	0fcH
	DB	0f8H
	DB	00H
	DB	0f8H
	DB	0fcH
	DB	0f8H
	DB	00H
	DB	0f8H
	DB	0fcH
	DB	0f8H
	DB	00H
	DB	0f8H
	DB	0fcH
	DB	0f8H
	DB	00H
	DB	0f8H
	DB	0fcH
	DB	0f8H
	DB	00H
	DB	0f8H
	DB	0fcH
	DB	0f8H
	DB	00H
	DB	0f8H
	DB	0fcH
	DB	0f8H
	DB	00H
	DB	0f8H
	DB	0fcH
	DB	0f8H
	DB	00H
	DB	0f8H
	DB	0fcH
	DB	0f8H
	DB	00H
	DB	0f8H
	DB	0fcH
	DB	0f8H
	DB	00H
	DB	0f8H
	DB	0fcH
	DB	0f8H
	DB	00H
	DB	0f8H
	DB	0fcH
	DB	0f8H
	DB	00H
	DB	0f8H
	DB	0fcH
	DB	0f8H
	DB	00H
	DB	0f8H
	DB	0fcH
	DB	0f8H
	DB	00H
	DB	0f8H
	DB	0fcH
	DB	0f8H
	DB	00H
	DB	0d0H
	DB	0b4H
	DB	070H
	DB	08H
	DB	0d0H
	DB	0b4H
	DB	070H
	DB	01cH
	DB	0d0H
	DB	0b8H
	DB	070H
	DB	02cH
	DB	0d0H
	DB	0b4H
	DB	070H
	DB	034H
	DB	0d0H
	DB	0b8H
	DB	070H
	DB	041H
	DB	0d0H
	DB	0b4H
	DB	070H
	DB	045H
	DB	0d0H
	DB	0b4H
	DB	068H
	DB	04dH
	DB	0d0H
	DB	0b0H
	DB	068H
	DB	055H
	DB	0d0H
	DB	0b4H
	DB	068H
	DB	059H
	DB	0d0H
	DB	0b4H
	DB	068H
	DB	05dH
	DB	0d0H
	DB	0b4H
	DB	068H
	DB	05dH
	DB	0d0H
	DB	0b4H
	DB	068H
	DB	05dH
	DB	0c8H
	DB	0b4H
	DB	068H
	DB	065H
	DB	0d0H
	DB	0b4H
	DB	068H
	DB	065H
	DB	0c8H
	DB	0b0H
	DB	060H
	DB	069H
	DB	0c8H
	DB	0acH
	DB	060H
	DB	069H
	DB	0d0H
	DB	0b0H
	DB	068H
	DB	069H
	DB	0d0H
	DB	0b4H
	DB	068H
	DB	069H
	DB	0c8H
	DB	0b4H
	DB	068H
	DB	069H
	DB	0d0H
	DB	0b4H
	DB	068H
	DB	069H
	DB	0d0H
	DB	0b4H
	DB	068H
	DB	061H
	DB	0d0H
	DB	0b4H
	DB	068H
	DB	061H
	DB	0c8H
	DB	0b4H
	DB	068H
	DB	061H
	DB	0c8H
	DB	0b4H
	DB	068H
	DB	059H
	DB	0d0H
	DB	0b4H
	DB	068H
	DB	055H
	DB	0d0H
	DB	0b4H
	DB	070H
	DB	051H
	DB	0d0H
	DB	0b4H
	DB	070H
	DB	049H
	DB	0d0H
	DB	0b8H
	DB	078H
	DB	041H
	DB	0d0H
	DB	0bcH
	DB	078H
	DB	034H
	DB	0d8H
	DB	0bcH
	DB	078H
	DB	028H
	DB	0d0H
	DB	0bcH
	DB	078H
	DB	014H
	DB	0f8H
	DB	0fcH
	DB	0f8H
	DB	00H
	DB	0f8H
	DB	0fcH
	DB	0f8H
	DB	00H
	DB	0f8H
	DB	0fcH
	DB	0f8H
	DB	00H
	DB	0f8H
	DB	0fcH
	DB	0f8H
	DB	00H
	DB	0f8H
	DB	0fcH
	DB	0f8H
	DB	00H
	DB	0f8H
	DB	0fcH
	DB	0f8H
	DB	00H
	DB	0f8H
	DB	0fcH
	DB	0f8H
	DB	00H
	DB	0f8H
	DB	0fcH
	DB	0f8H
	DB	00H
	DB	0f8H
	DB	0fcH
	DB	0f8H
	DB	00H
	DB	0f8H
	DB	0fcH
	DB	0f8H
	DB	00H
	DB	0f8H
	DB	0fcH
	DB	0f8H
	DB	00H
	DB	0f8H
	DB	0fcH
	DB	0f8H
	DB	00H
	DB	0f8H
	DB	0fcH
	DB	0f8H
	DB	00H
	DB	0f8H
	DB	0fcH
	DB	0f8H
	DB	00H
	DB	0f8H
	DB	0fcH
	DB	0f8H
	DB	00H
	DB	0f8H
	DB	0fcH
	DB	0f8H
	DB	00H
	DB	0f8H
	DB	0fcH
	DB	0f8H
	DB	00H
	DB	0f8H
	DB	0fcH
	DB	0f8H
	DB	00H
	DB	0f8H
	DB	0fcH
	DB	0f8H
	DB	00H
	DB	0f8H
	DB	0fcH
	DB	0f8H
	DB	00H
	DB	0f8H
	DB	0fcH
	DB	0f8H
	DB	00H
	DB	0f8H
	DB	0fcH
	DB	0f8H
	DB	00H
	DB	0f8H
	DB	0fcH
	DB	0f8H
	DB	00H
	DB	0f8H
	DB	0fcH
	DB	0f8H
	DB	00H
	DB	0f8H
	DB	0fcH
	DB	0f8H
	DB	00H
	DB	0f8H
	DB	0fcH
	DB	0f8H
	DB	00H
	DB	0f8H
	DB	0fcH
	DB	0f8H
	DB	00H
	DB	0f8H
	DB	0fcH
	DB	0f8H
	DB	00H
	DB	0f8H
	DB	0fcH
	DB	0f8H
	DB	00H
	DB	0f8H
	DB	0fcH
	DB	0f8H
	DB	00H
	DB	0f8H
	DB	0fcH
	DB	0f8H
	DB	00H
	DB	0f8H
	DB	0fcH
	DB	0f8H
	DB	00H
	DB	0f8H
	DB	0fcH
	DB	0f8H
	DB	00H
	DB	0f8H
	DB	0fcH
	DB	0f8H
	DB	00H
	DB	0f8H
	DB	0fcH
	DB	0f8H
	DB	00H
	DB	0f8H
	DB	0fcH
	DB	0f8H
	DB	00H
	DB	0f8H
	DB	0fcH
	DB	0f8H
	DB	00H
	DB	0f8H
	DB	0fcH
	DB	0f8H
	DB	00H
	DB	0f8H
	DB	0fcH
	DB	0f8H
	DB	00H
	DB	0f8H
	DB	0fcH
	DB	0f8H
	DB	00H
	DB	0f8H
	DB	0fcH
	DB	0f8H
	DB	00H
	DB	0f8H
	DB	0fcH
	DB	0f8H
	DB	00H
	DB	0f8H
	DB	0fcH
	DB	0f8H
	DB	00H
	DB	0f8H
	DB	0fcH
	DB	0f8H
	DB	00H
	DB	0f8H
	DB	0fcH
	DB	0f8H
	DB	00H
	DB	0f8H
	DB	0fcH
	DB	0f8H
	DB	00H
	DB	0f8H
	DB	0fcH
	DB	0f8H
	DB	00H
	DB	0f8H
	DB	0fcH
	DB	0f8H
	DB	00H
	DB	0f8H
	DB	0fcH
	DB	0f8H
	DB	00H
	DB	0f8H
	DB	0fcH
	DB	0f8H
	DB	00H
	DB	0f8H
	DB	0fcH
	DB	0f8H
	DB	00H
	DB	0f8H
	DB	0fcH
	DB	0f8H
	DB	00H
	DB	0f8H
	DB	0fcH
	DB	0f8H
	DB	00H
	DB	0f8H
	DB	0fcH
	DB	0f8H
	DB	00H
	DB	0f8H
	DB	0fcH
	DB	0f8H
	DB	00H
	DB	0f8H
	DB	0fcH
	DB	0f8H
	DB	00H
	DB	0f8H
	DB	0fcH
	DB	0f8H
	DB	00H
	DB	0f8H
	DB	0fcH
	DB	0f8H
	DB	00H
	DB	0f8H
	DB	0fcH
	DB	0f8H
	DB	00H
	DB	0f8H
	DB	0fcH
	DB	0f8H
	DB	00H
	DB	0f8H
	DB	0fcH
	DB	0f8H
	DB	00H
	DB	0f8H
	DB	0fcH
	DB	0f8H
	DB	00H
	DB	0f8H
	DB	0fcH
	DB	0f8H
	DB	00H
	DB	0f8H
	DB	0fcH
	DB	0f8H
	DB	00H
	DB	0f8H
	DB	0fcH
	DB	0f8H
	DB	00H
	DB	0f8H
	DB	0fcH
	DB	0f8H
	DB	00H
	DB	0f8H
	DB	0fcH
	DB	0f8H
	DB	00H
	DB	0f8H
	DB	0fcH
	DB	0f8H
	DB	00H
	DB	0f8H
	DB	0fcH
	DB	0f8H
	DB	00H
	DB	0f8H
	DB	0fcH
	DB	0f8H
	DB	00H
	DB	0f8H
	DB	0fcH
	DB	0f8H
	DB	00H
	DB	0f8H
	DB	0fcH
	DB	0f8H
	DB	00H
	DB	0f8H
	DB	0fcH
	DB	0f8H
	DB	00H
	DB	0f8H
	DB	0fcH
	DB	0f8H
	DB	00H
	DB	0f8H
	DB	0fcH
	DB	0f8H
	DB	00H
	DB	0f8H
	DB	0fcH
	DB	0f8H
	DB	00H
	DB	0f8H
	DB	0fcH
	DB	0f8H
	DB	00H
	DB	0f8H
	DB	0fcH
	DB	0f8H
	DB	00H
	DB	0f8H
	DB	0fcH
	DB	0f8H
	DB	00H
	DB	0f8H
	DB	0fcH
	DB	0f8H
	DB	00H
	DB	0f8H
	DB	0fcH
	DB	0f8H
	DB	00H
	DB	0f8H
	DB	0fcH
	DB	0f8H
	DB	00H
	DB	0f8H
	DB	0fcH
	DB	0f8H
	DB	00H
	DB	0f8H
	DB	0fcH
	DB	0f8H
	DB	00H
	DB	0f8H
	DB	0fcH
	DB	0f8H
	DB	00H
	DB	0f8H
	DB	0fcH
	DB	0f8H
	DB	00H
	DB	0f8H
	DB	0fcH
	DB	0f8H
	DB	00H
	DB	0f8H
	DB	0fcH
	DB	0f8H
	DB	00H
	DB	0f8H
	DB	0fcH
	DB	0f8H
	DB	00H
	DB	0f8H
	DB	0fcH
	DB	0f8H
	DB	00H
	DB	0f8H
	DB	0fcH
	DB	0f8H
	DB	00H
	DB	0f8H
	DB	0fcH
	DB	0f8H
	DB	00H
	DB	0f8H
	DB	0fcH
	DB	0f8H
	DB	00H
	DB	0f8H
	DB	0fcH
	DB	0f8H
	DB	00H
	DB	0f8H
	DB	0fcH
	DB	0f8H
	DB	00H
	DB	0f8H
	DB	0fcH
	DB	0f8H
	DB	00H
	DB	0f8H
	DB	0fcH
	DB	0f8H
	DB	00H
	DB	0f8H
	DB	0fcH
	DB	0f8H
	DB	00H
	DB	0f8H
	DB	0fcH
	DB	0f8H
	DB	00H
	DB	0f8H
	DB	0fcH
	DB	0f8H
	DB	00H
	DB	0f8H
	DB	0fcH
	DB	0f8H
	DB	00H
	DB	0f8H
	DB	0fcH
	DB	0f8H
	DB	00H
	DB	0f8H
	DB	0fcH
	DB	0f8H
	DB	00H
	DB	0f8H
	DB	0fcH
	DB	0f8H
	DB	00H
	DB	0f8H
	DB	0fcH
	DB	0f8H
	DB	00H
	DB	0f8H
	DB	0fcH
	DB	0f8H
	DB	00H
	DB	0f8H
	DB	0fcH
	DB	0f8H
	DB	00H
	DB	0f8H
	DB	0fcH
	DB	0f8H
	DB	00H
	DB	0f8H
	DB	0fcH
	DB	0f8H
	DB	00H
	DB	0f8H
	DB	0fcH
	DB	0f8H
	DB	00H
	DB	0f8H
	DB	0fcH
	DB	0f8H
	DB	00H
	DB	0f8H
	DB	0fcH
	DB	0f8H
	DB	00H
	DB	0f8H
	DB	0fcH
	DB	0f8H
	DB	00H
	DB	0f8H
	DB	0fcH
	DB	0f8H
	DB	00H
	DB	0f8H
	DB	0fcH
	DB	0f8H
	DB	00H
	DB	0f8H
	DB	0fcH
	DB	0f8H
	DB	00H
	DB	0f8H
	DB	0fcH
	DB	0f8H
	DB	00H
	DB	0f8H
	DB	0fcH
	DB	0f8H
	DB	00H
	DB	0f8H
	DB	0fcH
	DB	0f8H
	DB	00H
	DB	0f8H
	DB	0fcH
	DB	0f8H
	DB	00H
	DB	0f8H
	DB	0fcH
	DB	0f8H
	DB	00H
	DB	0f8H
	DB	0fcH
	DB	0f8H
	DB	00H
	DB	0f8H
	DB	0fcH
	DB	0f8H
	DB	00H
	DB	0f8H
	DB	0fcH
	DB	0f8H
	DB	00H
	DB	0f8H
	DB	0fcH
	DB	0f8H
	DB	00H
	DB	0f8H
	DB	0fcH
	DB	0f8H
	DB	00H
	DB	0f8H
	DB	0fcH
	DB	0f8H
	DB	00H
	DB	0f8H
	DB	0fcH
	DB	0f8H
	DB	00H
	DB	0f8H
	DB	0fcH
	DB	0f8H
	DB	00H
	DB	0f8H
	DB	0fcH
	DB	0f8H
	DB	00H
	DB	0f8H
	DB	0fcH
	DB	0f8H
	DB	00H
	DB	0f8H
	DB	0fcH
	DB	0f8H
	DB	00H
	DB	0f8H
	DB	0fcH
	DB	0f8H
	DB	00H
	DB	0f8H
	DB	0fcH
	DB	0f8H
	DB	00H
	DB	0f8H
	DB	0fcH
	DB	0f8H
	DB	00H
	DB	0f8H
	DB	0fcH
	DB	0f8H
	DB	00H
	DB	0f8H
	DB	0fcH
	DB	0f8H
	DB	00H
	DB	0f8H
	DB	0fcH
	DB	0f8H
	DB	00H
	DB	0f8H
	DB	0fcH
	DB	0f8H
	DB	00H
	DB	0f8H
	DB	0fcH
	DB	0f8H
	DB	00H
	DB	0f8H
	DB	0fcH
	DB	0f8H
	DB	00H
	DB	0f8H
	DB	0fcH
	DB	0f8H
	DB	00H
	DB	0f8H
	DB	0fcH
	DB	0f8H
	DB	00H
	DB	0f8H
	DB	0fcH
	DB	0f8H
	DB	00H
	DB	0f8H
	DB	0fcH
	DB	0f8H
	DB	00H
	DB	0f8H
	DB	0fcH
	DB	0f8H
	DB	00H
	DB	0f8H
	DB	0fcH
	DB	0f8H
	DB	00H
	DB	0f8H
	DB	0fcH
	DB	0f8H
	DB	00H
	DB	0f8H
	DB	0fcH
	DB	0f8H
	DB	00H
	DB	0f8H
	DB	0fcH
	DB	0f8H
	DB	00H
	DB	0f8H
	DB	0fcH
	DB	0f8H
	DB	00H
	DB	0f8H
	DB	0fcH
	DB	0f8H
	DB	00H
	DB	0f8H
	DB	0fcH
	DB	0f8H
	DB	00H
	DB	0f8H
	DB	0fcH
	DB	0f8H
	DB	00H
	DB	0f8H
	DB	0fcH
	DB	0f8H
	DB	00H
	DB	0f8H
	DB	0fcH
	DB	0f8H
	DB	00H
	DB	0f8H
	DB	0fcH
	DB	0f8H
	DB	00H
	DB	0f8H
	DB	0fcH
	DB	0f8H
	DB	00H
	DB	0f8H
	DB	0fcH
	DB	0f8H
	DB	00H
	DB	0f8H
	DB	0fcH
	DB	0f8H
	DB	00H
	DB	0f8H
	DB	0fcH
	DB	0f8H
	DB	00H
	DB	0f8H
	DB	0fcH
	DB	0f8H
	DB	00H
	DB	0f8H
	DB	0fcH
	DB	0f8H
	DB	00H
	DB	0f8H
	DB	0fcH
	DB	0f8H
	DB	00H
	DB	0f8H
	DB	0fcH
	DB	0f8H
	DB	00H
	DB	0f8H
	DB	0fcH
	DB	0f8H
	DB	00H
	DB	0f8H
	DB	0fcH
	DB	0f8H
	DB	00H
	DB	0f8H
	DB	0fcH
	DB	0f8H
	DB	00H
	DB	0f8H
	DB	0fcH
	DB	0f8H
	DB	00H
	DB	0f8H
	DB	0fcH
	DB	0f8H
	DB	00H
	DB	0f8H
	DB	0fcH
	DB	0f8H
	DB	00H
	DB	0f8H
	DB	0fcH
	DB	0f8H
	DB	00H
	DB	0f8H
	DB	0fcH
	DB	0f8H
	DB	00H
	DB	0f8H
	DB	0fcH
	DB	0f8H
	DB	00H
	DB	0f8H
	DB	0fcH
	DB	0f8H
	DB	00H
	DB	0f8H
	DB	0fcH
	DB	0f8H
	DB	00H
	DB	0f8H
	DB	0fcH
	DB	0f8H
	DB	00H
	DB	0f8H
	DB	0fcH
	DB	0f8H
	DB	00H
	DB	0f8H
	DB	0fcH
	DB	0f8H
	DB	00H
	DB	0f8H
	DB	0fcH
	DB	0f8H
	DB	00H
	DB	0f8H
	DB	0fcH
	DB	0f8H
	DB	00H
	DB	0f8H
	DB	0fcH
	DB	0f8H
	DB	00H
	DB	0f8H
	DB	0fcH
	DB	0f8H
	DB	00H
	DB	0f8H
	DB	0fcH
	DB	0f8H
	DB	00H
	DB	0f8H
	DB	0fcH
	DB	0f8H
	DB	00H
	DB	0f8H
	DB	0fcH
	DB	0f8H
	DB	00H
	DB	0f8H
	DB	0fcH
	DB	0f8H
	DB	00H
	DB	0f8H
	DB	0fcH
	DB	0f8H
	DB	00H
	DB	0f8H
	DB	0fcH
	DB	0f8H
	DB	00H
	DB	0f8H
	DB	0fcH
	DB	0f8H
	DB	00H
	DB	0f8H
	DB	0fcH
	DB	0f8H
	DB	00H
	DB	0f8H
	DB	0fcH
	DB	0f8H
	DB	00H
	DB	0f8H
	DB	0fcH
	DB	0f8H
	DB	00H
	DB	0f8H
	DB	0fcH
	DB	0f8H
	DB	00H
	DB	0f8H
	DB	0fcH
	DB	0f8H
	DB	00H
	DB	0f8H
	DB	0fcH
	DB	0f8H
	DB	00H
	DB	0f8H
	DB	0fcH
	DB	0f8H
	DB	00H
	DB	0f8H
	DB	0fcH
	DB	0f8H
	DB	00H
	DB	0f8H
	DB	0fcH
	DB	0f8H
	DB	00H
	DB	0f8H
	DB	0fcH
	DB	0f8H
	DB	00H
	DB	0f8H
	DB	0fcH
	DB	0f8H
	DB	00H
	DB	0f8H
	DB	0fcH
	DB	0f8H
	DB	00H
	DB	0f8H
	DB	0fcH
	DB	0f8H
	DB	00H
	DB	0f8H
	DB	0fcH
	DB	0f8H
	DB	00H
	DB	0f8H
	DB	0fcH
	DB	0f8H
	DB	00H
	DB	0f8H
	DB	0fcH
	DB	0f8H
	DB	00H
	DB	0f8H
	DB	0fcH
	DB	0f8H
	DB	00H
	DB	0f8H
	DB	0fcH
	DB	0f8H
	DB	00H
	DB	0f8H
	DB	0fcH
	DB	0f8H
	DB	00H
	DB	0f8H
	DB	0fcH
	DB	0f8H
	DB	00H
	DB	0f8H
	DB	0fcH
	DB	0f8H
	DB	00H
	DB	0f8H
	DB	0fcH
	DB	0f8H
	DB	00H
	DB	0f8H
	DB	0fcH
	DB	0f8H
	DB	00H
	DB	0f8H
	DB	0fcH
	DB	0f8H
	DB	00H
	DB	0f8H
	DB	0fcH
	DB	0f8H
	DB	00H
	DB	0f8H
	DB	0fcH
	DB	0f8H
	DB	00H
	DB	0f8H
	DB	0fcH
	DB	0f8H
	DB	00H
	DB	0f8H
	DB	0fcH
	DB	0f8H
	DB	00H
	DB	0f8H
	DB	0fcH
	DB	0f8H
	DB	00H
	DB	0f8H
	DB	0fcH
	DB	0f8H
	DB	00H
	DB	0f8H
	DB	0fcH
	DB	0f8H
	DB	00H
	DB	0f8H
	DB	0fcH
	DB	0f8H
	DB	00H
	DB	0f8H
	DB	0fcH
	DB	0f8H
	DB	00H
	DB	0f8H
	DB	0fcH
	DB	0f8H
	DB	00H
	DB	0c8H
	DB	0b0H
	DB	068H
	DB	010H
	DB	0c8H
	DB	0b0H
	DB	068H
	DB	028H
	DB	0d0H
	DB	0b0H
	DB	068H
	DB	041H
	DB	0d0H
	DB	0b4H
	DB	068H
	DB	04dH
	DB	0d0H
	DB	0b4H
	DB	068H
	DB	05dH
	DB	0d0H
	DB	0b4H
	DB	068H
	DB	069H
	DB	0d0H
	DB	0b4H
	DB	068H
	DB	06dH
	DB	0d0H
	DB	0b4H
	DB	068H
	DB	071H
	DB	0d0H
	DB	0b4H
	DB	068H
	DB	079H
	DB	0d0H
	DB	0b4H
	DB	068H
	DB	07dH
	DB	0d0H
	DB	0b4H
	DB	068H
	DB	082H
	DB	0d0H
	DB	0b8H
	DB	068H
	DB	082H
	DB	0d0H
	DB	0b8H
	DB	068H
	DB	082H
	DB	0d0H
	DB	0b8H
	DB	070H
	DB	082H
	DB	0d0H
	DB	0b8H
	DB	070H
	DB	082H
	DB	0d8H
	DB	0b8H
	DB	070H
	DB	082H
	DB	0d0H
	DB	0bcH
	DB	070H
	DB	082H
	DB	0d0H
	DB	0bcH
	DB	070H
	DB	086H
	DB	0d0H
	DB	0bcH
	DB	070H
	DB	082H
	DB	0d0H
	DB	0b8H
	DB	068H
	DB	086H
	DB	0c8H
	DB	0b0H
	DB	060H
	DB	086H
	DB	0c8H
	DB	0b4H
	DB	060H
	DB	086H
	DB	0d0H
	DB	0b4H
	DB	068H
	DB	086H
	DB	0d0H
	DB	0b4H
	DB	068H
	DB	086H
	DB	0d0H
	DB	0b8H
	DB	068H
	DB	086H
	DB	0d0H
	DB	0b8H
	DB	068H
	DB	086H
	DB	0d0H
	DB	0b8H
	DB	068H
	DB	086H
	DB	0d0H
	DB	0b4H
	DB	068H
	DB	086H
	DB	0d0H
	DB	0b4H
	DB	068H
	DB	08aH
	DB	0d0H
	DB	0b8H
	DB	068H
	DB	08aH
	DB	0d0H
	DB	0b4H
	DB	068H
	DB	08aH
	DB	0d0H
	DB	0b4H
	DB	068H
	DB	08aH
	DB	0d0H
	DB	0b8H
	DB	068H
	DB	08aH
	DB	0d0H
	DB	0b8H
	DB	068H
	DB	08aH
	DB	0d0H
	DB	0b4H
	DB	060H
	DB	08aH
	DB	0d0H
	DB	0b8H
	DB	068H
	DB	08eH
	DB	0d0H
	DB	0bcH
	DB	070H
	DB	08eH
	DB	0d8H
	DB	0c0H
	DB	078H
	DB	08eH
	DB	0d8H
	DB	0c0H
	DB	078H
	DB	08eH
	DB	0d8H
	DB	0c0H
	DB	078H
	DB	08eH
	DB	0d8H
	DB	0c0H
	DB	078H
	DB	08eH
	DB	0d8H
	DB	0c0H
	DB	078H
	DB	08eH
	DB	0d8H
	DB	0c0H
	DB	078H
	DB	08aH
	DB	0d8H
	DB	0c0H
	DB	078H
	DB	086H
	DB	0d8H
	DB	0bcH
	DB	078H
	DB	086H
	DB	0d8H
	DB	0bcH
	DB	070H
	DB	07dH
	DB	0d0H
	DB	0b8H
	DB	070H
	DB	079H
	DB	0d0H
	DB	0b8H
	DB	070H
	DB	06dH
	DB	0d0H
	DB	0b8H
	DB	070H
	DB	065H
	DB	0d0H
	DB	0b4H
	DB	070H
	DB	055H
	DB	0d0H
	DB	0b4H
	DB	070H
	DB	041H
	DB	0d0H
	DB	0b4H
	DB	070H
	DB	024H
	DB	0d0H
	DB	0b4H
	DB	070H
	DB	04H
	DB	0f8H
	DB	0fcH
	DB	0f8H
	DB	00H
	DB	0f8H
	DB	0fcH
	DB	0f8H
	DB	00H
	DB	0f8H
	DB	0fcH
	DB	0f8H
	DB	00H
	DB	0f8H
	DB	0fcH
	DB	0f8H
	DB	00H
	DB	0f8H
	DB	0fcH
	DB	0f8H
	DB	00H
	DB	0f8H
	DB	0fcH
	DB	0f8H
	DB	00H
	DB	0f8H
	DB	0fcH
	DB	0f8H
	DB	00H
	DB	0f8H
	DB	0fcH
	DB	0f8H
	DB	00H
	DB	0f8H
	DB	0fcH
	DB	0f8H
	DB	00H
	DB	0f8H
	DB	0fcH
	DB	0f8H
	DB	00H
	DB	0f8H
	DB	0fcH
	DB	0f8H
	DB	00H
	DB	0f8H
	DB	0fcH
	DB	0f8H
	DB	00H
	DB	0f8H
	DB	0fcH
	DB	0f8H
	DB	00H
	DB	0f8H
	DB	0fcH
	DB	0f8H
	DB	00H
	DB	0f8H
	DB	0fcH
	DB	0f8H
	DB	00H
	DB	0f8H
	DB	0fcH
	DB	0f8H
	DB	00H
	DB	0f8H
	DB	0fcH
	DB	0f8H
	DB	00H
	DB	0f8H
	DB	0fcH
	DB	0f8H
	DB	00H
	DB	0f8H
	DB	0fcH
	DB	0f8H
	DB	00H
	DB	0f8H
	DB	0fcH
	DB	0f8H
	DB	00H
	DB	0f8H
	DB	0fcH
	DB	0f8H
	DB	00H
	DB	0f8H
	DB	0fcH
	DB	0f8H
	DB	00H
	DB	0f8H
	DB	0fcH
	DB	0f8H
	DB	00H
	DB	0f8H
	DB	0fcH
	DB	0f8H
	DB	00H
	DB	0f8H
	DB	0fcH
	DB	0f8H
	DB	00H
	DB	0f8H
	DB	0fcH
	DB	0f8H
	DB	00H
	DB	0f8H
	DB	0fcH
	DB	0f8H
	DB	00H
	DB	0f8H
	DB	0fcH
	DB	0f8H
	DB	00H
	DB	0f8H
	DB	0fcH
	DB	0f8H
	DB	00H
	DB	0f8H
	DB	0fcH
	DB	0f8H
	DB	00H
	DB	0f8H
	DB	0fcH
	DB	0f8H
	DB	00H
	DB	0f8H
	DB	0fcH
	DB	0f8H
	DB	00H
	DB	0f8H
	DB	0fcH
	DB	0f8H
	DB	00H
	DB	0f8H
	DB	0fcH
	DB	0f8H
	DB	00H
	DB	0f8H
	DB	0fcH
	DB	0f8H
	DB	00H
	DB	0f8H
	DB	0fcH
	DB	0f8H
	DB	00H
	DB	0f8H
	DB	0fcH
	DB	0f8H
	DB	00H
	DB	0f8H
	DB	0fcH
	DB	0f8H
	DB	00H
	DB	0f8H
	DB	0fcH
	DB	0f8H
	DB	00H
	DB	0f8H
	DB	0fcH
	DB	0f8H
	DB	00H
	DB	0f8H
	DB	0fcH
	DB	0f8H
	DB	00H
	DB	0f8H
	DB	0fcH
	DB	0f8H
	DB	00H
	DB	0f8H
	DB	0fcH
	DB	0f8H
	DB	00H
	DB	0f8H
	DB	0fcH
	DB	0f8H
	DB	00H
	DB	0f8H
	DB	0fcH
	DB	0f8H
	DB	00H
	DB	0f8H
	DB	0fcH
	DB	0f8H
	DB	00H
	DB	0f8H
	DB	0fcH
	DB	0f8H
	DB	00H
	DB	0f8H
	DB	0fcH
	DB	0f8H
	DB	00H
	DB	0f8H
	DB	0fcH
	DB	0f8H
	DB	00H
	DB	0f8H
	DB	0fcH
	DB	0f8H
	DB	00H
	DB	0f8H
	DB	0fcH
	DB	0f8H
	DB	00H
	DB	0f8H
	DB	0fcH
	DB	0f8H
	DB	00H
	DB	0f8H
	DB	0fcH
	DB	0f8H
	DB	00H
	DB	0f8H
	DB	0fcH
	DB	0f8H
	DB	00H
	DB	0f8H
	DB	0fcH
	DB	0f8H
	DB	00H
	DB	0f8H
	DB	0fcH
	DB	0f8H
	DB	00H
	DB	0f8H
	DB	0fcH
	DB	0f8H
	DB	00H
	DB	0f8H
	DB	0fcH
	DB	0f8H
	DB	00H
	DB	0f8H
	DB	0fcH
	DB	0f8H
	DB	00H
	DB	0f8H
	DB	0fcH
	DB	0f8H
	DB	00H
	DB	0f8H
	DB	0fcH
	DB	0f8H
	DB	00H
	DB	0f8H
	DB	0fcH
	DB	0f8H
	DB	00H
	DB	0f8H
	DB	0fcH
	DB	0f8H
	DB	00H
	DB	0f8H
	DB	0fcH
	DB	0f8H
	DB	00H
	DB	0f8H
	DB	0fcH
	DB	0f8H
	DB	00H
	DB	0f8H
	DB	0fcH
	DB	0f8H
	DB	00H
	DB	0f8H
	DB	0fcH
	DB	0f8H
	DB	00H
	DB	0f8H
	DB	0fcH
	DB	0f8H
	DB	00H
	DB	0f8H
	DB	0fcH
	DB	0f8H
	DB	00H
	DB	0f8H
	DB	0fcH
	DB	0f8H
	DB	00H
	DB	0f8H
	DB	0fcH
	DB	0f8H
	DB	00H
	DB	0f8H
	DB	0fcH
	DB	0f8H
	DB	00H
	DB	0f8H
	DB	0fcH
	DB	0f8H
	DB	00H
	DB	0f8H
	DB	0fcH
	DB	0f8H
	DB	00H
	DB	0f8H
	DB	0fcH
	DB	0f8H
	DB	00H
	DB	0f8H
	DB	0fcH
	DB	0f8H
	DB	00H
	DB	0f8H
	DB	0fcH
	DB	0f8H
	DB	00H
	DB	0f8H
	DB	0fcH
	DB	0f8H
	DB	00H
	DB	0f8H
	DB	0fcH
	DB	0f8H
	DB	00H
	DB	0f8H
	DB	0fcH
	DB	0f8H
	DB	00H
	DB	0f8H
	DB	0fcH
	DB	0f8H
	DB	00H
	DB	0f8H
	DB	0fcH
	DB	0f8H
	DB	00H
	DB	0f8H
	DB	0fcH
	DB	0f8H
	DB	00H
	DB	0f8H
	DB	0fcH
	DB	0f8H
	DB	00H
	DB	0f8H
	DB	0fcH
	DB	0f8H
	DB	00H
	DB	0f8H
	DB	0fcH
	DB	0f8H
	DB	00H
	DB	0f8H
	DB	0fcH
	DB	0f8H
	DB	00H
	DB	0f8H
	DB	0fcH
	DB	0f8H
	DB	00H
	DB	0f8H
	DB	0fcH
	DB	0f8H
	DB	00H
	DB	0f8H
	DB	0fcH
	DB	0f8H
	DB	00H
	DB	0f8H
	DB	0fcH
	DB	0f8H
	DB	00H
	DB	0f8H
	DB	0fcH
	DB	0f8H
	DB	00H
	DB	0f8H
	DB	0fcH
	DB	0f8H
	DB	00H
	DB	0f8H
	DB	0fcH
	DB	0f8H
	DB	00H
	DB	0f8H
	DB	0fcH
	DB	0f8H
	DB	00H
	DB	0f8H
	DB	0fcH
	DB	0f8H
	DB	00H
	DB	0f8H
	DB	0fcH
	DB	0f8H
	DB	00H
	DB	0f8H
	DB	0fcH
	DB	0f8H
	DB	00H
	DB	0f8H
	DB	0fcH
	DB	0f8H
	DB	00H
	DB	0f8H
	DB	0fcH
	DB	0f8H
	DB	00H
	DB	0f8H
	DB	0fcH
	DB	0f8H
	DB	00H
	DB	0f8H
	DB	0fcH
	DB	0f8H
	DB	00H
	DB	0f8H
	DB	0fcH
	DB	0f8H
	DB	00H
	DB	0f8H
	DB	0fcH
	DB	0f8H
	DB	00H
	DB	0f8H
	DB	0fcH
	DB	0f8H
	DB	00H
	DB	0f8H
	DB	0fcH
	DB	0f8H
	DB	00H
	DB	0f8H
	DB	0fcH
	DB	0f8H
	DB	00H
	DB	0f8H
	DB	0fcH
	DB	0f8H
	DB	00H
	DB	0f8H
	DB	0fcH
	DB	0f8H
	DB	00H
	DB	0f8H
	DB	0fcH
	DB	0f8H
	DB	00H
	DB	0f8H
	DB	0fcH
	DB	0f8H
	DB	00H
	DB	0f8H
	DB	0fcH
	DB	0f8H
	DB	00H
	DB	0f8H
	DB	0fcH
	DB	0f8H
	DB	00H
	DB	0f8H
	DB	0fcH
	DB	0f8H
	DB	00H
	DB	0f8H
	DB	0fcH
	DB	0f8H
	DB	00H
	DB	0f8H
	DB	0fcH
	DB	0f8H
	DB	00H
	DB	0f8H
	DB	0fcH
	DB	0f8H
	DB	00H
	DB	0f8H
	DB	0fcH
	DB	0f8H
	DB	00H
	DB	0f8H
	DB	0fcH
	DB	0f8H
	DB	00H
	DB	0f8H
	DB	0fcH
	DB	0f8H
	DB	00H
	DB	0f8H
	DB	0fcH
	DB	0f8H
	DB	00H
	DB	0f8H
	DB	0fcH
	DB	0f8H
	DB	00H
	DB	0f8H
	DB	0fcH
	DB	0f8H
	DB	00H
	DB	0f8H
	DB	0fcH
	DB	0f8H
	DB	00H
	DB	0f8H
	DB	0fcH
	DB	0f8H
	DB	00H
	DB	0f8H
	DB	0fcH
	DB	0f8H
	DB	00H
	DB	0f8H
	DB	0fcH
	DB	0f8H
	DB	00H
	DB	0f8H
	DB	0fcH
	DB	0f8H
	DB	00H
	DB	0f8H
	DB	0fcH
	DB	0f8H
	DB	00H
	DB	0f8H
	DB	0fcH
	DB	0f8H
	DB	00H
	DB	0f8H
	DB	0fcH
	DB	0f8H
	DB	00H
	DB	0f8H
	DB	0fcH
	DB	0f8H
	DB	00H
	DB	0f8H
	DB	0fcH
	DB	0f8H
	DB	00H
	DB	0f8H
	DB	0fcH
	DB	0f8H
	DB	00H
	DB	0f8H
	DB	0fcH
	DB	0f8H
	DB	00H
	DB	0f8H
	DB	0fcH
	DB	0f8H
	DB	00H
	DB	0f8H
	DB	0fcH
	DB	0f8H
	DB	00H
	DB	0f8H
	DB	0fcH
	DB	0f8H
	DB	00H
	DB	0f8H
	DB	0fcH
	DB	0f8H
	DB	00H
	DB	0f8H
	DB	0fcH
	DB	0f8H
	DB	00H
	DB	0f8H
	DB	0fcH
	DB	0f8H
	DB	00H
	DB	0f8H
	DB	0fcH
	DB	0f8H
	DB	00H
	DB	0f8H
	DB	0fcH
	DB	0f8H
	DB	00H
	DB	0f8H
	DB	0fcH
	DB	0f8H
	DB	00H
	DB	0f8H
	DB	0fcH
	DB	0f8H
	DB	00H
	DB	0f8H
	DB	0fcH
	DB	0f8H
	DB	00H
	DB	0f8H
	DB	0fcH
	DB	0f8H
	DB	00H
	DB	0f8H
	DB	0fcH
	DB	0f8H
	DB	00H
	DB	0f8H
	DB	0fcH
	DB	0f8H
	DB	00H
	DB	0f8H
	DB	0fcH
	DB	0f8H
	DB	00H
	DB	0f8H
	DB	0fcH
	DB	0f8H
	DB	00H
	DB	0f8H
	DB	0fcH
	DB	0f8H
	DB	00H
	DB	0f8H
	DB	0fcH
	DB	0f8H
	DB	00H
	DB	0f8H
	DB	0fcH
	DB	0f8H
	DB	00H
	DB	0f8H
	DB	0fcH
	DB	0f8H
	DB	00H
	DB	0f8H
	DB	0fcH
	DB	0f8H
	DB	00H
	DB	0f8H
	DB	0fcH
	DB	0f8H
	DB	00H
	DB	0f8H
	DB	0fcH
	DB	0f8H
	DB	00H
	DB	0f8H
	DB	0fcH
	DB	0f8H
	DB	00H
	DB	0f8H
	DB	0fcH
	DB	0f8H
	DB	00H
	DB	0f8H
	DB	0fcH
	DB	0f8H
	DB	00H
	DB	0f8H
	DB	0fcH
	DB	0f8H
	DB	00H
	DB	0f8H
	DB	0fcH
	DB	0f8H
	DB	00H
	DB	0f8H
	DB	0fcH
	DB	0f8H
	DB	00H
	DB	0f8H
	DB	0fcH
	DB	0f8H
	DB	00H
	DB	0f8H
	DB	0fcH
	DB	0f8H
	DB	00H
	DB	0f8H
	DB	0fcH
	DB	0f8H
	DB	00H
	DB	0f8H
	DB	0fcH
	DB	0f8H
	DB	00H
	DB	0f8H
	DB	0fcH
	DB	0f8H
	DB	00H
	DB	0f8H
	DB	0fcH
	DB	0f8H
	DB	00H
	DB	0f8H
	DB	0fcH
	DB	0f8H
	DB	00H
	DB	0f8H
	DB	0fcH
	DB	0f8H
	DB	00H
	DB	0f8H
	DB	0fcH
	DB	0f8H
	DB	00H
	DB	0f8H
	DB	0fcH
	DB	0f8H
	DB	00H
	DB	0f8H
	DB	0fcH
	DB	0f8H
	DB	00H
	DB	0f8H
	DB	0fcH
	DB	0f8H
	DB	00H
	DB	0f8H
	DB	0fcH
	DB	0f8H
	DB	00H
	DB	0f8H
	DB	0fcH
	DB	0f8H
	DB	00H
	DB	0f8H
	DB	0fcH
	DB	0f8H
	DB	00H
	DB	0f8H
	DB	0fcH
	DB	0f8H
	DB	00H
	DB	0f8H
	DB	0fcH
	DB	0f8H
	DB	00H
	DB	0f8H
	DB	0fcH
	DB	0f8H
	DB	00H
	DB	0f8H
	DB	0fcH
	DB	0f8H
	DB	00H
	DB	0f8H
	DB	0fcH
	DB	0f8H
	DB	00H
	DB	0f8H
	DB	0fcH
	DB	0f8H
	DB	00H
	DB	0f8H
	DB	0fcH
	DB	0f8H
	DB	00H
	DB	0f8H
	DB	0fcH
	DB	0f8H
	DB	00H
	DB	0f8H
	DB	0fcH
	DB	0f8H
	DB	00H
	DB	0f8H
	DB	0fcH
	DB	0f8H
	DB	00H
	DB	0f8H
	DB	0fcH
	DB	0f8H
	DB	00H
	DB	0f8H
	DB	0fcH
	DB	0f8H
	DB	00H
	DB	0f8H
	DB	0fcH
	DB	0f8H
	DB	00H
	DB	0f8H
	DB	0fcH
	DB	0f8H
	DB	00H
	DB	0f8H
	DB	0fcH
	DB	0f8H
	DB	00H
	DB	0f8H
	DB	0fcH
	DB	0f8H
	DB	00H
	DB	0f8H
	DB	0fcH
	DB	0f8H
	DB	00H
	DB	0f8H
	DB	0fcH
	DB	0f8H
	DB	00H
	DB	0f8H
	DB	0fcH
	DB	0f8H
	DB	00H
	DB	0f8H
	DB	0fcH
	DB	0f8H
	DB	00H
	DB	0f8H
	DB	0fcH
	DB	0f8H
	DB	00H
	DB	0f8H
	DB	0fcH
	DB	0f8H
	DB	00H
	DB	0f8H
	DB	0fcH
	DB	0f8H
	DB	00H
	DB	0f8H
	DB	0fcH
	DB	0f8H
	DB	00H
	DB	0f8H
	DB	0fcH
	DB	0f8H
	DB	00H
	DB	0f8H
	DB	0fcH
	DB	0f8H
	DB	00H
	DB	0c8H
	DB	0acH
	DB	068H
	DB	08H
	DB	0c8H
	DB	0b0H
	DB	068H
	DB	02cH
	DB	0d0H
	DB	0b0H
	DB	068H
	DB	045H
	DB	0d0H
	DB	0b0H
	DB	068H
	DB	055H
	DB	0c8H
	DB	0b0H
	DB	060H
	DB	065H
	DB	0c8H
	DB	0b0H
	DB	060H
	DB	071H
	DB	0d0H
	DB	0b0H
	DB	060H
	DB	079H
	DB	0c8H
	DB	0b0H
	DB	060H
	DB	07dH
	DB	0d0H
	DB	0b0H
	DB	060H
	DB	07dH
	DB	0c8H
	DB	0b0H
	DB	060H
	DB	07dH
	DB	0c8H
	DB	0b0H
	DB	060H
	DB	07dH
	DB	0c8H
	DB	0b0H
	DB	060H
	DB	07dH
	DB	0d0H
	DB	0b4H
	DB	060H
	DB	07dH
	DB	0c8H
	DB	0b0H
	DB	060H
	DB	07dH
	DB	0c8H
	DB	0b0H
	DB	060H
	DB	082H
	DB	0d0H
	DB	0b4H
	DB	068H
	DB	07dH
	DB	0d0H
	DB	0b8H
	DB	068H
	DB	082H
	DB	0d0H
	DB	0b8H
	DB	068H
	DB	082H
	DB	0d0H
	DB	0b8H
	DB	068H
	DB	082H
	DB	0d8H
	DB	0b8H
	DB	070H
	DB	082H
	DB	0d0H
	DB	0b8H
	DB	068H
	DB	082H
	DB	0d0H
	DB	0b8H
	DB	070H
	DB	082H
	DB	0d8H
	DB	0bcH
	DB	070H
	DB	082H
	DB	0d8H
	DB	0b8H
	DB	068H
	DB	082H
	DB	0d0H
	DB	0b8H
	DB	068H
	DB	086H
	DB	0d0H
	DB	0b8H
	DB	068H
	DB	086H
	DB	0d0H
	DB	0b8H
	DB	068H
	DB	082H
	DB	0d0H
	DB	0b4H
	DB	068H
	DB	086H
	DB	0d0H
	DB	0b8H
	DB	068H
	DB	086H
	DB	0d0H
	DB	0b8H
	DB	068H
	DB	086H
	DB	0d0H
	DB	0b8H
	DB	068H
	DB	086H
	DB	0d0H
	DB	0b8H
	DB	068H
	DB	086H
	DB	0d0H
	DB	0b8H
	DB	068H
	DB	086H
	DB	0d8H
	DB	0bcH
	DB	070H
	DB	08aH
	DB	0d8H
	DB	0c0H
	DB	078H
	DB	086H
	DB	0d0H
	DB	0b8H
	DB	070H
	DB	08aH
	DB	0d0H
	DB	0b8H
	DB	070H
	DB	08aH
	DB	0d0H
	DB	0b8H
	DB	070H
	DB	08aH
	DB	0d8H
	DB	0bcH
	DB	070H
	DB	08aH
	DB	0d0H
	DB	0bcH
	DB	070H
	DB	08aH
	DB	0d0H
	DB	0b8H
	DB	068H
	DB	08aH
	DB	0d0H
	DB	0b4H
	DB	068H
	DB	08aH
	DB	0d0H
	DB	0bcH
	DB	070H
	DB	08eH
	DB	0d8H
	DB	0c0H
	DB	078H
	DB	08aH
	DB	0d8H
	DB	0c0H
	DB	078H
	DB	08eH
	DB	0d8H
	DB	0c4H
	DB	078H
	DB	08eH
	DB	0d8H
	DB	0c4H
	DB	078H
	DB	08eH
	DB	0d8H
	DB	0c0H
	DB	078H
	DB	08eH
	DB	0d8H
	DB	0c0H
	DB	078H
	DB	08eH
	DB	0d8H
	DB	0c0H
	DB	078H
	DB	08eH
	DB	0d8H
	DB	0c0H
	DB	078H
	DB	08eH
	DB	0d8H
	DB	0c0H
	DB	078H
	DB	092H
	DB	0d8H
	DB	0c0H
	DB	078H
	DB	08eH
	DB	0d8H
	DB	0c0H
	DB	078H
	DB	08eH
	DB	0d8H
	DB	0c0H
	DB	078H
	DB	092H
	DB	0d8H
	DB	0bcH
	DB	070H
	DB	092H
	DB	0d0H
	DB	0bcH
	DB	070H
	DB	092H
	DB	0d0H
	DB	0bcH
	DB	068H
	DB	092H
	DB	0d0H
	DB	0bcH
	DB	068H
	DB	092H
	DB	0d0H
	DB	0bcH
	DB	068H
	DB	092H
	DB	0d0H
	DB	0b8H
	DB	068H
	DB	08aH
	DB	0d0H
	DB	0b8H
	DB	068H
	DB	086H
	DB	0d0H
	DB	0b8H
	DB	068H
	DB	07dH
	DB	0d0H
	DB	0b8H
	DB	070H
	DB	06dH
	DB	0d0H
	DB	0b4H
	DB	070H
	DB	05dH
	DB	0d0H
	DB	0b4H
	DB	070H
	DB	041H
	DB	0d0H
	DB	0b8H
	DB	070H
	DB	020H
	DB	0f8H
	DB	0fcH
	DB	0f8H
	DB	00H
	DB	0f8H
	DB	0fcH
	DB	0f8H
	DB	00H
	DB	0f8H
	DB	0fcH
	DB	0f8H
	DB	00H
	DB	0f8H
	DB	0fcH
	DB	0f8H
	DB	00H
	DB	0f8H
	DB	0fcH
	DB	0f8H
	DB	00H
	DB	0f8H
	DB	0fcH
	DB	0f8H
	DB	00H
	DB	0f8H
	DB	0fcH
	DB	0f8H
	DB	00H
	DB	0f8H
	DB	0fcH
	DB	0f8H
	DB	00H
	DB	0f8H
	DB	0fcH
	DB	0f8H
	DB	00H
	DB	0f8H
	DB	0fcH
	DB	0f8H
	DB	00H
	DB	0f8H
	DB	0fcH
	DB	0f8H
	DB	00H
	DB	0f8H
	DB	0fcH
	DB	0f8H
	DB	00H
	DB	0f8H
	DB	0fcH
	DB	0f8H
	DB	00H
	DB	0f8H
	DB	0fcH
	DB	0f8H
	DB	00H
	DB	0f8H
	DB	0fcH
	DB	0f8H
	DB	00H
	DB	0f8H
	DB	0fcH
	DB	0f8H
	DB	00H
	DB	0f8H
	DB	0fcH
	DB	0f8H
	DB	00H
	DB	0f8H
	DB	0fcH
	DB	0f8H
	DB	00H
	DB	0f8H
	DB	0fcH
	DB	0f8H
	DB	00H
	DB	0f8H
	DB	0fcH
	DB	0f8H
	DB	00H
	DB	0f8H
	DB	0fcH
	DB	0f8H
	DB	00H
	DB	0f8H
	DB	0fcH
	DB	0f8H
	DB	00H
	DB	0f8H
	DB	0fcH
	DB	0f8H
	DB	00H
	DB	0f8H
	DB	0fcH
	DB	0f8H
	DB	00H
	DB	0f8H
	DB	0fcH
	DB	0f8H
	DB	00H
	DB	0f8H
	DB	0fcH
	DB	0f8H
	DB	00H
	DB	0f8H
	DB	0fcH
	DB	0f8H
	DB	00H
	DB	0f8H
	DB	0fcH
	DB	0f8H
	DB	00H
	DB	0f8H
	DB	0fcH
	DB	0f8H
	DB	00H
	DB	0f8H
	DB	0fcH
	DB	0f8H
	DB	00H
	DB	0f8H
	DB	0fcH
	DB	0f8H
	DB	00H
	DB	0f8H
	DB	0fcH
	DB	0f8H
	DB	00H
	DB	0f8H
	DB	0fcH
	DB	0f8H
	DB	00H
	DB	0f8H
	DB	0fcH
	DB	0f8H
	DB	00H
	DB	0f8H
	DB	0fcH
	DB	0f8H
	DB	00H
	DB	0f8H
	DB	0fcH
	DB	0f8H
	DB	00H
	DB	0f8H
	DB	0fcH
	DB	0f8H
	DB	00H
	DB	0f8H
	DB	0fcH
	DB	0f8H
	DB	00H
	DB	0f8H
	DB	0fcH
	DB	0f8H
	DB	00H
	DB	0f8H
	DB	0fcH
	DB	0f8H
	DB	00H
	DB	0f8H
	DB	0fcH
	DB	0f8H
	DB	00H
	DB	0f8H
	DB	0fcH
	DB	0f8H
	DB	00H
	DB	0f8H
	DB	0fcH
	DB	0f8H
	DB	00H
	DB	0f8H
	DB	0fcH
	DB	0f8H
	DB	00H
	DB	0f8H
	DB	0fcH
	DB	0f8H
	DB	00H
	DB	0f8H
	DB	0fcH
	DB	0f8H
	DB	00H
	DB	0f8H
	DB	0fcH
	DB	0f8H
	DB	00H
	DB	0f8H
	DB	0fcH
	DB	0f8H
	DB	00H
	DB	0f8H
	DB	0fcH
	DB	0f8H
	DB	00H
	DB	0f8H
	DB	0fcH
	DB	0f8H
	DB	00H
	DB	0f8H
	DB	0fcH
	DB	0f8H
	DB	00H
	DB	0f8H
	DB	0fcH
	DB	0f8H
	DB	00H
	DB	0f8H
	DB	0fcH
	DB	0f8H
	DB	00H
	DB	0f8H
	DB	0fcH
	DB	0f8H
	DB	00H
	DB	0f8H
	DB	0fcH
	DB	0f8H
	DB	00H
	DB	0f8H
	DB	0fcH
	DB	0f8H
	DB	00H
	DB	0f8H
	DB	0fcH
	DB	0f8H
	DB	00H
	DB	0f8H
	DB	0fcH
	DB	0f8H
	DB	00H
	DB	0f8H
	DB	0fcH
	DB	0f8H
	DB	00H
	DB	0f8H
	DB	0fcH
	DB	0f8H
	DB	00H
	DB	0f8H
	DB	0fcH
	DB	0f8H
	DB	00H
	DB	0f8H
	DB	0fcH
	DB	0f8H
	DB	00H
	DB	0f8H
	DB	0fcH
	DB	0f8H
	DB	00H
	DB	0f8H
	DB	0fcH
	DB	0f8H
	DB	00H
	DB	0f8H
	DB	0fcH
	DB	0f8H
	DB	00H
	DB	0f8H
	DB	0fcH
	DB	0f8H
	DB	00H
	DB	0f8H
	DB	0fcH
	DB	0f8H
	DB	00H
	DB	0f8H
	DB	0fcH
	DB	0f8H
	DB	00H
	DB	0f8H
	DB	0fcH
	DB	0f8H
	DB	00H
	DB	0f8H
	DB	0fcH
	DB	0f8H
	DB	00H
	DB	0f8H
	DB	0fcH
	DB	0f8H
	DB	00H
	DB	0f8H
	DB	0fcH
	DB	0f8H
	DB	00H
	DB	0f8H
	DB	0fcH
	DB	0f8H
	DB	00H
	DB	0f8H
	DB	0fcH
	DB	0f8H
	DB	00H
	DB	0f8H
	DB	0fcH
	DB	0f8H
	DB	00H
	DB	0f8H
	DB	0fcH
	DB	0f8H
	DB	00H
	DB	0f8H
	DB	0fcH
	DB	0f8H
	DB	00H
	DB	0f8H
	DB	0fcH
	DB	0f8H
	DB	00H
	DB	0f8H
	DB	0fcH
	DB	0f8H
	DB	00H
	DB	0f8H
	DB	0fcH
	DB	0f8H
	DB	00H
	DB	0f8H
	DB	0fcH
	DB	0f8H
	DB	00H
	DB	0f8H
	DB	0fcH
	DB	0f8H
	DB	00H
	DB	0f8H
	DB	0fcH
	DB	0f8H
	DB	00H
	DB	0f8H
	DB	0fcH
	DB	0f8H
	DB	00H
	DB	0f8H
	DB	0fcH
	DB	0f8H
	DB	00H
	DB	0f8H
	DB	0fcH
	DB	0f8H
	DB	00H
	DB	0f8H
	DB	0fcH
	DB	0f8H
	DB	00H
	DB	0f8H
	DB	0fcH
	DB	0f8H
	DB	00H
	DB	0f8H
	DB	0fcH
	DB	0f8H
	DB	00H
	DB	0f8H
	DB	0fcH
	DB	0f8H
	DB	00H
	DB	0f8H
	DB	0fcH
	DB	0f8H
	DB	00H
	DB	0f8H
	DB	0fcH
	DB	0f8H
	DB	00H
	DB	0f8H
	DB	0fcH
	DB	0f8H
	DB	00H
	DB	0f8H
	DB	0fcH
	DB	0f8H
	DB	00H
	DB	0f8H
	DB	0fcH
	DB	0f8H
	DB	00H
	DB	0f8H
	DB	0fcH
	DB	0f8H
	DB	00H
	DB	0f8H
	DB	0fcH
	DB	0f8H
	DB	00H
	DB	0f8H
	DB	0fcH
	DB	0f8H
	DB	00H
	DB	0f8H
	DB	0fcH
	DB	0f8H
	DB	00H
	DB	0f8H
	DB	0fcH
	DB	0f8H
	DB	00H
	DB	0f8H
	DB	0fcH
	DB	0f8H
	DB	00H
	DB	0f8H
	DB	0fcH
	DB	0f8H
	DB	00H
	DB	0f8H
	DB	0fcH
	DB	0f8H
	DB	00H
	DB	0f8H
	DB	0fcH
	DB	0f8H
	DB	00H
	DB	0f8H
	DB	0fcH
	DB	0f8H
	DB	00H
	DB	0f8H
	DB	0fcH
	DB	0f8H
	DB	00H
	DB	0f8H
	DB	0fcH
	DB	0f8H
	DB	00H
	DB	0f8H
	DB	0fcH
	DB	0f8H
	DB	00H
	DB	0f8H
	DB	0fcH
	DB	0f8H
	DB	00H
	DB	0f8H
	DB	0fcH
	DB	0f8H
	DB	00H
	DB	0f8H
	DB	0fcH
	DB	0f8H
	DB	00H
	DB	0f8H
	DB	0fcH
	DB	0f8H
	DB	00H
	DB	0f8H
	DB	0fcH
	DB	0f8H
	DB	00H
	DB	0f8H
	DB	0fcH
	DB	0f8H
	DB	00H
	DB	0f8H
	DB	0fcH
	DB	0f8H
	DB	00H
	DB	0f8H
	DB	0fcH
	DB	0f8H
	DB	00H
	DB	0f8H
	DB	0fcH
	DB	0f8H
	DB	00H
	DB	0f8H
	DB	0fcH
	DB	0f8H
	DB	00H
	DB	0f8H
	DB	0fcH
	DB	0f8H
	DB	00H
	DB	0f8H
	DB	0fcH
	DB	0f8H
	DB	00H
	DB	0f8H
	DB	0fcH
	DB	0f8H
	DB	00H
	DB	0f8H
	DB	0fcH
	DB	0f8H
	DB	00H
	DB	0f8H
	DB	0fcH
	DB	0f8H
	DB	00H
	DB	0f8H
	DB	0fcH
	DB	0f8H
	DB	00H
	DB	0f8H
	DB	0fcH
	DB	0f8H
	DB	00H
	DB	0f8H
	DB	0fcH
	DB	0f8H
	DB	00H
	DB	0f8H
	DB	0fcH
	DB	0f8H
	DB	00H
	DB	0f8H
	DB	0fcH
	DB	0f8H
	DB	00H
	DB	0f8H
	DB	0fcH
	DB	0f8H
	DB	00H
	DB	0f8H
	DB	0fcH
	DB	0f8H
	DB	00H
	DB	0f8H
	DB	0fcH
	DB	0f8H
	DB	00H
	DB	0f8H
	DB	0fcH
	DB	0f8H
	DB	00H
	DB	0f8H
	DB	0fcH
	DB	0f8H
	DB	00H
	DB	0f8H
	DB	0fcH
	DB	0f8H
	DB	00H
	DB	0f8H
	DB	0fcH
	DB	0f8H
	DB	00H
	DB	0f8H
	DB	0fcH
	DB	0f8H
	DB	00H
	DB	0f8H
	DB	0fcH
	DB	0f8H
	DB	00H
	DB	0f8H
	DB	0fcH
	DB	0f8H
	DB	00H
	DB	0f8H
	DB	0fcH
	DB	0f8H
	DB	00H
	DB	0f8H
	DB	0fcH
	DB	0f8H
	DB	00H
	DB	0f8H
	DB	0fcH
	DB	0f8H
	DB	00H
	DB	0f8H
	DB	0fcH
	DB	0f8H
	DB	00H
	DB	0f8H
	DB	0fcH
	DB	0f8H
	DB	00H
	DB	0f8H
	DB	0fcH
	DB	0f8H
	DB	00H
	DB	0f8H
	DB	0fcH
	DB	0f8H
	DB	00H
	DB	0f8H
	DB	0fcH
	DB	0f8H
	DB	00H
	DB	0f8H
	DB	0fcH
	DB	0f8H
	DB	00H
	DB	0f8H
	DB	0fcH
	DB	0f8H
	DB	00H
	DB	0f8H
	DB	0fcH
	DB	0f8H
	DB	00H
	DB	0f8H
	DB	0fcH
	DB	0f8H
	DB	00H
	DB	0f8H
	DB	0fcH
	DB	0f8H
	DB	00H
	DB	0f8H
	DB	0fcH
	DB	0f8H
	DB	00H
	DB	0f8H
	DB	0fcH
	DB	0f8H
	DB	00H
	DB	0f8H
	DB	0fcH
	DB	0f8H
	DB	00H
	DB	0f8H
	DB	0fcH
	DB	0f8H
	DB	00H
	DB	0f8H
	DB	0fcH
	DB	0f8H
	DB	00H
	DB	0f8H
	DB	0fcH
	DB	0f8H
	DB	00H
	DB	0f8H
	DB	0fcH
	DB	0f8H
	DB	00H
	DB	0f8H
	DB	0fcH
	DB	0f8H
	DB	00H
	DB	0f8H
	DB	0fcH
	DB	0f8H
	DB	00H
	DB	0f8H
	DB	0fcH
	DB	0f8H
	DB	00H
	DB	0f8H
	DB	0fcH
	DB	0f8H
	DB	00H
	DB	0f8H
	DB	0fcH
	DB	0f8H
	DB	00H
	DB	0f8H
	DB	0fcH
	DB	0f8H
	DB	00H
	DB	0f8H
	DB	0fcH
	DB	0f8H
	DB	00H
	DB	0f8H
	DB	0fcH
	DB	0f8H
	DB	00H
	DB	0f8H
	DB	0fcH
	DB	0f8H
	DB	00H
	DB	0f8H
	DB	0fcH
	DB	0f8H
	DB	00H
	DB	0f8H
	DB	0fcH
	DB	0f8H
	DB	00H
	DB	0f8H
	DB	0fcH
	DB	0f8H
	DB	00H
	DB	0f8H
	DB	0fcH
	DB	0f8H
	DB	00H
	DB	0f8H
	DB	0fcH
	DB	0f8H
	DB	00H
	DB	0f8H
	DB	0fcH
	DB	0f8H
	DB	00H
	DB	0f8H
	DB	0fcH
	DB	0f8H
	DB	00H
	DB	0f8H
	DB	0fcH
	DB	0f8H
	DB	00H
	DB	0f8H
	DB	0fcH
	DB	0f8H
	DB	00H
	DB	0f8H
	DB	0fcH
	DB	0f8H
	DB	00H
	DB	0f8H
	DB	0fcH
	DB	0f8H
	DB	00H
	DB	0f8H
	DB	0fcH
	DB	0f8H
	DB	00H
	DB	0f8H
	DB	0fcH
	DB	0f8H
	DB	00H
	DB	0f8H
	DB	0fcH
	DB	0f8H
	DB	00H
	DB	0f8H
	DB	0fcH
	DB	0f8H
	DB	00H
	DB	0f8H
	DB	0fcH
	DB	0f8H
	DB	00H
	DB	0f8H
	DB	0fcH
	DB	0f8H
	DB	00H
	DB	0f8H
	DB	0fcH
	DB	0f8H
	DB	00H
	DB	0f8H
	DB	0fcH
	DB	0f8H
	DB	00H
	DB	0f8H
	DB	0fcH
	DB	0f8H
	DB	00H
	DB	0f8H
	DB	0fcH
	DB	0f8H
	DB	00H
	DB	0f8H
	DB	0fcH
	DB	0f8H
	DB	00H
	DB	0f8H
	DB	0fcH
	DB	0f8H
	DB	00H
	DB	0f8H
	DB	0fcH
	DB	0f8H
	DB	00H
	DB	0f8H
	DB	0fcH
	DB	0f8H
	DB	00H
	DB	0f8H
	DB	0fcH
	DB	0f8H
	DB	00H
	DB	0c0H
	DB	0a4H
	DB	058H
	DB	010H
	DB	0c0H
	DB	0a4H
	DB	058H
	DB	038H
	DB	0c0H
	DB	0a4H
	DB	058H
	DB	051H
	DB	0c0H
	DB	0a8H
	DB	058H
	DB	065H
	DB	0c8H
	DB	0a8H
	DB	058H
	DB	071H
	DB	0c8H
	DB	0acH
	DB	058H
	DB	079H
	DB	0d0H
	DB	0b0H
	DB	060H
	DB	079H
	DB	0d0H
	DB	0b4H
	DB	068H
	DB	079H
	DB	0d0H
	DB	0b4H
	DB	068H
	DB	079H
	DB	0d0H
	DB	0b4H
	DB	060H
	DB	079H
	DB	0d0H
	DB	0b0H
	DB	060H
	DB	079H
	DB	0c8H
	DB	0b0H
	DB	060H
	DB	079H
	DB	0d0H
	DB	0b0H
	DB	060H
	DB	079H
	DB	0d0H
	DB	0b4H
	DB	060H
	DB	07dH
	DB	0d0H
	DB	0b4H
	DB	060H
	DB	07dH
	DB	0d0H
	DB	0b4H
	DB	068H
	DB	07dH
	DB	0d0H
	DB	0b4H
	DB	060H
	DB	07dH
	DB	0d0H
	DB	0b0H
	DB	060H
	DB	07dH
	DB	0d0H
	DB	0b4H
	DB	068H
	DB	07dH
	DB	0d0H
	DB	0b4H
	DB	060H
	DB	082H
	DB	0d0H
	DB	0b4H
	DB	068H
	DB	07dH
	DB	0d0H
	DB	0b4H
	DB	068H
	DB	082H
	DB	0d0H
	DB	0b4H
	DB	068H
	DB	07dH
	DB	0d0H
	DB	0b8H
	DB	068H
	DB	082H
	DB	0d8H
	DB	0bcH
	DB	070H
	DB	082H
	DB	0d8H
	DB	0bcH
	DB	070H
	DB	082H
	DB	0d8H
	DB	0bcH
	DB	070H
	DB	082H
	DB	0d8H
	DB	0bcH
	DB	070H
	DB	082H
	DB	0d0H
	DB	0b8H
	DB	070H
	DB	082H
	DB	0d0H
	DB	0b8H
	DB	068H
	DB	082H
	DB	0d0H
	DB	0b4H
	DB	068H
	DB	082H
	DB	0d0H
	DB	0b8H
	DB	070H
	DB	086H
	DB	0d0H
	DB	0b8H
	DB	070H
	DB	086H
	DB	0d0H
	DB	0bcH
	DB	070H
	DB	086H
	DB	0d0H
	DB	0bcH
	DB	070H
	DB	086H
	DB	0d0H
	DB	0b8H
	DB	068H
	DB	086H
	DB	0d0H
	DB	0b8H
	DB	068H
	DB	086H
	DB	0d0H
	DB	0b8H
	DB	070H
	DB	086H
	DB	0d8H
	DB	0bcH
	DB	078H
	DB	086H
	DB	0d8H
	DB	0c0H
	DB	078H
	DB	08aH
	DB	0d8H
	DB	0bcH
	DB	078H
	DB	086H
	DB	0d8H
	DB	0c0H
	DB	070H
	DB	08aH
	DB	0d8H
	DB	0c0H
	DB	078H
	DB	08aH
	DB	0d8H
	DB	0c0H
	DB	078H
	DB	08aH
	DB	0d0H
	DB	0bcH
	DB	070H
	DB	08aH
	DB	0d0H
	DB	0b8H
	DB	070H
	DB	08aH
	DB	0d8H
	DB	0bcH
	DB	070H
	DB	08aH
	DB	0d8H
	DB	0c0H
	DB	078H
	DB	08aH
	DB	0d8H
	DB	0c0H
	DB	078H
	DB	08eH
	DB	0d8H
	DB	0c4H
	DB	078H
	DB	08aH
	DB	0d8H
	DB	0c4H
	DB	080H
	DB	08eH
	DB	0d8H
	DB	0c4H
	DB	080H
	DB	08eH
	DB	0d8H
	DB	0c0H
	DB	078H
	DB	08eH
	DB	0d8H
	DB	0c0H
	DB	078H
	DB	08eH
	DB	0d8H
	DB	0c0H
	DB	078H
	DB	08eH
	DB	0d8H
	DB	0c0H
	DB	078H
	DB	08eH
	DB	0d8H
	DB	0c0H
	DB	078H
	DB	08eH
	DB	0d8H
	DB	0c0H
	DB	078H
	DB	092H
	DB	0d8H
	DB	0c0H
	DB	078H
	DB	092H
	DB	0d8H
	DB	0c0H
	DB	078H
	DB	08eH
	DB	0d8H
	DB	0c0H
	DB	078H
	DB	092H
	DB	0d8H
	DB	0c0H
	DB	070H
	DB	092H
	DB	0d8H
	DB	0bcH
	DB	070H
	DB	092H
	DB	0d0H
	DB	0bcH
	DB	068H
	DB	092H
	DB	0d0H
	DB	0bcH
	DB	068H
	DB	092H
	DB	0d0H
	DB	0b8H
	DB	068H
	DB	092H
	DB	0d0H
	DB	0b8H
	DB	068H
	DB	092H
	DB	0d0H
	DB	0b8H
	DB	068H
	DB	092H
	DB	0d0H
	DB	0b8H
	DB	068H
	DB	092H
	DB	0d0H
	DB	0b8H
	DB	068H
	DB	092H
	DB	0d0H
	DB	0b8H
	DB	068H
	DB	092H
	DB	0d0H
	DB	0b8H
	DB	068H
	DB	092H
	DB	0d0H
	DB	0b8H
	DB	068H
	DB	08eH
	DB	0d0H
	DB	0b8H
	DB	070H
	DB	086H
	DB	0d0H
	DB	0b8H
	DB	070H
	DB	07dH
	DB	0d0H
	DB	0b8H
	DB	070H
	DB	069H
	DB	0d0H
	DB	0b8H
	DB	070H
	DB	051H
	DB	0d0H
	DB	0b8H
	DB	078H
	DB	028H
	DB	0d0H
	DB	0b8H
	DB	078H
	DB	00H
	DB	0f8H
	DB	0fcH
	DB	0f8H
	DB	00H
	DB	0f8H
	DB	0fcH
	DB	0f8H
	DB	00H
	DB	0f8H
	DB	0fcH
	DB	0f8H
	DB	00H
	DB	0f8H
	DB	0fcH
	DB	0f8H
	DB	00H
	DB	0f8H
	DB	0fcH
	DB	0f8H
	DB	00H
	DB	0f8H
	DB	0fcH
	DB	0f8H
	DB	00H
	DB	0f8H
	DB	0fcH
	DB	0f8H
	DB	00H
	DB	0f8H
	DB	0fcH
	DB	0f8H
	DB	00H
	DB	0f8H
	DB	0fcH
	DB	0f8H
	DB	00H
	DB	0f8H
	DB	0fcH
	DB	0f8H
	DB	00H
	DB	0f8H
	DB	0fcH
	DB	0f8H
	DB	00H
	DB	0f8H
	DB	0fcH
	DB	0f8H
	DB	00H
	DB	0f8H
	DB	0fcH
	DB	0f8H
	DB	00H
	DB	0f8H
	DB	0fcH
	DB	0f8H
	DB	00H
	DB	0f8H
	DB	0fcH
	DB	0f8H
	DB	00H
	DB	0f8H
	DB	0fcH
	DB	0f8H
	DB	00H
	DB	0f8H
	DB	0fcH
	DB	0f8H
	DB	00H
	DB	0f8H
	DB	0fcH
	DB	0f8H
	DB	00H
	DB	0f8H
	DB	0fcH
	DB	0f8H
	DB	00H
	DB	0f8H
	DB	0fcH
	DB	0f8H
	DB	00H
	DB	0f8H
	DB	0fcH
	DB	0f8H
	DB	00H
	DB	0f8H
	DB	0fcH
	DB	0f8H
	DB	00H
	DB	0f8H
	DB	0fcH
	DB	0f8H
	DB	00H
	DB	0f8H
	DB	0fcH
	DB	0f8H
	DB	00H
	DB	0f8H
	DB	0fcH
	DB	0f8H
	DB	00H
	DB	0f8H
	DB	0fcH
	DB	0f8H
	DB	00H
	DB	0f8H
	DB	0fcH
	DB	0f8H
	DB	00H
	DB	0f8H
	DB	0fcH
	DB	0f8H
	DB	00H
	DB	0f8H
	DB	0fcH
	DB	0f8H
	DB	00H
	DB	0f8H
	DB	0fcH
	DB	0f8H
	DB	00H
	DB	0f8H
	DB	0fcH
	DB	0f8H
	DB	00H
	DB	0f8H
	DB	0fcH
	DB	0f8H
	DB	00H
	DB	0f8H
	DB	0fcH
	DB	0f8H
	DB	00H
	DB	0f8H
	DB	0fcH
	DB	0f8H
	DB	00H
	DB	0f8H
	DB	0fcH
	DB	0f8H
	DB	00H
	DB	0f8H
	DB	0fcH
	DB	0f8H
	DB	00H
	DB	0f8H
	DB	0fcH
	DB	0f8H
	DB	00H
	DB	0f8H
	DB	0fcH
	DB	0f8H
	DB	00H
	DB	0f8H
	DB	0fcH
	DB	0f8H
	DB	00H
	DB	0f8H
	DB	0fcH
	DB	0f8H
	DB	00H
	DB	0f8H
	DB	0fcH
	DB	0f8H
	DB	00H
	DB	0f8H
	DB	0fcH
	DB	0f8H
	DB	00H
	DB	0f8H
	DB	0fcH
	DB	0f8H
	DB	00H
	DB	0f8H
	DB	0fcH
	DB	0f8H
	DB	00H
	DB	0f8H
	DB	0fcH
	DB	0f8H
	DB	00H
	DB	0f8H
	DB	0fcH
	DB	0f8H
	DB	00H
	DB	0f8H
	DB	0fcH
	DB	0f8H
	DB	00H
	DB	0f8H
	DB	0fcH
	DB	0f8H
	DB	00H
	DB	0f8H
	DB	0fcH
	DB	0f8H
	DB	00H
	DB	0f8H
	DB	0fcH
	DB	0f8H
	DB	00H
	DB	0f8H
	DB	0fcH
	DB	0f8H
	DB	00H
	DB	0f8H
	DB	0fcH
	DB	0f8H
	DB	00H
	DB	0f8H
	DB	0fcH
	DB	0f8H
	DB	00H
	DB	0f8H
	DB	0fcH
	DB	0f8H
	DB	00H
	DB	0f8H
	DB	0fcH
	DB	0f8H
	DB	00H
	DB	0f8H
	DB	0fcH
	DB	0f8H
	DB	00H
	DB	0f8H
	DB	0fcH
	DB	0f8H
	DB	00H
	DB	0f8H
	DB	0fcH
	DB	0f8H
	DB	00H
	DB	0f8H
	DB	0fcH
	DB	0f8H
	DB	00H
	DB	0f8H
	DB	0fcH
	DB	0f8H
	DB	00H
	DB	0f8H
	DB	0fcH
	DB	0f8H
	DB	00H
	DB	0f8H
	DB	0fcH
	DB	0f8H
	DB	00H
	DB	0f8H
	DB	0fcH
	DB	0f8H
	DB	00H
	DB	0f8H
	DB	0fcH
	DB	0f8H
	DB	00H
	DB	0f8H
	DB	0fcH
	DB	0f8H
	DB	00H
	DB	0f8H
	DB	0fcH
	DB	0f8H
	DB	00H
	DB	0f8H
	DB	0fcH
	DB	0f8H
	DB	00H
	DB	0f8H
	DB	0fcH
	DB	0f8H
	DB	00H
	DB	0f8H
	DB	0fcH
	DB	0f8H
	DB	00H
	DB	0f8H
	DB	0fcH
	DB	0f8H
	DB	00H
	DB	0f8H
	DB	0fcH
	DB	0f8H
	DB	00H
	DB	0f8H
	DB	0fcH
	DB	0f8H
	DB	00H
	DB	0f8H
	DB	0fcH
	DB	0f8H
	DB	00H
	DB	0f8H
	DB	0fcH
	DB	0f8H
	DB	00H
	DB	0f8H
	DB	0fcH
	DB	0f8H
	DB	00H
	DB	0f8H
	DB	0fcH
	DB	0f8H
	DB	00H
	DB	0f8H
	DB	0fcH
	DB	0f8H
	DB	00H
	DB	0f8H
	DB	0fcH
	DB	0f8H
	DB	00H
	DB	0f8H
	DB	0fcH
	DB	0f8H
	DB	00H
	DB	0f8H
	DB	0fcH
	DB	0f8H
	DB	00H
	DB	0f8H
	DB	0fcH
	DB	0f8H
	DB	00H
	DB	0f8H
	DB	0fcH
	DB	0f8H
	DB	00H
	DB	0f8H
	DB	0fcH
	DB	0f8H
	DB	00H
	DB	0f8H
	DB	0fcH
	DB	0f8H
	DB	00H
	DB	0f8H
	DB	0fcH
	DB	0f8H
	DB	00H
	DB	0f8H
	DB	0fcH
	DB	0f8H
	DB	00H
	DB	0f8H
	DB	0fcH
	DB	0f8H
	DB	00H
	DB	0f8H
	DB	0fcH
	DB	0f8H
	DB	00H
	DB	0f8H
	DB	0fcH
	DB	0f8H
	DB	00H
	DB	0f8H
	DB	0fcH
	DB	0f8H
	DB	00H
	DB	0f8H
	DB	0fcH
	DB	0f8H
	DB	00H
	DB	0f8H
	DB	0fcH
	DB	0f8H
	DB	00H
	DB	0f8H
	DB	0fcH
	DB	0f8H
	DB	00H
	DB	0f8H
	DB	0fcH
	DB	0f8H
	DB	00H
	DB	0f8H
	DB	0fcH
	DB	0f8H
	DB	00H
	DB	0f8H
	DB	0fcH
	DB	0f8H
	DB	00H
	DB	0f8H
	DB	0fcH
	DB	0f8H
	DB	00H
	DB	0f8H
	DB	0fcH
	DB	0f8H
	DB	00H
	DB	0f8H
	DB	0fcH
	DB	0f8H
	DB	00H
	DB	0f8H
	DB	0fcH
	DB	0f8H
	DB	00H
	DB	0f8H
	DB	0fcH
	DB	0f8H
	DB	00H
	DB	0f8H
	DB	0fcH
	DB	0f8H
	DB	00H
	DB	0f8H
	DB	0fcH
	DB	0f8H
	DB	00H
	DB	0f8H
	DB	0fcH
	DB	0f8H
	DB	00H
	DB	0f8H
	DB	0fcH
	DB	0f8H
	DB	00H
	DB	0f8H
	DB	0fcH
	DB	0f8H
	DB	00H
	DB	0f8H
	DB	0fcH
	DB	0f8H
	DB	00H
	DB	0f8H
	DB	0fcH
	DB	0f8H
	DB	00H
	DB	0f8H
	DB	0fcH
	DB	0f8H
	DB	00H
	DB	0f8H
	DB	0fcH
	DB	0f8H
	DB	00H
	DB	0f8H
	DB	0fcH
	DB	0f8H
	DB	00H
	DB	0f8H
	DB	0fcH
	DB	0f8H
	DB	00H
	DB	0f8H
	DB	0fcH
	DB	0f8H
	DB	00H
	DB	0f8H
	DB	0fcH
	DB	0f8H
	DB	00H
	DB	0f8H
	DB	0fcH
	DB	0f8H
	DB	00H
	DB	0f8H
	DB	0fcH
	DB	0f8H
	DB	00H
	DB	0f8H
	DB	0fcH
	DB	0f8H
	DB	00H
	DB	0f8H
	DB	0fcH
	DB	0f8H
	DB	00H
	DB	0f8H
	DB	0fcH
	DB	0f8H
	DB	00H
	DB	0f8H
	DB	0fcH
	DB	0f8H
	DB	00H
	DB	0f8H
	DB	0fcH
	DB	0f8H
	DB	00H
	DB	0f8H
	DB	0fcH
	DB	0f8H
	DB	00H
	DB	0f8H
	DB	0fcH
	DB	0f8H
	DB	00H
	DB	0f8H
	DB	0fcH
	DB	0f8H
	DB	00H
	DB	0f8H
	DB	0fcH
	DB	0f8H
	DB	00H
	DB	0f8H
	DB	0fcH
	DB	0f8H
	DB	00H
	DB	0f8H
	DB	0fcH
	DB	0f8H
	DB	00H
	DB	0f8H
	DB	0fcH
	DB	0f8H
	DB	00H
	DB	0f8H
	DB	0fcH
	DB	0f8H
	DB	00H
	DB	0f8H
	DB	0fcH
	DB	0f8H
	DB	00H
	DB	0f8H
	DB	0fcH
	DB	0f8H
	DB	00H
	DB	0f8H
	DB	0fcH
	DB	0f8H
	DB	00H
	DB	0f8H
	DB	0fcH
	DB	0f8H
	DB	00H
	DB	0f8H
	DB	0fcH
	DB	0f8H
	DB	00H
	DB	0f8H
	DB	0fcH
	DB	0f8H
	DB	00H
	DB	0f8H
	DB	0fcH
	DB	0f8H
	DB	00H
	DB	0f8H
	DB	0fcH
	DB	0f8H
	DB	00H
	DB	0f8H
	DB	0fcH
	DB	0f8H
	DB	00H
	DB	0f8H
	DB	0fcH
	DB	0f8H
	DB	00H
	DB	0f8H
	DB	0fcH
	DB	0f8H
	DB	00H
	DB	0f8H
	DB	0fcH
	DB	0f8H
	DB	00H
	DB	0f8H
	DB	0fcH
	DB	0f8H
	DB	00H
	DB	0f8H
	DB	0fcH
	DB	0f8H
	DB	00H
	DB	0f8H
	DB	0fcH
	DB	0f8H
	DB	00H
	DB	0f8H
	DB	0fcH
	DB	0f8H
	DB	00H
	DB	0f8H
	DB	0fcH
	DB	0f8H
	DB	00H
	DB	0f8H
	DB	0fcH
	DB	0f8H
	DB	00H
	DB	0f8H
	DB	0fcH
	DB	0f8H
	DB	00H
	DB	0f8H
	DB	0fcH
	DB	0f8H
	DB	00H
	DB	0f8H
	DB	0fcH
	DB	0f8H
	DB	00H
	DB	0f8H
	DB	0fcH
	DB	0f8H
	DB	00H
	DB	0f8H
	DB	0fcH
	DB	0f8H
	DB	00H
	DB	0f8H
	DB	0fcH
	DB	0f8H
	DB	00H
	DB	0f8H
	DB	0fcH
	DB	0f8H
	DB	00H
	DB	0f8H
	DB	0fcH
	DB	0f8H
	DB	00H
	DB	0f8H
	DB	0fcH
	DB	0f8H
	DB	00H
	DB	0f8H
	DB	0fcH
	DB	0f8H
	DB	00H
	DB	0f8H
	DB	0fcH
	DB	0f8H
	DB	00H
	DB	0f8H
	DB	0fcH
	DB	0f8H
	DB	00H
	DB	0f8H
	DB	0fcH
	DB	0f8H
	DB	00H
	DB	0f8H
	DB	0fcH
	DB	0f8H
	DB	00H
	DB	0f8H
	DB	0fcH
	DB	0f8H
	DB	00H
	DB	0f8H
	DB	0fcH
	DB	0f8H
	DB	00H
	DB	0f8H
	DB	0fcH
	DB	0f8H
	DB	00H
	DB	0f8H
	DB	0fcH
	DB	0f8H
	DB	00H
	DB	0f8H
	DB	0fcH
	DB	0f8H
	DB	00H
	DB	0f8H
	DB	0fcH
	DB	0f8H
	DB	00H
	DB	0f8H
	DB	0fcH
	DB	0f8H
	DB	00H
	DB	0f8H
	DB	0fcH
	DB	0f8H
	DB	00H
	DB	0f8H
	DB	0fcH
	DB	0f8H
	DB	00H
	DB	0f8H
	DB	0fcH
	DB	0f8H
	DB	00H
	DB	0f8H
	DB	0fcH
	DB	0f8H
	DB	00H
	DB	0f8H
	DB	0fcH
	DB	0f8H
	DB	00H
	DB	0f8H
	DB	0fcH
	DB	0f8H
	DB	00H
	DB	0f8H
	DB	0fcH
	DB	0f8H
	DB	00H
	DB	0f8H
	DB	0fcH
	DB	0f8H
	DB	00H
	DB	0f8H
	DB	0fcH
	DB	0f8H
	DB	00H
	DB	0f8H
	DB	0fcH
	DB	0f8H
	DB	00H
	DB	0f8H
	DB	0fcH
	DB	0f8H
	DB	00H
	DB	0f8H
	DB	0fcH
	DB	0f8H
	DB	00H
	DB	0f8H
	DB	0fcH
	DB	0f8H
	DB	00H
	DB	0f8H
	DB	0fcH
	DB	0f8H
	DB	00H
	DB	0c8H
	DB	0a8H
	DB	060H
	DB	020H
	DB	0c8H
	DB	0a8H
	DB	058H
	DB	045H
	DB	0c0H
	DB	0a4H
	DB	058H
	DB	05dH
	DB	0c0H
	DB	0a4H
	DB	058H
	DB	071H
	DB	0c8H
	DB	0a4H
	DB	050H
	DB	075H
	DB	0c0H
	DB	0a4H
	DB	050H
	DB	075H
	DB	0c8H
	DB	0a4H
	DB	050H
	DB	079H
	DB	0c8H
	DB	0a8H
	DB	050H
	DB	075H
	DB	0c8H
	DB	0a8H
	DB	058H
	DB	079H
	DB	0c8H
	DB	0acH
	DB	058H
	DB	079H
	DB	0c8H
	DB	0b0H
	DB	060H
	DB	079H
	DB	0d0H
	DB	0b4H
	DB	060H
	DB	079H
	DB	0d0H
	DB	0b4H
	DB	068H
	DB	079H
	DB	0d0H
	DB	0b4H
	DB	068H
	DB	079H
	DB	0d0H
	DB	0b4H
	DB	060H
	DB	079H
	DB	0d0H
	DB	0b4H
	DB	060H
	DB	07dH
	DB	0d0H
	DB	0b4H
	DB	068H
	DB	079H
	DB	0d0H
	DB	0b4H
	DB	068H
	DB	07dH
	DB	0d0H
	DB	0b4H
	DB	068H
	DB	07dH
	DB	0d0H
	DB	0b8H
	DB	068H
	DB	07dH
	DB	0d0H
	DB	0b4H
	DB	068H
	DB	07dH
	DB	0d0H
	DB	0b4H
	DB	068H
	DB	07dH
	DB	0d0H
	DB	0b4H
	DB	068H
	DB	07dH
	DB	0d0H
	DB	0b4H
	DB	068H
	DB	07dH
	DB	0d0H
	DB	0b4H
	DB	068H
	DB	07dH
	DB	0d0H
	DB	0b8H
	DB	068H
	DB	07dH
	DB	0d0H
	DB	0b8H
	DB	068H
	DB	082H
	DB	0d0H
	DB	0b8H
	DB	068H
	DB	07dH
	DB	0d0H
	DB	0b8H
	DB	068H
	DB	082H
	DB	0d0H
	DB	0b8H
	DB	068H
	DB	082H
	DB	0d0H
	DB	0b8H
	DB	070H
	DB	082H
	DB	0d0H
	DB	0b8H
	DB	070H
	DB	082H
	DB	0d8H
	DB	0bcH
	DB	070H
	DB	082H
	DB	0d0H
	DB	0b8H
	DB	070H
	DB	082H
	DB	0d0H
	DB	0b8H
	DB	070H
	DB	082H
	DB	0d0H
	DB	0bcH
	DB	070H
	DB	086H
	DB	0d8H
	DB	0bcH
	DB	070H
	DB	082H
	DB	0d8H
	DB	0bcH
	DB	070H
	DB	086H
	DB	0d0H
	DB	0bcH
	DB	070H
	DB	086H
	DB	0d8H
	DB	0b8H
	DB	070H
	DB	086H
	DB	0d0H
	DB	0b8H
	DB	068H
	DB	086H
	DB	0d0H
	DB	0b8H
	DB	068H
	DB	086H
	DB	0d0H
	DB	0b8H
	DB	068H
	DB	086H
	DB	0d8H
	DB	0c4H
	DB	080H
	DB	086H
	DB	0d8H
	DB	0c4H
	DB	080H
	DB	08aH
	DB	0d8H
	DB	0c0H
	DB	078H
	DB	086H
	DB	0d8H
	DB	0bcH
	DB	070H
	DB	08aH
	DB	0d8H
	DB	0bcH
	DB	070H
	DB	08aH
	DB	0d8H
	DB	0c0H
	DB	078H
	DB	08aH
	DB	0d8H
	DB	0c0H
	DB	078H
	DB	08aH
	DB	0d8H
	DB	0c0H
	DB	078H
	DB	08aH
	DB	0d8H
	DB	0c4H
	DB	080H
	DB	08aH
	DB	0d8H
	DB	0c4H
	DB	078H
	DB	08aH
	DB	0d8H
	DB	0c0H
	DB	078H
	DB	08aH
	DB	0d8H
	DB	0c0H
	DB	078H
	DB	08aH
	DB	0d8H
	DB	0c0H
	DB	078H
	DB	08eH
	DB	0d8H
	DB	0c0H
	DB	078H
	DB	08eH
	DB	0d8H
	DB	0c0H
	DB	078H
	DB	08eH
	DB	0d0H
	DB	0c0H
	DB	078H
	DB	08eH
	DB	0d8H
	DB	0c0H
	DB	078H
	DB	08eH
	DB	0d8H
	DB	0c0H
	DB	078H
	DB	08eH
	DB	0d8H
	DB	0c0H
	DB	078H
	DB	08eH
	DB	0d8H
	DB	0c4H
	DB	078H
	DB	092H
	DB	0d8H
	DB	0c0H
	DB	078H
	DB	08eH
	DB	0d8H
	DB	0c0H
	DB	078H
	DB	08eH
	DB	0d8H
	DB	0c0H
	DB	078H
	DB	092H
	DB	0d8H
	DB	0c0H
	DB	070H
	DB	08eH
	DB	0d8H
	DB	0bcH
	DB	070H
	DB	092H
	DB	0d8H
	DB	0b8H
	DB	068H
	DB	08eH
	DB	0d0H
	DB	0b8H
	DB	068H
	DB	092H
	DB	0d0H
	DB	0b4H
	DB	068H
	DB	092H
	DB	0d0H
	DB	0b4H
	DB	060H
	DB	08eH
	DB	0d0H
	DB	0b8H
	DB	068H
	DB	092H
	DB	0d0H
	DB	0b4H
	DB	068H
	DB	092H
	DB	0b0H
	DB	098H
	DB	048H
	DB	092H
	DB	0b8H
	DB	0a0H
	DB	050H
	DB	092H
	DB	0c8H
	DB	0a8H
	DB	058H
	DB	092H
	DB	0c8H
	DB	0b0H
	DB	060H
	DB	092H
	DB	0d0H
	DB	0bcH
	DB	070H
	DB	092H
	DB	0d0H
	DB	0bcH
	DB	070H
	DB	092H
	DB	0d0H
	DB	0bcH
	DB	070H
	DB	092H
	DB	0d8H
	DB	0bcH
	DB	070H
	DB	092H
	DB	0d8H
	DB	0c0H
	DB	070H
	DB	092H
	DB	0d0H
	DB	0b8H
	DB	070H
	DB	086H
	DB	0d0H
	DB	0b8H
	DB	070H
	DB	079H
	DB	0d0H
	DB	0b8H
	DB	070H
	DB	061H
	DB	0d0H
	DB	0b8H
	DB	078H
	DB	03cH
	DB	0d0H
	DB	0bcH
	DB	078H
	DB	08H
	DB	0f8H
	DB	0fcH
	DB	0f8H
	DB	00H
	DB	0f8H
	DB	0fcH
	DB	0f8H
	DB	00H
	DB	0f8H
	DB	0fcH
	DB	0f8H
	DB	00H
	DB	0f8H
	DB	0fcH
	DB	0f8H
	DB	00H
	DB	0f8H
	DB	0fcH
	DB	0f8H
	DB	00H
	DB	0f8H
	DB	0fcH
	DB	0f8H
	DB	00H
	DB	0f8H
	DB	0fcH
	DB	0f8H
	DB	00H
	DB	0f8H
	DB	0fcH
	DB	0f8H
	DB	00H
	DB	0f8H
	DB	0fcH
	DB	0f8H
	DB	00H
	DB	0f8H
	DB	0fcH
	DB	0f8H
	DB	00H
	DB	0f8H
	DB	0fcH
	DB	0f8H
	DB	00H
	DB	0f8H
	DB	0fcH
	DB	0f8H
	DB	00H
	DB	0f8H
	DB	0fcH
	DB	0f8H
	DB	00H
	DB	0f8H
	DB	0fcH
	DB	0f8H
	DB	00H
	DB	0f8H
	DB	0fcH
	DB	0f8H
	DB	00H
	DB	0f8H
	DB	0fcH
	DB	0f8H
	DB	00H
	DB	0f8H
	DB	0fcH
	DB	0f8H
	DB	00H
	DB	0f8H
	DB	0fcH
	DB	0f8H
	DB	00H
	DB	0f8H
	DB	0fcH
	DB	0f8H
	DB	00H
	DB	0f8H
	DB	0fcH
	DB	0f8H
	DB	00H
	DB	0f8H
	DB	0fcH
	DB	0f8H
	DB	00H
	DB	0f8H
	DB	0fcH
	DB	0f8H
	DB	00H
	DB	0f8H
	DB	0fcH
	DB	0f8H
	DB	00H
	DB	0f8H
	DB	0fcH
	DB	0f8H
	DB	00H
	DB	0f8H
	DB	0fcH
	DB	0f8H
	DB	00H
	DB	0f8H
	DB	0fcH
	DB	0f8H
	DB	00H
	DB	0f8H
	DB	0fcH
	DB	0f8H
	DB	00H
	DB	0f8H
	DB	0fcH
	DB	0f8H
	DB	00H
	DB	0f8H
	DB	0fcH
	DB	0f8H
	DB	00H
	DB	0f8H
	DB	0fcH
	DB	0f8H
	DB	00H
	DB	0f8H
	DB	0fcH
	DB	0f8H
	DB	00H
	DB	0f8H
	DB	0fcH
	DB	0f8H
	DB	00H
	DB	0f8H
	DB	0fcH
	DB	0f8H
	DB	00H
	DB	0f8H
	DB	0fcH
	DB	0f8H
	DB	00H
	DB	0f8H
	DB	0fcH
	DB	0f8H
	DB	00H
	DB	0f8H
	DB	0fcH
	DB	0f8H
	DB	00H
	DB	0f8H
	DB	0fcH
	DB	0f8H
	DB	00H
	DB	0f8H
	DB	0fcH
	DB	0f8H
	DB	00H
	DB	0f8H
	DB	0fcH
	DB	0f8H
	DB	00H
	DB	0f8H
	DB	0fcH
	DB	0f8H
	DB	00H
	DB	0f8H
	DB	0fcH
	DB	0f8H
	DB	00H
	DB	0f8H
	DB	0fcH
	DB	0f8H
	DB	00H
	DB	0f8H
	DB	0fcH
	DB	0f8H
	DB	00H
	DB	0f8H
	DB	0fcH
	DB	0f8H
	DB	00H
	DB	0f8H
	DB	0fcH
	DB	0f8H
	DB	00H
	DB	0f8H
	DB	0fcH
	DB	0f8H
	DB	00H
	DB	0f8H
	DB	0fcH
	DB	0f8H
	DB	00H
	DB	0f8H
	DB	0fcH
	DB	0f8H
	DB	00H
	DB	0f8H
	DB	0fcH
	DB	0f8H
	DB	00H
	DB	0f8H
	DB	0fcH
	DB	0f8H
	DB	00H
	DB	0f8H
	DB	0fcH
	DB	0f8H
	DB	00H
	DB	0f8H
	DB	0fcH
	DB	0f8H
	DB	00H
	DB	0f8H
	DB	0fcH
	DB	0f8H
	DB	00H
	DB	0f8H
	DB	0fcH
	DB	0f8H
	DB	00H
	DB	0f8H
	DB	0fcH
	DB	0f8H
	DB	00H
	DB	0f8H
	DB	0fcH
	DB	0f8H
	DB	00H
	DB	0f8H
	DB	0fcH
	DB	0f8H
	DB	00H
	DB	0f8H
	DB	0fcH
	DB	0f8H
	DB	00H
	DB	0f8H
	DB	0fcH
	DB	0f8H
	DB	00H
	DB	0f8H
	DB	0fcH
	DB	0f8H
	DB	00H
	DB	0f8H
	DB	0fcH
	DB	0f8H
	DB	00H
	DB	0f8H
	DB	0fcH
	DB	0f8H
	DB	00H
	DB	0f8H
	DB	0fcH
	DB	0f8H
	DB	00H
	DB	0f8H
	DB	0fcH
	DB	0f8H
	DB	00H
	DB	0f8H
	DB	0fcH
	DB	0f8H
	DB	00H
	DB	0f8H
	DB	0fcH
	DB	0f8H
	DB	00H
	DB	0f8H
	DB	0fcH
	DB	0f8H
	DB	00H
	DB	0f8H
	DB	0fcH
	DB	0f8H
	DB	00H
	DB	0f8H
	DB	0fcH
	DB	0f8H
	DB	00H
	DB	0f8H
	DB	0fcH
	DB	0f8H
	DB	00H
	DB	0f8H
	DB	0fcH
	DB	0f8H
	DB	00H
	DB	0f8H
	DB	0fcH
	DB	0f8H
	DB	00H
	DB	0f8H
	DB	0fcH
	DB	0f8H
	DB	00H
	DB	0f8H
	DB	0fcH
	DB	0f8H
	DB	00H
	DB	0f8H
	DB	0fcH
	DB	0f8H
	DB	00H
	DB	0f8H
	DB	0fcH
	DB	0f8H
	DB	00H
	DB	0f8H
	DB	0fcH
	DB	0f8H
	DB	00H
	DB	0f8H
	DB	0fcH
	DB	0f8H
	DB	00H
	DB	0f8H
	DB	0fcH
	DB	0f8H
	DB	00H
	DB	0f8H
	DB	0fcH
	DB	0f8H
	DB	00H
	DB	0f8H
	DB	0fcH
	DB	0f8H
	DB	00H
	DB	0f8H
	DB	0fcH
	DB	0f8H
	DB	00H
	DB	0f8H
	DB	0fcH
	DB	0f8H
	DB	00H
	DB	0f8H
	DB	0fcH
	DB	0f8H
	DB	00H
	DB	0f8H
	DB	0fcH
	DB	0f8H
	DB	00H
	DB	0f8H
	DB	0fcH
	DB	0f8H
	DB	00H
	DB	0f8H
	DB	0fcH
	DB	0f8H
	DB	00H
	DB	0f8H
	DB	0fcH
	DB	0f8H
	DB	00H
	DB	0f8H
	DB	0fcH
	DB	0f8H
	DB	00H
	DB	0f8H
	DB	0fcH
	DB	0f8H
	DB	00H
	DB	0f8H
	DB	0fcH
	DB	0f8H
	DB	00H
	DB	0f8H
	DB	0fcH
	DB	0f8H
	DB	00H
	DB	0f8H
	DB	0fcH
	DB	0f8H
	DB	00H
	DB	0f8H
	DB	0fcH
	DB	0f8H
	DB	00H
	DB	0f8H
	DB	0fcH
	DB	0f8H
	DB	00H
	DB	0f8H
	DB	0fcH
	DB	0f8H
	DB	00H
	DB	0f8H
	DB	0fcH
	DB	0f8H
	DB	00H
	DB	0f8H
	DB	0fcH
	DB	0f8H
	DB	00H
	DB	0f8H
	DB	0fcH
	DB	0f8H
	DB	00H
	DB	0f8H
	DB	0fcH
	DB	0f8H
	DB	00H
	DB	0f8H
	DB	0fcH
	DB	0f8H
	DB	00H
	DB	0f8H
	DB	0fcH
	DB	0f8H
	DB	00H
	DB	0f8H
	DB	0fcH
	DB	0f8H
	DB	00H
	DB	0f8H
	DB	0fcH
	DB	0f8H
	DB	00H
	DB	0f8H
	DB	0fcH
	DB	0f8H
	DB	00H
	DB	0f8H
	DB	0fcH
	DB	0f8H
	DB	00H
	DB	0f8H
	DB	0fcH
	DB	0f8H
	DB	00H
	DB	0f8H
	DB	0fcH
	DB	0f8H
	DB	00H
	DB	0f8H
	DB	0fcH
	DB	0f8H
	DB	00H
	DB	0f8H
	DB	0fcH
	DB	0f8H
	DB	00H
	DB	0f8H
	DB	0fcH
	DB	0f8H
	DB	00H
	DB	0f8H
	DB	0fcH
	DB	0f8H
	DB	00H
	DB	0f8H
	DB	0fcH
	DB	0f8H
	DB	00H
	DB	0f8H
	DB	0fcH
	DB	0f8H
	DB	00H
	DB	0f8H
	DB	0fcH
	DB	0f8H
	DB	00H
	DB	0f8H
	DB	0fcH
	DB	0f8H
	DB	00H
	DB	0f8H
	DB	0fcH
	DB	0f8H
	DB	00H
	DB	0f8H
	DB	0fcH
	DB	0f8H
	DB	00H
	DB	0f8H
	DB	0fcH
	DB	0f8H
	DB	00H
	DB	0f8H
	DB	0fcH
	DB	0f8H
	DB	00H
	DB	0f8H
	DB	0fcH
	DB	0f8H
	DB	00H
	DB	0f8H
	DB	0fcH
	DB	0f8H
	DB	00H
	DB	0f8H
	DB	0fcH
	DB	0f8H
	DB	00H
	DB	0f8H
	DB	0fcH
	DB	0f8H
	DB	00H
	DB	0f8H
	DB	0fcH
	DB	0f8H
	DB	00H
	DB	0f8H
	DB	0fcH
	DB	0f8H
	DB	00H
	DB	0f8H
	DB	0fcH
	DB	0f8H
	DB	00H
	DB	0f8H
	DB	0fcH
	DB	0f8H
	DB	00H
	DB	0f8H
	DB	0fcH
	DB	0f8H
	DB	00H
	DB	0f8H
	DB	0fcH
	DB	0f8H
	DB	00H
	DB	0f8H
	DB	0fcH
	DB	0f8H
	DB	00H
	DB	0f8H
	DB	0fcH
	DB	0f8H
	DB	00H
	DB	0f8H
	DB	0fcH
	DB	0f8H
	DB	00H
	DB	0f8H
	DB	0fcH
	DB	0f8H
	DB	00H
	DB	0f8H
	DB	0fcH
	DB	0f8H
	DB	00H
	DB	0f8H
	DB	0fcH
	DB	0f8H
	DB	00H
	DB	0f8H
	DB	0fcH
	DB	0f8H
	DB	00H
	DB	0f8H
	DB	0fcH
	DB	0f8H
	DB	00H
	DB	0f8H
	DB	0fcH
	DB	0f8H
	DB	00H
	DB	0f8H
	DB	0fcH
	DB	0f8H
	DB	00H
	DB	0f8H
	DB	0fcH
	DB	0f8H
	DB	00H
	DB	0f8H
	DB	0fcH
	DB	0f8H
	DB	00H
	DB	0f8H
	DB	0fcH
	DB	0f8H
	DB	00H
	DB	0f8H
	DB	0fcH
	DB	0f8H
	DB	00H
	DB	0f8H
	DB	0fcH
	DB	0f8H
	DB	00H
	DB	0f8H
	DB	0fcH
	DB	0f8H
	DB	00H
	DB	0f8H
	DB	0fcH
	DB	0f8H
	DB	00H
	DB	0f8H
	DB	0fcH
	DB	0f8H
	DB	00H
	DB	0f8H
	DB	0fcH
	DB	0f8H
	DB	00H
	DB	0f8H
	DB	0fcH
	DB	0f8H
	DB	00H
	DB	0f8H
	DB	0fcH
	DB	0f8H
	DB	00H
	DB	0f8H
	DB	0fcH
	DB	0f8H
	DB	00H
	DB	0f8H
	DB	0fcH
	DB	0f8H
	DB	00H
	DB	0f8H
	DB	0fcH
	DB	0f8H
	DB	00H
	DB	0f8H
	DB	0fcH
	DB	0f8H
	DB	00H
	DB	0f8H
	DB	0fcH
	DB	0f8H
	DB	00H
	DB	0f8H
	DB	0fcH
	DB	0f8H
	DB	00H
	DB	0f8H
	DB	0fcH
	DB	0f8H
	DB	00H
	DB	0f8H
	DB	0fcH
	DB	0f8H
	DB	00H
	DB	0f8H
	DB	0fcH
	DB	0f8H
	DB	00H
	DB	0f8H
	DB	0fcH
	DB	0f8H
	DB	00H
	DB	0f8H
	DB	0fcH
	DB	0f8H
	DB	00H
	DB	0f8H
	DB	0fcH
	DB	0f8H
	DB	00H
	DB	0f8H
	DB	0fcH
	DB	0f8H
	DB	00H
	DB	0f8H
	DB	0fcH
	DB	0f8H
	DB	00H
	DB	0f8H
	DB	0fcH
	DB	0f8H
	DB	00H
	DB	0f8H
	DB	0fcH
	DB	0f8H
	DB	00H
	DB	0f8H
	DB	0fcH
	DB	0f8H
	DB	00H
	DB	0f8H
	DB	0fcH
	DB	0f8H
	DB	00H
	DB	0f8H
	DB	0fcH
	DB	0f8H
	DB	00H
	DB	0f8H
	DB	0fcH
	DB	0f8H
	DB	00H
	DB	0f8H
	DB	0fcH
	DB	0f8H
	DB	00H
	DB	0f8H
	DB	0fcH
	DB	0f8H
	DB	00H
	DB	0c0H
	DB	0a4H
	DB	058H
	DB	010H
	DB	0c0H
	DB	0a4H
	DB	058H
	DB	041H
	DB	0c0H
	DB	0a4H
	DB	050H
	DB	061H
	DB	0c8H
	DB	0a4H
	DB	050H
	DB	06dH
	DB	0c8H
	DB	0a4H
	DB	050H
	DB	075H
	DB	0c8H
	DB	0a8H
	DB	058H
	DB	075H
	DB	0c8H
	DB	0a8H
	DB	050H
	DB	075H
	DB	0c8H
	DB	0a8H
	DB	050H
	DB	075H
	DB	0c0H
	DB	0a8H
	DB	050H
	DB	075H
	DB	0c0H
	DB	0a4H
	DB	050H
	DB	075H
	DB	0c0H
	DB	0a4H
	DB	050H
	DB	075H
	DB	0c8H
	DB	0a4H
	DB	050H
	DB	075H
	DB	0c0H
	DB	0a4H
	DB	050H
	DB	075H
	DB	0c8H
	DB	0a8H
	DB	050H
	DB	079H
	DB	0c8H
	DB	0a8H
	DB	058H
	DB	079H
	DB	0d0H
	DB	0b0H
	DB	060H
	DB	079H
	DB	0d0H
	DB	0b4H
	DB	060H
	DB	079H
	DB	0d0H
	DB	0b4H
	DB	068H
	DB	079H
	DB	0d0H
	DB	0b4H
	DB	068H
	DB	07dH
	DB	0d0H
	DB	0b4H
	DB	068H
	DB	07dH
	DB	0d0H
	DB	0b4H
	DB	068H
	DB	079H
	DB	0d0H
	DB	0b8H
	DB	068H
	DB	079H
	DB	0d0H
	DB	0b8H
	DB	068H
	DB	07dH
	DB	0d0H
	DB	0b8H
	DB	068H
	DB	07dH
	DB	0d0H
	DB	0b4H
	DB	068H
	DB	07dH
	DB	0d0H
	DB	0b4H
	DB	068H
	DB	07dH
	DB	0d0H
	DB	0b8H
	DB	068H
	DB	07dH
	DB	0d0H
	DB	0b4H
	DB	068H
	DB	07dH
	DB	0d0H
	DB	0b8H
	DB	068H
	DB	082H
	DB	0d0H
	DB	0b8H
	DB	068H
	DB	07dH
	DB	0d0H
	DB	0b8H
	DB	068H
	DB	082H
	DB	0d8H
	DB	0b8H
	DB	068H
	DB	082H
	DB	0d8H
	DB	0b8H
	DB	070H
	DB	07dH
	DB	0d0H
	DB	0b8H
	DB	070H
	DB	082H
	DB	0d0H
	DB	0b8H
	DB	068H
	DB	082H
	DB	0d8H
	DB	0b8H
	DB	068H
	DB	082H
	DB	0d8H
	DB	0bcH
	DB	070H
	DB	082H
	DB	0d0H
	DB	0bcH
	DB	070H
	DB	082H
	DB	0d8H
	DB	0bcH
	DB	070H
	DB	082H
	DB	0d0H
	DB	0bcH
	DB	068H
	DB	086H
	DB	0d8H
	DB	0bcH
	DB	070H
	DB	082H
	DB	0d8H
	DB	0bcH
	DB	070H
	DB	082H
	DB	0d0H
	DB	0bcH
	DB	070H
	DB	086H
	DB	0d0H
	DB	0bcH
	DB	070H
	DB	086H
	DB	0d0H
	DB	0bcH
	DB	070H
	DB	086H
	DB	0d0H
	DB	0b8H
	DB	070H
	DB	086H
	DB	0d0H
	DB	0b8H
	DB	068H
	DB	086H
	DB	0d0H
	DB	0bcH
	DB	070H
	DB	086H
	DB	0d0H
	DB	0bcH
	DB	078H
	DB	08aH
	DB	0d8H
	DB	0c0H
	DB	080H
	DB	086H
	DB	0d0H
	DB	0bcH
	DB	070H
	DB	086H
	DB	0d8H
	DB	0c0H
	DB	070H
	DB	08aH
	DB	0d8H
	DB	0c0H
	DB	078H
	DB	08aH
	DB	0d8H
	DB	0c0H
	DB	078H
	DB	08aH
	DB	0d8H
	DB	0c4H
	DB	078H
	DB	08aH
	DB	0d8H
	DB	0c4H
	DB	078H
	DB	08aH
	DB	0d8H
	DB	0c0H
	DB	078H
	DB	08aH
	DB	0d8H
	DB	0c0H
	DB	078H
	DB	08aH
	DB	0d8H
	DB	0c0H
	DB	078H
	DB	08eH
	DB	0d8H
	DB	0c0H
	DB	078H
	DB	08aH
	DB	0d8H
	DB	0c0H
	DB	078H
	DB	08eH
	DB	0d8H
	DB	0c0H
	DB	078H
	DB	08eH
	DB	0d8H
	DB	0c0H
	DB	078H
	DB	08eH
	DB	0d8H
	DB	0c0H
	DB	080H
	DB	08eH
	DB	0d8H
	DB	0c4H
	DB	078H
	DB	08eH
	DB	0d8H
	DB	0c4H
	DB	080H
	DB	08eH
	DB	0d8H
	DB	0c4H
	DB	080H
	DB	08eH
	DB	0d8H
	DB	0c0H
	DB	078H
	DB	092H
	DB	0d8H
	DB	0c0H
	DB	078H
	DB	092H
	DB	0d8H
	DB	0c0H
	DB	078H
	DB	08eH
	DB	0d8H
	DB	0c0H
	DB	078H
	DB	092H
	DB	0d8H
	DB	0c0H
	DB	070H
	DB	092H
	DB	0d8H
	DB	0bcH
	DB	070H
	DB	092H
	DB	0d0H
	DB	0b8H
	DB	068H
	DB	08eH
	DB	0d0H
	DB	0b8H
	DB	068H
	DB	092H
	DB	0d0H
	DB	0b4H
	DB	060H
	DB	092H
	DB	0d0H
	DB	0b4H
	DB	068H
	DB	092H
	DB	0d0H
	DB	0b8H
	DB	068H
	DB	092H
	DB	0b0H
	DB	094H
	DB	048H
	DB	092H
	DB	0d0H
	DB	0b0H
	DB	060H
	DB	092H
	DB	0d0H
	DB	0bcH
	DB	070H
	DB	092H
	DB	0d0H
	DB	0bcH
	DB	070H
	DB	092H
	DB	0d8H
	DB	0c4H
	DB	080H
	DB	092H
	DB	0d8H
	DB	0c4H
	DB	088H
	DB	092H
	DB	0d8H
	DB	0c0H
	DB	078H
	DB	092H
	DB	0d8H
	DB	0c0H
	DB	070H
	DB	092H
	DB	0d8H
	DB	0c0H
	DB	070H
	DB	092H
	DB	0d8H
	DB	0c0H
	DB	078H
	DB	092H
	DB	0d0H
	DB	0bcH
	DB	070H
	DB	092H
	DB	0d8H
	DB	0c4H
	DB	078H
	DB	092H
	DB	0e0H
	DB	0c4H
	DB	078H
	DB	092H
	DB	0d8H
	DB	0bcH
	DB	070H
	DB	092H
	DB	0d0H
	DB	0b8H
	DB	068H
	DB	086H
	DB	0d0H
	DB	0b8H
	DB	068H
	DB	079H
	DB	0d0H
	DB	0b4H
	DB	070H
	DB	05dH
	DB	0d8H
	DB	0c4H
	DB	080H
	DB	02cH
	DB	0f8H
	DB	0fcH
	DB	0f8H
	DB	00H
	DB	0f8H
	DB	0fcH
	DB	0f8H
	DB	00H
	DB	0f8H
	DB	0fcH
	DB	0f8H
	DB	00H
	DB	0f8H
	DB	0fcH
	DB	0f8H
	DB	00H
	DB	0f8H
	DB	0fcH
	DB	0f8H
	DB	00H
	DB	0f8H
	DB	0fcH
	DB	0f8H
	DB	00H
	DB	0f8H
	DB	0fcH
	DB	0f8H
	DB	00H
	DB	0f8H
	DB	0fcH
	DB	0f8H
	DB	00H
	DB	0f8H
	DB	0fcH
	DB	0f8H
	DB	00H
	DB	0f8H
	DB	0fcH
	DB	0f8H
	DB	00H
	DB	0f8H
	DB	0fcH
	DB	0f8H
	DB	00H
	DB	0f8H
	DB	0fcH
	DB	0f8H
	DB	00H
	DB	0f8H
	DB	0fcH
	DB	0f8H
	DB	00H
	DB	0f8H
	DB	0fcH
	DB	0f8H
	DB	00H
	DB	0f8H
	DB	0fcH
	DB	0f8H
	DB	00H
	DB	0f8H
	DB	0fcH
	DB	0f8H
	DB	00H
	DB	0f8H
	DB	0fcH
	DB	0f8H
	DB	00H
	DB	0f8H
	DB	0fcH
	DB	0f8H
	DB	00H
	DB	0f8H
	DB	0fcH
	DB	0f8H
	DB	00H
	DB	0f8H
	DB	0fcH
	DB	0f8H
	DB	00H
	DB	0f8H
	DB	0fcH
	DB	0f8H
	DB	00H
	DB	0f8H
	DB	0fcH
	DB	0f8H
	DB	00H
	DB	0f8H
	DB	0fcH
	DB	0f8H
	DB	00H
	DB	0f8H
	DB	0fcH
	DB	0f8H
	DB	00H
	DB	0f8H
	DB	0fcH
	DB	0f8H
	DB	00H
	DB	0f8H
	DB	0fcH
	DB	0f8H
	DB	00H
	DB	0f8H
	DB	0fcH
	DB	0f8H
	DB	00H
	DB	0f8H
	DB	0fcH
	DB	0f8H
	DB	00H
	DB	0f8H
	DB	0fcH
	DB	0f8H
	DB	00H
	DB	0f8H
	DB	0fcH
	DB	0f8H
	DB	00H
	DB	0f8H
	DB	0fcH
	DB	0f8H
	DB	00H
	DB	0f8H
	DB	0fcH
	DB	0f8H
	DB	00H
	DB	0f8H
	DB	0fcH
	DB	0f8H
	DB	00H
	DB	0f8H
	DB	0fcH
	DB	0f8H
	DB	00H
	DB	0f8H
	DB	0fcH
	DB	0f8H
	DB	00H
	DB	0f8H
	DB	0fcH
	DB	0f8H
	DB	00H
	DB	0f8H
	DB	0fcH
	DB	0f8H
	DB	00H
	DB	0f8H
	DB	0fcH
	DB	0f8H
	DB	00H
	DB	0f8H
	DB	0fcH
	DB	0f8H
	DB	00H
	DB	0f8H
	DB	0fcH
	DB	0f8H
	DB	00H
	DB	0f8H
	DB	0fcH
	DB	0f8H
	DB	00H
	DB	0f8H
	DB	0fcH
	DB	0f8H
	DB	00H
	DB	0f8H
	DB	0fcH
	DB	0f8H
	DB	00H
	DB	0f8H
	DB	0fcH
	DB	0f8H
	DB	00H
	DB	0f8H
	DB	0fcH
	DB	0f8H
	DB	00H
	DB	0f8H
	DB	0fcH
	DB	0f8H
	DB	00H
	DB	0f8H
	DB	0fcH
	DB	0f8H
	DB	00H
	DB	0f8H
	DB	0fcH
	DB	0f8H
	DB	00H
	DB	0f8H
	DB	0fcH
	DB	0f8H
	DB	00H
	DB	0f8H
	DB	0fcH
	DB	0f8H
	DB	00H
	DB	0f8H
	DB	0fcH
	DB	0f8H
	DB	00H
	DB	0f8H
	DB	0fcH
	DB	0f8H
	DB	00H
	DB	0f8H
	DB	0fcH
	DB	0f8H
	DB	00H
	DB	0f8H
	DB	0fcH
	DB	0f8H
	DB	00H
	DB	0f8H
	DB	0fcH
	DB	0f8H
	DB	00H
	DB	0f8H
	DB	0fcH
	DB	0f8H
	DB	00H
	DB	0f8H
	DB	0fcH
	DB	0f8H
	DB	00H
	DB	0f8H
	DB	0fcH
	DB	0f8H
	DB	00H
	DB	0f8H
	DB	0fcH
	DB	0f8H
	DB	00H
	DB	0f8H
	DB	0fcH
	DB	0f8H
	DB	00H
	DB	0f8H
	DB	0fcH
	DB	0f8H
	DB	00H
	DB	0f8H
	DB	0fcH
	DB	0f8H
	DB	00H
	DB	0f8H
	DB	0fcH
	DB	0f8H
	DB	00H
	DB	0f8H
	DB	0fcH
	DB	0f8H
	DB	00H
	DB	0f8H
	DB	0fcH
	DB	0f8H
	DB	00H
	DB	0f8H
	DB	0fcH
	DB	0f8H
	DB	00H
	DB	0f8H
	DB	0fcH
	DB	0f8H
	DB	00H
	DB	0f8H
	DB	0fcH
	DB	0f8H
	DB	00H
	DB	0f8H
	DB	0fcH
	DB	0f8H
	DB	00H
	DB	0f8H
	DB	0fcH
	DB	0f8H
	DB	00H
	DB	0f8H
	DB	0fcH
	DB	0f8H
	DB	00H
	DB	0f8H
	DB	0fcH
	DB	0f8H
	DB	00H
	DB	0f8H
	DB	0fcH
	DB	0f8H
	DB	00H
	DB	0f8H
	DB	0fcH
	DB	0f8H
	DB	00H
	DB	0f8H
	DB	0fcH
	DB	0f8H
	DB	00H
	DB	0f8H
	DB	0fcH
	DB	0f8H
	DB	00H
	DB	0f8H
	DB	0fcH
	DB	0f8H
	DB	00H
	DB	0f8H
	DB	0fcH
	DB	0f8H
	DB	00H
	DB	0f8H
	DB	0fcH
	DB	0f8H
	DB	00H
	DB	0f8H
	DB	0fcH
	DB	0f8H
	DB	00H
	DB	0f8H
	DB	0fcH
	DB	0f8H
	DB	00H
	DB	0f8H
	DB	0fcH
	DB	0f8H
	DB	00H
	DB	0f8H
	DB	0fcH
	DB	0f8H
	DB	00H
	DB	0f8H
	DB	0fcH
	DB	0f8H
	DB	00H
	DB	0f8H
	DB	0fcH
	DB	0f8H
	DB	00H
	DB	0f8H
	DB	0fcH
	DB	0f8H
	DB	00H
	DB	0f8H
	DB	0fcH
	DB	0f8H
	DB	00H
	DB	0f8H
	DB	0fcH
	DB	0f8H
	DB	00H
	DB	0f8H
	DB	0fcH
	DB	0f8H
	DB	00H
	DB	0f8H
	DB	0fcH
	DB	0f8H
	DB	00H
	DB	0f8H
	DB	0fcH
	DB	0f8H
	DB	00H
	DB	0f8H
	DB	0fcH
	DB	0f8H
	DB	00H
	DB	0f8H
	DB	0fcH
	DB	0f8H
	DB	00H
	DB	0f8H
	DB	0fcH
	DB	0f8H
	DB	00H
	DB	0f8H
	DB	0fcH
	DB	0f8H
	DB	00H
	DB	0f8H
	DB	0fcH
	DB	0f8H
	DB	00H
	DB	0f8H
	DB	0fcH
	DB	0f8H
	DB	00H
	DB	0f8H
	DB	0fcH
	DB	0f8H
	DB	00H
	DB	0f8H
	DB	0fcH
	DB	0f8H
	DB	00H
	DB	0f8H
	DB	0fcH
	DB	0f8H
	DB	00H
	DB	0f8H
	DB	0fcH
	DB	0f8H
	DB	00H
	DB	0f8H
	DB	0fcH
	DB	0f8H
	DB	00H
	DB	0f8H
	DB	0fcH
	DB	0f8H
	DB	00H
	DB	0f8H
	DB	0fcH
	DB	0f8H
	DB	00H
	DB	0f8H
	DB	0fcH
	DB	0f8H
	DB	00H
	DB	0f8H
	DB	0fcH
	DB	0f8H
	DB	00H
	DB	0f8H
	DB	0fcH
	DB	0f8H
	DB	00H
	DB	0f8H
	DB	0fcH
	DB	0f8H
	DB	00H
	DB	0f8H
	DB	0fcH
	DB	0f8H
	DB	00H
	DB	0f8H
	DB	0fcH
	DB	0f8H
	DB	00H
	DB	0f8H
	DB	0fcH
	DB	0f8H
	DB	00H
	DB	0f8H
	DB	0fcH
	DB	0f8H
	DB	00H
	DB	0f8H
	DB	0fcH
	DB	0f8H
	DB	00H
	DB	0f8H
	DB	0fcH
	DB	0f8H
	DB	00H
	DB	0f8H
	DB	0fcH
	DB	0f8H
	DB	00H
	DB	0f8H
	DB	0fcH
	DB	0f8H
	DB	00H
	DB	0f8H
	DB	0fcH
	DB	0f8H
	DB	00H
	DB	0f8H
	DB	0fcH
	DB	0f8H
	DB	00H
	DB	0f8H
	DB	0fcH
	DB	0f8H
	DB	00H
	DB	0f8H
	DB	0fcH
	DB	0f8H
	DB	00H
	DB	0f8H
	DB	0fcH
	DB	0f8H
	DB	00H
	DB	0f8H
	DB	0fcH
	DB	0f8H
	DB	00H
	DB	0f8H
	DB	0fcH
	DB	0f8H
	DB	00H
	DB	0f8H
	DB	0fcH
	DB	0f8H
	DB	00H
	DB	0f8H
	DB	0fcH
	DB	0f8H
	DB	00H
	DB	0f8H
	DB	0fcH
	DB	0f8H
	DB	00H
	DB	0f8H
	DB	0fcH
	DB	0f8H
	DB	00H
	DB	0f8H
	DB	0fcH
	DB	0f8H
	DB	00H
	DB	0f8H
	DB	0fcH
	DB	0f8H
	DB	00H
	DB	0f8H
	DB	0fcH
	DB	0f8H
	DB	00H
	DB	0f8H
	DB	0fcH
	DB	0f8H
	DB	00H
	DB	0f8H
	DB	0fcH
	DB	0f8H
	DB	00H
	DB	0f8H
	DB	0fcH
	DB	0f8H
	DB	00H
	DB	0f8H
	DB	0fcH
	DB	0f8H
	DB	00H
	DB	0f8H
	DB	0fcH
	DB	0f8H
	DB	00H
	DB	0f8H
	DB	0fcH
	DB	0f8H
	DB	00H
	DB	0f8H
	DB	0fcH
	DB	0f8H
	DB	00H
	DB	0f8H
	DB	0fcH
	DB	0f8H
	DB	00H
	DB	0f8H
	DB	0fcH
	DB	0f8H
	DB	00H
	DB	0f8H
	DB	0fcH
	DB	0f8H
	DB	00H
	DB	0f8H
	DB	0fcH
	DB	0f8H
	DB	00H
	DB	0f8H
	DB	0fcH
	DB	0f8H
	DB	00H
	DB	0f8H
	DB	0fcH
	DB	0f8H
	DB	00H
	DB	0f8H
	DB	0fcH
	DB	0f8H
	DB	00H
	DB	0f8H
	DB	0fcH
	DB	0f8H
	DB	00H
	DB	0f8H
	DB	0fcH
	DB	0f8H
	DB	00H
	DB	0f8H
	DB	0fcH
	DB	0f8H
	DB	00H
	DB	0f8H
	DB	0fcH
	DB	0f8H
	DB	00H
	DB	0f8H
	DB	0fcH
	DB	0f8H
	DB	00H
	DB	0f8H
	DB	0fcH
	DB	0f8H
	DB	00H
	DB	0f8H
	DB	0fcH
	DB	0f8H
	DB	00H
	DB	0f8H
	DB	0fcH
	DB	0f8H
	DB	00H
	DB	0f8H
	DB	0fcH
	DB	0f8H
	DB	00H
	DB	0f8H
	DB	0fcH
	DB	0f8H
	DB	00H
	DB	0f8H
	DB	0fcH
	DB	0f8H
	DB	00H
	DB	0f8H
	DB	0fcH
	DB	0f8H
	DB	00H
	DB	0f8H
	DB	0fcH
	DB	0f8H
	DB	00H
	DB	0f8H
	DB	0fcH
	DB	0f8H
	DB	00H
	DB	0f8H
	DB	0fcH
	DB	0f8H
	DB	00H
	DB	0f8H
	DB	0fcH
	DB	0f8H
	DB	00H
	DB	0f8H
	DB	0fcH
	DB	0f8H
	DB	00H
	DB	0f8H
	DB	0fcH
	DB	0f8H
	DB	00H
	DB	0f8H
	DB	0fcH
	DB	0f8H
	DB	00H
	DB	0f8H
	DB	0fcH
	DB	0f8H
	DB	00H
	DB	0f8H
	DB	0fcH
	DB	0f8H
	DB	00H
	DB	0f8H
	DB	0fcH
	DB	0f8H
	DB	00H
	DB	0b8H
	DB	09cH
	DB	050H
	DB	020H
	DB	0c0H
	DB	0a0H
	DB	050H
	DB	04dH
	DB	0c0H
	DB	09cH
	DB	048H
	DB	065H
	DB	0c0H
	DB	0a0H
	DB	048H
	DB	071H
	DB	0c0H
	DB	0a0H
	DB	050H
	DB	071H
	DB	0c0H
	DB	0a0H
	DB	050H
	DB	075H
	DB	0c0H
	DB	0a4H
	DB	050H
	DB	071H
	DB	0c0H
	DB	0a4H
	DB	050H
	DB	075H
	DB	0c0H
	DB	0a4H
	DB	050H
	DB	075H
	DB	0c0H
	DB	0a8H
	DB	050H
	DB	075H
	DB	0c8H
	DB	0a4H
	DB	050H
	DB	075H
	DB	0c0H
	DB	0a4H
	DB	050H
	DB	075H
	DB	0c0H
	DB	0a4H
	DB	050H
	DB	075H
	DB	0c0H
	DB	0a4H
	DB	050H
	DB	075H
	DB	0c0H
	DB	0a4H
	DB	050H
	DB	079H
	DB	0c0H
	DB	0a4H
	DB	050H
	DB	079H
	DB	0c0H
	DB	0a4H
	DB	050H
	DB	079H
	DB	0c0H
	DB	0a4H
	DB	050H
	DB	079H
	DB	0c8H
	DB	0acH
	DB	058H
	DB	079H
	DB	0c8H
	DB	0b0H
	DB	058H
	DB	079H
	DB	0d0H
	DB	0b4H
	DB	060H
	DB	079H
	DB	0d0H
	DB	0b8H
	DB	068H
	DB	079H
	DB	0d0H
	DB	0b8H
	DB	068H
	DB	079H
	DB	0d0H
	DB	0b8H
	DB	068H
	DB	07dH
	DB	0d0H
	DB	0b8H
	DB	068H
	DB	079H
	DB	0d0H
	DB	0b8H
	DB	068H
	DB	07dH
	DB	0d0H
	DB	0b8H
	DB	068H
	DB	07dH
	DB	0d0H
	DB	0b8H
	DB	068H
	DB	07dH
	DB	0d0H
	DB	0b8H
	DB	068H
	DB	07dH
	DB	0d0H
	DB	0b8H
	DB	068H
	DB	07dH
	DB	0d0H
	DB	0b8H
	DB	068H
	DB	07dH
	DB	0d0H
	DB	0b8H
	DB	068H
	DB	07dH
	DB	0d0H
	DB	0b8H
	DB	068H
	DB	082H
	DB	0d0H
	DB	0b8H
	DB	070H
	DB	07dH
	DB	0d0H
	DB	0b8H
	DB	070H
	DB	082H
	DB	0d8H
	DB	0b8H
	DB	070H
	DB	07dH
	DB	0d8H
	DB	0bcH
	DB	070H
	DB	082H
	DB	0d0H
	DB	0b8H
	DB	070H
	DB	082H
	DB	0d0H
	DB	0b8H
	DB	068H
	DB	082H
	DB	0d8H
	DB	0b8H
	DB	068H
	DB	082H
	DB	0d8H
	DB	0bcH
	DB	070H
	DB	082H
	DB	0d8H
	DB	0bcH
	DB	070H
	DB	082H
	DB	0d0H
	DB	0b8H
	DB	068H
	DB	082H
	DB	0d0H
	DB	0b8H
	DB	068H
	DB	086H
	DB	0d0H
	DB	0b8H
	DB	068H
	DB	082H
	DB	0d0H
	DB	0b8H
	DB	068H
	DB	086H
	DB	0d8H
	DB	0bcH
	DB	070H
	DB	086H
	DB	0d8H
	DB	0bcH
	DB	070H
	DB	086H
	DB	0d8H
	DB	0bcH
	DB	070H
	DB	086H
	DB	0d0H
	DB	0c0H
	DB	078H
	DB	086H
	DB	0d8H
	DB	0bcH
	DB	078H
	DB	086H
	DB	0d8H
	DB	0c0H
	DB	078H
	DB	086H
	DB	0d0H
	DB	0c0H
	DB	080H
	DB	08aH
	DB	0d8H
	DB	0c4H
	DB	088H
	DB	086H
	DB	0d8H
	DB	0c0H
	DB	078H
	DB	08aH
	DB	0d8H
	DB	0c0H
	DB	078H
	DB	08aH
	DB	0d8H
	DB	0c0H
	DB	078H
	DB	08aH
	DB	0d8H
	DB	0c0H
	DB	078H
	DB	08aH
	DB	0d8H
	DB	0c4H
	DB	078H
	DB	08aH
	DB	0d8H
	DB	0c0H
	DB	078H
	DB	08eH
	DB	0d8H
	DB	0c0H
	DB	078H
	DB	08aH
	DB	0d0H
	DB	0c0H
	DB	078H
	DB	08aH
	DB	0d0H
	DB	0bcH
	DB	078H
	DB	08eH
	DB	0d8H
	DB	0c0H
	DB	078H
	DB	08aH
	DB	0d8H
	DB	0c4H
	DB	080H
	DB	08eH
	DB	0d8H
	DB	0c4H
	DB	080H
	DB	08eH
	DB	0d8H
	DB	0c4H
	DB	080H
	DB	08eH
	DB	0d8H
	DB	0c8H
	DB	080H
	DB	08eH
	DB	0d8H
	DB	0c4H
	DB	080H
	DB	08eH
	DB	0d8H
	DB	0c4H
	DB	078H
	DB	08eH
	DB	0d8H
	DB	0c4H
	DB	078H
	DB	08eH
	DB	0d8H
	DB	0c0H
	DB	078H
	DB	092H
	DB	0d8H
	DB	0c0H
	DB	078H
	DB	08eH
	DB	0d8H
	DB	0c0H
	DB	078H
	DB	08eH
	DB	0d0H
	DB	0c0H
	DB	078H
	DB	092H
	DB	0d8H
	DB	0c0H
	DB	070H
	DB	08eH
	DB	0d8H
	DB	0bcH
	DB	070H
	DB	092H
	DB	0d0H
	DB	0bcH
	DB	068H
	DB	092H
	DB	0d0H
	DB	0b8H
	DB	068H
	DB	08eH
	DB	0d0H
	DB	0b8H
	DB	068H
	DB	092H
	DB	0d0H
	DB	0b8H
	DB	068H
	DB	08eH
	DB	0c8H
	DB	0acH
	DB	058H
	DB	092H
	DB	0d0H
	DB	0b4H
	DB	068H
	DB	092H
	DB	0d0H
	DB	0bcH
	DB	070H
	DB	092H
	DB	0d0H
	DB	0bcH
	DB	070H
	DB	092H
	DB	0d8H
	DB	0c4H
	DB	088H
	DB	092H
	DB	0e0H
	DB	0ccH
	DB	098H
	DB	092H
	DB	0d8H
	DB	0c0H
	DB	078H
	DB	092H
	DB	0d8H
	DB	0c0H
	DB	078H
	DB	092H
	DB	0d8H
	DB	0c4H
	DB	078H
	DB	092H
	DB	0d8H
	DB	0c0H
	DB	078H
	DB	092H
	DB	0d0H
	DB	0bcH
	DB	070H
	DB	092H
	DB	0d0H
	DB	0bcH
	DB	070H
	DB	092H
	DB	0d0H
	DB	0b8H
	DB	068H
	DB	092H
	DB	0d0H
	DB	0b4H
	DB	068H
	DB	092H
	DB	0c8H
	DB	0b4H
	DB	068H
	DB	092H
	DB	0d0H
	DB	0b8H
	DB	070H
	DB	092H
	DB	0d0H
	DB	0bcH
	DB	070H
	DB	092H
	DB	0d0H
	DB	0bcH
	DB	070H
	DB	092H
	DB	0d8H
	DB	0c0H
	DB	078H
	DB	08eH
	DB	0d8H
	DB	0bcH
	DB	070H
	DB	07dH
	DB	0d0H
	DB	0b8H
	DB	078H
	DB	065H
	DB	0d8H
	DB	0bcH
	DB	080H
	DB	041H
	DB	0d8H
	DB	0c0H
	DB	080H
	DB	04H
	DB	0f8H
	DB	0fcH
	DB	0f8H
	DB	00H
	DB	0f8H
	DB	0fcH
	DB	0f8H
	DB	00H
	DB	0f8H
	DB	0fcH
	DB	0f8H
	DB	00H
	DB	0f8H
	DB	0fcH
	DB	0f8H
	DB	00H
	DB	0f8H
	DB	0fcH
	DB	0f8H
	DB	00H
	DB	0f8H
	DB	0fcH
	DB	0f8H
	DB	00H
	DB	0f8H
	DB	0fcH
	DB	0f8H
	DB	00H
	DB	0f8H
	DB	0fcH
	DB	0f8H
	DB	00H
	DB	0f8H
	DB	0fcH
	DB	0f8H
	DB	00H
	DB	0f8H
	DB	0fcH
	DB	0f8H
	DB	00H
	DB	0f8H
	DB	0fcH
	DB	0f8H
	DB	00H
	DB	0f8H
	DB	0fcH
	DB	0f8H
	DB	00H
	DB	0f8H
	DB	0fcH
	DB	0f8H
	DB	00H
	DB	0f8H
	DB	0fcH
	DB	0f8H
	DB	00H
	DB	0f8H
	DB	0fcH
	DB	0f8H
	DB	00H
	DB	0f8H
	DB	0fcH
	DB	0f8H
	DB	00H
	DB	0f8H
	DB	0fcH
	DB	0f8H
	DB	00H
	DB	0f8H
	DB	0fcH
	DB	0f8H
	DB	00H
	DB	0f8H
	DB	0fcH
	DB	0f8H
	DB	00H
	DB	0f8H
	DB	0fcH
	DB	0f8H
	DB	00H
	DB	0f8H
	DB	0fcH
	DB	0f8H
	DB	00H
	DB	0f8H
	DB	0fcH
	DB	0f8H
	DB	00H
	DB	0f8H
	DB	0fcH
	DB	0f8H
	DB	00H
	DB	0f8H
	DB	0fcH
	DB	0f8H
	DB	00H
	DB	0f8H
	DB	0fcH
	DB	0f8H
	DB	00H
	DB	0f8H
	DB	0fcH
	DB	0f8H
	DB	00H
	DB	0f8H
	DB	0fcH
	DB	0f8H
	DB	00H
	DB	0f8H
	DB	0fcH
	DB	0f8H
	DB	00H
	DB	0f8H
	DB	0fcH
	DB	0f8H
	DB	00H
	DB	0f8H
	DB	0fcH
	DB	0f8H
	DB	00H
	DB	0f8H
	DB	0fcH
	DB	0f8H
	DB	00H
	DB	0f8H
	DB	0fcH
	DB	0f8H
	DB	00H
	DB	0f8H
	DB	0fcH
	DB	0f8H
	DB	00H
	DB	0f8H
	DB	0fcH
	DB	0f8H
	DB	00H
	DB	0f8H
	DB	0fcH
	DB	0f8H
	DB	00H
	DB	0f8H
	DB	0fcH
	DB	0f8H
	DB	00H
	DB	0f8H
	DB	0fcH
	DB	0f8H
	DB	00H
	DB	0f8H
	DB	0fcH
	DB	0f8H
	DB	00H
	DB	0f8H
	DB	0fcH
	DB	0f8H
	DB	00H
	DB	0f8H
	DB	0fcH
	DB	0f8H
	DB	00H
	DB	0f8H
	DB	0fcH
	DB	0f8H
	DB	00H
	DB	0f8H
	DB	0fcH
	DB	0f8H
	DB	00H
	DB	0f8H
	DB	0fcH
	DB	0f8H
	DB	00H
	DB	0f8H
	DB	0fcH
	DB	0f8H
	DB	00H
	DB	0f8H
	DB	0fcH
	DB	0f8H
	DB	00H
	DB	0f8H
	DB	0fcH
	DB	0f8H
	DB	00H
	DB	0f8H
	DB	0fcH
	DB	0f8H
	DB	00H
	DB	0f8H
	DB	0fcH
	DB	0f8H
	DB	00H
	DB	0f8H
	DB	0fcH
	DB	0f8H
	DB	00H
	DB	0f8H
	DB	0fcH
	DB	0f8H
	DB	00H
	DB	0f8H
	DB	0fcH
	DB	0f8H
	DB	00H
	DB	0f8H
	DB	0fcH
	DB	0f8H
	DB	00H
	DB	0f8H
	DB	0fcH
	DB	0f8H
	DB	00H
	DB	0f8H
	DB	0fcH
	DB	0f8H
	DB	00H
	DB	0f8H
	DB	0fcH
	DB	0f8H
	DB	00H
	DB	0f8H
	DB	0fcH
	DB	0f8H
	DB	00H
	DB	0f8H
	DB	0fcH
	DB	0f8H
	DB	00H
	DB	0f8H
	DB	0fcH
	DB	0f8H
	DB	00H
	DB	0f8H
	DB	0fcH
	DB	0f8H
	DB	00H
	DB	0f8H
	DB	0fcH
	DB	0f8H
	DB	00H
	DB	0f8H
	DB	0fcH
	DB	0f8H
	DB	00H
	DB	0f8H
	DB	0fcH
	DB	0f8H
	DB	00H
	DB	0f8H
	DB	0fcH
	DB	0f8H
	DB	00H
	DB	0f8H
	DB	0fcH
	DB	0f8H
	DB	00H
	DB	0f8H
	DB	0fcH
	DB	0f8H
	DB	00H
	DB	0f8H
	DB	0fcH
	DB	0f8H
	DB	00H
	DB	0f8H
	DB	0fcH
	DB	0f8H
	DB	00H
	DB	0f8H
	DB	0fcH
	DB	0f8H
	DB	00H
	DB	0f8H
	DB	0fcH
	DB	0f8H
	DB	00H
	DB	0f8H
	DB	0fcH
	DB	0f8H
	DB	00H
	DB	0f8H
	DB	0fcH
	DB	0f8H
	DB	00H
	DB	0f8H
	DB	0fcH
	DB	0f8H
	DB	00H
	DB	0f8H
	DB	0fcH
	DB	0f8H
	DB	00H
	DB	0f8H
	DB	0fcH
	DB	0f8H
	DB	00H
	DB	0f8H
	DB	0fcH
	DB	0f8H
	DB	00H
	DB	0f8H
	DB	0fcH
	DB	0f8H
	DB	00H
	DB	0f8H
	DB	0fcH
	DB	0f8H
	DB	00H
	DB	0f8H
	DB	0fcH
	DB	0f8H
	DB	00H
	DB	0f8H
	DB	0fcH
	DB	0f8H
	DB	00H
	DB	0f8H
	DB	0fcH
	DB	0f8H
	DB	00H
	DB	0f8H
	DB	0fcH
	DB	0f8H
	DB	00H
	DB	0f8H
	DB	0fcH
	DB	0f8H
	DB	00H
	DB	0f8H
	DB	0fcH
	DB	0f8H
	DB	00H
	DB	0f8H
	DB	0fcH
	DB	0f8H
	DB	00H
	DB	0f8H
	DB	0fcH
	DB	0f8H
	DB	00H
	DB	0f8H
	DB	0fcH
	DB	0f8H
	DB	00H
	DB	0f8H
	DB	0fcH
	DB	0f8H
	DB	00H
	DB	0f8H
	DB	0fcH
	DB	0f8H
	DB	00H
	DB	0f8H
	DB	0fcH
	DB	0f8H
	DB	00H
	DB	0f8H
	DB	0fcH
	DB	0f8H
	DB	00H
	DB	0f8H
	DB	0fcH
	DB	0f8H
	DB	00H
	DB	0f8H
	DB	0fcH
	DB	0f8H
	DB	00H
	DB	0f8H
	DB	0fcH
	DB	0f8H
	DB	00H
	DB	0f8H
	DB	0fcH
	DB	0f8H
	DB	00H
	DB	0f8H
	DB	0fcH
	DB	0f8H
	DB	00H
	DB	0f8H
	DB	0fcH
	DB	0f8H
	DB	00H
	DB	0f8H
	DB	0fcH
	DB	0f8H
	DB	00H
	DB	0f8H
	DB	0fcH
	DB	0f8H
	DB	00H
	DB	0f8H
	DB	0fcH
	DB	0f8H
	DB	00H
	DB	0f8H
	DB	0fcH
	DB	0f8H
	DB	00H
	DB	0f8H
	DB	0fcH
	DB	0f8H
	DB	00H
	DB	0f8H
	DB	0fcH
	DB	0f8H
	DB	00H
	DB	0f8H
	DB	0fcH
	DB	0f8H
	DB	00H
	DB	0f8H
	DB	0fcH
	DB	0f8H
	DB	00H
	DB	0f8H
	DB	0fcH
	DB	0f8H
	DB	00H
	DB	0f8H
	DB	0fcH
	DB	0f8H
	DB	00H
	DB	0f8H
	DB	0fcH
	DB	0f8H
	DB	00H
	DB	0f8H
	DB	0fcH
	DB	0f8H
	DB	00H
	DB	0f8H
	DB	0fcH
	DB	0f8H
	DB	00H
	DB	0f8H
	DB	0fcH
	DB	0f8H
	DB	00H
	DB	0f8H
	DB	0fcH
	DB	0f8H
	DB	00H
	DB	0f8H
	DB	0fcH
	DB	0f8H
	DB	00H
	DB	0f8H
	DB	0fcH
	DB	0f8H
	DB	00H
	DB	0f8H
	DB	0fcH
	DB	0f8H
	DB	00H
	DB	0f8H
	DB	0fcH
	DB	0f8H
	DB	00H
	DB	0f8H
	DB	0fcH
	DB	0f8H
	DB	00H
	DB	0f8H
	DB	0fcH
	DB	0f8H
	DB	00H
	DB	0f8H
	DB	0fcH
	DB	0f8H
	DB	00H
	DB	0f8H
	DB	0fcH
	DB	0f8H
	DB	00H
	DB	0f8H
	DB	0fcH
	DB	0f8H
	DB	00H
	DB	0f8H
	DB	0fcH
	DB	0f8H
	DB	00H
	DB	0f8H
	DB	0fcH
	DB	0f8H
	DB	00H
	DB	0f8H
	DB	0fcH
	DB	0f8H
	DB	00H
	DB	0f8H
	DB	0fcH
	DB	0f8H
	DB	00H
	DB	0f8H
	DB	0fcH
	DB	0f8H
	DB	00H
	DB	0f8H
	DB	0fcH
	DB	0f8H
	DB	00H
	DB	0f8H
	DB	0fcH
	DB	0f8H
	DB	00H
	DB	0f8H
	DB	0fcH
	DB	0f8H
	DB	00H
	DB	0f8H
	DB	0fcH
	DB	0f8H
	DB	00H
	DB	0f8H
	DB	0fcH
	DB	0f8H
	DB	00H
	DB	0f8H
	DB	0fcH
	DB	0f8H
	DB	00H
	DB	0f8H
	DB	0fcH
	DB	0f8H
	DB	00H
	DB	0f8H
	DB	0fcH
	DB	0f8H
	DB	00H
	DB	0f8H
	DB	0fcH
	DB	0f8H
	DB	00H
	DB	0f8H
	DB	0fcH
	DB	0f8H
	DB	00H
	DB	0f8H
	DB	0fcH
	DB	0f8H
	DB	00H
	DB	0f8H
	DB	0fcH
	DB	0f8H
	DB	00H
	DB	0f8H
	DB	0fcH
	DB	0f8H
	DB	00H
	DB	0f8H
	DB	0fcH
	DB	0f8H
	DB	00H
	DB	0f8H
	DB	0fcH
	DB	0f8H
	DB	00H
	DB	0f8H
	DB	0fcH
	DB	0f8H
	DB	00H
	DB	0f8H
	DB	0fcH
	DB	0f8H
	DB	00H
	DB	0f8H
	DB	0fcH
	DB	0f8H
	DB	00H
	DB	0f8H
	DB	0fcH
	DB	0f8H
	DB	00H
	DB	0f8H
	DB	0fcH
	DB	0f8H
	DB	00H
	DB	0f8H
	DB	0fcH
	DB	0f8H
	DB	00H
	DB	0f8H
	DB	0fcH
	DB	0f8H
	DB	00H
	DB	0f8H
	DB	0fcH
	DB	0f8H
	DB	00H
	DB	0f8H
	DB	0fcH
	DB	0f8H
	DB	00H
	DB	0f8H
	DB	0fcH
	DB	0f8H
	DB	00H
	DB	0f8H
	DB	0fcH
	DB	0f8H
	DB	00H
	DB	0f8H
	DB	0fcH
	DB	0f8H
	DB	00H
	DB	0f8H
	DB	0fcH
	DB	0f8H
	DB	00H
	DB	0f8H
	DB	0fcH
	DB	0f8H
	DB	00H
	DB	0f8H
	DB	0fcH
	DB	0f8H
	DB	00H
	DB	0f8H
	DB	0fcH
	DB	0f8H
	DB	00H
	DB	0f8H
	DB	0fcH
	DB	0f8H
	DB	00H
	DB	0f8H
	DB	0fcH
	DB	0f8H
	DB	00H
	DB	0b0H
	DB	094H
	DB	048H
	DB	010H
	DB	0b0H
	DB	094H
	DB	040H
	DB	045H
	DB	0b0H
	DB	094H
	DB	040H
	DB	065H
	DB	0b8H
	DB	094H
	DB	040H
	DB	071H
	DB	0b8H
	DB	098H
	DB	040H
	DB	071H
	DB	0b8H
	DB	09cH
	DB	048H
	DB	071H
	DB	0c0H
	DB	0a0H
	DB	048H
	DB	071H
	DB	0c0H
	DB	0a0H
	DB	048H
	DB	071H
	DB	0c0H
	DB	0a0H
	DB	048H
	DB	075H
	DB	0c0H
	DB	0a4H
	DB	050H
	DB	071H
	DB	0c0H
	DB	0a4H
	DB	050H
	DB	075H
	DB	0c0H
	DB	0a4H
	DB	050H
	DB	075H
	DB	0c0H
	DB	0a4H
	DB	050H
	DB	075H
	DB	0c8H
	DB	0a8H
	DB	050H
	DB	075H
	DB	0c0H
	DB	0a4H
	DB	050H
	DB	075H
	DB	0c0H
	DB	0a4H
	DB	050H
	DB	075H
	DB	0c0H
	DB	0a4H
	DB	050H
	DB	075H
	DB	0c0H
	DB	0a4H
	DB	050H
	DB	079H
	DB	0c0H
	DB	0a0H
	DB	050H
	DB	075H
	DB	0c0H
	DB	0a4H
	DB	050H
	DB	075H
	DB	0c0H
	DB	0a4H
	DB	050H
	DB	079H
	DB	0c0H
	DB	0a4H
	DB	050H
	DB	079H
	DB	0c8H
	DB	0acH
	DB	058H
	DB	079H
	DB	0d0H
	DB	0b0H
	DB	060H
	DB	079H
	DB	0d0H
	DB	0b8H
	DB	068H
	DB	079H
	DB	0d8H
	DB	0b8H
	DB	070H
	DB	079H
	DB	0d0H
	DB	0b8H
	DB	070H
	DB	07dH
	DB	0d8H
	DB	0b8H
	DB	070H
	DB	07dH
	DB	0d8H
	DB	0b8H
	DB	070H
	DB	079H
	DB	0d0H
	DB	0b8H
	DB	070H
	DB	07dH
	DB	0d8H
	DB	0b8H
	DB	070H
	DB	07dH
	DB	0d0H
	DB	0b8H
	DB	070H
	DB	07dH
	DB	0d0H
	DB	0b8H
	DB	070H
	DB	07dH
	DB	0d0H
	DB	0b8H
	DB	068H
	DB	07dH
	DB	0d8H
	DB	0b8H
	DB	070H
	DB	07dH
	DB	0d8H
	DB	0b8H
	DB	070H
	DB	082H
	DB	0d0H
	DB	0b8H
	DB	070H
	DB	07dH
	DB	0d0H
	DB	0b8H
	DB	068H
	DB	07dH
	DB	0d8H
	DB	0bcH
	DB	070H
	DB	082H
	DB	0d8H
	DB	0bcH
	DB	070H
	DB	07dH
	DB	0d0H
	DB	0bcH
	DB	070H
	DB	082H
	DB	0d0H
	DB	0bcH
	DB	070H
	DB	082H
	DB	0d0H
	DB	0bcH
	DB	070H
	DB	082H
	DB	0d0H
	DB	0b8H
	DB	068H
	DB	082H
	DB	0d0H
	DB	0b8H
	DB	068H
	DB	082H
	DB	0d0H
	DB	0b8H
	DB	068H
	DB	082H
	DB	0d0H
	DB	0b8H
	DB	068H
	DB	082H
	DB	0d0H
	DB	0b8H
	DB	068H
	DB	086H
	DB	0d0H
	DB	0b8H
	DB	068H
	DB	082H
	DB	0d0H
	DB	0bcH
	DB	070H
	DB	086H
	DB	0d0H
	DB	0bcH
	DB	070H
	DB	086H
	DB	0d8H
	DB	0bcH
	DB	070H
	DB	086H
	DB	0d8H
	DB	0c0H
	DB	078H
	DB	086H
	DB	0d8H
	DB	0c0H
	DB	078H
	DB	086H
	DB	0d0H
	DB	0bcH
	DB	078H
	DB	086H
	DB	0d8H
	DB	0c0H
	DB	080H
	DB	086H
	DB	0d8H
	DB	0c8H
	DB	088H
	DB	08aH
	DB	0d0H
	DB	0c0H
	DB	080H
	DB	086H
	DB	0d8H
	DB	0c0H
	DB	078H
	DB	08aH
	DB	0d8H
	DB	0c0H
	DB	080H
	DB	08aH
	DB	0d8H
	DB	0c4H
	DB	080H
	DB	08aH
	DB	0d8H
	DB	0c0H
	DB	078H
	DB	08aH
	DB	0d8H
	DB	0c0H
	DB	078H
	DB	08aH
	DB	0d8H
	DB	0c0H
	DB	078H
	DB	08aH
	DB	0d8H
	DB	0c0H
	DB	078H
	DB	08aH
	DB	0d8H
	DB	0c0H
	DB	078H
	DB	08aH
	DB	0d8H
	DB	0c0H
	DB	080H
	DB	08aH
	DB	0d8H
	DB	0c4H
	DB	080H
	DB	08aH
	DB	0d8H
	DB	0c4H
	DB	080H
	DB	08eH
	DB	0e0H
	DB	0c8H
	DB	088H
	DB	08eH
	DB	0e0H
	DB	0c8H
	DB	088H
	DB	08eH
	DB	0e0H
	DB	0c4H
	DB	080H
	DB	08eH
	DB	0d8H
	DB	0c4H
	DB	080H
	DB	08eH
	DB	0d8H
	DB	0c4H
	DB	078H
	DB	08eH
	DB	0d8H
	DB	0c0H
	DB	078H
	DB	08eH
	DB	0d8H
	DB	0c4H
	DB	078H
	DB	092H
	DB	0d8H
	DB	0c4H
	DB	078H
	DB	08eH
	DB	0d8H
	DB	0c0H
	DB	078H
	DB	08eH
	DB	0d8H
	DB	0c0H
	DB	070H
	DB	092H
	DB	0d8H
	DB	0bcH
	DB	070H
	DB	08eH
	DB	0d8H
	DB	0bcH
	DB	070H
	DB	08eH
	DB	0d0H
	DB	0bcH
	DB	068H
	DB	092H
	DB	0d0H
	DB	0bcH
	DB	068H
	DB	092H
	DB	0d0H
	DB	0b8H
	DB	068H
	DB	092H
	DB	0d0H
	DB	0b8H
	DB	068H
	DB	08eH
	DB	0d0H
	DB	0b8H
	DB	068H
	DB	092H
	DB	0d0H
	DB	0b8H
	DB	068H
	DB	08eH
	DB	0d0H
	DB	0bcH
	DB	070H
	DB	092H
	DB	0d8H
	DB	0bcH
	DB	078H
	DB	092H
	DB	0e0H
	DB	0d0H
	DB	098H
	DB	08eH
	DB	0d8H
	DB	0c4H
	DB	080H
	DB	092H
	DB	0d8H
	DB	0c0H
	DB	070H
	DB	092H
	DB	0d8H
	DB	0c4H
	DB	078H
	DB	092H
	DB	0d8H
	DB	0c0H
	DB	078H
	DB	092H
	DB	0c8H
	DB	0b0H
	DB	060H
	DB	092H
	DB	0b0H
	DB	098H
	DB	050H
	DB	092H
	DB	0c8H
	DB	0acH
	DB	060H
	DB	092H
	DB	0c0H
	DB	0a8H
	DB	058H
	DB	08eH
	DB	0c8H
	DB	0b0H
	DB	068H
	DB	092H
	DB	0d8H
	DB	0bcH
	DB	070H
	DB	092H
	DB	0d0H
	DB	0c0H
	DB	070H
	DB	08eH
	DB	0d0H
	DB	0b8H
	DB	068H
	DB	092H
	DB	0d8H
	DB	0c0H
	DB	078H
	DB	092H
	DB	0d8H
	DB	0c0H
	DB	070H
	DB	092H
	DB	0d8H
	DB	0c0H
	DB	070H
	DB	092H
	DB	0d8H
	DB	0c4H
	DB	080H
	DB	092H
	DB	0d8H
	DB	0c0H
	DB	078H
	DB	08eH
	DB	0d0H
	DB	0bcH
	DB	070H
	DB	07dH
	DB	0d0H
	DB	0b8H
	DB	070H
	DB	065H
	DB	0d0H
	DB	0b8H
	DB	070H
	DB	030H
	DB	0f8H
	DB	0fcH
	DB	0f8H
	DB	00H
	DB	0f8H
	DB	0fcH
	DB	0f8H
	DB	00H
	DB	0f8H
	DB	0fcH
	DB	0f8H
	DB	00H
	DB	0f8H
	DB	0fcH
	DB	0f8H
	DB	00H
	DB	0f8H
	DB	0fcH
	DB	0f8H
	DB	00H
	DB	0f8H
	DB	0fcH
	DB	0f8H
	DB	00H
	DB	0f8H
	DB	0fcH
	DB	0f8H
	DB	00H
	DB	0f8H
	DB	0fcH
	DB	0f8H
	DB	00H
	DB	0f8H
	DB	0fcH
	DB	0f8H
	DB	00H
	DB	0f8H
	DB	0fcH
	DB	0f8H
	DB	00H
	DB	0f8H
	DB	0fcH
	DB	0f8H
	DB	00H
	DB	0f8H
	DB	0fcH
	DB	0f8H
	DB	00H
	DB	0f8H
	DB	0fcH
	DB	0f8H
	DB	00H
	DB	0f8H
	DB	0fcH
	DB	0f8H
	DB	00H
	DB	0f8H
	DB	0fcH
	DB	0f8H
	DB	00H
	DB	0f8H
	DB	0fcH
	DB	0f8H
	DB	00H
	DB	0f8H
	DB	0fcH
	DB	0f8H
	DB	00H
	DB	0f8H
	DB	0fcH
	DB	0f8H
	DB	00H
	DB	0f8H
	DB	0fcH
	DB	0f8H
	DB	00H
	DB	0f8H
	DB	0fcH
	DB	0f8H
	DB	00H
	DB	0f8H
	DB	0fcH
	DB	0f8H
	DB	00H
	DB	0f8H
	DB	0fcH
	DB	0f8H
	DB	00H
	DB	0f8H
	DB	0fcH
	DB	0f8H
	DB	00H
	DB	0f8H
	DB	0fcH
	DB	0f8H
	DB	00H
	DB	0f8H
	DB	0fcH
	DB	0f8H
	DB	00H
	DB	0f8H
	DB	0fcH
	DB	0f8H
	DB	00H
	DB	0f8H
	DB	0fcH
	DB	0f8H
	DB	00H
	DB	0f8H
	DB	0fcH
	DB	0f8H
	DB	00H
	DB	0f8H
	DB	0fcH
	DB	0f8H
	DB	00H
	DB	0f8H
	DB	0fcH
	DB	0f8H
	DB	00H
	DB	0f8H
	DB	0fcH
	DB	0f8H
	DB	00H
	DB	0f8H
	DB	0fcH
	DB	0f8H
	DB	00H
	DB	0f8H
	DB	0fcH
	DB	0f8H
	DB	00H
	DB	0f8H
	DB	0fcH
	DB	0f8H
	DB	00H
	DB	0f8H
	DB	0fcH
	DB	0f8H
	DB	00H
	DB	0f8H
	DB	0fcH
	DB	0f8H
	DB	00H
	DB	0f8H
	DB	0fcH
	DB	0f8H
	DB	00H
	DB	0f8H
	DB	0fcH
	DB	0f8H
	DB	00H
	DB	0f8H
	DB	0fcH
	DB	0f8H
	DB	00H
	DB	0f8H
	DB	0fcH
	DB	0f8H
	DB	00H
	DB	0f8H
	DB	0fcH
	DB	0f8H
	DB	00H
	DB	0f8H
	DB	0fcH
	DB	0f8H
	DB	00H
	DB	0f8H
	DB	0fcH
	DB	0f8H
	DB	00H
	DB	0f8H
	DB	0fcH
	DB	0f8H
	DB	00H
	DB	0f8H
	DB	0fcH
	DB	0f8H
	DB	00H
	DB	0f8H
	DB	0fcH
	DB	0f8H
	DB	00H
	DB	0f8H
	DB	0fcH
	DB	0f8H
	DB	00H
	DB	0f8H
	DB	0fcH
	DB	0f8H
	DB	00H
	DB	0f8H
	DB	0fcH
	DB	0f8H
	DB	00H
	DB	0f8H
	DB	0fcH
	DB	0f8H
	DB	00H
	DB	0f8H
	DB	0fcH
	DB	0f8H
	DB	00H
	DB	0f8H
	DB	0fcH
	DB	0f8H
	DB	00H
	DB	0f8H
	DB	0fcH
	DB	0f8H
	DB	00H
	DB	0f8H
	DB	0fcH
	DB	0f8H
	DB	00H
	DB	0f8H
	DB	0fcH
	DB	0f8H
	DB	00H
	DB	0f8H
	DB	0fcH
	DB	0f8H
	DB	00H
	DB	0f8H
	DB	0fcH
	DB	0f8H
	DB	00H
	DB	0f8H
	DB	0fcH
	DB	0f8H
	DB	00H
	DB	0f8H
	DB	0fcH
	DB	0f8H
	DB	00H
	DB	0f8H
	DB	0fcH
	DB	0f8H
	DB	00H
	DB	0f8H
	DB	0fcH
	DB	0f8H
	DB	00H
	DB	0f8H
	DB	0fcH
	DB	0f8H
	DB	00H
	DB	0f8H
	DB	0fcH
	DB	0f8H
	DB	00H
	DB	0f8H
	DB	0fcH
	DB	0f8H
	DB	00H
	DB	0f8H
	DB	0fcH
	DB	0f8H
	DB	00H
	DB	0f8H
	DB	0fcH
	DB	0f8H
	DB	00H
	DB	0f8H
	DB	0fcH
	DB	0f8H
	DB	00H
	DB	0f8H
	DB	0fcH
	DB	0f8H
	DB	00H
	DB	0f8H
	DB	0fcH
	DB	0f8H
	DB	00H
	DB	0f8H
	DB	0fcH
	DB	0f8H
	DB	00H
	DB	0f8H
	DB	0fcH
	DB	0f8H
	DB	00H
	DB	0f8H
	DB	0fcH
	DB	0f8H
	DB	00H
	DB	0f8H
	DB	0fcH
	DB	0f8H
	DB	00H
	DB	0f8H
	DB	0fcH
	DB	0f8H
	DB	00H
	DB	0f8H
	DB	0fcH
	DB	0f8H
	DB	00H
	DB	0f8H
	DB	0fcH
	DB	0f8H
	DB	00H
	DB	0f8H
	DB	0fcH
	DB	0f8H
	DB	00H
	DB	0f8H
	DB	0fcH
	DB	0f8H
	DB	00H
	DB	0f8H
	DB	0fcH
	DB	0f8H
	DB	00H
	DB	0f8H
	DB	0fcH
	DB	0f8H
	DB	00H
	DB	0f8H
	DB	0fcH
	DB	0f8H
	DB	00H
	DB	0f8H
	DB	0fcH
	DB	0f8H
	DB	00H
	DB	0f8H
	DB	0fcH
	DB	0f8H
	DB	00H
	DB	0f8H
	DB	0fcH
	DB	0f8H
	DB	00H
	DB	0f8H
	DB	0fcH
	DB	0f8H
	DB	00H
	DB	0f8H
	DB	0fcH
	DB	0f8H
	DB	00H
	DB	0f8H
	DB	0fcH
	DB	0f8H
	DB	00H
	DB	0f8H
	DB	0fcH
	DB	0f8H
	DB	00H
	DB	0f8H
	DB	0fcH
	DB	0f8H
	DB	00H
	DB	0f8H
	DB	0fcH
	DB	0f8H
	DB	00H
	DB	0f8H
	DB	0fcH
	DB	0f8H
	DB	00H
	DB	0f8H
	DB	0fcH
	DB	0f8H
	DB	00H
	DB	0f8H
	DB	0fcH
	DB	0f8H
	DB	00H
	DB	0f8H
	DB	0fcH
	DB	0f8H
	DB	00H
	DB	0f8H
	DB	0fcH
	DB	0f8H
	DB	00H
	DB	0f8H
	DB	0fcH
	DB	0f8H
	DB	00H
	DB	0f8H
	DB	0fcH
	DB	0f8H
	DB	00H
	DB	0f8H
	DB	0fcH
	DB	0f8H
	DB	00H
	DB	0f8H
	DB	0fcH
	DB	0f8H
	DB	00H
	DB	0f8H
	DB	0fcH
	DB	0f8H
	DB	00H
	DB	0f8H
	DB	0fcH
	DB	0f8H
	DB	00H
	DB	0f8H
	DB	0fcH
	DB	0f8H
	DB	00H
	DB	0f8H
	DB	0fcH
	DB	0f8H
	DB	00H
	DB	0f8H
	DB	0fcH
	DB	0f8H
	DB	00H
	DB	0f8H
	DB	0fcH
	DB	0f8H
	DB	00H
	DB	0f8H
	DB	0fcH
	DB	0f8H
	DB	00H
	DB	0f8H
	DB	0fcH
	DB	0f8H
	DB	00H
	DB	0f8H
	DB	0fcH
	DB	0f8H
	DB	00H
	DB	0f8H
	DB	0fcH
	DB	0f8H
	DB	00H
	DB	0f8H
	DB	0fcH
	DB	0f8H
	DB	00H
	DB	0f8H
	DB	0fcH
	DB	0f8H
	DB	00H
	DB	0f8H
	DB	0fcH
	DB	0f8H
	DB	00H
	DB	0f8H
	DB	0fcH
	DB	0f8H
	DB	00H
	DB	0f8H
	DB	0fcH
	DB	0f8H
	DB	00H
	DB	0f8H
	DB	0fcH
	DB	0f8H
	DB	00H
	DB	0f8H
	DB	0fcH
	DB	0f8H
	DB	00H
	DB	0f8H
	DB	0fcH
	DB	0f8H
	DB	00H
	DB	0f8H
	DB	0fcH
	DB	0f8H
	DB	00H
	DB	0f8H
	DB	0fcH
	DB	0f8H
	DB	00H
	DB	0f8H
	DB	0fcH
	DB	0f8H
	DB	00H
	DB	0f8H
	DB	0fcH
	DB	0f8H
	DB	00H
	DB	0f8H
	DB	0fcH
	DB	0f8H
	DB	00H
	DB	0f8H
	DB	0fcH
	DB	0f8H
	DB	00H
	DB	0f8H
	DB	0fcH
	DB	0f8H
	DB	00H
	DB	0f8H
	DB	0fcH
	DB	0f8H
	DB	00H
	DB	0f8H
	DB	0fcH
	DB	0f8H
	DB	00H
	DB	0f8H
	DB	0fcH
	DB	0f8H
	DB	00H
	DB	0f8H
	DB	0fcH
	DB	0f8H
	DB	00H
	DB	0f8H
	DB	0fcH
	DB	0f8H
	DB	00H
	DB	0f8H
	DB	0fcH
	DB	0f8H
	DB	00H
	DB	0f8H
	DB	0fcH
	DB	0f8H
	DB	00H
	DB	0f8H
	DB	0fcH
	DB	0f8H
	DB	00H
	DB	0f8H
	DB	0fcH
	DB	0f8H
	DB	00H
	DB	0f8H
	DB	0fcH
	DB	0f8H
	DB	00H
	DB	0f8H
	DB	0fcH
	DB	0f8H
	DB	00H
	DB	0f8H
	DB	0fcH
	DB	0f8H
	DB	00H
	DB	0f8H
	DB	0fcH
	DB	0f8H
	DB	00H
	DB	0f8H
	DB	0fcH
	DB	0f8H
	DB	00H
	DB	0f8H
	DB	0fcH
	DB	0f8H
	DB	00H
	DB	0f8H
	DB	0fcH
	DB	0f8H
	DB	00H
	DB	0f8H
	DB	0fcH
	DB	0f8H
	DB	00H
	DB	0f8H
	DB	0fcH
	DB	0f8H
	DB	00H
	DB	0f8H
	DB	0fcH
	DB	0f8H
	DB	00H
	DB	0f8H
	DB	0fcH
	DB	0f8H
	DB	00H
	DB	0f8H
	DB	0fcH
	DB	0f8H
	DB	00H
	DB	0f8H
	DB	0fcH
	DB	0f8H
	DB	00H
	DB	0f8H
	DB	0fcH
	DB	0f8H
	DB	00H
	DB	0f8H
	DB	0fcH
	DB	0f8H
	DB	00H
	DB	0f8H
	DB	0fcH
	DB	0f8H
	DB	00H
	DB	0f8H
	DB	0fcH
	DB	0f8H
	DB	00H
	DB	0f8H
	DB	0fcH
	DB	0f8H
	DB	00H
	DB	0f8H
	DB	0fcH
	DB	0f8H
	DB	00H
	DB	0f8H
	DB	0fcH
	DB	0f8H
	DB	00H
	DB	0b8H
	DB	098H
	DB	048H
	DB	034H
	DB	0b0H
	DB	094H
	DB	040H
	DB	05dH
	DB	0b0H
	DB	090H
	DB	040H
	DB	06dH
	DB	0b0H
	DB	090H
	DB	038H
	DB	071H
	DB	0b0H
	DB	090H
	DB	038H
	DB	071H
	DB	0b0H
	DB	090H
	DB	038H
	DB	071H
	DB	0b0H
	DB	090H
	DB	040H
	DB	071H
	DB	0b8H
	DB	094H
	DB	040H
	DB	071H
	DB	0b8H
	DB	098H
	DB	040H
	DB	071H
	DB	0b8H
	DB	09cH
	DB	048H
	DB	071H
	DB	0b8H
	DB	09cH
	DB	048H
	DB	075H
	DB	0c0H
	DB	09cH
	DB	048H
	DB	071H
	DB	0c0H
	DB	0a0H
	DB	048H
	DB	075H
	DB	0c0H
	DB	0a0H
	DB	048H
	DB	075H
	DB	0c0H
	DB	0a4H
	DB	050H
	DB	075H
	DB	0c0H
	DB	0a4H
	DB	050H
	DB	075H
	DB	0c0H
	DB	0a4H
	DB	050H
	DB	075H
	DB	0c8H
	DB	0a8H
	DB	050H
	DB	075H
	DB	0c8H
	DB	0a4H
	DB	050H
	DB	075H
	DB	0c0H
	DB	0a4H
	DB	050H
	DB	075H
	DB	0c0H
	DB	0a0H
	DB	048H
	DB	079H
	DB	0c0H
	DB	0a4H
	DB	050H
	DB	075H
	DB	0c0H
	DB	0a4H
	DB	050H
	DB	079H
	DB	0c0H
	DB	0a4H
	DB	050H
	DB	079H
	DB	0c8H
	DB	0a8H
	DB	058H
	DB	079H
	DB	0c8H
	DB	0b0H
	DB	060H
	DB	079H
	DB	0d0H
	DB	0b4H
	DB	068H
	DB	079H
	DB	0d0H
	DB	0b4H
	DB	068H
	DB	079H
	DB	0d8H
	DB	0b8H
	DB	070H
	DB	079H
	DB	0d8H
	DB	0bcH
	DB	070H
	DB	079H
	DB	0d8H
	DB	0b8H
	DB	070H
	DB	079H
	DB	0d0H
	DB	0bcH
	DB	070H
	DB	07dH
	DB	0d8H
	DB	0bcH
	DB	070H
	DB	07dH
	DB	0d8H
	DB	0bcH
	DB	070H
	DB	07dH
	DB	0d0H
	DB	0b8H
	DB	070H
	DB	07dH
	DB	0d0H
	DB	0bcH
	DB	070H
	DB	07dH
	DB	0d8H
	DB	0b8H
	DB	070H
	DB	07dH
	DB	0d8H
	DB	0bcH
	DB	070H
	DB	07dH
	DB	0d0H
	DB	0bcH
	DB	070H
	DB	082H
	DB	0d0H
	DB	0b8H
	DB	070H
	DB	07dH
	DB	0d0H
	DB	0b8H
	DB	068H
	DB	082H
	DB	0d8H
	DB	0bcH
	DB	070H
	DB	082H
	DB	0d8H
	DB	0bcH
	DB	070H
	DB	07dH
	DB	0d0H
	DB	0bcH
	DB	070H
	DB	082H
	DB	0d8H
	DB	0bcH
	DB	070H
	DB	082H
	DB	0d0H
	DB	0bcH
	DB	070H
	DB	082H
	DB	0d0H
	DB	0b8H
	DB	068H
	DB	082H
	DB	0d0H
	DB	0b4H
	DB	068H
	DB	082H
	DB	0d0H
	DB	0b4H
	DB	068H
	DB	082H
	DB	0d0H
	DB	0b8H
	DB	068H
	DB	086H
	DB	0d0H
	DB	0b8H
	DB	070H
	DB	082H
	DB	0d0H
	DB	0b8H
	DB	070H
	DB	082H
	DB	0d0H
	DB	0bcH
	DB	070H
	DB	086H
	DB	0d0H
	DB	0bcH
	DB	070H
	DB	086H
	DB	0d8H
	DB	0bcH
	DB	070H
	DB	086H
	DB	0d0H
	DB	0bcH
	DB	070H
	DB	086H
	DB	0d8H
	DB	0c0H
	DB	078H
	DB	086H
	DB	0d8H
	DB	0c0H
	DB	078H
	DB	086H
	DB	0e0H
	DB	0c8H
	DB	090H
	DB	086H
	DB	0d8H
	DB	0c8H
	DB	090H
	DB	08aH
	DB	0d8H
	DB	0c4H
	DB	090H
	DB	086H
	DB	0d8H
	DB	0c0H
	DB	080H
	DB	08aH
	DB	0d8H
	DB	0c0H
	DB	078H
	DB	08aH
	DB	0d8H
	DB	0c0H
	DB	078H
	DB	08aH
	DB	0d8H
	DB	0c0H
	DB	080H
	DB	08aH
	DB	0d8H
	DB	0c4H
	DB	080H
	DB	08aH
	DB	0d8H
	DB	0c4H
	DB	080H
	DB	08aH
	DB	0d8H
	DB	0c4H
	DB	080H
	DB	08eH
	DB	0d8H
	DB	0c4H
	DB	080H
	DB	08eH
	DB	0d8H
	DB	0c4H
	DB	078H
	DB	08aH
	DB	0d8H
	DB	0c4H
	DB	080H
	DB	08aH
	DB	0e0H
	DB	0c8H
	DB	088H
	DB	08eH
	DB	0e0H
	DB	0c8H
	DB	088H
	DB	08eH
	DB	0e0H
	DB	0c8H
	DB	088H
	DB	08eH
	DB	0d8H
	DB	0c4H
	DB	080H
	DB	08eH
	DB	0d8H
	DB	0c4H
	DB	080H
	DB	08eH
	DB	0d8H
	DB	0c0H
	DB	080H
	DB	08eH
	DB	0d8H
	DB	0c4H
	DB	080H
	DB	08eH
	DB	0d8H
	DB	0c4H
	DB	080H
	DB	092H
	DB	0d8H
	DB	0c0H
	DB	078H
	DB	092H
	DB	0d0H
	DB	0c0H
	DB	070H
	DB	08eH
	DB	0d8H
	DB	0c0H
	DB	070H
	DB	092H
	DB	0d8H
	DB	0bcH
	DB	070H
	DB	08eH
	DB	0d8H
	DB	0bcH
	DB	070H
	DB	08eH
	DB	0d8H
	DB	0bcH
	DB	068H
	DB	092H
	DB	0d0H
	DB	0bcH
	DB	068H
	DB	08eH
	DB	0d0H
	DB	0bcH
	DB	070H
	DB	092H
	DB	0d0H
	DB	0b8H
	DB	068H
	DB	092H
	DB	0d0H
	DB	0b8H
	DB	068H
	DB	092H
	DB	0d0H
	DB	0b8H
	DB	068H
	DB	08eH
	DB	0d0H
	DB	0b8H
	DB	070H
	DB	092H
	DB	0d8H
	DB	0c4H
	DB	088H
	DB	092H
	DB	0d8H
	DB	0c0H
	DB	080H
	DB	08eH
	DB	0d0H
	DB	0bcH
	DB	070H
	DB	092H
	DB	0d8H
	DB	0c0H
	DB	070H
	DB	08eH
	DB	0d0H
	DB	0b8H
	DB	070H
	DB	092H
	DB	0a8H
	DB	08cH
	DB	040H
	DB	08eH
	DB	0b0H
	DB	09cH
	DB	050H
	DB	092H
	DB	0c8H
	DB	0b4H
	DB	068H
	DB	092H
	DB	0c8H
	DB	0acH
	DB	068H
	DB	092H
	DB	0d0H
	DB	0bcH
	DB	078H
	DB	092H
	DB	0e0H
	DB	0ccH
	DB	090H
	DB	092H
	DB	0d8H
	DB	0c8H
	DB	088H
	DB	092H
	DB	0d0H
	DB	0c0H
	DB	078H
	DB	08eH
	DB	0d8H
	DB	0c0H
	DB	078H
	DB	092H
	DB	0d8H
	DB	0c4H
	DB	078H
	DB	092H
	DB	0d8H
	DB	0c0H
	DB	078H
	DB	092H
	DB	0d8H
	DB	0c4H
	DB	078H
	DB	092H
	DB	0d0H
	DB	0c0H
	DB	070H
	DB	092H
	DB	0d8H
	DB	0c0H
	DB	070H
	DB	092H
	DB	0d8H
	DB	0bcH
	DB	078H
	DB	092H
	DB	0d0H
	DB	0bcH
	DB	070H
	DB	092H
	DB	0d0H
	DB	0b8H
	DB	068H
	DB	08aH
	DB	0c8H
	DB	0b4H
	DB	068H
	DB	079H
	DB	0d0H
	DB	0b4H
	DB	068H
	DB	051H
	DB	0d0H
	DB	0b8H
	DB	070H
	DB	010H
	DB	0f8H
	DB	0fcH
	DB	0f8H
	DB	00H
	DB	0f8H
	DB	0fcH
	DB	0f8H
	DB	00H
	DB	0f8H
	DB	0fcH
	DB	0f8H
	DB	00H
	DB	0f8H
	DB	0fcH
	DB	0f8H
	DB	00H
	DB	0f8H
	DB	0fcH
	DB	0f8H
	DB	00H
	DB	0f8H
	DB	0fcH
	DB	0f8H
	DB	00H
	DB	0f8H
	DB	0fcH
	DB	0f8H
	DB	00H
	DB	0f8H
	DB	0fcH
	DB	0f8H
	DB	00H
	DB	0f8H
	DB	0fcH
	DB	0f8H
	DB	00H
	DB	0f8H
	DB	0fcH
	DB	0f8H
	DB	00H
	DB	0f8H
	DB	0fcH
	DB	0f8H
	DB	00H
	DB	0f8H
	DB	0fcH
	DB	0f8H
	DB	00H
	DB	0f8H
	DB	0fcH
	DB	0f8H
	DB	00H
	DB	0f8H
	DB	0fcH
	DB	0f8H
	DB	00H
	DB	0f8H
	DB	0fcH
	DB	0f8H
	DB	00H
	DB	0f8H
	DB	0fcH
	DB	0f8H
	DB	00H
	DB	0f8H
	DB	0fcH
	DB	0f8H
	DB	00H
	DB	0f8H
	DB	0fcH
	DB	0f8H
	DB	00H
	DB	0f8H
	DB	0fcH
	DB	0f8H
	DB	00H
	DB	0f8H
	DB	0fcH
	DB	0f8H
	DB	00H
	DB	0f8H
	DB	0fcH
	DB	0f8H
	DB	00H
	DB	0f8H
	DB	0fcH
	DB	0f8H
	DB	00H
	DB	0f8H
	DB	0fcH
	DB	0f8H
	DB	00H
	DB	0f8H
	DB	0fcH
	DB	0f8H
	DB	00H
	DB	0f8H
	DB	0fcH
	DB	0f8H
	DB	00H
	DB	0f8H
	DB	0fcH
	DB	0f8H
	DB	00H
	DB	0f8H
	DB	0fcH
	DB	0f8H
	DB	00H
	DB	0f8H
	DB	0fcH
	DB	0f8H
	DB	00H
	DB	0f8H
	DB	0fcH
	DB	0f8H
	DB	00H
	DB	0f8H
	DB	0fcH
	DB	0f8H
	DB	00H
	DB	0f8H
	DB	0fcH
	DB	0f8H
	DB	00H
	DB	0f8H
	DB	0fcH
	DB	0f8H
	DB	00H
	DB	0f8H
	DB	0fcH
	DB	0f8H
	DB	00H
	DB	0f8H
	DB	0fcH
	DB	0f8H
	DB	00H
	DB	0f8H
	DB	0fcH
	DB	0f8H
	DB	00H
	DB	0f8H
	DB	0fcH
	DB	0f8H
	DB	00H
	DB	0f8H
	DB	0fcH
	DB	0f8H
	DB	00H
	DB	0f8H
	DB	0fcH
	DB	0f8H
	DB	00H
	DB	0f8H
	DB	0fcH
	DB	0f8H
	DB	00H
	DB	0f8H
	DB	0fcH
	DB	0f8H
	DB	00H
	DB	0f8H
	DB	0fcH
	DB	0f8H
	DB	00H
	DB	0f8H
	DB	0fcH
	DB	0f8H
	DB	00H
	DB	0f8H
	DB	0fcH
	DB	0f8H
	DB	00H
	DB	0f8H
	DB	0fcH
	DB	0f8H
	DB	00H
	DB	0f8H
	DB	0fcH
	DB	0f8H
	DB	00H
	DB	0f8H
	DB	0fcH
	DB	0f8H
	DB	00H
	DB	0f8H
	DB	0fcH
	DB	0f8H
	DB	00H
	DB	0f8H
	DB	0fcH
	DB	0f8H
	DB	00H
	DB	0f8H
	DB	0fcH
	DB	0f8H
	DB	00H
	DB	0f8H
	DB	0fcH
	DB	0f8H
	DB	00H
	DB	0f8H
	DB	0fcH
	DB	0f8H
	DB	00H
	DB	0f8H
	DB	0fcH
	DB	0f8H
	DB	00H
	DB	0f8H
	DB	0fcH
	DB	0f8H
	DB	00H
	DB	0f8H
	DB	0fcH
	DB	0f8H
	DB	00H
	DB	0f8H
	DB	0fcH
	DB	0f8H
	DB	00H
	DB	0f8H
	DB	0fcH
	DB	0f8H
	DB	00H
	DB	0f8H
	DB	0fcH
	DB	0f8H
	DB	00H
	DB	0f8H
	DB	0fcH
	DB	0f8H
	DB	00H
	DB	0f8H
	DB	0fcH
	DB	0f8H
	DB	00H
	DB	0f8H
	DB	0fcH
	DB	0f8H
	DB	00H
	DB	0f8H
	DB	0fcH
	DB	0f8H
	DB	00H
	DB	0f8H
	DB	0fcH
	DB	0f8H
	DB	00H
	DB	0f8H
	DB	0fcH
	DB	0f8H
	DB	00H
	DB	0f8H
	DB	0fcH
	DB	0f8H
	DB	00H
	DB	0f8H
	DB	0fcH
	DB	0f8H
	DB	00H
	DB	0f8H
	DB	0fcH
	DB	0f8H
	DB	00H
	DB	0f8H
	DB	0fcH
	DB	0f8H
	DB	00H
	DB	0f8H
	DB	0fcH
	DB	0f8H
	DB	00H
	DB	0f8H
	DB	0fcH
	DB	0f8H
	DB	00H
	DB	0f8H
	DB	0fcH
	DB	0f8H
	DB	00H
	DB	0f8H
	DB	0fcH
	DB	0f8H
	DB	00H
	DB	0f8H
	DB	0fcH
	DB	0f8H
	DB	00H
	DB	0f8H
	DB	0fcH
	DB	0f8H
	DB	00H
	DB	0f8H
	DB	0fcH
	DB	0f8H
	DB	00H
	DB	0f8H
	DB	0fcH
	DB	0f8H
	DB	00H
	DB	0f8H
	DB	0fcH
	DB	0f8H
	DB	00H
	DB	0f8H
	DB	0fcH
	DB	0f8H
	DB	00H
	DB	0f8H
	DB	0fcH
	DB	0f8H
	DB	00H
	DB	0f8H
	DB	0fcH
	DB	0f8H
	DB	00H
	DB	0f8H
	DB	0fcH
	DB	0f8H
	DB	00H
	DB	0f8H
	DB	0fcH
	DB	0f8H
	DB	00H
	DB	0f8H
	DB	0fcH
	DB	0f8H
	DB	00H
	DB	0f8H
	DB	0fcH
	DB	0f8H
	DB	00H
	DB	0f8H
	DB	0fcH
	DB	0f8H
	DB	00H
	DB	0f8H
	DB	0fcH
	DB	0f8H
	DB	00H
	DB	0f8H
	DB	0fcH
	DB	0f8H
	DB	00H
	DB	0f8H
	DB	0fcH
	DB	0f8H
	DB	00H
	DB	0f8H
	DB	0fcH
	DB	0f8H
	DB	00H
	DB	0f8H
	DB	0fcH
	DB	0f8H
	DB	00H
	DB	0f8H
	DB	0fcH
	DB	0f8H
	DB	00H
	DB	0f8H
	DB	0fcH
	DB	0f8H
	DB	00H
	DB	0f8H
	DB	0fcH
	DB	0f8H
	DB	00H
	DB	0f8H
	DB	0fcH
	DB	0f8H
	DB	00H
	DB	0f8H
	DB	0fcH
	DB	0f8H
	DB	00H
	DB	0f8H
	DB	0fcH
	DB	0f8H
	DB	00H
	DB	0f8H
	DB	0fcH
	DB	0f8H
	DB	00H
	DB	0f8H
	DB	0fcH
	DB	0f8H
	DB	00H
	DB	0f8H
	DB	0fcH
	DB	0f8H
	DB	00H
	DB	0f8H
	DB	0fcH
	DB	0f8H
	DB	00H
	DB	0f8H
	DB	0fcH
	DB	0f8H
	DB	00H
	DB	0f8H
	DB	0fcH
	DB	0f8H
	DB	00H
	DB	0f8H
	DB	0fcH
	DB	0f8H
	DB	00H
	DB	0f8H
	DB	0fcH
	DB	0f8H
	DB	00H
	DB	0f8H
	DB	0fcH
	DB	0f8H
	DB	00H
	DB	0f8H
	DB	0fcH
	DB	0f8H
	DB	00H
	DB	0f8H
	DB	0fcH
	DB	0f8H
	DB	00H
	DB	0f8H
	DB	0fcH
	DB	0f8H
	DB	00H
	DB	0f8H
	DB	0fcH
	DB	0f8H
	DB	00H
	DB	0f8H
	DB	0fcH
	DB	0f8H
	DB	00H
	DB	0f8H
	DB	0fcH
	DB	0f8H
	DB	00H
	DB	0f8H
	DB	0fcH
	DB	0f8H
	DB	00H
	DB	0f8H
	DB	0fcH
	DB	0f8H
	DB	00H
	DB	0f8H
	DB	0fcH
	DB	0f8H
	DB	00H
	DB	0f8H
	DB	0fcH
	DB	0f8H
	DB	00H
	DB	0f8H
	DB	0fcH
	DB	0f8H
	DB	00H
	DB	0f8H
	DB	0fcH
	DB	0f8H
	DB	00H
	DB	0f8H
	DB	0fcH
	DB	0f8H
	DB	00H
	DB	0f8H
	DB	0fcH
	DB	0f8H
	DB	00H
	DB	0f8H
	DB	0fcH
	DB	0f8H
	DB	00H
	DB	0f8H
	DB	0fcH
	DB	0f8H
	DB	00H
	DB	0f8H
	DB	0fcH
	DB	0f8H
	DB	00H
	DB	0f8H
	DB	0fcH
	DB	0f8H
	DB	00H
	DB	0f8H
	DB	0fcH
	DB	0f8H
	DB	00H
	DB	0f8H
	DB	0fcH
	DB	0f8H
	DB	00H
	DB	0f8H
	DB	0fcH
	DB	0f8H
	DB	00H
	DB	0f8H
	DB	0fcH
	DB	0f8H
	DB	00H
	DB	0f8H
	DB	0fcH
	DB	0f8H
	DB	00H
	DB	0f8H
	DB	0fcH
	DB	0f8H
	DB	00H
	DB	0f8H
	DB	0fcH
	DB	0f8H
	DB	00H
	DB	0f8H
	DB	0fcH
	DB	0f8H
	DB	00H
	DB	0f8H
	DB	0fcH
	DB	0f8H
	DB	00H
	DB	0f8H
	DB	0fcH
	DB	0f8H
	DB	00H
	DB	0f8H
	DB	0fcH
	DB	0f8H
	DB	00H
	DB	0f8H
	DB	0fcH
	DB	0f8H
	DB	00H
	DB	0f8H
	DB	0fcH
	DB	0f8H
	DB	00H
	DB	0f8H
	DB	0fcH
	DB	0f8H
	DB	00H
	DB	0f8H
	DB	0fcH
	DB	0f8H
	DB	00H
	DB	0f8H
	DB	0fcH
	DB	0f8H
	DB	00H
	DB	0f8H
	DB	0fcH
	DB	0f8H
	DB	00H
	DB	0f8H
	DB	0fcH
	DB	0f8H
	DB	00H
	DB	0f8H
	DB	0fcH
	DB	0f8H
	DB	00H
	DB	0f8H
	DB	0fcH
	DB	0f8H
	DB	00H
	DB	0f8H
	DB	0fcH
	DB	0f8H
	DB	00H
	DB	0f8H
	DB	0fcH
	DB	0f8H
	DB	00H
	DB	0f8H
	DB	0fcH
	DB	0f8H
	DB	00H
	DB	0f8H
	DB	0fcH
	DB	0f8H
	DB	00H
	DB	0b8H
	DB	09cH
	DB	050H
	DB	00H
	DB	0b8H
	DB	098H
	DB	050H
	DB	03cH
	DB	0b8H
	DB	098H
	DB	040H
	DB	065H
	DB	0b8H
	DB	094H
	DB	040H
	DB	06dH
	DB	0b0H
	DB	094H
	DB	040H
	DB	06dH
	DB	0b8H
	DB	094H
	DB	040H
	DB	06dH
	DB	0b0H
	DB	094H
	DB	040H
	DB	071H
	DB	0b0H
	DB	090H
	DB	038H
	DB	071H
	DB	0b0H
	DB	090H
	DB	038H
	DB	071H
	DB	0b0H
	DB	094H
	DB	040H
	DB	071H
	DB	0b0H
	DB	094H
	DB	040H
	DB	071H
	DB	0b8H
	DB	094H
	DB	040H
	DB	071H
	DB	0b8H
	DB	098H
	DB	040H
	DB	071H
	DB	0b8H
	DB	098H
	DB	040H
	DB	075H
	DB	0b8H
	DB	098H
	DB	040H
	DB	071H
	DB	0b8H
	DB	09cH
	DB	048H
	DB	071H
	DB	0c0H
	DB	0a0H
	DB	048H
	DB	075H
	DB	0c0H
	DB	0a0H
	DB	048H
	DB	075H
	DB	0c0H
	DB	0a4H
	DB	050H
	DB	075H
	DB	0c0H
	DB	0a4H
	DB	050H
	DB	075H
	DB	0c8H
	DB	0a8H
	DB	050H
	DB	075H
	DB	0c8H
	DB	0a8H
	DB	058H
	DB	075H
	DB	0c8H
	DB	0a8H
	DB	050H
	DB	079H
	DB	0c0H
	DB	0a4H
	DB	050H
	DB	079H
	DB	0c0H
	DB	0a4H
	DB	050H
	DB	075H
	DB	0c8H
	DB	0a4H
	DB	050H
	DB	079H
	DB	0c0H
	DB	0a4H
	DB	050H
	DB	079H
	DB	0c0H
	DB	0a4H
	DB	050H
	DB	079H
	DB	0c8H
	DB	0acH
	DB	058H
	DB	079H
	DB	0d0H
	DB	0b0H
	DB	060H
	DB	079H
	DB	0d0H
	DB	0b4H
	DB	068H
	DB	079H
	DB	0d0H
	DB	0b8H
	DB	068H
	DB	079H
	DB	0d0H
	DB	0bcH
	DB	070H
	DB	07dH
	DB	0d8H
	DB	0bcH
	DB	070H
	DB	07dH
	DB	0d0H
	DB	0bcH
	DB	070H
	DB	079H
	DB	0d8H
	DB	0bcH
	DB	070H
	DB	07dH
	DB	0d8H
	DB	0bcH
	DB	070H
	DB	07dH
	DB	0d0H
	DB	0bcH
	DB	070H
	DB	07dH
	DB	0d0H
	DB	0bcH
	DB	070H
	DB	07dH
	DB	0d0H
	DB	0b8H
	DB	070H
	DB	07dH
	DB	0d0H
	DB	0bcH
	DB	070H
	DB	07dH
	DB	0d8H
	DB	0bcH
	DB	070H
	DB	07dH
	DB	0d0H
	DB	0b8H
	DB	070H
	DB	07dH
	DB	0d8H
	DB	0bcH
	DB	070H
	DB	07dH
	DB	0d0H
	DB	0bcH
	DB	070H
	DB	082H
	DB	0d0H
	DB	0bcH
	DB	070H
	DB	082H
	DB	0d8H
	DB	0b8H
	DB	070H
	DB	082H
	DB	0d8H
	DB	0bcH
	DB	070H
	DB	082H
	DB	0d0H
	DB	0bcH
	DB	068H
	DB	082H
	DB	0d0H
	DB	0b8H
	DB	068H
	DB	082H
	DB	0d0H
	DB	0b8H
	DB	068H
	DB	082H
	DB	0d0H
	DB	0b8H
	DB	068H
	DB	082H
	DB	0d0H
	DB	0b8H
	DB	068H
	DB	082H
	DB	0d0H
	DB	0b8H
	DB	070H
	DB	086H
	DB	0d8H
	DB	0bcH
	DB	070H
	DB	086H
	DB	0d8H
	DB	0bcH
	DB	070H
	DB	086H
	DB	0d0H
	DB	0bcH
	DB	070H
	DB	086H
	DB	0d8H
	DB	0c0H
	DB	078H
	DB	086H
	DB	0d0H
	DB	0bcH
	DB	070H
	DB	086H
	DB	0d8H
	DB	0bcH
	DB	078H
	DB	086H
	DB	0d8H
	DB	0c0H
	DB	078H
	DB	08aH
	DB	0d8H
	DB	0c4H
	DB	088H
	DB	086H
	DB	0e0H
	DB	0ccH
	DB	090H
	DB	086H
	DB	0d8H
	DB	0c8H
	DB	090H
	DB	08aH
	DB	0e0H
	DB	0ccH
	DB	098H
	DB	086H
	DB	0d8H
	DB	0c8H
	DB	088H
	DB	08aH
	DB	0d8H
	DB	0c4H
	DB	080H
	DB	08aH
	DB	0d8H
	DB	0c4H
	DB	080H
	DB	08aH
	DB	0d8H
	DB	0c0H
	DB	080H
	DB	08aH
	DB	0d8H
	DB	0c0H
	DB	080H
	DB	08aH
	DB	0d8H
	DB	0c4H
	DB	080H
	DB	08aH
	DB	0d8H
	DB	0c4H
	DB	080H
	DB	08aH
	DB	0d8H
	DB	0c0H
	DB	080H
	DB	08eH
	DB	0d8H
	DB	0c4H
	DB	080H
	DB	08eH
	DB	0d8H
	DB	0c8H
	DB	088H
	DB	08aH
	DB	0e0H
	DB	0c8H
	DB	088H
	DB	08eH
	DB	0e0H
	DB	0c8H
	DB	088H
	DB	08eH
	DB	0d8H
	DB	0c8H
	DB	080H
	DB	08eH
	DB	0d8H
	DB	0c4H
	DB	080H
	DB	08eH
	DB	0d8H
	DB	0c4H
	DB	080H
	DB	08eH
	DB	0d8H
	DB	0c4H
	DB	080H
	DB	08eH
	DB	0d8H
	DB	0c4H
	DB	080H
	DB	08eH
	DB	0d8H
	DB	0c4H
	DB	078H
	DB	08eH
	DB	0d8H
	DB	0c0H
	DB	078H
	DB	092H
	DB	0d0H
	DB	0c0H
	DB	070H
	DB	092H
	DB	0d0H
	DB	0c0H
	DB	070H
	DB	08eH
	DB	0d8H
	DB	0bcH
	DB	070H
	DB	092H
	DB	0d0H
	DB	0bcH
	DB	068H
	DB	08eH
	DB	0d8H
	DB	0bcH
	DB	070H
	DB	08eH
	DB	0d8H
	DB	0c0H
	DB	070H
	DB	08eH
	DB	0d0H
	DB	0bcH
	DB	068H
	DB	092H
	DB	0d0H
	DB	0b8H
	DB	068H
	DB	08eH
	DB	0d0H
	DB	0b8H
	DB	068H
	DB	08eH
	DB	0d0H
	DB	0b4H
	DB	068H
	DB	092H
	DB	0d0H
	DB	0b8H
	DB	068H
	DB	092H
	DB	0d0H
	DB	0b8H
	DB	070H
	DB	092H
	DB	0d0H
	DB	0b8H
	DB	068H
	DB	092H
	DB	0d0H
	DB	0c0H
	DB	070H
	DB	092H
	DB	0c0H
	DB	0a4H
	DB	058H
	DB	08eH
	DB	0b0H
	DB	09cH
	DB	050H
	DB	092H
	DB	0d0H
	DB	0bcH
	DB	078H
	DB	092H
	DB	0d8H
	DB	0c0H
	DB	078H
	DB	08eH
	DB	0d0H
	DB	0bcH
	DB	078H
	DB	092H
	DB	0d8H
	DB	0c8H
	DB	088H
	DB	08eH
	DB	0e8H
	DB	0d4H
	DB	0a0H
	DB	092H
	DB	0e8H
	DB	0d4H
	DB	0a8H
	DB	092H
	DB	0d0H
	DB	0c0H
	DB	080H
	DB	092H
	DB	0d8H
	DB	0c4H
	DB	080H
	DB	08eH
	DB	0d8H
	DB	0c0H
	DB	078H
	DB	092H
	DB	0d8H
	DB	0c8H
	DB	080H
	DB	08eH
	DB	0d8H
	DB	0c0H
	DB	078H
	DB	08eH
	DB	0d8H
	DB	0c0H
	DB	078H
	DB	092H
	DB	0d8H
	DB	0c0H
	DB	078H
	DB	092H
	DB	0d8H
	DB	0c0H
	DB	078H
	DB	08eH
	DB	0d0H
	DB	0bcH
	DB	070H
	DB	092H
	DB	0d0H
	DB	0bcH
	DB	068H
	DB	092H
	DB	0d0H
	DB	0b4H
	DB	060H
	DB	092H
	DB	0d0H
	DB	0b8H
	DB	068H
	DB	08eH
	DB	0d0H
	DB	0bcH
	DB	068H
	DB	08eH
	DB	0c8H
	DB	0b4H
	DB	060H
	DB	082H
	DB	0c8H
	DB	0b0H
	DB	068H
	DB	061H
	DB	0d0H
	DB	0b4H
	DB	068H
	DB	024H
	DB	0f8H
	DB	0fcH
	DB	0f8H
	DB	00H
	DB	0f8H
	DB	0fcH
	DB	0f8H
	DB	00H
	DB	0f8H
	DB	0fcH
	DB	0f8H
	DB	00H
	DB	0f8H
	DB	0fcH
	DB	0f8H
	DB	00H
	DB	0f8H
	DB	0fcH
	DB	0f8H
	DB	00H
	DB	0f8H
	DB	0fcH
	DB	0f8H
	DB	00H
	DB	0f8H
	DB	0fcH
	DB	0f8H
	DB	00H
	DB	0f8H
	DB	0fcH
	DB	0f8H
	DB	00H
	DB	0f8H
	DB	0fcH
	DB	0f8H
	DB	00H
	DB	0f8H
	DB	0fcH
	DB	0f8H
	DB	00H
	DB	0f8H
	DB	0fcH
	DB	0f8H
	DB	00H
	DB	0f8H
	DB	0fcH
	DB	0f8H
	DB	00H
	DB	0f8H
	DB	0fcH
	DB	0f8H
	DB	00H
	DB	0f8H
	DB	0fcH
	DB	0f8H
	DB	00H
	DB	0f8H
	DB	0fcH
	DB	0f8H
	DB	00H
	DB	0f8H
	DB	0fcH
	DB	0f8H
	DB	00H
	DB	0f8H
	DB	0fcH
	DB	0f8H
	DB	00H
	DB	0f8H
	DB	0fcH
	DB	0f8H
	DB	00H
	DB	0f8H
	DB	0fcH
	DB	0f8H
	DB	00H
	DB	0f8H
	DB	0fcH
	DB	0f8H
	DB	00H
	DB	0f8H
	DB	0fcH
	DB	0f8H
	DB	00H
	DB	0f8H
	DB	0fcH
	DB	0f8H
	DB	00H
	DB	0f8H
	DB	0fcH
	DB	0f8H
	DB	00H
	DB	0f8H
	DB	0fcH
	DB	0f8H
	DB	00H
	DB	0f8H
	DB	0fcH
	DB	0f8H
	DB	00H
	DB	0f8H
	DB	0fcH
	DB	0f8H
	DB	00H
	DB	0f8H
	DB	0fcH
	DB	0f8H
	DB	00H
	DB	0f8H
	DB	0fcH
	DB	0f8H
	DB	00H
	DB	0f8H
	DB	0fcH
	DB	0f8H
	DB	00H
	DB	0f8H
	DB	0fcH
	DB	0f8H
	DB	00H
	DB	0f8H
	DB	0fcH
	DB	0f8H
	DB	00H
	DB	0f8H
	DB	0fcH
	DB	0f8H
	DB	00H
	DB	0f8H
	DB	0fcH
	DB	0f8H
	DB	00H
	DB	0f8H
	DB	0fcH
	DB	0f8H
	DB	00H
	DB	0f8H
	DB	0fcH
	DB	0f8H
	DB	00H
	DB	0f8H
	DB	0fcH
	DB	0f8H
	DB	00H
	DB	0f8H
	DB	0fcH
	DB	0f8H
	DB	00H
	DB	0f8H
	DB	0fcH
	DB	0f8H
	DB	00H
	DB	0f8H
	DB	0fcH
	DB	0f8H
	DB	00H
	DB	0f8H
	DB	0fcH
	DB	0f8H
	DB	00H
	DB	0f8H
	DB	0fcH
	DB	0f8H
	DB	00H
	DB	0f8H
	DB	0fcH
	DB	0f8H
	DB	00H
	DB	0f8H
	DB	0fcH
	DB	0f8H
	DB	00H
	DB	0f8H
	DB	0fcH
	DB	0f8H
	DB	00H
	DB	0f8H
	DB	0fcH
	DB	0f8H
	DB	00H
	DB	0f8H
	DB	0fcH
	DB	0f8H
	DB	00H
	DB	0f8H
	DB	0fcH
	DB	0f8H
	DB	00H
	DB	0f8H
	DB	0fcH
	DB	0f8H
	DB	00H
	DB	0f8H
	DB	0fcH
	DB	0f8H
	DB	00H
	DB	0f8H
	DB	0fcH
	DB	0f8H
	DB	00H
	DB	0f8H
	DB	0fcH
	DB	0f8H
	DB	00H
	DB	0f8H
	DB	0fcH
	DB	0f8H
	DB	00H
	DB	0f8H
	DB	0fcH
	DB	0f8H
	DB	00H
	DB	0f8H
	DB	0fcH
	DB	0f8H
	DB	00H
	DB	0f8H
	DB	0fcH
	DB	0f8H
	DB	00H
	DB	0f8H
	DB	0fcH
	DB	0f8H
	DB	00H
	DB	0f8H
	DB	0fcH
	DB	0f8H
	DB	00H
	DB	0f8H
	DB	0fcH
	DB	0f8H
	DB	00H
	DB	0f8H
	DB	0fcH
	DB	0f8H
	DB	00H
	DB	0f8H
	DB	0fcH
	DB	0f8H
	DB	00H
	DB	0f8H
	DB	0fcH
	DB	0f8H
	DB	00H
	DB	0f8H
	DB	0fcH
	DB	0f8H
	DB	00H
	DB	0f8H
	DB	0fcH
	DB	0f8H
	DB	00H
	DB	0f8H
	DB	0fcH
	DB	0f8H
	DB	00H
	DB	0f8H
	DB	0fcH
	DB	0f8H
	DB	00H
	DB	0f8H
	DB	0fcH
	DB	0f8H
	DB	00H
	DB	0f8H
	DB	0fcH
	DB	0f8H
	DB	00H
	DB	0f8H
	DB	0fcH
	DB	0f8H
	DB	00H
	DB	0f8H
	DB	0fcH
	DB	0f8H
	DB	00H
	DB	0f8H
	DB	0fcH
	DB	0f8H
	DB	00H
	DB	0f8H
	DB	0fcH
	DB	0f8H
	DB	00H
	DB	0f8H
	DB	0fcH
	DB	0f8H
	DB	00H
	DB	0f8H
	DB	0fcH
	DB	0f8H
	DB	00H
	DB	0f8H
	DB	0fcH
	DB	0f8H
	DB	00H
	DB	0f8H
	DB	0fcH
	DB	0f8H
	DB	00H
	DB	0f8H
	DB	0fcH
	DB	0f8H
	DB	00H
	DB	0f8H
	DB	0fcH
	DB	0f8H
	DB	00H
	DB	0f8H
	DB	0fcH
	DB	0f8H
	DB	00H
	DB	0f8H
	DB	0fcH
	DB	0f8H
	DB	00H
	DB	0f8H
	DB	0fcH
	DB	0f8H
	DB	00H
	DB	0f8H
	DB	0fcH
	DB	0f8H
	DB	00H
	DB	0f8H
	DB	0fcH
	DB	0f8H
	DB	00H
	DB	0f8H
	DB	0fcH
	DB	0f8H
	DB	00H
	DB	0f8H
	DB	0fcH
	DB	0f8H
	DB	00H
	DB	0f8H
	DB	0fcH
	DB	0f8H
	DB	00H
	DB	0f8H
	DB	0fcH
	DB	0f8H
	DB	00H
	DB	0f8H
	DB	0fcH
	DB	0f8H
	DB	00H
	DB	0f8H
	DB	0fcH
	DB	0f8H
	DB	00H
	DB	0f8H
	DB	0fcH
	DB	0f8H
	DB	00H
	DB	0f8H
	DB	0fcH
	DB	0f8H
	DB	00H
	DB	0f8H
	DB	0fcH
	DB	0f8H
	DB	00H
	DB	0f8H
	DB	0fcH
	DB	0f8H
	DB	00H
	DB	0f8H
	DB	0fcH
	DB	0f8H
	DB	00H
	DB	0f8H
	DB	0fcH
	DB	0f8H
	DB	00H
	DB	0f8H
	DB	0fcH
	DB	0f8H
	DB	00H
	DB	0f8H
	DB	0fcH
	DB	0f8H
	DB	00H
	DB	0f8H
	DB	0fcH
	DB	0f8H
	DB	00H
	DB	0f8H
	DB	0fcH
	DB	0f8H
	DB	00H
	DB	0f8H
	DB	0fcH
	DB	0f8H
	DB	00H
	DB	0f8H
	DB	0fcH
	DB	0f8H
	DB	00H
	DB	0f8H
	DB	0fcH
	DB	0f8H
	DB	00H
	DB	0f8H
	DB	0fcH
	DB	0f8H
	DB	00H
	DB	0f8H
	DB	0fcH
	DB	0f8H
	DB	00H
	DB	0f8H
	DB	0fcH
	DB	0f8H
	DB	00H
	DB	0f8H
	DB	0fcH
	DB	0f8H
	DB	00H
	DB	0f8H
	DB	0fcH
	DB	0f8H
	DB	00H
	DB	0f8H
	DB	0fcH
	DB	0f8H
	DB	00H
	DB	0f8H
	DB	0fcH
	DB	0f8H
	DB	00H
	DB	0f8H
	DB	0fcH
	DB	0f8H
	DB	00H
	DB	0f8H
	DB	0fcH
	DB	0f8H
	DB	00H
	DB	0f8H
	DB	0fcH
	DB	0f8H
	DB	00H
	DB	0f8H
	DB	0fcH
	DB	0f8H
	DB	00H
	DB	0f8H
	DB	0fcH
	DB	0f8H
	DB	00H
	DB	0f8H
	DB	0fcH
	DB	0f8H
	DB	00H
	DB	0f8H
	DB	0fcH
	DB	0f8H
	DB	00H
	DB	0f8H
	DB	0fcH
	DB	0f8H
	DB	00H
	DB	0f8H
	DB	0fcH
	DB	0f8H
	DB	00H
	DB	0f8H
	DB	0fcH
	DB	0f8H
	DB	00H
	DB	0f8H
	DB	0fcH
	DB	0f8H
	DB	00H
	DB	0f8H
	DB	0fcH
	DB	0f8H
	DB	00H
	DB	0f8H
	DB	0fcH
	DB	0f8H
	DB	00H
	DB	0f8H
	DB	0fcH
	DB	0f8H
	DB	00H
	DB	0f8H
	DB	0fcH
	DB	0f8H
	DB	00H
	DB	0f8H
	DB	0fcH
	DB	0f8H
	DB	00H
	DB	0f8H
	DB	0fcH
	DB	0f8H
	DB	00H
	DB	0f8H
	DB	0fcH
	DB	0f8H
	DB	00H
	DB	0f8H
	DB	0fcH
	DB	0f8H
	DB	00H
	DB	0f8H
	DB	0fcH
	DB	0f8H
	DB	00H
	DB	0f8H
	DB	0fcH
	DB	0f8H
	DB	00H
	DB	0f8H
	DB	0fcH
	DB	0f8H
	DB	00H
	DB	0f8H
	DB	0fcH
	DB	0f8H
	DB	00H
	DB	0f8H
	DB	0fcH
	DB	0f8H
	DB	00H
	DB	0f8H
	DB	0fcH
	DB	0f8H
	DB	00H
	DB	0f8H
	DB	0fcH
	DB	0f8H
	DB	00H
	DB	0f8H
	DB	0fcH
	DB	0f8H
	DB	00H
	DB	0f8H
	DB	0fcH
	DB	0f8H
	DB	00H
	DB	0f8H
	DB	0fcH
	DB	0f8H
	DB	00H
	DB	0f8H
	DB	0fcH
	DB	0f8H
	DB	00H
	DB	0f8H
	DB	0fcH
	DB	0f8H
	DB	00H
	DB	0f8H
	DB	0fcH
	DB	0f8H
	DB	00H
	DB	0f8H
	DB	0fcH
	DB	0f8H
	DB	00H
	DB	0b8H
	DB	0a0H
	DB	058H
	DB	00H
	DB	0b8H
	DB	09cH
	DB	050H
	DB	041H
	DB	0b8H
	DB	098H
	DB	048H
	DB	065H
	DB	0b8H
	DB	098H
	DB	040H
	DB	06dH
	DB	0b0H
	DB	094H
	DB	040H
	DB	06dH
	DB	0b0H
	DB	094H
	DB	040H
	DB	071H
	DB	0b8H
	DB	094H
	DB	040H
	DB	06dH
	DB	0b8H
	DB	098H
	DB	040H
	DB	071H
	DB	0b8H
	DB	094H
	DB	040H
	DB	071H
	DB	0b8H
	DB	094H
	DB	040H
	DB	071H
	DB	0b8H
	DB	094H
	DB	040H
	DB	071H
	DB	0b0H
	DB	094H
	DB	040H
	DB	071H
	DB	0b0H
	DB	094H
	DB	040H
	DB	071H
	DB	0b0H
	DB	094H
	DB	040H
	DB	071H
	DB	0b0H
	DB	098H
	DB	040H
	DB	071H
	DB	0b8H
	DB	094H
	DB	040H
	DB	071H
	DB	0b0H
	DB	098H
	DB	040H
	DB	075H
	DB	0b8H
	DB	098H
	DB	040H
	DB	071H
	DB	0b8H
	DB	098H
	DB	048H
	DB	075H
	DB	0b8H
	DB	09cH
	DB	048H
	DB	075H
	DB	0c0H
	DB	0a0H
	DB	048H
	DB	075H
	DB	0c0H
	DB	0a4H
	DB	050H
	DB	075H
	DB	0c8H
	DB	0a8H
	DB	058H
	DB	075H
	DB	0c8H
	DB	0a8H
	DB	058H
	DB	075H
	DB	0c0H
	DB	0a8H
	DB	058H
	DB	075H
	DB	0c8H
	DB	0a8H
	DB	058H
	DB	075H
	DB	0c8H
	DB	0acH
	DB	058H
	DB	075H
	DB	0c8H
	DB	0a8H
	DB	058H
	DB	075H
	DB	0c8H
	DB	0a8H
	DB	058H
	DB	079H
	DB	0c0H
	DB	0a8H
	DB	058H
	DB	079H
	DB	0c8H
	DB	0a8H
	DB	058H
	DB	079H
	DB	0c8H
	DB	0b0H
	DB	060H
	DB	079H
	DB	0d0H
	DB	0b4H
	DB	068H
	DB	079H
	DB	0d0H
	DB	0b8H
	DB	068H
	DB	079H
	DB	0d8H
	DB	0b8H
	DB	070H
	DB	079H
	DB	0d8H
	DB	0bcH
	DB	070H
	DB	07dH
	DB	0d8H
	DB	0bcH
	DB	078H
	DB	079H
	DB	0d8H
	DB	0bcH
	DB	078H
	DB	07dH
	DB	0d8H
	DB	0bcH
	DB	078H
	DB	07dH
	DB	0d8H
	DB	0bcH
	DB	078H
	DB	07dH
	DB	0d8H
	DB	0bcH
	DB	070H
	DB	07dH
	DB	0d0H
	DB	0bcH
	DB	070H
	DB	07dH
	DB	0d0H
	DB	0bcH
	DB	070H
	DB	07dH
	DB	0d8H
	DB	0b8H
	DB	070H
	DB	07dH
	DB	0d0H
	DB	0b8H
	DB	070H
	DB	082H
	DB	0d0H
	DB	0bcH
	DB	070H
	DB	07dH
	DB	0d8H
	DB	0bcH
	DB	070H
	DB	07dH
	DB	0d0H
	DB	0bcH
	DB	070H
	DB	082H
	DB	0d0H
	DB	0bcH
	DB	070H
	DB	07dH
	DB	0d0H
	DB	0bcH
	DB	070H
	DB	082H
	DB	0d8H
	DB	0bcH
	DB	070H
	DB	082H
	DB	0d8H
	DB	0bcH
	DB	070H
	DB	082H
	DB	0d0H
	DB	0b8H
	DB	070H
	DB	082H
	DB	0d0H
	DB	0b8H
	DB	070H
	DB	082H
	DB	0d0H
	DB	0b8H
	DB	068H
	DB	082H
	DB	0d0H
	DB	0b8H
	DB	068H
	DB	082H
	DB	0d8H
	DB	0bcH
	DB	070H
	DB	086H
	DB	0d0H
	DB	0bcH
	DB	070H
	DB	082H
	DB	0d0H
	DB	0bcH
	DB	070H
	DB	086H
	DB	0d8H
	DB	0bcH
	DB	070H
	DB	086H
	DB	0d0H
	DB	0bcH
	DB	070H
	DB	086H
	DB	0d0H
	DB	0bcH
	DB	078H
	DB	086H
	DB	0d8H
	DB	0c0H
	DB	078H
	DB	086H
	DB	0e0H
	DB	0c4H
	DB	080H
	DB	086H
	DB	0d8H
	DB	0c4H
	DB	080H
	DB	086H
	DB	0d8H
	DB	0c0H
	DB	078H
	DB	08aH
	DB	0e0H
	DB	0c8H
	DB	090H
	DB	086H
	DB	0e0H
	DB	0d0H
	DB	0a0H
	DB	086H
	DB	0e0H
	DB	0ccH
	DB	098H
	DB	08aH
	DB	0d8H
	DB	0c4H
	DB	080H
	DB	08aH
	DB	0d8H
	DB	0c4H
	DB	080H
	DB	08aH
	DB	0d8H
	DB	0c4H
	DB	080H
	DB	08aH
	DB	0d8H
	DB	0c4H
	DB	080H
	DB	08aH
	DB	0d8H
	DB	0c4H
	DB	080H
	DB	08aH
	DB	0d8H
	DB	0c4H
	DB	080H
	DB	08aH
	DB	0d8H
	DB	0c4H
	DB	088H
	DB	08eH
	DB	0d8H
	DB	0c8H
	DB	088H
	DB	08aH
	DB	0d8H
	DB	0c8H
	DB	088H
	DB	08aH
	DB	0d8H
	DB	0c8H
	DB	088H
	DB	08eH
	DB	0d8H
	DB	0c8H
	DB	088H
	DB	08eH
	DB	0d8H
	DB	0c4H
	DB	080H
	DB	08eH
	DB	0d8H
	DB	0c4H
	DB	080H
	DB	08eH
	DB	0d8H
	DB	0c4H
	DB	080H
	DB	08eH
	DB	0d8H
	DB	0c4H
	DB	080H
	DB	08eH
	DB	0d8H
	DB	0c4H
	DB	080H
	DB	08eH
	DB	0d8H
	DB	0c4H
	DB	080H
	DB	08eH
	DB	0d8H
	DB	0c0H
	DB	078H
	DB	08eH
	DB	0d8H
	DB	0bcH
	DB	070H
	DB	08eH
	DB	0d0H
	DB	0c0H
	DB	070H
	DB	092H
	DB	0d0H
	DB	0bcH
	DB	068H
	DB	092H
	DB	0d8H
	DB	0bcH
	DB	068H
	DB	08eH
	DB	0d8H
	DB	0bcH
	DB	070H
	DB	092H
	DB	0d0H
	DB	0bcH
	DB	070H
	DB	08eH
	DB	0d0H
	DB	0b4H
	DB	060H
	DB	092H
	DB	0c8H
	DB	0b0H
	DB	060H
	DB	08eH
	DB	0c8H
	DB	0b4H
	DB	060H
	DB	08eH
	DB	0c8H
	DB	0b4H
	DB	068H
	DB	08eH
	DB	0d0H
	DB	0b8H
	DB	068H
	DB	08eH
	DB	0d0H
	DB	0b8H
	DB	068H
	DB	08eH
	DB	0d0H
	DB	0bcH
	DB	070H
	DB	092H
	DB	0c0H
	DB	0acH
	DB	060H
	DB	092H
	DB	0d0H
	DB	0b4H
	DB	070H
	DB	092H
	DB	0d8H
	DB	0c0H
	DB	078H
	DB	092H
	DB	0d8H
	DB	0c4H
	DB	080H
	DB	092H
	DB	0d8H
	DB	0c0H
	DB	080H
	DB	08eH
	DB	0d8H
	DB	0c8H
	DB	088H
	DB	092H
	DB	0e8H
	DB	0d8H
	DB	0b0H
	DB	092H
	DB	0f0H
	DB	0e0H
	DB	0b8H
	DB	08eH
	DB	0d8H
	DB	0c8H
	DB	088H
	DB	092H
	DB	0d8H
	DB	0c4H
	DB	080H
	DB	092H
	DB	0d8H
	DB	0c4H
	DB	078H
	DB	092H
	DB	0d8H
	DB	0c4H
	DB	078H
	DB	092H
	DB	0d8H
	DB	0c4H
	DB	078H
	DB	092H
	DB	0d8H
	DB	0c4H
	DB	080H
	DB	092H
	DB	0d8H
	DB	0c0H
	DB	078H
	DB	08eH
	DB	0d8H
	DB	0c4H
	DB	078H
	DB	092H
	DB	0d8H
	DB	0c0H
	DB	078H
	DB	08eH
	DB	0d0H
	DB	0bcH
	DB	070H
	DB	08eH
	DB	0d0H
	DB	0b8H
	DB	068H
	DB	092H
	DB	0d0H
	DB	0bcH
	DB	070H
	DB	08eH
	DB	0d0H
	DB	0bcH
	DB	068H
	DB	092H
	DB	0c8H
	DB	0b4H
	DB	060H
	DB	08eH
	DB	0c8H
	DB	0b4H
	DB	060H
	DB	092H
	DB	0d0H
	DB	0b8H
	DB	068H
	DB	08eH
	DB	0d0H
	DB	0b8H
	DB	068H
	DB	086H
	DB	0c8H
	DB	0b4H
	DB	068H
	DB	065H
	DB	0c8H
	DB	0b4H
	DB	068H
	DB	024H
	DB	0f8H
	DB	0fcH
	DB	0f8H
	DB	00H
	DB	0f8H
	DB	0fcH
	DB	0f8H
	DB	00H
	DB	0f8H
	DB	0fcH
	DB	0f8H
	DB	00H
	DB	0f8H
	DB	0fcH
	DB	0f8H
	DB	00H
	DB	0f8H
	DB	0fcH
	DB	0f8H
	DB	00H
	DB	0f8H
	DB	0fcH
	DB	0f8H
	DB	00H
	DB	0f8H
	DB	0fcH
	DB	0f8H
	DB	00H
	DB	0f8H
	DB	0fcH
	DB	0f8H
	DB	00H
	DB	0f8H
	DB	0fcH
	DB	0f8H
	DB	00H
	DB	0f8H
	DB	0fcH
	DB	0f8H
	DB	00H
	DB	0f8H
	DB	0fcH
	DB	0f8H
	DB	00H
	DB	0f8H
	DB	0fcH
	DB	0f8H
	DB	00H
	DB	0f8H
	DB	0fcH
	DB	0f8H
	DB	00H
	DB	0f8H
	DB	0fcH
	DB	0f8H
	DB	00H
	DB	0f8H
	DB	0fcH
	DB	0f8H
	DB	00H
	DB	0f8H
	DB	0fcH
	DB	0f8H
	DB	00H
	DB	0f8H
	DB	0fcH
	DB	0f8H
	DB	00H
	DB	0f8H
	DB	0fcH
	DB	0f8H
	DB	00H
	DB	0f8H
	DB	0fcH
	DB	0f8H
	DB	00H
	DB	0f8H
	DB	0fcH
	DB	0f8H
	DB	00H
	DB	0f8H
	DB	0fcH
	DB	0f8H
	DB	00H
	DB	0f8H
	DB	0fcH
	DB	0f8H
	DB	00H
	DB	0f8H
	DB	0fcH
	DB	0f8H
	DB	00H
	DB	0f8H
	DB	0fcH
	DB	0f8H
	DB	00H
	DB	0f8H
	DB	0fcH
	DB	0f8H
	DB	00H
	DB	0f8H
	DB	0fcH
	DB	0f8H
	DB	00H
	DB	0f8H
	DB	0fcH
	DB	0f8H
	DB	00H
	DB	0f8H
	DB	0fcH
	DB	0f8H
	DB	00H
	DB	0f8H
	DB	0fcH
	DB	0f8H
	DB	00H
	DB	0f8H
	DB	0fcH
	DB	0f8H
	DB	00H
	DB	0f8H
	DB	0fcH
	DB	0f8H
	DB	00H
	DB	0f8H
	DB	0fcH
	DB	0f8H
	DB	00H
	DB	0f8H
	DB	0fcH
	DB	0f8H
	DB	00H
	DB	0f8H
	DB	0fcH
	DB	0f8H
	DB	00H
	DB	0f8H
	DB	0fcH
	DB	0f8H
	DB	00H
	DB	0f8H
	DB	0fcH
	DB	0f8H
	DB	00H
	DB	0f8H
	DB	0fcH
	DB	0f8H
	DB	00H
	DB	0f8H
	DB	0fcH
	DB	0f8H
	DB	00H
	DB	0f8H
	DB	0fcH
	DB	0f8H
	DB	00H
	DB	0f8H
	DB	0fcH
	DB	0f8H
	DB	00H
	DB	0f8H
	DB	0fcH
	DB	0f8H
	DB	00H
	DB	0f8H
	DB	0fcH
	DB	0f8H
	DB	00H
	DB	0f8H
	DB	0fcH
	DB	0f8H
	DB	00H
	DB	0f8H
	DB	0fcH
	DB	0f8H
	DB	00H
	DB	0f8H
	DB	0fcH
	DB	0f8H
	DB	00H
	DB	0f8H
	DB	0fcH
	DB	0f8H
	DB	00H
	DB	0f8H
	DB	0fcH
	DB	0f8H
	DB	00H
	DB	0f8H
	DB	0fcH
	DB	0f8H
	DB	00H
	DB	0f8H
	DB	0fcH
	DB	0f8H
	DB	00H
	DB	0f8H
	DB	0fcH
	DB	0f8H
	DB	00H
	DB	0f8H
	DB	0fcH
	DB	0f8H
	DB	00H
	DB	0f8H
	DB	0fcH
	DB	0f8H
	DB	00H
	DB	0f8H
	DB	0fcH
	DB	0f8H
	DB	00H
	DB	0f8H
	DB	0fcH
	DB	0f8H
	DB	00H
	DB	0f8H
	DB	0fcH
	DB	0f8H
	DB	00H
	DB	0f8H
	DB	0fcH
	DB	0f8H
	DB	00H
	DB	0f8H
	DB	0fcH
	DB	0f8H
	DB	00H
	DB	0f8H
	DB	0fcH
	DB	0f8H
	DB	00H
	DB	0f8H
	DB	0fcH
	DB	0f8H
	DB	00H
	DB	0f8H
	DB	0fcH
	DB	0f8H
	DB	00H
	DB	0f8H
	DB	0fcH
	DB	0f8H
	DB	00H
	DB	0f8H
	DB	0fcH
	DB	0f8H
	DB	00H
	DB	0f8H
	DB	0fcH
	DB	0f8H
	DB	00H
	DB	0f8H
	DB	0fcH
	DB	0f8H
	DB	00H
	DB	0f8H
	DB	0fcH
	DB	0f8H
	DB	00H
	DB	0f8H
	DB	0fcH
	DB	0f8H
	DB	00H
	DB	0f8H
	DB	0fcH
	DB	0f8H
	DB	00H
	DB	0f8H
	DB	0fcH
	DB	0f8H
	DB	00H
	DB	0f8H
	DB	0fcH
	DB	0f8H
	DB	00H
	DB	0f8H
	DB	0fcH
	DB	0f8H
	DB	00H
	DB	0f8H
	DB	0fcH
	DB	0f8H
	DB	00H
	DB	0f8H
	DB	0fcH
	DB	0f8H
	DB	00H
	DB	0f8H
	DB	0fcH
	DB	0f8H
	DB	00H
	DB	0f8H
	DB	0fcH
	DB	0f8H
	DB	00H
	DB	0f8H
	DB	0fcH
	DB	0f8H
	DB	00H
	DB	0f8H
	DB	0fcH
	DB	0f8H
	DB	00H
	DB	0f8H
	DB	0fcH
	DB	0f8H
	DB	00H
	DB	0f8H
	DB	0fcH
	DB	0f8H
	DB	00H
	DB	0f8H
	DB	0fcH
	DB	0f8H
	DB	00H
	DB	0f8H
	DB	0fcH
	DB	0f8H
	DB	00H
	DB	0f8H
	DB	0fcH
	DB	0f8H
	DB	00H
	DB	0f8H
	DB	0fcH
	DB	0f8H
	DB	00H
	DB	0f8H
	DB	0fcH
	DB	0f8H
	DB	00H
	DB	0f8H
	DB	0fcH
	DB	0f8H
	DB	00H
	DB	0f8H
	DB	0fcH
	DB	0f8H
	DB	00H
	DB	0f8H
	DB	0fcH
	DB	0f8H
	DB	00H
	DB	0f8H
	DB	0fcH
	DB	0f8H
	DB	00H
	DB	0f8H
	DB	0fcH
	DB	0f8H
	DB	00H
	DB	0f8H
	DB	0fcH
	DB	0f8H
	DB	00H
	DB	0f8H
	DB	0fcH
	DB	0f8H
	DB	00H
	DB	0f8H
	DB	0fcH
	DB	0f8H
	DB	00H
	DB	0f8H
	DB	0fcH
	DB	0f8H
	DB	00H
	DB	0f8H
	DB	0fcH
	DB	0f8H
	DB	00H
	DB	0f8H
	DB	0fcH
	DB	0f8H
	DB	00H
	DB	0f8H
	DB	0fcH
	DB	0f8H
	DB	00H
	DB	0f8H
	DB	0fcH
	DB	0f8H
	DB	00H
	DB	0f8H
	DB	0fcH
	DB	0f8H
	DB	00H
	DB	0f8H
	DB	0fcH
	DB	0f8H
	DB	00H
	DB	0f8H
	DB	0fcH
	DB	0f8H
	DB	00H
	DB	0f8H
	DB	0fcH
	DB	0f8H
	DB	00H
	DB	0f8H
	DB	0fcH
	DB	0f8H
	DB	00H
	DB	0f8H
	DB	0fcH
	DB	0f8H
	DB	00H
	DB	0f8H
	DB	0fcH
	DB	0f8H
	DB	00H
	DB	0f8H
	DB	0fcH
	DB	0f8H
	DB	00H
	DB	0f8H
	DB	0fcH
	DB	0f8H
	DB	00H
	DB	0f8H
	DB	0fcH
	DB	0f8H
	DB	00H
	DB	0f8H
	DB	0fcH
	DB	0f8H
	DB	00H
	DB	0f8H
	DB	0fcH
	DB	0f8H
	DB	00H
	DB	0f8H
	DB	0fcH
	DB	0f8H
	DB	00H
	DB	0f8H
	DB	0fcH
	DB	0f8H
	DB	00H
	DB	0f8H
	DB	0fcH
	DB	0f8H
	DB	00H
	DB	0f8H
	DB	0fcH
	DB	0f8H
	DB	00H
	DB	0f8H
	DB	0fcH
	DB	0f8H
	DB	00H
	DB	0f8H
	DB	0fcH
	DB	0f8H
	DB	00H
	DB	0f8H
	DB	0fcH
	DB	0f8H
	DB	00H
	DB	0f8H
	DB	0fcH
	DB	0f8H
	DB	00H
	DB	0f8H
	DB	0fcH
	DB	0f8H
	DB	00H
	DB	0f8H
	DB	0fcH
	DB	0f8H
	DB	00H
	DB	0f8H
	DB	0fcH
	DB	0f8H
	DB	00H
	DB	0f8H
	DB	0fcH
	DB	0f8H
	DB	00H
	DB	0f8H
	DB	0fcH
	DB	0f8H
	DB	00H
	DB	0f8H
	DB	0fcH
	DB	0f8H
	DB	00H
	DB	0f8H
	DB	0fcH
	DB	0f8H
	DB	00H
	DB	0f8H
	DB	0fcH
	DB	0f8H
	DB	00H
	DB	0f8H
	DB	0fcH
	DB	0f8H
	DB	00H
	DB	0f8H
	DB	0fcH
	DB	0f8H
	DB	00H
	DB	0f8H
	DB	0fcH
	DB	0f8H
	DB	00H
	DB	0f8H
	DB	0fcH
	DB	0f8H
	DB	00H
	DB	0f8H
	DB	0fcH
	DB	0f8H
	DB	00H
	DB	0f8H
	DB	0fcH
	DB	0f8H
	DB	00H
	DB	0f8H
	DB	0fcH
	DB	0f8H
	DB	00H
	DB	0f8H
	DB	0fcH
	DB	0f8H
	DB	00H
	DB	0f8H
	DB	0fcH
	DB	0f8H
	DB	00H
	DB	0f8H
	DB	0fcH
	DB	0f8H
	DB	00H
	DB	0f8H
	DB	0fcH
	DB	0f8H
	DB	00H
	DB	0f8H
	DB	0fcH
	DB	0f8H
	DB	00H
	DB	0f8H
	DB	0fcH
	DB	0f8H
	DB	00H
	DB	0c0H
	DB	0a0H
	DB	058H
	DB	028H
	DB	0b8H
	DB	09cH
	DB	048H
	DB	061H
	DB	0b8H
	DB	098H
	DB	048H
	DB	06dH
	DB	0b8H
	DB	09cH
	DB	048H
	DB	06dH
	DB	0b8H
	DB	098H
	DB	040H
	DB	06dH
	DB	0b8H
	DB	094H
	DB	040H
	DB	06dH
	DB	0b0H
	DB	094H
	DB	040H
	DB	071H
	DB	0b8H
	DB	098H
	DB	040H
	DB	071H
	DB	0b8H
	DB	098H
	DB	040H
	DB	06dH
	DB	0b8H
	DB	098H
	DB	048H
	DB	071H
	DB	0b8H
	DB	098H
	DB	040H
	DB	071H
	DB	0b8H
	DB	098H
	DB	040H
	DB	06dH
	DB	0b8H
	DB	098H
	DB	040H
	DB	071H
	DB	0b8H
	DB	098H
	DB	040H
	DB	071H
	DB	0b8H
	DB	098H
	DB	040H
	DB	071H
	DB	0b8H
	DB	094H
	DB	040H
	DB	075H
	DB	0b8H
	DB	094H
	DB	040H
	DB	071H
	DB	0b8H
	DB	098H
	DB	040H
	DB	075H
	DB	0b8H
	DB	098H
	DB	040H
	DB	075H
	DB	0b8H
	DB	098H
	DB	040H
	DB	071H
	DB	0b8H
	DB	09cH
	DB	048H
	DB	075H
	DB	0c0H
	DB	0a0H
	DB	048H
	DB	075H
	DB	0c0H
	DB	0a4H
	DB	050H
	DB	075H
	DB	0c0H
	DB	0a4H
	DB	050H
	DB	075H
	DB	0c0H
	DB	0a4H
	DB	050H
	DB	075H
	DB	0c0H
	DB	0a8H
	DB	058H
	DB	075H
	DB	0c8H
	DB	0a8H
	DB	058H
	DB	075H
	DB	0c8H
	DB	0a8H
	DB	058H
	DB	079H
	DB	0c8H
	DB	0acH
	DB	058H
	DB	079H
	DB	0c8H
	DB	0acH
	DB	058H
	DB	079H
	DB	0c8H
	DB	0acH
	DB	058H
	DB	075H
	DB	0c8H
	DB	0acH
	DB	058H
	DB	079H
	DB	0c8H
	DB	0b0H
	DB	060H
	DB	079H
	DB	0c8H
	DB	0b0H
	DB	060H
	DB	079H
	DB	0d0H
	DB	0b4H
	DB	068H
	DB	079H
	DB	0d0H
	DB	0b8H
	DB	070H
	DB	079H
	DB	0d0H
	DB	0b8H
	DB	070H
	DB	079H
	DB	0d8H
	DB	0bcH
	DB	078H
	DB	07dH
	DB	0d0H
	DB	0bcH
	DB	078H
	DB	079H
	DB	0d0H
	DB	0bcH
	DB	070H
	DB	07dH
	DB	0d0H
	DB	0bcH
	DB	078H
	DB	07dH
	DB	0d8H
	DB	0bcH
	DB	078H
	DB	07dH
	DB	0d8H
	DB	0c0H
	DB	078H
	DB	07dH
	DB	0d0H
	DB	0bcH
	DB	070H
	DB	07dH
	DB	0d0H
	DB	0b8H
	DB	068H
	DB	07dH
	DB	0d0H
	DB	0b8H
	DB	070H
	DB	07dH
	DB	0d0H
	DB	0b8H
	DB	070H
	DB	082H
	DB	0d8H
	DB	0bcH
	DB	070H
	DB	07dH
	DB	0d0H
	DB	0b8H
	DB	070H
	DB	082H
	DB	0d8H
	DB	0bcH
	DB	070H
	DB	07dH
	DB	0d0H
	DB	0bcH
	DB	070H
	DB	07dH
	DB	0d0H
	DB	0b8H
	DB	070H
	DB	082H
	DB	0d8H
	DB	0bcH
	DB	070H
	DB	082H
	DB	0d8H
	DB	0bcH
	DB	070H
	DB	082H
	DB	0d0H
	DB	0b8H
	DB	070H
	DB	082H
	DB	0d0H
	DB	0b8H
	DB	068H
	DB	082H
	DB	0d0H
	DB	0b8H
	DB	070H
	DB	082H
	DB	0d0H
	DB	0bcH
	DB	070H
	DB	086H
	DB	0d8H
	DB	0bcH
	DB	070H
	DB	082H
	DB	0d8H
	DB	0bcH
	DB	070H
	DB	082H
	DB	0d0H
	DB	0bcH
	DB	070H
	DB	086H
	DB	0d8H
	DB	0c0H
	DB	070H
	DB	086H
	DB	0d8H
	DB	0bcH
	DB	078H
	DB	086H
	DB	0d8H
	DB	0c0H
	DB	078H
	DB	086H
	DB	0d8H
	DB	0c0H
	DB	080H
	DB	086H
	DB	0d8H
	DB	0c4H
	DB	080H
	DB	086H
	DB	0d8H
	DB	0c0H
	DB	078H
	DB	086H
	DB	0d8H
	DB	0c4H
	DB	080H
	DB	08aH
	DB	0d8H
	DB	0c8H
	DB	088H
	DB	086H
	DB	0e0H
	DB	0d0H
	DB	0a0H
	DB	086H
	DB	0e0H
	DB	0ccH
	DB	098H
	DB	08aH
	DB	0d8H
	DB	0c8H
	DB	088H
	DB	08aH
	DB	0e0H
	DB	0c4H
	DB	088H
	DB	08aH
	DB	0d8H
	DB	0c4H
	DB	088H
	DB	08aH
	DB	0d8H
	DB	0c4H
	DB	080H
	DB	08aH
	DB	0d8H
	DB	0c4H
	DB	080H
	DB	08aH
	DB	0e0H
	DB	0c8H
	DB	088H
	DB	08aH
	DB	0d8H
	DB	0c4H
	DB	080H
	DB	08eH
	DB	0d8H
	DB	0c4H
	DB	080H
	DB	08aH
	DB	0e0H
	DB	0c4H
	DB	088H
	DB	08eH
	DB	0e0H
	DB	0c8H
	DB	088H
	DB	08eH
	DB	0d8H
	DB	0c4H
	DB	088H
	DB	08eH
	DB	0d8H
	DB	0c4H
	DB	088H
	DB	08eH
	DB	0d8H
	DB	0c4H
	DB	080H
	DB	08eH
	DB	0d8H
	DB	0c4H
	DB	080H
	DB	08eH
	DB	0d8H
	DB	0c4H
	DB	080H
	DB	08eH
	DB	0d8H
	DB	0c4H
	DB	080H
	DB	08eH
	DB	0d8H
	DB	0c4H
	DB	080H
	DB	08eH
	DB	0d8H
	DB	0c0H
	DB	078H
	DB	08eH
	DB	0d8H
	DB	0c0H
	DB	078H
	DB	08eH
	DB	0d8H
	DB	0c0H
	DB	070H
	DB	08eH
	DB	0d0H
	DB	0bcH
	DB	070H
	DB	08eH
	DB	0d0H
	DB	0b8H
	DB	068H
	DB	092H
	DB	0d0H
	DB	0bcH
	DB	070H
	DB	092H
	DB	0d0H
	DB	0b8H
	DB	068H
	DB	08eH
	DB	0c8H
	DB	0b4H
	DB	060H
	DB	092H
	DB	0d0H
	DB	0b8H
	DB	068H
	DB	092H
	DB	0d0H
	DB	0b8H
	DB	068H
	DB	092H
	DB	0d0H
	DB	0b4H
	DB	068H
	DB	08eH
	DB	0c8H
	DB	0b8H
	DB	068H
	DB	092H
	DB	0d0H
	DB	0bcH
	DB	070H
	DB	08eH
	DB	0d8H
	DB	0c0H
	DB	078H
	DB	08eH
	DB	0d0H
	DB	0bcH
	DB	070H
	DB	08eH
	DB	0d8H
	DB	0c0H
	DB	078H
	DB	08eH
	DB	0d8H
	DB	0c4H
	DB	080H
	DB	08eH
	DB	0d8H
	DB	0c4H
	DB	080H
	DB	092H
	DB	0d0H
	DB	0c0H
	DB	080H
	DB	08eH
	DB	0e8H
	DB	0d8H
	DB	0b0H
	DB	08eH
	DB	0f0H
	DB	0e0H
	DB	0a8H
	DB	08eH
	DB	0d8H
	DB	0c0H
	DB	078H
	DB	08eH
	DB	0d8H
	DB	0c4H
	DB	080H
	DB	08eH
	DB	0d8H
	DB	0c4H
	DB	080H
	DB	08eH
	DB	0d8H
	DB	0c4H
	DB	080H
	DB	08eH
	DB	0d8H
	DB	0c0H
	DB	078H
	DB	08eH
	DB	0d8H
	DB	0c4H
	DB	088H
	DB	08eH
	DB	0d8H
	DB	0c4H
	DB	080H
	DB	092H
	DB	0d8H
	DB	0c8H
	DB	080H
	DB	08eH
	DB	0d8H
	DB	0c4H
	DB	080H
	DB	092H
	DB	0d8H
	DB	0c4H
	DB	078H
	DB	08eH
	DB	0d8H
	DB	0bcH
	DB	070H
	DB	08eH
	DB	0d8H
	DB	0c0H
	DB	070H
	DB	092H
	DB	0d0H
	DB	0b8H
	DB	068H
	DB	08eH
	DB	0c8H
	DB	0b4H
	DB	060H
	DB	092H
	DB	0d0H
	DB	0b8H
	DB	068H
	DB	08eH
	DB	0d8H
	DB	0bcH
	DB	070H
	DB	092H
	DB	0d0H
	DB	0b8H
	DB	068H
	DB	08eH
	DB	0d0H
	DB	0b8H
	DB	068H
	DB	08eH
	DB	0d0H
	DB	0bcH
	DB	068H
	DB	08eH
	DB	0d0H
	DB	0b4H
	DB	068H
	DB	082H
	DB	0d0H
	DB	0b4H
	DB	068H
	DB	061H
	DB	0d0H
	DB	0b4H
	DB	068H
	DB	01cH
	DB	0f8H
	DB	0fcH
	DB	0f8H
	DB	00H
	DB	0f8H
	DB	0fcH
	DB	0f8H
	DB	00H
	DB	0f8H
	DB	0fcH
	DB	0f8H
	DB	00H
	DB	0f8H
	DB	0fcH
	DB	0f8H
	DB	00H
	DB	0f8H
	DB	0fcH
	DB	0f8H
	DB	00H
	DB	0f8H
	DB	0fcH
	DB	0f8H
	DB	00H
	DB	0f8H
	DB	0fcH
	DB	0f8H
	DB	00H
	DB	0f8H
	DB	0fcH
	DB	0f8H
	DB	00H
	DB	0f8H
	DB	0fcH
	DB	0f8H
	DB	00H
	DB	0f8H
	DB	0fcH
	DB	0f8H
	DB	00H
	DB	0f8H
	DB	0fcH
	DB	0f8H
	DB	00H
	DB	0f8H
	DB	0fcH
	DB	0f8H
	DB	00H
	DB	0f8H
	DB	0fcH
	DB	0f8H
	DB	00H
	DB	0f8H
	DB	0fcH
	DB	0f8H
	DB	00H
	DB	0f8H
	DB	0fcH
	DB	0f8H
	DB	00H
	DB	0f8H
	DB	0fcH
	DB	0f8H
	DB	00H
	DB	0f8H
	DB	0fcH
	DB	0f8H
	DB	00H
	DB	0f8H
	DB	0fcH
	DB	0f8H
	DB	00H
	DB	0f8H
	DB	0fcH
	DB	0f8H
	DB	00H
	DB	0f8H
	DB	0fcH
	DB	0f8H
	DB	00H
	DB	0f8H
	DB	0fcH
	DB	0f8H
	DB	00H
	DB	0f8H
	DB	0fcH
	DB	0f8H
	DB	00H
	DB	0f8H
	DB	0fcH
	DB	0f8H
	DB	00H
	DB	0f8H
	DB	0fcH
	DB	0f8H
	DB	00H
	DB	0f8H
	DB	0fcH
	DB	0f8H
	DB	00H
	DB	0f8H
	DB	0fcH
	DB	0f8H
	DB	00H
	DB	0f8H
	DB	0fcH
	DB	0f8H
	DB	00H
	DB	0f8H
	DB	0fcH
	DB	0f8H
	DB	00H
	DB	0f8H
	DB	0fcH
	DB	0f8H
	DB	00H
	DB	0f8H
	DB	0fcH
	DB	0f8H
	DB	00H
	DB	0f8H
	DB	0fcH
	DB	0f8H
	DB	00H
	DB	0f8H
	DB	0fcH
	DB	0f8H
	DB	00H
	DB	0f8H
	DB	0fcH
	DB	0f8H
	DB	00H
	DB	0f8H
	DB	0fcH
	DB	0f8H
	DB	00H
	DB	0f8H
	DB	0fcH
	DB	0f8H
	DB	00H
	DB	0f8H
	DB	0fcH
	DB	0f8H
	DB	00H
	DB	0f8H
	DB	0fcH
	DB	0f8H
	DB	00H
	DB	0f8H
	DB	0fcH
	DB	0f8H
	DB	00H
	DB	0f8H
	DB	0fcH
	DB	0f8H
	DB	00H
	DB	0f8H
	DB	0fcH
	DB	0f8H
	DB	00H
	DB	0f8H
	DB	0fcH
	DB	0f8H
	DB	00H
	DB	0f8H
	DB	0fcH
	DB	0f8H
	DB	00H
	DB	0f8H
	DB	0fcH
	DB	0f8H
	DB	00H
	DB	0f8H
	DB	0fcH
	DB	0f8H
	DB	00H
	DB	0f8H
	DB	0fcH
	DB	0f8H
	DB	00H
	DB	0f8H
	DB	0fcH
	DB	0f8H
	DB	00H
	DB	0f8H
	DB	0fcH
	DB	0f8H
	DB	00H
	DB	0f8H
	DB	0fcH
	DB	0f8H
	DB	00H
	DB	0f8H
	DB	0fcH
	DB	0f8H
	DB	00H
	DB	0f8H
	DB	0fcH
	DB	0f8H
	DB	00H
	DB	0f8H
	DB	0fcH
	DB	0f8H
	DB	00H
	DB	0f8H
	DB	0fcH
	DB	0f8H
	DB	00H
	DB	0f8H
	DB	0fcH
	DB	0f8H
	DB	00H
	DB	0f8H
	DB	0fcH
	DB	0f8H
	DB	00H
	DB	0f8H
	DB	0fcH
	DB	0f8H
	DB	00H
	DB	0f8H
	DB	0fcH
	DB	0f8H
	DB	00H
	DB	0f8H
	DB	0fcH
	DB	0f8H
	DB	00H
	DB	0f8H
	DB	0fcH
	DB	0f8H
	DB	00H
	DB	0f8H
	DB	0fcH
	DB	0f8H
	DB	00H
	DB	0f8H
	DB	0fcH
	DB	0f8H
	DB	00H
	DB	0f8H
	DB	0fcH
	DB	0f8H
	DB	00H
	DB	0f8H
	DB	0fcH
	DB	0f8H
	DB	00H
	DB	0f8H
	DB	0fcH
	DB	0f8H
	DB	00H
	DB	0f8H
	DB	0fcH
	DB	0f8H
	DB	00H
	DB	0f8H
	DB	0fcH
	DB	0f8H
	DB	00H
	DB	0f8H
	DB	0fcH
	DB	0f8H
	DB	00H
	DB	0f8H
	DB	0fcH
	DB	0f8H
	DB	00H
	DB	0f8H
	DB	0fcH
	DB	0f8H
	DB	00H
	DB	0f8H
	DB	0fcH
	DB	0f8H
	DB	00H
	DB	0f8H
	DB	0fcH
	DB	0f8H
	DB	00H
	DB	0f8H
	DB	0fcH
	DB	0f8H
	DB	00H
	DB	0f8H
	DB	0fcH
	DB	0f8H
	DB	00H
	DB	0f8H
	DB	0fcH
	DB	0f8H
	DB	00H
	DB	0f8H
	DB	0fcH
	DB	0f8H
	DB	00H
	DB	0f8H
	DB	0fcH
	DB	0f8H
	DB	00H
	DB	0f8H
	DB	0fcH
	DB	0f8H
	DB	00H
	DB	0f8H
	DB	0fcH
	DB	0f8H
	DB	00H
	DB	0f8H
	DB	0fcH
	DB	0f8H
	DB	00H
	DB	0f8H
	DB	0fcH
	DB	0f8H
	DB	00H
	DB	0f8H
	DB	0fcH
	DB	0f8H
	DB	00H
	DB	0f8H
	DB	0fcH
	DB	0f8H
	DB	00H
	DB	0f8H
	DB	0fcH
	DB	0f8H
	DB	00H
	DB	0f8H
	DB	0fcH
	DB	0f8H
	DB	00H
	DB	0f8H
	DB	0fcH
	DB	0f8H
	DB	00H
	DB	0f8H
	DB	0fcH
	DB	0f8H
	DB	00H
	DB	0f8H
	DB	0fcH
	DB	0f8H
	DB	00H
	DB	0f8H
	DB	0fcH
	DB	0f8H
	DB	00H
	DB	0f8H
	DB	0fcH
	DB	0f8H
	DB	00H
	DB	0f8H
	DB	0fcH
	DB	0f8H
	DB	00H
	DB	0f8H
	DB	0fcH
	DB	0f8H
	DB	00H
	DB	0f8H
	DB	0fcH
	DB	0f8H
	DB	00H
	DB	0f8H
	DB	0fcH
	DB	0f8H
	DB	00H
	DB	0f8H
	DB	0fcH
	DB	0f8H
	DB	00H
	DB	0f8H
	DB	0fcH
	DB	0f8H
	DB	00H
	DB	0f8H
	DB	0fcH
	DB	0f8H
	DB	00H
	DB	0f8H
	DB	0fcH
	DB	0f8H
	DB	00H
	DB	0f8H
	DB	0fcH
	DB	0f8H
	DB	00H
	DB	0f8H
	DB	0fcH
	DB	0f8H
	DB	00H
	DB	0f8H
	DB	0fcH
	DB	0f8H
	DB	00H
	DB	0f8H
	DB	0fcH
	DB	0f8H
	DB	00H
	DB	0f8H
	DB	0fcH
	DB	0f8H
	DB	00H
	DB	0f8H
	DB	0fcH
	DB	0f8H
	DB	00H
	DB	0f8H
	DB	0fcH
	DB	0f8H
	DB	00H
	DB	0f8H
	DB	0fcH
	DB	0f8H
	DB	00H
	DB	0f8H
	DB	0fcH
	DB	0f8H
	DB	00H
	DB	0f8H
	DB	0fcH
	DB	0f8H
	DB	00H
	DB	0f8H
	DB	0fcH
	DB	0f8H
	DB	00H
	DB	0f8H
	DB	0fcH
	DB	0f8H
	DB	00H
	DB	0f8H
	DB	0fcH
	DB	0f8H
	DB	00H
	DB	0f8H
	DB	0fcH
	DB	0f8H
	DB	00H
	DB	0f8H
	DB	0fcH
	DB	0f8H
	DB	00H
	DB	0f8H
	DB	0fcH
	DB	0f8H
	DB	00H
	DB	0f8H
	DB	0fcH
	DB	0f8H
	DB	00H
	DB	0f8H
	DB	0fcH
	DB	0f8H
	DB	00H
	DB	0f8H
	DB	0fcH
	DB	0f8H
	DB	00H
	DB	0f8H
	DB	0fcH
	DB	0f8H
	DB	00H
	DB	0f8H
	DB	0fcH
	DB	0f8H
	DB	00H
	DB	0f8H
	DB	0fcH
	DB	0f8H
	DB	00H
	DB	0f8H
	DB	0fcH
	DB	0f8H
	DB	00H
	DB	0f8H
	DB	0fcH
	DB	0f8H
	DB	00H
	DB	0f8H
	DB	0fcH
	DB	0f8H
	DB	00H
	DB	0f8H
	DB	0fcH
	DB	0f8H
	DB	00H
	DB	0f8H
	DB	0fcH
	DB	0f8H
	DB	00H
	DB	0f8H
	DB	0fcH
	DB	0f8H
	DB	00H
	DB	0f8H
	DB	0fcH
	DB	0f8H
	DB	00H
	DB	0f8H
	DB	0fcH
	DB	0f8H
	DB	00H
	DB	0f8H
	DB	0fcH
	DB	0f8H
	DB	00H
	DB	0f8H
	DB	0fcH
	DB	0f8H
	DB	00H
	DB	0f8H
	DB	0fcH
	DB	0f8H
	DB	00H
	DB	0f8H
	DB	0fcH
	DB	0f8H
	DB	00H
	DB	0f8H
	DB	0fcH
	DB	0f8H
	DB	00H
	DB	0f8H
	DB	0fcH
	DB	0f8H
	DB	00H
	DB	0c0H
	DB	0a4H
	DB	060H
	DB	0cH
	DB	0c0H
	DB	0a0H
	DB	050H
	DB	055H
	DB	0b8H
	DB	09cH
	DB	048H
	DB	06dH
	DB	0b8H
	DB	09cH
	DB	048H
	DB	06dH
	DB	0b8H
	DB	09cH
	DB	048H
	DB	06dH
	DB	0b8H
	DB	09cH
	DB	048H
	DB	06dH
	DB	0b8H
	DB	098H
	DB	040H
	DB	071H
	DB	0b8H
	DB	094H
	DB	040H
	DB	06dH
	DB	0b0H
	DB	094H
	DB	040H
	DB	071H
	DB	0b8H
	DB	098H
	DB	040H
	DB	06dH
	DB	0b8H
	DB	098H
	DB	048H
	DB	06dH
	DB	0b8H
	DB	098H
	DB	048H
	DB	071H
	DB	0b8H
	DB	098H
	DB	048H
	DB	071H
	DB	0b8H
	DB	098H
	DB	040H
	DB	071H
	DB	0b8H
	DB	098H
	DB	048H
	DB	071H
	DB	0b8H
	DB	098H
	DB	048H
	DB	071H
	DB	0b8H
	DB	098H
	DB	040H
	DB	071H
	DB	0b8H
	DB	098H
	DB	040H
	DB	071H
	DB	0b8H
	DB	098H
	DB	040H
	DB	071H
	DB	0b8H
	DB	098H
	DB	048H
	DB	075H
	DB	0b8H
	DB	09cH
	DB	048H
	DB	071H
	DB	0b8H
	DB	09cH
	DB	048H
	DB	071H
	DB	0b8H
	DB	09cH
	DB	048H
	DB	075H
	DB	0b8H
	DB	0a0H
	DB	048H
	DB	075H
	DB	0c0H
	DB	0a0H
	DB	048H
	DB	071H
	DB	0c0H
	DB	0a0H
	DB	050H
	DB	075H
	DB	0c0H
	DB	0a4H
	DB	050H
	DB	075H
	DB	0c0H
	DB	0a8H
	DB	050H
	DB	075H
	DB	0c8H
	DB	0a8H
	DB	058H
	DB	075H
	DB	0c8H
	DB	0acH
	DB	058H
	DB	075H
	DB	0c0H
	DB	0a8H
	DB	058H
	DB	079H
	DB	0c8H
	DB	0acH
	DB	058H
	DB	075H
	DB	0c8H
	DB	0acH
	DB	058H
	DB	079H
	DB	0c8H
	DB	0b0H
	DB	060H
	DB	079H
	DB	0c8H
	DB	0b0H
	DB	060H
	DB	079H
	DB	0c8H
	DB	0b0H
	DB	060H
	DB	079H
	DB	0d0H
	DB	0b4H
	DB	068H
	DB	079H
	DB	0d0H
	DB	0b4H
	DB	068H
	DB	079H
	DB	0d8H
	DB	0bcH
	DB	070H
	DB	079H
	DB	0d0H
	DB	0bcH
	DB	070H
	DB	07dH
	DB	0d0H
	DB	0b8H
	DB	070H
	DB	079H
	DB	0d0H
	DB	0b8H
	DB	070H
	DB	07dH
	DB	0d8H
	DB	0bcH
	DB	078H
	DB	07dH
	DB	0d8H
	DB	0c0H
	DB	078H
	DB	07dH
	DB	0d8H
	DB	0bcH
	DB	078H
	DB	07dH
	DB	0d0H
	DB	0b8H
	DB	070H
	DB	07dH
	DB	0d0H
	DB	0b8H
	DB	068H
	DB	07dH
	DB	0d0H
	DB	0b8H
	DB	068H
	DB	07dH
	DB	0d0H
	DB	0bcH
	DB	070H
	DB	082H
	DB	0d0H
	DB	0b8H
	DB	070H
	DB	07dH
	DB	0d0H
	DB	0bcH
	DB	070H
	DB	07dH
	DB	0d0H
	DB	0bcH
	DB	070H
	DB	082H
	DB	0d0H
	DB	0b8H
	DB	068H
	DB	082H
	DB	0d8H
	DB	0b8H
	DB	070H
	DB	082H
	DB	0d0H
	DB	0bcH
	DB	070H
	DB	082H
	DB	0d0H
	DB	0bcH
	DB	070H
	DB	082H
	DB	0d0H
	DB	0bcH
	DB	070H
	DB	082H
	DB	0d8H
	DB	0bcH
	DB	070H
	DB	082H
	DB	0d8H
	DB	0bcH
	DB	070H
	DB	082H
	DB	0d0H
	DB	0bcH
	DB	070H
	DB	082H
	DB	0d0H
	DB	0bcH
	DB	070H
	DB	086H
	DB	0d0H
	DB	0b8H
	DB	070H
	DB	082H
	DB	0d8H
	DB	0bcH
	DB	070H
	DB	082H
	DB	0d0H
	DB	0bcH
	DB	070H
	DB	086H
	DB	0d0H
	DB	0bcH
	DB	078H
	DB	086H
	DB	0d8H
	DB	0c0H
	DB	080H
	DB	086H
	DB	0d8H
	DB	0c0H
	DB	080H
	DB	086H
	DB	0d8H
	DB	0c0H
	DB	078H
	DB	086H
	DB	0d8H
	DB	0c0H
	DB	078H
	DB	086H
	DB	0d8H
	DB	0c4H
	DB	080H
	DB	086H
	DB	0d8H
	DB	0c0H
	DB	080H
	DB	08aH
	DB	0d8H
	DB	0c4H
	DB	088H
	DB	08aH
	DB	0e0H
	DB	0ccH
	DB	098H
	DB	08aH
	DB	0e0H
	DB	0d0H
	DB	0a0H
	DB	08aH
	DB	0e0H
	DB	0c4H
	DB	088H
	DB	08aH
	DB	0d8H
	DB	0c4H
	DB	080H
	DB	08aH
	DB	0d8H
	DB	0c4H
	DB	088H
	DB	08aH
	DB	0e0H
	DB	0c8H
	DB	088H
	DB	08aH
	DB	0d8H
	DB	0c4H
	DB	088H
	DB	08aH
	DB	0d8H
	DB	0c4H
	DB	080H
	DB	08aH
	DB	0d8H
	DB	0c4H
	DB	080H
	DB	08eH
	DB	0e0H
	DB	0c8H
	DB	088H
	DB	08aH
	DB	0d8H
	DB	0c8H
	DB	088H
	DB	08aH
	DB	0d8H
	DB	0c8H
	DB	088H
	DB	08eH
	DB	0d8H
	DB	0c8H
	DB	088H
	DB	08eH
	DB	0d8H
	DB	0c4H
	DB	088H
	DB	08eH
	DB	0d8H
	DB	0c4H
	DB	088H
	DB	08eH
	DB	0d8H
	DB	0c8H
	DB	088H
	DB	08eH
	DB	0d8H
	DB	0c4H
	DB	080H
	DB	092H
	DB	0d8H
	DB	0c4H
	DB	080H
	DB	08eH
	DB	0d8H
	DB	0c4H
	DB	080H
	DB	092H
	DB	0d8H
	DB	0c0H
	DB	078H
	DB	08eH
	DB	0d8H
	DB	0c0H
	DB	078H
	DB	08eH
	DB	0d8H
	DB	0c0H
	DB	078H
	DB	08eH
	DB	0d0H
	DB	0bcH
	DB	070H
	DB	08eH
	DB	0d0H
	DB	0bcH
	DB	068H
	DB	08eH
	DB	0d0H
	DB	0bcH
	DB	070H
	DB	08eH
	DB	0d0H
	DB	0b4H
	DB	068H
	DB	092H
	DB	0d0H
	DB	0bcH
	DB	070H
	DB	08eH
	DB	0d0H
	DB	0b8H
	DB	068H
	DB	092H
	DB	0d0H
	DB	0b8H
	DB	068H
	DB	092H
	DB	0d0H
	DB	0b8H
	DB	070H
	DB	08eH
	DB	0d0H
	DB	0b4H
	DB	068H
	DB	092H
	DB	0d0H
	DB	0bcH
	DB	070H
	DB	092H
	DB	0d0H
	DB	0c0H
	DB	078H
	DB	08eH
	DB	0d8H
	DB	0c4H
	DB	078H
	DB	092H
	DB	0d8H
	DB	0c4H
	DB	080H
	DB	092H
	DB	0d8H
	DB	0c4H
	DB	080H
	DB	08eH
	DB	0d8H
	DB	0c4H
	DB	080H
	DB	092H
	DB	0e0H
	DB	0ccH
	DB	090H
	DB	092H
	DB	0e0H
	DB	0d0H
	DB	090H
	DB	092H
	DB	0d0H
	DB	0bcH
	DB	078H
	DB	092H
	DB	0d8H
	DB	0c0H
	DB	078H
	DB	092H
	DB	0d8H
	DB	0c4H
	DB	080H
	DB	08eH
	DB	0d8H
	DB	0c8H
	DB	088H
	DB	092H
	DB	0d8H
	DB	0c0H
	DB	078H
	DB	092H
	DB	0d8H
	DB	0c4H
	DB	080H
	DB	08eH
	DB	0d8H
	DB	0c8H
	DB	080H
	DB	092H
	DB	0d8H
	DB	0c8H
	DB	088H
	DB	092H
	DB	0d8H
	DB	0c4H
	DB	080H
	DB	08eH
	DB	0d8H
	DB	0c0H
	DB	070H
	DB	092H
	DB	0d0H
	DB	0c0H
	DB	070H
	DB	092H
	DB	0d8H
	DB	0c0H
	DB	078H
	DB	08eH
	DB	0d0H
	DB	0bcH
	DB	070H
	DB	092H
	DB	0d0H
	DB	0b4H
	DB	068H
	DB	08eH
	DB	0d0H
	DB	0b8H
	DB	068H
	DB	092H
	DB	0d8H
	DB	0c0H
	DB	070H
	DB	092H
	DB	0d0H
	DB	0b8H
	DB	068H
	DB	08eH
	DB	0d8H
	DB	0bcH
	DB	070H
	DB	08eH
	DB	0d0H
	DB	0bcH
	DB	068H
	DB	092H
	DB	0d0H
	DB	0bcH
	DB	068H
	DB	08eH
	DB	0d0H
	DB	0bcH
	DB	068H
	DB	08eH
	DB	0d0H
	DB	0b8H
	DB	068H
	DB	08eH
	DB	0d0H
	DB	0b8H
	DB	068H
	DB	07dH
	DB	0d0H
	DB	0b8H
	DB	068H
	DB	04dH
	DB	0d0H
	DB	0b4H
	DB	070H
	DB	04H
	DB	0f8H
	DB	0fcH
	DB	0f8H
	DB	00H
	DB	0f8H
	DB	0fcH
	DB	0f8H
	DB	00H
	DB	0f8H
	DB	0fcH
	DB	0f8H
	DB	00H
	DB	0f8H
	DB	0fcH
	DB	0f8H
	DB	00H
	DB	0f8H
	DB	0fcH
	DB	0f8H
	DB	00H
	DB	0f8H
	DB	0fcH
	DB	0f8H
	DB	00H
	DB	0f8H
	DB	0fcH
	DB	0f8H
	DB	00H
	DB	0f8H
	DB	0fcH
	DB	0f8H
	DB	00H
	DB	0f8H
	DB	0fcH
	DB	0f8H
	DB	00H
	DB	0f8H
	DB	0fcH
	DB	0f8H
	DB	00H
	DB	0f8H
	DB	0fcH
	DB	0f8H
	DB	00H
	DB	0f8H
	DB	0fcH
	DB	0f8H
	DB	00H
	DB	0f8H
	DB	0fcH
	DB	0f8H
	DB	00H
	DB	0f8H
	DB	0fcH
	DB	0f8H
	DB	00H
	DB	0f8H
	DB	0fcH
	DB	0f8H
	DB	00H
	DB	0f8H
	DB	0fcH
	DB	0f8H
	DB	00H
	DB	0f8H
	DB	0fcH
	DB	0f8H
	DB	00H
	DB	0f8H
	DB	0fcH
	DB	0f8H
	DB	00H
	DB	0f8H
	DB	0fcH
	DB	0f8H
	DB	00H
	DB	0f8H
	DB	0fcH
	DB	0f8H
	DB	00H
	DB	0f8H
	DB	0fcH
	DB	0f8H
	DB	00H
	DB	0f8H
	DB	0fcH
	DB	0f8H
	DB	00H
	DB	0f8H
	DB	0fcH
	DB	0f8H
	DB	00H
	DB	0f8H
	DB	0fcH
	DB	0f8H
	DB	00H
	DB	0f8H
	DB	0fcH
	DB	0f8H
	DB	00H
	DB	0f8H
	DB	0fcH
	DB	0f8H
	DB	00H
	DB	0f8H
	DB	0fcH
	DB	0f8H
	DB	00H
	DB	0f8H
	DB	0fcH
	DB	0f8H
	DB	00H
	DB	0f8H
	DB	0fcH
	DB	0f8H
	DB	00H
	DB	0f8H
	DB	0fcH
	DB	0f8H
	DB	00H
	DB	0f8H
	DB	0fcH
	DB	0f8H
	DB	00H
	DB	0f8H
	DB	0fcH
	DB	0f8H
	DB	00H
	DB	0f8H
	DB	0fcH
	DB	0f8H
	DB	00H
	DB	0f8H
	DB	0fcH
	DB	0f8H
	DB	00H
	DB	0f8H
	DB	0fcH
	DB	0f8H
	DB	00H
	DB	0f8H
	DB	0fcH
	DB	0f8H
	DB	00H
	DB	0f8H
	DB	0fcH
	DB	0f8H
	DB	00H
	DB	0f8H
	DB	0fcH
	DB	0f8H
	DB	00H
	DB	0f8H
	DB	0fcH
	DB	0f8H
	DB	00H
	DB	0f8H
	DB	0fcH
	DB	0f8H
	DB	00H
	DB	0f8H
	DB	0fcH
	DB	0f8H
	DB	00H
	DB	0f8H
	DB	0fcH
	DB	0f8H
	DB	00H
	DB	0f8H
	DB	0fcH
	DB	0f8H
	DB	00H
	DB	0f8H
	DB	0fcH
	DB	0f8H
	DB	00H
	DB	0f8H
	DB	0fcH
	DB	0f8H
	DB	00H
	DB	0f8H
	DB	0fcH
	DB	0f8H
	DB	00H
	DB	0f8H
	DB	0fcH
	DB	0f8H
	DB	00H
	DB	0f8H
	DB	0fcH
	DB	0f8H
	DB	00H
	DB	0f8H
	DB	0fcH
	DB	0f8H
	DB	00H
	DB	0f8H
	DB	0fcH
	DB	0f8H
	DB	00H
	DB	0f8H
	DB	0fcH
	DB	0f8H
	DB	00H
	DB	0f8H
	DB	0fcH
	DB	0f8H
	DB	00H
	DB	0f8H
	DB	0fcH
	DB	0f8H
	DB	00H
	DB	0f8H
	DB	0fcH
	DB	0f8H
	DB	00H
	DB	0f8H
	DB	0fcH
	DB	0f8H
	DB	00H
	DB	0f8H
	DB	0fcH
	DB	0f8H
	DB	00H
	DB	0f8H
	DB	0fcH
	DB	0f8H
	DB	00H
	DB	0f8H
	DB	0fcH
	DB	0f8H
	DB	00H
	DB	0f8H
	DB	0fcH
	DB	0f8H
	DB	00H
	DB	0f8H
	DB	0fcH
	DB	0f8H
	DB	00H
	DB	0f8H
	DB	0fcH
	DB	0f8H
	DB	00H
	DB	0f8H
	DB	0fcH
	DB	0f8H
	DB	00H
	DB	0f8H
	DB	0fcH
	DB	0f8H
	DB	00H
	DB	0f8H
	DB	0fcH
	DB	0f8H
	DB	00H
	DB	0f8H
	DB	0fcH
	DB	0f8H
	DB	00H
	DB	0f8H
	DB	0fcH
	DB	0f8H
	DB	00H
	DB	0f8H
	DB	0fcH
	DB	0f8H
	DB	00H
	DB	0f8H
	DB	0fcH
	DB	0f8H
	DB	00H
	DB	0f8H
	DB	0fcH
	DB	0f8H
	DB	00H
	DB	0f8H
	DB	0fcH
	DB	0f8H
	DB	00H
	DB	0f8H
	DB	0fcH
	DB	0f8H
	DB	00H
	DB	0f8H
	DB	0fcH
	DB	0f8H
	DB	00H
	DB	0f8H
	DB	0fcH
	DB	0f8H
	DB	00H
	DB	0f8H
	DB	0fcH
	DB	0f8H
	DB	00H
	DB	0f8H
	DB	0fcH
	DB	0f8H
	DB	00H
	DB	0f8H
	DB	0fcH
	DB	0f8H
	DB	00H
	DB	0f8H
	DB	0fcH
	DB	0f8H
	DB	00H
	DB	0f8H
	DB	0fcH
	DB	0f8H
	DB	00H
	DB	0f8H
	DB	0fcH
	DB	0f8H
	DB	00H
	DB	0f8H
	DB	0fcH
	DB	0f8H
	DB	00H
	DB	0f8H
	DB	0fcH
	DB	0f8H
	DB	00H
	DB	0f8H
	DB	0fcH
	DB	0f8H
	DB	00H
	DB	0f8H
	DB	0fcH
	DB	0f8H
	DB	00H
	DB	0f8H
	DB	0fcH
	DB	0f8H
	DB	00H
	DB	0f8H
	DB	0fcH
	DB	0f8H
	DB	00H
	DB	0f8H
	DB	0fcH
	DB	0f8H
	DB	00H
	DB	0f8H
	DB	0fcH
	DB	0f8H
	DB	00H
	DB	0f8H
	DB	0fcH
	DB	0f8H
	DB	00H
	DB	0f8H
	DB	0fcH
	DB	0f8H
	DB	00H
	DB	0f8H
	DB	0fcH
	DB	0f8H
	DB	00H
	DB	0f8H
	DB	0fcH
	DB	0f8H
	DB	00H
	DB	0f8H
	DB	0fcH
	DB	0f8H
	DB	00H
	DB	0f8H
	DB	0fcH
	DB	0f8H
	DB	00H
	DB	0f8H
	DB	0fcH
	DB	0f8H
	DB	00H
	DB	0f8H
	DB	0fcH
	DB	0f8H
	DB	00H
	DB	0f8H
	DB	0fcH
	DB	0f8H
	DB	00H
	DB	0f8H
	DB	0fcH
	DB	0f8H
	DB	00H
	DB	0f8H
	DB	0fcH
	DB	0f8H
	DB	00H
	DB	0f8H
	DB	0fcH
	DB	0f8H
	DB	00H
	DB	0f8H
	DB	0fcH
	DB	0f8H
	DB	00H
	DB	0f8H
	DB	0fcH
	DB	0f8H
	DB	00H
	DB	0f8H
	DB	0fcH
	DB	0f8H
	DB	00H
	DB	0f8H
	DB	0fcH
	DB	0f8H
	DB	00H
	DB	0f8H
	DB	0fcH
	DB	0f8H
	DB	00H
	DB	0f8H
	DB	0fcH
	DB	0f8H
	DB	00H
	DB	0f8H
	DB	0fcH
	DB	0f8H
	DB	00H
	DB	0f8H
	DB	0fcH
	DB	0f8H
	DB	00H
	DB	0f8H
	DB	0fcH
	DB	0f8H
	DB	00H
	DB	0f8H
	DB	0fcH
	DB	0f8H
	DB	00H
	DB	0f8H
	DB	0fcH
	DB	0f8H
	DB	00H
	DB	0f8H
	DB	0fcH
	DB	0f8H
	DB	00H
	DB	0f8H
	DB	0fcH
	DB	0f8H
	DB	00H
	DB	0f8H
	DB	0fcH
	DB	0f8H
	DB	00H
	DB	0f8H
	DB	0fcH
	DB	0f8H
	DB	00H
	DB	0f8H
	DB	0fcH
	DB	0f8H
	DB	00H
	DB	0f8H
	DB	0fcH
	DB	0f8H
	DB	00H
	DB	0f8H
	DB	0fcH
	DB	0f8H
	DB	00H
	DB	0f8H
	DB	0fcH
	DB	0f8H
	DB	00H
	DB	0f8H
	DB	0fcH
	DB	0f8H
	DB	00H
	DB	0f8H
	DB	0fcH
	DB	0f8H
	DB	00H
	DB	0f8H
	DB	0fcH
	DB	0f8H
	DB	00H
	DB	0f8H
	DB	0fcH
	DB	0f8H
	DB	00H
	DB	0f8H
	DB	0fcH
	DB	0f8H
	DB	00H
	DB	0f8H
	DB	0fcH
	DB	0f8H
	DB	00H
	DB	0f8H
	DB	0fcH
	DB	0f8H
	DB	00H
	DB	0f8H
	DB	0fcH
	DB	0f8H
	DB	00H
	DB	0f8H
	DB	0fcH
	DB	0f8H
	DB	00H
	DB	0f8H
	DB	0fcH
	DB	0f8H
	DB	00H
	DB	0c0H
	DB	0a8H
	DB	060H
	DB	028H
	DB	0c0H
	DB	0a4H
	DB	058H
	DB	065H
	DB	0c0H
	DB	0a0H
	DB	050H
	DB	06dH
	DB	0c0H
	DB	0a0H
	DB	050H
	DB	06dH
	DB	0b8H
	DB	09cH
	DB	048H
	DB	06dH
	DB	0c0H
	DB	09cH
	DB	048H
	DB	06dH
	DB	0b8H
	DB	09cH
	DB	048H
	DB	06dH
	DB	0b8H
	DB	098H
	DB	048H
	DB	06dH
	DB	0b8H
	DB	098H
	DB	048H
	DB	06dH
	DB	0b8H
	DB	098H
	DB	048H
	DB	06dH
	DB	0b8H
	DB	098H
	DB	040H
	DB	071H
	DB	0b8H
	DB	098H
	DB	048H
	DB	06dH
	DB	0b8H
	DB	098H
	DB	048H
	DB	071H
	DB	0b8H
	DB	098H
	DB	040H
	DB	071H
	DB	0b0H
	DB	098H
	DB	040H
	DB	071H
	DB	0b8H
	DB	098H
	DB	048H
	DB	071H
	DB	0b8H
	DB	09cH
	DB	048H
	DB	071H
	DB	0b8H
	DB	09cH
	DB	048H
	DB	071H
	DB	0b8H
	DB	09cH
	DB	048H
	DB	071H
	DB	0b8H
	DB	09cH
	DB	048H
	DB	071H
	DB	0b8H
	DB	09cH
	DB	048H
	DB	071H
	DB	0b8H
	DB	09cH
	DB	048H
	DB	075H
	DB	0b8H
	DB	09cH
	DB	048H
	DB	071H
	DB	0b8H
	DB	09cH
	DB	048H
	DB	075H
	DB	0b8H
	DB	09cH
	DB	048H
	DB	075H
	DB	0c0H
	DB	09cH
	DB	048H
	DB	075H
	DB	0c0H
	DB	0a0H
	DB	050H
	DB	075H
	DB	0c0H
	DB	0a4H
	DB	050H
	DB	075H
	DB	0c0H
	DB	0a4H
	DB	050H
	DB	075H
	DB	0c0H
	DB	0a8H
	DB	058H
	DB	075H
	DB	0c8H
	DB	0acH
	DB	058H
	DB	075H
	DB	0c8H
	DB	0acH
	DB	058H
	DB	079H
	DB	0c8H
	DB	0acH
	DB	058H
	DB	075H
	DB	0c8H
	DB	0acH
	DB	058H
	DB	079H
	DB	0c8H
	DB	0b0H
	DB	060H
	DB	079H
	DB	0c8H
	DB	0b0H
	DB	060H
	DB	079H
	DB	0c8H
	DB	0b0H
	DB	060H
	DB	079H
	DB	0c8H
	DB	0b0H
	DB	068H
	DB	079H
	DB	0d0H
	DB	0b4H
	DB	068H
	DB	079H
	DB	0d0H
	DB	0b8H
	DB	068H
	DB	079H
	DB	0d0H
	DB	0b8H
	DB	070H
	DB	079H
	DB	0d8H
	DB	0bcH
	DB	070H
	DB	07dH
	DB	0d0H
	DB	0b8H
	DB	070H
	DB	079H
	DB	0d0H
	DB	0b8H
	DB	068H
	DB	079H
	DB	0d0H
	DB	0bcH
	DB	070H
	DB	07dH
	DB	0d0H
	DB	0bcH
	DB	070H
	DB	07dH
	DB	0d8H
	DB	0bcH
	DB	070H
	DB	07dH
	DB	0d0H
	DB	0b8H
	DB	068H
	DB	07dH
	DB	0d0H
	DB	0b8H
	DB	070H
	DB	07dH
	DB	0d0H
	DB	0b8H
	DB	070H
	DB	07dH
	DB	0d0H
	DB	0b8H
	DB	068H
	DB	082H
	DB	0d0H
	DB	0b8H
	DB	068H
	DB	07dH
	DB	0d0H
	DB	0b8H
	DB	070H
	DB	082H
	DB	0d0H
	DB	0b8H
	DB	068H
	DB	082H
	DB	0d0H
	DB	0b8H
	DB	068H
	DB	07dH
	DB	0d0H
	DB	0b8H
	DB	070H
	DB	082H
	DB	0d0H
	DB	0bcH
	DB	070H
	DB	082H
	DB	0d0H
	DB	0b8H
	DB	070H
	DB	082H
	DB	0d8H
	DB	0bcH
	DB	070H
	DB	082H
	DB	0d0H
	DB	0bcH
	DB	070H
	DB	082H
	DB	0d0H
	DB	0bcH
	DB	070H
	DB	082H
	DB	0d8H
	DB	0bcH
	DB	070H
	DB	082H
	DB	0d0H
	DB	0bcH
	DB	070H
	DB	086H
	DB	0d0H
	DB	0bcH
	DB	070H
	DB	086H
	DB	0d8H
	DB	0bcH
	DB	070H
	DB	086H
	DB	0d0H
	DB	0bcH
	DB	078H
	DB	086H
	DB	0d8H
	DB	0c8H
	DB	088H
	DB	086H
	DB	0e0H
	DB	0c8H
	DB	088H
	DB	086H
	DB	0d8H
	DB	0c4H
	DB	080H
	DB	086H
	DB	0d0H
	DB	0c0H
	DB	078H
	DB	086H
	DB	0d8H
	DB	0c0H
	DB	078H
	DB	086H
	DB	0d8H
	DB	0c0H
	DB	078H
	DB	086H
	DB	0d8H
	DB	0c4H
	DB	080H
	DB	08aH
	DB	0e0H
	DB	0c8H
	DB	088H
	DB	086H
	DB	0e0H
	DB	0c8H
	DB	098H
	DB	08aH
	DB	0e0H
	DB	0d0H
	DB	0a0H
	DB	08aH
	DB	0d8H
	DB	0c4H
	DB	088H
	DB	08aH
	DB	0d8H
	DB	0c4H
	DB	088H
	DB	08aH
	DB	0d8H
	DB	0c8H
	DB	088H
	DB	08aH
	DB	0d8H
	DB	0c8H
	DB	088H
	DB	08aH
	DB	0d8H
	DB	0c4H
	DB	088H
	DB	08aH
	DB	0d8H
	DB	0c8H
	DB	088H
	DB	08aH
	DB	0d8H
	DB	0c8H
	DB	088H
	DB	08eH
	DB	0e0H
	DB	0c8H
	DB	088H
	DB	08aH
	DB	0e0H
	DB	0c8H
	DB	088H
	DB	08eH
	DB	0d8H
	DB	0c8H
	DB	088H
	DB	08eH
	DB	0d8H
	DB	0c8H
	DB	088H
	DB	08eH
	DB	0d8H
	DB	0c4H
	DB	088H
	DB	08eH
	DB	0e0H
	DB	0ccH
	DB	098H
	DB	08eH
	DB	0d8H
	DB	0c8H
	DB	088H
	DB	08eH
	DB	0d8H
	DB	0c4H
	DB	080H
	DB	08eH
	DB	0d8H
	DB	0c4H
	DB	080H
	DB	08eH
	DB	0d8H
	DB	0c4H
	DB	080H
	DB	092H
	DB	0d8H
	DB	0c4H
	DB	080H
	DB	08eH
	DB	0d8H
	DB	0bcH
	DB	070H
	DB	08eH
	DB	0d0H
	DB	0bcH
	DB	070H
	DB	092H
	DB	0d0H
	DB	0bcH
	DB	068H
	DB	08eH
	DB	0d0H
	DB	0bcH
	DB	068H
	DB	08eH
	DB	0d0H
	DB	0b8H
	DB	068H
	DB	08eH
	DB	0d0H
	DB	0bcH
	DB	070H
	DB	08eH
	DB	0d0H
	DB	0bcH
	DB	070H
	DB	08eH
	DB	0d0H
	DB	0b8H
	DB	068H
	DB	08eH
	DB	0d0H
	DB	0bcH
	DB	070H
	DB	092H
	DB	0d8H
	DB	0c4H
	DB	080H
	DB	08eH
	DB	0d8H
	DB	0c4H
	DB	080H
	DB	092H
	DB	0d8H
	DB	0c0H
	DB	078H
	DB	092H
	DB	0d0H
	DB	0c0H
	DB	070H
	DB	08eH
	DB	0d8H
	DB	0c4H
	DB	078H
	DB	092H
	DB	0d8H
	DB	0c0H
	DB	078H
	DB	08eH
	DB	0d0H
	DB	0c0H
	DB	078H
	DB	08eH
	DB	0d8H
	DB	0c4H
	DB	080H
	DB	092H
	DB	0d8H
	DB	0c4H
	DB	080H
	DB	08eH
	DB	0d8H
	DB	0c0H
	DB	078H
	DB	08eH
	DB	0d8H
	DB	0c0H
	DB	078H
	DB	092H
	DB	0d8H
	DB	0c8H
	DB	080H
	DB	092H
	DB	0d8H
	DB	0c8H
	DB	088H
	DB	08eH
	DB	0d8H
	DB	0c0H
	DB	070H
	DB	092H
	DB	0d8H
	DB	0c4H
	DB	080H
	DB	08eH
	DB	0d8H
	DB	0c8H
	DB	080H
	DB	08eH
	DB	0e0H
	DB	0c8H
	DB	080H
	DB	092H
	DB	0d8H
	DB	0c4H
	DB	080H
	DB	08eH
	DB	0d8H
	DB	0c4H
	DB	078H
	DB	092H
	DB	0d8H
	DB	0c0H
	DB	078H
	DB	08eH
	DB	0d8H
	DB	0c0H
	DB	078H
	DB	092H
	DB	0d0H
	DB	0c0H
	DB	078H
	DB	08eH
	DB	0d0H
	DB	0bcH
	DB	070H
	DB	08eH
	DB	0d8H
	DB	0bcH
	DB	070H
	DB	092H
	DB	0d8H
	DB	0c0H
	DB	078H
	DB	08eH
	DB	0d0H
	DB	0bcH
	DB	070H
	DB	08eH
	DB	0d0H
	DB	0bcH
	DB	070H
	DB	08eH
	DB	0d0H
	DB	0bcH
	DB	068H
	DB	092H
	DB	0d8H
	DB	0c0H
	DB	070H
	DB	08eH
	DB	0d8H
	DB	0bcH
	DB	070H
	DB	08eH
	DB	0d0H
	DB	0b8H
	DB	068H
	DB	08eH
	DB	0d0H
	DB	0c0H
	DB	070H
	DB	08eH
	DB	0d8H
	DB	0c0H
	DB	070H
	DB	08eH
	DB	0d0H
	DB	0bcH
	DB	068H
	DB	08aH
	DB	0d0H
	DB	0b8H
	DB	068H
	DB	06dH
	DB	0d0H
	DB	0b4H
	DB	068H
	DB	02cH
	DB	0f8H
	DB	0fcH
	DB	0f8H
	DB	00H
	DB	0f8H
	DB	0fcH
	DB	0f8H
	DB	00H
	DB	0f8H
	DB	0fcH
	DB	0f8H
	DB	00H
	DB	0f8H
	DB	0fcH
	DB	0f8H
	DB	00H
	DB	0f8H
	DB	0fcH
	DB	0f8H
	DB	00H
	DB	0f8H
	DB	0fcH
	DB	0f8H
	DB	00H
	DB	0f8H
	DB	0fcH
	DB	0f8H
	DB	00H
	DB	0f8H
	DB	0fcH
	DB	0f8H
	DB	00H
	DB	0f8H
	DB	0fcH
	DB	0f8H
	DB	00H
	DB	0f8H
	DB	0fcH
	DB	0f8H
	DB	00H
	DB	0f8H
	DB	0fcH
	DB	0f8H
	DB	00H
	DB	0f8H
	DB	0fcH
	DB	0f8H
	DB	00H
	DB	0f8H
	DB	0fcH
	DB	0f8H
	DB	00H
	DB	0f8H
	DB	0fcH
	DB	0f8H
	DB	00H
	DB	0f8H
	DB	0fcH
	DB	0f8H
	DB	00H
	DB	0f8H
	DB	0fcH
	DB	0f8H
	DB	00H
	DB	0f8H
	DB	0fcH
	DB	0f8H
	DB	00H
	DB	0f8H
	DB	0fcH
	DB	0f8H
	DB	00H
	DB	0f8H
	DB	0fcH
	DB	0f8H
	DB	00H
	DB	0f8H
	DB	0fcH
	DB	0f8H
	DB	00H
	DB	0f8H
	DB	0fcH
	DB	0f8H
	DB	00H
	DB	0f8H
	DB	0fcH
	DB	0f8H
	DB	00H
	DB	0f8H
	DB	0fcH
	DB	0f8H
	DB	00H
	DB	0f8H
	DB	0fcH
	DB	0f8H
	DB	00H
	DB	0f8H
	DB	0fcH
	DB	0f8H
	DB	00H
	DB	0f8H
	DB	0fcH
	DB	0f8H
	DB	00H
	DB	0f8H
	DB	0fcH
	DB	0f8H
	DB	00H
	DB	0f8H
	DB	0fcH
	DB	0f8H
	DB	00H
	DB	0f8H
	DB	0fcH
	DB	0f8H
	DB	00H
	DB	0f8H
	DB	0fcH
	DB	0f8H
	DB	00H
	DB	0f8H
	DB	0fcH
	DB	0f8H
	DB	00H
	DB	0f8H
	DB	0fcH
	DB	0f8H
	DB	00H
	DB	0f8H
	DB	0fcH
	DB	0f8H
	DB	00H
	DB	0f8H
	DB	0fcH
	DB	0f8H
	DB	00H
	DB	0f8H
	DB	0fcH
	DB	0f8H
	DB	00H
	DB	0f8H
	DB	0fcH
	DB	0f8H
	DB	00H
	DB	0f8H
	DB	0fcH
	DB	0f8H
	DB	00H
	DB	0f8H
	DB	0fcH
	DB	0f8H
	DB	00H
	DB	0f8H
	DB	0fcH
	DB	0f8H
	DB	00H
	DB	0f8H
	DB	0fcH
	DB	0f8H
	DB	00H
	DB	0f8H
	DB	0fcH
	DB	0f8H
	DB	00H
	DB	0f8H
	DB	0fcH
	DB	0f8H
	DB	00H
	DB	0f8H
	DB	0fcH
	DB	0f8H
	DB	00H
	DB	0f8H
	DB	0fcH
	DB	0f8H
	DB	00H
	DB	0f8H
	DB	0fcH
	DB	0f8H
	DB	00H
	DB	0f8H
	DB	0fcH
	DB	0f8H
	DB	00H
	DB	0f8H
	DB	0fcH
	DB	0f8H
	DB	00H
	DB	0f8H
	DB	0fcH
	DB	0f8H
	DB	00H
	DB	0f8H
	DB	0fcH
	DB	0f8H
	DB	00H
	DB	0f8H
	DB	0fcH
	DB	0f8H
	DB	00H
	DB	0f8H
	DB	0fcH
	DB	0f8H
	DB	00H
	DB	0f8H
	DB	0fcH
	DB	0f8H
	DB	00H
	DB	0f8H
	DB	0fcH
	DB	0f8H
	DB	00H
	DB	0f8H
	DB	0fcH
	DB	0f8H
	DB	00H
	DB	0f8H
	DB	0fcH
	DB	0f8H
	DB	00H
	DB	0f8H
	DB	0fcH
	DB	0f8H
	DB	00H
	DB	0f8H
	DB	0fcH
	DB	0f8H
	DB	00H
	DB	0f8H
	DB	0fcH
	DB	0f8H
	DB	00H
	DB	0f8H
	DB	0fcH
	DB	0f8H
	DB	00H
	DB	0f8H
	DB	0fcH
	DB	0f8H
	DB	00H
	DB	0f8H
	DB	0fcH
	DB	0f8H
	DB	00H
	DB	0f8H
	DB	0fcH
	DB	0f8H
	DB	00H
	DB	0f8H
	DB	0fcH
	DB	0f8H
	DB	00H
	DB	0f8H
	DB	0fcH
	DB	0f8H
	DB	00H
	DB	0f8H
	DB	0fcH
	DB	0f8H
	DB	00H
	DB	0f8H
	DB	0fcH
	DB	0f8H
	DB	00H
	DB	0f8H
	DB	0fcH
	DB	0f8H
	DB	00H
	DB	0f8H
	DB	0fcH
	DB	0f8H
	DB	00H
	DB	0f8H
	DB	0fcH
	DB	0f8H
	DB	00H
	DB	0f8H
	DB	0fcH
	DB	0f8H
	DB	00H
	DB	0f8H
	DB	0fcH
	DB	0f8H
	DB	00H
	DB	0f8H
	DB	0fcH
	DB	0f8H
	DB	00H
	DB	0f8H
	DB	0fcH
	DB	0f8H
	DB	00H
	DB	0f8H
	DB	0fcH
	DB	0f8H
	DB	00H
	DB	0f8H
	DB	0fcH
	DB	0f8H
	DB	00H
	DB	0f8H
	DB	0fcH
	DB	0f8H
	DB	00H
	DB	0f8H
	DB	0fcH
	DB	0f8H
	DB	00H
	DB	0f8H
	DB	0fcH
	DB	0f8H
	DB	00H
	DB	0f8H
	DB	0fcH
	DB	0f8H
	DB	00H
	DB	0f8H
	DB	0fcH
	DB	0f8H
	DB	00H
	DB	0f8H
	DB	0fcH
	DB	0f8H
	DB	00H
	DB	0f8H
	DB	0fcH
	DB	0f8H
	DB	00H
	DB	0f8H
	DB	0fcH
	DB	0f8H
	DB	00H
	DB	0f8H
	DB	0fcH
	DB	0f8H
	DB	00H
	DB	0f8H
	DB	0fcH
	DB	0f8H
	DB	00H
	DB	0f8H
	DB	0fcH
	DB	0f8H
	DB	00H
	DB	0f8H
	DB	0fcH
	DB	0f8H
	DB	00H
	DB	0f8H
	DB	0fcH
	DB	0f8H
	DB	00H
	DB	0f8H
	DB	0fcH
	DB	0f8H
	DB	00H
	DB	0f8H
	DB	0fcH
	DB	0f8H
	DB	00H
	DB	0f8H
	DB	0fcH
	DB	0f8H
	DB	00H
	DB	0f8H
	DB	0fcH
	DB	0f8H
	DB	00H
	DB	0f8H
	DB	0fcH
	DB	0f8H
	DB	00H
	DB	0f8H
	DB	0fcH
	DB	0f8H
	DB	00H
	DB	0f8H
	DB	0fcH
	DB	0f8H
	DB	00H
	DB	0f8H
	DB	0fcH
	DB	0f8H
	DB	00H
	DB	0f8H
	DB	0fcH
	DB	0f8H
	DB	00H
	DB	0f8H
	DB	0fcH
	DB	0f8H
	DB	00H
	DB	0f8H
	DB	0fcH
	DB	0f8H
	DB	00H
	DB	0f8H
	DB	0fcH
	DB	0f8H
	DB	00H
	DB	0f8H
	DB	0fcH
	DB	0f8H
	DB	00H
	DB	0f8H
	DB	0fcH
	DB	0f8H
	DB	00H
	DB	0f8H
	DB	0fcH
	DB	0f8H
	DB	00H
	DB	0f8H
	DB	0fcH
	DB	0f8H
	DB	00H
	DB	0f8H
	DB	0fcH
	DB	0f8H
	DB	00H
	DB	0f8H
	DB	0fcH
	DB	0f8H
	DB	00H
	DB	0f8H
	DB	0fcH
	DB	0f8H
	DB	00H
	DB	0f8H
	DB	0fcH
	DB	0f8H
	DB	00H
	DB	0f8H
	DB	0fcH
	DB	0f8H
	DB	00H
	DB	0f8H
	DB	0fcH
	DB	0f8H
	DB	00H
	DB	0f8H
	DB	0fcH
	DB	0f8H
	DB	00H
	DB	0f8H
	DB	0fcH
	DB	0f8H
	DB	00H
	DB	0f8H
	DB	0fcH
	DB	0f8H
	DB	00H
	DB	0f8H
	DB	0fcH
	DB	0f8H
	DB	00H
	DB	0f8H
	DB	0fcH
	DB	0f8H
	DB	00H
	DB	0f8H
	DB	0fcH
	DB	0f8H
	DB	00H
	DB	0f8H
	DB	0fcH
	DB	0f8H
	DB	00H
	DB	0f8H
	DB	0fcH
	DB	0f8H
	DB	00H
	DB	0f8H
	DB	0fcH
	DB	0f8H
	DB	00H
	DB	0f8H
	DB	0fcH
	DB	0f8H
	DB	00H
	DB	0f8H
	DB	0fcH
	DB	0f8H
	DB	00H
	DB	0f8H
	DB	0fcH
	DB	0f8H
	DB	00H
	DB	0f8H
	DB	0fcH
	DB	0f8H
	DB	00H
	DB	0f8H
	DB	0fcH
	DB	0f8H
	DB	00H
	DB	0f8H
	DB	0fcH
	DB	0f8H
	DB	00H
	DB	0c0H
	DB	0a8H
	DB	060H
	DB	041H
	DB	0c0H
	DB	0a4H
	DB	058H
	DB	069H
	DB	0c0H
	DB	0a4H
	DB	058H
	DB	06dH
	DB	0c0H
	DB	0a4H
	DB	050H
	DB	06dH
	DB	0c0H
	DB	0a0H
	DB	050H
	DB	06dH
	DB	0b8H
	DB	0a0H
	DB	050H
	DB	06dH
	DB	0c0H
	DB	0a0H
	DB	048H
	DB	06dH
	DB	0b8H
	DB	09cH
	DB	048H
	DB	06dH
	DB	0b8H
	DB	09cH
	DB	048H
	DB	06dH
	DB	0b8H
	DB	09cH
	DB	048H
	DB	06dH
	DB	0b8H
	DB	09cH
	DB	048H
	DB	06dH
	DB	0b8H
	DB	09cH
	DB	048H
	DB	071H
	DB	0b8H
	DB	09cH
	DB	048H
	DB	071H
	DB	0b8H
	DB	09cH
	DB	048H
	DB	06dH
	DB	0b8H
	DB	09cH
	DB	048H
	DB	071H
	DB	0b8H
	DB	0a0H
	DB	048H
	DB	06dH
	DB	0b8H
	DB	09cH
	DB	048H
	DB	071H
	DB	0b8H
	DB	09cH
	DB	048H
	DB	071H
	DB	0b8H
	DB	09cH
	DB	048H
	DB	071H
	DB	0c0H
	DB	0a0H
	DB	048H
	DB	071H
	DB	0b8H
	DB	09cH
	DB	048H
	DB	071H
	DB	0b8H
	DB	09cH
	DB	048H
	DB	071H
	DB	0b8H
	DB	0a0H
	DB	048H
	DB	075H
	DB	0c0H
	DB	0a0H
	DB	048H
	DB	071H
	DB	0c0H
	DB	0a0H
	DB	048H
	DB	071H
	DB	0b8H
	DB	0a0H
	DB	050H
	DB	075H
	DB	0c0H
	DB	0a0H
	DB	050H
	DB	075H
	DB	0c0H
	DB	0a4H
	DB	050H
	DB	075H
	DB	0c0H
	DB	0a4H
	DB	050H
	DB	075H
	DB	0c0H
	DB	0a8H
	DB	058H
	DB	075H
	DB	0c0H
	DB	0a8H
	DB	058H
	DB	079H
	DB	0c8H
	DB	0a8H
	DB	058H
	DB	075H
	DB	0c8H
	DB	0acH
	DB	058H
	DB	079H
	DB	0c8H
	DB	0acH
	DB	060H
	DB	075H
	DB	0c8H
	DB	0acH
	DB	060H
	DB	075H
	DB	0c8H
	DB	0b0H
	DB	060H
	DB	079H
	DB	0c8H
	DB	0b0H
	DB	060H
	DB	079H
	DB	0d0H
	DB	0b0H
	DB	060H
	DB	079H
	DB	0c8H
	DB	0b0H
	DB	060H
	DB	079H
	DB	0c8H
	DB	0b0H
	DB	060H
	DB	079H
	DB	0d0H
	DB	0b0H
	DB	068H
	DB	079H
	DB	0d0H
	DB	0bcH
	DB	078H
	DB	079H
	DB	0d0H
	DB	0b8H
	DB	070H
	DB	07dH
	DB	0d0H
	DB	0b8H
	DB	068H
	DB	079H
	DB	0d0H
	DB	0b4H
	DB	068H
	DB	079H
	DB	0d0H
	DB	0b4H
	DB	068H
	DB	07dH
	DB	0d0H
	DB	0b8H
	DB	070H
	DB	07dH
	DB	0d0H
	DB	0b8H
	DB	068H
	DB	07dH
	DB	0d0H
	DB	0bcH
	DB	070H
	DB	07dH
	DB	0d0H
	DB	0b8H
	DB	070H
	DB	07dH
	DB	0d0H
	DB	0bcH
	DB	070H
	DB	07dH
	DB	0d0H
	DB	0b8H
	DB	068H
	DB	07dH
	DB	0d0H
	DB	0b8H
	DB	068H
	DB	082H
	DB	0d8H
	DB	0bcH
	DB	070H
	DB	07dH
	DB	0d0H
	DB	0bcH
	DB	070H
	DB	07dH
	DB	0d0H
	DB	0b8H
	DB	068H
	DB	082H
	DB	0d0H
	DB	0b8H
	DB	068H
	DB	082H
	DB	0d8H
	DB	0bcH
	DB	070H
	DB	082H
	DB	0d0H
	DB	0b8H
	DB	070H
	DB	082H
	DB	0d0H
	DB	0b8H
	DB	068H
	DB	082H
	DB	0d0H
	DB	0b8H
	DB	070H
	DB	082H
	DB	0d0H
	DB	0bcH
	DB	070H
	DB	082H
	DB	0d8H
	DB	0b8H
	DB	070H
	DB	082H
	DB	0d0H
	DB	0bcH
	DB	070H
	DB	086H
	DB	0d0H
	DB	0bcH
	DB	070H
	DB	082H
	DB	0d8H
	DB	0c0H
	DB	078H
	DB	082H
	DB	0d0H
	DB	0c0H
	DB	078H
	DB	086H
	DB	0e0H
	DB	0c8H
	DB	088H
	DB	086H
	DB	0e0H
	DB	0ccH
	DB	090H
	DB	086H
	DB	0d8H
	DB	0c4H
	DB	080H
	DB	086H
	DB	0d8H
	DB	0c4H
	DB	080H
	DB	086H
	DB	0d8H
	DB	0c0H
	DB	078H
	DB	086H
	DB	0d0H
	DB	0c0H
	DB	078H
	DB	086H
	DB	0d8H
	DB	0c0H
	DB	080H
	DB	08aH
	DB	0d8H
	DB	0c4H
	DB	080H
	DB	086H
	DB	0d8H
	DB	0c4H
	DB	088H
	DB	086H
	DB	0d8H
	DB	0c8H
	DB	090H
	DB	08aH
	DB	0e0H
	DB	0ccH
	DB	090H
	DB	08aH
	DB	0d8H
	DB	0c4H
	DB	088H
	DB	08aH
	DB	0d8H
	DB	0c4H
	DB	080H
	DB	08aH
	DB	0d8H
	DB	0c8H
	DB	088H
	DB	08aH
	DB	0e0H
	DB	0c8H
	DB	088H
	DB	08aH
	DB	0e0H
	DB	0c8H
	DB	088H
	DB	08eH
	DB	0d8H
	DB	0c8H
	DB	088H
	DB	08aH
	DB	0d8H
	DB	0c8H
	DB	088H
	DB	08eH
	DB	0e0H
	DB	0c8H
	DB	088H
	DB	08aH
	DB	0e0H
	DB	0c8H
	DB	088H
	DB	08eH
	DB	0d8H
	DB	0c8H
	DB	088H
	DB	08eH
	DB	0d8H
	DB	0c4H
	DB	080H
	DB	08eH
	DB	0e0H
	DB	0c8H
	DB	088H
	DB	08eH
	DB	0d8H
	DB	0c8H
	DB	088H
	DB	08eH
	DB	0d8H
	DB	0c4H
	DB	080H
	DB	08eH
	DB	0d8H
	DB	0c4H
	DB	080H
	DB	08eH
	DB	0d8H
	DB	0c4H
	DB	080H
	DB	08eH
	DB	0d8H
	DB	0c4H
	DB	080H
	DB	08eH
	DB	0d8H
	DB	0c0H
	DB	078H
	DB	08eH
	DB	0d8H
	DB	0bcH
	DB	070H
	DB	08eH
	DB	0d0H
	DB	0bcH
	DB	070H
	DB	092H
	DB	0d0H
	DB	0bcH
	DB	070H
	DB	08eH
	DB	0d0H
	DB	0bcH
	DB	070H
	DB	08eH
	DB	0d0H
	DB	0b8H
	DB	068H
	DB	08eH
	DB	0d0H
	DB	0b8H
	DB	068H
	DB	08eH
	DB	0c8H
	DB	0b8H
	DB	068H
	DB	08eH
	DB	0d0H
	DB	0c0H
	DB	078H
	DB	08eH
	DB	0d8H
	DB	0c0H
	DB	078H
	DB	08eH
	DB	0d0H
	DB	0bcH
	DB	070H
	DB	08eH
	DB	0d0H
	DB	0bcH
	DB	070H
	DB	08eH
	DB	0c8H
	DB	0b4H
	DB	068H
	DB	08eH
	DB	0d0H
	DB	0bcH
	DB	070H
	DB	092H
	DB	0d8H
	DB	0c0H
	DB	078H
	DB	092H
	DB	0d0H
	DB	0c0H
	DB	080H
	DB	08eH
	DB	0d0H
	DB	0bcH
	DB	078H
	DB	08eH
	DB	0d8H
	DB	0c4H
	DB	080H
	DB	092H
	DB	0d8H
	DB	0c4H
	DB	080H
	DB	08eH
	DB	0d0H
	DB	0bcH
	DB	078H
	DB	08eH
	DB	0d0H
	DB	0c0H
	DB	078H
	DB	092H
	DB	0d8H
	DB	0c4H
	DB	078H
	DB	08eH
	DB	0d8H
	DB	0c0H
	DB	078H
	DB	092H
	DB	0d8H
	DB	0c4H
	DB	078H
	DB	092H
	DB	0d8H
	DB	0c4H
	DB	080H
	DB	08eH
	DB	0d8H
	DB	0c4H
	DB	080H
	DB	08eH
	DB	0d8H
	DB	0c8H
	DB	080H
	DB	092H
	DB	0d8H
	DB	0c4H
	DB	080H
	DB	08eH
	DB	0d8H
	DB	0c0H
	DB	070H
	DB	092H
	DB	0d8H
	DB	0c0H
	DB	078H
	DB	092H
	DB	0d8H
	DB	0c0H
	DB	078H
	DB	08eH
	DB	0d0H
	DB	0c0H
	DB	078H
	DB	08eH
	DB	0d0H
	DB	0c0H
	DB	070H
	DB	08eH
	DB	0d8H
	DB	0c0H
	DB	078H
	DB	08eH
	DB	0e0H
	DB	0c4H
	DB	080H
	DB	08eH
	DB	0d0H
	DB	0bcH
	DB	068H
	DB	08eH
	DB	0d0H
	DB	0b8H
	DB	068H
	DB	08eH
	DB	0d8H
	DB	0c0H
	DB	078H
	DB	092H
	DB	0d0H
	DB	0bcH
	DB	070H
	DB	08eH
	DB	0d8H
	DB	0bcH
	DB	070H
	DB	08eH
	DB	0d8H
	DB	0c0H
	DB	070H
	DB	08eH
	DB	0d8H
	DB	0c0H
	DB	070H
	DB	08eH
	DB	0d0H
	DB	0bcH
	DB	068H
	DB	08eH
	DB	0d0H
	DB	0b8H
	DB	068H
	DB	08eH
	DB	0d0H
	DB	0b8H
	DB	068H
	DB	08eH
	DB	0d0H
	DB	0b4H
	DB	068H
	DB	07dH
	DB	0d0H
	DB	0b8H
	DB	070H
	DB	049H
	DB	0d0H
	DB	0b4H
	DB	070H
	DB	00H
	DB	0f8H
	DB	0fcH
	DB	0f8H
	DB	00H
	DB	0f8H
	DB	0fcH
	DB	0f8H
	DB	00H
	DB	0f8H
	DB	0fcH
	DB	0f8H
	DB	00H
	DB	0f8H
	DB	0fcH
	DB	0f8H
	DB	00H
	DB	0f8H
	DB	0fcH
	DB	0f8H
	DB	00H
	DB	0f8H
	DB	0fcH
	DB	0f8H
	DB	00H
	DB	0f8H
	DB	0fcH
	DB	0f8H
	DB	00H
	DB	0f8H
	DB	0fcH
	DB	0f8H
	DB	00H
	DB	0f8H
	DB	0fcH
	DB	0f8H
	DB	00H
	DB	0f8H
	DB	0fcH
	DB	0f8H
	DB	00H
	DB	0f8H
	DB	0fcH
	DB	0f8H
	DB	00H
	DB	0f8H
	DB	0fcH
	DB	0f8H
	DB	00H
	DB	0f8H
	DB	0fcH
	DB	0f8H
	DB	00H
	DB	0f8H
	DB	0fcH
	DB	0f8H
	DB	00H
	DB	0f8H
	DB	0fcH
	DB	0f8H
	DB	00H
	DB	0f8H
	DB	0fcH
	DB	0f8H
	DB	00H
	DB	0f8H
	DB	0fcH
	DB	0f8H
	DB	00H
	DB	0f8H
	DB	0fcH
	DB	0f8H
	DB	00H
	DB	0f8H
	DB	0fcH
	DB	0f8H
	DB	00H
	DB	0f8H
	DB	0fcH
	DB	0f8H
	DB	00H
	DB	0f8H
	DB	0fcH
	DB	0f8H
	DB	00H
	DB	0f8H
	DB	0fcH
	DB	0f8H
	DB	00H
	DB	0f8H
	DB	0fcH
	DB	0f8H
	DB	00H
	DB	0f8H
	DB	0fcH
	DB	0f8H
	DB	00H
	DB	0f8H
	DB	0fcH
	DB	0f8H
	DB	00H
	DB	0f8H
	DB	0fcH
	DB	0f8H
	DB	00H
	DB	0f8H
	DB	0fcH
	DB	0f8H
	DB	00H
	DB	0f8H
	DB	0fcH
	DB	0f8H
	DB	00H
	DB	0f8H
	DB	0fcH
	DB	0f8H
	DB	00H
	DB	0f8H
	DB	0fcH
	DB	0f8H
	DB	00H
	DB	0f8H
	DB	0fcH
	DB	0f8H
	DB	00H
	DB	0f8H
	DB	0fcH
	DB	0f8H
	DB	00H
	DB	0f8H
	DB	0fcH
	DB	0f8H
	DB	00H
	DB	0f8H
	DB	0fcH
	DB	0f8H
	DB	00H
	DB	0f8H
	DB	0fcH
	DB	0f8H
	DB	00H
	DB	0f8H
	DB	0fcH
	DB	0f8H
	DB	00H
	DB	0f8H
	DB	0fcH
	DB	0f8H
	DB	00H
	DB	0f8H
	DB	0fcH
	DB	0f8H
	DB	00H
	DB	0f8H
	DB	0fcH
	DB	0f8H
	DB	00H
	DB	0f8H
	DB	0fcH
	DB	0f8H
	DB	00H
	DB	0f8H
	DB	0fcH
	DB	0f8H
	DB	00H
	DB	0f8H
	DB	0fcH
	DB	0f8H
	DB	00H
	DB	0f8H
	DB	0fcH
	DB	0f8H
	DB	00H
	DB	0f8H
	DB	0fcH
	DB	0f8H
	DB	00H
	DB	0f8H
	DB	0fcH
	DB	0f8H
	DB	00H
	DB	0f8H
	DB	0fcH
	DB	0f8H
	DB	00H
	DB	0f8H
	DB	0fcH
	DB	0f8H
	DB	00H
	DB	0f8H
	DB	0fcH
	DB	0f8H
	DB	00H
	DB	0f8H
	DB	0fcH
	DB	0f8H
	DB	00H
	DB	0f8H
	DB	0fcH
	DB	0f8H
	DB	00H
	DB	0f8H
	DB	0fcH
	DB	0f8H
	DB	00H
	DB	0f8H
	DB	0fcH
	DB	0f8H
	DB	00H
	DB	0f8H
	DB	0fcH
	DB	0f8H
	DB	00H
	DB	0f8H
	DB	0fcH
	DB	0f8H
	DB	00H
	DB	0f8H
	DB	0fcH
	DB	0f8H
	DB	00H
	DB	0f8H
	DB	0fcH
	DB	0f8H
	DB	00H
	DB	0f8H
	DB	0fcH
	DB	0f8H
	DB	00H
	DB	0f8H
	DB	0fcH
	DB	0f8H
	DB	00H
	DB	0f8H
	DB	0fcH
	DB	0f8H
	DB	00H
	DB	0f8H
	DB	0fcH
	DB	0f8H
	DB	00H
	DB	0f8H
	DB	0fcH
	DB	0f8H
	DB	00H
	DB	0f8H
	DB	0fcH
	DB	0f8H
	DB	00H
	DB	0f8H
	DB	0fcH
	DB	0f8H
	DB	00H
	DB	0f8H
	DB	0fcH
	DB	0f8H
	DB	00H
	DB	0f8H
	DB	0fcH
	DB	0f8H
	DB	00H
	DB	0f8H
	DB	0fcH
	DB	0f8H
	DB	00H
	DB	0f8H
	DB	0fcH
	DB	0f8H
	DB	00H
	DB	0f8H
	DB	0fcH
	DB	0f8H
	DB	00H
	DB	0f8H
	DB	0fcH
	DB	0f8H
	DB	00H
	DB	0f8H
	DB	0fcH
	DB	0f8H
	DB	00H
	DB	0f8H
	DB	0fcH
	DB	0f8H
	DB	00H
	DB	0f8H
	DB	0fcH
	DB	0f8H
	DB	00H
	DB	0f8H
	DB	0fcH
	DB	0f8H
	DB	00H
	DB	0f8H
	DB	0fcH
	DB	0f8H
	DB	00H
	DB	0f8H
	DB	0fcH
	DB	0f8H
	DB	00H
	DB	0f8H
	DB	0fcH
	DB	0f8H
	DB	00H
	DB	0f8H
	DB	0fcH
	DB	0f8H
	DB	00H
	DB	0f8H
	DB	0fcH
	DB	0f8H
	DB	00H
	DB	0f8H
	DB	0fcH
	DB	0f8H
	DB	00H
	DB	0f8H
	DB	0fcH
	DB	0f8H
	DB	00H
	DB	0f8H
	DB	0fcH
	DB	0f8H
	DB	00H
	DB	0f8H
	DB	0fcH
	DB	0f8H
	DB	00H
	DB	0f8H
	DB	0fcH
	DB	0f8H
	DB	00H
	DB	0f8H
	DB	0fcH
	DB	0f8H
	DB	00H
	DB	0f8H
	DB	0fcH
	DB	0f8H
	DB	00H
	DB	0f8H
	DB	0fcH
	DB	0f8H
	DB	00H
	DB	0f8H
	DB	0fcH
	DB	0f8H
	DB	00H
	DB	0f8H
	DB	0fcH
	DB	0f8H
	DB	00H
	DB	0f8H
	DB	0fcH
	DB	0f8H
	DB	00H
	DB	0f8H
	DB	0fcH
	DB	0f8H
	DB	00H
	DB	0f8H
	DB	0fcH
	DB	0f8H
	DB	00H
	DB	0f8H
	DB	0fcH
	DB	0f8H
	DB	00H
	DB	0f8H
	DB	0fcH
	DB	0f8H
	DB	00H
	DB	0f8H
	DB	0fcH
	DB	0f8H
	DB	00H
	DB	0f8H
	DB	0fcH
	DB	0f8H
	DB	00H
	DB	0f8H
	DB	0fcH
	DB	0f8H
	DB	00H
	DB	0f8H
	DB	0fcH
	DB	0f8H
	DB	00H
	DB	0f8H
	DB	0fcH
	DB	0f8H
	DB	00H
	DB	0f8H
	DB	0fcH
	DB	0f8H
	DB	00H
	DB	0f8H
	DB	0fcH
	DB	0f8H
	DB	00H
	DB	0f8H
	DB	0fcH
	DB	0f8H
	DB	00H
	DB	0f8H
	DB	0fcH
	DB	0f8H
	DB	00H
	DB	0f8H
	DB	0fcH
	DB	0f8H
	DB	00H
	DB	0f8H
	DB	0fcH
	DB	0f8H
	DB	00H
	DB	0f8H
	DB	0fcH
	DB	0f8H
	DB	00H
	DB	0f8H
	DB	0fcH
	DB	0f8H
	DB	00H
	DB	0f8H
	DB	0fcH
	DB	0f8H
	DB	00H
	DB	0f8H
	DB	0fcH
	DB	0f8H
	DB	00H
	DB	0f8H
	DB	0fcH
	DB	0f8H
	DB	00H
	DB	0f8H
	DB	0fcH
	DB	0f8H
	DB	00H
	DB	0f8H
	DB	0fcH
	DB	0f8H
	DB	00H
	DB	0f8H
	DB	0fcH
	DB	0f8H
	DB	00H
	DB	0f8H
	DB	0fcH
	DB	0f8H
	DB	00H
	DB	0f8H
	DB	0fcH
	DB	0f8H
	DB	00H
	DB	0f8H
	DB	0fcH
	DB	0f8H
	DB	00H
	DB	0f8H
	DB	0fcH
	DB	0f8H
	DB	00H
	DB	0f8H
	DB	0fcH
	DB	0f8H
	DB	00H
	DB	0f8H
	DB	0fcH
	DB	0f8H
	DB	00H
	DB	0f8H
	DB	0fcH
	DB	0f8H
	DB	00H
	DB	0f8H
	DB	0fcH
	DB	0f8H
	DB	00H
	DB	0f8H
	DB	0fcH
	DB	0f8H
	DB	00H
	DB	0c0H
	DB	0a8H
	DB	060H
	DB	045H
	DB	0c0H
	DB	0a4H
	DB	058H
	DB	069H
	DB	0c0H
	DB	0a4H
	DB	050H
	DB	069H
	DB	0c0H
	DB	0a0H
	DB	050H
	DB	06dH
	DB	0c0H
	DB	0a0H
	DB	050H
	DB	06dH
	DB	0c0H
	DB	0a0H
	DB	050H
	DB	069H
	DB	0b8H
	DB	0a0H
	DB	050H
	DB	06dH
	DB	0b8H
	DB	09cH
	DB	050H
	DB	06dH
	DB	0c0H
	DB	0a0H
	DB	050H
	DB	06dH
	DB	0c0H
	DB	0a0H
	DB	050H
	DB	071H
	DB	0b8H
	DB	0a0H
	DB	050H
	DB	06dH
	DB	0c0H
	DB	0a0H
	DB	050H
	DB	06dH
	DB	0c0H
	DB	0a0H
	DB	050H
	DB	071H
	DB	0b8H
	DB	0a0H
	DB	050H
	DB	06dH
	DB	0b8H
	DB	0a0H
	DB	050H
	DB	06dH
	DB	0c0H
	DB	0a4H
	DB	050H
	DB	071H
	DB	0c0H
	DB	0a4H
	DB	050H
	DB	071H
	DB	0c0H
	DB	0a4H
	DB	058H
	DB	071H
	DB	0c0H
	DB	0a4H
	DB	050H
	DB	071H
	DB	0c0H
	DB	0a0H
	DB	050H
	DB	071H
	DB	0c0H
	DB	0a0H
	DB	050H
	DB	071H
	DB	0b8H
	DB	0a0H
	DB	050H
	DB	075H
	DB	0b8H
	DB	0a0H
	DB	050H
	DB	071H
	DB	0c0H
	DB	0a0H
	DB	050H
	DB	071H
	DB	0c0H
	DB	0a0H
	DB	050H
	DB	075H
	DB	0c0H
	DB	0a0H
	DB	050H
	DB	071H
	DB	0c0H
	DB	0a4H
	DB	050H
	DB	075H
	DB	0c0H
	DB	0a4H
	DB	050H
	DB	075H
	DB	0c0H
	DB	0a8H
	DB	058H
	DB	075H
	DB	0c8H
	DB	0a8H
	DB	058H
	DB	075H
	DB	0c0H
	DB	0a8H
	DB	058H
	DB	075H
	DB	0c8H
	DB	0acH
	DB	058H
	DB	075H
	DB	0c8H
	DB	0a8H
	DB	058H
	DB	075H
	DB	0c0H
	DB	0acH
	DB	058H
	DB	075H
	DB	0c8H
	DB	0acH
	DB	060H
	DB	079H
	DB	0c8H
	DB	0acH
	DB	060H
	DB	075H
	DB	0c8H
	DB	0acH
	DB	060H
	DB	079H
	DB	0c8H
	DB	0b0H
	DB	060H
	DB	079H
	DB	0c8H
	DB	0b0H
	DB	060H
	DB	079H
	DB	0c8H
	DB	0b0H
	DB	060H
	DB	079H
	DB	0c8H
	DB	0b0H
	DB	060H
	DB	079H
	DB	0d0H
	DB	0b4H
	DB	068H
	DB	079H
	DB	0d0H
	DB	0bcH
	DB	070H
	DB	07dH
	DB	0d0H
	DB	0b4H
	DB	068H
	DB	079H
	DB	0d0H
	DB	0b8H
	DB	070H
	DB	07dH
	DB	0d0H
	DB	0b4H
	DB	068H
	DB	07dH
	DB	0d0H
	DB	0b4H
	DB	068H
	DB	07dH
	DB	0c8H
	DB	0b0H
	DB	060H
	DB	07dH
	DB	0c8H
	DB	0b4H
	DB	068H
	DB	07dH
	DB	0d0H
	DB	0b4H
	DB	068H
	DB	07dH
	DB	0d0H
	DB	0b4H
	DB	068H
	DB	07dH
	DB	0d0H
	DB	0bcH
	DB	070H
	DB	07dH
	DB	0d0H
	DB	0bcH
	DB	070H
	DB	07dH
	DB	0d0H
	DB	0b8H
	DB	070H
	DB	082H
	DB	0d0H
	DB	0b8H
	DB	068H
	DB	07dH
	DB	0d0H
	DB	0b8H
	DB	068H
	DB	07dH
	DB	0d0H
	DB	0b8H
	DB	068H
	DB	082H
	DB	0d0H
	DB	0b8H
	DB	068H
	DB	07dH
	DB	0d0H
	DB	0b8H
	DB	068H
	DB	082H
	DB	0d0H
	DB	0b8H
	DB	070H
	DB	082H
	DB	0d0H
	DB	0bcH
	DB	070H
	DB	082H
	DB	0d0H
	DB	0b8H
	DB	070H
	DB	082H
	DB	0d0H
	DB	0bcH
	DB	070H
	DB	082H
	DB	0d0H
	DB	0bcH
	DB	070H
	DB	082H
	DB	0d8H
	DB	0bcH
	DB	070H
	DB	082H
	DB	0d0H
	DB	0bcH
	DB	070H
	DB	086H
	DB	0d8H
	DB	0c0H
	DB	078H
	DB	082H
	DB	0d0H
	DB	0bcH
	DB	070H
	DB	082H
	DB	0d8H
	DB	0c4H
	DB	080H
	DB	086H
	DB	0d8H
	DB	0c4H
	DB	088H
	DB	086H
	DB	0e0H
	DB	0c8H
	DB	090H
	DB	086H
	DB	0d8H
	DB	0c4H
	DB	088H
	DB	086H
	DB	0d0H
	DB	0c0H
	DB	078H
	DB	086H
	DB	0d8H
	DB	0c0H
	DB	080H
	DB	086H
	DB	0d8H
	DB	0c0H
	DB	080H
	DB	086H
	DB	0d8H
	DB	0c4H
	DB	080H
	DB	08aH
	DB	0d8H
	DB	0c4H
	DB	080H
	DB	086H
	DB	0d8H
	DB	0c4H
	DB	088H
	DB	086H
	DB	0d8H
	DB	0c8H
	DB	088H
	DB	08aH
	DB	0d8H
	DB	0c8H
	DB	088H
	DB	08aH
	DB	0d8H
	DB	0c4H
	DB	088H
	DB	08aH
	DB	0d8H
	DB	0c8H
	DB	088H
	DB	08aH
	DB	0d8H
	DB	0c8H
	DB	088H
	DB	08aH
	DB	0e0H
	DB	0c8H
	DB	088H
	DB	08aH
	DB	0d8H
	DB	0c8H
	DB	088H
	DB	08aH
	DB	0d8H
	DB	0c8H
	DB	088H
	DB	08eH
	DB	0e0H
	DB	0c8H
	DB	088H
	DB	08aH
	DB	0d8H
	DB	0c8H
	DB	088H
	DB	08aH
	DB	0d8H
	DB	0c8H
	DB	088H
	DB	08eH
	DB	0e0H
	DB	0c8H
	DB	088H
	DB	08eH
	DB	0d8H
	DB	0c4H
	DB	088H
	DB	08eH
	DB	0e0H
	DB	0c8H
	DB	088H
	DB	08eH
	DB	0d8H
	DB	0c4H
	DB	088H
	DB	08eH
	DB	0d8H
	DB	0c4H
	DB	088H
	DB	08eH
	DB	0e0H
	DB	0c8H
	DB	088H
	DB	08eH
	DB	0d8H
	DB	0c4H
	DB	080H
	DB	08eH
	DB	0d8H
	DB	0c4H
	DB	080H
	DB	08eH
	DB	0d8H
	DB	0c0H
	DB	078H
	DB	08eH
	DB	0d0H
	DB	0c0H
	DB	070H
	DB	08eH
	DB	0d8H
	DB	0bcH
	DB	070H
	DB	08eH
	DB	0d0H
	DB	0bcH
	DB	070H
	DB	092H
	DB	0d0H
	DB	0bcH
	DB	070H
	DB	092H
	DB	0d0H
	DB	0b8H
	DB	070H
	DB	08eH
	DB	0d0H
	DB	0bcH
	DB	070H
	DB	08eH
	DB	0d0H
	DB	0bcH
	DB	078H
	DB	092H
	DB	0d8H
	DB	0c4H
	DB	078H
	DB	08eH
	DB	0d8H
	DB	0c4H
	DB	078H
	DB	08eH
	DB	0d0H
	DB	0b8H
	DB	070H
	DB	08eH
	DB	0c8H
	DB	0b0H
	DB	068H
	DB	08eH
	DB	0d0H
	DB	0bcH
	DB	078H
	DB	08eH
	DB	0d8H
	DB	0c4H
	DB	080H
	DB	08eH
	DB	0d8H
	DB	0c0H
	DB	080H
	DB	08eH
	DB	0d8H
	DB	0c0H
	DB	080H
	DB	08eH
	DB	0d8H
	DB	0c4H
	DB	080H
	DB	08eH
	DB	0d8H
	DB	0c4H
	DB	080H
	DB	08eH
	DB	0c8H
	DB	0b8H
	DB	078H
	DB	08eH
	DB	0d0H
	DB	0bcH
	DB	078H
	DB	08eH
	DB	0d8H
	DB	0c0H
	DB	078H
	DB	08eH
	DB	0d0H
	DB	0c0H
	DB	078H
	DB	08eH
	DB	0d8H
	DB	0c4H
	DB	078H
	DB	08eH
	DB	0d8H
	DB	0c4H
	DB	080H
	DB	08eH
	DB	0d8H
	DB	0c8H
	DB	080H
	DB	08eH
	DB	0d8H
	DB	0c8H
	DB	080H
	DB	08eH
	DB	0d8H
	DB	0c4H
	DB	088H
	DB	08eH
	DB	0d8H
	DB	0c0H
	DB	070H
	DB	08eH
	DB	0d8H
	DB	0c0H
	DB	078H
	DB	08eH
	DB	0d8H
	DB	0c4H
	DB	078H
	DB	08eH
	DB	0d8H
	DB	0c0H
	DB	078H
	DB	08eH
	DB	0d0H
	DB	0c0H
	DB	078H
	DB	092H
	DB	0d8H
	DB	0c0H
	DB	078H
	DB	08eH
	DB	0e0H
	DB	0c8H
	DB	080H
	DB	092H
	DB	0d0H
	DB	0b8H
	DB	060H
	DB	08eH
	DB	0d0H
	DB	0b8H
	DB	068H
	DB	08eH
	DB	0d8H
	DB	0bcH
	DB	070H
	DB	08eH
	DB	0d8H
	DB	0c0H
	DB	070H
	DB	092H
	DB	0d0H
	DB	0c0H
	DB	070H
	DB	08eH
	DB	0d8H
	DB	0c0H
	DB	070H
	DB	08eH
	DB	0d0H
	DB	0bcH
	DB	070H
	DB	08eH
	DB	0d0H
	DB	0bcH
	DB	068H
	DB	08eH
	DB	0d0H
	DB	0b8H
	DB	068H
	DB	08eH
	DB	0d0H
	DB	0b8H
	DB	068H
	DB	08eH
	DB	0d0H
	DB	0bcH
	DB	070H
	DB	08eH
	DB	0d8H
	DB	0c0H
	DB	070H
	DB	08eH
	DB	0d0H
	DB	0b8H
	DB	070H
	DB	086H
	DB	0c8H
	DB	0b4H
	DB	068H
	DB	05dH
	DB	0c8H
	DB	0b0H
	DB	068H
	DB	0cH
	DB	0f8H
	DB	0fcH
	DB	0f8H
	DB	00H
	DB	0f8H
	DB	0fcH
	DB	0f8H
	DB	00H
	DB	0f8H
	DB	0fcH
	DB	0f8H
	DB	00H
	DB	0f8H
	DB	0fcH
	DB	0f8H
	DB	00H
	DB	0f8H
	DB	0fcH
	DB	0f8H
	DB	00H
	DB	0f8H
	DB	0fcH
	DB	0f8H
	DB	00H
	DB	0f8H
	DB	0fcH
	DB	0f8H
	DB	00H
	DB	0f8H
	DB	0fcH
	DB	0f8H
	DB	00H
	DB	0f8H
	DB	0fcH
	DB	0f8H
	DB	00H
	DB	0f8H
	DB	0fcH
	DB	0f8H
	DB	00H
	DB	0f8H
	DB	0fcH
	DB	0f8H
	DB	00H
	DB	0f8H
	DB	0fcH
	DB	0f8H
	DB	00H
	DB	0f8H
	DB	0fcH
	DB	0f8H
	DB	00H
	DB	0f8H
	DB	0fcH
	DB	0f8H
	DB	00H
	DB	0f8H
	DB	0fcH
	DB	0f8H
	DB	00H
	DB	0f8H
	DB	0fcH
	DB	0f8H
	DB	00H
	DB	0f8H
	DB	0fcH
	DB	0f8H
	DB	00H
	DB	0f8H
	DB	0fcH
	DB	0f8H
	DB	00H
	DB	0f8H
	DB	0fcH
	DB	0f8H
	DB	00H
	DB	0f8H
	DB	0fcH
	DB	0f8H
	DB	00H
	DB	0f8H
	DB	0fcH
	DB	0f8H
	DB	00H
	DB	0f8H
	DB	0fcH
	DB	0f8H
	DB	00H
	DB	0f8H
	DB	0fcH
	DB	0f8H
	DB	00H
	DB	0f8H
	DB	0fcH
	DB	0f8H
	DB	00H
	DB	0f8H
	DB	0fcH
	DB	0f8H
	DB	00H
	DB	0f8H
	DB	0fcH
	DB	0f8H
	DB	00H
	DB	0f8H
	DB	0fcH
	DB	0f8H
	DB	00H
	DB	0f8H
	DB	0fcH
	DB	0f8H
	DB	00H
	DB	0f8H
	DB	0fcH
	DB	0f8H
	DB	00H
	DB	0f8H
	DB	0fcH
	DB	0f8H
	DB	00H
	DB	0f8H
	DB	0fcH
	DB	0f8H
	DB	00H
	DB	0f8H
	DB	0fcH
	DB	0f8H
	DB	00H
	DB	0f8H
	DB	0fcH
	DB	0f8H
	DB	00H
	DB	0f8H
	DB	0fcH
	DB	0f8H
	DB	00H
	DB	0f8H
	DB	0fcH
	DB	0f8H
	DB	00H
	DB	0f8H
	DB	0fcH
	DB	0f8H
	DB	00H
	DB	0f8H
	DB	0fcH
	DB	0f8H
	DB	00H
	DB	0f8H
	DB	0fcH
	DB	0f8H
	DB	00H
	DB	0f8H
	DB	0fcH
	DB	0f8H
	DB	00H
	DB	0f8H
	DB	0fcH
	DB	0f8H
	DB	00H
	DB	0f8H
	DB	0fcH
	DB	0f8H
	DB	00H
	DB	0f8H
	DB	0fcH
	DB	0f8H
	DB	00H
	DB	0f8H
	DB	0fcH
	DB	0f8H
	DB	00H
	DB	0f8H
	DB	0fcH
	DB	0f8H
	DB	00H
	DB	0f8H
	DB	0fcH
	DB	0f8H
	DB	00H
	DB	0f8H
	DB	0fcH
	DB	0f8H
	DB	00H
	DB	0f8H
	DB	0fcH
	DB	0f8H
	DB	00H
	DB	0f8H
	DB	0fcH
	DB	0f8H
	DB	00H
	DB	0f8H
	DB	0fcH
	DB	0f8H
	DB	00H
	DB	0f8H
	DB	0fcH
	DB	0f8H
	DB	00H
	DB	0f8H
	DB	0fcH
	DB	0f8H
	DB	00H
	DB	0f8H
	DB	0fcH
	DB	0f8H
	DB	00H
	DB	0f8H
	DB	0fcH
	DB	0f8H
	DB	00H
	DB	0f8H
	DB	0fcH
	DB	0f8H
	DB	00H
	DB	0f8H
	DB	0fcH
	DB	0f8H
	DB	00H
	DB	0f8H
	DB	0fcH
	DB	0f8H
	DB	00H
	DB	0f8H
	DB	0fcH
	DB	0f8H
	DB	00H
	DB	0f8H
	DB	0fcH
	DB	0f8H
	DB	00H
	DB	0f8H
	DB	0fcH
	DB	0f8H
	DB	00H
	DB	0f8H
	DB	0fcH
	DB	0f8H
	DB	00H
	DB	0f8H
	DB	0fcH
	DB	0f8H
	DB	00H
	DB	0f8H
	DB	0fcH
	DB	0f8H
	DB	00H
	DB	0f8H
	DB	0fcH
	DB	0f8H
	DB	00H
	DB	0f8H
	DB	0fcH
	DB	0f8H
	DB	00H
	DB	0f8H
	DB	0fcH
	DB	0f8H
	DB	00H
	DB	0f8H
	DB	0fcH
	DB	0f8H
	DB	00H
	DB	0f8H
	DB	0fcH
	DB	0f8H
	DB	00H
	DB	0f8H
	DB	0fcH
	DB	0f8H
	DB	00H
	DB	0f8H
	DB	0fcH
	DB	0f8H
	DB	00H
	DB	0f8H
	DB	0fcH
	DB	0f8H
	DB	00H
	DB	0f8H
	DB	0fcH
	DB	0f8H
	DB	00H
	DB	0f8H
	DB	0fcH
	DB	0f8H
	DB	00H
	DB	0f8H
	DB	0fcH
	DB	0f8H
	DB	00H
	DB	0f8H
	DB	0fcH
	DB	0f8H
	DB	00H
	DB	0f8H
	DB	0fcH
	DB	0f8H
	DB	00H
	DB	0f8H
	DB	0fcH
	DB	0f8H
	DB	00H
	DB	0f8H
	DB	0fcH
	DB	0f8H
	DB	00H
	DB	0f8H
	DB	0fcH
	DB	0f8H
	DB	00H
	DB	0f8H
	DB	0fcH
	DB	0f8H
	DB	00H
	DB	0f8H
	DB	0fcH
	DB	0f8H
	DB	00H
	DB	0f8H
	DB	0fcH
	DB	0f8H
	DB	00H
	DB	0f8H
	DB	0fcH
	DB	0f8H
	DB	00H
	DB	0f8H
	DB	0fcH
	DB	0f8H
	DB	00H
	DB	0f8H
	DB	0fcH
	DB	0f8H
	DB	00H
	DB	0f8H
	DB	0fcH
	DB	0f8H
	DB	00H
	DB	0f8H
	DB	0fcH
	DB	0f8H
	DB	00H
	DB	0f8H
	DB	0fcH
	DB	0f8H
	DB	00H
	DB	0f8H
	DB	0fcH
	DB	0f8H
	DB	00H
	DB	0f8H
	DB	0fcH
	DB	0f8H
	DB	00H
	DB	0f8H
	DB	0fcH
	DB	0f8H
	DB	00H
	DB	0f8H
	DB	0fcH
	DB	0f8H
	DB	00H
	DB	0f8H
	DB	0fcH
	DB	0f8H
	DB	00H
	DB	0f8H
	DB	0fcH
	DB	0f8H
	DB	00H
	DB	0f8H
	DB	0fcH
	DB	0f8H
	DB	00H
	DB	0f8H
	DB	0fcH
	DB	0f8H
	DB	00H
	DB	0f8H
	DB	0fcH
	DB	0f8H
	DB	00H
	DB	0f8H
	DB	0fcH
	DB	0f8H
	DB	00H
	DB	0f8H
	DB	0fcH
	DB	0f8H
	DB	00H
	DB	0f8H
	DB	0fcH
	DB	0f8H
	DB	00H
	DB	0f8H
	DB	0fcH
	DB	0f8H
	DB	00H
	DB	0f8H
	DB	0fcH
	DB	0f8H
	DB	00H
	DB	0f8H
	DB	0fcH
	DB	0f8H
	DB	00H
	DB	0f8H
	DB	0fcH
	DB	0f8H
	DB	00H
	DB	0f8H
	DB	0fcH
	DB	0f8H
	DB	00H
	DB	0f8H
	DB	0fcH
	DB	0f8H
	DB	00H
	DB	0f8H
	DB	0fcH
	DB	0f8H
	DB	00H
	DB	0f8H
	DB	0fcH
	DB	0f8H
	DB	00H
	DB	0f8H
	DB	0fcH
	DB	0f8H
	DB	00H
	DB	0f8H
	DB	0fcH
	DB	0f8H
	DB	00H
	DB	0f8H
	DB	0fcH
	DB	0f8H
	DB	00H
	DB	0f8H
	DB	0fcH
	DB	0f8H
	DB	00H
	DB	0f8H
	DB	0fcH
	DB	0f8H
	DB	00H
	DB	0f8H
	DB	0fcH
	DB	0f8H
	DB	00H
	DB	0f8H
	DB	0fcH
	DB	0f8H
	DB	00H
	DB	0f8H
	DB	0fcH
	DB	0f8H
	DB	00H
	DB	0f8H
	DB	0fcH
	DB	0f8H
	DB	00H
	DB	0f8H
	DB	0fcH
	DB	0f8H
	DB	00H
	DB	0f8H
	DB	0fcH
	DB	0f8H
	DB	00H
	DB	0c0H
	DB	0a4H
	DB	058H
	DB	045H
	DB	0c0H
	DB	0a4H
	DB	058H
	DB	06dH
	DB	0c0H
	DB	0a4H
	DB	058H
	DB	069H
	DB	0c0H
	DB	0a0H
	DB	050H
	DB	06dH
	DB	0c0H
	DB	0a0H
	DB	050H
	DB	06dH
	DB	0b8H
	DB	0a0H
	DB	050H
	DB	06dH
	DB	0c0H
	DB	0a0H
	DB	050H
	DB	06dH
	DB	0c0H
	DB	0a0H
	DB	050H
	DB	06dH
	DB	0b8H
	DB	0a0H
	DB	048H
	DB	06dH
	DB	0b8H
	DB	0a0H
	DB	050H
	DB	06dH
	DB	0c0H
	DB	0a0H
	DB	050H
	DB	06dH
	DB	0c0H
	DB	0a0H
	DB	050H
	DB	06dH
	DB	0c0H
	DB	0a4H
	DB	050H
	DB	06dH
	DB	0c0H
	DB	0a4H
	DB	058H
	DB	071H
	DB	0c0H
	DB	0a4H
	DB	058H
	DB	071H
	DB	0c0H
	DB	0a4H
	DB	058H
	DB	06dH
	DB	0c8H
	DB	0a8H
	DB	058H
	DB	071H
	DB	0c8H
	DB	0a8H
	DB	058H
	DB	071H
	DB	0c8H
	DB	0a8H
	DB	058H
	DB	071H
	DB	0c8H
	DB	0a8H
	DB	058H
	DB	071H
	DB	0c0H
	DB	0a4H
	DB	058H
	DB	071H
	DB	0c0H
	DB	0a4H
	DB	050H
	DB	071H
	DB	0c0H
	DB	0a4H
	DB	050H
	DB	071H
	DB	0c0H
	DB	0a0H
	DB	050H
	DB	071H
	DB	0c0H
	DB	0a0H
	DB	050H
	DB	071H
	DB	0c0H
	DB	0a4H
	DB	050H
	DB	075H
	DB	0c0H
	DB	0a4H
	DB	058H
	DB	075H
	DB	0c0H
	DB	0a4H
	DB	050H
	DB	071H
	DB	0c0H
	DB	0a4H
	DB	058H
	DB	075H
	DB	0c0H
	DB	0a8H
	DB	058H
	DB	075H
	DB	0c8H
	DB	0acH
	DB	058H
	DB	075H
	DB	0c8H
	DB	0acH
	DB	058H
	DB	075H
	DB	0c8H
	DB	0acH
	DB	058H
	DB	075H
	DB	0c0H
	DB	0acH
	DB	058H
	DB	075H
	DB	0c8H
	DB	0acH
	DB	060H
	DB	075H
	DB	0c8H
	DB	0acH
	DB	058H
	DB	079H
	DB	0c8H
	DB	0b0H
	DB	058H
	DB	079H
	DB	0c8H
	DB	0b0H
	DB	060H
	DB	075H
	DB	0c8H
	DB	0b0H
	DB	060H
	DB	079H
	DB	0c8H
	DB	0b0H
	DB	060H
	DB	079H
	DB	0c8H
	DB	0b0H
	DB	060H
	DB	079H
	DB	0c8H
	DB	0b0H
	DB	060H
	DB	079H
	DB	0c8H
	DB	0b0H
	DB	060H
	DB	079H
	DB	0c8H
	DB	0b0H
	DB	060H
	DB	079H
	DB	0c8H
	DB	0b0H
	DB	060H
	DB	079H
	DB	0c8H
	DB	0b0H
	DB	068H
	DB	07dH
	DB	0d0H
	DB	0b4H
	DB	068H
	DB	079H
	DB	0d0H
	DB	0bcH
	DB	070H
	DB	07dH
	DB	0d0H
	DB	0b8H
	DB	070H
	DB	07dH
	DB	0c8H
	DB	0b0H
	DB	068H
	DB	07dH
	DB	0d0H
	DB	0b4H
	DB	068H
	DB	07dH
	DB	0d0H
	DB	0b4H
	DB	068H
	DB	07dH
	DB	0d0H
	DB	0b4H
	DB	068H
	DB	07dH
	DB	0d0H
	DB	0b8H
	DB	068H
	DB	07dH
	DB	0d0H
	DB	0b4H
	DB	068H
	DB	07dH
	DB	0d0H
	DB	0b8H
	DB	068H
	DB	082H
	DB	0d0H
	DB	0b8H
	DB	068H
	DB	07dH
	DB	0d0H
	DB	0b8H
	DB	070H
	DB	082H
	DB	0d0H
	DB	0b8H
	DB	068H
	DB	082H
	DB	0d0H
	DB	0b8H
	DB	070H
	DB	082H
	DB	0d0H
	DB	0b8H
	DB	070H
	DB	082H
	DB	0d0H
	DB	0b8H
	DB	070H
	DB	082H
	DB	0d0H
	DB	0bcH
	DB	070H
	DB	082H
	DB	0d0H
	DB	0b8H
	DB	070H
	DB	082H
	DB	0d0H
	DB	0bcH
	DB	070H
	DB	082H
	DB	0d0H
	DB	0b8H
	DB	070H
	DB	082H
	DB	0d0H
	DB	0bcH
	DB	070H
	DB	082H
	DB	0d0H
	DB	0bcH
	DB	070H
	DB	086H
	DB	0d0H
	DB	0bcH
	DB	070H
	DB	082H
	DB	0d8H
	DB	0c0H
	DB	080H
	DB	086H
	DB	0d0H
	DB	0c0H
	DB	080H
	DB	086H
	DB	0e8H
	DB	0d4H
	DB	098H
	DB	086H
	DB	0e0H
	DB	0ccH
	DB	090H
	DB	086H
	DB	0d8H
	DB	0c4H
	DB	080H
	DB	086H
	DB	0d8H
	DB	0c0H
	DB	078H
	DB	086H
	DB	0d8H
	DB	0c4H
	DB	080H
	DB	086H
	DB	0d8H
	DB	0c4H
	DB	080H
	DB	086H
	DB	0d8H
	DB	0c4H
	DB	080H
	DB	08aH
	DB	0d8H
	DB	0c4H
	DB	080H
	DB	086H
	DB	0d8H
	DB	0c8H
	DB	088H
	DB	08aH
	DB	0d8H
	DB	0c4H
	DB	088H
	DB	08aH
	DB	0e0H
	DB	0c4H
	DB	088H
	DB	08aH
	DB	0d8H
	DB	0c8H
	DB	088H
	DB	08aH
	DB	0d8H
	DB	0c8H
	DB	088H
	DB	08aH
	DB	0e0H
	DB	0c8H
	DB	088H
	DB	08aH
	DB	0d8H
	DB	0c8H
	DB	088H
	DB	08aH
	DB	0e0H
	DB	0c8H
	DB	088H
	DB	08aH
	DB	0e0H
	DB	0c8H
	DB	090H
	DB	08eH
	DB	0d8H
	DB	0c8H
	DB	090H
	DB	08aH
	DB	0e0H
	DB	0c8H
	DB	090H
	DB	08aH
	DB	0e0H
	DB	0c8H
	DB	088H
	DB	08eH
	DB	0d8H
	DB	0c8H
	DB	088H
	DB	08eH
	DB	0d8H
	DB	0c8H
	DB	088H
	DB	08eH
	DB	0d8H
	DB	0c8H
	DB	088H
	DB	08eH
	DB	0d8H
	DB	0c8H
	DB	088H
	DB	08eH
	DB	0d8H
	DB	0c4H
	DB	088H
	DB	08eH
	DB	0d8H
	DB	0c8H
	DB	088H
	DB	08eH
	DB	0d8H
	DB	0c4H
	DB	080H
	DB	08eH
	DB	0d8H
	DB	0c0H
	DB	080H
	DB	08eH
	DB	0d0H
	DB	0c0H
	DB	078H
	DB	08eH
	DB	0d0H
	DB	0bcH
	DB	070H
	DB	08eH
	DB	0d0H
	DB	0c0H
	DB	070H
	DB	08eH
	DB	0d0H
	DB	0bcH
	DB	070H
	DB	08eH
	DB	0d0H
	DB	0bcH
	DB	070H
	DB	08eH
	DB	0d0H
	DB	0bcH
	DB	070H
	DB	092H
	DB	0d8H
	DB	0c4H
	DB	080H
	DB	08eH
	DB	0d8H
	DB	0c4H
	DB	088H
	DB	08eH
	DB	0d8H
	DB	0c4H
	DB	080H
	DB	092H
	DB	0d0H
	DB	0bcH
	DB	078H
	DB	08eH
	DB	0c8H
	DB	0b8H
	DB	070H
	DB	08eH
	DB	0d8H
	DB	0c4H
	DB	080H
	DB	08eH
	DB	0d8H
	DB	0c4H
	DB	080H
	DB	092H
	DB	0d8H
	DB	0c4H
	DB	080H
	DB	08eH
	DB	0d8H
	DB	0c4H
	DB	080H
	DB	092H
	DB	0d8H
	DB	0c4H
	DB	080H
	DB	08eH
	DB	0d8H
	DB	0c4H
	DB	080H
	DB	092H
	DB	0d0H
	DB	0bcH
	DB	078H
	DB	08eH
	DB	0d8H
	DB	0c8H
	DB	088H
	DB	08eH
	DB	0d8H
	DB	0c8H
	DB	088H
	DB	08eH
	DB	0d8H
	DB	0c0H
	DB	078H
	DB	08eH
	DB	0d8H
	DB	0c4H
	DB	078H
	DB	08eH
	DB	0d8H
	DB	0c4H
	DB	080H
	DB	092H
	DB	0d8H
	DB	0c8H
	DB	088H
	DB	08eH
	DB	0d8H
	DB	0c4H
	DB	080H
	DB	08eH
	DB	0e0H
	DB	0c8H
	DB	090H
	DB	092H
	DB	0d8H
	DB	0c4H
	DB	080H
	DB	08eH
	DB	0d0H
	DB	0c0H
	DB	080H
	DB	08eH
	DB	0d8H
	DB	0c4H
	DB	078H
	DB	08eH
	DB	0d8H
	DB	0c0H
	DB	078H
	DB	092H
	DB	0d0H
	DB	0c0H
	DB	078H
	DB	08eH
	DB	0d8H
	DB	0c4H
	DB	080H
	DB	08eH
	DB	0d8H
	DB	0c0H
	DB	070H
	DB	08eH
	DB	0c8H
	DB	0b8H
	DB	068H
	DB	092H
	DB	0d0H
	DB	0b8H
	DB	070H
	DB	08eH
	DB	0d8H
	DB	0c0H
	DB	070H
	DB	08eH
	DB	0d0H
	DB	0c0H
	DB	070H
	DB	08eH
	DB	0d0H
	DB	0bcH
	DB	070H
	DB	08eH
	DB	0d8H
	DB	0c0H
	DB	070H
	DB	08eH
	DB	0d0H
	DB	0bcH
	DB	070H
	DB	08eH
	DB	0d0H
	DB	0b8H
	DB	068H
	DB	08eH
	DB	0c8H
	DB	0b4H
	DB	060H
	DB	08eH
	DB	0c8H
	DB	0b4H
	DB	068H
	DB	08eH
	DB	0d8H
	DB	0bcH
	DB	070H
	DB	08eH
	DB	0d8H
	DB	0c4H
	DB	078H
	DB	08eH
	DB	0d8H
	DB	0c0H
	DB	070H
	DB	08eH
	DB	0d0H
	DB	0bcH
	DB	068H
	DB	08eH
	DB	0c8H
	DB	0b4H
	DB	060H
	DB	08aH
	DB	0c8H
	DB	0b0H
	DB	060H
	DB	065H
	DB	0c8H
	DB	0b0H
	DB	068H
	DB	014H
	DB	0f8H
	DB	0fcH
	DB	0f8H
	DB	00H
	DB	0f8H
	DB	0fcH
	DB	0f8H
	DB	00H
	DB	0f8H
	DB	0fcH
	DB	0f8H
	DB	00H
	DB	0f8H
	DB	0fcH
	DB	0f8H
	DB	00H
	DB	0f8H
	DB	0fcH
	DB	0f8H
	DB	00H
	DB	0f8H
	DB	0fcH
	DB	0f8H
	DB	00H
	DB	0f8H
	DB	0fcH
	DB	0f8H
	DB	00H
	DB	0f8H
	DB	0fcH
	DB	0f8H
	DB	00H
	DB	0f8H
	DB	0fcH
	DB	0f8H
	DB	00H
	DB	0f8H
	DB	0fcH
	DB	0f8H
	DB	00H
	DB	0f8H
	DB	0fcH
	DB	0f8H
	DB	00H
	DB	0f8H
	DB	0fcH
	DB	0f8H
	DB	00H
	DB	0f8H
	DB	0fcH
	DB	0f8H
	DB	00H
	DB	0f8H
	DB	0fcH
	DB	0f8H
	DB	00H
	DB	0f8H
	DB	0fcH
	DB	0f8H
	DB	00H
	DB	0f8H
	DB	0fcH
	DB	0f8H
	DB	00H
	DB	0f8H
	DB	0fcH
	DB	0f8H
	DB	00H
	DB	0f8H
	DB	0fcH
	DB	0f8H
	DB	00H
	DB	0f8H
	DB	0fcH
	DB	0f8H
	DB	00H
	DB	0f8H
	DB	0fcH
	DB	0f8H
	DB	00H
	DB	0f8H
	DB	0fcH
	DB	0f8H
	DB	00H
	DB	0f8H
	DB	0fcH
	DB	0f8H
	DB	00H
	DB	0f8H
	DB	0fcH
	DB	0f8H
	DB	00H
	DB	0f8H
	DB	0fcH
	DB	0f8H
	DB	00H
	DB	0f8H
	DB	0fcH
	DB	0f8H
	DB	00H
	DB	0f8H
	DB	0fcH
	DB	0f8H
	DB	00H
	DB	0f8H
	DB	0fcH
	DB	0f8H
	DB	00H
	DB	0f8H
	DB	0fcH
	DB	0f8H
	DB	00H
	DB	0f8H
	DB	0fcH
	DB	0f8H
	DB	00H
	DB	0f8H
	DB	0fcH
	DB	0f8H
	DB	00H
	DB	0f8H
	DB	0fcH
	DB	0f8H
	DB	00H
	DB	0f8H
	DB	0fcH
	DB	0f8H
	DB	00H
	DB	0f8H
	DB	0fcH
	DB	0f8H
	DB	00H
	DB	0f8H
	DB	0fcH
	DB	0f8H
	DB	00H
	DB	0f8H
	DB	0fcH
	DB	0f8H
	DB	00H
	DB	0f8H
	DB	0fcH
	DB	0f8H
	DB	00H
	DB	0f8H
	DB	0fcH
	DB	0f8H
	DB	00H
	DB	0f8H
	DB	0fcH
	DB	0f8H
	DB	00H
	DB	0f8H
	DB	0fcH
	DB	0f8H
	DB	00H
	DB	0f8H
	DB	0fcH
	DB	0f8H
	DB	00H
	DB	0f8H
	DB	0fcH
	DB	0f8H
	DB	00H
	DB	0f8H
	DB	0fcH
	DB	0f8H
	DB	00H
	DB	0f8H
	DB	0fcH
	DB	0f8H
	DB	00H
	DB	0f8H
	DB	0fcH
	DB	0f8H
	DB	00H
	DB	0f8H
	DB	0fcH
	DB	0f8H
	DB	00H
	DB	0f8H
	DB	0fcH
	DB	0f8H
	DB	00H
	DB	0f8H
	DB	0fcH
	DB	0f8H
	DB	00H
	DB	0f8H
	DB	0fcH
	DB	0f8H
	DB	00H
	DB	0f8H
	DB	0fcH
	DB	0f8H
	DB	00H
	DB	0f8H
	DB	0fcH
	DB	0f8H
	DB	00H
	DB	0f8H
	DB	0fcH
	DB	0f8H
	DB	00H
	DB	0f8H
	DB	0fcH
	DB	0f8H
	DB	00H
	DB	0f8H
	DB	0fcH
	DB	0f8H
	DB	00H
	DB	0f8H
	DB	0fcH
	DB	0f8H
	DB	00H
	DB	0f8H
	DB	0fcH
	DB	0f8H
	DB	00H
	DB	0f8H
	DB	0fcH
	DB	0f8H
	DB	00H
	DB	0f8H
	DB	0fcH
	DB	0f8H
	DB	00H
	DB	0f8H
	DB	0fcH
	DB	0f8H
	DB	00H
	DB	0f8H
	DB	0fcH
	DB	0f8H
	DB	00H
	DB	0f8H
	DB	0fcH
	DB	0f8H
	DB	00H
	DB	0f8H
	DB	0fcH
	DB	0f8H
	DB	00H
	DB	0f8H
	DB	0fcH
	DB	0f8H
	DB	00H
	DB	0f8H
	DB	0fcH
	DB	0f8H
	DB	00H
	DB	0f8H
	DB	0fcH
	DB	0f8H
	DB	00H
	DB	0f8H
	DB	0fcH
	DB	0f8H
	DB	00H
	DB	0f8H
	DB	0fcH
	DB	0f8H
	DB	00H
	DB	0f8H
	DB	0fcH
	DB	0f8H
	DB	00H
	DB	0f8H
	DB	0fcH
	DB	0f8H
	DB	00H
	DB	0f8H
	DB	0fcH
	DB	0f8H
	DB	00H
	DB	0f8H
	DB	0fcH
	DB	0f8H
	DB	00H
	DB	0f8H
	DB	0fcH
	DB	0f8H
	DB	00H
	DB	0f8H
	DB	0fcH
	DB	0f8H
	DB	00H
	DB	0f8H
	DB	0fcH
	DB	0f8H
	DB	00H
	DB	0f8H
	DB	0fcH
	DB	0f8H
	DB	00H
	DB	0f8H
	DB	0fcH
	DB	0f8H
	DB	00H
	DB	0f8H
	DB	0fcH
	DB	0f8H
	DB	00H
	DB	0f8H
	DB	0fcH
	DB	0f8H
	DB	00H
	DB	0f8H
	DB	0fcH
	DB	0f8H
	DB	00H
	DB	0f8H
	DB	0fcH
	DB	0f8H
	DB	00H
	DB	0f8H
	DB	0fcH
	DB	0f8H
	DB	00H
	DB	0f8H
	DB	0fcH
	DB	0f8H
	DB	00H
	DB	0f8H
	DB	0fcH
	DB	0f8H
	DB	00H
	DB	0f8H
	DB	0fcH
	DB	0f8H
	DB	00H
	DB	0f8H
	DB	0fcH
	DB	0f8H
	DB	00H
	DB	0f8H
	DB	0fcH
	DB	0f8H
	DB	00H
	DB	0f8H
	DB	0fcH
	DB	0f8H
	DB	00H
	DB	0f8H
	DB	0fcH
	DB	0f8H
	DB	00H
	DB	0f8H
	DB	0fcH
	DB	0f8H
	DB	00H
	DB	0f8H
	DB	0fcH
	DB	0f8H
	DB	00H
	DB	0f8H
	DB	0fcH
	DB	0f8H
	DB	00H
	DB	0f8H
	DB	0fcH
	DB	0f8H
	DB	00H
	DB	0f8H
	DB	0fcH
	DB	0f8H
	DB	00H
	DB	0f8H
	DB	0fcH
	DB	0f8H
	DB	00H
	DB	0f8H
	DB	0fcH
	DB	0f8H
	DB	00H
	DB	0f8H
	DB	0fcH
	DB	0f8H
	DB	00H
	DB	0f8H
	DB	0fcH
	DB	0f8H
	DB	00H
	DB	0f8H
	DB	0fcH
	DB	0f8H
	DB	00H
	DB	0f8H
	DB	0fcH
	DB	0f8H
	DB	00H
	DB	0f8H
	DB	0fcH
	DB	0f8H
	DB	00H
	DB	0f8H
	DB	0fcH
	DB	0f8H
	DB	00H
	DB	0f8H
	DB	0fcH
	DB	0f8H
	DB	00H
	DB	0f8H
	DB	0fcH
	DB	0f8H
	DB	00H
	DB	0f8H
	DB	0fcH
	DB	0f8H
	DB	00H
	DB	0f8H
	DB	0fcH
	DB	0f8H
	DB	00H
	DB	0f8H
	DB	0fcH
	DB	0f8H
	DB	00H
	DB	0f8H
	DB	0fcH
	DB	0f8H
	DB	00H
	DB	0f8H
	DB	0fcH
	DB	0f8H
	DB	00H
	DB	0f8H
	DB	0fcH
	DB	0f8H
	DB	00H
	DB	0f8H
	DB	0fcH
	DB	0f8H
	DB	00H
	DB	0f8H
	DB	0fcH
	DB	0f8H
	DB	00H
	DB	0f8H
	DB	0fcH
	DB	0f8H
	DB	00H
	DB	0f8H
	DB	0fcH
	DB	0f8H
	DB	00H
	DB	0f8H
	DB	0fcH
	DB	0f8H
	DB	00H
	DB	0f8H
	DB	0fcH
	DB	0f8H
	DB	00H
	DB	0f8H
	DB	0fcH
	DB	0f8H
	DB	00H
	DB	0c8H
	DB	0a4H
	DB	058H
	DB	028H
	DB	0c0H
	DB	0a0H
	DB	048H
	DB	069H
	DB	0c0H
	DB	0a4H
	DB	050H
	DB	06dH
	DB	0c0H
	DB	0a4H
	DB	050H
	DB	06dH
	DB	0c0H
	DB	0a0H
	DB	050H
	DB	069H
	DB	0c0H
	DB	0a0H
	DB	050H
	DB	06dH
	DB	0b8H
	DB	0a0H
	DB	050H
	DB	069H
	DB	0c0H
	DB	0a0H
	DB	050H
	DB	06dH
	DB	0c0H
	DB	0a0H
	DB	050H
	DB	06dH
	DB	0b8H
	DB	0a0H
	DB	050H
	DB	06dH
	DB	0c0H
	DB	0a0H
	DB	050H
	DB	06dH
	DB	0c0H
	DB	0a0H
	DB	050H
	DB	06dH
	DB	0c0H
	DB	0a4H
	DB	058H
	DB	06dH
	DB	0c0H
	DB	0a8H
	DB	058H
	DB	06dH
	DB	0c0H
	DB	0a8H
	DB	058H
	DB	06dH
	DB	0c8H
	DB	0a8H
	DB	058H
	DB	071H
	DB	0c8H
	DB	0acH
	DB	058H
	DB	06dH
	DB	0c8H
	DB	0a8H
	DB	058H
	DB	06dH
	DB	0c0H
	DB	0a8H
	DB	060H
	DB	071H
	DB	0c8H
	DB	0acH
	DB	060H
	DB	071H
	DB	0c8H
	DB	0acH
	DB	060H
	DB	071H
	DB	0c8H
	DB	0acH
	DB	060H
	DB	071H
	DB	0c0H
	DB	0a8H
	DB	058H
	DB	071H
	DB	0c0H
	DB	0a8H
	DB	058H
	DB	071H
	DB	0c0H
	DB	0a4H
	DB	058H
	DB	071H
	DB	0c0H
	DB	0a8H
	DB	058H
	DB	071H
	DB	0c0H
	DB	0a8H
	DB	058H
	DB	075H
	DB	0c0H
	DB	0a8H
	DB	058H
	DB	071H
	DB	0c0H
	DB	0a8H
	DB	058H
	DB	071H
	DB	0c0H
	DB	0a8H
	DB	058H
	DB	075H
	DB	0c0H
	DB	0acH
	DB	058H
	DB	075H
	DB	0c8H
	DB	0acH
	DB	060H
	DB	075H
	DB	0c8H
	DB	0acH
	DB	060H
	DB	075H
	DB	0c8H
	DB	0acH
	DB	060H
	DB	075H
	DB	0c8H
	DB	0acH
	DB	060H
	DB	075H
	DB	0c8H
	DB	0acH
	DB	060H
	DB	075H
	DB	0c8H
	DB	0acH
	DB	060H
	DB	075H
	DB	0c8H
	DB	0b0H
	DB	060H
	DB	079H
	DB	0c8H
	DB	0b0H
	DB	060H
	DB	075H
	DB	0c8H
	DB	0b0H
	DB	060H
	DB	079H
	DB	0c8H
	DB	0b0H
	DB	060H
	DB	079H
	DB	0c8H
	DB	0acH
	DB	060H
	DB	079H
	DB	0c8H
	DB	0acH
	DB	060H
	DB	079H
	DB	0c8H
	DB	0acH
	DB	060H
	DB	079H
	DB	0c8H
	DB	0acH
	DB	058H
	DB	079H
	DB	0c8H
	DB	0acH
	DB	060H
	DB	079H
	DB	0c8H
	DB	0acH
	DB	060H
	DB	07dH
	DB	0c8H
	DB	0acH
	DB	060H
	DB	079H
	DB	0c8H
	DB	0b0H
	DB	060H
	DB	079H
	DB	0d0H
	DB	0bcH
	DB	070H
	DB	07dH
	DB	0c8H
	DB	0b4H
	DB	068H
	DB	07dH
	DB	0c8H
	DB	0b4H
	DB	068H
	DB	07dH
	DB	0c8H
	DB	0b0H
	DB	060H
	DB	07dH
	DB	0c8H
	DB	0b4H
	DB	060H
	DB	07dH
	DB	0d0H
	DB	0b4H
	DB	068H
	DB	07dH
	DB	0d0H
	DB	0b4H
	DB	068H
	DB	07dH
	DB	0d0H
	DB	0b8H
	DB	068H
	DB	082H
	DB	0d0H
	DB	0b8H
	DB	070H
	DB	07dH
	DB	0d0H
	DB	0b8H
	DB	070H
	DB	082H
	DB	0d0H
	DB	0bcH
	DB	070H
	DB	07dH
	DB	0d0H
	DB	0bcH
	DB	070H
	DB	07dH
	DB	0d0H
	DB	0bcH
	DB	070H
	DB	082H
	DB	0d8H
	DB	0bcH
	DB	070H
	DB	082H
	DB	0d8H
	DB	0bcH
	DB	070H
	DB	082H
	DB	0d0H
	DB	0bcH
	DB	070H
	DB	082H
	DB	0d8H
	DB	0bcH
	DB	070H
	DB	082H
	DB	0d0H
	DB	0bcH
	DB	070H
	DB	082H
	DB	0d0H
	DB	0bcH
	DB	070H
	DB	082H
	DB	0d8H
	DB	0bcH
	DB	070H
	DB	086H
	DB	0d8H
	DB	0c0H
	DB	078H
	DB	086H
	DB	0d0H
	DB	0bcH
	DB	078H
	DB	082H
	DB	0d8H
	DB	0c0H
	DB	080H
	DB	086H
	DB	0e0H
	DB	0d0H
	DB	098H
	DB	086H
	DB	0e8H
	DB	0d4H
	DB	098H
	DB	086H
	DB	0d8H
	DB	0c4H
	DB	088H
	DB	086H
	DB	0d0H
	DB	0c0H
	DB	078H
	DB	086H
	DB	0d8H
	DB	0c0H
	DB	080H
	DB	086H
	DB	0d8H
	DB	0c4H
	DB	080H
	DB	086H
	DB	0d8H
	DB	0c8H
	DB	088H
	DB	08aH
	DB	0d8H
	DB	0c8H
	DB	080H
	DB	08aH
	DB	0d8H
	DB	0c4H
	DB	088H
	DB	086H
	DB	0d8H
	DB	0c8H
	DB	088H
	DB	08aH
	DB	0d8H
	DB	0c8H
	DB	088H
	DB	08aH
	DB	0e0H
	DB	0c8H
	DB	088H
	DB	08aH
	DB	0e0H
	DB	0c8H
	DB	088H
	DB	08aH
	DB	0d8H
	DB	0c8H
	DB	088H
	DB	08aH
	DB	0e0H
	DB	0c8H
	DB	088H
	DB	08aH
	DB	0d8H
	DB	0c8H
	DB	090H
	DB	08aH
	DB	0e0H
	DB	0c8H
	DB	088H
	DB	08aH
	DB	0e0H
	DB	0ccH
	DB	090H
	DB	08eH
	DB	0e0H
	DB	0ccH
	DB	090H
	DB	08eH
	DB	0e0H
	DB	0ccH
	DB	098H
	DB	08aH
	DB	0d8H
	DB	0c8H
	DB	088H
	DB	08eH
	DB	0d8H
	DB	0c4H
	DB	080H
	DB	08eH
	DB	0e0H
	DB	0c8H
	DB	088H
	DB	08eH
	DB	0e0H
	DB	0c8H
	DB	088H
	DB	08eH
	DB	0d8H
	DB	0c8H
	DB	088H
	DB	08eH
	DB	0d8H
	DB	0c8H
	DB	088H
	DB	08eH
	DB	0d8H
	DB	0c4H
	DB	088H
	DB	08eH
	DB	0d8H
	DB	0c4H
	DB	080H
	DB	08eH
	DB	0d8H
	DB	0c0H
	DB	078H
	DB	08eH
	DB	0d0H
	DB	0c0H
	DB	078H
	DB	08eH
	DB	0d0H
	DB	0bcH
	DB	070H
	DB	08eH
	DB	0d0H
	DB	0b8H
	DB	070H
	DB	08eH
	DB	0d0H
	DB	0b8H
	DB	070H
	DB	08eH
	DB	0c8H
	DB	0b8H
	DB	068H
	DB	08eH
	DB	0d0H
	DB	0b8H
	DB	070H
	DB	08eH
	DB	0d8H
	DB	0c4H
	DB	088H
	DB	08eH
	DB	0d8H
	DB	0c8H
	DB	088H
	DB	092H
	DB	0d0H
	DB	0c0H
	DB	078H
	DB	08eH
	DB	0d8H
	DB	0c0H
	DB	080H
	DB	08eH
	DB	0d8H
	DB	0c8H
	DB	088H
	DB	092H
	DB	0d8H
	DB	0c4H
	DB	080H
	DB	08eH
	DB	0d8H
	DB	0c4H
	DB	080H
	DB	08eH
	DB	0d8H
	DB	0c4H
	DB	080H
	DB	08eH
	DB	0d8H
	DB	0c8H
	DB	088H
	DB	08eH
	DB	0d8H
	DB	0c4H
	DB	080H
	DB	092H
	DB	0d0H
	DB	0c0H
	DB	080H
	DB	08eH
	DB	0e0H
	DB	0c8H
	DB	088H
	DB	092H
	DB	0d8H
	DB	0c8H
	DB	080H
	DB	092H
	DB	0d8H
	DB	0c4H
	DB	080H
	DB	08eH
	DB	0d8H
	DB	0c4H
	DB	080H
	DB	08eH
	DB	0d8H
	DB	0c8H
	DB	080H
	DB	092H
	DB	0d8H
	DB	0c4H
	DB	088H
	DB	08eH
	DB	0d8H
	DB	0c4H
	DB	080H
	DB	08eH
	DB	0e0H
	DB	0ccH
	DB	098H
	DB	092H
	DB	0e0H
	DB	0ccH
	DB	098H
	DB	08eH
	DB	0d8H
	DB	0c4H
	DB	080H
	DB	08eH
	DB	0d8H
	DB	0c4H
	DB	080H
	DB	092H
	DB	0d0H
	DB	0c0H
	DB	078H
	DB	08eH
	DB	0d8H
	DB	0c0H
	DB	078H
	DB	08eH
	DB	0d0H
	DB	0bcH
	DB	070H
	DB	08eH
	DB	0d0H
	DB	0c0H
	DB	078H
	DB	08eH
	DB	0d8H
	DB	0c8H
	DB	090H
	DB	08eH
	DB	0d8H
	DB	0c0H
	DB	080H
	DB	092H
	DB	0d0H
	DB	0c0H
	DB	070H
	DB	08eH
	DB	0d0H
	DB	0c0H
	DB	070H
	DB	08eH
	DB	0d8H
	DB	0c0H
	DB	070H
	DB	08eH
	DB	0d0H
	DB	0bcH
	DB	070H
	DB	08eH
	DB	0d8H
	DB	0c0H
	DB	078H
	DB	08eH
	DB	0d0H
	DB	0bcH
	DB	068H
	DB	08eH
	DB	0c8H
	DB	0b4H
	DB	068H
	DB	08eH
	DB	0d0H
	DB	0b8H
	DB	068H
	DB	08eH
	DB	0d8H
	DB	0bcH
	DB	078H
	DB	08eH
	DB	0d8H
	DB	0c0H
	DB	078H
	DB	08eH
	DB	0d8H
	DB	0c0H
	DB	078H
	DB	08aH
	DB	0d0H
	DB	0b8H
	DB	068H
	DB	08eH
	DB	0d0H
	DB	0b8H
	DB	060H
	DB	08eH
	DB	0c8H
	DB	0b0H
	DB	060H
	DB	08eH
	DB	0c8H
	DB	0b4H
	DB	068H
	DB	08aH
	DB	0d0H
	DB	0b8H
	DB	070H
	DB	065H
	DB	0d0H
	DB	0b4H
	DB	078H
	DB	014H
	DB	0f8H
	DB	0fcH
	DB	0f8H
	DB	00H
	DB	0f8H
	DB	0fcH
	DB	0f8H
	DB	00H
	DB	0f8H
	DB	0fcH
	DB	0f8H
	DB	00H
	DB	0f8H
	DB	0fcH
	DB	0f8H
	DB	00H
	DB	0f8H
	DB	0fcH
	DB	0f8H
	DB	00H
	DB	0f8H
	DB	0fcH
	DB	0f8H
	DB	00H
	DB	0f8H
	DB	0fcH
	DB	0f8H
	DB	00H
	DB	0f8H
	DB	0fcH
	DB	0f8H
	DB	00H
	DB	0f8H
	DB	0fcH
	DB	0f8H
	DB	00H
	DB	0f8H
	DB	0fcH
	DB	0f8H
	DB	00H
	DB	0f8H
	DB	0fcH
	DB	0f8H
	DB	00H
	DB	0f8H
	DB	0fcH
	DB	0f8H
	DB	00H
	DB	0f8H
	DB	0fcH
	DB	0f8H
	DB	00H
	DB	0f8H
	DB	0fcH
	DB	0f8H
	DB	00H
	DB	0f8H
	DB	0fcH
	DB	0f8H
	DB	00H
	DB	0f8H
	DB	0fcH
	DB	0f8H
	DB	00H
	DB	0f8H
	DB	0fcH
	DB	0f8H
	DB	00H
	DB	0f8H
	DB	0fcH
	DB	0f8H
	DB	00H
	DB	0f8H
	DB	0fcH
	DB	0f8H
	DB	00H
	DB	0f8H
	DB	0fcH
	DB	0f8H
	DB	00H
	DB	0f8H
	DB	0fcH
	DB	0f8H
	DB	00H
	DB	0f8H
	DB	0fcH
	DB	0f8H
	DB	00H
	DB	0f8H
	DB	0fcH
	DB	0f8H
	DB	00H
	DB	0f8H
	DB	0fcH
	DB	0f8H
	DB	00H
	DB	0f8H
	DB	0fcH
	DB	0f8H
	DB	00H
	DB	0f8H
	DB	0fcH
	DB	0f8H
	DB	00H
	DB	0f8H
	DB	0fcH
	DB	0f8H
	DB	00H
	DB	0f8H
	DB	0fcH
	DB	0f8H
	DB	00H
	DB	0f8H
	DB	0fcH
	DB	0f8H
	DB	00H
	DB	0f8H
	DB	0fcH
	DB	0f8H
	DB	00H
	DB	0f8H
	DB	0fcH
	DB	0f8H
	DB	00H
	DB	0f8H
	DB	0fcH
	DB	0f8H
	DB	00H
	DB	0f8H
	DB	0fcH
	DB	0f8H
	DB	00H
	DB	0f8H
	DB	0fcH
	DB	0f8H
	DB	00H
	DB	0f8H
	DB	0fcH
	DB	0f8H
	DB	00H
	DB	0f8H
	DB	0fcH
	DB	0f8H
	DB	00H
	DB	0f8H
	DB	0fcH
	DB	0f8H
	DB	00H
	DB	0f8H
	DB	0fcH
	DB	0f8H
	DB	00H
	DB	0f8H
	DB	0fcH
	DB	0f8H
	DB	00H
	DB	0f8H
	DB	0fcH
	DB	0f8H
	DB	00H
	DB	0f8H
	DB	0fcH
	DB	0f8H
	DB	00H
	DB	0f8H
	DB	0fcH
	DB	0f8H
	DB	00H
	DB	0f8H
	DB	0fcH
	DB	0f8H
	DB	00H
	DB	0f8H
	DB	0fcH
	DB	0f8H
	DB	00H
	DB	0f8H
	DB	0fcH
	DB	0f8H
	DB	00H
	DB	0f8H
	DB	0fcH
	DB	0f8H
	DB	00H
	DB	0f8H
	DB	0fcH
	DB	0f8H
	DB	00H
	DB	0f8H
	DB	0fcH
	DB	0f8H
	DB	00H
	DB	0f8H
	DB	0fcH
	DB	0f8H
	DB	00H
	DB	0f8H
	DB	0fcH
	DB	0f8H
	DB	00H
	DB	0f8H
	DB	0fcH
	DB	0f8H
	DB	00H
	DB	0f8H
	DB	0fcH
	DB	0f8H
	DB	00H
	DB	0f8H
	DB	0fcH
	DB	0f8H
	DB	00H
	DB	0f8H
	DB	0fcH
	DB	0f8H
	DB	00H
	DB	0f8H
	DB	0fcH
	DB	0f8H
	DB	00H
	DB	0f8H
	DB	0fcH
	DB	0f8H
	DB	00H
	DB	0f8H
	DB	0fcH
	DB	0f8H
	DB	00H
	DB	0f8H
	DB	0fcH
	DB	0f8H
	DB	00H
	DB	0f8H
	DB	0fcH
	DB	0f8H
	DB	00H
	DB	0f8H
	DB	0fcH
	DB	0f8H
	DB	00H
	DB	0f8H
	DB	0fcH
	DB	0f8H
	DB	00H
	DB	0f8H
	DB	0fcH
	DB	0f8H
	DB	00H
	DB	0f8H
	DB	0fcH
	DB	0f8H
	DB	00H
	DB	0f8H
	DB	0fcH
	DB	0f8H
	DB	00H
	DB	0f8H
	DB	0fcH
	DB	0f8H
	DB	00H
	DB	0f8H
	DB	0fcH
	DB	0f8H
	DB	00H
	DB	0f8H
	DB	0fcH
	DB	0f8H
	DB	00H
	DB	0f8H
	DB	0fcH
	DB	0f8H
	DB	00H
	DB	0f8H
	DB	0fcH
	DB	0f8H
	DB	00H
	DB	0f8H
	DB	0fcH
	DB	0f8H
	DB	00H
	DB	0f8H
	DB	0fcH
	DB	0f8H
	DB	00H
	DB	0f8H
	DB	0fcH
	DB	0f8H
	DB	00H
	DB	0f8H
	DB	0fcH
	DB	0f8H
	DB	00H
	DB	0f8H
	DB	0fcH
	DB	0f8H
	DB	00H
	DB	0f8H
	DB	0fcH
	DB	0f8H
	DB	00H
	DB	0f8H
	DB	0fcH
	DB	0f8H
	DB	00H
	DB	0f8H
	DB	0fcH
	DB	0f8H
	DB	00H
	DB	0f8H
	DB	0fcH
	DB	0f8H
	DB	00H
	DB	0f8H
	DB	0fcH
	DB	0f8H
	DB	00H
	DB	0f8H
	DB	0fcH
	DB	0f8H
	DB	00H
	DB	0f8H
	DB	0fcH
	DB	0f8H
	DB	00H
	DB	0f8H
	DB	0fcH
	DB	0f8H
	DB	00H
	DB	0f8H
	DB	0fcH
	DB	0f8H
	DB	00H
	DB	0f8H
	DB	0fcH
	DB	0f8H
	DB	00H
	DB	0f8H
	DB	0fcH
	DB	0f8H
	DB	00H
	DB	0f8H
	DB	0fcH
	DB	0f8H
	DB	00H
	DB	0f8H
	DB	0fcH
	DB	0f8H
	DB	00H
	DB	0f8H
	DB	0fcH
	DB	0f8H
	DB	00H
	DB	0f8H
	DB	0fcH
	DB	0f8H
	DB	00H
	DB	0f8H
	DB	0fcH
	DB	0f8H
	DB	00H
	DB	0f8H
	DB	0fcH
	DB	0f8H
	DB	00H
	DB	0f8H
	DB	0fcH
	DB	0f8H
	DB	00H
	DB	0f8H
	DB	0fcH
	DB	0f8H
	DB	00H
	DB	0f8H
	DB	0fcH
	DB	0f8H
	DB	00H
	DB	0f8H
	DB	0fcH
	DB	0f8H
	DB	00H
	DB	0f8H
	DB	0fcH
	DB	0f8H
	DB	00H
	DB	0f8H
	DB	0fcH
	DB	0f8H
	DB	00H
	DB	0f8H
	DB	0fcH
	DB	0f8H
	DB	00H
	DB	0f8H
	DB	0fcH
	DB	0f8H
	DB	00H
	DB	0f8H
	DB	0fcH
	DB	0f8H
	DB	00H
	DB	0f8H
	DB	0fcH
	DB	0f8H
	DB	00H
	DB	0f8H
	DB	0fcH
	DB	0f8H
	DB	00H
	DB	0f8H
	DB	0fcH
	DB	0f8H
	DB	00H
	DB	0f8H
	DB	0fcH
	DB	0f8H
	DB	00H
	DB	0f8H
	DB	0fcH
	DB	0f8H
	DB	00H
	DB	0f8H
	DB	0fcH
	DB	0f8H
	DB	00H
	DB	0f8H
	DB	0fcH
	DB	0f8H
	DB	00H
	DB	0f8H
	DB	0fcH
	DB	0f8H
	DB	00H
	DB	0f8H
	DB	0fcH
	DB	0f8H
	DB	00H
	DB	0f8H
	DB	0fcH
	DB	0f8H
	DB	00H
	DB	0f8H
	DB	0fcH
	DB	0f8H
	DB	00H
	DB	0f8H
	DB	0fcH
	DB	0f8H
	DB	00H
	DB	0c8H
	DB	0a4H
	DB	058H
	DB	0cH
	DB	0c8H
	DB	0a0H
	DB	040H
	DB	055H
	DB	0c0H
	DB	09cH
	DB	048H
	DB	06dH
	DB	0c0H
	DB	0a0H
	DB	050H
	DB	069H
	DB	0c0H
	DB	0a0H
	DB	050H
	DB	069H
	DB	0c0H
	DB	0a4H
	DB	050H
	DB	06dH
	DB	0c0H
	DB	0a4H
	DB	050H
	DB	06dH
	DB	0c0H
	DB	0a0H
	DB	050H
	DB	06dH
	DB	0b8H
	DB	0a0H
	DB	050H
	DB	069H
	DB	0b8H
	DB	09cH
	DB	050H
	DB	06dH
	DB	0c0H
	DB	0a0H
	DB	050H
	DB	06dH
	DB	0c0H
	DB	0a0H
	DB	050H
	DB	06dH
	DB	0c0H
	DB	0a4H
	DB	058H
	DB	06dH
	DB	0c0H
	DB	0a8H
	DB	058H
	DB	071H
	DB	0c0H
	DB	0a8H
	DB	058H
	DB	06dH
	DB	0c0H
	DB	0a8H
	DB	058H
	DB	06dH
	DB	0c8H
	DB	0a8H
	DB	060H
	DB	071H
	DB	0c8H
	DB	0acH
	DB	060H
	DB	071H
	DB	0c8H
	DB	0acH
	DB	060H
	DB	06dH
	DB	0c8H
	DB	0acH
	DB	058H
	DB	071H
	DB	0c0H
	DB	0a8H
	DB	058H
	DB	071H
	DB	0c8H
	DB	0acH
	DB	060H
	DB	06dH
	DB	0c8H
	DB	0acH
	DB	058H
	DB	071H
	DB	0c8H
	DB	0acH
	DB	060H
	DB	071H
	DB	0c8H
	DB	0acH
	DB	058H
	DB	071H
	DB	0c0H
	DB	0acH
	DB	058H
	DB	071H
	DB	0c0H
	DB	0a8H
	DB	058H
	DB	071H
	DB	0c0H
	DB	0a8H
	DB	058H
	DB	071H
	DB	0c0H
	DB	0a8H
	DB	058H
	DB	075H
	DB	0c8H
	DB	0a8H
	DB	058H
	DB	071H
	DB	0c8H
	DB	0acH
	DB	058H
	DB	075H
	DB	0c0H
	DB	0a8H
	DB	060H
	DB	075H
	DB	0c0H
	DB	0acH
	DB	060H
	DB	071H
	DB	0c8H
	DB	0acH
	DB	060H
	DB	075H
	DB	0c8H
	DB	0acH
	DB	060H
	DB	075H
	DB	0c8H
	DB	0acH
	DB	060H
	DB	075H
	DB	0c8H
	DB	0acH
	DB	060H
	DB	075H
	DB	0c8H
	DB	0b0H
	DB	060H
	DB	075H
	DB	0c8H
	DB	0b4H
	DB	068H
	DB	079H
	DB	0c8H
	DB	0acH
	DB	060H
	DB	075H
	DB	0c8H
	DB	0acH
	DB	060H
	DB	079H
	DB	0c8H
	DB	0acH
	DB	058H
	DB	075H
	DB	0c8H
	DB	0a8H
	DB	058H
	DB	079H
	DB	0c0H
	DB	0a8H
	DB	060H
	DB	079H
	DB	0c8H
	DB	0acH
	DB	060H
	DB	079H
	DB	0c8H
	DB	0acH
	DB	058H
	DB	079H
	DB	0c0H
	DB	0acH
	DB	058H
	DB	079H
	DB	0c0H
	DB	0acH
	DB	058H
	DB	079H
	DB	0c8H
	DB	0acH
	DB	060H
	DB	07dH
	DB	0c8H
	DB	0b0H
	DB	060H
	DB	079H
	DB	0c8H
	DB	0b0H
	DB	060H
	DB	07dH
	DB	0c8H
	DB	0b0H
	DB	060H
	DB	07dH
	DB	0c8H
	DB	0b0H
	DB	060H
	DB	07dH
	DB	0c8H
	DB	0b4H
	DB	060H
	DB	07dH
	DB	0d0H
	DB	0b4H
	DB	068H
	DB	07dH
	DB	0d0H
	DB	0b8H
	DB	068H
	DB	07dH
	DB	0d0H
	DB	0b8H
	DB	068H
	DB	07dH
	DB	0d0H
	DB	0b8H
	DB	068H
	DB	082H
	DB	0d0H
	DB	0b8H
	DB	068H
	DB	07dH
	DB	0d0H
	DB	0b8H
	DB	068H
	DB	07dH
	DB	0d0H
	DB	0b8H
	DB	070H
	DB	082H
	DB	0d0H
	DB	0b8H
	DB	068H
	DB	07dH
	DB	0d0H
	DB	0b8H
	DB	068H
	DB	082H
	DB	0d0H
	DB	0bcH
	DB	070H
	DB	082H
	DB	0d0H
	DB	0bcH
	DB	070H
	DB	082H
	DB	0d0H
	DB	0bcH
	DB	070H
	DB	082H
	DB	0d0H
	DB	0bcH
	DB	070H
	DB	082H
	DB	0d8H
	DB	0bcH
	DB	070H
	DB	082H
	DB	0d0H
	DB	0bcH
	DB	070H
	DB	082H
	DB	0d0H
	DB	0bcH
	DB	070H
	DB	086H
	DB	0d0H
	DB	0bcH
	DB	070H
	DB	082H
	DB	0d0H
	DB	0bcH
	DB	078H
	DB	082H
	DB	0d8H
	DB	0c8H
	DB	088H
	DB	086H
	DB	0d8H
	DB	0c8H
	DB	090H
	DB	086H
	DB	0e0H
	DB	0ccH
	DB	098H
	DB	086H
	DB	0d8H
	DB	0c8H
	DB	090H
	DB	086H
	DB	0d8H
	DB	0c4H
	DB	080H
	DB	086H
	DB	0d0H
	DB	0c0H
	DB	080H
	DB	08aH
	DB	0d8H
	DB	0c4H
	DB	080H
	DB	086H
	DB	0d8H
	DB	0c8H
	DB	088H
	DB	086H
	DB	0d8H
	DB	0c4H
	DB	088H
	DB	08aH
	DB	0d8H
	DB	0c4H
	DB	088H
	DB	086H
	DB	0e0H
	DB	0c8H
	DB	088H
	DB	08aH
	DB	0d8H
	DB	0c8H
	DB	088H
	DB	08aH
	DB	0e0H
	DB	0c8H
	DB	088H
	DB	08aH
	DB	0d8H
	DB	0c8H
	DB	088H
	DB	08aH
	DB	0e0H
	DB	0c8H
	DB	088H
	DB	08aH
	DB	0d8H
	DB	0c8H
	DB	090H
	DB	08aH
	DB	0d8H
	DB	0c8H
	DB	088H
	DB	08eH
	DB	0d8H
	DB	0c8H
	DB	088H
	DB	08aH
	DB	0d8H
	DB	0c8H
	DB	088H
	DB	08aH
	DB	0e0H
	DB	0ccH
	DB	090H
	DB	08eH
	DB	0e0H
	DB	0ccH
	DB	090H
	DB	08aH
	DB	0d8H
	DB	0c8H
	DB	090H
	DB	08eH
	DB	0e0H
	DB	0ccH
	DB	098H
	DB	08aH
	DB	0d8H
	DB	0c8H
	DB	090H
	DB	08eH
	DB	0e0H
	DB	0c8H
	DB	088H
	DB	08eH
	DB	0e0H
	DB	0c8H
	DB	088H
	DB	08eH
	DB	0d8H
	DB	0c8H
	DB	088H
	DB	08eH
	DB	0e0H
	DB	0c8H
	DB	088H
	DB	08eH
	DB	0d8H
	DB	0c8H
	DB	088H
	DB	08eH
	DB	0d8H
	DB	0c4H
	DB	080H
	DB	08eH
	DB	0d8H
	DB	0c4H
	DB	078H
	DB	08eH
	DB	0d0H
	DB	0bcH
	DB	078H
	DB	08eH
	DB	0d0H
	DB	0bcH
	DB	070H
	DB	08eH
	DB	0d0H
	DB	0bcH
	DB	070H
	DB	08eH
	DB	0d0H
	DB	0c0H
	DB	078H
	DB	08eH
	DB	0d0H
	DB	0c0H
	DB	070H
	DB	08eH
	DB	0d8H
	DB	0c0H
	DB	078H
	DB	08eH
	DB	0d8H
	DB	0c8H
	DB	090H
	DB	08eH
	DB	0d8H
	DB	0c4H
	DB	088H
	DB	08eH
	DB	0d8H
	DB	0c4H
	DB	080H
	DB	08eH
	DB	0e0H
	DB	0c8H
	DB	088H
	DB	08eH
	DB	0d8H
	DB	0c8H
	DB	088H
	DB	08eH
	DB	0d8H
	DB	0c8H
	DB	088H
	DB	092H
	DB	0d8H
	DB	0c8H
	DB	080H
	DB	08eH
	DB	0d8H
	DB	0c4H
	DB	080H
	DB	08eH
	DB	0d0H
	DB	0b8H
	DB	078H
	DB	08eH
	DB	0c8H
	DB	0b8H
	DB	078H
	DB	08eH
	DB	0d8H
	DB	0c4H
	DB	088H
	DB	08eH
	DB	0d8H
	DB	0c4H
	DB	080H
	DB	08eH
	DB	0d0H
	DB	0c0H
	DB	078H
	DB	08eH
	DB	0d8H
	DB	0c4H
	DB	080H
	DB	092H
	DB	0d8H
	DB	0c4H
	DB	080H
	DB	08eH
	DB	0d8H
	DB	0c4H
	DB	080H
	DB	08eH
	DB	0d8H
	DB	0c4H
	DB	088H
	DB	08eH
	DB	0e0H
	DB	0ccH
	DB	098H
	DB	08eH
	DB	0e0H
	DB	0d0H
	DB	098H
	DB	08eH
	DB	0d8H
	DB	0c4H
	DB	080H
	DB	08eH
	DB	0d8H
	DB	0c4H
	DB	080H
	DB	08eH
	DB	0d8H
	DB	0c4H
	DB	080H
	DB	08eH
	DB	0d8H
	DB	0c0H
	DB	078H
	DB	092H
	DB	0d8H
	DB	0c0H
	DB	078H
	DB	08eH
	DB	0d0H
	DB	0bcH
	DB	078H
	DB	08eH
	DB	0e0H
	DB	0ccH
	DB	098H
	DB	08eH
	DB	0e0H
	DB	0ccH
	DB	098H
	DB	08eH
	DB	0d0H
	DB	0c0H
	DB	078H
	DB	08eH
	DB	0d0H
	DB	0bcH
	DB	070H
	DB	08eH
	DB	0d0H
	DB	0bcH
	DB	070H
	DB	08eH
	DB	0d8H
	DB	0c0H
	DB	078H
	DB	08eH
	DB	0d8H
	DB	0c4H
	DB	088H
	DB	08eH
	DB	0d8H
	DB	0c0H
	DB	078H
	DB	08eH
	DB	0d0H
	DB	0bcH
	DB	070H
	DB	08eH
	DB	0d0H
	DB	0bcH
	DB	070H
	DB	08eH
	DB	0d8H
	DB	0c0H
	DB	078H
	DB	08eH
	DB	0d0H
	DB	0c0H
	DB	078H
	DB	08eH
	DB	0d0H
	DB	0bcH
	DB	070H
	DB	08eH
	DB	0d0H
	DB	0b8H
	DB	068H
	DB	08aH
	DB	0d0H
	DB	0b8H
	DB	068H
	DB	08eH
	DB	0c8H
	DB	0b4H
	DB	060H
	DB	08eH
	DB	0d8H
	DB	0c4H
	DB	080H
	DB	08eH
	DB	0e8H
	DB	0d0H
	DB	0a0H
	DB	08aH
	DB	0e0H
	DB	0ccH
	DB	090H
	DB	08aH
	DB	0c8H
	DB	0b4H
	DB	068H
	DB	069H
	DB	0c8H
	DB	0b4H
	DB	068H
	DB	010H
	DB	0f8H
	DB	0fcH
	DB	0f8H
	DB	00H
	DB	0f8H
	DB	0fcH
	DB	0f8H
	DB	00H
	DB	0f8H
	DB	0fcH
	DB	0f8H
	DB	00H
	DB	0f8H
	DB	0fcH
	DB	0f8H
	DB	00H
	DB	0f8H
	DB	0fcH
	DB	0f8H
	DB	00H
	DB	0f8H
	DB	0fcH
	DB	0f8H
	DB	00H
	DB	0f8H
	DB	0fcH
	DB	0f8H
	DB	00H
	DB	0f8H
	DB	0fcH
	DB	0f8H
	DB	00H
	DB	0f8H
	DB	0fcH
	DB	0f8H
	DB	00H
	DB	0f8H
	DB	0fcH
	DB	0f8H
	DB	00H
	DB	0f8H
	DB	0fcH
	DB	0f8H
	DB	00H
	DB	0f8H
	DB	0fcH
	DB	0f8H
	DB	00H
	DB	0f8H
	DB	0fcH
	DB	0f8H
	DB	00H
	DB	0f8H
	DB	0fcH
	DB	0f8H
	DB	00H
	DB	0f8H
	DB	0fcH
	DB	0f8H
	DB	00H
	DB	0f8H
	DB	0fcH
	DB	0f8H
	DB	00H
	DB	0f8H
	DB	0fcH
	DB	0f8H
	DB	00H
	DB	0f8H
	DB	0fcH
	DB	0f8H
	DB	00H
	DB	0f8H
	DB	0fcH
	DB	0f8H
	DB	00H
	DB	0f8H
	DB	0fcH
	DB	0f8H
	DB	00H
	DB	0f8H
	DB	0fcH
	DB	0f8H
	DB	00H
	DB	0f8H
	DB	0fcH
	DB	0f8H
	DB	00H
	DB	0f8H
	DB	0fcH
	DB	0f8H
	DB	00H
	DB	0f8H
	DB	0fcH
	DB	0f8H
	DB	00H
	DB	0f8H
	DB	0fcH
	DB	0f8H
	DB	00H
	DB	0f8H
	DB	0fcH
	DB	0f8H
	DB	00H
	DB	0f8H
	DB	0fcH
	DB	0f8H
	DB	00H
	DB	0f8H
	DB	0fcH
	DB	0f8H
	DB	00H
	DB	0f8H
	DB	0fcH
	DB	0f8H
	DB	00H
	DB	0f8H
	DB	0fcH
	DB	0f8H
	DB	00H
	DB	0f8H
	DB	0fcH
	DB	0f8H
	DB	00H
	DB	0f8H
	DB	0fcH
	DB	0f8H
	DB	00H
	DB	0f8H
	DB	0fcH
	DB	0f8H
	DB	00H
	DB	0f8H
	DB	0fcH
	DB	0f8H
	DB	00H
	DB	0f8H
	DB	0fcH
	DB	0f8H
	DB	00H
	DB	0f8H
	DB	0fcH
	DB	0f8H
	DB	00H
	DB	0f8H
	DB	0fcH
	DB	0f8H
	DB	00H
	DB	0f8H
	DB	0fcH
	DB	0f8H
	DB	00H
	DB	0f8H
	DB	0fcH
	DB	0f8H
	DB	00H
	DB	0f8H
	DB	0fcH
	DB	0f8H
	DB	00H
	DB	0f8H
	DB	0fcH
	DB	0f8H
	DB	00H
	DB	0f8H
	DB	0fcH
	DB	0f8H
	DB	00H
	DB	0f8H
	DB	0fcH
	DB	0f8H
	DB	00H
	DB	0f8H
	DB	0fcH
	DB	0f8H
	DB	00H
	DB	0f8H
	DB	0fcH
	DB	0f8H
	DB	00H
	DB	0f8H
	DB	0fcH
	DB	0f8H
	DB	00H
	DB	0f8H
	DB	0fcH
	DB	0f8H
	DB	00H
	DB	0f8H
	DB	0fcH
	DB	0f8H
	DB	00H
	DB	0f8H
	DB	0fcH
	DB	0f8H
	DB	00H
	DB	0f8H
	DB	0fcH
	DB	0f8H
	DB	00H
	DB	0f8H
	DB	0fcH
	DB	0f8H
	DB	00H
	DB	0f8H
	DB	0fcH
	DB	0f8H
	DB	00H
	DB	0f8H
	DB	0fcH
	DB	0f8H
	DB	00H
	DB	0f8H
	DB	0fcH
	DB	0f8H
	DB	00H
	DB	0f8H
	DB	0fcH
	DB	0f8H
	DB	00H
	DB	0f8H
	DB	0fcH
	DB	0f8H
	DB	00H
	DB	0f8H
	DB	0fcH
	DB	0f8H
	DB	00H
	DB	0f8H
	DB	0fcH
	DB	0f8H
	DB	00H
	DB	0f8H
	DB	0fcH
	DB	0f8H
	DB	00H
	DB	0f8H
	DB	0fcH
	DB	0f8H
	DB	00H
	DB	0f8H
	DB	0fcH
	DB	0f8H
	DB	00H
	DB	0f8H
	DB	0fcH
	DB	0f8H
	DB	00H
	DB	0f8H
	DB	0fcH
	DB	0f8H
	DB	00H
	DB	0f8H
	DB	0fcH
	DB	0f8H
	DB	00H
	DB	0f8H
	DB	0fcH
	DB	0f8H
	DB	00H
	DB	0f8H
	DB	0fcH
	DB	0f8H
	DB	00H
	DB	0f8H
	DB	0fcH
	DB	0f8H
	DB	00H
	DB	0f8H
	DB	0fcH
	DB	0f8H
	DB	00H
	DB	0f8H
	DB	0fcH
	DB	0f8H
	DB	00H
	DB	0f8H
	DB	0fcH
	DB	0f8H
	DB	00H
	DB	0f8H
	DB	0fcH
	DB	0f8H
	DB	00H
	DB	0f8H
	DB	0fcH
	DB	0f8H
	DB	00H
	DB	0f8H
	DB	0fcH
	DB	0f8H
	DB	00H
	DB	0f8H
	DB	0fcH
	DB	0f8H
	DB	00H
	DB	0f8H
	DB	0fcH
	DB	0f8H
	DB	00H
	DB	0f8H
	DB	0fcH
	DB	0f8H
	DB	00H
	DB	0f8H
	DB	0fcH
	DB	0f8H
	DB	00H
	DB	0f8H
	DB	0fcH
	DB	0f8H
	DB	00H
	DB	0f8H
	DB	0fcH
	DB	0f8H
	DB	00H
	DB	0f8H
	DB	0fcH
	DB	0f8H
	DB	00H
	DB	0f8H
	DB	0fcH
	DB	0f8H
	DB	00H
	DB	0f8H
	DB	0fcH
	DB	0f8H
	DB	00H
	DB	0f8H
	DB	0fcH
	DB	0f8H
	DB	00H
	DB	0f8H
	DB	0fcH
	DB	0f8H
	DB	00H
	DB	0f8H
	DB	0fcH
	DB	0f8H
	DB	00H
	DB	0f8H
	DB	0fcH
	DB	0f8H
	DB	00H
	DB	0f8H
	DB	0fcH
	DB	0f8H
	DB	00H
	DB	0f8H
	DB	0fcH
	DB	0f8H
	DB	00H
	DB	0f8H
	DB	0fcH
	DB	0f8H
	DB	00H
	DB	0f8H
	DB	0fcH
	DB	0f8H
	DB	00H
	DB	0f8H
	DB	0fcH
	DB	0f8H
	DB	00H
	DB	0f8H
	DB	0fcH
	DB	0f8H
	DB	00H
	DB	0f8H
	DB	0fcH
	DB	0f8H
	DB	00H
	DB	0f8H
	DB	0fcH
	DB	0f8H
	DB	00H
	DB	0f8H
	DB	0fcH
	DB	0f8H
	DB	00H
	DB	0f8H
	DB	0fcH
	DB	0f8H
	DB	00H
	DB	0f8H
	DB	0fcH
	DB	0f8H
	DB	00H
	DB	0f8H
	DB	0fcH
	DB	0f8H
	DB	00H
	DB	0f8H
	DB	0fcH
	DB	0f8H
	DB	00H
	DB	0f8H
	DB	0fcH
	DB	0f8H
	DB	00H
	DB	0f8H
	DB	0fcH
	DB	0f8H
	DB	00H
	DB	0f8H
	DB	0fcH
	DB	0f8H
	DB	00H
	DB	0f8H
	DB	0fcH
	DB	0f8H
	DB	00H
	DB	0f8H
	DB	0fcH
	DB	0f8H
	DB	00H
	DB	0f8H
	DB	0fcH
	DB	0f8H
	DB	00H
	DB	0f8H
	DB	0fcH
	DB	0f8H
	DB	00H
	DB	0f8H
	DB	0fcH
	DB	0f8H
	DB	00H
	DB	0f8H
	DB	0fcH
	DB	0f8H
	DB	00H
	DB	0f8H
	DB	0fcH
	DB	0f8H
	DB	00H
	DB	0f8H
	DB	0fcH
	DB	0f8H
	DB	00H
	DB	0c0H
	DB	09cH
	DB	048H
	DB	049H
	DB	0c0H
	DB	09cH
	DB	038H
	DB	05dH
	DB	0c0H
	DB	0a0H
	DB	048H
	DB	069H
	DB	0c0H
	DB	0a0H
	DB	050H
	DB	06dH
	DB	0c0H
	DB	0a0H
	DB	050H
	DB	069H
	DB	0b8H
	DB	0a0H
	DB	050H
	DB	069H
	DB	0b8H
	DB	0a0H
	DB	050H
	DB	06dH
	DB	0c0H
	DB	0a0H
	DB	050H
	DB	06dH
	DB	0c0H
	DB	0a0H
	DB	050H
	DB	06dH
	DB	0c0H
	DB	0a0H
	DB	050H
	DB	06dH
	DB	0c0H
	DB	0a4H
	DB	050H
	DB	06dH
	DB	0c0H
	DB	0a8H
	DB	058H
	DB	06dH
	DB	0c0H
	DB	0a8H
	DB	058H
	DB	06dH
	DB	0c8H
	DB	0a8H
	DB	058H
	DB	06dH
	DB	0c8H
	DB	0a8H
	DB	058H
	DB	06dH
	DB	0c0H
	DB	0a8H
	DB	060H
	DB	06dH
	DB	0c8H
	DB	0acH
	DB	060H
	DB	071H
	DB	0c8H
	DB	0acH
	DB	060H
	DB	06dH
	DB	0c8H
	DB	0acH
	DB	060H
	DB	06dH
	DB	0c0H
	DB	0acH
	DB	060H
	DB	071H
	DB	0c8H
	DB	0a8H
	DB	060H
	DB	071H
	DB	0c0H
	DB	0a8H
	DB	058H
	DB	071H
	DB	0c8H
	DB	0acH
	DB	060H
	DB	071H
	DB	0c8H
	DB	0acH
	DB	060H
	DB	071H
	DB	0c8H
	DB	0b0H
	DB	060H
	DB	071H
	DB	0c8H
	DB	0acH
	DB	060H
	DB	075H
	DB	0c8H
	DB	0acH
	DB	060H
	DB	071H
	DB	0c8H
	DB	0a8H
	DB	058H
	DB	071H
	DB	0c0H
	DB	0acH
	DB	060H
	DB	075H
	DB	0c8H
	DB	0acH
	DB	060H
	DB	075H
	DB	0c8H
	DB	0acH
	DB	060H
	DB	071H
	DB	0c8H
	DB	0acH
	DB	060H
	DB	075H
	DB	0c0H
	DB	0acH
	DB	058H
	DB	075H
	DB	0c8H
	DB	0acH
	DB	060H
	DB	075H
	DB	0c8H
	DB	0b0H
	DB	060H
	DB	075H
	DB	0c8H
	DB	0b4H
	DB	068H
	DB	075H
	DB	0c8H
	DB	0b4H
	DB	068H
	DB	079H
	DB	0d0H
	DB	0b8H
	DB	070H
	DB	075H
	DB	0d0H
	DB	0b8H
	DB	070H
	DB	079H
	DB	0d0H
	DB	0b4H
	DB	068H
	DB	075H
	DB	0c8H
	DB	0b0H
	DB	060H
	DB	075H
	DB	0c8H
	DB	0b0H
	DB	060H
	DB	079H
	DB	0d0H
	DB	0b4H
	DB	068H
	DB	079H
	DB	0d8H
	DB	0c0H
	DB	078H
	DB	079H
	DB	0c0H
	DB	0a8H
	DB	060H
	DB	079H
	DB	0c0H
	DB	0a8H
	DB	058H
	DB	079H
	DB	0c0H
	DB	0a8H
	DB	058H
	DB	079H
	DB	0c0H
	DB	0a8H
	DB	058H
	DB	079H
	DB	0c0H
	DB	0a8H
	DB	058H
	DB	07dH
	DB	0c0H
	DB	0acH
	DB	058H
	DB	079H
	DB	0c8H
	DB	0acH
	DB	058H
	DB	07dH
	DB	0c8H
	DB	0b0H
	DB	060H
	DB	07dH
	DB	0c8H
	DB	0b0H
	DB	060H
	DB	07dH
	DB	0c8H
	DB	0b0H
	DB	060H
	DB	07dH
	DB	0c8H
	DB	0b0H
	DB	060H
	DB	07dH
	DB	0d0H
	DB	0b4H
	DB	068H
	DB	07dH
	DB	0d0H
	DB	0b4H
	DB	068H
	DB	07dH
	DB	0c8H
	DB	0b4H
	DB	068H
	DB	07dH
	DB	0d0H
	DB	0b4H
	DB	068H
	DB	082H
	DB	0d0H
	DB	0b8H
	DB	070H
	DB	07dH
	DB	0d0H
	DB	0b8H
	DB	070H
	DB	082H
	DB	0d0H
	DB	0b8H
	DB	068H
	DB	082H
	DB	0d0H
	DB	0b8H
	DB	068H
	DB	082H
	DB	0d0H
	DB	0b8H
	DB	068H
	DB	082H
	DB	0d0H
	DB	0b8H
	DB	070H
	DB	082H
	DB	0d0H
	DB	0bcH
	DB	070H
	DB	082H
	DB	0d0H
	DB	0bcH
	DB	070H
	DB	082H
	DB	0d8H
	DB	0bcH
	DB	070H
	DB	082H
	DB	0d8H
	DB	0bcH
	DB	078H
	DB	082H
	DB	0d0H
	DB	0bcH
	DB	070H
	DB	082H
	DB	0d0H
	DB	0bcH
	DB	070H
	DB	086H
	DB	0d0H
	DB	0bcH
	DB	078H
	DB	082H
	DB	0d0H
	DB	0c0H
	DB	078H
	DB	086H
	DB	0e0H
	DB	0ccH
	DB	090H
	DB	086H
	DB	0e0H
	DB	0ccH
	DB	098H
	DB	086H
	DB	0e0H
	DB	0ccH
	DB	090H
	DB	086H
	DB	0e0H
	DB	0ccH
	DB	098H
	DB	086H
	DB	0e0H
	DB	0ccH
	DB	098H
	DB	086H
	DB	0d8H
	DB	0c0H
	DB	080H
	DB	086H
	DB	0d8H
	DB	0c0H
	DB	080H
	DB	086H
	DB	0d8H
	DB	0c8H
	DB	088H
	DB	08aH
	DB	0d8H
	DB	0c8H
	DB	088H
	DB	086H
	DB	0d8H
	DB	0c8H
	DB	088H
	DB	086H
	DB	0e0H
	DB	0c8H
	DB	088H
	DB	08aH
	DB	0d8H
	DB	0c8H
	DB	088H
	DB	08aH
	DB	0d8H
	DB	0c8H
	DB	088H
	DB	08aH
	DB	0d8H
	DB	0c8H
	DB	088H
	DB	08aH
	DB	0e0H
	DB	0c8H
	DB	088H
	DB	08aH
	DB	0e0H
	DB	0c8H
	DB	088H
	DB	08aH
	DB	0d8H
	DB	0c8H
	DB	088H
	DB	08aH
	DB	0d8H
	DB	0c8H
	DB	088H
	DB	08aH
	DB	0d8H
	DB	0c8H
	DB	088H
	DB	08eH
	DB	0d8H
	DB	0c8H
	DB	090H
	DB	08aH
	DB	0e0H
	DB	0ccH
	DB	098H
	DB	08aH
	DB	0e0H
	DB	0ccH
	DB	090H
	DB	08eH
	DB	0e0H
	DB	0d0H
	DB	098H
	DB	08eH
	DB	0d8H
	DB	0ccH
	DB	090H
	DB	08aH
	DB	0d8H
	DB	0c8H
	DB	088H
	DB	08eH
	DB	0d8H
	DB	0c8H
	DB	088H
	DB	08eH
	DB	0d8H
	DB	0c8H
	DB	088H
	DB	08eH
	DB	0e0H
	DB	0c8H
	DB	088H
	DB	08eH
	DB	0d8H
	DB	0c4H
	DB	088H
	DB	08eH
	DB	0d8H
	DB	0c4H
	DB	080H
	DB	08eH
	DB	0d8H
	DB	0c0H
	DB	078H
	DB	08eH
	DB	0d0H
	DB	0c0H
	DB	078H
	DB	08eH
	DB	0d0H
	DB	0bcH
	DB	070H
	DB	08eH
	DB	0d0H
	DB	0c0H
	DB	078H
	DB	08eH
	DB	0d0H
	DB	0c0H
	DB	078H
	DB	08eH
	DB	0d0H
	DB	0c0H
	DB	078H
	DB	08eH
	DB	0d0H
	DB	0c0H
	DB	078H
	DB	08eH
	DB	0d8H
	DB	0c0H
	DB	080H
	DB	08eH
	DB	0d8H
	DB	0c4H
	DB	080H
	DB	08eH
	DB	0d8H
	DB	0c8H
	DB	088H
	DB	08eH
	DB	0d8H
	DB	0c4H
	DB	080H
	DB	08eH
	DB	0d8H
	DB	0c4H
	DB	080H
	DB	08eH
	DB	0d8H
	DB	0c4H
	DB	080H
	DB	08eH
	DB	0d0H
	DB	0c4H
	DB	080H
	DB	092H
	DB	0d0H
	DB	0c0H
	DB	080H
	DB	08eH
	DB	0d0H
	DB	0c0H
	DB	080H
	DB	08eH
	DB	0d8H
	DB	0c4H
	DB	080H
	DB	08eH
	DB	0d8H
	DB	0c4H
	DB	080H
	DB	08eH
	DB	0d8H
	DB	0c4H
	DB	080H
	DB	092H
	DB	0d8H
	DB	0c4H
	DB	080H
	DB	08eH
	DB	0d8H
	DB	0c4H
	DB	080H
	DB	08eH
	DB	0d8H
	DB	0c4H
	DB	080H
	DB	092H
	DB	0d8H
	DB	0c8H
	DB	088H
	DB	08eH
	DB	0d8H
	DB	0c8H
	DB	088H
	DB	08eH
	DB	0e0H
	DB	0ccH
	DB	090H
	DB	092H
	DB	0d0H
	DB	0c4H
	DB	080H
	DB	08eH
	DB	0d8H
	DB	0c4H
	DB	080H
	DB	08eH
	DB	0d8H
	DB	0c4H
	DB	080H
	DB	08eH
	DB	0d8H
	DB	0c4H
	DB	078H
	DB	08eH
	DB	0d8H
	DB	0c4H
	DB	078H
	DB	08eH
	DB	0d8H
	DB	0c0H
	DB	078H
	DB	08eH
	DB	0d8H
	DB	0c8H
	DB	090H
	DB	08eH
	DB	0e0H
	DB	0ccH
	DB	098H
	DB	08eH
	DB	0d8H
	DB	0c4H
	DB	088H
	DB	08eH
	DB	0d0H
	DB	0c0H
	DB	070H
	DB	08eH
	DB	0d0H
	DB	0b8H
	DB	070H
	DB	08eH
	DB	0e0H
	DB	0ccH
	DB	090H
	DB	08eH
	DB	0e8H
	DB	0d0H
	DB	098H
	DB	08eH
	DB	0e0H
	DB	0ccH
	DB	088H
	DB	08eH
	DB	0d8H
	DB	0c0H
	DB	078H
	DB	08eH
	DB	0d0H
	DB	0bcH
	DB	078H
	DB	08eH
	DB	0d8H
	DB	0c0H
	DB	078H
	DB	08eH
	DB	0d8H
	DB	0c0H
	DB	070H
	DB	08eH
	DB	0d0H
	DB	0bcH
	DB	070H
	DB	08eH
	DB	0d0H
	DB	0bcH
	DB	068H
	DB	08aH
	DB	0d0H
	DB	0b8H
	DB	068H
	DB	08eH
	DB	0c8H
	DB	0b4H
	DB	068H
	DB	08eH
	DB	0d8H
	DB	0c4H
	DB	088H
	DB	08aH
	DB	0e8H
	DB	0d4H
	DB	0a0H
	DB	08aH
	DB	0e8H
	DB	0d4H
	DB	0a0H
	DB	08eH
	DB	0d0H
	DB	0c0H
	DB	080H
	DB	08aH
	DB	0c8H
	DB	0b8H
	DB	070H
	DB	086H
	DB	0d0H
	DB	0b8H
	DB	078H
	DB	05dH
	DB	0d0H
	DB	0b8H
	DB	078H
	DB	04H
	DB	0f8H
	DB	0fcH
	DB	0f8H
	DB	00H
	DB	0f8H
	DB	0fcH
	DB	0f8H
	DB	00H
	DB	0f8H
	DB	0fcH
	DB	0f8H
	DB	00H
	DB	0f8H
	DB	0fcH
	DB	0f8H
	DB	00H
	DB	0f8H
	DB	0fcH
	DB	0f8H
	DB	00H
	DB	0f8H
	DB	0fcH
	DB	0f8H
	DB	00H
	DB	0f8H
	DB	0fcH
	DB	0f8H
	DB	00H
	DB	0f8H
	DB	0fcH
	DB	0f8H
	DB	00H
	DB	0f8H
	DB	0fcH
	DB	0f8H
	DB	00H
	DB	0f8H
	DB	0fcH
	DB	0f8H
	DB	00H
	DB	0f8H
	DB	0fcH
	DB	0f8H
	DB	00H
	DB	0f8H
	DB	0fcH
	DB	0f8H
	DB	00H
	DB	0f8H
	DB	0fcH
	DB	0f8H
	DB	00H
	DB	0f8H
	DB	0fcH
	DB	0f8H
	DB	00H
	DB	0f8H
	DB	0fcH
	DB	0f8H
	DB	00H
	DB	0f8H
	DB	0fcH
	DB	0f8H
	DB	00H
	DB	0f8H
	DB	0fcH
	DB	0f8H
	DB	00H
	DB	0f8H
	DB	0fcH
	DB	0f8H
	DB	00H
	DB	0f8H
	DB	0fcH
	DB	0f8H
	DB	00H
	DB	0f8H
	DB	0fcH
	DB	0f8H
	DB	00H
	DB	0f8H
	DB	0fcH
	DB	0f8H
	DB	00H
	DB	0f8H
	DB	0fcH
	DB	0f8H
	DB	00H
	DB	0f8H
	DB	0fcH
	DB	0f8H
	DB	00H
	DB	0f8H
	DB	0fcH
	DB	0f8H
	DB	00H
	DB	0f8H
	DB	0fcH
	DB	0f8H
	DB	00H
	DB	0f8H
	DB	0fcH
	DB	0f8H
	DB	00H
	DB	0f8H
	DB	0fcH
	DB	0f8H
	DB	00H
	DB	0f8H
	DB	0fcH
	DB	0f8H
	DB	00H
	DB	0f8H
	DB	0fcH
	DB	0f8H
	DB	00H
	DB	0f8H
	DB	0fcH
	DB	0f8H
	DB	00H
	DB	0f8H
	DB	0fcH
	DB	0f8H
	DB	00H
	DB	0f8H
	DB	0fcH
	DB	0f8H
	DB	00H
	DB	0f8H
	DB	0fcH
	DB	0f8H
	DB	00H
	DB	0f8H
	DB	0fcH
	DB	0f8H
	DB	00H
	DB	0f8H
	DB	0fcH
	DB	0f8H
	DB	00H
	DB	0f8H
	DB	0fcH
	DB	0f8H
	DB	00H
	DB	0f8H
	DB	0fcH
	DB	0f8H
	DB	00H
	DB	0f8H
	DB	0fcH
	DB	0f8H
	DB	00H
	DB	0f8H
	DB	0fcH
	DB	0f8H
	DB	00H
	DB	0f8H
	DB	0fcH
	DB	0f8H
	DB	00H
	DB	0f8H
	DB	0fcH
	DB	0f8H
	DB	00H
	DB	0f8H
	DB	0fcH
	DB	0f8H
	DB	00H
	DB	0f8H
	DB	0fcH
	DB	0f8H
	DB	00H
	DB	0f8H
	DB	0fcH
	DB	0f8H
	DB	00H
	DB	0f8H
	DB	0fcH
	DB	0f8H
	DB	00H
	DB	0f8H
	DB	0fcH
	DB	0f8H
	DB	00H
	DB	0f8H
	DB	0fcH
	DB	0f8H
	DB	00H
	DB	0f8H
	DB	0fcH
	DB	0f8H
	DB	00H
	DB	0f8H
	DB	0fcH
	DB	0f8H
	DB	00H
	DB	0f8H
	DB	0fcH
	DB	0f8H
	DB	00H
	DB	0f8H
	DB	0fcH
	DB	0f8H
	DB	00H
	DB	0f8H
	DB	0fcH
	DB	0f8H
	DB	00H
	DB	0f8H
	DB	0fcH
	DB	0f8H
	DB	00H
	DB	0f8H
	DB	0fcH
	DB	0f8H
	DB	00H
	DB	0f8H
	DB	0fcH
	DB	0f8H
	DB	00H
	DB	0f8H
	DB	0fcH
	DB	0f8H
	DB	00H
	DB	0f8H
	DB	0fcH
	DB	0f8H
	DB	00H
	DB	0f8H
	DB	0fcH
	DB	0f8H
	DB	00H
	DB	0f8H
	DB	0fcH
	DB	0f8H
	DB	00H
	DB	0f8H
	DB	0fcH
	DB	0f8H
	DB	00H
	DB	0f8H
	DB	0fcH
	DB	0f8H
	DB	00H
	DB	0f8H
	DB	0fcH
	DB	0f8H
	DB	00H
	DB	0f8H
	DB	0fcH
	DB	0f8H
	DB	00H
	DB	0f8H
	DB	0fcH
	DB	0f8H
	DB	00H
	DB	0f8H
	DB	0fcH
	DB	0f8H
	DB	00H
	DB	0f8H
	DB	0fcH
	DB	0f8H
	DB	00H
	DB	0f8H
	DB	0fcH
	DB	0f8H
	DB	00H
	DB	0f8H
	DB	0fcH
	DB	0f8H
	DB	00H
	DB	0f8H
	DB	0fcH
	DB	0f8H
	DB	00H
	DB	0f8H
	DB	0fcH
	DB	0f8H
	DB	00H
	DB	0f8H
	DB	0fcH
	DB	0f8H
	DB	00H
	DB	0f8H
	DB	0fcH
	DB	0f8H
	DB	00H
	DB	0f8H
	DB	0fcH
	DB	0f8H
	DB	00H
	DB	0f8H
	DB	0fcH
	DB	0f8H
	DB	00H
	DB	0f8H
	DB	0fcH
	DB	0f8H
	DB	00H
	DB	0f8H
	DB	0fcH
	DB	0f8H
	DB	00H
	DB	0f8H
	DB	0fcH
	DB	0f8H
	DB	00H
	DB	0f8H
	DB	0fcH
	DB	0f8H
	DB	00H
	DB	0f8H
	DB	0fcH
	DB	0f8H
	DB	00H
	DB	0f8H
	DB	0fcH
	DB	0f8H
	DB	00H
	DB	0f8H
	DB	0fcH
	DB	0f8H
	DB	00H
	DB	0f8H
	DB	0fcH
	DB	0f8H
	DB	00H
	DB	0f8H
	DB	0fcH
	DB	0f8H
	DB	00H
	DB	0f8H
	DB	0fcH
	DB	0f8H
	DB	00H
	DB	0f8H
	DB	0fcH
	DB	0f8H
	DB	00H
	DB	0f8H
	DB	0fcH
	DB	0f8H
	DB	00H
	DB	0f8H
	DB	0fcH
	DB	0f8H
	DB	00H
	DB	0f8H
	DB	0fcH
	DB	0f8H
	DB	00H
	DB	0f8H
	DB	0fcH
	DB	0f8H
	DB	00H
	DB	0f8H
	DB	0fcH
	DB	0f8H
	DB	00H
	DB	0f8H
	DB	0fcH
	DB	0f8H
	DB	00H
	DB	0f8H
	DB	0fcH
	DB	0f8H
	DB	00H
	DB	0f8H
	DB	0fcH
	DB	0f8H
	DB	00H
	DB	0f8H
	DB	0fcH
	DB	0f8H
	DB	00H
	DB	0f8H
	DB	0fcH
	DB	0f8H
	DB	00H
	DB	0f8H
	DB	0fcH
	DB	0f8H
	DB	00H
	DB	0f8H
	DB	0fcH
	DB	0f8H
	DB	00H
	DB	0f8H
	DB	0fcH
	DB	0f8H
	DB	00H
	DB	0f8H
	DB	0fcH
	DB	0f8H
	DB	00H
	DB	0f8H
	DB	0fcH
	DB	0f8H
	DB	00H
	DB	0f8H
	DB	0fcH
	DB	0f8H
	DB	00H
	DB	0f8H
	DB	0fcH
	DB	0f8H
	DB	00H
	DB	0f8H
	DB	0fcH
	DB	0f8H
	DB	00H
	DB	0f8H
	DB	0fcH
	DB	0f8H
	DB	00H
	DB	0f8H
	DB	0fcH
	DB	0f8H
	DB	00H
	DB	0f8H
	DB	0fcH
	DB	0f8H
	DB	00H
	DB	0f8H
	DB	0fcH
	DB	0f8H
	DB	00H
	DB	0c0H
	DB	09cH
	DB	050H
	DB	010H
	DB	0c0H
	DB	098H
	DB	038H
	DB	059H
	DB	0c0H
	DB	098H
	DB	038H
	DB	059H
	DB	0b8H
	DB	098H
	DB	040H
	DB	06dH
	DB	0b8H
	DB	09cH
	DB	050H
	DB	06dH
	DB	0b8H
	DB	0a0H
	DB	050H
	DB	069H
	DB	0b8H
	DB	0a0H
	DB	050H
	DB	06dH
	DB	0c0H
	DB	0a0H
	DB	050H
	DB	069H
	DB	0c0H
	DB	0a0H
	DB	050H
	DB	06dH
	DB	0c0H
	DB	0a4H
	DB	050H
	DB	06dH
	DB	0c0H
	DB	0a4H
	DB	058H
	DB	069H
	DB	0c0H
	DB	0a4H
	DB	058H
	DB	06dH
	DB	0c0H
	DB	0a4H
	DB	058H
	DB	06dH
	DB	0c0H
	DB	0a8H
	DB	058H
	DB	06dH
	DB	0c8H
	DB	0a8H
	DB	060H
	DB	06dH
	DB	0c8H
	DB	0a8H
	DB	060H
	DB	06dH
	DB	0c8H
	DB	0acH
	DB	060H
	DB	071H
	DB	0c8H
	DB	0acH
	DB	060H
	DB	06dH
	DB	0c8H
	DB	0acH
	DB	060H
	DB	071H
	DB	0c0H
	DB	0acH
	DB	060H
	DB	06dH
	DB	0c8H
	DB	0acH
	DB	060H
	DB	06dH
	DB	0c8H
	DB	0a8H
	DB	060H
	DB	071H
	DB	0c0H
	DB	0acH
	DB	060H
	DB	071H
	DB	0c8H
	DB	0acH
	DB	060H
	DB	071H
	DB	0c8H
	DB	0acH
	DB	060H
	DB	071H
	DB	0c8H
	DB	0acH
	DB	060H
	DB	071H
	DB	0c8H
	DB	0acH
	DB	060H
	DB	071H
	DB	0c8H
	DB	0acH
	DB	060H
	DB	071H
	DB	0c8H
	DB	0acH
	DB	060H
	DB	071H
	DB	0c8H
	DB	0acH
	DB	060H
	DB	075H
	DB	0c8H
	DB	0acH
	DB	060H
	DB	071H
	DB	0c8H
	DB	0acH
	DB	060H
	DB	071H
	DB	0c8H
	DB	0b0H
	DB	060H
	DB	075H
	DB	0c8H
	DB	0acH
	DB	060H
	DB	075H
	DB	0c8H
	DB	0acH
	DB	060H
	DB	075H
	DB	0c8H
	DB	0b0H
	DB	068H
	DB	075H
	DB	0c8H
	DB	0b0H
	DB	060H
	DB	075H
	DB	0c8H
	DB	0b0H
	DB	068H
	DB	075H
	DB	0c8H
	DB	0b0H
	DB	068H
	DB	075H
	DB	0d0H
	DB	0b4H
	DB	068H
	DB	079H
	DB	0d0H
	DB	0b8H
	DB	070H
	DB	079H
	DB	0d0H
	DB	0b8H
	DB	070H
	DB	075H
	DB	0c8H
	DB	0b4H
	DB	068H
	DB	079H
	DB	0d0H
	DB	0bcH
	DB	078H
	DB	079H
	DB	0d0H
	DB	0b4H
	DB	068H
	DB	079H
	DB	0c8H
	DB	0b0H
	DB	068H
	DB	079H
	DB	0c8H
	DB	0b0H
	DB	060H
	DB	079H
	DB	0c0H
	DB	0a8H
	DB	058H
	DB	079H
	DB	0c0H
	DB	0a4H
	DB	050H
	DB	07dH
	DB	0c0H
	DB	0a8H
	DB	058H
	DB	07dH
	DB	0c0H
	DB	0a8H
	DB	058H
	DB	079H
	DB	0c8H
	DB	0a8H
	DB	058H
	DB	079H
	DB	0c8H
	DB	0acH
	DB	060H
	DB	07dH
	DB	0c8H
	DB	0acH
	DB	060H
	DB	07dH
	DB	0c8H
	DB	0b0H
	DB	060H
	DB	07dH
	DB	0c8H
	DB	0b0H
	DB	060H
	DB	07dH
	DB	0c8H
	DB	0b0H
	DB	060H
	DB	07dH
	DB	0c8H
	DB	0b0H
	DB	068H
	DB	07dH
	DB	0c8H
	DB	0b4H
	DB	068H
	DB	07dH
	DB	0c8H
	DB	0b4H
	DB	068H
	DB	082H
	DB	0d0H
	DB	0b8H
	DB	068H
	DB	07dH
	DB	0d0H
	DB	0b8H
	DB	068H
	DB	082H
	DB	0c8H
	DB	0b4H
	DB	068H
	DB	07dH
	DB	0c8H
	DB	0b4H
	DB	068H
	DB	07dH
	DB	0c8H
	DB	0b4H
	DB	068H
	DB	082H
	DB	0d0H
	DB	0b8H
	DB	070H
	DB	082H
	DB	0d0H
	DB	0bcH
	DB	070H
	DB	082H
	DB	0d0H
	DB	0b8H
	DB	070H
	DB	082H
	DB	0d0H
	DB	0bcH
	DB	070H
	DB	082H
	DB	0d0H
	DB	0bcH
	DB	070H
	DB	082H
	DB	0d0H
	DB	0b8H
	DB	070H
	DB	086H
	DB	0d0H
	DB	0b8H
	DB	070H
	DB	086H
	DB	0d0H
	DB	0b8H
	DB	070H
	DB	082H
	DB	0d0H
	DB	0bcH
	DB	078H
	DB	082H
	DB	0e0H
	DB	0c8H
	DB	088H
	DB	086H
	DB	0e0H
	DB	0ccH
	DB	090H
	DB	086H
	DB	0e0H
	DB	0d0H
	DB	0a0H
	DB	086H
	DB	0e8H
	DB	0d8H
	DB	0a8H
	DB	086H
	DB	0e8H
	DB	0d4H
	DB	0a8H
	DB	086H
	DB	0e0H
	DB	0ccH
	DB	098H
	DB	086H
	DB	0d8H
	DB	0c4H
	DB	080H
	DB	086H
	DB	0d8H
	DB	0c4H
	DB	080H
	DB	08aH
	DB	0d8H
	DB	0c8H
	DB	088H
	DB	086H
	DB	0e0H
	DB	0c8H
	DB	088H
	DB	086H
	DB	0e0H
	DB	0c8H
	DB	088H
	DB	08aH
	DB	0d8H
	DB	0c8H
	DB	088H
	DB	08aH
	DB	0e0H
	DB	0c8H
	DB	088H
	DB	08aH
	DB	0d8H
	DB	0c8H
	DB	090H
	DB	08aH
	DB	0e0H
	DB	0c8H
	DB	090H
	DB	08aH
	DB	0d8H
	DB	0c8H
	DB	088H
	DB	08aH
	DB	0d8H
	DB	0c8H
	DB	088H
	DB	08aH
	DB	0e0H
	DB	0c8H
	DB	088H
	DB	08aH
	DB	0d8H
	DB	0c8H
	DB	088H
	DB	08aH
	DB	0d8H
	DB	0c8H
	DB	088H
	DB	08eH
	DB	0e0H
	DB	0c8H
	DB	090H
	DB	08eH
	DB	0d8H
	DB	0ccH
	DB	090H
	DB	08aH
	DB	0d8H
	DB	0c4H
	DB	088H
	DB	08eH
	DB	0e0H
	DB	0ccH
	DB	090H
	DB	08eH
	DB	0e0H
	DB	0d0H
	DB	098H
	DB	08aH
	DB	0d8H
	DB	0c8H
	DB	088H
	DB	08eH
	DB	0d8H
	DB	0c8H
	DB	088H
	DB	08eH
	DB	0d8H
	DB	0c8H
	DB	088H
	DB	08eH
	DB	0d8H
	DB	0c8H
	DB	088H
	DB	08eH
	DB	0d8H
	DB	0c4H
	DB	080H
	DB	08eH
	DB	0d8H
	DB	0c4H
	DB	080H
	DB	08eH
	DB	0d0H
	DB	0c0H
	DB	078H
	DB	08eH
	DB	0d8H
	DB	0c0H
	DB	078H
	DB	08eH
	DB	0d8H
	DB	0c0H
	DB	078H
	DB	08eH
	DB	0d8H
	DB	0c0H
	DB	078H
	DB	08eH
	DB	0d0H
	DB	0c0H
	DB	078H
	DB	08eH
	DB	0d8H
	DB	0c0H
	DB	078H
	DB	08eH
	DB	0d8H
	DB	0c4H
	DB	080H
	DB	08eH
	DB	0d8H
	DB	0ccH
	DB	090H
	DB	08eH
	DB	0d8H
	DB	0ccH
	DB	090H
	DB	08eH
	DB	0d8H
	DB	0c8H
	DB	088H
	DB	08eH
	DB	0e0H
	DB	0c8H
	DB	088H
	DB	08eH
	DB	0e0H
	DB	0ccH
	DB	090H
	DB	08eH
	DB	0e0H
	DB	0ccH
	DB	088H
	DB	08eH
	DB	0d8H
	DB	0c8H
	DB	080H
	DB	08eH
	DB	0d8H
	DB	0c4H
	DB	080H
	DB	08eH
	DB	0d8H
	DB	0c4H
	DB	080H
	DB	08eH
	DB	0d8H
	DB	0c4H
	DB	080H
	DB	08eH
	DB	0d8H
	DB	0c4H
	DB	080H
	DB	08eH
	DB	0d8H
	DB	0c4H
	DB	080H
	DB	08eH
	DB	0d8H
	DB	0c4H
	DB	080H
	DB	08eH
	DB	0d8H
	DB	0c8H
	DB	080H
	DB	08eH
	DB	0d8H
	DB	0c8H
	DB	088H
	DB	08eH
	DB	0d8H
	DB	0c4H
	DB	080H
	DB	08eH
	DB	0d8H
	DB	0c8H
	DB	088H
	DB	08eH
	DB	0d8H
	DB	0c0H
	DB	078H
	DB	08eH
	DB	0d8H
	DB	0c4H
	DB	080H
	DB	08eH
	DB	0d8H
	DB	0c4H
	DB	080H
	DB	08eH
	DB	0d8H
	DB	0c4H
	DB	080H
	DB	08eH
	DB	0d8H
	DB	0c4H
	DB	080H
	DB	08eH
	DB	0d8H
	DB	0c4H
	DB	080H
	DB	08eH
	DB	0d8H
	DB	0c4H
	DB	080H
	DB	08eH
	DB	0e0H
	DB	0d0H
	DB	098H
	DB	08eH
	DB	0e0H
	DB	0ccH
	DB	098H
	DB	08eH
	DB	0d8H
	DB	0c8H
	DB	090H
	DB	08eH
	DB	0d8H
	DB	0c8H
	DB	090H
	DB	08eH
	DB	0e0H
	DB	0d0H
	DB	098H
	DB	08eH
	DB	0e8H
	DB	0d0H
	DB	098H
	DB	08eH
	DB	0d8H
	DB	0c4H
	DB	080H
	DB	08eH
	DB	0d0H
	DB	0c0H
	DB	078H
	DB	08eH
	DB	0d8H
	DB	0c4H
	DB	078H
	DB	08eH
	DB	0d8H
	DB	0c0H
	DB	078H
	DB	08aH
	DB	0d0H
	DB	0c0H
	DB	070H
	DB	08eH
	DB	0d0H
	DB	0bcH
	DB	070H
	DB	08eH
	DB	0d8H
	DB	0bcH
	DB	070H
	DB	08eH
	DB	0d0H
	DB	0bcH
	DB	068H
	DB	08aH
	DB	0c8H
	DB	0b4H
	DB	068H
	DB	08eH
	DB	0d0H
	DB	0bcH
	DB	078H
	DB	08aH
	DB	0e8H
	DB	0d0H
	DB	098H
	DB	08eH
	DB	0f0H
	DB	0dcH
	DB	0a8H
	DB	08eH
	DB	0d8H
	DB	0c4H
	DB	098H
	DB	08aH
	DB	0d8H
	DB	0c4H
	DB	090H
	DB	08eH
	DB	0e0H
	DB	0ccH
	DB	098H
	DB	08aH
	DB	0e0H
	DB	0ccH
	DB	090H
	DB	082H
	DB	0e0H
	DB	0c4H
	DB	080H
	DB	045H
	DB	0f8H
	DB	0fcH
	DB	0f8H
	DB	00H
	DB	0f8H
	DB	0fcH
	DB	0f8H
	DB	00H
	DB	0f8H
	DB	0fcH
	DB	0f8H
	DB	00H
	DB	0f8H
	DB	0fcH
	DB	0f8H
	DB	00H
	DB	0f8H
	DB	0fcH
	DB	0f8H
	DB	00H
	DB	0f8H
	DB	0fcH
	DB	0f8H
	DB	00H
	DB	0f8H
	DB	0fcH
	DB	0f8H
	DB	00H
	DB	0f8H
	DB	0fcH
	DB	0f8H
	DB	00H
	DB	0f8H
	DB	0fcH
	DB	0f8H
	DB	00H
	DB	0f8H
	DB	0fcH
	DB	0f8H
	DB	00H
	DB	0f8H
	DB	0fcH
	DB	0f8H
	DB	00H
	DB	0f8H
	DB	0fcH
	DB	0f8H
	DB	00H
	DB	0f8H
	DB	0fcH
	DB	0f8H
	DB	00H
	DB	0f8H
	DB	0fcH
	DB	0f8H
	DB	00H
	DB	0f8H
	DB	0fcH
	DB	0f8H
	DB	00H
	DB	0f8H
	DB	0fcH
	DB	0f8H
	DB	00H
	DB	0f8H
	DB	0fcH
	DB	0f8H
	DB	00H
	DB	0f8H
	DB	0fcH
	DB	0f8H
	DB	00H
	DB	0f8H
	DB	0fcH
	DB	0f8H
	DB	00H
	DB	0f8H
	DB	0fcH
	DB	0f8H
	DB	00H
	DB	0f8H
	DB	0fcH
	DB	0f8H
	DB	00H
	DB	0f8H
	DB	0fcH
	DB	0f8H
	DB	00H
	DB	0f8H
	DB	0fcH
	DB	0f8H
	DB	00H
	DB	0f8H
	DB	0fcH
	DB	0f8H
	DB	00H
	DB	0f8H
	DB	0fcH
	DB	0f8H
	DB	00H
	DB	0f8H
	DB	0fcH
	DB	0f8H
	DB	00H
	DB	0f8H
	DB	0fcH
	DB	0f8H
	DB	00H
	DB	0f8H
	DB	0fcH
	DB	0f8H
	DB	00H
	DB	0f8H
	DB	0fcH
	DB	0f8H
	DB	00H
	DB	0f8H
	DB	0fcH
	DB	0f8H
	DB	00H
	DB	0f8H
	DB	0fcH
	DB	0f8H
	DB	00H
	DB	0f8H
	DB	0fcH
	DB	0f8H
	DB	00H
	DB	0f8H
	DB	0fcH
	DB	0f8H
	DB	00H
	DB	0f8H
	DB	0fcH
	DB	0f8H
	DB	00H
	DB	0f8H
	DB	0fcH
	DB	0f8H
	DB	00H
	DB	0f8H
	DB	0fcH
	DB	0f8H
	DB	00H
	DB	0f8H
	DB	0fcH
	DB	0f8H
	DB	00H
	DB	0f8H
	DB	0fcH
	DB	0f8H
	DB	00H
	DB	0f8H
	DB	0fcH
	DB	0f8H
	DB	00H
	DB	0f8H
	DB	0fcH
	DB	0f8H
	DB	00H
	DB	0f8H
	DB	0fcH
	DB	0f8H
	DB	00H
	DB	0f8H
	DB	0fcH
	DB	0f8H
	DB	00H
	DB	0f8H
	DB	0fcH
	DB	0f8H
	DB	00H
	DB	0f8H
	DB	0fcH
	DB	0f8H
	DB	00H
	DB	0f8H
	DB	0fcH
	DB	0f8H
	DB	00H
	DB	0f8H
	DB	0fcH
	DB	0f8H
	DB	00H
	DB	0f8H
	DB	0fcH
	DB	0f8H
	DB	00H
	DB	0f8H
	DB	0fcH
	DB	0f8H
	DB	00H
	DB	0f8H
	DB	0fcH
	DB	0f8H
	DB	00H
	DB	0f8H
	DB	0fcH
	DB	0f8H
	DB	00H
	DB	0f8H
	DB	0fcH
	DB	0f8H
	DB	00H
	DB	0f8H
	DB	0fcH
	DB	0f8H
	DB	00H
	DB	0f8H
	DB	0fcH
	DB	0f8H
	DB	00H
	DB	0f8H
	DB	0fcH
	DB	0f8H
	DB	00H
	DB	0f8H
	DB	0fcH
	DB	0f8H
	DB	00H
	DB	0f8H
	DB	0fcH
	DB	0f8H
	DB	00H
	DB	0f8H
	DB	0fcH
	DB	0f8H
	DB	00H
	DB	0f8H
	DB	0fcH
	DB	0f8H
	DB	00H
	DB	0f8H
	DB	0fcH
	DB	0f8H
	DB	00H
	DB	0f8H
	DB	0fcH
	DB	0f8H
	DB	00H
	DB	0f8H
	DB	0fcH
	DB	0f8H
	DB	00H
	DB	0f8H
	DB	0fcH
	DB	0f8H
	DB	00H
	DB	0f8H
	DB	0fcH
	DB	0f8H
	DB	00H
	DB	0f8H
	DB	0fcH
	DB	0f8H
	DB	00H
	DB	0f8H
	DB	0fcH
	DB	0f8H
	DB	00H
	DB	0f8H
	DB	0fcH
	DB	0f8H
	DB	00H
	DB	0f8H
	DB	0fcH
	DB	0f8H
	DB	00H
	DB	0f8H
	DB	0fcH
	DB	0f8H
	DB	00H
	DB	0f8H
	DB	0fcH
	DB	0f8H
	DB	00H
	DB	0f8H
	DB	0fcH
	DB	0f8H
	DB	00H
	DB	0f8H
	DB	0fcH
	DB	0f8H
	DB	00H
	DB	0f8H
	DB	0fcH
	DB	0f8H
	DB	00H
	DB	0f8H
	DB	0fcH
	DB	0f8H
	DB	00H
	DB	0f8H
	DB	0fcH
	DB	0f8H
	DB	00H
	DB	0f8H
	DB	0fcH
	DB	0f8H
	DB	00H
	DB	0f8H
	DB	0fcH
	DB	0f8H
	DB	00H
	DB	0f8H
	DB	0fcH
	DB	0f8H
	DB	00H
	DB	0f8H
	DB	0fcH
	DB	0f8H
	DB	00H
	DB	0f8H
	DB	0fcH
	DB	0f8H
	DB	00H
	DB	0f8H
	DB	0fcH
	DB	0f8H
	DB	00H
	DB	0f8H
	DB	0fcH
	DB	0f8H
	DB	00H
	DB	0f8H
	DB	0fcH
	DB	0f8H
	DB	00H
	DB	0f8H
	DB	0fcH
	DB	0f8H
	DB	00H
	DB	0f8H
	DB	0fcH
	DB	0f8H
	DB	00H
	DB	0f8H
	DB	0fcH
	DB	0f8H
	DB	00H
	DB	0f8H
	DB	0fcH
	DB	0f8H
	DB	00H
	DB	0f8H
	DB	0fcH
	DB	0f8H
	DB	00H
	DB	0f8H
	DB	0fcH
	DB	0f8H
	DB	00H
	DB	0f8H
	DB	0fcH
	DB	0f8H
	DB	00H
	DB	0f8H
	DB	0fcH
	DB	0f8H
	DB	00H
	DB	0f8H
	DB	0fcH
	DB	0f8H
	DB	00H
	DB	0f8H
	DB	0fcH
	DB	0f8H
	DB	00H
	DB	0f8H
	DB	0fcH
	DB	0f8H
	DB	00H
	DB	0f8H
	DB	0fcH
	DB	0f8H
	DB	00H
	DB	0f8H
	DB	0fcH
	DB	0f8H
	DB	00H
	DB	0f8H
	DB	0fcH
	DB	0f8H
	DB	00H
	DB	0f8H
	DB	0fcH
	DB	0f8H
	DB	00H
	DB	0f8H
	DB	0fcH
	DB	0f8H
	DB	00H
	DB	0f8H
	DB	0fcH
	DB	0f8H
	DB	00H
	DB	0f8H
	DB	0fcH
	DB	0f8H
	DB	00H
	DB	0f8H
	DB	0fcH
	DB	0f8H
	DB	00H
	DB	0f8H
	DB	0fcH
	DB	0f8H
	DB	00H
	DB	0f8H
	DB	0fcH
	DB	0f8H
	DB	00H
	DB	0f8H
	DB	0fcH
	DB	0f8H
	DB	00H
	DB	0f8H
	DB	0fcH
	DB	0f8H
	DB	00H
	DB	0f8H
	DB	0fcH
	DB	0f8H
	DB	00H
	DB	0b8H
	DB	094H
	DB	040H
	DB	03cH
	DB	0b8H
	DB	090H
	DB	030H
	DB	059H
	DB	0b8H
	DB	094H
	DB	030H
	DB	05dH
	DB	0b8H
	DB	094H
	DB	040H
	DB	069H
	DB	0b8H
	DB	098H
	DB	048H
	DB	069H
	DB	0b8H
	DB	09cH
	DB	048H
	DB	06dH
	DB	0b8H
	DB	0a0H
	DB	050H
	DB	069H
	DB	0c0H
	DB	0a0H
	DB	058H
	DB	069H
	DB	0c0H
	DB	0a4H
	DB	058H
	DB	06dH
	DB	0c0H
	DB	0a4H
	DB	050H
	DB	06dH
	DB	0c0H
	DB	0a4H
	DB	050H
	DB	06dH
	DB	0c0H
	DB	0a4H
	DB	058H
	DB	06dH
	DB	0c0H
	DB	0a4H
	DB	058H
	DB	06dH
	DB	0c0H
	DB	0a8H
	DB	058H
	DB	06dH
	DB	0c0H
	DB	0a8H
	DB	058H
	DB	06dH
	DB	0c8H
	DB	0acH
	DB	060H
	DB	06dH
	DB	0c8H
	DB	0acH
	DB	060H
	DB	06dH
	DB	0c0H
	DB	0acH
	DB	060H
	DB	06dH
	DB	0c8H
	DB	0acH
	DB	060H
	DB	071H
	DB	0c8H
	DB	0acH
	DB	060H
	DB	071H
	DB	0c8H
	DB	0acH
	DB	060H
	DB	06dH
	DB	0c0H
	DB	0acH
	DB	060H
	DB	071H
	DB	0c8H
	DB	0acH
	DB	060H
	DB	071H
	DB	0c8H
	DB	0acH
	DB	060H
	DB	071H
	DB	0c8H
	DB	0acH
	DB	060H
	DB	071H
	DB	0c8H
	DB	0acH
	DB	060H
	DB	071H
	DB	0c8H
	DB	0acH
	DB	060H
	DB	071H
	DB	0c8H
	DB	0acH
	DB	060H
	DB	071H
	DB	0c8H
	DB	0acH
	DB	060H
	DB	075H
	DB	0c8H
	DB	0b0H
	DB	060H
	DB	075H
	DB	0c8H
	DB	0b0H
	DB	060H
	DB	071H
	DB	0c0H
	DB	0acH
	DB	060H
	DB	075H
	DB	0c8H
	DB	0acH
	DB	060H
	DB	075H
	DB	0c8H
	DB	0acH
	DB	060H
	DB	075H
	DB	0c0H
	DB	0b0H
	DB	068H
	DB	075H
	DB	0c8H
	DB	0b0H
	DB	060H
	DB	075H
	DB	0c8H
	DB	0b0H
	DB	060H
	DB	075H
	DB	0c8H
	DB	0b0H
	DB	068H
	DB	075H
	DB	0c8H
	DB	0acH
	DB	060H
	DB	075H
	DB	0c8H
	DB	0b0H
	DB	060H
	DB	079H
	DB	0c8H
	DB	0acH
	DB	060H
	DB	075H
	DB	0c8H
	DB	0b4H
	DB	068H
	DB	075H
	DB	0c8H
	DB	0b0H
	DB	068H
	DB	079H
	DB	0c8H
	DB	0b0H
	DB	068H
	DB	079H
	DB	0c8H
	DB	0b0H
	DB	060H
	DB	079H
	DB	0c8H
	DB	0b0H
	DB	060H
	DB	079H
	DB	0d0H
	DB	0b4H
	DB	068H
	DB	079H
	DB	0c8H
	DB	0b0H
	DB	060H
	DB	079H
	DB	0c0H
	DB	0a8H
	DB	058H
	DB	079H
	DB	0c0H
	DB	0a8H
	DB	058H
	DB	07dH
	DB	0c0H
	DB	0a8H
	DB	058H
	DB	079H
	DB	0c0H
	DB	0a8H
	DB	058H
	DB	079H
	DB	0c0H
	DB	0a8H
	DB	058H
	DB	07dH
	DB	0c8H
	DB	0b0H
	DB	060H
	DB	07dH
	DB	0c8H
	DB	0b0H
	DB	060H
	DB	07dH
	DB	0c8H
	DB	0b4H
	DB	060H
	DB	07dH
	DB	0c8H
	DB	0b0H
	DB	060H
	DB	07dH
	DB	0c8H
	DB	0b0H
	DB	060H
	DB	07dH
	DB	0c8H
	DB	0b0H
	DB	060H
	DB	07dH
	DB	0c8H
	DB	0b4H
	DB	068H
	DB	082H
	DB	0c8H
	DB	0b4H
	DB	068H
	DB	07dH
	DB	0d0H
	DB	0b4H
	DB	068H
	DB	082H
	DB	0d0H
	DB	0b8H
	DB	068H
	DB	082H
	DB	0c8H
	DB	0b4H
	DB	068H
	DB	07dH
	DB	0d0H
	DB	0b4H
	DB	068H
	DB	082H
	DB	0d0H
	DB	0b8H
	DB	068H
	DB	082H
	DB	0d0H
	DB	0b8H
	DB	070H
	DB	082H
	DB	0d0H
	DB	0bcH
	DB	070H
	DB	082H
	DB	0d0H
	DB	0b8H
	DB	070H
	DB	082H
	DB	0d0H
	DB	0bcH
	DB	070H
	DB	082H
	DB	0d0H
	DB	0b8H
	DB	070H
	DB	082H
	DB	0d0H
	DB	0bcH
	DB	070H
	DB	086H
	DB	0d8H
	DB	0bcH
	DB	070H
	DB	086H
	DB	0d8H
	DB	0bcH
	DB	078H
	DB	082H
	DB	0d0H
	DB	0c0H
	DB	078H
	DB	086H
	DB	0d8H
	DB	0c4H
	DB	088H
	DB	086H
	DB	0e0H
	DB	0d0H
	DB	098H
	DB	082H
	DB	0e8H
	DB	0d4H
	DB	0a8H
	DB	086H
	DB	0e8H
	DB	0d4H
	DB	0a8H
	DB	086H
	DB	0e8H
	DB	0d4H
	DB	0a8H
	DB	086H
	DB	0d8H
	DB	0c4H
	DB	088H
	DB	086H
	DB	0d8H
	DB	0c4H
	DB	088H
	DB	086H
	DB	0d8H
	DB	0c4H
	DB	088H
	DB	08aH
	DB	0d8H
	DB	0c8H
	DB	088H
	DB	08aH
	DB	0e0H
	DB	0c8H
	DB	088H
	DB	086H
	DB	0d8H
	DB	0c8H
	DB	088H
	DB	08aH
	DB	0d8H
	DB	0c8H
	DB	090H
	DB	086H
	DB	0e0H
	DB	0c8H
	DB	088H
	DB	08aH
	DB	0d8H
	DB	0c8H
	DB	088H
	DB	08aH
	DB	0d8H
	DB	0c8H
	DB	088H
	DB	08aH
	DB	0d8H
	DB	0c8H
	DB	088H
	DB	08aH
	DB	0e0H
	DB	0c8H
	DB	088H
	DB	08eH
	DB	0d8H
	DB	0c8H
	DB	088H
	DB	08aH
	DB	0d8H
	DB	0c8H
	DB	088H
	DB	08eH
	DB	0e0H
	DB	0c8H
	DB	088H
	DB	08aH
	DB	0d8H
	DB	0c8H
	DB	088H
	DB	08aH
	DB	0d0H
	DB	0c0H
	DB	088H
	DB	08eH
	DB	0e8H
	DB	0d8H
	DB	0a0H
	DB	08eH
	DB	0e8H
	DB	0d8H
	DB	0a0H
	DB	08eH
	DB	0d8H
	DB	0c4H
	DB	088H
	DB	08aH
	DB	0e0H
	DB	0c8H
	DB	090H
	DB	08eH
	DB	0e0H
	DB	0c8H
	DB	088H
	DB	08eH
	DB	0d8H
	DB	0c8H
	DB	088H
	DB	08aH
	DB	0d8H
	DB	0c8H
	DB	080H
	DB	08eH
	DB	0d8H
	DB	0c4H
	DB	080H
	DB	08eH
	DB	0d8H
	DB	0c4H
	DB	080H
	DB	08eH
	DB	0d8H
	DB	0c0H
	DB	078H
	DB	08eH
	DB	0d8H
	DB	0c0H
	DB	078H
	DB	08eH
	DB	0d8H
	DB	0c4H
	DB	080H
	DB	08eH
	DB	0d8H
	DB	0c4H
	DB	080H
	DB	08eH
	DB	0d8H
	DB	0c0H
	DB	078H
	DB	08eH
	DB	0e0H
	DB	0d0H
	DB	088H
	DB	08eH
	DB	0e8H
	DB	0d0H
	DB	098H
	DB	08eH
	DB	0e0H
	DB	0d0H
	DB	098H
	DB	08eH
	DB	0e0H
	DB	0ccH
	DB	098H
	DB	08eH
	DB	0e0H
	DB	0d0H
	DB	098H
	DB	08eH
	DB	0e0H
	DB	0d0H
	DB	098H
	DB	08eH
	DB	0d8H
	DB	0c8H
	DB	088H
	DB	08eH
	DB	0d8H
	DB	0c8H
	DB	088H
	DB	08eH
	DB	0d8H
	DB	0c4H
	DB	088H
	DB	08eH
	DB	0d8H
	DB	0c4H
	DB	088H
	DB	08eH
	DB	0d8H
	DB	0c4H
	DB	080H
	DB	08eH
	DB	0d8H
	DB	0c4H
	DB	080H
	DB	08eH
	DB	0d8H
	DB	0c8H
	DB	088H
	DB	08eH
	DB	0d8H
	DB	0c8H
	DB	088H
	DB	08eH
	DB	0d8H
	DB	0c8H
	DB	080H
	DB	08eH
	DB	0d8H
	DB	0c4H
	DB	088H
	DB	08eH
	DB	0e0H
	DB	0c8H
	DB	080H
	DB	08eH
	DB	0d8H
	DB	0c8H
	DB	088H
	DB	08eH
	DB	0d8H
	DB	0c4H
	DB	080H
	DB	08eH
	DB	0d8H
	DB	0c8H
	DB	080H
	DB	08eH
	DB	0d8H
	DB	0c8H
	DB	080H
	DB	08eH
	DB	0d8H
	DB	0c8H
	DB	080H
	DB	08eH
	DB	0d8H
	DB	0c8H
	DB	080H
	DB	08eH
	DB	0d8H
	DB	0c4H
	DB	080H
	DB	08eH
	DB	0d8H
	DB	0c4H
	DB	078H
	DB	08eH
	DB	0d8H
	DB	0ccH
	DB	090H
	DB	08eH
	DB	0d8H
	DB	0c8H
	DB	090H
	DB	08eH
	DB	0d8H
	DB	0c8H
	DB	090H
	DB	08eH
	DB	0d8H
	DB	0c8H
	DB	090H
	DB	08eH
	DB	0e0H
	DB	0ccH
	DB	098H
	DB	08eH
	DB	0e0H
	DB	0c8H
	DB	088H
	DB	08eH
	DB	0c8H
	DB	0bcH
	DB	070H
	DB	08eH
	DB	0d0H
	DB	0bcH
	DB	070H
	DB	08eH
	DB	0d8H
	DB	0c4H
	DB	080H
	DB	08eH
	DB	0d0H
	DB	0c0H
	DB	078H
	DB	08eH
	DB	0d8H
	DB	0c0H
	DB	070H
	DB	08aH
	DB	0d8H
	DB	0c0H
	DB	078H
	DB	08eH
	DB	0d8H
	DB	0bcH
	DB	070H
	DB	08eH
	DB	0d8H
	DB	0c0H
	DB	070H
	DB	08eH
	DB	0c8H
	DB	0b4H
	DB	068H
	DB	08aH
	DB	0d0H
	DB	0c0H
	DB	078H
	DB	08eH
	DB	0e0H
	DB	0ccH
	DB	090H
	DB	08aH
	DB	0d8H
	DB	0c8H
	DB	088H
	DB	08aH
	DB	0d8H
	DB	0c4H
	DB	088H
	DB	08eH
	DB	0d8H
	DB	0c4H
	DB	088H
	DB	08eH
	DB	0e0H
	DB	0d0H
	DB	090H
	DB	08aH
	DB	0d8H
	DB	0c8H
	DB	088H
	DB	08aH
	DB	0e0H
	DB	0ccH
	DB	080H
	DB	08aH
	DB	0d0H
	DB	0b8H
	DB	068H
	DB	079H
	DB	0c8H
	DB	0b0H
	DB	068H
	DB	034H
	DB	0f8H
	DB	0fcH
	DB	0f8H
	DB	00H
	DB	0f8H
	DB	0fcH
	DB	0f8H
	DB	00H
	DB	0f8H
	DB	0fcH
	DB	0f8H
	DB	00H
	DB	0f8H
	DB	0fcH
	DB	0f8H
	DB	00H
	DB	0f8H
	DB	0fcH
	DB	0f8H
	DB	00H
	DB	0f8H
	DB	0fcH
	DB	0f8H
	DB	00H
	DB	0f8H
	DB	0fcH
	DB	0f8H
	DB	00H
	DB	0f8H
	DB	0fcH
	DB	0f8H
	DB	00H
	DB	0f8H
	DB	0fcH
	DB	0f8H
	DB	00H
	DB	0f8H
	DB	0fcH
	DB	0f8H
	DB	00H
	DB	0f8H
	DB	0fcH
	DB	0f8H
	DB	00H
	DB	0f8H
	DB	0fcH
	DB	0f8H
	DB	00H
	DB	0f8H
	DB	0fcH
	DB	0f8H
	DB	00H
	DB	0f8H
	DB	0fcH
	DB	0f8H
	DB	00H
	DB	0f8H
	DB	0fcH
	DB	0f8H
	DB	00H
	DB	0f8H
	DB	0fcH
	DB	0f8H
	DB	00H
	DB	0f8H
	DB	0fcH
	DB	0f8H
	DB	00H
	DB	0f8H
	DB	0fcH
	DB	0f8H
	DB	00H
	DB	0f8H
	DB	0fcH
	DB	0f8H
	DB	00H
	DB	0f8H
	DB	0fcH
	DB	0f8H
	DB	00H
	DB	0f8H
	DB	0fcH
	DB	0f8H
	DB	00H
	DB	0f8H
	DB	0fcH
	DB	0f8H
	DB	00H
	DB	0f8H
	DB	0fcH
	DB	0f8H
	DB	00H
	DB	0f8H
	DB	0fcH
	DB	0f8H
	DB	00H
	DB	0f8H
	DB	0fcH
	DB	0f8H
	DB	00H
	DB	0f8H
	DB	0fcH
	DB	0f8H
	DB	00H
	DB	0f8H
	DB	0fcH
	DB	0f8H
	DB	00H
	DB	0f8H
	DB	0fcH
	DB	0f8H
	DB	00H
	DB	0f8H
	DB	0fcH
	DB	0f8H
	DB	00H
	DB	0f8H
	DB	0fcH
	DB	0f8H
	DB	00H
	DB	0f8H
	DB	0fcH
	DB	0f8H
	DB	00H
	DB	0f8H
	DB	0fcH
	DB	0f8H
	DB	00H
	DB	0f8H
	DB	0fcH
	DB	0f8H
	DB	00H
	DB	0f8H
	DB	0fcH
	DB	0f8H
	DB	00H
	DB	0f8H
	DB	0fcH
	DB	0f8H
	DB	00H
	DB	0f8H
	DB	0fcH
	DB	0f8H
	DB	00H
	DB	0f8H
	DB	0fcH
	DB	0f8H
	DB	00H
	DB	0f8H
	DB	0fcH
	DB	0f8H
	DB	00H
	DB	0f8H
	DB	0fcH
	DB	0f8H
	DB	00H
	DB	0f8H
	DB	0fcH
	DB	0f8H
	DB	00H
	DB	0f8H
	DB	0fcH
	DB	0f8H
	DB	00H
	DB	0f8H
	DB	0fcH
	DB	0f8H
	DB	00H
	DB	0f8H
	DB	0fcH
	DB	0f8H
	DB	00H
	DB	0f8H
	DB	0fcH
	DB	0f8H
	DB	00H
	DB	0f8H
	DB	0fcH
	DB	0f8H
	DB	00H
	DB	0f8H
	DB	0fcH
	DB	0f8H
	DB	00H
	DB	0f8H
	DB	0fcH
	DB	0f8H
	DB	00H
	DB	0f8H
	DB	0fcH
	DB	0f8H
	DB	00H
	DB	0f8H
	DB	0fcH
	DB	0f8H
	DB	00H
	DB	0f8H
	DB	0fcH
	DB	0f8H
	DB	00H
	DB	0f8H
	DB	0fcH
	DB	0f8H
	DB	00H
	DB	0f8H
	DB	0fcH
	DB	0f8H
	DB	00H
	DB	0f8H
	DB	0fcH
	DB	0f8H
	DB	00H
	DB	0f8H
	DB	0fcH
	DB	0f8H
	DB	00H
	DB	0f8H
	DB	0fcH
	DB	0f8H
	DB	00H
	DB	0f8H
	DB	0fcH
	DB	0f8H
	DB	00H
	DB	0f8H
	DB	0fcH
	DB	0f8H
	DB	00H
	DB	0f8H
	DB	0fcH
	DB	0f8H
	DB	00H
	DB	0f8H
	DB	0fcH
	DB	0f8H
	DB	00H
	DB	0f8H
	DB	0fcH
	DB	0f8H
	DB	00H
	DB	0f8H
	DB	0fcH
	DB	0f8H
	DB	00H
	DB	0f8H
	DB	0fcH
	DB	0f8H
	DB	00H
	DB	0f8H
	DB	0fcH
	DB	0f8H
	DB	00H
	DB	0f8H
	DB	0fcH
	DB	0f8H
	DB	00H
	DB	0f8H
	DB	0fcH
	DB	0f8H
	DB	00H
	DB	0f8H
	DB	0fcH
	DB	0f8H
	DB	00H
	DB	0f8H
	DB	0fcH
	DB	0f8H
	DB	00H
	DB	0f8H
	DB	0fcH
	DB	0f8H
	DB	00H
	DB	0f8H
	DB	0fcH
	DB	0f8H
	DB	00H
	DB	0f8H
	DB	0fcH
	DB	0f8H
	DB	00H
	DB	0f8H
	DB	0fcH
	DB	0f8H
	DB	00H
	DB	0f8H
	DB	0fcH
	DB	0f8H
	DB	00H
	DB	0f8H
	DB	0fcH
	DB	0f8H
	DB	00H
	DB	0f8H
	DB	0fcH
	DB	0f8H
	DB	00H
	DB	0f8H
	DB	0fcH
	DB	0f8H
	DB	00H
	DB	0f8H
	DB	0fcH
	DB	0f8H
	DB	00H
	DB	0f8H
	DB	0fcH
	DB	0f8H
	DB	00H
	DB	0f8H
	DB	0fcH
	DB	0f8H
	DB	00H
	DB	0f8H
	DB	0fcH
	DB	0f8H
	DB	00H
	DB	0f8H
	DB	0fcH
	DB	0f8H
	DB	00H
	DB	0f8H
	DB	0fcH
	DB	0f8H
	DB	00H
	DB	0f8H
	DB	0fcH
	DB	0f8H
	DB	00H
	DB	0f8H
	DB	0fcH
	DB	0f8H
	DB	00H
	DB	0f8H
	DB	0fcH
	DB	0f8H
	DB	00H
	DB	0f8H
	DB	0fcH
	DB	0f8H
	DB	00H
	DB	0f8H
	DB	0fcH
	DB	0f8H
	DB	00H
	DB	0f8H
	DB	0fcH
	DB	0f8H
	DB	00H
	DB	0f8H
	DB	0fcH
	DB	0f8H
	DB	00H
	DB	0f8H
	DB	0fcH
	DB	0f8H
	DB	00H
	DB	0f8H
	DB	0fcH
	DB	0f8H
	DB	00H
	DB	0f8H
	DB	0fcH
	DB	0f8H
	DB	00H
	DB	0f8H
	DB	0fcH
	DB	0f8H
	DB	00H
	DB	0f8H
	DB	0fcH
	DB	0f8H
	DB	00H
	DB	0f8H
	DB	0fcH
	DB	0f8H
	DB	00H
	DB	0f8H
	DB	0fcH
	DB	0f8H
	DB	00H
	DB	0f8H
	DB	0fcH
	DB	0f8H
	DB	00H
	DB	0f8H
	DB	0fcH
	DB	0f8H
	DB	00H
	DB	0f8H
	DB	0fcH
	DB	0f8H
	DB	00H
	DB	0f8H
	DB	0fcH
	DB	0f8H
	DB	00H
	DB	0f8H
	DB	0fcH
	DB	0f8H
	DB	00H
	DB	0f8H
	DB	0fcH
	DB	0f8H
	DB	00H
	DB	0f8H
	DB	0fcH
	DB	0f8H
	DB	00H
	DB	0f8H
	DB	0fcH
	DB	0f8H
	DB	00H
	DB	0f8H
	DB	0fcH
	DB	0f8H
	DB	00H
	DB	0b8H
	DB	094H
	DB	040H
	DB	051H
	DB	0b8H
	DB	090H
	DB	030H
	DB	05dH
	DB	0b8H
	DB	090H
	DB	030H
	DB	059H
	DB	0b8H
	DB	094H
	DB	040H
	DB	06dH
	DB	0b8H
	DB	098H
	DB	048H
	DB	069H
	DB	0b8H
	DB	09cH
	DB	048H
	DB	06dH
	DB	0b8H
	DB	09cH
	DB	050H
	DB	06dH
	DB	0b8H
	DB	09cH
	DB	050H
	DB	069H
	DB	0b8H
	DB	0a0H
	DB	050H
	DB	06dH
	DB	0c0H
	DB	0a4H
	DB	050H
	DB	06dH
	DB	0b8H
	DB	0a4H
	DB	058H
	DB	06dH
	DB	0c0H
	DB	0a4H
	DB	050H
	DB	06dH
	DB	0c0H
	DB	0a4H
	DB	050H
	DB	06dH
	DB	0c0H
	DB	0a4H
	DB	058H
	DB	06dH
	DB	0c0H
	DB	0a8H
	DB	058H
	DB	06dH
	DB	0c8H
	DB	0a8H
	DB	060H
	DB	06dH
	DB	0c8H
	DB	0acH
	DB	060H
	DB	06dH
	DB	0c8H
	DB	0acH
	DB	060H
	DB	06dH
	DB	0c8H
	DB	0acH
	DB	060H
	DB	071H
	DB	0c8H
	DB	0acH
	DB	060H
	DB	06dH
	DB	0c8H
	DB	0acH
	DB	060H
	DB	071H
	DB	0c0H
	DB	0a8H
	DB	058H
	DB	071H
	DB	0c0H
	DB	0a8H
	DB	058H
	DB	06dH
	DB	0c0H
	DB	0acH
	DB	058H
	DB	071H
	DB	0c0H
	DB	0acH
	DB	060H
	DB	071H
	DB	0c0H
	DB	0acH
	DB	060H
	DB	071H
	DB	0c8H
	DB	0acH
	DB	060H
	DB	071H
	DB	0c8H
	DB	0acH
	DB	060H
	DB	071H
	DB	0c8H
	DB	0acH
	DB	060H
	DB	071H
	DB	0c8H
	DB	0b0H
	DB	060H
	DB	075H
	DB	0c8H
	DB	0acH
	DB	060H
	DB	071H
	DB	0c0H
	DB	0b0H
	DB	060H
	DB	071H
	DB	0c8H
	DB	0b0H
	DB	068H
	DB	075H
	DB	0c8H
	DB	0b0H
	DB	068H
	DB	075H
	DB	0c8H
	DB	0b0H
	DB	068H
	DB	075H
	DB	0c8H
	DB	0b0H
	DB	060H
	DB	075H
	DB	0c8H
	DB	0b0H
	DB	068H
	DB	075H
	DB	0c8H
	DB	0b4H
	DB	068H
	DB	075H
	DB	0c8H
	DB	0b4H
	DB	068H
	DB	075H
	DB	0d0H
	DB	0b8H
	DB	070H
	DB	079H
	DB	0d8H
	DB	0c4H
	DB	088H
	DB	079H
	DB	0c8H
	DB	0acH
	DB	068H
	DB	075H
	DB	0c8H
	DB	0b4H
	DB	060H
	DB	079H
	DB	0c8H
	DB	0b0H
	DB	068H
	DB	079H
	DB	0d0H
	DB	0b4H
	DB	070H
	DB	079H
	DB	0c0H
	DB	0a8H
	DB	060H
	DB	079H
	DB	0c0H
	DB	0a8H
	DB	058H
	DB	079H
	DB	0c8H
	DB	0acH
	DB	060H
	DB	079H
	DB	0d0H
	DB	0b4H
	DB	068H
	DB	079H
	DB	0c8H
	DB	0acH
	DB	058H
	DB	07dH
	DB	0c0H
	DB	0a8H
	DB	058H
	DB	07dH
	DB	0c0H
	DB	0a8H
	DB	058H
	DB	079H
	DB	0c0H
	DB	0a8H
	DB	058H
	DB	07dH
	DB	0c8H
	DB	0b0H
	DB	060H
	DB	07dH
	DB	0c8H
	DB	0b4H
	DB	068H
	DB	07dH
	DB	0c8H
	DB	0b0H
	DB	060H
	DB	07dH
	DB	0c8H
	DB	0b0H
	DB	060H
	DB	07dH
	DB	0c8H
	DB	0b0H
	DB	060H
	DB	07dH
	DB	0c8H
	DB	0b0H
	DB	060H
	DB	07dH
	DB	0c8H
	DB	0b0H
	DB	060H
	DB	082H
	DB	0c8H
	DB	0b0H
	DB	068H
	DB	07dH
	DB	0c8H
	DB	0b4H
	DB	068H
	DB	082H
	DB	0d0H
	DB	0b4H
	DB	068H
	DB	082H
	DB	0d0H
	DB	0b8H
	DB	070H
	DB	07dH
	DB	0d0H
	DB	0b8H
	DB	070H
	DB	082H
	DB	0d0H
	DB	0b8H
	DB	070H
	DB	082H
	DB	0d0H
	DB	0b8H
	DB	070H
	DB	082H
	DB	0d0H
	DB	0bcH
	DB	070H
	DB	082H
	DB	0d0H
	DB	0b8H
	DB	070H
	DB	082H
	DB	0d0H
	DB	0b8H
	DB	070H
	DB	082H
	DB	0d0H
	DB	0b8H
	DB	070H
	DB	082H
	DB	0d0H
	DB	0bcH
	DB	070H
	DB	082H
	DB	0d0H
	DB	0bcH
	DB	070H
	DB	086H
	DB	0d0H
	DB	0bcH
	DB	070H
	DB	082H
	DB	0d0H
	DB	0bcH
	DB	070H
	DB	086H
	DB	0d0H
	DB	0bcH
	DB	078H
	DB	086H
	DB	0d8H
	DB	0c4H
	DB	088H
	DB	086H
	DB	0e8H
	DB	0d4H
	DB	0a0H
	DB	086H
	DB	0e8H
	DB	0dcH
	DB	0a8H
	DB	086H
	DB	0e8H
	DB	0dcH
	DB	0a8H
	DB	086H
	DB	0e0H
	DB	0ccH
	DB	098H
	DB	086H
	DB	0d8H
	DB	0c0H
	DB	088H
	DB	086H
	DB	0d8H
	DB	0c4H
	DB	080H
	DB	08aH
	DB	0d8H
	DB	0c8H
	DB	088H
	DB	086H
	DB	0e0H
	DB	0c8H
	DB	088H
	DB	086H
	DB	0e0H
	DB	0c8H
	DB	090H
	DB	08aH
	DB	0d8H
	DB	0c8H
	DB	088H
	DB	08aH
	DB	0d8H
	DB	0c8H
	DB	088H
	DB	08aH
	DB	0d8H
	DB	0c8H
	DB	088H
	DB	08aH
	DB	0d8H
	DB	0c4H
	DB	088H
	DB	08aH
	DB	0e0H
	DB	0c4H
	DB	088H
	DB	08aH
	DB	0d8H
	DB	0c4H
	DB	088H
	DB	08aH
	DB	0d8H
	DB	0c8H
	DB	088H
	DB	08aH
	DB	0d8H
	DB	0c8H
	DB	088H
	DB	08aH
	DB	0e0H
	DB	0c8H
	DB	088H
	DB	08eH
	DB	0d8H
	DB	0c8H
	DB	088H
	DB	08aH
	DB	0d8H
	DB	0c4H
	DB	088H
	DB	08aH
	DB	0e0H
	DB	0d0H
	DB	098H
	DB	08eH
	DB	0e0H
	DB	0ccH
	DB	090H
	DB	08eH
	DB	0d8H
	DB	0c8H
	DB	090H
	DB	08eH
	DB	0d8H
	DB	0c8H
	DB	090H
	DB	08aH
	DB	0e0H
	DB	0ccH
	DB	090H
	DB	08eH
	DB	0e0H
	DB	0ccH
	DB	090H
	DB	08eH
	DB	0d8H
	DB	0c8H
	DB	088H
	DB	08eH
	DB	0d8H
	DB	0c4H
	DB	080H
	DB	08eH
	DB	0d8H
	DB	0c4H
	DB	080H
	DB	08eH
	DB	0d8H
	DB	0c4H
	DB	080H
	DB	08eH
	DB	0d8H
	DB	0c4H
	DB	080H
	DB	08eH
	DB	0d8H
	DB	0c4H
	DB	080H
	DB	08eH
	DB	0d8H
	DB	0c4H
	DB	080H
	DB	08eH
	DB	0d8H
	DB	0c4H
	DB	080H
	DB	08eH
	DB	0e0H
	DB	0ccH
	DB	088H
	DB	08eH
	DB	0d8H
	DB	0c8H
	DB	088H
	DB	08eH
	DB	0d8H
	DB	0c4H
	DB	088H
	DB	08eH
	DB	0d8H
	DB	0ccH
	DB	090H
	DB	08eH
	DB	0d8H
	DB	0c8H
	DB	088H
	DB	08eH
	DB	0e0H
	DB	0c8H
	DB	090H
	DB	08eH
	DB	0e8H
	DB	0d0H
	DB	098H
	DB	08eH
	DB	0e8H
	DB	0d4H
	DB	098H
	DB	08eH
	DB	0d8H
	DB	0c8H
	DB	088H
	DB	08eH
	DB	0d8H
	DB	0c8H
	DB	088H
	DB	08eH
	DB	0d8H
	DB	0c4H
	DB	088H
	DB	08eH
	DB	0d8H
	DB	0c4H
	DB	080H
	DB	08eH
	DB	0d8H
	DB	0c8H
	DB	080H
	DB	08eH
	DB	0d8H
	DB	0c8H
	DB	088H
	DB	08eH
	DB	0d8H
	DB	0c8H
	DB	088H
	DB	08eH
	DB	0e0H
	DB	0c8H
	DB	080H
	DB	08eH
	DB	0d8H
	DB	0c8H
	DB	088H
	DB	08eH
	DB	0d8H
	DB	0c8H
	DB	088H
	DB	08eH
	DB	0d8H
	DB	0c4H
	DB	080H
	DB	08eH
	DB	0d8H
	DB	0c4H
	DB	080H
	DB	08eH
	DB	0d8H
	DB	0c8H
	DB	088H
	DB	08eH
	DB	0d8H
	DB	0c8H
	DB	088H
	DB	08eH
	DB	0d8H
	DB	0c8H
	DB	088H
	DB	08eH
	DB	0d8H
	DB	0c8H
	DB	080H
	DB	08eH
	DB	0d8H
	DB	0c4H
	DB	080H
	DB	08eH
	DB	0d8H
	DB	0c4H
	DB	080H
	DB	08eH
	DB	0d8H
	DB	0c8H
	DB	088H
	DB	08eH
	DB	0d8H
	DB	0c8H
	DB	090H
	DB	08eH
	DB	0d8H
	DB	0c0H
	DB	080H
	DB	08eH
	DB	0d8H
	DB	0c8H
	DB	088H
	DB	08eH
	DB	0d8H
	DB	0c8H
	DB	080H
	DB	08eH
	DB	0c8H
	DB	0b8H
	DB	068H
	DB	08eH
	DB	0d0H
	DB	0c0H
	DB	078H
	DB	08eH
	DB	0d8H
	DB	0c0H
	DB	078H
	DB	08eH
	DB	0d8H
	DB	0c0H
	DB	078H
	DB	08eH
	DB	0d8H
	DB	0c0H
	DB	078H
	DB	08aH
	DB	0d8H
	DB	0c4H
	DB	078H
	DB	08eH
	DB	0d8H
	DB	0c0H
	DB	078H
	DB	08eH
	DB	0d8H
	DB	0c0H
	DB	078H
	DB	08aH
	DB	0d0H
	DB	0b8H
	DB	068H
	DB	08aH
	DB	0d0H
	DB	0bcH
	DB	070H
	DB	08eH
	DB	0c8H
	DB	0b4H
	DB	070H
	DB	08eH
	DB	0d8H
	DB	0bcH
	DB	078H
	DB	08aH
	DB	0e8H
	DB	0d0H
	DB	090H
	DB	08aH
	DB	0d8H
	DB	0c0H
	DB	080H
	DB	08eH
	DB	0d0H
	DB	0bcH
	DB	070H
	DB	08aH
	DB	0d0H
	DB	0c0H
	DB	078H
	DB	08aH
	DB	0d8H
	DB	0c0H
	DB	070H
	DB	08eH
	DB	0c8H
	DB	0b4H
	DB	060H
	DB	08aH
	DB	0c8H
	DB	0b0H
	DB	060H
	DB	08aH
	DB	0d0H
	DB	0b4H
	DB	068H
	DB	071H
	DB	0c8H
	DB	0b0H
	DB	068H
	DB	020H
	DB	0f8H
	DB	0fcH
	DB	0f8H
	DB	00H
	DB	0f8H
	DB	0fcH
	DB	0f8H
	DB	00H
	DB	0f8H
	DB	0fcH
	DB	0f8H
	DB	00H
	DB	0f8H
	DB	0fcH
	DB	0f8H
	DB	00H
	DB	0f8H
	DB	0fcH
	DB	0f8H
	DB	00H
	DB	0f8H
	DB	0fcH
	DB	0f8H
	DB	00H
	DB	0f8H
	DB	0fcH
	DB	0f8H
	DB	00H
	DB	0f8H
	DB	0fcH
	DB	0f8H
	DB	00H
	DB	0f8H
	DB	0fcH
	DB	0f8H
	DB	00H
	DB	0f8H
	DB	0fcH
	DB	0f8H
	DB	00H
	DB	0f8H
	DB	0fcH
	DB	0f8H
	DB	00H
	DB	0f8H
	DB	0fcH
	DB	0f8H
	DB	00H
	DB	0f8H
	DB	0fcH
	DB	0f8H
	DB	00H
	DB	0f8H
	DB	0fcH
	DB	0f8H
	DB	00H
	DB	0f8H
	DB	0fcH
	DB	0f8H
	DB	00H
	DB	0f8H
	DB	0fcH
	DB	0f8H
	DB	00H
	DB	0f8H
	DB	0fcH
	DB	0f8H
	DB	00H
	DB	0f8H
	DB	0fcH
	DB	0f8H
	DB	00H
	DB	0f8H
	DB	0fcH
	DB	0f8H
	DB	00H
	DB	0f8H
	DB	0fcH
	DB	0f8H
	DB	00H
	DB	0f8H
	DB	0fcH
	DB	0f8H
	DB	00H
	DB	0f8H
	DB	0fcH
	DB	0f8H
	DB	00H
	DB	0f8H
	DB	0fcH
	DB	0f8H
	DB	00H
	DB	0f8H
	DB	0fcH
	DB	0f8H
	DB	00H
	DB	0f8H
	DB	0fcH
	DB	0f8H
	DB	00H
	DB	0f8H
	DB	0fcH
	DB	0f8H
	DB	00H
	DB	0f8H
	DB	0fcH
	DB	0f8H
	DB	00H
	DB	0f8H
	DB	0fcH
	DB	0f8H
	DB	00H
	DB	0f8H
	DB	0fcH
	DB	0f8H
	DB	00H
	DB	0f8H
	DB	0fcH
	DB	0f8H
	DB	00H
	DB	0f8H
	DB	0fcH
	DB	0f8H
	DB	00H
	DB	0f8H
	DB	0fcH
	DB	0f8H
	DB	00H
	DB	0f8H
	DB	0fcH
	DB	0f8H
	DB	00H
	DB	0f8H
	DB	0fcH
	DB	0f8H
	DB	00H
	DB	0f8H
	DB	0fcH
	DB	0f8H
	DB	00H
	DB	0f8H
	DB	0fcH
	DB	0f8H
	DB	00H
	DB	0f8H
	DB	0fcH
	DB	0f8H
	DB	00H
	DB	0f8H
	DB	0fcH
	DB	0f8H
	DB	00H
	DB	0f8H
	DB	0fcH
	DB	0f8H
	DB	00H
	DB	0f8H
	DB	0fcH
	DB	0f8H
	DB	00H
	DB	0f8H
	DB	0fcH
	DB	0f8H
	DB	00H
	DB	0f8H
	DB	0fcH
	DB	0f8H
	DB	00H
	DB	0f8H
	DB	0fcH
	DB	0f8H
	DB	00H
	DB	0f8H
	DB	0fcH
	DB	0f8H
	DB	00H
	DB	0f8H
	DB	0fcH
	DB	0f8H
	DB	00H
	DB	0f8H
	DB	0fcH
	DB	0f8H
	DB	00H
	DB	0f8H
	DB	0fcH
	DB	0f8H
	DB	00H
	DB	0f8H
	DB	0fcH
	DB	0f8H
	DB	00H
	DB	0f8H
	DB	0fcH
	DB	0f8H
	DB	00H
	DB	0f8H
	DB	0fcH
	DB	0f8H
	DB	00H
	DB	0f8H
	DB	0fcH
	DB	0f8H
	DB	00H
	DB	0f8H
	DB	0fcH
	DB	0f8H
	DB	00H
	DB	0f8H
	DB	0fcH
	DB	0f8H
	DB	00H
	DB	0f8H
	DB	0fcH
	DB	0f8H
	DB	00H
	DB	0f8H
	DB	0fcH
	DB	0f8H
	DB	00H
	DB	0f8H
	DB	0fcH
	DB	0f8H
	DB	00H
	DB	0f8H
	DB	0fcH
	DB	0f8H
	DB	00H
	DB	0f8H
	DB	0fcH
	DB	0f8H
	DB	00H
	DB	0f8H
	DB	0fcH
	DB	0f8H
	DB	00H
	DB	0f8H
	DB	0fcH
	DB	0f8H
	DB	00H
	DB	0f8H
	DB	0fcH
	DB	0f8H
	DB	00H
	DB	0f8H
	DB	0fcH
	DB	0f8H
	DB	00H
	DB	0f8H
	DB	0fcH
	DB	0f8H
	DB	00H
	DB	0f8H
	DB	0fcH
	DB	0f8H
	DB	00H
	DB	0f8H
	DB	0fcH
	DB	0f8H
	DB	00H
	DB	0f8H
	DB	0fcH
	DB	0f8H
	DB	00H
	DB	0f8H
	DB	0fcH
	DB	0f8H
	DB	00H
	DB	0f8H
	DB	0fcH
	DB	0f8H
	DB	00H
	DB	0f8H
	DB	0fcH
	DB	0f8H
	DB	00H
	DB	0f8H
	DB	0fcH
	DB	0f8H
	DB	00H
	DB	0f8H
	DB	0fcH
	DB	0f8H
	DB	00H
	DB	0f8H
	DB	0fcH
	DB	0f8H
	DB	00H
	DB	0f8H
	DB	0fcH
	DB	0f8H
	DB	00H
	DB	0f8H
	DB	0fcH
	DB	0f8H
	DB	00H
	DB	0f8H
	DB	0fcH
	DB	0f8H
	DB	00H
	DB	0f8H
	DB	0fcH
	DB	0f8H
	DB	00H
	DB	0f8H
	DB	0fcH
	DB	0f8H
	DB	00H
	DB	0f8H
	DB	0fcH
	DB	0f8H
	DB	00H
	DB	0f8H
	DB	0fcH
	DB	0f8H
	DB	00H
	DB	0f8H
	DB	0fcH
	DB	0f8H
	DB	00H
	DB	0f8H
	DB	0fcH
	DB	0f8H
	DB	00H
	DB	0f8H
	DB	0fcH
	DB	0f8H
	DB	00H
	DB	0f8H
	DB	0fcH
	DB	0f8H
	DB	00H
	DB	0f8H
	DB	0fcH
	DB	0f8H
	DB	00H
	DB	0f8H
	DB	0fcH
	DB	0f8H
	DB	00H
	DB	0f8H
	DB	0fcH
	DB	0f8H
	DB	00H
	DB	0f8H
	DB	0fcH
	DB	0f8H
	DB	00H
	DB	0f8H
	DB	0fcH
	DB	0f8H
	DB	00H
	DB	0f8H
	DB	0fcH
	DB	0f8H
	DB	00H
	DB	0f8H
	DB	0fcH
	DB	0f8H
	DB	00H
	DB	0f8H
	DB	0fcH
	DB	0f8H
	DB	00H
	DB	0f8H
	DB	0fcH
	DB	0f8H
	DB	00H
	DB	0f8H
	DB	0fcH
	DB	0f8H
	DB	00H
	DB	0f8H
	DB	0fcH
	DB	0f8H
	DB	00H
	DB	0f8H
	DB	0fcH
	DB	0f8H
	DB	00H
	DB	0f8H
	DB	0fcH
	DB	0f8H
	DB	00H
	DB	0f8H
	DB	0fcH
	DB	0f8H
	DB	00H
	DB	0f8H
	DB	0fcH
	DB	0f8H
	DB	00H
	DB	0f8H
	DB	0fcH
	DB	0f8H
	DB	00H
	DB	0f8H
	DB	0fcH
	DB	0f8H
	DB	00H
	DB	0f8H
	DB	0fcH
	DB	0f8H
	DB	00H
	DB	0f8H
	DB	0fcH
	DB	0f8H
	DB	00H
	DB	0b8H
	DB	094H
	DB	038H
	DB	059H
	DB	0b8H
	DB	090H
	DB	038H
	DB	05dH
	DB	0b8H
	DB	090H
	DB	038H
	DB	05dH
	DB	0b0H
	DB	094H
	DB	040H
	DB	069H
	DB	0b8H
	DB	09cH
	DB	050H
	DB	069H
	DB	0b8H
	DB	09cH
	DB	050H
	DB	069H
	DB	0b8H
	DB	09cH
	DB	050H
	DB	06dH
	DB	0b8H
	DB	09cH
	DB	050H
	DB	069H
	DB	0b8H
	DB	0a0H
	DB	050H
	DB	06dH
	DB	0c0H
	DB	0a0H
	DB	058H
	DB	06dH
	DB	0b8H
	DB	0a0H
	DB	050H
	DB	069H
	DB	0c0H
	DB	0a4H
	DB	050H
	DB	06dH
	DB	0b8H
	DB	0a4H
	DB	058H
	DB	06dH
	DB	0c0H
	DB	0a4H
	DB	058H
	DB	06dH
	DB	0c0H
	DB	0a8H
	DB	058H
	DB	06dH
	DB	0c0H
	DB	0a8H
	DB	058H
	DB	071H
	DB	0c8H
	DB	0acH
	DB	060H
	DB	06dH
	DB	0c8H
	DB	0acH
	DB	060H
	DB	06dH
	DB	0c8H
	DB	0b0H
	DB	068H
	DB	071H
	DB	0c8H
	DB	0acH
	DB	060H
	DB	06dH
	DB	0c8H
	DB	0acH
	DB	060H
	DB	06dH
	DB	0c8H
	DB	0acH
	DB	060H
	DB	071H
	DB	0c8H
	DB	0a8H
	DB	060H
	DB	071H
	DB	0c0H
	DB	0a8H
	DB	058H
	DB	071H
	DB	0c8H
	DB	0acH
	DB	060H
	DB	071H
	DB	0c8H
	DB	0acH
	DB	060H
	DB	071H
	DB	0c0H
	DB	0acH
	DB	060H
	DB	071H
	DB	0c8H
	DB	0acH
	DB	060H
	DB	071H
	DB	0c8H
	DB	0acH
	DB	060H
	DB	071H
	DB	0c8H
	DB	0acH
	DB	060H
	DB	075H
	DB	0c8H
	DB	0b0H
	DB	060H
	DB	075H
	DB	0c8H
	DB	0acH
	DB	060H
	DB	071H
	DB	0c0H
	DB	0b0H
	DB	068H
	DB	075H
	DB	0c8H
	DB	0b0H
	DB	068H
	DB	075H
	DB	0c8H
	DB	0b0H
	DB	068H
	DB	071H
	DB	0c0H
	DB	0acH
	DB	060H
	DB	075H
	DB	0c8H
	DB	0b0H
	DB	068H
	DB	075H
	DB	0c8H
	DB	0b0H
	DB	068H
	DB	075H
	DB	0d0H
	DB	0b4H
	DB	070H
	DB	075H
	DB	0c8H
	DB	0b4H
	DB	070H
	DB	075H
	DB	0d0H
	DB	0b8H
	DB	078H
	DB	079H
	DB	0d8H
	DB	0c0H
	DB	080H
	DB	075H
	DB	0c8H
	DB	0b0H
	DB	068H
	DB	079H
	DB	0c8H
	DB	0b4H
	DB	068H
	DB	079H
	DB	0c8H
	DB	0b0H
	DB	068H
	DB	079H
	DB	0d8H
	DB	0c0H
	DB	080H
	DB	079H
	DB	0c8H
	DB	0b0H
	DB	068H
	DB	079H
	DB	0c0H
	DB	0a8H
	DB	058H
	DB	079H
	DB	0c8H
	DB	0acH
	DB	060H
	DB	079H
	DB	0c8H
	DB	0b4H
	DB	068H
	DB	07dH
	DB	0c8H
	DB	0b4H
	DB	068H
	DB	079H
	DB	0c8H
	DB	0acH
	DB	060H
	DB	07dH
	DB	0c0H
	DB	0a8H
	DB	058H
	DB	07dH
	DB	0c8H
	DB	0b0H
	DB	060H
	DB	079H
	DB	0d0H
	DB	0b8H
	DB	070H
	DB	07dH
	DB	0c8H
	DB	0b0H
	DB	068H
	DB	07dH
	DB	0c8H
	DB	0b0H
	DB	060H
	DB	07dH
	DB	0c8H
	DB	0b0H
	DB	060H
	DB	07dH
	DB	0c8H
	DB	0b4H
	DB	068H
	DB	07dH
	DB	0c8H
	DB	0b0H
	DB	060H
	DB	082H
	DB	0c8H
	DB	0b4H
	DB	068H
	DB	07dH
	DB	0c8H
	DB	0b0H
	DB	060H
	DB	07dH
	DB	0c8H
	DB	0b4H
	DB	068H
	DB	082H
	DB	0d0H
	DB	0b8H
	DB	070H
	DB	082H
	DB	0d0H
	DB	0b8H
	DB	070H
	DB	082H
	DB	0d0H
	DB	0bcH
	DB	070H
	DB	082H
	DB	0d0H
	DB	0b8H
	DB	070H
	DB	082H
	DB	0d0H
	DB	0bcH
	DB	070H
	DB	082H
	DB	0d0H
	DB	0bcH
	DB	070H
	DB	082H
	DB	0d0H
	DB	0b8H
	DB	070H
	DB	082H
	DB	0d0H
	DB	0b8H
	DB	070H
	DB	082H
	DB	0d0H
	DB	0b8H
	DB	070H
	DB	082H
	DB	0d0H
	DB	0b8H
	DB	070H
	DB	086H
	DB	0d0H
	DB	0b8H
	DB	070H
	DB	082H
	DB	0d0H
	DB	0bcH
	DB	070H
	DB	086H
	DB	0d0H
	DB	0bcH
	DB	070H
	DB	086H
	DB	0d8H
	DB	0c0H
	DB	080H
	DB	086H
	DB	0e0H
	DB	0ccH
	DB	090H
	DB	086H
	DB	0e8H
	DB	0d0H
	DB	098H
	DB	086H
	DB	0e8H
	DB	0d4H
	DB	0a8H
	DB	086H
	DB	0e8H
	DB	0d4H
	DB	0a8H
	DB	08aH
	DB	0d8H
	DB	0ccH
	DB	090H
	DB	086H
	DB	0d0H
	DB	0c4H
	DB	080H
	DB	08aH
	DB	0d8H
	DB	0c4H
	DB	088H
	DB	08aH
	DB	0d8H
	DB	0c8H
	DB	088H
	DB	086H
	DB	0e0H
	DB	0c8H
	DB	090H
	DB	08aH
	DB	0e0H
	DB	0c8H
	DB	090H
	DB	08aH
	DB	0d8H
	DB	0c8H
	DB	090H
	DB	08aH
	DB	0e0H
	DB	0c8H
	DB	088H
	DB	08aH
	DB	0d8H
	DB	0c8H
	DB	088H
	DB	08aH
	DB	0d8H
	DB	0c8H
	DB	088H
	DB	08aH
	DB	0e0H
	DB	0ccH
	DB	090H
	DB	08aH
	DB	0d8H
	DB	0c8H
	DB	088H
	DB	08aH
	DB	0e0H
	DB	0c8H
	DB	088H
	DB	08aH
	DB	0e0H
	DB	0c8H
	DB	088H
	DB	08eH
	DB	0d8H
	DB	0c8H
	DB	088H
	DB	08eH
	DB	0d8H
	DB	0c4H
	DB	088H
	DB	08aH
	DB	0d8H
	DB	0c4H
	DB	080H
	DB	08eH
	DB	0e0H
	DB	0c8H
	DB	088H
	DB	08eH
	DB	0d8H
	DB	0c8H
	DB	090H
	DB	08eH
	DB	0e0H
	DB	0ccH
	DB	090H
	DB	08eH
	DB	0d8H
	DB	0ccH
	DB	090H
	DB	08aH
	DB	0e0H
	DB	0c8H
	DB	088H
	DB	08eH
	DB	0e0H
	DB	0c8H
	DB	088H
	DB	08eH
	DB	0d8H
	DB	0c4H
	DB	088H
	DB	08aH
	DB	0d8H
	DB	0c4H
	DB	080H
	DB	08eH
	DB	0d8H
	DB	0c4H
	DB	080H
	DB	08eH
	DB	0d8H
	DB	0c4H
	DB	080H
	DB	08eH
	DB	0d8H
	DB	0c4H
	DB	080H
	DB	08eH
	DB	0d8H
	DB	0c4H
	DB	080H
	DB	08eH
	DB	0d0H
	DB	0c0H
	DB	078H
	DB	08eH
	DB	0d0H
	DB	0c0H
	DB	078H
	DB	08eH
	DB	0d0H
	DB	0c0H
	DB	078H
	DB	08eH
	DB	0d0H
	DB	0c0H
	DB	078H
	DB	08eH
	DB	0d0H
	DB	0c0H
	DB	078H
	DB	08eH
	DB	0d0H
	DB	0c0H
	DB	080H
	DB	08eH
	DB	0d8H
	DB	0c8H
	DB	090H
	DB	08eH
	DB	0e8H
	DB	0d4H
	DB	098H
	DB	08eH
	DB	0e0H
	DB	0ccH
	DB	098H
	DB	08eH
	DB	0d8H
	DB	0c8H
	DB	090H
	DB	08eH
	DB	0d8H
	DB	0ccH
	DB	088H
	DB	08eH
	DB	0e0H
	DB	0ccH
	DB	088H
	DB	08eH
	DB	0d8H
	DB	0c8H
	DB	088H
	DB	08eH
	DB	0d8H
	DB	0c8H
	DB	088H
	DB	08eH
	DB	0d8H
	DB	0c8H
	DB	080H
	DB	08eH
	DB	0e0H
	DB	0c8H
	DB	088H
	DB	08eH
	DB	0d8H
	DB	0c4H
	DB	080H
	DB	08eH
	DB	0d8H
	DB	0c8H
	DB	080H
	DB	08eH
	DB	0e0H
	DB	0c8H
	DB	080H
	DB	08eH
	DB	0d8H
	DB	0c4H
	DB	080H
	DB	08eH
	DB	0d8H
	DB	0c4H
	DB	080H
	DB	08eH
	DB	0d8H
	DB	0c8H
	DB	090H
	DB	08eH
	DB	0d8H
	DB	0c8H
	DB	088H
	DB	08eH
	DB	0d8H
	DB	0c8H
	DB	088H
	DB	08eH
	DB	0d8H
	DB	0c8H
	DB	088H
	DB	08eH
	DB	0d8H
	DB	0c8H
	DB	080H
	DB	08eH
	DB	0d8H
	DB	0c4H
	DB	080H
	DB	08eH
	DB	0d0H
	DB	0bcH
	DB	078H
	DB	08eH
	DB	0e0H
	DB	0c8H
	DB	088H
	DB	08eH
	DB	0d8H
	DB	0c0H
	DB	078H
	DB	08eH
	DB	0d8H
	DB	0c4H
	DB	078H
	DB	08eH
	DB	0d0H
	DB	0c0H
	DB	078H
	DB	08eH
	DB	0d0H
	DB	0bcH
	DB	070H
	DB	08aH
	DB	0d0H
	DB	0bcH
	DB	070H
	DB	08aH
	DB	0d8H
	DB	0c4H
	DB	080H
	DB	08eH
	DB	0d8H
	DB	0c0H
	DB	078H
	DB	08eH
	DB	0d8H
	DB	0c0H
	DB	078H
	DB	08eH
	DB	0d8H
	DB	0c0H
	DB	078H
	DB	08aH
	DB	0d8H
	DB	0c0H
	DB	078H
	DB	08aH
	DB	0d8H
	DB	0c0H
	DB	078H
	DB	08eH
	DB	0d0H
	DB	0bcH
	DB	068H
	DB	08aH
	DB	0c8H
	DB	0b4H
	DB	068H
	DB	08aH
	DB	0c8H
	DB	0b0H
	DB	060H
	DB	08eH
	DB	0d8H
	DB	0bcH
	DB	070H
	DB	08eH
	DB	0d8H
	DB	0c0H
	DB	070H
	DB	08aH
	DB	0c8H
	DB	0b0H
	DB	060H
	DB	08aH
	DB	0c8H
	DB	0b0H
	DB	060H
	DB	08aH
	DB	0d0H
	DB	0b8H
	DB	068H
	DB	08aH
	DB	0d0H
	DB	0b4H
	DB	068H
	DB	08aH
	DB	0c8H
	DB	0b0H
	DB	060H
	DB	08aH
	DB	0c8H
	DB	0b0H
	DB	060H
	DB	08aH
	DB	0c8H
	DB	0b4H
	DB	068H
	DB	08aH
	DB	0d0H
	DB	0b8H
	DB	068H
	DB	08aH
	DB	0d0H
	DB	0b8H
	DB	070H
	DB	065H
	DB	0d0H
	DB	0b8H
	DB	070H
	DB	010H
	DB	0f8H
	DB	0fcH
	DB	0f8H
	DB	00H
	DB	0f8H
	DB	0fcH
	DB	0f8H
	DB	00H
	DB	0f8H
	DB	0fcH
	DB	0f8H
	DB	00H
	DB	0f8H
	DB	0fcH
	DB	0f8H
	DB	00H
	DB	0f8H
	DB	0fcH
	DB	0f8H
	DB	00H
	DB	0f8H
	DB	0fcH
	DB	0f8H
	DB	00H
	DB	0f8H
	DB	0fcH
	DB	0f8H
	DB	00H
	DB	0f8H
	DB	0fcH
	DB	0f8H
	DB	00H
	DB	0f8H
	DB	0fcH
	DB	0f8H
	DB	00H
	DB	0f8H
	DB	0fcH
	DB	0f8H
	DB	00H
	DB	0f8H
	DB	0fcH
	DB	0f8H
	DB	00H
	DB	0f8H
	DB	0fcH
	DB	0f8H
	DB	00H
	DB	0f8H
	DB	0fcH
	DB	0f8H
	DB	00H
	DB	0f8H
	DB	0fcH
	DB	0f8H
	DB	00H
	DB	0f8H
	DB	0fcH
	DB	0f8H
	DB	00H
	DB	0f8H
	DB	0fcH
	DB	0f8H
	DB	00H
	DB	0f8H
	DB	0fcH
	DB	0f8H
	DB	00H
	DB	0f8H
	DB	0fcH
	DB	0f8H
	DB	00H
	DB	0f8H
	DB	0fcH
	DB	0f8H
	DB	00H
	DB	0f8H
	DB	0fcH
	DB	0f8H
	DB	00H
	DB	0f8H
	DB	0fcH
	DB	0f8H
	DB	00H
	DB	0f8H
	DB	0fcH
	DB	0f8H
	DB	00H
	DB	0f8H
	DB	0fcH
	DB	0f8H
	DB	00H
	DB	0f8H
	DB	0fcH
	DB	0f8H
	DB	00H
	DB	0f8H
	DB	0fcH
	DB	0f8H
	DB	00H
	DB	0f8H
	DB	0fcH
	DB	0f8H
	DB	00H
	DB	0f8H
	DB	0fcH
	DB	0f8H
	DB	00H
	DB	0f8H
	DB	0fcH
	DB	0f8H
	DB	00H
	DB	0f8H
	DB	0fcH
	DB	0f8H
	DB	00H
	DB	0f8H
	DB	0fcH
	DB	0f8H
	DB	00H
	DB	0f8H
	DB	0fcH
	DB	0f8H
	DB	00H
	DB	0f8H
	DB	0fcH
	DB	0f8H
	DB	00H
	DB	0f8H
	DB	0fcH
	DB	0f8H
	DB	00H
	DB	0f8H
	DB	0fcH
	DB	0f8H
	DB	00H
	DB	0f8H
	DB	0fcH
	DB	0f8H
	DB	00H
	DB	0f8H
	DB	0fcH
	DB	0f8H
	DB	00H
	DB	0f8H
	DB	0fcH
	DB	0f8H
	DB	00H
	DB	0f8H
	DB	0fcH
	DB	0f8H
	DB	00H
	DB	0f8H
	DB	0fcH
	DB	0f8H
	DB	00H
	DB	0f8H
	DB	0fcH
	DB	0f8H
	DB	00H
	DB	0f8H
	DB	0fcH
	DB	0f8H
	DB	00H
	DB	0f8H
	DB	0fcH
	DB	0f8H
	DB	00H
	DB	0f8H
	DB	0fcH
	DB	0f8H
	DB	00H
	DB	0f8H
	DB	0fcH
	DB	0f8H
	DB	00H
	DB	0f8H
	DB	0fcH
	DB	0f8H
	DB	00H
	DB	0f8H
	DB	0fcH
	DB	0f8H
	DB	00H
	DB	0f8H
	DB	0fcH
	DB	0f8H
	DB	00H
	DB	0f8H
	DB	0fcH
	DB	0f8H
	DB	00H
	DB	0f8H
	DB	0fcH
	DB	0f8H
	DB	00H
	DB	0f8H
	DB	0fcH
	DB	0f8H
	DB	00H
	DB	0f8H
	DB	0fcH
	DB	0f8H
	DB	00H
	DB	0f8H
	DB	0fcH
	DB	0f8H
	DB	00H
	DB	0f8H
	DB	0fcH
	DB	0f8H
	DB	00H
	DB	0f8H
	DB	0fcH
	DB	0f8H
	DB	00H
	DB	0f8H
	DB	0fcH
	DB	0f8H
	DB	00H
	DB	0f8H
	DB	0fcH
	DB	0f8H
	DB	00H
	DB	0f8H
	DB	0fcH
	DB	0f8H
	DB	00H
	DB	0f8H
	DB	0fcH
	DB	0f8H
	DB	00H
	DB	0f8H
	DB	0fcH
	DB	0f8H
	DB	00H
	DB	0f8H
	DB	0fcH
	DB	0f8H
	DB	00H
	DB	0f8H
	DB	0fcH
	DB	0f8H
	DB	00H
	DB	0f8H
	DB	0fcH
	DB	0f8H
	DB	00H
	DB	0f8H
	DB	0fcH
	DB	0f8H
	DB	00H
	DB	0f8H
	DB	0fcH
	DB	0f8H
	DB	00H
	DB	0f8H
	DB	0fcH
	DB	0f8H
	DB	00H
	DB	0f8H
	DB	0fcH
	DB	0f8H
	DB	00H
	DB	0f8H
	DB	0fcH
	DB	0f8H
	DB	00H
	DB	0f8H
	DB	0fcH
	DB	0f8H
	DB	00H
	DB	0f8H
	DB	0fcH
	DB	0f8H
	DB	00H
	DB	0f8H
	DB	0fcH
	DB	0f8H
	DB	00H
	DB	0f8H
	DB	0fcH
	DB	0f8H
	DB	00H
	DB	0f8H
	DB	0fcH
	DB	0f8H
	DB	00H
	DB	0f8H
	DB	0fcH
	DB	0f8H
	DB	00H
	DB	0f8H
	DB	0fcH
	DB	0f8H
	DB	00H
	DB	0f8H
	DB	0fcH
	DB	0f8H
	DB	00H
	DB	0f8H
	DB	0fcH
	DB	0f8H
	DB	00H
	DB	0f8H
	DB	0fcH
	DB	0f8H
	DB	00H
	DB	0f8H
	DB	0fcH
	DB	0f8H
	DB	00H
	DB	0f8H
	DB	0fcH
	DB	0f8H
	DB	00H
	DB	0f8H
	DB	0fcH
	DB	0f8H
	DB	00H
	DB	0f8H
	DB	0fcH
	DB	0f8H
	DB	00H
	DB	0f8H
	DB	0fcH
	DB	0f8H
	DB	00H
	DB	0f8H
	DB	0fcH
	DB	0f8H
	DB	00H
	DB	0f8H
	DB	0fcH
	DB	0f8H
	DB	00H
	DB	0f8H
	DB	0fcH
	DB	0f8H
	DB	00H
	DB	0f8H
	DB	0fcH
	DB	0f8H
	DB	00H
	DB	0f8H
	DB	0fcH
	DB	0f8H
	DB	00H
	DB	0f8H
	DB	0fcH
	DB	0f8H
	DB	00H
	DB	0f8H
	DB	0fcH
	DB	0f8H
	DB	00H
	DB	0f8H
	DB	0fcH
	DB	0f8H
	DB	00H
	DB	0f8H
	DB	0fcH
	DB	0f8H
	DB	00H
	DB	0f8H
	DB	0fcH
	DB	0f8H
	DB	00H
	DB	0f8H
	DB	0fcH
	DB	0f8H
	DB	00H
	DB	0f8H
	DB	0fcH
	DB	0f8H
	DB	00H
	DB	0f8H
	DB	0fcH
	DB	0f8H
	DB	00H
	DB	0f8H
	DB	0fcH
	DB	0f8H
	DB	00H
	DB	0f8H
	DB	0fcH
	DB	0f8H
	DB	00H
	DB	0f8H
	DB	0fcH
	DB	0f8H
	DB	00H
	DB	0f8H
	DB	0fcH
	DB	0f8H
	DB	00H
	DB	0f8H
	DB	0fcH
	DB	0f8H
	DB	00H
	DB	0b8H
	DB	094H
	DB	038H
	DB	059H
	DB	0b8H
	DB	094H
	DB	030H
	DB	05dH
	DB	0b8H
	DB	090H
	DB	038H
	DB	05dH
	DB	0b8H
	DB	098H
	DB	040H
	DB	069H
	DB	0b8H
	DB	09cH
	DB	050H
	DB	069H
	DB	0b8H
	DB	09cH
	DB	050H
	DB	06dH
	DB	0b8H
	DB	0a0H
	DB	050H
	DB	069H
	DB	0c0H
	DB	0a0H
	DB	050H
	DB	069H
	DB	0c0H
	DB	0a0H
	DB	050H
	DB	06dH
	DB	0b8H
	DB	0a0H
	DB	050H
	DB	06dH
	DB	0b8H
	DB	0a0H
	DB	050H
	DB	069H
	DB	0c0H
	DB	0a0H
	DB	050H
	DB	06dH
	DB	0c0H
	DB	0a4H
	DB	058H
	DB	06dH
	DB	0c0H
	DB	0a4H
	DB	058H
	DB	06dH
	DB	0c0H
	DB	0a8H
	DB	058H
	DB	06dH
	DB	0c0H
	DB	0a8H
	DB	058H
	DB	06dH
	DB	0c8H
	DB	0a8H
	DB	060H
	DB	06dH
	DB	0c8H
	DB	0b0H
	DB	060H
	DB	06dH
	DB	0c8H
	DB	0b0H
	DB	068H
	DB	071H
	DB	0c8H
	DB	0b0H
	DB	068H
	DB	071H
	DB	0c8H
	DB	0b0H
	DB	068H
	DB	06dH
	DB	0c8H
	DB	0acH
	DB	060H
	DB	071H
	DB	0c8H
	DB	0acH
	DB	060H
	DB	071H
	DB	0c8H
	DB	0acH
	DB	060H
	DB	06dH
	DB	0c0H
	DB	0acH
	DB	060H
	DB	071H
	DB	0c8H
	DB	0acH
	DB	058H
	DB	071H
	DB	0c8H
	DB	0acH
	DB	060H
	DB	071H
	DB	0c0H
	DB	0acH
	DB	060H
	DB	071H
	DB	0c8H
	DB	0acH
	DB	060H
	DB	071H
	DB	0c8H
	DB	0b0H
	DB	060H
	DB	075H
	DB	0c8H
	DB	0b0H
	DB	068H
	DB	071H
	DB	0c0H
	DB	0acH
	DB	060H
	DB	071H
	DB	0c8H
	DB	0acH
	DB	060H
	DB	075H
	DB	0c8H
	DB	0b4H
	DB	068H
	DB	075H
	DB	0c8H
	DB	0b0H
	DB	068H
	DB	075H
	DB	0c8H
	DB	0b0H
	DB	060H
	DB	075H
	DB	0c8H
	DB	0acH
	DB	060H
	DB	075H
	DB	0c8H
	DB	0b0H
	DB	068H
	DB	075H
	DB	0c8H
	DB	0b4H
	DB	068H
	DB	075H
	DB	0d0H
	DB	0b4H
	DB	070H
	DB	075H
	DB	0d0H
	DB	0b8H
	DB	070H
	DB	079H
	DB	0d8H
	DB	0bcH
	DB	078H
	DB	075H
	DB	0d0H
	DB	0b4H
	DB	068H
	DB	079H
	DB	0c8H
	DB	0b0H
	DB	068H
	DB	079H
	DB	0c8H
	DB	0b4H
	DB	068H
	DB	079H
	DB	0d0H
	DB	0b8H
	DB	078H
	DB	079H
	DB	0d8H
	DB	0c4H
	DB	088H
	DB	079H
	DB	0c0H
	DB	0acH
	DB	068H
	DB	079H
	DB	0c8H
	DB	0b0H
	DB	068H
	DB	079H
	DB	0c8H
	DB	0acH
	DB	060H
	DB	07dH
	DB	0c8H
	DB	0b4H
	DB	068H
	DB	079H
	DB	0d0H
	DB	0b4H
	DB	068H
	DB	079H
	DB	0c8H
	DB	0b0H
	DB	068H
	DB	07dH
	DB	0c8H
	DB	0b0H
	DB	068H
	DB	07dH
	DB	0d0H
	DB	0b4H
	DB	070H
	DB	07dH
	DB	0c8H
	DB	0b4H
	DB	068H
	DB	07dH
	DB	0c8H
	DB	0b0H
	DB	068H
	DB	07dH
	DB	0c8H
	DB	0b4H
	DB	060H
	DB	07dH
	DB	0d0H
	DB	0b0H
	DB	068H
	DB	07dH
	DB	0c8H
	DB	0b4H
	DB	068H
	DB	082H
	DB	0c8H
	DB	0b0H
	DB	060H
	DB	07dH
	DB	0c8H
	DB	0b0H
	DB	068H
	DB	07dH
	DB	0c8H
	DB	0b4H
	DB	068H
	DB	082H
	DB	0d0H
	DB	0b4H
	DB	068H
	DB	07dH
	DB	0d0H
	DB	0b8H
	DB	070H
	DB	082H
	DB	0d0H
	DB	0bcH
	DB	070H
	DB	082H
	DB	0d0H
	DB	0b8H
	DB	070H
	DB	07dH
	DB	0d0H
	DB	0bcH
	DB	070H
	DB	082H
	DB	0d0H
	DB	0bcH
	DB	070H
	DB	082H
	DB	0d0H
	DB	0b8H
	DB	070H
	DB	082H
	DB	0d0H
	DB	0b8H
	DB	070H
	DB	082H
	DB	0d0H
	DB	0b8H
	DB	068H
	DB	082H
	DB	0d0H
	DB	0b8H
	DB	070H
	DB	086H
	DB	0d0H
	DB	0bcH
	DB	070H
	DB	082H
	DB	0d8H
	DB	0bcH
	DB	070H
	DB	082H
	DB	0d0H
	DB	0bcH
	DB	070H
	DB	086H
	DB	0d0H
	DB	0bcH
	DB	070H
	DB	086H
	DB	0d0H
	DB	0c0H
	DB	078H
	DB	086H
	DB	0d8H
	DB	0c4H
	DB	088H
	DB	086H
	DB	0e0H
	DB	0c8H
	DB	090H
	DB	086H
	DB	0e8H
	DB	0d4H
	DB	0a0H
	DB	086H
	DB	0e0H
	DB	0d0H
	DB	0a0H
	DB	086H
	DB	0d8H
	DB	0c8H
	DB	090H
	DB	086H
	DB	0d8H
	DB	0c8H
	DB	088H
	DB	08aH
	DB	0d8H
	DB	0c8H
	DB	090H
	DB	086H
	DB	0d8H
	DB	0c8H
	DB	090H
	DB	08aH
	DB	0e0H
	DB	0c8H
	DB	090H
	DB	08aH
	DB	0d8H
	DB	0c8H
	DB	088H
	DB	086H
	DB	0e0H
	DB	0c8H
	DB	090H
	DB	08aH
	DB	0d8H
	DB	0c8H
	DB	088H
	DB	08aH
	DB	0d8H
	DB	0c8H
	DB	088H
	DB	08aH
	DB	0d8H
	DB	0c8H
	DB	088H
	DB	08aH
	DB	0d8H
	DB	0c8H
	DB	088H
	DB	08eH
	DB	0d8H
	DB	0c8H
	DB	088H
	DB	08aH
	DB	0d8H
	DB	0c8H
	DB	088H
	DB	08eH
	DB	0d8H
	DB	0c8H
	DB	088H
	DB	08eH
	DB	0d8H
	DB	0c4H
	DB	088H
	DB	08aH
	DB	0d8H
	DB	0c4H
	DB	088H
	DB	08eH
	DB	0e0H
	DB	0c8H
	DB	088H
	DB	08eH
	DB	0d8H
	DB	0c8H
	DB	090H
	DB	08aH
	DB	0d8H
	DB	0c8H
	DB	088H
	DB	08eH
	DB	0d8H
	DB	0c8H
	DB	088H
	DB	08eH
	DB	0d8H
	DB	0c8H
	DB	090H
	DB	08eH
	DB	0e0H
	DB	0c8H
	DB	090H
	DB	08aH
	DB	0d8H
	DB	0c4H
	DB	088H
	DB	08eH
	DB	0d8H
	DB	0c4H
	DB	080H
	DB	08aH
	DB	0d8H
	DB	0c4H
	DB	080H
	DB	08eH
	DB	0d8H
	DB	0c4H
	DB	080H
	DB	08aH
	DB	0d0H
	DB	0c0H
	DB	080H
	DB	08eH
	DB	0d0H
	DB	0c4H
	DB	080H
	DB	08eH
	DB	0d0H
	DB	0c0H
	DB	078H
	DB	08eH
	DB	0d0H
	DB	0c0H
	DB	078H
	DB	08eH
	DB	0d8H
	DB	0c4H
	DB	078H
	DB	08eH
	DB	0d8H
	DB	0c4H
	DB	080H
	DB	08eH
	DB	0d8H
	DB	0c4H
	DB	080H
	DB	08eH
	DB	0d8H
	DB	0c4H
	DB	080H
	DB	08eH
	DB	0d8H
	DB	0c4H
	DB	080H
	DB	08eH
	DB	0d8H
	DB	0c4H
	DB	080H
	DB	08eH
	DB	0d8H
	DB	0c4H
	DB	088H
	DB	08eH
	DB	0d8H
	DB	0c8H
	DB	088H
	DB	08eH
	DB	0d8H
	DB	0c8H
	DB	088H
	DB	08eH
	DB	0d8H
	DB	0c8H
	DB	088H
	DB	08eH
	DB	0e0H
	DB	0c8H
	DB	088H
	DB	08eH
	DB	0d8H
	DB	0c8H
	DB	088H
	DB	08eH
	DB	0d8H
	DB	0c8H
	DB	088H
	DB	08eH
	DB	0e0H
	DB	0c8H
	DB	088H
	DB	08eH
	DB	0d8H
	DB	0c8H
	DB	088H
	DB	08eH
	DB	0d8H
	DB	0c8H
	DB	088H
	DB	08eH
	DB	0d8H
	DB	0c8H
	DB	088H
	DB	08eH
	DB	0d8H
	DB	0c4H
	DB	080H
	DB	08eH
	DB	0d8H
	DB	0c4H
	DB	088H
	DB	08eH
	DB	0e0H
	DB	0ccH
	DB	090H
	DB	08eH
	DB	0d8H
	DB	0c4H
	DB	088H
	DB	08eH
	DB	0d8H
	DB	0c8H
	DB	080H
	DB	08eH
	DB	0e0H
	DB	0c8H
	DB	088H
	DB	08eH
	DB	0d8H
	DB	0c8H
	DB	088H
	DB	08eH
	DB	0d8H
	DB	0c4H
	DB	080H
	DB	08eH
	DB	0d8H
	DB	0c0H
	DB	078H
	DB	08eH
	DB	0d8H
	DB	0c0H
	DB	078H
	DB	08eH
	DB	0d8H
	DB	0c4H
	DB	078H
	DB	08aH
	DB	0d0H
	DB	0c0H
	DB	070H
	DB	08eH
	DB	0d0H
	DB	0c0H
	DB	070H
	DB	08eH
	DB	0d0H
	DB	0b8H
	DB	070H
	DB	08eH
	DB	0d8H
	DB	0c0H
	DB	080H
