; Listing generated by Microsoft (R) Optimizing Compiler Version 19.27.29112.0 

	TITLE	D:\hackTuesProject\project\TouchGFX\generated\images\src\MainScreen\image_temperature_selected.cpp
	.686P
	.XMM
	include listing.inc
	.model	flat

INCLUDELIB MSVCRTD
INCLUDELIB OLDNAMES

PUBLIC	?image_temperature_selected@@3QBEB		; image_temperature_selected
CONST	SEGMENT
?image_temperature_selected@@3QBEB DB 01dH		; image_temperature_selected
	DB	0d7H
	DB	01dH
	DB	0d7H
	DB	01dH
	DB	0cfH
	DB	01dH
	DB	0d7H
	DB	01dH
	DB	0d7H
	DB	01dH
	DB	0cfH
	DB	01dH
	DB	0d7H
	DB	01dH
	DB	0d7H
	DB	01dH
	DB	0cfH
	DB	01dH
	DB	0d7H
	DB	01dH
	DB	0d7H
	DB	01dH
	DB	0cfH
	DB	01dH
	DB	0d7H
	DB	01dH
	DB	0d7H
	DB	01dH
	DB	0cfH
	DB	01dH
	DB	0d7H
	DB	01dH
	DB	0d7H
	DB	01dH
	DB	0cfH
	DB	01dH
	DB	0d7H
	DB	01dH
	DB	0d7H
	DB	01dH
	DB	0cfH
	DB	01dH
	DB	0d7H
	DB	01dH
	DB	0d7H
	DB	01dH
	DB	0cfH
	DB	01dH
	DB	0d7H
	DB	01dH
	DB	0d7H
	DB	01dH
	DB	0cfH
	DB	01dH
	DB	0d7H
	DB	0fdH
	DB	0d6H
	DB	0fdH
	DB	0ceH
	DB	0fdH
	DB	0d6H
	DB	01dH
	DB	0d7H
	DB	0fdH
	DB	0ceH
	DB	0fdH
	DB	0d6H
	DB	01dH
	DB	0d7H
	DB	0fdH
	DB	0ceH
	DB	0fdH
	DB	0d6H
	DB	01dH
	DB	0d7H
	DB	0fdH
	DB	0ceH
	DB	0fdH
	DB	0ceH
	DB	01dH
	DB	0d7H
	DB	0fdH
	DB	0ceH
	DB	0fdH
	DB	0ceH
	DB	0fdH
	DB	0ceH
	DB	0fdH
	DB	0ceH
	DB	0fdH
	DB	0ceH
	DB	0fdH
	DB	0ceH
	DB	0fdH
	DB	0ceH
	DB	0fdH
	DB	0ceH
	DB	0fdH
	DB	0ceH
	DB	0fdH
	DB	0ceH
	DB	0fdH
	DB	0ceH
	DB	0fdH
	DB	0ceH
	DB	0fdH
	DB	0ceH
	DB	0fdH
	DB	0ceH
	DB	0fdH
	DB	0ceH
	DB	0fdH
	DB	0ceH
	DB	0fdH
	DB	0ceH
	DB	0fdH
	DB	0ceH
	DB	0fdH
	DB	0ceH
	DB	0fdH
	DB	0ceH
	DB	0fdH
	DB	0ceH
	DB	0fdH
	DB	0ceH
	DB	0fdH
	DB	0ceH
	DB	0fdH
	DB	0ceH
	DB	0fdH
	DB	0ceH
	DB	0fdH
	DB	0ceH
	DB	0fdH
	DB	0ceH
	DB	0fdH
	DB	0ceH
	DB	0fdH
	DB	0ceH
	DB	0fdH
	DB	0ceH
	DB	0fdH
	DB	0ceH
	DB	0fdH
	DB	0ceH
	DB	0fdH
	DB	0ceH
	DB	0fdH
	DB	0ceH
	DB	0fdH
	DB	0ceH
	DB	0fdH
	DB	0ceH
	DB	0fdH
	DB	0d6H
	DB	0fdH
	DB	0ceH
	DB	0fdH
	DB	0ceH
	DB	01dH
	DB	0d7H
	DB	0fdH
	DB	0ceH
	DB	0fdH
	DB	0d6H
	DB	01dH
	DB	0d7H
	DB	0fdH
	DB	0ceH
	DB	0fdH
	DB	0d6H
	DB	01dH
	DB	0d7H
	DB	0fdH
	DB	0ceH
	DB	0fdH
	DB	0d6H
	DB	01dH
	DB	0d7H
	DB	0fdH
	DB	0ceH
	DB	0fdH
	DB	0d6H
	DB	01dH
	DB	0d7H
	DB	01dH
	DB	0cfH
	DB	01dH
	DB	0d7H
	DB	01dH
	DB	0d7H
	DB	01dH
	DB	0cfH
	DB	01dH
	DB	0d7H
	DB	01dH
	DB	0d7H
	DB	01dH
	DB	0cfH
	DB	01dH
	DB	0d7H
	DB	01dH
	DB	0d7H
	DB	01dH
	DB	0cfH
	DB	01dH
	DB	0d7H
	DB	01dH
	DB	0d7H
	DB	01dH
	DB	0cfH
	DB	01dH
	DB	0d7H
	DB	01dH
	DB	0d7H
	DB	01dH
	DB	0cfH
	DB	01dH
	DB	0d7H
	DB	01dH
	DB	0d7H
	DB	01dH
	DB	0cfH
	DB	01dH
	DB	0d7H
	DB	01dH
	DB	0d7H
	DB	01dH
	DB	0cfH
	DB	01dH
	DB	0d7H
	DB	01dH
	DB	0d7H
	DB	01dH
	DB	0cfH
	DB	01dH
	DB	0d7H
	DB	01dH
	DB	0d7H
	DB	0fdH
	DB	0ceH
	DB	0feH
	DB	0d6H
	DB	0feH
	DB	0d6H
	DB	0fdH
	DB	0ceH
	DB	0feH
	DB	0d6H
	DB	0feH
	DB	0d6H
	DB	0fdH
	DB	0ceH
	DB	0feH
	DB	0d6H
	DB	0feH
	DB	0d6H
	DB	0fdH
	DB	0ceH
	DB	0feH
	DB	0d6H
	DB	0feH
	DB	0d6H
	DB	0fdH
	DB	0ceH
	DB	0feH
	DB	0d6H
	DB	0feH
	DB	0d6H
	DB	0fdH
	DB	0ceH
	DB	0feH
	DB	0d6H
	DB	0feH
	DB	0d6H
	DB	0fdH
	DB	0ceH
	DB	0feH
	DB	0d6H
	DB	0feH
	DB	0d6H
	DB	0fdH
	DB	0ceH
	DB	0feH
	DB	0d6H
	DB	0feH
	DB	0d6H
	DB	0fdH
	DB	0ceH
	DB	0feH
	DB	0d6H
	DB	0feH
	DB	0d6H
	DB	0fdH
	DB	0ceH
	DB	01eH
	DB	0d7H
	DB	01eH
	DB	0d7H
	DB	0fdH
	DB	0ceH
	DB	01eH
	DB	0d7H
	DB	0feH
	DB	0d6H
	DB	01dH
	DB	0cfH
	DB	01eH
	DB	0d7H
	DB	0feH
	DB	0ceH
	DB	01dH
	DB	0cfH
	DB	0feH
	DB	0d6H
	DB	01eH
	DB	0cfH
	DB	0fdH
	DB	0d6H
	DB	0feH
	DB	0ceH
	DB	0feH
	DB	0ceH
	DB	0fdH
	DB	0d6H
	DB	0fdH
	DB	0d6H
	DB	0feH
	DB	0ceH
	DB	0fdH
	DB	0ceH
	DB	0fdH
	DB	0d6H
	DB	0fdH
	DB	0ceH
	DB	0fdH
	DB	0ceH
	DB	0fdH
	DB	0ceH
	DB	0fdH
	DB	0ceH
	DB	0fdH
	DB	0ceH
	DB	0fdH
	DB	0ceH
	DB	0fdH
	DB	0ceH
	DB	0ddH
	DB	0ceH
	DB	0ddH
	DB	0ceH
	DB	0ddH
	DB	0ceH
	DB	0ddH
	DB	0ceH
	DB	0ddH
	DB	0ceH
	DB	0ddH
	DB	0ceH
	DB	0ddH
	DB	0ceH
	DB	0ddH
	DB	0ceH
	DB	0ddH
	DB	0ceH
	DB	0ddH
	DB	0ceH
	DB	0ddH
	DB	0ceH
	DB	0ddH
	DB	0ceH
	DB	0fdH
	DB	0ceH
	DB	0fdH
	DB	0ceH
	DB	0fdH
	DB	0ceH
	DB	0fdH
	DB	0ceH
	DB	0fdH
	DB	0ceH
	DB	0fdH
	DB	0ceH
	DB	0fdH
	DB	0ceH
	DB	0feH
	DB	0ceH
	DB	0fdH
	DB	0d6H
	DB	0fdH
	DB	0ceH
	DB	0feH
	DB	0ceH
	DB	0feH
	DB	0d6H
	DB	0fdH
	DB	0ceH
	DB	0feH
	DB	0ceH
	DB	0feH
	DB	0d6H
	DB	01dH
	DB	0cfH
	DB	0feH
	DB	0ceH
	DB	01eH
	DB	0d7H
	DB	0fdH
	DB	0ceH
	DB	01eH
	DB	0d7H
	DB	01eH
	DB	0d7H
	DB	0fdH
	DB	0ceH
	DB	01eH
	DB	0d7H
	DB	0feH
	DB	0d6H
	DB	01dH
	DB	0cfH
	DB	0feH
	DB	0d6H
	DB	0feH
	DB	0d6H
	DB	0fdH
	DB	0ceH
	DB	0feH
	DB	0d6H
	DB	0feH
	DB	0d6H
	DB	0fdH
	DB	0ceH
	DB	0feH
	DB	0d6H
	DB	0feH
	DB	0d6H
	DB	0fdH
	DB	0ceH
	DB	0feH
	DB	0d6H
	DB	0feH
	DB	0d6H
	DB	0fdH
	DB	0ceH
	DB	0feH
	DB	0d6H
	DB	0feH
	DB	0d6H
	DB	0fdH
	DB	0ceH
	DB	0feH
	DB	0d6H
	DB	0feH
	DB	0d6H
	DB	0fdH
	DB	0ceH
	DB	0feH
	DB	0d6H
	DB	0feH
	DB	0d6H
	DB	0fdH
	DB	0ceH
	DB	0feH
	DB	0d6H
	DB	0feH
	DB	0d6H
	DB	0fdH
	DB	0ceH
	DB	0feH
	DB	0d6H
	DB	0feH
	DB	0d6H
	DB	0fdH
	DB	0ceH
	DB	0feH
	DB	0d6H
	DB	0fdH
	DB	0d6H
	DB	0fdH
	DB	0d6H
	DB	01dH
	DB	0cfH
	DB	01eH
	DB	0d7H
	DB	0fdH
	DB	0ceH
	DB	01dH
	DB	0d7H
	DB	01eH
	DB	0d7H
	DB	0fdH
	DB	0ceH
	DB	01dH
	DB	0d7H
	DB	01eH
	DB	0d7H
	DB	0fdH
	DB	0ceH
	DB	01dH
	DB	0d7H
	DB	01eH
	DB	0d7H
	DB	0fdH
	DB	0ceH
	DB	01dH
	DB	0d7H
	DB	01eH
	DB	0d7H
	DB	0fdH
	DB	0ceH
	DB	01dH
	DB	0d7H
	DB	01eH
	DB	0d7H
	DB	0fdH
	DB	0ceH
	DB	01dH
	DB	0d7H
	DB	01eH
	DB	0d7H
	DB	0fdH
	DB	0ceH
	DB	01dH
	DB	0d7H
	DB	01eH
	DB	0d7H
	DB	0fdH
	DB	0ceH
	DB	01dH
	DB	0d7H
	DB	01eH
	DB	0d7H
	DB	0fdH
	DB	0ceH
	DB	01dH
	DB	0d7H
	DB	0feH
	DB	0d6H
	DB	01dH
	DB	0cfH
	DB	0fdH
	DB	0d6H
	DB	01eH
	DB	0cfH
	DB	0fdH
	DB	0ceH
	DB	0fdH
	DB	0d6H
	DB	01eH
	DB	0d7H
	DB	0fdH
	DB	0ceH
	DB	0fdH
	DB	0d6H
	DB	0feH
	DB	0ceH
	DB	0fdH
	DB	0ceH
	DB	0fdH
	DB	0d6H
	DB	01dH
	DB	0cfH
	DB	0fdH
	DB	0ceH
	DB	0feH
	DB	0ceH
	DB	0fdH
	DB	0ceH
	DB	0fdH
	DB	0ceH
	DB	0feH
	DB	0ceH
	DB	0feH
	DB	0ceH
	DB	0fdH
	DB	0ceH
	DB	0fdH
	DB	0ceH
	DB	0deH
	DB	0ceH
	DB	0ddH
	DB	0ceH
	DB	0ddH
	DB	0ceH
	DB	0ddH
	DB	0ceH
	DB	0ddH
	DB	0ceH
	DB	0ddH
	DB	0c6H
	DB	0ddH
	DB	0ceH
	DB	0ddH
	DB	0c6H
	DB	0ddH
	DB	0ceH
	DB	0ddH
	DB	0c6H
	DB	0ddH
	DB	0c6H
	DB	0ddH
	DB	0ceH
	DB	0ddH
	DB	0c6H
	DB	0ddH
	DB	0ceH
	DB	0ddH
	DB	0ceH
	DB	0ddH
	DB	0c6H
	DB	0ddH
	DB	0ceH
	DB	0deH
	DB	0ceH
	DB	0ddH
	DB	0ceH
	DB	0ddH
	DB	0ceH
	DB	0feH
	DB	0ceH
	DB	0fdH
	DB	0ceH
	DB	0fdH
	DB	0ceH
	DB	0feH
	DB	0ceH
	DB	0fdH
	DB	0ceH
	DB	0fdH
	DB	0ceH
	DB	0fdH
	DB	0ceH
	DB	0fdH
	DB	0ceH
	DB	01dH
	DB	0cfH
	DB	0fdH
	DB	0d6H
	DB	0feH
	DB	0ceH
	DB	0fdH
	DB	0ceH
	DB	0fdH
	DB	0d6H
	DB	01eH
	DB	0cfH
	DB	0fdH
	DB	0ceH
	DB	0fdH
	DB	0d6H
	DB	01eH
	DB	0cfH
	DB	0fdH
	DB	0ceH
	DB	01dH
	DB	0d7H
	DB	01eH
	DB	0d7H
	DB	0fdH
	DB	0ceH
	DB	01dH
	DB	0d7H
	DB	01eH
	DB	0cfH
	DB	01dH
	DB	0d7H
	DB	0fdH
	DB	0d6H
	DB	01eH
	DB	0cfH
	DB	01dH
	DB	0d7H
	DB	0fdH
	DB	0ceH
	DB	01eH
	DB	0d7H
	DB	01dH
	DB	0d7H
	DB	0fdH
	DB	0ceH
	DB	01eH
	DB	0d7H
	DB	01dH
	DB	0cfH
	DB	0fdH
	DB	0d6H
	DB	01eH
	DB	0d7H
	DB	01dH
	DB	0cfH
	DB	0fdH
	DB	0d6H
	DB	01eH
	DB	0cfH
	DB	01dH
	DB	0d7H
	DB	0fdH
	DB	0d6H
	DB	01eH
	DB	0cfH
	DB	01dH
	DB	0d7H
	DB	0fdH
	DB	0ceH
	DB	01eH
	DB	0d7H
	DB	01dH
	DB	0d7H
	DB	0fdH
	DB	0ceH
	DB	01eH
	DB	0d7H
	DB	01dH
	DB	0cfH
	DB	0feH
	DB	0ceH
	DB	01dH
	DB	0d7H
	DB	0fdH
	DB	0d6H
	DB	01dH
	DB	0d7H
	DB	01eH
	DB	0cfH
	DB	0fdH
	DB	0d6H
	DB	01dH
	DB	0cfH
	DB	0fdH
	DB	0d6H
	DB	01eH
	DB	0cfH
	DB	0fdH
	DB	0d6H
	DB	01dH
	DB	0cfH
	DB	0feH
	DB	0d6H
	DB	01dH
	DB	0cfH
	DB	0fdH
	DB	0d6H
	DB	01eH
	DB	0cfH
	DB	0fdH
	DB	0d6H
	DB	01dH
	DB	0cfH
	DB	0feH
	DB	0d6H
	DB	01dH
	DB	0cfH
	DB	0fdH
	DB	0d6H
	DB	01eH
	DB	0cfH
	DB	0fdH
	DB	0d6H
	DB	01dH
	DB	0cfH
	DB	0feH
	DB	0d6H
	DB	01dH
	DB	0cfH
	DB	0fdH
	DB	0d6H
	DB	01eH
	DB	0cfH
	DB	0fdH
	DB	0d6H
	DB	01dH
	DB	0cfH
	DB	0feH
	DB	0d6H
	DB	0fdH
	DB	0ceH
	DB	01dH
	DB	0cfH
	DB	0feH
	DB	0d6H
	DB	01dH
	DB	0cfH
	DB	01dH
	DB	0d7H
	DB	0feH
	DB	0ceH
	DB	01dH
	DB	0d7H
	DB	0fdH
	DB	0ceH
	DB	0feH
	DB	0ceH
	DB	0fdH
	DB	0d6H
	DB	01dH
	DB	0cfH
	DB	0fdH
	DB	0ceH
	DB	0fdH
	DB	0ceH
	DB	0fdH
	DB	0ceH
	DB	0feH
	DB	0ceH
	DB	0fdH
	DB	0ceH
	DB	0fdH
	DB	0ceH
	DB	0fdH
	DB	0ceH
	DB	0ddH
	DB	0ceH
	DB	0ddH
	DB	0ceH
	DB	0ddH
	DB	0ceH
	DB	0ddH
	DB	0ceH
	DB	0ddH
	DB	0ceH
	DB	0ddH
	DB	0ceH
	DB	0ddH
	DB	0c6H
	DB	0ddH
	DB	0c6H
	DB	0ddH
	DB	0c6H
	DB	0ddH
	DB	0c6H
	DB	0ddH
	DB	0c6H
	DB	0ddH
	DB	0c6H
	DB	0ddH
	DB	0c6H
	DB	0ddH
	DB	0c6H
	DB	0ddH
	DB	0c6H
	DB	0ddH
	DB	0c6H
	DB	0ddH
	DB	0c6H
	DB	0ddH
	DB	0c6H
	DB	0ddH
	DB	0c6H
	DB	0ddH
	DB	0c6H
	DB	0ddH
	DB	0c6H
	DB	0ddH
	DB	0ceH
	DB	0ddH
	DB	0ceH
	DB	0ddH
	DB	0c6H
	DB	0ddH
	DB	0ceH
	DB	0ddH
	DB	0ceH
	DB	0ddH
	DB	0ceH
	DB	0fdH
	DB	0ceH
	DB	0fdH
	DB	0ceH
	DB	0fdH
	DB	0ceH
	DB	0feH
	DB	0ceH
	DB	0fdH
	DB	0ceH
	DB	0fdH
	DB	0ceH
	DB	0fdH
	DB	0ceH
	DB	01dH
	DB	0cfH
	DB	0fdH
	DB	0d6H
	DB	0fdH
	DB	0d6H
	DB	0feH
	DB	0ceH
	DB	0fdH
	DB	0d6H
	DB	01dH
	DB	0cfH
	DB	0feH
	DB	0d6H
	DB	0fdH
	DB	0ceH
	DB	01dH
	DB	0cfH
	DB	0feH
	DB	0ceH
	DB	0fdH
	DB	0d6H
	DB	01dH
	DB	0d7H
	DB	01eH
	DB	0cfH
	DB	0fdH
	DB	0d6H
	DB	01dH
	DB	0cfH
	DB	01eH
	DB	0d7H
	DB	0fdH
	DB	0d6H
	DB	01dH
	DB	0cfH
	DB	0feH
	DB	0d6H
	DB	01dH
	DB	0cfH
	DB	0fdH
	DB	0d6H
	DB	01eH
	DB	0d7H
	DB	0fdH
	DB	0ceH
	DB	01dH
	DB	0d7H
	DB	0feH
	DB	0ceH
	DB	01dH
	DB	0d7H
	DB	0fdH
	DB	0d6H
	DB	01eH
	DB	0cfH
	DB	0fdH
	DB	0d6H
	DB	01dH
	DB	0cfH
	DB	0feH
	DB	0d6H
	DB	01dH
	DB	0d7H
	DB	0fdH
	DB	0ceH
	DB	01eH
	DB	0d7H
	DB	0fdH
	DB	0ceH
	DB	01dH
	DB	0d7H
	DB	0fdH
	DB	0d6H
	DB	01dH
	DB	0d7H
	DB	0fdH
	DB	0ceH
	DB	0feH
	DB	0d6H
	DB	0fdH
	DB	0ceH
	DB	0feH
	DB	0d6H
	DB	0fdH
	DB	0d6H
	DB	01eH
	DB	0cfH
	DB	0fdH
	DB	0d6H
	DB	0feH
	DB	0d6H
	DB	01dH
	DB	0d7H
	DB	0fdH
	DB	0ceH
	DB	0feH
	DB	0d6H
	DB	01dH
	DB	0d7H
	DB	0fdH
	DB	0ceH
	DB	0feH
	DB	0d6H
	DB	01dH
	DB	0d7H
	DB	0fdH
	DB	0ceH
	DB	0feH
	DB	0d6H
	DB	01dH
	DB	0d7H
	DB	0fdH
	DB	0ceH
	DB	0feH
	DB	0d6H
	DB	01dH
	DB	0d7H
	DB	0fdH
	DB	0ceH
	DB	0feH
	DB	0d6H
	DB	01dH
	DB	0d7H
	DB	0fdH
	DB	0ceH
	DB	0feH
	DB	0d6H
	DB	01dH
	DB	0d7H
	DB	0fdH
	DB	0ceH
	DB	0feH
	DB	0ceH
	DB	01dH
	DB	0d7H
	DB	01dH
	DB	0cfH
	DB	0feH
	DB	0d6H
	DB	0fdH
	DB	0ceH
	DB	01dH
	DB	0d7H
	DB	0feH
	DB	0ceH
	DB	0fdH
	DB	0d6H
	DB	0fdH
	DB	0ceH
	DB	0feH
	DB	0ceH
	DB	0fdH
	DB	0ceH
	DB	01dH
	DB	0cfH
	DB	0fdH
	DB	0ceH
	DB	0feH
	DB	0ceH
	DB	0fdH
	DB	0ceH
	DB	0fdH
	DB	0ceH
	DB	0feH
	DB	0ceH
	DB	0fdH
	DB	0ceH
	DB	0fdH
	DB	0ceH
	DB	0ddH
	DB	0ceH
	DB	0ddH
	DB	0ceH
	DB	0ddH
	DB	0ceH
	DB	0ddH
	DB	0c6H
	DB	0ddH
	DB	0c6H
	DB	0ddH
	DB	0c6H
	DB	0ddH
	DB	0c6H
	DB	0ddH
	DB	0c6H
	DB	0ddH
	DB	0c6H
	DB	0ddH
	DB	0c6H
	DB	0ddH
	DB	0c6H
	DB	0ddH
	DB	0c6H
	DB	0ddH
	DB	0c6H
	DB	0ddH
	DB	0c6H
	DB	0ddH
	DB	0c6H
	DB	0ddH
	DB	0c6H
	DB	0ddH
	DB	0c6H
	DB	0ddH
	DB	0c6H
	DB	0ddH
	DB	0c6H
	DB	0ddH
	DB	0c6H
	DB	0ddH
	DB	0c6H
	DB	0ddH
	DB	0c6H
	DB	0ddH
	DB	0c6H
	DB	0ddH
	DB	0c6H
	DB	0ddH
	DB	0c6H
	DB	0ddH
	DB	0ceH
	DB	0ddH
	DB	0c6H
	DB	0ddH
	DB	0ceH
	DB	0ddH
	DB	0ceH
	DB	0ddH
	DB	0ceH
	DB	0fdH
	DB	0ceH
	DB	0fdH
	DB	0ceH
	DB	0feH
	DB	0ceH
	DB	0fdH
	DB	0ceH
	DB	0feH
	DB	0ceH
	DB	0fdH
	DB	0ceH
	DB	0fdH
	DB	0ceH
	DB	01eH
	DB	0cfH
	DB	0fdH
	DB	0ceH
	DB	0fdH
	DB	0ceH
	DB	01eH
	DB	0d7H
	DB	0fdH
	DB	0d6H
	DB	0fdH
	DB	0d6H
	DB	01eH
	DB	0cfH
	DB	0fdH
	DB	0d6H
	DB	01dH
	DB	0cfH
	DB	0feH
	DB	0ceH
	DB	0fdH
	DB	0d6H
	DB	0fdH
	DB	0ceH
	DB	01eH
	DB	0cfH
	DB	0fdH
	DB	0d6H
	DB	0fdH
	DB	0d6H
	DB	01eH
	DB	0cfH
	DB	0fdH
	DB	0d6H
	DB	0fdH
	DB	0d6H
	DB	01eH
	DB	0cfH
	DB	0fdH
	DB	0d6H
	DB	0fdH
	DB	0d6H
	DB	01eH
	DB	0cfH
	DB	0fdH
	DB	0d6H
	DB	0fdH
	DB	0d6H
	DB	01eH
	DB	0cfH
	DB	0fdH
	DB	0d6H
	DB	0fdH
	DB	0d6H
	DB	01eH
	DB	0cfH
	DB	0fdH
	DB	0d6H
	DB	0fdH
	DB	0d6H
	DB	01eH
	DB	0cfH
	DB	0fdH
	DB	0d6H
	DB	0feH
	DB	0d6H
	DB	01eH
	DB	0cfH
	DB	0fdH
	DB	0d6H
	DB	01eH
	DB	0d7H
	DB	01dH
	DB	0d7H
	DB	0fdH
	DB	0ceH
	DB	01dH
	DB	0d7H
	DB	01dH
	DB	0cfH
	DB	0feH
	DB	0d6H
	DB	01dH
	DB	0d7H
	DB	01dH
	DB	0cfH
	DB	0feH
	DB	0d6H
	DB	01dH
	DB	0cfH
	DB	01eH
	DB	0d7H
	DB	0fdH
	DB	0d6H
	DB	01dH
	DB	0cfH
	DB	01eH
	DB	0d7H
	DB	0fdH
	DB	0d6H
	DB	01dH
	DB	0cfH
	DB	01eH
	DB	0d7H
	DB	0fdH
	DB	0d6H
	DB	01dH
	DB	0cfH
	DB	01eH
	DB	0d7H
	DB	0fdH
	DB	0d6H
	DB	01dH
	DB	0cfH
	DB	01eH
	DB	0d7H
	DB	0fdH
	DB	0d6H
	DB	01dH
	DB	0cfH
	DB	01eH
	DB	0d7H
	DB	0fdH
	DB	0d6H
	DB	01dH
	DB	0cfH
	DB	01eH
	DB	0cfH
	DB	0fdH
	DB	0d6H
	DB	01dH
	DB	0d7H
	DB	01eH
	DB	0cfH
	DB	0fdH
	DB	0d6H
	DB	01dH
	DB	0d7H
	DB	0feH
	DB	0ceH
	DB	0fdH
	DB	0ceH
	DB	0fdH
	DB	0ceH
	DB	0fdH
	DB	0d6H
	DB	01dH
	DB	0d7H
	DB	0fdH
	DB	0ceH
	DB	0fdH
	DB	0ceH
	DB	0feH
	DB	0d6H
	DB	0fdH
	DB	0ceH
	DB	0fdH
	DB	0ceH
	DB	0fdH
	DB	0ceH
	DB	0ddH
	DB	0ceH
	DB	0ddH
	DB	0ceH
	DB	0ddH
	DB	0ceH
	DB	0ddH
	DB	0ceH
	DB	0ddH
	DB	0c6H
	DB	0ddH
	DB	0c6H
	DB	0ddH
	DB	0c6H
	DB	0ddH
	DB	0c6H
	DB	0ddH
	DB	0c6H
	DB	0ddH
	DB	0c6H
	DB	0bdH
	DB	0c6H
	DB	0bdH
	DB	0c6H
	DB	0bdH
	DB	0c6H
	DB	0bdH
	DB	0c6H
	DB	0bdH
	DB	0c6H
	DB	0bdH
	DB	0c6H
	DB	0bdH
	DB	0c6H
	DB	0bdH
	DB	0c6H
	DB	0bdH
	DB	0c6H
	DB	0bdH
	DB	0c6H
	DB	0bdH
	DB	0c6H
	DB	0bdH
	DB	0c6H
	DB	0bdH
	DB	0c6H
	DB	0bdH
	DB	0c6H
	DB	0bdH
	DB	0c6H
	DB	0ddH
	DB	0c6H
	DB	0ddH
	DB	0c6H
	DB	0ddH
	DB	0c6H
	DB	0ddH
	DB	0c6H
	DB	0ddH
	DB	0c6H
	DB	0ddH
	DB	0c6H
	DB	0ddH
	DB	0ceH
	DB	0ddH
	DB	0ceH
	DB	0ddH
	DB	0ceH
	DB	0ddH
	DB	0ceH
	DB	0ddH
	DB	0ceH
	DB	0fdH
	DB	0ceH
	DB	0fdH
	DB	0ceH
	DB	0feH
	DB	0ceH
	DB	0fdH
	DB	0ceH
	DB	0fdH
	DB	0ceH
	DB	0fdH
	DB	0ceH
	DB	0fdH
	DB	0d6H
	DB	0fdH
	DB	0ceH
	DB	0feH
	DB	0ceH
	DB	0fdH
	DB	0ceH
	DB	0feH
	DB	0d6H
	DB	01dH
	DB	0d7H
	DB	01dH
	DB	0cfH
	DB	0feH
	DB	0d6H
	DB	01dH
	DB	0d7H
	DB	01eH
	DB	0cfH
	DB	0fdH
	DB	0d6H
	DB	0fdH
	DB	0ceH
	DB	01eH
	DB	0d7H
	DB	01dH
	DB	0d7H
	DB	0fdH
	DB	0ceH
	DB	01eH
	DB	0d7H
	DB	01dH
	DB	0cfH
	DB	0fdH
	DB	0d6H
	DB	01eH
	DB	0d7H
	DB	01dH
	DB	0cfH
	DB	0fdH
	DB	0d6H
	DB	01eH
	DB	0cfH
	DB	01dH
	DB	0d7H
	DB	0fdH
	DB	0d6H
	DB	01eH
	DB	0cfH
	DB	01dH
	DB	0d7H
	DB	0fdH
	DB	0ceH
	DB	01eH
	DB	0d7H
	DB	01dH
	DB	0d7H
	DB	0fdH
	DB	0ceH
	DB	01dH
	DB	0d7H
	DB	01eH
	DB	0cfH
	DB	0fdH
	DB	0ceH
	DB	0feH
	DB	0d6H
	DB	01eH
	DB	0cfH
	DB	01dH
	DB	0d7H
	DB	0fdH
	DB	0d6H
	DB	01eH
	DB	0cfH
	DB	0fdH
	DB	0d6H
	DB	0fdH
	DB	0d6H
	DB	01eH
	DB	0cfH
	DB	0fdH
	DB	0d6H
	DB	0fdH
	DB	0d6H
	DB	01eH
	DB	0cfH
	DB	0fdH
	DB	0d6H
	DB	01eH
	DB	0cfH
	DB	0feH
	DB	0d6H
	DB	01dH
	DB	0cfH
	DB	0feH
	DB	0d6H
	DB	01dH
	DB	0d7H
	DB	0feH
	DB	0ceH
	DB	0fdH
	DB	0d6H
	DB	01eH
	DB	0d7H
	DB	0fdH
	DB	0ceH
	DB	01eH
	DB	0d7H
	DB	0feH
	DB	0d6H
	DB	0fdH
	DB	0ceH
	DB	01eH
	DB	0d7H
	DB	0fdH
	DB	0ceH
	DB	01eH
	DB	0cfH
	DB	0fdH
	DB	0d6H
	DB	01eH
	DB	0d7H
	DB	0fdH
	DB	0ceH
	DB	0feH
	DB	0ceH
	DB	01eH
	DB	0d7H
	DB	0fdH
	DB	0ceH
	DB	0feH
	DB	0ceH
	DB	0fdH
	DB	0d6H
	DB	0feH
	DB	0ceH
	DB	01dH
	DB	0cfH
	DB	0feH
	DB	0ceH
	DB	0fdH
	DB	0ceH
	DB	0fdH
	DB	0ceH
	DB	0feH
	DB	0ceH
	DB	0fdH
	DB	0ceH
	DB	0fdH
	DB	0ceH
	DB	0ddH
	DB	0ceH
	DB	0fdH
	DB	0ceH
	DB	0ddH
	DB	0ceH
	DB	0ddH
	DB	0ceH
	DB	0ddH
	DB	0c6H
	DB	0ddH
	DB	0c6H
	DB	0ddH
	DB	0c6H
	DB	0ddH
	DB	0c6H
	DB	0ddH
	DB	0c6H
	DB	0bdH
	DB	0c6H
	DB	0bdH
	DB	0c6H
	DB	0bdH
	DB	0c6H
	DB	0bdH
	DB	0c6H
	DB	0bdH
	DB	0c6H
	DB	0bdH
	DB	0c6H
	DB	0bdH
	DB	0beH
	DB	0bdH
	DB	0beH
	DB	09dH
	DB	0c6H
	DB	09dH
	DB	0beH
	DB	09dH
	DB	0beH
	DB	09dH
	DB	0beH
	DB	09dH
	DB	0beH
	DB	09dH
	DB	0beH
	DB	0bdH
	DB	0c6H
	DB	0bdH
	DB	0beH
	DB	0bdH
	DB	0c6H
	DB	0bdH
	DB	0c6H
	DB	0bdH
	DB	0c6H
	DB	0bdH
	DB	0c6H
	DB	0bdH
	DB	0c6H
	DB	0bdH
	DB	0c6H
	DB	0ddH
	DB	0c6H
	DB	0ddH
	DB	0c6H
	DB	0ddH
	DB	0c6H
	DB	0ddH
	DB	0c6H
	DB	0ddH
	DB	0c6H
	DB	0ddH
	DB	0ceH
	DB	0ddH
	DB	0ceH
	DB	0fdH
	DB	0ceH
	DB	0ddH
	DB	0ceH
	DB	0fdH
	DB	0ceH
	DB	0fdH
	DB	0ceH
	DB	0feH
	DB	0ceH
	DB	0fdH
	DB	0d6H
	DB	0fdH
	DB	0ceH
	DB	0feH
	DB	0ceH
	DB	01dH
	DB	0cfH
	DB	0fdH
	DB	0ceH
	DB	0feH
	DB	0ceH
	DB	0fdH
	DB	0d6H
	DB	01eH
	DB	0cfH
	DB	0fdH
	DB	0ceH
	DB	01dH
	DB	0d7H
	DB	01eH
	DB	0cfH
	DB	0fdH
	DB	0d6H
	DB	01eH
	DB	0cfH
	DB	01eH
	DB	0cfH
	DB	0fdH
	DB	0d6H
	DB	0feH
	DB	0d6H
	DB	01dH
	DB	0cfH
	DB	0feH
	DB	0d6H
	DB	01dH
	DB	0cfH
	DB	0feH
	DB	0d6H
	DB	0fdH
	DB	0d6H
	DB	01eH
	DB	0cfH
	DB	0feH
	DB	0d6H
	DB	01dH
	DB	0d7H
	DB	0feH
	DB	0ceH
	DB	01dH
	DB	0d7H
	DB	0feH
	DB	0d6H
	DB	0fdH
	DB	0ceH
	DB	01eH
	DB	0d7H
	DB	0fdH
	DB	0d6H
	DB	01dH
	DB	0cfH
	DB	0feH
	DB	0d6H
	DB	01dH
	DB	0d7H
	DB	0fdH
	DB	0d6H
	DB	0fdH
	DB	0ceH
	DB	01dH
	DB	0d7H
	DB	0fdH
	DB	0d6H
	DB	0fdH
	DB	0d6H
	DB	01eH
	DB	0cfH
	DB	01dH
	DB	0d7H
	DB	0feH
	DB	0ceH
	DB	01dH
	DB	0d7H
	DB	01dH
	DB	0d7H
	DB	0feH
	DB	0ceH
	DB	01dH
	DB	0d7H
	DB	0fdH
	DB	0d6H
	DB	0fdH
	DB	0d6H
	DB	01dH
	DB	0cfH
	DB	0fdH
	DB	0d6H
	DB	01eH
	DB	0d7H
	DB	0fdH
	DB	0ceH
	DB	01dH
	DB	0cfH
	DB	01eH
	DB	0d7H
	DB	0fdH
	DB	0ceH
	DB	01dH
	DB	0d7H
	DB	0fdH
	DB	0ceH
	DB	01dH
	DB	0d7H
	DB	01dH
	DB	0d7H
	DB	0feH
	DB	0ceH
	DB	01dH
	DB	0d7H
	DB	0fdH
	DB	0ceH
	DB	01eH
	DB	0d7H
	DB	0fdH
	DB	0d6H
	DB	01dH
	DB	0cfH
	DB	01dH
	DB	0d7H
	DB	0fdH
	DB	0d6H
	DB	0fdH
	DB	0ceH
	DB	0feH
	DB	0ceH
	DB	01dH
	DB	0d7H
	DB	0fdH
	DB	0d6H
	DB	0fdH
	DB	0ceH
	DB	0feH
	DB	0ceH
	DB	0fdH
	DB	0ceH
	DB	0fdH
	DB	0ceH
	DB	0feH
	DB	0ceH
	DB	0fdH
	DB	0ceH
	DB	0ddH
	DB	0ceH
	DB	0fdH
	DB	0ceH
	DB	0deH
	DB	0ceH
	DB	0ddH
	DB	0c6H
	DB	0ddH
	DB	0c6H
	DB	0ddH
	DB	0c6H
	DB	0ddH
	DB	0c6H
	DB	0ddH
	DB	0c6H
	DB	0bdH
	DB	0c6H
	DB	0bdH
	DB	0c6H
	DB	0bdH
	DB	0c6H
	DB	0bdH
	DB	0c6H
	DB	0bdH
	DB	0beH
	DB	0bdH
	DB	0beH
	DB	0bdH
	DB	0beH
	DB	09dH
	DB	0beH
	DB	09dH
	DB	0beH
	DB	09dH
	DB	0beH
	DB	09cH
	DB	0beH
	DB	09dH
	DB	0beH
	DB	09dH
	DB	0beH
	DB	09cH
	DB	0beH
	DB	09dH
	DB	0beH
	DB	09dH
	DB	0beH
	DB	09cH
	DB	0beH
	DB	09dH
	DB	0beH
	DB	09dH
	DB	0beH
	DB	0bcH
	DB	0beH
	DB	09dH
	DB	0beH
	DB	0bdH
	DB	0beH
	DB	0bdH
	DB	0c6H
	DB	0bdH
	DB	0c6H
	DB	0bdH
	DB	0c6H
	DB	0bdH
	DB	0c6H
	DB	0bdH
	DB	0c6H
	DB	0ddH
	DB	0c6H
	DB	0ddH
	DB	0c6H
	DB	0ddH
	DB	0c6H
	DB	0ddH
	DB	0ceH
	DB	0ddH
	DB	0ceH
	DB	0fdH
	DB	0ceH
	DB	0ddH
	DB	0ceH
	DB	0fdH
	DB	0ceH
	DB	0feH
	DB	0ceH
	DB	0fdH
	DB	0ceH
	DB	0fdH
	DB	0ceH
	DB	0fdH
	DB	0ceH
	DB	0fdH
	DB	0d6H
	DB	01dH
	DB	0d7H
	DB	0feH
	DB	0ceH
	DB	0fdH
	DB	0ceH
	DB	0fdH
	DB	0d6H
	DB	01eH
	DB	0d7H
	DB	0fdH
	DB	0ceH
	DB	0fdH
	DB	0d6H
	DB	01eH
	DB	0cfH
	DB	0fdH
	DB	0d6H
	DB	0fdH
	DB	0ceH
	DB	01dH
	DB	0cfH
	DB	01dH
	DB	0d7H
	DB	0feH
	DB	0d6H
	DB	01dH
	DB	0d7H
	DB	0fdH
	DB	0ceH
	DB	01dH
	DB	0d7H
	DB	01eH
	DB	0d7H
	DB	0fdH
	DB	0ceH
	DB	01dH
	DB	0d7H
	DB	0fdH
	DB	0ceH
	DB	01dH
	DB	0cfH
	DB	0feH
	DB	0d6H
	DB	01dH
	DB	0d7H
	DB	01dH
	DB	0cfH
	DB	0feH
	DB	0d6H
	DB	01dH
	DB	0cfH
	DB	0feH
	DB	0d6H
	DB	0fdH
	DB	0d6H
	DB	01dH
	DB	0cfH
	DB	01eH
	DB	0d7H
	DB	0feH
	DB	0d6H
	DB	01dH
	DB	0cfH
	DB	0feH
	DB	0d6H
	DB	0fdH
	DB	0d6H
	DB	01dH
	DB	0d7H
	DB	0feH
	DB	0ceH
	DB	0fdH
	DB	0d6H
	DB	01dH
	DB	0cfH
	DB	0feH
	DB	0d6H
	DB	01dH
	DB	0cfH
	DB	01eH
	DB	0cfH
	DB	0fdH
	DB	0d6H
	DB	01eH
	DB	0cfH
	DB	01dH
	DB	0d7H
	DB	0fdH
	DB	0d6H
	DB	0feH
	DB	0ceH
	DB	01dH
	DB	0d7H
	DB	0fdH
	DB	0d6H
	DB	01eH
	DB	0d7H
	DB	0fdH
	DB	0ceH
	DB	0feH
	DB	0d6H
	DB	01eH
	DB	0d7H
	DB	0fdH
	DB	0ceH
	DB	01dH
	DB	0d7H
	DB	0feH
	DB	0d6H
	DB	0fdH
	DB	0ceH
	DB	01dH
	DB	0d7H
	DB	0feH
	DB	0ceH
	DB	0fdH
	DB	0ceH
	DB	01eH
	DB	0d7H
	DB	01eH
	DB	0cfH
	DB	0fdH
	DB	0d6H
	DB	0fdH
	DB	0ceH
	DB	01eH
	DB	0cfH
	DB	0fdH
	DB	0ceH
	DB	0fdH
	DB	0ceH
	DB	0fdH
	DB	0d6H
	DB	0fdH
	DB	0ceH
	DB	0fdH
	DB	0ceH
	DB	0fdH
	DB	0ceH
	DB	0fdH
	DB	0ceH
	DB	0ddH
	DB	0ceH
	DB	0ddH
	DB	0ceH
	DB	0ddH
	DB	0ceH
	DB	0ddH
	DB	0c6H
	DB	0ddH
	DB	0c6H
	DB	0ddH
	DB	0c6H
	DB	0ddH
	DB	0c6H
	DB	0bdH
	DB	0c6H
	DB	0bdH
	DB	0c6H
	DB	0bdH
	DB	0c6H
	DB	0bdH
	DB	0beH
	DB	0bdH
	DB	0beH
	DB	09dH
	DB	0beH
	DB	09cH
	DB	0beH
	DB	09cH
	DB	0beH
	DB	09cH
	DB	0beH
	DB	07cH
	DB	0b6H
	DB	07cH
	DB	0b6H
	DB	05cH
	DB	0b6H
	DB	05cH
	DB	0b6H
	DB	05bH
	DB	0b6H
	DB	05cH
	DB	0aeH
	DB	05bH
	DB	0b6H
	DB	05bH
	DB	0b6H
	DB	05cH
	DB	0b6H
	DB	05cH
	DB	0b6H
	DB	07cH
	DB	0b6H
	DB	07cH
	DB	0b6H
	DB	09cH
	DB	0beH
	DB	09cH
	DB	0beH
	DB	09dH
	DB	0beH
	DB	09dH
	DB	0beH
	DB	09cH
	DB	0beH
	DB	0bdH
	DB	0beH
	DB	0bdH
	DB	0c6H
	DB	0bdH
	DB	0c6H
	DB	0bdH
	DB	0c6H
	DB	0ddH
	DB	0c6H
	DB	0ddH
	DB	0c6H
	DB	0ddH
	DB	0c6H
	DB	0ddH
	DB	0c6H
	DB	0deH
	DB	0c6H
	DB	0ddH
	DB	0ceH
	DB	0ddH
	DB	0ceH
	DB	0fdH
	DB	0ceH
	DB	0fdH
	DB	0ceH
	DB	0feH
	DB	0ceH
	DB	0fdH
	DB	0ceH
	DB	0fdH
	DB	0ceH
	DB	0feH
	DB	0ceH
	DB	0fdH
	DB	0d6H
	DB	0fdH
	DB	0ceH
	DB	0feH
	DB	0ceH
	DB	0fdH
	DB	0d6H
	DB	01eH
	DB	0cfH
	DB	0fdH
	DB	0d6H
	DB	01dH
	DB	0d7H
	DB	0feH
	DB	0ceH
	DB	01dH
	DB	0d7H
	DB	0feH
	DB	0ceH
	DB	0fdH
	DB	0d6H
	DB	01dH
	DB	0d7H
	DB	0feH
	DB	0ceH
	DB	01dH
	DB	0d7H
	DB	0feH
	DB	0ceH
	DB	0fdH
	DB	0d6H
	DB	01dH
	DB	0d7H
	DB	0feH
	DB	0ceH
	DB	01dH
	DB	0d7H
	DB	0feH
	DB	0d6H
	DB	0fdH
	DB	0ceH
	DB	01dH
	DB	0d7H
	DB	0feH
	DB	0d6H
	DB	01dH
	DB	0cfH
	DB	01dH
	DB	0d7H
	DB	0feH
	DB	0d6H
	DB	01dH
	DB	0cfH
	DB	0fdH
	DB	0ceH
	DB	01eH
	DB	0d7H
	DB	01dH
	DB	0d7H
	DB	0fdH
	DB	0ceH
	DB	01dH
	DB	0d7H
	DB	0fdH
	DB	0ceH
	DB	01eH
	DB	0d7H
	DB	01dH
	DB	0d7H
	DB	0fdH
	DB	0ceH
	DB	01eH
	DB	0d7H
	DB	0fdH
	DB	0d6H
	DB	0fdH
	DB	0d6H
	DB	01eH
	DB	0d7H
	DB	0fdH
	DB	0ceH
	DB	01eH
	DB	0d7H
	DB	0feH
	DB	0d6H
	DB	01dH
	DB	0cfH
	DB	01dH
	DB	0d7H
	DB	0feH
	DB	0d6H
	DB	0fdH
	DB	0ceH
	DB	01dH
	DB	0d7H
	DB	01eH
	DB	0d7H
	DB	0fdH
	DB	0ceH
	DB	01dH
	DB	0d7H
	DB	0feH
	DB	0ceH
	DB	01dH
	DB	0d7H
	DB	01eH
	DB	0cfH
	DB	0fdH
	DB	0ceH
	DB	01dH
	DB	0d7H
	DB	01eH
	DB	0cfH
	DB	0fdH
	DB	0d6H
	DB	0fdH
	DB	0ceH
	DB	01eH
	DB	0cfH
	DB	0fdH
	DB	0d6H
	DB	0feH
	DB	0ceH
	DB	0fdH
	DB	0d6H
	DB	0fdH
	DB	0ceH
	DB	0feH
	DB	0ceH
	DB	0fdH
	DB	0ceH
	DB	0feH
	DB	0ceH
	DB	0fdH
	DB	0ceH
	DB	0fdH
	DB	0ceH
	DB	0ddH
	DB	0ceH
	DB	0ddH
	DB	0ceH
	DB	0ddH
	DB	0c6H
	DB	0ddH
	DB	0c6H
	DB	0ddH
	DB	0c6H
	DB	0bdH
	DB	0c6H
	DB	0bdH
	DB	0c6H
	DB	0bdH
	DB	0c6H
	DB	0bdH
	DB	0c6H
	DB	0bdH
	DB	0beH
	DB	09dH
	DB	0beH
	DB	09cH
	DB	0beH
	DB	09cH
	DB	0beH
	DB	07cH
	DB	0beH
	DB	07cH
	DB	0b6H
	DB	05cH
	DB	0b6H
	DB	03bH
	DB	0aeH
	DB	01bH
	DB	0aeH
	DB	01aH
	DB	0a6H
	DB	0faH
	DB	0a5H
	DB	0daH
	DB	09dH
	DB	0daH
	DB	09dH
	DB	0daH
	DB	09dH
	DB	0daH
	DB	09dH
	DB	0daH
	DB	09dH
	DB	0daH
	DB	09dH
	DB	0faH
	DB	0a5H
	DB	01aH
	DB	0a6H
	DB	01bH
	DB	0aeH
	DB	03cH
	DB	0aeH
	DB	05cH
	DB	0b6H
	DB	07cH
	DB	0b6H
	DB	07cH
	DB	0beH
	DB	09cH
	DB	0beH
	DB	09dH
	DB	0beH
	DB	0bdH
	DB	0beH
	DB	0bdH
	DB	0beH
	DB	0bdH
	DB	0c6H
	DB	0bdH
	DB	0c6H
	DB	0bdH
	DB	0c6H
	DB	0bdH
	DB	0c6H
	DB	0ddH
	DB	0c6H
	DB	0ddH
	DB	0c6H
	DB	0ddH
	DB	0ceH
	DB	0ddH
	DB	0ceH
	DB	0fdH
	DB	0ceH
	DB	0ddH
	DB	0ceH
	DB	0feH
	DB	0ceH
	DB	0fdH
	DB	0ceH
	DB	0fdH
	DB	0ceH
	DB	0fdH
	DB	0ceH
	DB	01dH
	DB	0cfH
	DB	0fdH
	DB	0d6H
	DB	0feH
	DB	0ceH
	DB	0fdH
	DB	0ceH
	DB	01dH
	DB	0d7H
	DB	01eH
	DB	0cfH
	DB	0fdH
	DB	0ceH
	DB	01dH
	DB	0d7H
	DB	01eH
	DB	0d7H
	DB	0fdH
	DB	0ceH
	DB	01eH
	DB	0cfH
	DB	01dH
	DB	0d7H
	DB	0fdH
	DB	0d6H
	DB	01eH
	DB	0cfH
	DB	0fdH
	DB	0d6H
	DB	01dH
	DB	0cfH
	DB	01eH
	DB	0d7H
	DB	0fdH
	DB	0d6H
	DB	01eH
	DB	0d7H
	DB	01dH
	DB	0d7H
	DB	0fdH
	DB	0ceH
	DB	01eH
	DB	0d7H
	DB	0fdH
	DB	0d6H
	DB	0fdH
	DB	0ceH
	DB	01eH
	DB	0d7H
	DB	0fdH
	DB	0d6H
	DB	01eH
	DB	0cfH
	DB	0fdH
	DB	0d6H
	DB	0fdH
	DB	0d6H
	DB	01eH
	DB	0cfH
	DB	0fdH
	DB	0d6H
	DB	0fdH
	DB	0ceH
	DB	0fdH
	DB	0d6H
	DB	01eH
	DB	0cfH
	DB	0fdH
	DB	0d6H
	DB	01eH
	DB	0d7H
	DB	01eH
	DB	0cfH
	DB	0fdH
	DB	0d6H
	DB	01dH
	DB	0d7H
	DB	0feH
	DB	0ceH
	DB	01dH
	DB	0d7H
	DB	0fdH
	DB	0d6H
	DB	0fdH
	DB	0ceH
	DB	01eH
	DB	0cfH
	DB	01dH
	DB	0d7H
	DB	0feH
	DB	0ceH
	DB	01dH
	DB	0cfH
	DB	0fdH
	DB	0d6H
	DB	01eH
	DB	0d7H
	DB	01dH
	DB	0cfH
	DB	0fdH
	DB	0d6H
	DB	0feH
	DB	0d6H
	DB	01dH
	DB	0cfH
	DB	0fdH
	DB	0d6H
	DB	0feH
	DB	0d6H
	DB	01dH
	DB	0cfH
	DB	01dH
	DB	0d7H
	DB	0feH
	DB	0d6H
	DB	01dH
	DB	0cfH
	DB	0fdH
	DB	0d6H
	DB	0fdH
	DB	0ceH
	DB	0fdH
	DB	0ceH
	DB	01dH
	DB	0cfH
	DB	0fdH
	DB	0d6H
	DB	0fdH
	DB	0ceH
	DB	0fdH
	DB	0ceH
	DB	0feH
	DB	0ceH
	DB	0fdH
	DB	0ceH
	DB	0ddH
	DB	0ceH
	DB	0deH
	DB	0ceH
	DB	0ddH
	DB	0c6H
	DB	0ddH
	DB	0c6H
	DB	0ddH
	DB	0c6H
	DB	0ddH
	DB	0c6H
	DB	0bdH
	DB	0c6H
	DB	0bdH
	DB	0c6H
	DB	0bdH
	DB	0c6H
	DB	09dH
	DB	0beH
	DB	09dH
	DB	0beH
	DB	09cH
	DB	0beH
	DB	09cH
	DB	0beH
	DB	07cH
	DB	0b6H
	DB	03cH
	DB	0aeH
	DB	01bH
	DB	0a6H
	DB	0daH
	DB	0a5H
	DB	0faH
	DB	0a5H
	DB	09cH
	DB	0beH
	DB	0fdH
	DB	0d6H
	DB	05eH
	DB	0e7H
	DB	0bfH
	DB	0f7H
	DB	0dfH
	DB	0ffH
	DB	0ffH
	DB	0ffH
	DB	0ffH
	DB	0ffH
	DB	0dfH
	DB	0ffH
	DB	0bfH
	DB	0f7H
	DB	05eH
	DB	0e7H
	DB	0fdH
	DB	0d6H
	DB	09cH
	DB	0beH
	DB	0faH
	DB	0a5H
	DB	0faH
	DB	0a5H
	DB	01bH
	DB	0a6H
	DB	03bH
	DB	0aeH
	DB	07cH
	DB	0b6H
	DB	09cH
	DB	0b6H
	DB	09cH
	DB	0beH
	DB	09dH
	DB	0beH
	DB	09dH
	DB	0beH
	DB	0bdH
	DB	0beH
	DB	0bdH
	DB	0c6H
	DB	0bdH
	DB	0c6H
	DB	0ddH
	DB	0c6H
	DB	0ddH
	DB	0c6H
	DB	0ddH
	DB	0c6H
	DB	0ddH
	DB	0c6H
	DB	0ddH
	DB	0ceH
	DB	0fdH
	DB	0ceH
	DB	0ddH
	DB	0ceH
	DB	0fdH
	DB	0ceH
	DB	0feH
	DB	0ceH
	DB	0fdH
	DB	0ceH
	DB	0fdH
	DB	0ceH
	DB	01eH
	DB	0cfH
	DB	0fdH
	DB	0d6H
	DB	0fdH
	DB	0ceH
	DB	0feH
	DB	0d6H
	DB	01dH
	DB	0d7H
	DB	0fdH
	DB	0ceH
	DB	0feH
	DB	0ceH
	DB	01dH
	DB	0d7H
	DB	0fdH
	DB	0ceH
	DB	0feH
	DB	0ceH
	DB	01dH
	DB	0d7H
	DB	0fdH
	DB	0d6H
	DB	0feH
	DB	0ceH
	DB	01dH
	DB	0d7H
	DB	0feH
	DB	0d6H
	DB	0fdH
	DB	0ceH
	DB	01dH
	DB	0cfH
	DB	0feH
	DB	0d6H
	DB	0fdH
	DB	0ceH
	DB	01eH
	DB	0d7H
	DB	01dH
	DB	0cfH
	DB	0feH
	DB	0d6H
	DB	01dH
	DB	0cfH
	DB	0fdH
	DB	0d6H
	DB	01eH
	DB	0cfH
	DB	0fdH
	DB	0d6H
	DB	01eH
	DB	0d7H
	DB	0fdH
	DB	0ceH
	DB	01eH
	DB	0d7H
	DB	01eH
	DB	0d7H
	DB	0fdH
	DB	0d6H
	DB	0fdH
	DB	0d6H
	DB	01dH
	DB	0cfH
	DB	0fdH
	DB	0d6H
	DB	0fdH
	DB	0d6H
	DB	01eH
	DB	0cfH
	DB	0fdH
	DB	0ceH
	DB	01dH
	DB	0d7H
	DB	01eH
	DB	0cfH
	DB	0fdH
	DB	0d6H
	DB	01dH
	DB	0d7H
	DB	0feH
	DB	0ceH
	DB	0fdH
	DB	0d6H
	DB	01dH
	DB	0d7H
	DB	0feH
	DB	0d6H
	DB	01dH
	DB	0d7H
	DB	0feH
	DB	0ceH
	DB	0fdH
	DB	0d6H
	DB	01dH
	DB	0d7H
	DB	0feH
	DB	0ceH
	DB	01dH
	DB	0d7H
	DB	01dH
	DB	0cfH
	DB	0feH
	DB	0ceH
	DB	01eH
	DB	0d7H
	DB	0fdH
	DB	0ceH
	DB	0fdH
	DB	0ceH
	DB	01eH
	DB	0d7H
	DB	0feH
	DB	0d6H
	DB	0fdH
	DB	0ceH
	DB	0feH
	DB	0d6H
	DB	0fdH
	DB	0ceH
	DB	0feH
	DB	0ceH
	DB	0fdH
	DB	0ceH
	DB	0fdH
	DB	0ceH
	DB	0fdH
	DB	0ceH
	DB	0fdH
	DB	0ceH
	DB	0ddH
	DB	0ceH
	DB	0ddH
	DB	0ceH
	DB	0ddH
	DB	0ceH
	DB	0ddH
	DB	0c6H
	DB	0ddH
	DB	0c6H
	DB	0bdH
	DB	0c6H
	DB	0bdH
	DB	0c6H
	DB	0bdH
	DB	0c6H
	DB	0bdH
	DB	0beH
	DB	09cH
	DB	0beH
	DB	09dH
	DB	0beH
	DB	09cH
	DB	0beH
	DB	07cH
	DB	0b6H
	DB	03cH
	DB	0aeH
	DB	0fbH
	DB	0a5H
	DB	0faH
	DB	0a5H
	DB	0bcH
	DB	0ceH
	DB	09fH
	DB	0efH
	DB	0ffH
	DB	0ffH
	DB	0ffH
	DB	0ffH
	DB	0ffH
	DB	0ffH
	DB	0ffH
	DB	0ffH
	DB	0ffH
	DB	0ffH
	DB	0ffH
	DB	0ffH
	DB	0ffH
	DB	0ffH
	DB	0ffH
	DB	0ffH
	DB	0ffH
	DB	0ffH
	DB	0ffH
	DB	0ffH
	DB	0ffH
	DB	0ffH
	DB	0ffH
	DB	0ffH
	DB	0ffH
	DB	0ffH
	DB	0ffH
	DB	0ffH
	DB	09eH
	DB	0efH
	DB	0bcH
	DB	0c6H
	DB	0faH
	DB	0a5H
	DB	0fbH
	DB	0a5H
	DB	03bH
	DB	0aeH
	DB	05cH
	DB	0b6H
	DB	09cH
	DB	0beH
	DB	09cH
	DB	0beH
	DB	09dH
	DB	0beH
	DB	0bdH
	DB	0beH
	DB	0bdH
	DB	0c6H
	DB	0bdH
	DB	0c6H
	DB	0bdH
	DB	0c6H
	DB	0ddH
	DB	0c6H
	DB	0ddH
	DB	0c6H
	DB	0ddH
	DB	0c6H
	DB	0ddH
	DB	0ceH
	DB	0fdH
	DB	0ceH
	DB	0fdH
	DB	0ceH
	DB	0feH
	DB	0ceH
	DB	0fdH
	DB	0ceH
	DB	0fdH
	DB	0ceH
	DB	0fdH
	DB	0d6H
	DB	0fdH
	DB	0ceH
	DB	0feH
	DB	0ceH
	DB	0fdH
	DB	0ceH
	DB	0feH
	DB	0d6H
	DB	01dH
	DB	0d7H
	DB	01eH
	DB	0cfH
	DB	0fdH
	DB	0d6H
	DB	01dH
	DB	0d7H
	DB	01eH
	DB	0cfH
	DB	0fdH
	DB	0ceH
	DB	01eH
	DB	0d7H
	DB	01dH
	DB	0d7H
	DB	0fdH
	DB	0ceH
	DB	01eH
	DB	0d7H
	DB	01dH
	DB	0d7H
	DB	0fdH
	DB	0ceH
	DB	01eH
	DB	0d7H
	DB	0fdH
	DB	0d6H
	DB	01dH
	DB	0cfH
	DB	0feH
	DB	0d6H
	DB	01dH
	DB	0d7H
	DB	0feH
	DB	0d6H
	DB	01dH
	DB	0cfH
	DB	0fdH
	DB	0d6H
	DB	01eH
	DB	0d7H
	DB	01dH
	DB	0cfH
	DB	0fdH
	DB	0d6H
	DB	0fdH
	DB	0ceH
	DB	01dH
	DB	0d7H
	DB	0feH
	DB	0ceH
	DB	01eH
	DB	0d7H
	DB	0fdH
	DB	0ceH
	DB	01eH
	DB	0d7H
	DB	0fdH
	DB	0d6H
	DB	0fdH
	DB	0ceH
	DB	01eH
	DB	0d7H
	DB	0fdH
	DB	0d6H
	DB	0fdH
	DB	0ceH
	DB	01eH
	DB	0d7H
	DB	01dH
	DB	0d7H
	DB	0feH
	DB	0ceH
	DB	01dH
	DB	0d7H
	DB	0fdH
	DB	0d6H
	DB	01eH
	DB	0cfH
	DB	0fdH
	DB	0d6H
	DB	01dH
	DB	0d7H
	DB	0feH
	DB	0ceH
	DB	01dH
	DB	0d7H
	DB	0feH
	DB	0d6H
	DB	0fdH
	DB	0ceH
	DB	01dH
	DB	0d7H
	DB	01eH
	DB	0cfH
	DB	0fdH
	DB	0d6H
	DB	01dH
	DB	0d7H
	DB	0feH
	DB	0ceH
	DB	0fdH
	DB	0ceH
	DB	0fdH
	DB	0ceH
	DB	01eH
	DB	0cfH
	DB	0fdH
	DB	0d6H
	DB	0fdH
	DB	0ceH
	DB	0fdH
	DB	0ceH
	DB	0feH
	DB	0ceH
	DB	0fdH
	DB	0ceH
	DB	0fdH
	DB	0ceH
	DB	0ddH
	DB	0ceH
	DB	0ddH
	DB	0ceH
	DB	0ddH
	DB	0c6H
	DB	0ddH
	DB	0c6H
	DB	0ddH
	DB	0c6H
	DB	0bdH
	DB	0c6H
	DB	0bdH
	DB	0c6H
	DB	0bdH
	DB	0c6H
	DB	09dH
	DB	0beH
	DB	09cH
	DB	0beH
	DB	09cH
	DB	0beH
	DB	07cH
	DB	0b6H
	DB	03cH
	DB	0aeH
	DB	01bH
	DB	0a6H
	DB	0faH
	DB	0adH
	DB	0fdH
	DB	0d6H
	DB	0ffH
	DB	0ffH
	DB	0ffH
	DB	0ffH
	DB	0ffH
	DB	0ffH
	DB	0ffH
	DB	0ffH
	DB	0ffH
	DB	0ffH
	DB	0ffH
	DB	0ffH
	DB	0ffH
	DB	0ffH
	DB	0ffH
	DB	0ffH
	DB	0ffH
	DB	0ffH
	DB	0ffH
	DB	0ffH
	DB	0ffH
	DB	0ffH
	DB	0ffH
	DB	0ffH
	DB	0ffH
	DB	0ffH
	DB	0ffH
	DB	0ffH
	DB	0ffH
	DB	0ffH
	DB	0ffH
	DB	0ffH
	DB	0ffH
	DB	0ffH
	DB	0ffH
	DB	0ffH
	DB	0ffH
	DB	0ffH
	DB	0ffH
	DB	0ffH
	DB	01dH
	DB	0d7H
	DB	01bH
	DB	0aeH
	DB	01bH
	DB	0a6H
	DB	03cH
	DB	0aeH
	DB	07cH
	DB	0b6H
	DB	09cH
	DB	0beH
	DB	09dH
	DB	0beH
	DB	09cH
	DB	0beH
	DB	0bdH
	DB	0beH
	DB	0bdH
	DB	0c6H
	DB	0bdH
	DB	0c6H
	DB	0bdH
	DB	0c6H
	DB	0ddH
	DB	0c6H
	DB	0ddH
	DB	0ceH
	DB	0ddH
	DB	0ceH
	DB	0ddH
	DB	0ceH
	DB	0ddH
	DB	0ceH
	DB	0fdH
	DB	0ceH
	DB	0feH
	DB	0ceH
	DB	0fdH
	DB	0ceH
	DB	0fdH
	DB	0ceH
	DB	01dH
	DB	0d7H
	DB	0feH
	DB	0ceH
	DB	0fdH
	DB	0ceH
	DB	0fdH
	DB	0d6H
	DB	01eH
	DB	0cfH
	DB	0fdH
	DB	0ceH
	DB	0feH
	DB	0d6H
	DB	01dH
	DB	0d7H
	DB	0fdH
	DB	0ceH
	DB	01eH
	DB	0cfH
	DB	0fdH
	DB	0d6H
	DB	0fdH
	DB	0d6H
	DB	01eH
	DB	0cfH
	DB	0fdH
	DB	0d6H
	DB	01eH
	DB	0d7H
	DB	0fdH
	DB	0ceH
	DB	01dH
	DB	0d7H
	DB	0feH
	DB	0d6H
	DB	0fdH
	DB	0ceH
	DB	01dH
	DB	0d7H
	DB	0feH
	DB	0ceH
	DB	01dH
	DB	0d7H
	DB	0fdH
	DB	0d6H
	DB	0feH
	DB	0ceH
	DB	01dH
	DB	0d7H
	DB	0feH
	DB	0d6H
	DB	01dH
	DB	0cfH
	DB	0fdH
	DB	0d6H
	DB	01dH
	DB	0d7H
	DB	0fdH
	DB	0ceH
	DB	0fdH
	DB	0ceH
	DB	0fdH
	DB	0ceH
	DB	0fdH
	DB	0ceH
	DB	0fdH
	DB	0ceH
	DB	0fdH
	DB	0ceH
	DB	0fdH
	DB	0ceH
	DB	0fdH
	DB	0ceH
	DB	0fdH
	DB	0ceH
	DB	0fdH
	DB	0ceH
	DB	0fdH
	DB	0ceH
	DB	0fdH
	DB	0ceH
	DB	0fdH
	DB	0ceH
	DB	0fdH
	DB	0ceH
	DB	0fdH
	DB	0ceH
	DB	0fdH
	DB	0ceH
	DB	0fdH
	DB	0ceH
	DB	0fdH
	DB	0ceH
	DB	0fdH
	DB	0ceH
	DB	0fdH
	DB	0ceH
	DB	0fdH
	DB	0ceH
	DB	0fdH
	DB	0d6H
	DB	0fdH
	DB	0ceH
	DB	0fdH
	DB	0ceH
	DB	0fdH
	DB	0ceH
	DB	0fdH
	DB	0ceH
	DB	0fdH
	DB	0ceH
	DB	0fdH
	DB	0ceH
	DB	0fdH
	DB	0ceH
	DB	0fdH
	DB	0ceH
	DB	0fdH
	DB	0ceH
	DB	0fdH
	DB	0ceH
	DB	0ddH
	DB	0ceH
	DB	0deH
	DB	0ceH
	DB	0ddH
	DB	0c6H
	DB	0ddH
	DB	0c6H
	DB	0ddH
	DB	0c6H
	DB	0bdH
	DB	0c6H
	DB	0bdH
	DB	0c6H
	DB	0bdH
	DB	0c6H
	DB	09dH
	DB	0beH
	DB	09cH
	DB	0beH
	DB	09cH
	DB	0beH
	DB	07dH
	DB	0b6H
	DB	05cH
	DB	0b6H
	DB	03bH
	DB	0aeH
	DB	0faH
	DB	0a5H
	DB	0bcH
	DB	0ceH
	DB	0ffH
	DB	0ffH
	DB	0ffH
	DB	0ffH
	DB	0ffH
	DB	0ffH
	DB	0ffH
	DB	0ffH
	DB	0ffH
	DB	0ffH
	DB	0ffH
	DB	0ffH
	DB	0ffH
	DB	0ffH
	DB	0ffH
	DB	0ffH
	DB	0ffH
	DB	0ffH
	DB	0ffH
	DB	0ffH
	DB	0ffH
	DB	0ffH
	DB	0ffH
	DB	0ffH
	DB	0ffH
	DB	0ffH
	DB	0ffH
	DB	0ffH
	DB	0ffH
	DB	0ffH
	DB	0ffH
	DB	0ffH
	DB	0ffH
	DB	0ffH
	DB	0ffH
	DB	0ffH
	DB	0ffH
	DB	0ffH
	DB	0ffH
	DB	0ffH
	DB	0ffH
	DB	0ffH
	DB	0ffH
	DB	0ffH
	DB	0ffH
	DB	0ffH
	DB	0ffH
	DB	0ffH
	DB	0bcH
	DB	0ceH
	DB	0faH
	DB	0a5H
	DB	03bH
	DB	0aeH
	DB	05cH
	DB	0b6H
	DB	07cH
	DB	0b6H
	DB	09cH
	DB	0beH
	DB	09dH
	DB	0beH
	DB	0bdH
	DB	0beH
	DB	0bdH
	DB	0c6H
	DB	0bdH
	DB	0c6H
	DB	0bdH
	DB	0c6H
	DB	0ddH
	DB	0c6H
	DB	0ddH
	DB	0c6H
	DB	0ddH
	DB	0c6H
	DB	0ddH
	DB	0ceH
	DB	0fdH
	DB	0ceH
	DB	0fdH
	DB	0ceH
	DB	0fdH
	DB	0ceH
	DB	0feH
	DB	0ceH
	DB	0fdH
	DB	0ceH
	DB	0fdH
	DB	0ceH
	DB	0fdH
	DB	0ceH
	DB	0fdH
	DB	0ceH
	DB	0fdH
	DB	0ceH
	DB	0fdH
	DB	0ceH
	DB	0fdH
	DB	0ceH
	DB	0fdH
	DB	0ceH
	DB	0fdH
	DB	0d6H
	DB	0fdH
	DB	0ceH
	DB	0fdH
	DB	0ceH
	DB	0feH
	DB	0ceH
	DB	0fdH
	DB	0ceH
	DB	0fdH
	DB	0ceH
	DB	0fdH
	DB	0ceH
	DB	0fdH
	DB	0ceH
	DB	0fdH
	DB	0ceH
	DB	0fdH
	DB	0ceH
	DB	0fdH
	DB	0ceH
	DB	0fdH
	DB	0ceH
	DB	0fdH
	DB	0ceH
	DB	0fdH
	DB	0ceH
	DB	0fdH
	DB	0ceH
	DB	0fdH
	DB	0ceH
	DB	0fdH
	DB	0ceH
	DB	0fdH
	DB	0ceH
	DB	0feH
	DB	0ceH
	DB	0fdH
	DB	0ceH
	DB	0fdH
	DB	0ceH
	DB	0fdH
	DB	0ceH
	DB	0fdH
	DB	0ceH
	DB	0feH
	DB	0ceH
	DB	0fdH
	DB	0ceH
	DB	0feH
	DB	0ceH
	DB	0fdH
	DB	0ceH
	DB	0feH
	DB	0ceH
	DB	0feH
	DB	0ceH
	DB	0fdH
	DB	0ceH
	DB	0fdH
	DB	0ceH
	DB	0feH
	DB	0ceH
	DB	0feH
	DB	0ceH
	DB	0fdH
	DB	0ceH
	DB	0feH
	DB	0ceH
	DB	0fdH
	DB	0ceH
	DB	0feH
	DB	0ceH
	DB	0fdH
	DB	0ceH
	DB	0fdH
	DB	0ceH
	DB	0feH
	DB	0ceH
	DB	0fdH
	DB	0ceH
	DB	0feH
	DB	0ceH
	DB	0fdH
	DB	0ceH
	DB	0fdH
	DB	0ceH
	DB	0feH
	DB	0ceH
	DB	0fdH
	DB	0ceH
	DB	0fdH
	DB	0ceH
	DB	0fdH
	DB	0ceH
	DB	0fdH
	DB	0ceH
	DB	0ddH
	DB	0ceH
	DB	0fdH
	DB	0ceH
	DB	0deH
	DB	0ceH
	DB	0ddH
	DB	0ceH
	DB	0ddH
	DB	0c6H
	DB	0ddH
	DB	0c6H
	DB	0ddH
	DB	0c6H
	DB	0bdH
	DB	0c6H
	DB	0bdH
	DB	0c6H
	DB	0bdH
	DB	0beH
	DB	09dH
	DB	0beH
	DB	09cH
	DB	0beH
	DB	09cH
	DB	0beH
	DB	09dH
	DB	0b6H
	DB	07cH
	DB	0b6H
	DB	05cH
	DB	0aeH
	DB	01bH
	DB	0a6H
	DB	01bH
	DB	0aeH
	DB	09fH
	DB	0efH
	DB	0ffH
	DB	0ffH
	DB	0ffH
	DB	0ffH
	DB	0ffH
	DB	0ffH
	DB	0ffH
	DB	0ffH
	DB	0ffH
	DB	0ffH
	DB	0ffH
	DB	0ffH
	DB	0ffH
	DB	0ffH
	DB	05fH
	DB	0dfH
	DB	09dH
	DB	0b6H
	DB	03dH
	DB	096H
	DB	0bcH
	DB	085H
	DB	07cH
	DB	075H
	DB	07bH
	DB	06dH
	DB	07bH
	DB	06dH
	DB	07cH
	DB	075H
	DB	0bcH
	DB	085H
	DB	03dH
	DB	096H
	DB	09dH
	DB	0b6H
	DB	05fH
	DB	0dfH
	DB	0dfH
	DB	0ffH
	DB	0ffH
	DB	0ffH
	DB	0ffH
	DB	0ffH
	DB	0ffH
	DB	0ffH
	DB	0ffH
	DB	0ffH
	DB	0ffH
	DB	0ffH
	DB	0ffH
	DB	0ffH
	DB	09fH
	DB	0efH
	DB	01bH
	DB	0aeH
	DB	01bH
	DB	0a6H
	DB	05cH
	DB	0aeH
	DB	07cH
	DB	0b6H
	DB	07cH
	DB	0beH
	DB	09cH
	DB	0beH
	DB	09dH
	DB	0beH
	DB	09cH
	DB	0beH
	DB	0bdH
	DB	0beH
	DB	0bdH
	DB	0c6H
	DB	0bdH
	DB	0c6H
	DB	0ddH
	DB	0c6H
	DB	0ddH
	DB	0c6H
	DB	0ddH
	DB	0c6H
	DB	0ddH
	DB	0ceH
	DB	0ddH
	DB	0ceH
	DB	0ddH
	DB	0ceH
	DB	0fdH
	DB	0ceH
	DB	0fdH
	DB	0ceH
	DB	0fdH
	DB	0ceH
	DB	0feH
	DB	0ceH
	DB	0fdH
	DB	0ceH
	DB	0fdH
	DB	0ceH
	DB	0feH
	DB	0ceH
	DB	0fdH
	DB	0ceH
	DB	0feH
	DB	0ceH
	DB	0fdH
	DB	0ceH
	DB	0fdH
	DB	0ceH
	DB	0fdH
	DB	0ceH
	DB	0fdH
	DB	0ceH
	DB	0fdH
	DB	0ceH
	DB	0feH
	DB	0ceH
	DB	0fdH
	DB	0ceH
	DB	0feH
	DB	0ceH
	DB	0fdH
	DB	0ceH
	DB	0feH
	DB	0ceH
	DB	0fdH
	DB	0ceH
	DB	0feH
	DB	0ceH
	DB	0fdH
	DB	0ceH
	DB	0feH
	DB	0ceH
	DB	0fdH
	DB	0ceH
	DB	0fdH
	DB	0ceH
	DB	0fdH
	DB	0ceH
	DB	0feH
	DB	0ceH
	DB	0fdH
	DB	0ceH
	DB	0fdH
	DB	0ceH
	DB	0ddH
	DB	0ceH
	DB	0fdH
	DB	0ceH
	DB	0fdH
	DB	0ceH
	DB	0fdH
	DB	0ceH
	DB	0fdH
	DB	0ceH
	DB	0fdH
	DB	0ceH
	DB	0fdH
	DB	0ceH
	DB	0fdH
	DB	0ceH
	DB	0fdH
	DB	0ceH
	DB	0fdH
	DB	0ceH
	DB	0fdH
	DB	0ceH
	DB	0fdH
	DB	0ceH
	DB	0fdH
	DB	0ceH
	DB	0fdH
	DB	0ceH
	DB	0fdH
	DB	0ceH
	DB	0fdH
	DB	0ceH
	DB	0fdH
	DB	0ceH
	DB	0fdH
	DB	0ceH
	DB	0fdH
	DB	0ceH
	DB	0fdH
	DB	0ceH
	DB	0fdH
	DB	0ceH
	DB	0fdH
	DB	0ceH
	DB	0ddH
	DB	0ceH
	DB	0fdH
	DB	0ceH
	DB	0fdH
	DB	0ceH
	DB	0deH
	DB	0ceH
	DB	0ddH
	DB	0ceH
	DB	0ddH
	DB	0ceH
	DB	0ddH
	DB	0c6H
	DB	0ddH
	DB	0c6H
	DB	0ddH
	DB	0c6H
	DB	0ddH
	DB	0c6H
	DB	0bdH
	DB	0c6H
	DB	0bdH
	DB	0c6H
	DB	0bdH
	DB	0c6H
	DB	0bdH
	DB	0beH
	DB	09dH
	DB	0beH
	DB	09cH
	DB	0beH
	DB	09cH
	DB	0beH
	DB	09dH
	DB	0b6H
	DB	07cH
	DB	0b6H
	DB	05cH
	DB	0b6H
	DB	03cH
	DB	0aeH
	DB	0fbH
	DB	0a5H
	DB	07bH
	DB	0beH
	DB	0dfH
	DB	0ffH
	DB	0ffH
	DB	0ffH
	DB	0ffH
	DB	0ffH
	DB	0ffH
	DB	0ffH
	DB	0ffH
	DB	0ffH
	DB	0ffH
	DB	0ffH
	DB	09fH
	DB	0efH
	DB	07dH
	DB	0aeH
	DB	09cH
	DB	075H
	DB	03bH
	DB	065H
	DB	05bH
	DB	065H
	DB	05bH
	DB	06dH
	DB	05bH
	DB	06dH
	DB	05bH
	DB	065H
	DB	05bH
	DB	06dH
	DB	05bH
	DB	06dH
	DB	05bH
	DB	065H
	DB	05bH
	DB	06dH
	DB	05bH
	DB	065H
	DB	05bH
	DB	065H
	DB	03bH
	DB	065H
	DB	09cH
	DB	075H
	DB	07dH
	DB	0aeH
	DB	09fH
	DB	0efH
	DB	0ffH
	DB	0ffH
	DB	0ffH
	DB	0ffH
	DB	0ffH
	DB	0ffH
	DB	0ffH
	DB	0ffH
	DB	0ffH
	DB	0ffH
	DB	0ffH
	DB	0ffH
	DB	07bH
	DB	0beH
	DB	0fbH
	DB	0a5H
	DB	03cH
	DB	0aeH
	DB	07cH
	DB	0b6H
	DB	07cH
	DB	0b6H
	DB	09cH
	DB	0b6H
	DB	09dH
	DB	0beH
	DB	09dH
	DB	0beH
	DB	09dH
	DB	0beH
	DB	0bdH
	DB	0beH
	DB	0bdH
	DB	0c6H
	DB	0bdH
	DB	0c6H
	DB	0bdH
	DB	0c6H
	DB	0ddH
	DB	0c6H
	DB	0ddH
	DB	0c6H
	DB	0ddH
	DB	0c6H
	DB	0ddH
	DB	0ceH
	DB	0ddH
	DB	0ceH
	DB	0ddH
	DB	0ceH
	DB	0ddH
	DB	0ceH
	DB	0fdH
	DB	0ceH
	DB	0ddH
	DB	0ceH
	DB	0fdH
	DB	0ceH
	DB	0fdH
	DB	0ceH
	DB	0fdH
	DB	0ceH
	DB	0fdH
	DB	0ceH
	DB	0fdH
	DB	0ceH
	DB	0fdH
	DB	0ceH
	DB	0fdH
	DB	0ceH
	DB	0fdH
	DB	0ceH
	DB	0fdH
	DB	0ceH
	DB	0fdH
	DB	0ceH
	DB	0fdH
	DB	0ceH
	DB	0fdH
	DB	0ceH
	DB	0fdH
	DB	0ceH
	DB	0fdH
	DB	0ceH
	DB	0fdH
	DB	0ceH
	DB	0fdH
	DB	0ceH
	DB	0fdH
	DB	0ceH
	DB	0fdH
	DB	0ceH
	DB	0fdH
	DB	0ceH
	DB	0fdH
	DB	0ceH
	DB	0fdH
	DB	0ceH
	DB	0fdH
	DB	0ceH
	DB	0ddH
	DB	0ceH
	DB	0ddH
	DB	0ceH
	DB	0ddH
	DB	0ceH
	DB	0ddH
	DB	0ceH
	DB	0ddH
	DB	0ceH
	DB	0ddH
	DB	0ceH
	DB	0ddH
	DB	0ceH
	DB	0ddH
	DB	0ceH
	DB	0ddH
	DB	0ceH
	DB	0ddH
	DB	0ceH
	DB	0ddH
	DB	0ceH
	DB	0ddH
	DB	0ceH
	DB	0ddH
	DB	0ceH
	DB	0ddH
	DB	0ceH
	DB	0ddH
	DB	0ceH
	DB	0ddH
	DB	0ceH
	DB	0ddH
	DB	0ceH
	DB	0ddH
	DB	0ceH
	DB	0ddH
	DB	0ceH
	DB	0ddH
	DB	0ceH
	DB	0ddH
	DB	0ceH
	DB	0ddH
	DB	0c6H
	DB	0ddH
	DB	0ceH
	DB	0ddH
	DB	0c6H
	DB	0ddH
	DB	0c6H
	DB	0ddH
	DB	0c6H
	DB	0ddH
	DB	0c6H
	DB	0ddH
	DB	0c6H
	DB	0ddH
	DB	0c6H
	DB	0ddH
	DB	0c6H
	DB	0bdH
	DB	0c6H
	DB	0ddH
	DB	0c6H
	DB	0bdH
	DB	0c6H
	DB	0bdH
	DB	0c6H
	DB	0bdH
	DB	0beH
	DB	09dH
	DB	0beH
	DB	09cH
	DB	0beH
	DB	09cH
	DB	0beH
	DB	09dH
	DB	0beH
	DB	07cH
	DB	0b6H
	DB	07cH
	DB	0b6H
	DB	05cH
	DB	0b6H
	DB	03cH
	DB	0aeH
	DB	0fbH
	DB	0a5H
	DB	09cH
	DB	0c6H
	DB	0ffH
	DB	0ffH
	DB	0ffH
	DB	0ffH
	DB	0ffH
	DB	0ffH
	DB	0ffH
	DB	0ffH
	DB	0ffH
	DB	0ffH
	DB	0bfH
	DB	0efH
	DB	03dH
	DB	09eH
	DB	03bH
	DB	065H
	DB	03bH
	DB	065H
	DB	03bH
	DB	065H
	DB	03bH
	DB	065H
	DB	05bH
	DB	065H
	DB	03bH
	DB	065H
	DB	05bH
	DB	065H
	DB	05bH
	DB	065H
	DB	05cH
	DB	065H
	DB	05bH
	DB	06dH
	DB	05bH
	DB	065H
	DB	05bH
	DB	065H
	DB	03bH
	DB	065H
	DB	03bH
	DB	065H
	DB	03bH
	DB	065H
	DB	03bH
	DB	065H
	DB	03bH
	DB	065H
	DB	03bH
	DB	065H
	DB	03dH
	DB	09eH
	DB	0bfH
	DB	0efH
	DB	0ffH
	DB	0ffH
	DB	0ffH
	DB	0ffH
	DB	0ffH
	DB	0ffH
	DB	0ffH
	DB	0ffH
	DB	0ffH
	DB	0ffH
	DB	09cH
	DB	0c6H
	DB	0fbH
	DB	0a5H
	DB	03cH
	DB	0aeH
	DB	05cH
	DB	0b6H
	DB	07cH
	DB	0b6H
	DB	07cH
	DB	0b6H
	DB	09cH
	DB	0beH
	DB	09cH
	DB	0beH
	DB	09dH
	DB	0beH
	DB	09dH
	DB	0beH
	DB	0bdH
	DB	0beH
	DB	0bdH
	DB	0c6H
	DB	0bdH
	DB	0c6H
	DB	0bdH
	DB	0c6H
	DB	0bdH
	DB	0c6H
	DB	0ddH
	DB	0c6H
	DB	0ddH
	DB	0c6H
	DB	0ddH
	DB	0c6H
	DB	0ddH
	DB	0c6H
	DB	0ddH
	DB	0c6H
	DB	0ddH
	DB	0ceH
	DB	0ddH
	DB	0c6H
	DB	0ddH
	DB	0ceH
	DB	0ddH
	DB	0ceH
	DB	0ddH
	DB	0c6H
	DB	0deH
	DB	0ceH
	DB	0ddH
	DB	0ceH
	DB	0ddH
	DB	0ceH
	DB	0deH
	DB	0ceH
	DB	0ddH
	DB	0ceH
	DB	0ddH
	DB	0ceH
	DB	0ddH
	DB	0ceH
	DB	0ddH
	DB	0ceH
	DB	0ddH
	DB	0ceH
	DB	0ddH
	DB	0ceH
	DB	0ddH
	DB	0ceH
	DB	0ddH
	DB	0ceH
	DB	0ddH
	DB	0ceH
	DB	0ddH
	DB	0ceH
	DB	0deH
	DB	0ceH
	DB	0ddH
	DB	0ceH
	DB	0ddH
	DB	0ceH
	DB	0ddH
	DB	0ceH
	DB	0ddH
	DB	0ceH
	DB	0ddH
	DB	0c6H
	DB	0ddH
	DB	0c6H
	DB	0ddH
	DB	0c6H
	DB	0ddH
	DB	0c6H
	DB	0ddH
	DB	0c6H
	DB	0ddH
	DB	0c6H
	DB	0ddH
	DB	0c6H
	DB	0ddH
	DB	0c6H
	DB	0ddH
	DB	0c6H
	DB	0ddH
	DB	0c6H
	DB	0ddH
	DB	0c6H
	DB	0ddH
	DB	0c6H
	DB	0ddH
	DB	0c6H
	DB	0ddH
	DB	0c6H
	DB	0ddH
	DB	0c6H
	DB	0ddH
	DB	0c6H
	DB	0ddH
	DB	0c6H
	DB	0ddH
	DB	0c6H
	DB	0ddH
	DB	0c6H
	DB	0ddH
	DB	0c6H
	DB	0ddH
	DB	0c6H
	DB	0ddH
	DB	0c6H
	DB	0ddH
	DB	0c6H
	DB	0ddH
	DB	0c6H
	DB	0ddH
	DB	0c6H
	DB	0bdH
	DB	0c6H
	DB	0ddH
	DB	0c6H
	DB	0ddH
	DB	0c6H
	DB	0bdH
	DB	0c6H
	DB	0bdH
	DB	0c6H
	DB	0bdH
	DB	0c6H
	DB	0bdH
	DB	0beH
	DB	09cH
	DB	0beH
	DB	09dH
	DB	0beH
	DB	09cH
	DB	0beH
	DB	09cH
	DB	0beH
	DB	07dH
	DB	0b6H
	DB	07cH
	DB	0b6H
	DB	07cH
	DB	0b6H
	DB	05cH
	DB	0aeH
	DB	03cH
	DB	0aeH
	DB	0fbH
	DB	0a5H
	DB	0bcH
	DB	0c6H
	DB	0ffH
	DB	0ffH
	DB	0ffH
	DB	0ffH
	DB	0ffH
	DB	0ffH
	DB	0ffH
	DB	0ffH
	DB	0ffH
	DB	0ffH
	DB	0deH
	DB	0c6H
	DB	05bH
	DB	065H
	DB	01bH
	DB	05dH
	DB	03bH
	DB	05dH
	DB	03bH
	DB	05dH
	DB	03bH
	DB	065H
	DB	03bH
	DB	065H
	DB	03bH
	DB	065H
	DB	03bH
	DB	065H
	DB	03bH
	DB	065H
	DB	03bH
	DB	065H
	DB	03cH
	DB	065H
	DB	03bH
	DB	065H
	DB	03bH
	DB	065H
	DB	03cH
	DB	065H
	DB	03bH
	DB	065H
	DB	03bH
	DB	065H
	DB	03bH
	DB	065H
	DB	03bH
	DB	065H
	DB	03bH
	DB	05dH
	DB	03bH
	DB	05dH
	DB	01bH
	DB	05dH
	DB	05bH
	DB	06dH
	DB	0deH
	DB	0c6H
	DB	0dfH
	DB	0ffH
	DB	0ffH
	DB	0ffH
	DB	0ffH
	DB	0ffH
	DB	0ffH
	DB	0ffH
	DB	0ffH
	DB	0ffH
	DB	0bcH
	DB	0c6H
	DB	0fbH
	DB	09dH
	DB	03cH
	DB	0aeH
	DB	05cH
	DB	0aeH
	DB	05cH
	DB	0b6H
	DB	07cH
	DB	0b6H
	DB	07cH
	DB	0b6H
	DB	09cH
	DB	0b6H
	DB	09cH
	DB	0beH
	DB	09dH
	DB	0beH
	DB	0bdH
	DB	0beH
	DB	0bdH
	DB	0beH
	DB	0bdH
	DB	0beH
	DB	0bdH
	DB	0c6H
	DB	0bdH
	DB	0c6H
	DB	0bdH
	DB	0c6H
	DB	0ddH
	DB	0c6H
	DB	0bdH
	DB	0c6H
	DB	0ddH
	DB	0c6H
	DB	0ddH
	DB	0c6H
	DB	0ddH
	DB	0c6H
	DB	0ddH
	DB	0c6H
	DB	0ddH
	DB	0c6H
	DB	0ddH
	DB	0c6H
	DB	0ddH
	DB	0c6H
	DB	0ddH
	DB	0c6H
	DB	0ddH
	DB	0c6H
	DB	0ddH
	DB	0c6H
	DB	0ddH
	DB	0c6H
	DB	0ddH
	DB	0c6H
	DB	0ddH
	DB	0c6H
	DB	0ddH
	DB	0c6H
	DB	0ddH
	DB	0c6H
	DB	0ddH
	DB	0c6H
	DB	0ddH
	DB	0c6H
	DB	0ddH
	DB	0c6H
	DB	0ddH
	DB	0c6H
	DB	0ddH
	DB	0c6H
	DB	0ddH
	DB	0c6H
	DB	0ddH
	DB	0c6H
	DB	0ddH
	DB	0c6H
	DB	0ddH
	DB	0c6H
	DB	0ddH
	DB	0c6H
	DB	0bdH
	DB	0c6H
	DB	0ddH
	DB	0c6H
	DB	0ddH
	DB	0c6H
	DB	0bdH
	DB	0c6H
	DB	0ddH
	DB	0c6H
	DB	0ddH
	DB	0c6H
	DB	0bdH
	DB	0c6H
	DB	0ddH
	DB	0c6H
	DB	0ddH
	DB	0c6H
	DB	0bdH
	DB	0c6H
	DB	0ddH
	DB	0c6H
	DB	0bdH
	DB	0c6H
	DB	0ddH
	DB	0c6H
	DB	0ddH
	DB	0c6H
	DB	0bdH
	DB	0c6H
	DB	0bdH
	DB	0c6H
	DB	0ddH
	DB	0c6H
	DB	0bdH
	DB	0c6H
	DB	0bdH
	DB	0c6H
	DB	0bdH
	DB	0c6H
	DB	0ddH
	DB	0c6H
	DB	0bdH
	DB	0c6H
	DB	0bdH
	DB	0c6H
	DB	0bdH
	DB	0c6H
	DB	0bdH
	DB	0c6H
	DB	0bdH
	DB	0c6H
	DB	0bdH
	DB	0c6H
	DB	0bdH
	DB	0c6H
	DB	0bdH
	DB	0beH
	DB	09dH
	DB	0beH
	DB	09dH
	DB	0beH
	DB	09cH
	DB	0beH
	DB	09cH
	DB	0beH
	DB	09dH
	DB	0beH
	DB	07cH
	DB	0b6H
	DB	07cH
	DB	0b6H
	DB	07cH
	DB	0b6H
	DB	05cH
	DB	0aeH
	DB	05cH
	DB	0aeH
	DB	03cH
	DB	0aeH
	DB	0fbH
	DB	0a5H
	DB	07bH
	DB	0b6H
	DB	0ffH
	DB	0ffH
	DB	0ffH
	DB	0ffH
	DB	0ffH
	DB	0ffH
	DB	0ffH
	DB	0ffH
	DB	0dfH
	DB	0f7H
	DB	01dH
	DB	096H
	DB	01bH
	DB	05dH
	DB	01bH
	DB	05dH
	DB	01bH
	DB	05dH
	DB	01bH
	DB	05dH
	DB	01bH
	DB	05dH
	DB	03bH
	DB	05dH
	DB	03bH
	DB	05dH
	DB	03bH
	DB	065H
	DB	03cH
	DB	065H
	DB	03bH
	DB	065H
	DB	03bH
	DB	065H
	DB	03bH
	DB	065H
	DB	03bH
	DB	065H
	DB	03bH
	DB	065H
	DB	03bH
	DB	065H
	DB	03bH
	DB	065H
	DB	03bH
	DB	065H
	DB	03bH
	DB	065H
	DB	03bH
	DB	05dH
	DB	01bH
	DB	05dH
	DB	01bH
	DB	05dH
	DB	01bH
	DB	05dH
	DB	01bH
	DB	05dH
	DB	0fbH
	DB	054H
	DB	01dH
	DB	096H
	DB	0dfH
	DB	0f7H
	DB	0ffH
	DB	0ffH
	DB	0ffH
	DB	0ffH
	DB	0ffH
	DB	0ffH
	DB	0ffH
	DB	0ffH
	DB	05bH
	DB	0b6H
	DB	0fbH
	DB	0a5H
	DB	03cH
	DB	0aeH
	DB	05cH
	DB	0aeH
	DB	05cH
	DB	0aeH
	DB	07dH
	DB	0b6H
	DB	07cH
	DB	0b6H
	DB	07cH
	DB	0b6H
	DB	09cH
	DB	0beH
	DB	09cH
	DB	0beH
	DB	09dH
	DB	0beH
	DB	0bcH
	DB	0beH
	DB	0bdH
	DB	0beH
	DB	0bdH
	DB	0beH
	DB	0bdH
	DB	0beH
	DB	0bdH
	DB	0c6H
	DB	0bdH
	DB	0c6H
	DB	0bdH
	DB	0c6H
	DB	0bdH
	DB	0c6H
	DB	0bdH
	DB	0c6H
	DB	0bdH
	DB	0c6H
	DB	0bdH
	DB	0c6H
	DB	0bdH
	DB	0c6H
	DB	0bdH
	DB	0c6H
	DB	0bdH
	DB	0c6H
	DB	0ddH
	DB	0c6H
	DB	0bdH
	DB	0c6H
	DB	0ddH
	DB	0c6H
	DB	0bdH
	DB	0c6H
	DB	0ddH
	DB	0c6H
	DB	0ddH
	DB	0c6H
	DB	0bdH
	DB	0c6H
	DB	0ddH
	DB	0c6H
	DB	0ddH
	DB	0c6H
	DB	0bdH
	DB	0c6H
	DB	0ddH
	DB	0c6H
	DB	0ddH
	DB	0c6H
	DB	0bdH
	DB	0c6H
	DB	0ddH
	DB	0c6H
	DB	0ddH
	DB	0c6H
	DB	0bdH
	DB	0c6H
	DB	0ddH
	DB	0c6H
	DB	0bdH
	DB	0c6H
	DB	0bdH
	DB	0c6H
	DB	0bdH
	DB	0c6H
	DB	0bdH
	DB	0c6H
	DB	0bdH
	DB	0c6H
	DB	0bdH
	DB	0c6H
	DB	0bdH
	DB	0c6H
	DB	0bdH
	DB	0c6H
	DB	0bdH
	DB	0c6H
	DB	0bdH
	DB	0c6H
	DB	0bdH
	DB	0c6H
	DB	0bdH
	DB	0c6H
	DB	0bdH
	DB	0c6H
	DB	0bdH
	DB	0c6H
	DB	0bdH
	DB	0c6H
	DB	0bdH
	DB	0c6H
	DB	0bdH
	DB	0beH
	DB	0bdH
	DB	0c6H
	DB	0bdH
	DB	0c6H
	DB	0bdH
	DB	0c6H
	DB	0bdH
	DB	0beH
	DB	0bdH
	DB	0c6H
	DB	0bdH
	DB	0c6H
	DB	0bdH
	DB	0beH
	DB	0bdH
	DB	0beH
	DB	0bdH
	DB	0beH
	DB	09dH
	DB	0beH
	DB	09dH
	DB	0beH
	DB	09cH
	DB	0beH
	DB	09dH
	DB	0beH
	DB	09cH
	DB	0beH
	DB	09dH
	DB	0b6H
	DB	07cH
	DB	0b6H
	DB	07dH
	DB	0b6H
	DB	07cH
	DB	0b6H
	DB	05cH
	DB	0aeH
	DB	05cH
	DB	0aeH
	DB	05cH
	DB	0aeH
	DB	03cH
	DB	0aeH
	DB	0fbH
	DB	0a5H
	DB	01bH
	DB	0a6H
	DB	0ffH
	DB	0ffH
	DB	0ffH
	DB	0ffH
	DB	0ffH
	DB	0ffH
	DB	0ffH
	DB	0ffH
	DB	0bfH
	DB	0efH
	DB	0bcH
	DB	085H
	DB	0faH
	DB	054H
	DB	0fbH
	DB	054H
	DB	0fbH
	DB	054H
	DB	01bH
	DB	05dH
	DB	01bH
	DB	05dH
	DB	01bH
	DB	05dH
	DB	01bH
	DB	05dH
	DB	01bH
	DB	05dH
	DB	03bH
	DB	05dH
	DB	01bH
	DB	05dH
	DB	01bH
	DB	05dH
	DB	01bH
	DB	05dH
	DB	01bH
	DB	05dH
	DB	03bH
	DB	05dH
	DB	01bH
	DB	05dH
	DB	01bH
	DB	05dH
	DB	03bH
	DB	05dH
	DB	03bH
	DB	05dH
	DB	01bH
	DB	05dH
	DB	01bH
	DB	05dH
	DB	01bH
	DB	05dH
	DB	01bH
	DB	05dH
	DB	01bH
	DB	055H
	DB	0fbH
	DB	054H
	DB	0fbH
	DB	054H
	DB	0faH
	DB	054H
	DB	0bcH
	DB	085H
	DB	0bfH
	DB	0f7H
	DB	0ffH
	DB	0ffH
	DB	0ffH
	DB	0ffH
	DB	0ffH
	DB	0ffH
	DB	0ffH
	DB	0ffH
	DB	01bH
	DB	0aeH
	DB	01bH
	DB	0a6H
	DB	03cH
	DB	0a6H
	DB	03cH
	DB	0aeH
	DB	05cH
	DB	0aeH
	DB	05cH
	DB	0b6H
	DB	07dH
	DB	0b6H
	DB	07cH
	DB	0b6H
	DB	07cH
	DB	0b6H
	DB	09dH
	DB	0beH
	DB	09cH
	DB	0beH
	DB	09dH
	DB	0beH
	DB	09dH
	DB	0beH
	DB	09cH
	DB	0beH
	DB	0bdH
	DB	0beH
	DB	0bdH
	DB	0beH
	DB	0bdH
	DB	0beH
	DB	0bdH
	DB	0c6H
	DB	0bdH
	DB	0beH
	DB	0bdH
	DB	0beH
	DB	0bdH
	DB	0c6H
	DB	0bdH
	DB	0c6H
	DB	0bdH
	DB	0c6H
	DB	0bdH
	DB	0c6H
	DB	0bdH
	DB	0c6H
	DB	0bdH
	DB	0c6H
	DB	0bdH
	DB	0c6H
	DB	0bdH
	DB	0c6H
	DB	0bdH
	DB	0c6H
	DB	0bdH
	DB	0c6H
	DB	0bdH
	DB	0c6H
	DB	0bdH
	DB	0c6H
	DB	0bdH
	DB	0c6H
	DB	0bdH
	DB	0c6H
	DB	0bdH
	DB	0c6H
	DB	0bdH
	DB	0c6H
	DB	0bdH
	DB	0c6H
	DB	0bdH
	DB	0c6H
	DB	0bdH
	DB	0c6H
	DB	0bdH
	DB	0c6H
	DB	0bdH
	DB	0c6H
	DB	09dH
	DB	0beH
	DB	09dH
	DB	0beH
	DB	0bdH
	DB	0beH
	DB	09dH
	DB	0beH
	DB	09dH
	DB	0beH
	DB	0bdH
	DB	0beH
	DB	09dH
	DB	0beH
	DB	09dH
	DB	0beH
	DB	0bdH
	DB	0beH
	DB	09dH
	DB	0beH
	DB	09dH
	DB	0beH
	DB	0bdH
	DB	0beH
	DB	09dH
	DB	0beH
	DB	09dH
	DB	0beH
	DB	0bdH
	DB	0beH
	DB	0bdH
	DB	0beH
	DB	09dH
	DB	0beH
	DB	0bdH
	DB	0beH
	DB	0bdH
	DB	0beH
	DB	09dH
	DB	0beH
	DB	0bdH
	DB	0beH
	DB	09dH
	DB	0beH
	DB	0bdH
	DB	0beH
	DB	09dH
	DB	0beH
	DB	09cH
	DB	0beH
	DB	09dH
	DB	0beH
	DB	09cH
	DB	0beH
	DB	09cH
	DB	0beH
	DB	09dH
	DB	0beH
	DB	09cH
	DB	0b6H
	DB	07cH
	DB	0b6H
	DB	07cH
	DB	0b6H
	DB	07cH
	DB	0b6H
	DB	07cH
	DB	0b6H
	DB	05cH
	DB	0aeH
	DB	05cH
	DB	0aeH
	DB	03cH
	DB	0aeH
	DB	03cH
	DB	0a6H
	DB	01cH
	DB	0a6H
	DB	0daH
	DB	09dH
	DB	09fH
	DB	0efH
	DB	0ffH
	DB	0ffH
	DB	0ffH
	DB	0ffH
	DB	0ffH
	DB	0ffH
	DB	0bfH
	DB	0f7H
	DB	0bcH
	DB	07dH
	DB	0daH
	DB	04cH
	DB	0daH
	DB	054H
	DB	0fbH
	DB	054H
	DB	0faH
	DB	054H
	DB	0fbH
	DB	054H
	DB	0fbH
	DB	054H
	DB	01bH
	DB	05dH
	DB	01bH
	DB	05dH
	DB	01bH
	DB	05dH
	DB	01bH
	DB	05dH
	DB	01bH
	DB	05dH
	DB	0fbH
	DB	05cH
	DB	0faH
	DB	05cH
	DB	0faH
	DB	054H
	DB	0faH
	DB	05cH
	DB	0fbH
	DB	05cH
	DB	0fbH
	DB	05cH
	DB	01bH
	DB	05dH
	DB	01bH
	DB	05dH
	DB	01bH
	DB	05dH
	DB	01bH
	DB	05dH
	DB	0fbH
	DB	054H
	DB	01bH
	DB	055H
	DB	0fbH
	DB	054H
	DB	0faH
	DB	054H
	DB	0fbH
	DB	054H
	DB	0faH
	DB	054H
	DB	0dbH
	DB	04cH
	DB	0bcH
	DB	07dH
	DB	0bfH
	DB	0f7H
	DB	0ffH
	DB	0ffH
	DB	0ffH
	DB	0ffH
	DB	0ffH
	DB	0ffH
	DB	09fH
	DB	0efH
	DB	0daH
	DB	09dH
	DB	01bH
	DB	0a6H
	DB	03cH
	DB	0a6H
	DB	03cH
	DB	0aeH
	DB	05cH
	DB	0aeH
	DB	05cH
	DB	0aeH
	DB	05cH
	DB	0b6H
	DB	07cH
	DB	0b6H
	DB	07cH
	DB	0b6H
	DB	07cH
	DB	0b6H
	DB	07dH
	DB	0b6H
	DB	09cH
	DB	0beH
	DB	09cH
	DB	0beH
	DB	09dH
	DB	0beH
	DB	09dH
	DB	0beH
	DB	09cH
	DB	0beH
	DB	0bdH
	DB	0beH
	DB	09dH
	DB	0beH
	DB	0bcH
	DB	0beH
	DB	0bdH
	DB	0beH
	DB	0bdH
	DB	0beH
	DB	0bcH
	DB	0beH
	DB	09dH
	DB	0beH
	DB	0bdH
	DB	0beH
	DB	09dH
	DB	0beH
	DB	09dH
	DB	0beH
	DB	0bdH
	DB	0beH
	DB	09dH
	DB	0beH
	DB	09dH
	DB	0beH
	DB	0bdH
	DB	0beH
	DB	09dH
	DB	0beH
	DB	09dH
	DB	0beH
	DB	0bdH
	DB	0beH
	DB	09dH
	DB	0beH
	DB	09dH
	DB	0beH
	DB	0bdH
	DB	0beH
	DB	09dH
	DB	0beH
	DB	09dH
	DB	0beH
	DB	0bdH
	DB	0beH
	DB	09dH
	DB	0beH
	DB	09cH
	DB	0beH
	DB	09cH
	DB	0beH
	DB	09cH
	DB	0beH
	DB	09dH
	DB	0beH
	DB	09cH
	DB	0beH
	DB	09cH
	DB	0beH
	DB	09dH
	DB	0beH
	DB	09cH
	DB	0beH
	DB	09cH
	DB	0beH
	DB	09dH
	DB	0beH
	DB	09cH
	DB	0beH
	DB	09cH
	DB	0beH
	DB	09dH
	DB	0beH
	DB	09cH
	DB	0beH
	DB	09cH
	DB	0beH
	DB	09dH
	DB	0beH
	DB	09cH
	DB	0beH
	DB	09cH
	DB	0beH
	DB	09dH
	DB	0beH
	DB	09cH
	DB	0beH
	DB	09cH
	DB	0beH
	DB	09cH
	DB	0beH
	DB	09cH
	DB	0beH
	DB	09cH
	DB	0beH
	DB	09dH
	DB	0beH
	DB	09cH
	DB	0beH
	DB	09cH
	DB	0b6H
	DB	09cH
	DB	0b6H
	DB	07dH
	DB	0b6H
	DB	07cH
	DB	0b6H
	DB	07cH
	DB	0b6H
	DB	07dH
	DB	0b6H
	DB	05cH
	DB	0aeH
	DB	05cH
	DB	0aeH
	DB	03cH
	DB	0aeH
	DB	03cH
	DB	0aeH
	DB	03cH
	DB	0a6H
	DB	01cH
	DB	0a6H
	DB	0dbH
	DB	09dH
	DB	0bcH
	DB	0c6H
	DB	0ffH
	DB	0ffH
	DB	0ffH
	DB	0ffH
	DB	0ffH
	DB	0ffH
	DB	0dfH
	DB	0f7H
	DB	0fcH
	DB	08dH
	DB	0baH
	DB	04cH
	DB	0daH
	DB	04cH
	DB	0dbH
	DB	04cH
	DB	0daH
	DB	04cH
	DB	0fbH
	DB	04cH
	DB	0faH
	DB	054H
	DB	0faH
	DB	054H
	DB	0fbH
	DB	054H
	DB	0fbH
	DB	054H
	DB	0faH
	DB	054H
	DB	0faH
	DB	054H
	DB	0daH
	DB	054H
	DB	0baH
	DB	054H
	DB	0baH
	DB	04cH
	DB	099H
	DB	04cH
	DB	099H
	DB	04cH
	DB	09aH
	DB	04cH
	DB	0baH
	DB	054H
	DB	0daH
	DB	054H
	DB	0fbH
	DB	054H
	DB	0fbH
	DB	054H
	DB	0fbH
	DB	054H
	DB	0fbH
	DB	054H
	DB	0faH
	DB	054H
	DB	0fbH
	DB	054H
	DB	0dbH
	DB	054H
	DB	0daH
	DB	04cH
	DB	0dbH
	DB	04cH
	DB	0daH
	DB	04cH
	DB	0baH
	DB	044H
	DB	0fcH
	DB	08dH
	DB	0dfH
	DB	0f7H
	DB	0ffH
	DB	0ffH
	DB	0ffH
	DB	0ffH
	DB	0ffH
	DB	0ffH
	DB	0bcH
	DB	0c6H
	DB	0dbH
	DB	09dH
	DB	01cH
	DB	0a6H
	DB	03cH
	DB	0a6H
	DB	03cH
	DB	0aeH
	DB	05cH
	DB	0aeH
	DB	05cH
	DB	0aeH
	DB	05cH
	DB	0aeH
	DB	05cH
	DB	0b6H
	DB	07cH
	DB	0b6H
	DB	07dH
	DB	0b6H
	DB	07cH
	DB	0b6H
	DB	09cH
	DB	0b6H
	DB	07dH
	DB	0b6H
	DB	09cH
	DB	0beH
	DB	09cH
	DB	0beH
	DB	09cH
	DB	0beH
	DB	09dH
	DB	0beH
	DB	09cH
	DB	0beH
	DB	09dH
	DB	0beH
	DB	09dH
	DB	0beH
	DB	09cH
	DB	0beH
	DB	09dH
	DB	0beH
	DB	09cH
	DB	0beH
	DB	09cH
	DB	0beH
	DB	09cH
	DB	0beH
	DB	09cH
	DB	0beH
	DB	09dH
	DB	0beH
	DB	09cH
	DB	0beH
	DB	09cH
	DB	0beH
	DB	09dH
	DB	0beH
	DB	09cH
	DB	0beH
	DB	09cH
	DB	0beH
	DB	09dH
	DB	0beH
	DB	09cH
	DB	0beH
	DB	09cH
	DB	0beH
	DB	09cH
	DB	0beH
	DB	09cH
	DB	0beH
	DB	09dH
	DB	0beH
	DB	09cH
	DB	0beH
	DB	09dH
	DB	0b6H
	DB	09cH
	DB	0b6H
	DB	09dH
	DB	0b6H
	DB	09cH
	DB	0beH
	DB	09cH
	DB	0b6H
	DB	09dH
	DB	0b6H
	DB	09cH
	DB	0beH
	DB	09cH
	DB	0b6H
	DB	09dH
	DB	0b6H
	DB	09cH
	DB	0beH
	DB	09cH
	DB	0b6H
	DB	09dH
	DB	0b6H
	DB	09cH
	DB	0beH
	DB	09cH
	DB	0b6H
	DB	09dH
	DB	0b6H
	DB	09cH
	DB	0beH
	DB	09dH
	DB	0b6H
	DB	09cH
	DB	0b6H
	DB	09dH
	DB	0beH
	DB	07cH
	DB	0b6H
	DB	09dH
	DB	0b6H
	DB	07dH
	DB	0b6H
	DB	09cH
	DB	0b6H
	DB	07cH
	DB	0b6H
	DB	07dH
	DB	0b6H
	DB	07cH
	DB	0b6H
	DB	07dH
	DB	0b6H
	DB	07cH
	DB	0b6H
	DB	07cH
	DB	0b6H
	DB	05cH
	DB	0b6H
	DB	05cH
	DB	0aeH
	DB	05cH
	DB	0aeH
	DB	05cH
	DB	0aeH
	DB	03cH
	DB	0aeH
	DB	03cH
	DB	0a6H
	DB	01cH
	DB	0a6H
	DB	01cH
	DB	0a6H
	DB	0fbH
	DB	09dH
	DB	0fbH
	DB	0a5H
	DB	0ffH
	DB	0ffH
	DB	0ffH
	DB	0ffH
	DB	0ffH
	DB	0ffH
	DB	0dfH
	DB	0f7H
	DB	09dH
	DB	0b6H
	DB	0baH
	DB	044H
	DB	0baH
	DB	044H
	DB	0bbH
	DB	044H
	DB	0daH
	DB	04cH
	DB	0daH
	DB	04cH
	DB	0dbH
	DB	04cH
	DB	0daH
	DB	04cH
	DB	0daH
	DB	04cH
	DB	0fbH
	DB	054H
	DB	0fbH
	DB	054H
	DB	0daH
	DB	054H
	DB	0baH
	DB	04cH
	DB	09aH
	DB	04cH
	DB	0faH
	DB	064H
	DB	0deH
	DB	0c6H
	DB	0dfH
	DB	0ffH
	DB	0dfH
	DB	0f7H
	DB	0deH
	DB	0c6H
	DB	0faH
	DB	064H
	DB	099H
	DB	04cH
	DB	0baH
	DB	04cH
	DB	0daH
	DB	054H
	DB	0fbH
	DB	054H
	DB	0faH
	DB	054H
	DB	0faH
	DB	054H
	DB	0dbH
	DB	04cH
	DB	0daH
	DB	04cH
	DB	0daH
	DB	04cH
	DB	0daH
	DB	04cH
	DB	0baH
	DB	044H
	DB	0baH
	DB	044H
	DB	0baH
	DB	044H
	DB	09eH
	DB	0b6H
	DB	0dfH
	DB	0f7H
	DB	0ffH
	DB	0ffH
	DB	0ffH
	DB	0ffH
	DB	0ffH
	DB	0ffH
	DB	0fbH
	DB	0a5H
	DB	0fbH
	DB	09dH
	DB	01cH
	DB	0a6H
	DB	01cH
	DB	0a6H
	DB	03cH
	DB	0a6H
	DB	03cH
	DB	0aeH
	DB	03cH
	DB	0aeH
	DB	05cH
	DB	0aeH
	DB	05cH
	DB	0aeH
	DB	07cH
	DB	0aeH
	DB	07cH
	DB	0b6H
	DB	07cH
	DB	0b6H
	DB	07cH
	DB	0b6H
	DB	07dH
	DB	0b6H
	DB	07cH
	DB	0b6H
	DB	07cH
	DB	0b6H
	DB	09cH
	DB	0b6H
	DB	07dH
	DB	0b6H
	DB	07cH
	DB	0b6H
	DB	07cH
	DB	0b6H
	DB	09dH
	DB	0b6H
	DB	09cH
	DB	0b6H
	DB	09dH
	DB	0b6H
	DB	09dH
	DB	0b6H
	DB	09cH
	DB	0b6H
	DB	09dH
	DB	0b6H
	DB	09cH
	DB	0beH
	DB	09cH
	DB	0b6H
	DB	09dH
	DB	0b6H
	DB	09cH
	DB	0beH
	DB	09cH
	DB	0b6H
	DB	09dH
	DB	0b6H
	DB	09cH
	DB	0beH
	DB	09dH
	DB	0b6H
	DB	09dH
	DB	0b6H
	DB	09cH
	DB	0beH
	DB	09dH
	DB	0b6H
	DB	09cH
	DB	0b6H
	DB	09cH
	DB	0beH
	DB	0faH
	DB	0a5H
	DB	0faH
	DB	0a5H
	DB	0faH
	DB	0a5H
	DB	0faH
	DB	0a5H
	DB	0faH
	DB	0a5H
	DB	0faH
	DB	0a5H
	DB	0faH
	DB	0a5H
	DB	0faH
	DB	0a5H
	DB	0fbH
	DB	0a5H
	DB	0faH
	DB	0a5H
	DB	0faH
	DB	0a5H
	DB	0faH
	DB	0a5H
	DB	0faH
	DB	0a5H
	DB	0faH
	DB	0a5H
	DB	0faH
	DB	0a5H
	DB	0faH
	DB	0a5H
	DB	0faH
	DB	0a5H
	DB	0faH
	DB	0a5H
	DB	0faH
	DB	0a5H
	DB	0faH
	DB	0a5H
	DB	0faH
	DB	0a5H
	DB	0faH
	DB	0a5H
	DB	0faH
	DB	0a5H
	DB	0faH
	DB	09dH
	DB	0faH
	DB	0a5H
	DB	0faH
	DB	09dH
	DB	0faH
	DB	09dH
	DB	0daH
	DB	09dH
	DB	0daH
	DB	09dH
	DB	0daH
	DB	09dH
	DB	0daH
	DB	09dH
	DB	0daH
	DB	095H
	DB	0baH
	DB	095H
	DB	0baH
	DB	095H
	DB	0baH
	DB	095H
	DB	09aH
	DB	08dH
	DB	09aH
	DB	08dH
	DB	099H
	DB	08dH
	DB	0fdH
	DB	0ceH
	DB	0ffH
	DB	0ffH
	DB	0ffH
	DB	0ffH
	DB	0dfH
	DB	0ffH
	DB	07fH
	DB	0e7H
	DB	0daH
	DB	04cH
	DB	09aH
	DB	03cH
	DB	0baH
	DB	044H
	DB	0baH
	DB	044H
	DB	0baH
	DB	044H
	DB	0baH
	DB	044H
	DB	0bbH
	DB	04cH
	DB	0daH
	DB	04cH
	DB	0dbH
	DB	04cH
	DB	0daH
	DB	04cH
	DB	0daH
	DB	04cH
	DB	0daH
	DB	04cH
	DB	09aH
	DB	04cH
	DB	0faH
	DB	064H
	DB	0dfH
	DB	0f7H
	DB	0ffH
	DB	0ffH
	DB	0ffH
	DB	0ffH
	DB	0ffH
	DB	0ffH
	DB	0ffH
	DB	0ffH
	DB	0dfH
	DB	0f7H
	DB	0faH
	DB	064H
	DB	09aH
	DB	04cH
	DB	0daH
	DB	04cH
	DB	0daH
	DB	04cH
	DB	0dbH
	DB	04cH
	DB	0dbH
	DB	04cH
	DB	0daH
	DB	04cH
	DB	0baH
	DB	04cH
	DB	0baH
	DB	044H
	DB	0bbH
	DB	044H
	DB	0baH
	DB	044H
	DB	09aH
	DB	044H
	DB	09aH
	DB	03cH
	DB	0daH
	DB	04cH
	DB	07fH
	DB	0e7H
	DB	0dfH
	DB	0f7H
	DB	0ffH
	DB	0ffH
	DB	0ffH
	DB	0ffH
	DB	0fdH
	DB	0ceH
	DB	099H
	DB	08dH
	DB	09aH
	DB	08dH
	DB	09aH
	DB	08dH
	DB	0baH
	DB	095H
	DB	0baH
	DB	095H
	DB	0daH
	DB	095H
	DB	0daH
	DB	095H
	DB	0daH
	DB	09dH
	DB	0daH
	DB	09dH
	DB	0daH
	DB	09dH
	DB	0daH
	DB	09dH
	DB	0faH
	DB	09dH
	DB	0faH
	DB	09dH
	DB	0fbH
	DB	0a5H
	DB	0faH
	DB	09dH
	DB	0faH
	DB	0a5H
	DB	0faH
	DB	0a5H
	DB	0faH
	DB	0a5H
	DB	0faH
	DB	0a5H
	DB	0faH
	DB	0a5H
	DB	0faH
	DB	0a5H
	DB	0faH
	DB	0a5H
	DB	0faH
	DB	0a5H
	DB	0faH
	DB	0a5H
	DB	0faH
	DB	0a5H
	DB	0faH
	DB	0a5H
	DB	0faH
	DB	0a5H
	DB	0faH
	DB	0a5H
	DB	0faH
	DB	0a5H
	DB	0faH
	DB	0a5H
	DB	0faH
	DB	0a5H
	DB	0faH
	DB	0a5H
	DB	0faH
	DB	0a5H
	DB	0faH
	DB	0a5H
	DB	0faH
	DB	0a5H
	DB	0faH
	DB	0a5H
	DB	0faH
	DB	0a5H
	DB	0faH
	DB	0a5H
	DB	0ffH
	DB	0ffH
	DB	0ffH
	DB	0ffH
	DB	0ffH
	DB	0ffH
	DB	0ffH
	DB	0ffH
	DB	0ffH
	DB	0ffH
	DB	0ffH
	DB	0ffH
	DB	0ffH
	DB	0ffH
	DB	0ffH
	DB	0ffH
	DB	0ffH
	DB	0ffH
	DB	0ffH
	DB	0ffH
	DB	0ffH
	DB	0ffH
	DB	0ffH
	DB	0ffH
	DB	0ffH
	DB	0ffH
	DB	0ffH
	DB	0ffH
	DB	0ffH
	DB	0ffH
	DB	0ffH
	DB	0ffH
	DB	0ffH
	DB	0ffH
	DB	0ffH
	DB	0ffH
	DB	0ffH
	DB	0ffH
	DB	0ffH
	DB	0ffH
	DB	0ffH
	DB	0ffH
	DB	0ffH
	DB	0ffH
	DB	0ffH
	DB	0ffH
	DB	0ffH
	DB	0ffH
	DB	0ffH
	DB	0ffH
	DB	0ffH
	DB	0ffH
	DB	0ffH
	DB	0ffH
	DB	0ffH
	DB	0ffH
	DB	0ffH
	DB	0ffH
	DB	0ffH
	DB	0ffH
	DB	0ffH
	DB	0ffH
	DB	0ffH
	DB	0ffH
	DB	0ffH
	DB	0ffH
	DB	0ffH
	DB	0ffH
	DB	0ffH
	DB	0ffH
	DB	0ffH
	DB	0ffH
	DB	0ffH
	DB	0ffH
	DB	0ffH
	DB	0ffH
	DB	0ffH
	DB	0ffH
	DB	0ffH
	DB	0ffH
	DB	0dfH
	DB	0ffH
	DB	0bfH
	DB	0f7H
	DB	0bcH
	DB	085H
	DB	07aH
	DB	03cH
	DB	09aH
	DB	03cH
	DB	09aH
	DB	03cH
	DB	09aH
	DB	03cH
	DB	09aH
	DB	044H
	DB	0baH
	DB	044H
	DB	0baH
	DB	044H
	DB	0baH
	DB	044H
	DB	0bbH
	DB	04cH
	DB	0daH
	DB	04cH
	DB	0baH
	DB	04cH
	DB	09aH
	DB	044H
	DB	079H
	DB	044H
	DB	0bdH
	DB	0c6H
	DB	0ffH
	DB	0ffH
	DB	0ffH
	DB	0ffH
	DB	0ffH
	DB	0ffH
	DB	0ffH
	DB	0ffH
	DB	0ffH
	DB	0ffH
	DB	0ffH
	DB	0ffH
	DB	0ddH
	DB	0c6H
	DB	079H
	DB	044H
	DB	09aH
	DB	044H
	DB	0baH
	DB	04cH
	DB	0baH
	DB	04cH
	DB	0baH
	DB	044H
	DB	0baH
	DB	044H
	DB	0baH
	DB	044H
	DB	0baH
	DB	044H
	DB	0baH
	DB	044H
	DB	09aH
	DB	03cH
	DB	09aH
	DB	03cH
	DB	09aH
	DB	03cH
	DB	07aH
	DB	03cH
	DB	0bcH
	DB	085H
	DB	0bfH
	DB	0f7H
	DB	0ffH
	DB	0ffH
	DB	0ffH
	DB	0ffH
	DB	0ffH
	DB	0ffH
	DB	0ffH
	DB	0ffH
	DB	0ffH
	DB	0ffH
	DB	0ffH
	DB	0ffH
	DB	0ffH
	DB	0ffH
	DB	0ffH
	DB	0ffH
	DB	0ffH
	DB	0ffH
	DB	0ffH
	DB	0ffH
	DB	0ffH
	DB	0ffH
	DB	0ffH
	DB	0ffH
	DB	0ffH
	DB	0ffH
	DB	0ffH
	DB	0ffH
	DB	0ffH
	DB	0ffH
	DB	0ffH
	DB	0ffH
	DB	0ffH
	DB	0ffH
	DB	0ffH
	DB	0ffH
	DB	0ffH
	DB	0ffH
	DB	0ffH
	DB	0ffH
	DB	0ffH
	DB	0ffH
	DB	0ffH
	DB	0ffH
	DB	0ffH
	DB	0ffH
	DB	0ffH
	DB	0ffH
	DB	0ffH
	DB	0ffH
	DB	0ffH
	DB	0ffH
	DB	0ffH
	DB	0ffH
	DB	0ffH
	DB	0ffH
	DB	0ffH
	DB	0ffH
	DB	0ffH
	DB	0ffH
	DB	0ffH
	DB	0ffH
	DB	0ffH
	DB	0ffH
	DB	0ffH
	DB	0ffH
	DB	0ffH
	DB	0ffH
	DB	0ffH
	DB	0ffH
	DB	0ffH
	DB	0ffH
	DB	0ffH
	DB	0ffH
	DB	0ffH
	DB	0ffH
	DB	0ffH
	DB	0ffH
	DB	0ffH
	DB	0ffH
	DB	0daH
	DB	09dH
	DB	0ffH
	DB	0ffH
	DB	0ffH
	DB	0ffH
	DB	0ffH
	DB	0ffH
	DB	0ffH
	DB	0ffH
	DB	0ffH
	DB	0ffH
	DB	0ffH
	DB	0ffH
	DB	0ffH
	DB	0ffH
	DB	0ffH
	DB	0ffH
	DB	0ffH
	DB	0ffH
	DB	0ffH
	DB	0ffH
	DB	0ffH
	DB	0ffH
	DB	0ffH
	DB	0ffH
	DB	0ffH
	DB	0ffH
	DB	0ffH
	DB	0ffH
	DB	0ffH
	DB	0ffH
	DB	0ffH
	DB	0ffH
	DB	0ffH
	DB	0ffH
	DB	0ffH
	DB	0ffH
	DB	0ffH
	DB	0ffH
	DB	0ffH
	DB	0ffH
	DB	0ffH
	DB	0ffH
	DB	0ffH
	DB	0ffH
	DB	0ffH
	DB	0ffH
	DB	0ffH
	DB	0ffH
	DB	0ffH
	DB	0ffH
	DB	0ffH
	DB	0ffH
	DB	0ffH
	DB	0ffH
	DB	0ffH
	DB	0ffH
	DB	0ffH
	DB	0ffH
	DB	0ffH
	DB	0ffH
	DB	0ffH
	DB	0ffH
	DB	0ffH
	DB	0ffH
	DB	0ffH
	DB	0ffH
	DB	0ffH
	DB	0ffH
	DB	0ffH
	DB	0ffH
	DB	0ffH
	DB	0ffH
	DB	0ffH
	DB	0ffH
	DB	0ffH
	DB	0ffH
	DB	0ffH
	DB	0ffH
	DB	0ffH
	DB	0ffH
	DB	0dfH
	DB	0f7H
	DB	05fH
	DB	0d7H
	DB	07aH
	DB	034H
	DB	07aH
	DB	034H
	DB	07aH
	DB	03cH
	DB	07aH
	DB	03cH
	DB	07aH
	DB	03cH
	DB	09aH
	DB	03cH
	DB	09aH
	DB	03cH
	DB	09aH
	DB	044H
	DB	0baH
	DB	044H
	DB	0baH
	DB	044H
	DB	0baH
	DB	044H
	DB	09aH
	DB	044H
	DB	09aH
	DB	044H
	DB	039H
	DB	03cH
	DB	0dfH
	DB	0f7H
	DB	0ffH
	DB	0ffH
	DB	0ffH
	DB	0ffH
	DB	0ffH
	DB	0ffH
	DB	0ffH
	DB	0ffH
	DB	0ffH
	DB	0ffH
	DB	0ffH
	DB	0ffH
	DB	0dfH
	DB	0ffH
	DB	039H
	DB	03cH
	DB	079H
	DB	044H
	DB	0baH
	DB	044H
	DB	0baH
	DB	044H
	DB	0baH
	DB	044H
	DB	0baH
	DB	044H
	DB	09bH
	DB	044H
	DB	09aH
	DB	03cH
	DB	09aH
	DB	03cH
	DB	07aH
	DB	03cH
	DB	07aH
	DB	03cH
	DB	07aH
	DB	034H
	DB	07aH
	DB	034H
	DB	07aH
	DB	034H
	DB	03eH
	DB	0d7H
	DB	0dfH
	DB	0f7H
	DB	0ffH
	DB	0ffH
	DB	0ffH
	DB	0ffH
	DB	0ffH
	DB	0ffH
	DB	0ffH
	DB	0ffH
	DB	0ffH
	DB	0ffH
	DB	0ffH
	DB	0ffH
	DB	0ffH
	DB	0ffH
	DB	0ffH
	DB	0ffH
	DB	0ffH
	DB	0ffH
	DB	0ffH
	DB	0ffH
	DB	0ffH
	DB	0ffH
	DB	0ffH
	DB	0ffH
	DB	0ffH
	DB	0ffH
	DB	0ffH
	DB	0ffH
	DB	0ffH
	DB	0ffH
	DB	0ffH
	DB	0ffH
	DB	0ffH
	DB	0ffH
	DB	0ffH
	DB	0ffH
	DB	0ffH
	DB	0ffH
	DB	0ffH
	DB	0ffH
	DB	0ffH
	DB	0ffH
	DB	0ffH
	DB	0ffH
	DB	0ffH
	DB	0ffH
	DB	0ffH
	DB	0ffH
	DB	0ffH
	DB	0ffH
	DB	0ffH
	DB	0ffH
	DB	0ffH
	DB	0ffH
	DB	0ffH
	DB	0ffH
	DB	0ffH
	DB	0ffH
	DB	0ffH
	DB	0ffH
	DB	0ffH
	DB	0ffH
	DB	0ffH
	DB	0ffH
	DB	0ffH
	DB	0ffH
	DB	0ffH
	DB	0ffH
	DB	0ffH
	DB	0ffH
	DB	0ffH
	DB	0ffH
	DB	0ffH
	DB	0ffH
	DB	0ffH
	DB	0ffH
	DB	0ffH
	DB	0ffH
	DB	0daH
	DB	09dH
	DB	0ffH
	DB	0ffH
	DB	0ffH
	DB	0ffH
	DB	0ffH
	DB	0ffH
	DB	0ffH
	DB	0ffH
	DB	0ffH
	DB	0ffH
	DB	0ffH
	DB	0ffH
	DB	0ffH
	DB	0ffH
	DB	0ffH
	DB	0ffH
	DB	0ffH
	DB	0ffH
	DB	0ffH
	DB	0ffH
	DB	0ffH
	DB	0ffH
	DB	0ffH
	DB	0ffH
	DB	0ffH
	DB	0ffH
	DB	0ffH
	DB	0ffH
	DB	0ffH
	DB	0ffH
	DB	0ffH
	DB	0ffH
	DB	0ffH
	DB	0ffH
	DB	0ffH
	DB	0ffH
	DB	0ffH
	DB	0ffH
	DB	0ffH
	DB	0ffH
	DB	0ffH
	DB	0ffH
	DB	0ffH
	DB	0ffH
	DB	0ffH
	DB	0ffH
	DB	0ffH
	DB	0ffH
	DB	0ffH
	DB	0ffH
	DB	0ffH
	DB	0ffH
	DB	0ffH
	DB	0ffH
	DB	0ffH
	DB	0ffH
	DB	0ffH
	DB	0ffH
	DB	0ffH
	DB	0ffH
	DB	0ffH
	DB	0ffH
	DB	0ffH
	DB	0ffH
	DB	0ffH
	DB	0ffH
	DB	0ffH
	DB	0ffH
	DB	0ffH
	DB	0ffH
	DB	0ffH
	DB	0ffH
	DB	0ffH
	DB	0ffH
	DB	0ffH
	DB	0ffH
	DB	0ffH
	DB	0ffH
	DB	0dfH
	DB	0f7H
	DB	0bfH
	DB	0f7H
	DB	0dcH
	DB	085H
	DB	05aH
	DB	02cH
	DB	05aH
	DB	034H
	DB	05aH
	DB	034H
	DB	07aH
	DB	034H
	DB	07aH
	DB	034H
	DB	07aH
	DB	03cH
	DB	09aH
	DB	03cH
	DB	09aH
	DB	03cH
	DB	09aH
	DB	03cH
	DB	09aH
	DB	03cH
	DB	09aH
	DB	044H
	DB	09aH
	DB	03cH
	DB	059H
	DB	03cH
	DB	038H
	DB	03cH
	DB	0ffH
	DB	0ffH
	DB	0ffH
	DB	0ffH
	DB	0ffH
	DB	0ffH
	DB	0ffH
	DB	0ffH
	DB	0ffH
	DB	0ffH
	DB	0ffH
	DB	0ffH
	DB	0ffH
	DB	0ffH
	DB	0ffH
	DB	0ffH
	DB	019H
	DB	03cH
	DB	079H
	DB	03cH
	DB	09aH
	DB	03cH
	DB	09aH
	DB	044H
	DB	09aH
	DB	03cH
	DB	09aH
	DB	03cH
	DB	09aH
	DB	03cH
	DB	07aH
	DB	03cH
	DB	07aH
	DB	03cH
	DB	07aH
	DB	034H
	DB	07aH
	DB	034H
	DB	05aH
	DB	034H
	DB	05aH
	DB	034H
	DB	05aH
	DB	034H
	DB	0dcH
	DB	085H
	DB	0bfH
	DB	0f7H
	DB	0dfH
	DB	0ffH
	DB	0ffH
	DB	0ffH
	DB	0ffH
	DB	0ffH
	DB	0ffH
	DB	0ffH
	DB	0ffH
	DB	0ffH
	DB	0ffH
	DB	0ffH
	DB	0ffH
	DB	0ffH
	DB	0ffH
	DB	0ffH
	DB	0ffH
	DB	0ffH
	DB	0ffH
	DB	0ffH
	DB	0ffH
	DB	0ffH
	DB	0ffH
	DB	0ffH
	DB	0ffH
	DB	0ffH
	DB	0ffH
	DB	0ffH
	DB	0ffH
	DB	0ffH
	DB	0ffH
	DB	0ffH
	DB	0ffH
	DB	0ffH
	DB	0ffH
	DB	0ffH
	DB	0ffH
	DB	0ffH
	DB	0ffH
	DB	0ffH
	DB	0ffH
	DB	0ffH
	DB	0ffH
	DB	0ffH
	DB	0ffH
	DB	0ffH
	DB	0ffH
	DB	0ffH
	DB	0ffH
	DB	0ffH
	DB	0ffH
	DB	0ffH
	DB	0ffH
	DB	0ffH
	DB	0ffH
	DB	0ffH
	DB	0ffH
	DB	0ffH
	DB	0ffH
	DB	0ffH
	DB	0ffH
	DB	0ffH
	DB	0ffH
	DB	0ffH
	DB	0ffH
	DB	0ffH
	DB	0ffH
	DB	0ffH
	DB	0ffH
	DB	0ffH
	DB	0ffH
	DB	0ffH
	DB	0ffH
	DB	0ffH
	DB	0ffH
	DB	0ffH
	DB	0ffH
	DB	0ffH
	DB	0daH
	DB	09dH
	DB	0ffH
	DB	0ffH
	DB	0ffH
	DB	0ffH
	DB	0ffH
	DB	0ffH
	DB	0ffH
	DB	0ffH
	DB	0ffH
	DB	0ffH
	DB	0ffH
	DB	0ffH
	DB	0ffH
	DB	0ffH
	DB	0ffH
	DB	0ffH
	DB	0ffH
	DB	0ffH
	DB	0ffH
	DB	0ffH
	DB	0ffH
	DB	0ffH
	DB	0ffH
	DB	0ffH
	DB	0ffH
	DB	0ffH
	DB	0ffH
	DB	0ffH
	DB	0ffH
	DB	0ffH
	DB	0ffH
	DB	0ffH
	DB	0ffH
	DB	0ffH
	DB	0ffH
	DB	0ffH
	DB	0ffH
	DB	0ffH
	DB	0ffH
	DB	0ffH
	DB	0ffH
	DB	0ffH
	DB	0ffH
	DB	0ffH
	DB	0ffH
	DB	0ffH
	DB	0ffH
	DB	0ffH
	DB	0ffH
	DB	0ffH
	DB	0ffH
	DB	0ffH
	DB	0ffH
	DB	0ffH
	DB	0ffH
	DB	0ffH
	DB	0ffH
	DB	0ffH
	DB	0ffH
	DB	0ffH
	DB	0ffH
	DB	0ffH
	DB	0ffH
	DB	0ffH
	DB	0ffH
	DB	0ffH
	DB	0ffH
	DB	0ffH
	DB	0ffH
	DB	0ffH
	DB	0ffH
	DB	0ffH
	DB	0ffH
	DB	0ffH
	DB	0ffH
	DB	0ffH
	DB	0ffH
	DB	0ffH
	DB	0bfH
	DB	0f7H
	DB	09fH
	DB	0efH
	DB	09aH
	DB	03cH
	DB	059H
	DB	02cH
	DB	059H
	DB	02cH
	DB	05aH
	DB	034H
	DB	05aH
	DB	02cH
	DB	07aH
	DB	034H
	DB	05aH
	DB	034H
	DB	07aH
	DB	034H
	DB	07aH
	DB	034H
	DB	07aH
	DB	03cH
	DB	07aH
	DB	03cH
	DB	09aH
	DB	03cH
	DB	07aH
	DB	03cH
	DB	059H
	DB	03cH
	DB	018H
	DB	034H
	DB	0ffH
	DB	0ffH
	DB	0ffH
	DB	0ffH
	DB	0ffH
	DB	0ffH
	DB	099H
	DB	064H
	DB	099H
	DB	064H
	DB	0ffH
	DB	0ffH
	DB	0ffH
	DB	0ffH
	DB	0ffH
	DB	0ffH
	DB	018H
	DB	034H
	DB	059H
	DB	03cH
	DB	07aH
	DB	03cH
	DB	07aH
	DB	03cH
	DB	09aH
	DB	03cH
	DB	07aH
	DB	03cH
	DB	07aH
	DB	034H
	DB	07aH
	DB	034H
	DB	07aH
	DB	034H
	DB	07aH
	DB	034H
	DB	05aH
	DB	034H
	DB	059H
	DB	034H
	DB	059H
	DB	02cH
	DB	05aH
	DB	02cH
	DB	09aH
	DB	03cH
	DB	09fH
	DB	0efH
	DB	0bfH
	DB	0f7H
	DB	0ffH
	DB	0ffH
	DB	0ffH
	DB	0ffH
	DB	0ffH
	DB	0ffH
	DB	0ffH
	DB	0ffH
	DB	0ffH
	DB	0ffH
	DB	0ffH
	DB	0ffH
	DB	0ffH
	DB	0ffH
	DB	0ffH
	DB	0ffH
	DB	0ffH
	DB	0ffH
	DB	0ffH
	DB	0ffH
	DB	0ffH
	DB	0ffH
	DB	0ffH
	DB	0ffH
	DB	0ffH
	DB	0ffH
	DB	0ffH
	DB	0ffH
	DB	0ffH
	DB	0ffH
	DB	0ffH
	DB	0ffH
	DB	0ffH
	DB	0ffH
	DB	0ffH
	DB	0ffH
	DB	0ffH
	DB	0ffH
	DB	0ffH
	DB	0ffH
	DB	0ffH
	DB	0ffH
	DB	0ffH
	DB	0ffH
	DB	0ffH
	DB	0ffH
	DB	0ffH
	DB	0ffH
	DB	0ffH
	DB	0ffH
	DB	0ffH
	DB	0ffH
	DB	0ffH
	DB	0ffH
	DB	0ffH
	DB	0ffH
	DB	0ffH
	DB	0ffH
	DB	0ffH
	DB	0ffH
	DB	0ffH
	DB	0ffH
	DB	0ffH
	DB	0ffH
	DB	0ffH
	DB	0ffH
	DB	0ffH
	DB	0ffH
	DB	0ffH
	DB	0ffH
	DB	0ffH
	DB	0ffH
	DB	0ffH
	DB	0ffH
	DB	0ffH
	DB	0ffH
	DB	0daH
	DB	09dH
	DB	0ffH
	DB	0ffH
	DB	0ffH
	DB	0ffH
	DB	0ffH
	DB	0ffH
	DB	0ffH
	DB	0ffH
	DB	0ffH
	DB	0ffH
	DB	0ffH
	DB	0ffH
	DB	0ffH
	DB	0ffH
	DB	0ffH
	DB	0ffH
	DB	0ffH
	DB	0ffH
	DB	0ffH
	DB	0ffH
	DB	0ffH
	DB	0ffH
	DB	0ffH
	DB	0ffH
	DB	0ffH
	DB	0ffH
	DB	0ffH
	DB	0ffH
	DB	0ffH
	DB	0ffH
	DB	0ffH
	DB	0ffH
	DB	0ffH
	DB	0ffH
	DB	0ffH
	DB	0ffH
	DB	0ffH
	DB	0ffH
	DB	0ffH
	DB	0ffH
	DB	0ffH
	DB	0ffH
	DB	0ffH
	DB	0ffH
	DB	0ffH
	DB	0ffH
	DB	0ffH
	DB	0ffH
	DB	0ffH
	DB	0ffH
	DB	0ffH
	DB	0ffH
	DB	0ffH
	DB	0ffH
	DB	0ffH
	DB	0ffH
	DB	0ffH
	DB	0ffH
	DB	0ffH
	DB	0ffH
	DB	0ffH
	DB	0ffH
	DB	0ffH
	DB	0ffH
	DB	0ffH
	DB	0ffH
	DB	0ffH
	DB	0ffH
	DB	0ffH
	DB	0ffH
	DB	0ffH
	DB	0ffH
	DB	0ffH
	DB	0ffH
	DB	0ffH
	DB	0ffH
	DB	0dfH
	DB	0f7H
	DB	0bfH
	DB	0f7H
	DB	0deH
	DB	0beH
	DB	039H
	DB	024H
	DB	039H
	DB	02cH
	DB	039H
	DB	02cH
	DB	039H
	DB	02cH
	DB	059H
	DB	02cH
	DB	05aH
	DB	02cH
	DB	05aH
	DB	034H
	DB	05aH
	DB	034H
	DB	07aH
	DB	034H
	DB	05aH
	DB	034H
	DB	07aH
	DB	034H
	DB	07aH
	DB	034H
	DB	05aH
	DB	034H
	DB	039H
	DB	034H
	DB	0f8H
	DB	02bH
	DB	0ffH
	DB	0ffH
	DB	0ffH
	DB	0ffH
	DB	0ffH
	DB	0ffH
	DB	097H
	DB	02bH
	DB	097H
	DB	02bH
	DB	0ffH
	DB	0ffH
	DB	0ffH
	DB	0ffH
	DB	0ffH
	DB	0ffH
	DB	0f8H
	DB	02bH
	DB	039H
	DB	034H
	DB	05aH
	DB	034H
	DB	07aH
	DB	034H
	DB	07aH
	DB	034H
	DB	07aH
	DB	034H
	DB	05aH
	DB	034H
	DB	05aH
	DB	034H
	DB	059H
	DB	034H
	DB	05aH
	DB	02cH
	DB	039H
	DB	02cH
	DB	03aH
	DB	02cH
	DB	039H
	DB	02cH
	DB	039H
	DB	024H
	DB	039H
	DB	024H
	DB	0beH
	DB	0beH
	DB	0bfH
	DB	0efH
	DB	0dfH
	DB	0f7H
	DB	0ffH
	DB	0ffH
	DB	0ffH
	DB	0ffH
	DB	0ffH
	DB	0ffH
	DB	0ffH
	DB	0ffH
	DB	0ffH
	DB	0ffH
	DB	0ffH
	DB	0ffH
	DB	0ffH
	DB	0ffH
	DB	0ffH
	DB	0ffH
	DB	0ffH
	DB	0ffH
	DB	0ffH
	DB	0ffH
	DB	0ffH
	DB	0ffH
	DB	0ffH
	DB	0ffH
	DB	0ffH
	DB	0ffH
	DB	0ffH
	DB	0ffH
	DB	0ffH
	DB	0ffH
	DB	0ffH
	DB	0ffH
	DB	0ffH
	DB	0ffH
	DB	0ffH
	DB	0ffH
	DB	0ffH
	DB	0ffH
	DB	0ffH
	DB	0ffH
	DB	0ffH
	DB	0ffH
	DB	0ffH
	DB	0ffH
	DB	0ffH
	DB	0ffH
	DB	0ffH
	DB	0ffH
	DB	0ffH
	DB	0ffH
	DB	0ffH
	DB	0ffH
	DB	0ffH
	DB	0ffH
	DB	0ffH
	DB	0ffH
	DB	0ffH
	DB	0ffH
	DB	0ffH
	DB	0ffH
	DB	0ffH
	DB	0ffH
	DB	0ffH
	DB	0ffH
	DB	0ffH
	DB	0ffH
	DB	0ffH
	DB	0ffH
	DB	0ffH
	DB	0ffH
	DB	0ffH
	DB	0ffH
	DB	0ffH
	DB	0ffH
	DB	0daH
	DB	09dH
	DB	0ffH
	DB	0ffH
	DB	0ffH
	DB	0ffH
	DB	0ffH
	DB	0ffH
	DB	0ffH
	DB	0ffH
	DB	0ffH
	DB	0ffH
	DB	0ffH
	DB	0ffH
	DB	0ffH
	DB	0ffH
	DB	0ffH
	DB	0ffH
	DB	0ffH
	DB	0ffH
	DB	0ffH
	DB	0ffH
	DB	0ffH
	DB	0ffH
	DB	0ffH
	DB	0ffH
	DB	0ffH
	DB	0ffH
	DB	0ffH
	DB	0ffH
	DB	0ffH
	DB	0ffH
	DB	0ffH
	DB	0ffH
	DB	0ffH
	DB	0ffH
	DB	0ffH
	DB	0ffH
	DB	0ffH
	DB	0ffH
	DB	0ffH
	DB	0ffH
	DB	0ffH
	DB	0ffH
	DB	0ffH
	DB	0ffH
	DB	0ffH
	DB	0ffH
	DB	0ffH
	DB	0ffH
	DB	0ffH
	DB	0ffH
	DB	0ffH
	DB	0ffH
	DB	0ffH
	DB	0ffH
	DB	0ffH
	DB	0ffH
	DB	0ffH
	DB	0ffH
	DB	0ffH
	DB	0ffH
	DB	0ffH
	DB	0ffH
	DB	0ffH
	DB	0ffH
	DB	0ffH
	DB	0ffH
	DB	0ffH
	DB	0ffH
	DB	0ffH
	DB	0ffH
	DB	0ffH
	DB	0ffH
	DB	0ffH
	DB	0ffH
	DB	0dfH
	DB	0ffH
	DB	0bfH
	DB	0f7H
	DB	09fH
	DB	0efH
	DB	0dcH
	DB	085H
	DB	019H
	DB	024H
	DB	019H
	DB	024H
	DB	01aH
	DB	024H
	DB	039H
	DB	024H
	DB	039H
	DB	02cH
	DB	039H
	DB	02cH
	DB	039H
	DB	02cH
	DB	039H
	DB	02cH
	DB	059H
	DB	02cH
	DB	05aH
	DB	034H
	DB	05aH
	DB	034H
	DB	05aH
	DB	034H
	DB	059H
	DB	034H
	DB	019H
	DB	02cH
	DB	0d8H
	DB	02bH
	DB	0ffH
	DB	0ffH
	DB	0ffH
	DB	0ffH
	DB	0ffH
	DB	0ffH
	DB	097H
	DB	023H
	DB	097H
	DB	023H
	DB	0ffH
	DB	0ffH
	DB	0ffH
	DB	0ffH
	DB	0ffH
	DB	0ffH
	DB	0d8H
	DB	02bH
	DB	019H
	DB	02cH
	DB	059H
	DB	034H
	DB	05aH
	DB	034H
	DB	05aH
	DB	034H
	DB	059H
	DB	034H
	DB	059H
	DB	02cH
	DB	03aH
	DB	02cH
	DB	039H
	DB	02cH
	DB	039H
	DB	02cH
	DB	039H
	DB	024H
	DB	03aH
	DB	024H
	DB	019H
	DB	024H
	DB	019H
	DB	024H
	DB	019H
	DB	024H
	DB	0dcH
	DB	085H
	DB	09fH
	DB	0efH
	DB	0dfH
	DB	0f7H
	DB	0dfH
	DB	0ffH
	DB	0ffH
	DB	0ffH
	DB	0ffH
	DB	0ffH
	DB	0ffH
	DB	0ffH
	DB	0ffH
	DB	0ffH
	DB	0ffH
	DB	0ffH
	DB	0ffH
	DB	0ffH
	DB	0ffH
	DB	0ffH
	DB	0ffH
	DB	0ffH
	DB	0ffH
	DB	0ffH
	DB	0ffH
	DB	0ffH
	DB	0ffH
	DB	0ffH
	DB	0ffH
	DB	0ffH
	DB	0ffH
	DB	0ffH
	DB	0ffH
	DB	0ffH
	DB	0ffH
	DB	0ffH
	DB	0ffH
	DB	0ffH
	DB	0ffH
	DB	0ffH
	DB	0ffH
	DB	0ffH
	DB	0ffH
	DB	0ffH
	DB	0ffH
	DB	0ffH
	DB	0ffH
	DB	0ffH
	DB	0ffH
	DB	0ffH
	DB	0ffH
	DB	0ffH
	DB	0ffH
	DB	0ffH
	DB	0ffH
	DB	0ffH
	DB	0ffH
	DB	0ffH
	DB	0ffH
	DB	0ffH
	DB	0ffH
	DB	0ffH
	DB	0ffH
	DB	0ffH
	DB	0ffH
	DB	0ffH
	DB	0ffH
	DB	0ffH
	DB	0ffH
	DB	0ffH
	DB	0ffH
	DB	0ffH
	DB	0ffH
	DB	0ffH
	DB	0ffH
	DB	0ffH
	DB	0ffH
	DB	0ffH
	DB	0faH
	DB	09dH
	DB	0ffH
	DB	0ffH
	DB	0ffH
	DB	0ffH
	DB	0ffH
	DB	0ffH
	DB	0ffH
	DB	0ffH
	DB	0ffH
	DB	0ffH
	DB	0ffH
	DB	0ffH
	DB	0ffH
	DB	0ffH
	DB	0ffH
	DB	0ffH
	DB	0ffH
	DB	0ffH
	DB	0ffH
	DB	0ffH
	DB	0ffH
	DB	0ffH
	DB	0ffH
	DB	0ffH
	DB	0ffH
	DB	0ffH
	DB	0ffH
	DB	0ffH
	DB	0ffH
	DB	0ffH
	DB	0ffH
	DB	0ffH
	DB	0ffH
	DB	0ffH
	DB	0ffH
	DB	0ffH
	DB	0ffH
	DB	0ffH
	DB	0ffH
	DB	0ffH
	DB	0ffH
	DB	0ffH
	DB	0ffH
	DB	0ffH
	DB	0ffH
	DB	0ffH
	DB	0ffH
	DB	0ffH
	DB	0ffH
	DB	0ffH
	DB	0ffH
	DB	0ffH
	DB	0ffH
	DB	0ffH
	DB	0ffH
	DB	0ffH
	DB	0ffH
	DB	0ffH
	DB	0ffH
	DB	0ffH
	DB	0ffH
	DB	0ffH
	DB	0ffH
	DB	0ffH
	DB	0ffH
	DB	0ffH
	DB	0ffH
	DB	0ffH
	DB	0ffH
	DB	0ffH
	DB	0ffH
	DB	0ffH
	DB	0ffH
	DB	0ffH
	DB	0dfH
	DB	0f7H
	DB	0bfH
	DB	0f7H
	DB	09fH
	DB	0e7H
	DB	01bH
	DB	05dH
	DB	0f9H
	DB	01bH
	DB	019H
	DB	024H
	DB	019H
	DB	024H
	DB	01aH
	DB	024H
	DB	019H
	DB	024H
	DB	019H
	DB	024H
	DB	03aH
	DB	024H
	DB	039H
	DB	024H
	DB	039H
	DB	02cH
	DB	03aH
	DB	02cH
	DB	039H
	DB	02cH
	DB	059H
	DB	02cH
	DB	039H
	DB	02cH
	DB	019H
	DB	02cH
	DB	0b8H
	DB	023H
	DB	0ffH
	DB	0ffH
	DB	0ffH
	DB	0ffH
	DB	0ffH
	DB	0ffH
	DB	097H
	DB	023H
	DB	097H
	DB	023H
	DB	0ffH
	DB	0ffH
	DB	0ffH
	DB	0ffH
	DB	0ffH
	DB	0ffH
	DB	0b8H
	DB	023H
	DB	018H
	DB	02cH
	DB	039H
	DB	02cH
	DB	039H
	DB	02cH
	DB	03aH
	DB	02cH
	DB	039H
	DB	02cH
	DB	039H
	DB	02cH
	DB	03aH
	DB	024H
	DB	039H
	DB	024H
	DB	019H
	DB	024H
	DB	019H
	DB	024H
	DB	019H
	DB	024H
	DB	019H
	DB	024H
	DB	019H
	DB	024H
	DB	019H
	DB	01cH
	DB	01bH
	DB	05dH
	DB	09fH
	DB	0e7H
	DB	0bfH
	DB	0f7H
	DB	0dfH
	DB	0f7H
	DB	0ffH
	DB	0ffH
	DB	0ffH
	DB	0ffH
	DB	0ffH
	DB	0ffH
	DB	0ffH
	DB	0ffH
	DB	0ffH
	DB	0ffH
	DB	0ffH
	DB	0ffH
	DB	0ffH
	DB	0ffH
	DB	0ffH
	DB	0ffH
	DB	0ffH
	DB	0ffH
	DB	0ffH
	DB	0ffH
	DB	0ffH
	DB	0ffH
	DB	0ffH
	DB	0ffH
	DB	0ffH
	DB	0ffH
	DB	0ffH
	DB	0ffH
	DB	0ffH
	DB	0ffH
	DB	0ffH
	DB	0ffH
	DB	0ffH
	DB	0ffH
	DB	0ffH
	DB	0ffH
	DB	0ffH
	DB	0ffH
	DB	0ffH
	DB	0ffH
	DB	0ffH
	DB	0ffH
	DB	0ffH
	DB	0ffH
	DB	0ffH
	DB	0ffH
	DB	0ffH
	DB	0ffH
	DB	0ffH
	DB	0ffH
	DB	0ffH
	DB	0ffH
	DB	0ffH
	DB	0ffH
	DB	0ffH
	DB	0ffH
	DB	0ffH
	DB	0ffH
	DB	0ffH
	DB	0ffH
	DB	0ffH
	DB	0ffH
	DB	0ffH
	DB	0ffH
	DB	0ffH
	DB	0ffH
	DB	0ffH
	DB	0ffH
	DB	0ffH
	DB	0ffH
	DB	0ffH
	DB	0ffH
	DB	0faH
	DB	09dH
	DB	0ffH
	DB	0ffH
	DB	0ffH
	DB	0ffH
	DB	0ffH
	DB	0ffH
	DB	0ffH
	DB	0ffH
	DB	0ffH
	DB	0ffH
	DB	0ffH
	DB	0ffH
	DB	0ffH
	DB	0ffH
	DB	0ffH
	DB	0ffH
	DB	0ffH
	DB	0ffH
	DB	0ffH
	DB	0ffH
	DB	0ffH
	DB	0ffH
	DB	0ffH
	DB	0ffH
	DB	0ffH
	DB	0ffH
	DB	0ffH
	DB	0ffH
	DB	0ffH
	DB	0ffH
	DB	0ffH
	DB	0ffH
	DB	0ffH
	DB	0ffH
	DB	0ffH
	DB	0ffH
	DB	0ffH
	DB	0ffH
	DB	0ffH
	DB	0ffH
	DB	0ffH
	DB	0ffH
	DB	0ffH
	DB	0ffH
	DB	0ffH
	DB	0ffH
	DB	0ffH
	DB	0ffH
	DB	0ffH
	DB	0ffH
	DB	0ffH
	DB	0ffH
	DB	0ffH
	DB	0ffH
	DB	0ffH
	DB	0ffH
	DB	0ffH
	DB	0ffH
	DB	0ffH
	DB	0ffH
	DB	0ffH
	DB	0ffH
	DB	0ffH
	DB	0ffH
	DB	0ffH
	DB	0ffH
	DB	0ffH
	DB	0ffH
	DB	0ffH
	DB	0ffH
	DB	0ffH
	DB	0ffH
	DB	0ffH
	DB	0ffH
	DB	0dfH
	DB	0f7H
	DB	09fH
	DB	0efH
	DB	07fH
	DB	0e7H
	DB	09aH
	DB	03cH
	DB	0f9H
	DB	01bH
	DB	0f9H
	DB	01bH
	DB	0f9H
	DB	01bH
	DB	0f9H
	DB	01bH
	DB	019H
	DB	01cH
	DB	019H
	DB	01cH
	DB	01aH
	DB	024H
	DB	019H
	DB	024H
	DB	019H
	DB	024H
	DB	039H
	DB	024H
	DB	039H
	DB	024H
	DB	019H
	DB	024H
	DB	0f9H
	DB	023H
	DB	0d8H
	DB	023H
	DB	097H
	DB	023H
	DB	0ffH
	DB	0ffH
	DB	0ffH
	DB	0ffH
	DB	0ffH
	DB	0ffH
	DB	077H
	DB	023H
	DB	077H
	DB	01bH
	DB	0ffH
	DB	0ffH
	DB	0ffH
	DB	0ffH
	DB	0ffH
	DB	0ffH
	DB	097H
	DB	023H
	DB	0d8H
	DB	023H
	DB	019H
	DB	024H
	DB	039H
	DB	024H
	DB	039H
	DB	024H
	DB	039H
	DB	024H
	DB	019H
	DB	024H
	DB	019H
	DB	024H
	DB	01aH
	DB	024H
	DB	019H
	DB	024H
	DB	019H
	DB	01cH
	DB	019H
	DB	01cH
	DB	0f9H
	DB	01bH
	DB	0f9H
	DB	01bH
	DB	0f9H
	DB	01bH
	DB	07aH
	DB	03cH
	DB	07fH
	DB	0e7H
	DB	09fH
	DB	0efH
	DB	0dfH
	DB	0f7H
	DB	0dfH
	DB	0ffH
	DB	0ffH
	DB	0ffH
	DB	0ffH
	DB	0ffH
	DB	0ffH
	DB	0ffH
	DB	0ffH
	DB	0ffH
	DB	0ffH
	DB	0ffH
	DB	0ffH
	DB	0ffH
	DB	0ffH
	DB	0ffH
	DB	0ffH
	DB	0ffH
	DB	0ffH
	DB	0ffH
	DB	0ffH
	DB	0ffH
	DB	0ffH
	DB	0ffH
	DB	0ffH
	DB	0ffH
	DB	0ffH
	DB	0ffH
	DB	0ffH
	DB	0ffH
	DB	0ffH
	DB	0ffH
	DB	0ffH
	DB	0ffH
	DB	0ffH
	DB	0ffH
	DB	0ffH
	DB	0ffH
	DB	0ffH
	DB	0ffH
	DB	0ffH
	DB	0ffH
	DB	0ffH
	DB	0ffH
	DB	0ffH
	DB	0ffH
	DB	0ffH
	DB	0ffH
	DB	0ffH
	DB	0ffH
	DB	0ffH
	DB	0ffH
	DB	0ffH
	DB	0ffH
	DB	0ffH
	DB	0ffH
	DB	0ffH
	DB	0ffH
	DB	0ffH
	DB	0ffH
	DB	0ffH
	DB	0ffH
	DB	0ffH
	DB	0ffH
	DB	0ffH
	DB	0ffH
	DB	0ffH
	DB	0ffH
	DB	0ffH
	DB	0ffH
	DB	0ffH
	DB	0ffH
	DB	0daH
	DB	09dH
	DB	0ffH
	DB	0ffH
	DB	0ffH
	DB	0ffH
	DB	0ffH
	DB	0ffH
	DB	0ffH
	DB	0ffH
	DB	0ffH
	DB	0ffH
	DB	0ffH
	DB	0ffH
	DB	0ffH
	DB	0ffH
	DB	0ffH
	DB	0ffH
	DB	0ffH
	DB	0ffH
	DB	0ffH
	DB	0ffH
	DB	0ffH
	DB	0ffH
	DB	0ffH
	DB	0ffH
	DB	0ffH
	DB	0ffH
	DB	0ffH
	DB	0ffH
	DB	0ffH
	DB	0ffH
	DB	0ffH
	DB	0ffH
	DB	0ffH
	DB	0ffH
	DB	0ffH
	DB	0ffH
	DB	0ffH
	DB	0ffH
	DB	0ffH
	DB	0ffH
	DB	0ffH
	DB	0ffH
	DB	0ffH
	DB	0ffH
	DB	0ffH
	DB	0ffH
	DB	0ffH
	DB	0ffH
	DB	0ffH
	DB	0ffH
	DB	0ffH
	DB	0ffH
	DB	0ffH
	DB	0ffH
	DB	0ffH
	DB	0ffH
	DB	0ffH
	DB	0ffH
	DB	0ffH
	DB	0ffH
	DB	0ffH
	DB	0ffH
	DB	0ffH
	DB	0ffH
	DB	0ffH
	DB	0ffH
	DB	0ffH
	DB	0ffH
	DB	0ffH
	DB	0ffH
	DB	0ffH
	DB	0ffH
	DB	0dfH
	DB	0ffH
	DB	0bfH
	DB	0f7H
	DB	09fH
	DB	0efH
	DB	05fH
	DB	0dfH
	DB	039H
	DB	02cH
	DB	0d9H
	DB	01bH
	DB	0f9H
	DB	01bH
	DB	0f9H
	DB	01bH
	DB	0f9H
	DB	01bH
	DB	0f9H
	DB	01bH
	DB	0f9H
	DB	01bH
	DB	0f9H
	DB	01bH
	DB	0f9H
	DB	01bH
	DB	019H
	DB	01cH
	DB	0f9H
	DB	01bH
	DB	019H
	DB	024H
	DB	0f9H
	DB	023H
	DB	0d9H
	DB	01bH
	DB	0b8H
	DB	01bH
	DB	0d9H
	DB	064H
	DB	0ffH
	DB	0ffH
	DB	0ffH
	DB	0ffH
	DB	0ffH
	DB	0ffH
	DB	077H
	DB	01bH
	DB	077H
	DB	01bH
	DB	0ffH
	DB	0ffH
	DB	0ffH
	DB	0ffH
	DB	0ffH
	DB	0ffH
	DB	0daH
	DB	064H
	DB	098H
	DB	01bH
	DB	0d8H
	DB	023H
	DB	0f9H
	DB	023H
	DB	0f9H
	DB	023H
	DB	019H
	DB	01cH
	DB	0f9H
	DB	01bH
	DB	019H
	DB	01cH
	DB	0f9H
	DB	01bH
	DB	0f9H
	DB	01bH
	DB	0f9H
	DB	01bH
	DB	0f9H
	DB	01bH
	DB	0f9H
	DB	01bH
	DB	0f9H
	DB	01bH
	DB	0d9H
	DB	01bH
	DB	039H
	DB	02cH
	DB	05fH
	DB	0dfH
	DB	09fH
	DB	0efH
	DB	0bfH
	DB	0f7H
	DB	0dfH
	DB	0ffH
	DB	0ffH
	DB	0ffH
	DB	0ffH
	DB	0ffH
	DB	0ffH
	DB	0ffH
	DB	0ffH
	DB	0ffH
	DB	0ffH
	DB	0ffH
	DB	0ffH
	DB	0ffH
	DB	0ffH
	DB	0ffH
	DB	0ffH
	DB	0ffH
	DB	0ffH
	DB	0ffH
	DB	0ffH
	DB	0ffH
	DB	0ffH
	DB	0ffH
	DB	0ffH
	DB	0ffH
	DB	0ffH
	DB	0ffH
	DB	0ffH
	DB	0ffH
	DB	0ffH
	DB	0ffH
	DB	0ffH
	DB	0ffH
	DB	0ffH
	DB	0ffH
	DB	0ffH
	DB	0ffH
	DB	0ffH
	DB	0ffH
	DB	0ffH
	DB	0ffH
	DB	0ffH
	DB	0ffH
	DB	0ffH
	DB	0ffH
	DB	0ffH
	DB	0ffH
	DB	0ffH
	DB	0ffH
	DB	0ffH
	DB	0ffH
	DB	0ffH
	DB	0ffH
	DB	0ffH
	DB	0ffH
	DB	0ffH
	DB	0ffH
	DB	0ffH
	DB	0ffH
	DB	0ffH
	DB	0ffH
	DB	0ffH
	DB	0ffH
	DB	0ffH
	DB	0ffH
	DB	0ffH
	DB	0ffH
	DB	0ffH
	DB	0ffH
	DB	0ffH
	DB	0ffH
	DB	0faH
	DB	09dH
	DB	0ffH
	DB	0ffH
	DB	0ffH
	DB	0ffH
	DB	0ffH
	DB	0ffH
	DB	0ffH
	DB	0ffH
	DB	0ffH
	DB	0ffH
	DB	0ffH
	DB	0ffH
	DB	0ffH
	DB	0ffH
	DB	0ffH
	DB	0ffH
	DB	0ffH
	DB	0ffH
	DB	0ffH
	DB	0ffH
	DB	0ffH
	DB	0ffH
	DB	0ffH
	DB	0ffH
	DB	0ffH
	DB	0ffH
	DB	0ffH
	DB	0ffH
	DB	0ffH
	DB	0ffH
	DB	0ffH
	DB	0ffH
	DB	0ffH
	DB	0ffH
	DB	0ffH
	DB	0ffH
	DB	0ffH
	DB	0ffH
	DB	0ffH
	DB	0ffH
	DB	0ffH
	DB	0ffH
	DB	0ffH
	DB	0ffH
	DB	0ffH
	DB	0ffH
	DB	0ffH
	DB	0ffH
	DB	0ffH
	DB	0ffH
	DB	0ffH
	DB	0ffH
	DB	0ffH
	DB	0ffH
	DB	0ffH
	DB	0ffH
	DB	0ffH
	DB	0ffH
	DB	0ffH
	DB	0ffH
	DB	0ffH
	DB	0ffH
	DB	0ffH
	DB	0ffH
	DB	0ffH
	DB	0ffH
	DB	0ffH
	DB	0ffH
	DB	0ffH
	DB	0ffH
	DB	0dfH
	DB	0ffH
	DB	0dfH
	DB	0f7H
	DB	0bfH
	DB	0f7H
	DB	09fH
	DB	0e7H
	DB	05eH
	DB	0dfH
	DB	0f9H
	DB	01bH
	DB	0d9H
	DB	01bH
	DB	0d9H
	DB	01bH
	DB	0d9H
	DB	01bH
	DB	0d9H
	DB	01bH
	DB	0d9H
	DB	01bH
	DB	0f9H
	DB	01bH
	DB	0f9H
	DB	01bH
	DB	0f9H
	DB	01bH
	DB	0f9H
	DB	01bH
	DB	0f9H
	DB	01bH
	DB	0d9H
	DB	01bH
	DB	0d8H
	DB	01bH
	DB	0b8H
	DB	01bH
	DB	0faH
	DB	064H
	DB	0ffH
	DB	0ffH
	DB	0ffH
	DB	0ffH
	DB	0ffH
	DB	0ffH
	DB	0ffH
	DB	0ffH
	DB	077H
	DB	01bH
	DB	077H
	DB	01bH
	DB	0ffH
	DB	0ffH
	DB	0ffH
	DB	0ffH
	DB	0ffH
	DB	0ffH
	DB	0ffH
	DB	0ffH
	DB	0faH
	DB	064H
	DB	0b8H
	DB	01bH
	DB	0d8H
	DB	01bH
	DB	0d9H
	DB	01bH
	DB	0f9H
	DB	01bH
	DB	0f9H
	DB	01bH
	DB	0f9H
	DB	01bH
	DB	0f9H
	DB	01bH
	DB	0d9H
	DB	01bH
	DB	0d9H
	DB	01bH
	DB	0d9H
	DB	01bH
	DB	0d9H
	DB	01bH
	DB	0d9H
	DB	01bH
	DB	0d9H
	DB	01bH
	DB	0f9H
	DB	01bH
	DB	05fH
	DB	0dfH
	DB	09fH
	DB	0e7H
	DB	0bfH
	DB	0f7H
	DB	0dfH
	DB	0f7H
	DB	0ffH
	DB	0ffH
	DB	0ffH
	DB	0ffH
	DB	0ffH
	DB	0ffH
	DB	0ffH
	DB	0ffH
	DB	0ffH
	DB	0ffH
	DB	0ffH
	DB	0ffH
	DB	0ffH
	DB	0ffH
	DB	0ffH
	DB	0ffH
	DB	0ffH
	DB	0ffH
	DB	0ffH
	DB	0ffH
	DB	0ffH
	DB	0ffH
	DB	0ffH
	DB	0ffH
	DB	0ffH
	DB	0ffH
	DB	0ffH
	DB	0ffH
	DB	0ffH
	DB	0ffH
	DB	0ffH
	DB	0ffH
	DB	0ffH
	DB	0ffH
	DB	0ffH
	DB	0ffH
	DB	0ffH
	DB	0ffH
	DB	0ffH
	DB	0ffH
	DB	0ffH
	DB	0ffH
	DB	0ffH
	DB	0ffH
	DB	0ffH
	DB	0ffH
	DB	0ffH
	DB	0ffH
	DB	0ffH
	DB	0ffH
	DB	0ffH
	DB	0ffH
	DB	0ffH
	DB	0ffH
	DB	0ffH
	DB	0ffH
	DB	0ffH
	DB	0ffH
	DB	0ffH
	DB	0ffH
	DB	0ffH
	DB	0ffH
	DB	0ffH
	DB	0ffH
	DB	0ffH
	DB	0ffH
	DB	0ffH
	DB	0ffH
	DB	0ffH
	DB	0ffH
	DB	0faH
	DB	0a5H
	DB	0dfH
	DB	0ffH
	DB	0dfH
	DB	0ffH
	DB	0dfH
	DB	0ffH
	DB	0dfH
	DB	0ffH
	DB	0ffH
	DB	0ffH
	DB	0dfH
	DB	0ffH
	DB	0dfH
	DB	0ffH
	DB	0ffH
	DB	0ffH
	DB	0ffH
	DB	0ffH
	DB	0dfH
	DB	0ffH
	DB	0ffH
	DB	0ffH
	DB	0ffH
	DB	0ffH
	DB	0dfH
	DB	0ffH
	DB	0ffH
	DB	0ffH
	DB	0ffH
	DB	0ffH
	DB	0dfH
	DB	0ffH
	DB	0ffH
	DB	0ffH
	DB	0ffH
	DB	0ffH
	DB	0dfH
	DB	0ffH
	DB	0ffH
	DB	0ffH
	DB	0dfH
	DB	0ffH
	DB	0ffH
	DB	0ffH
	DB	0dfH
	DB	0ffH
	DB	0dfH
	DB	0ffH
	DB	0ffH
	DB	0ffH
	DB	0dfH
	DB	0ffH
	DB	0dfH
	DB	0ffH
	DB	0ffH
	DB	0ffH
	DB	0dfH
	DB	0ffH
	DB	0dfH
	DB	0ffH
	DB	0ffH
	DB	0ffH
	DB	0dfH
	DB	0ffH
	DB	0dfH
	DB	0ffH
	DB	0ffH
	DB	0ffH
	DB	0dfH
	DB	0ffH
	DB	0dfH
	DB	0ffH
	DB	0dfH
	DB	0f7H
	DB	0bfH
	DB	0efH
	DB	07fH
	DB	0e7H
	DB	05eH
	DB	0dfH
	DB	0d9H
	DB	01bH
	DB	0d9H
	DB	01bH
	DB	0d9H
	DB	01bH
	DB	0d9H
	DB	01bH
	DB	0d9H
	DB	01bH
	DB	0d9H
	DB	01bH
	DB	0d9H
	DB	01bH
	DB	0d9H
	DB	01bH
	DB	0d9H
	DB	01bH
	DB	0d9H
	DB	01bH
	DB	0d9H
	DB	01bH
	DB	0d9H
	DB	01bH
	DB	098H
	DB	01bH
	DB	0d8H
	DB	02bH
	DB	0dfH
	DB	0f7H
	DB	0ffH
	DB	0ffH
	DB	0ffH
	DB	0ffH
	DB	05fH
	DB	0e7H
	DB	0daH
	DB	064H
	DB	077H
	DB	013H
	DB	057H
	DB	013H
	DB	099H
	DB	05cH
	DB	03eH
	DB	0d7H
	DB	0ffH
	DB	0ffH
	DB	0ffH
	DB	0ffH
	DB	0dfH
	DB	0f7H
	DB	0d8H
	DB	02bH
	DB	0b8H
	DB	01bH
	DB	0d9H
	DB	01bH
	DB	0d9H
	DB	01bH
	DB	0d9H
	DB	01bH
	DB	0d9H
	DB	01bH
	DB	0d9H
	DB	01bH
	DB	0d9H
	DB	01bH
	DB	0d9H
	DB	01bH
	DB	0d9H
	DB	01bH
	DB	0d9H
	DB	01bH
	DB	0d9H
	DB	01bH
	DB	0d9H
	DB	01bH
	DB	0d9H
	DB	01bH
	DB	05eH
	DB	0dfH
	DB	07fH
	DB	0e7H
	DB	0bfH
	DB	0efH
	DB	0dfH
	DB	0f7H
	DB	0dfH
	DB	0ffH
	DB	0dfH
	DB	0ffH
	DB	0dfH
	DB	0ffH
	DB	0dfH
	DB	0ffH
	DB	0dfH
	DB	0ffH
	DB	0dfH
	DB	0ffH
	DB	0dfH
	DB	0ffH
	DB	0dfH
	DB	0ffH
	DB	0dfH
	DB	0ffH
	DB	0dfH
	DB	0ffH
	DB	0dfH
	DB	0ffH
	DB	0dfH
	DB	0ffH
	DB	0dfH
	DB	0ffH
	DB	0ffH
	DB	0ffH
	DB	0dfH
	DB	0ffH
	DB	0dfH
	DB	0ffH
	DB	0ffH
	DB	0ffH
	DB	0dfH
	DB	0ffH
	DB	0dfH
	DB	0ffH
	DB	0ffH
	DB	0ffH
	DB	0dfH
	DB	0ffH
	DB	0ffH
	DB	0ffH
	DB	0ffH
	DB	0ffH
	DB	0dfH
	DB	0ffH
	DB	0ffH
	DB	0ffH
	DB	0ffH
	DB	0ffH
	DB	0dfH
	DB	0ffH
	DB	0ffH
	DB	0ffH
	DB	0ffH
	DB	0ffH
	DB	0dfH
	DB	0ffH
	DB	0ffH
	DB	0ffH
	DB	0ffH
	DB	0ffH
	DB	0dfH
	DB	0ffH
	DB	0ffH
	DB	0ffH
	DB	0dfH
	DB	0ffH
	DB	0faH
	DB	0a5H
	DB	0dfH
	DB	0ffH
	DB	0ffH
	DB	0ffH
	DB	0ffH
	DB	0ffH
	DB	0dfH
	DB	0ffH
	DB	0ffH
	DB	0ffH
	DB	0dfH
	DB	0ffH
	DB	0dfH
	DB	0ffH
	DB	0ffH
	DB	0ffH
	DB	0dfH
	DB	0ffH
	DB	0dfH
	DB	0ffH
	DB	0ffH
	DB	0ffH
	DB	0dfH
	DB	0ffH
	DB	0dfH
	DB	0ffH
	DB	0ffH
	DB	0ffH
	DB	0dfH
	DB	0ffH
	DB	0dfH
	DB	0ffH
	DB	0dfH
	DB	0ffH
	DB	0ffH
	DB	0ffH
	DB	0dfH
	DB	0ffH
	DB	0dfH
	DB	0ffH
	DB	0ffH
	DB	0ffH
	DB	0dfH
	DB	0ffH
	DB	0ffH
	DB	0ffH
	DB	0ffH
	DB	0ffH
	DB	0dfH
	DB	0ffH
	DB	0ffH
	DB	0ffH
	DB	0dfH
	DB	0ffH
	DB	0ffH
	DB	0ffH
	DB	0dfH
	DB	0ffH
	DB	0ffH
	DB	0ffH
	DB	0dfH
	DB	0ffH
	DB	0dfH
	DB	0ffH
	DB	0ffH
	DB	0ffH
	DB	0dfH
	DB	0ffH
	DB	0ffH
	DB	0ffH
	DB	0dfH
	DB	0ffH
	DB	0dfH
	DB	0f7H
	DB	09fH
	DB	0efH
	DB	07fH
	DB	0e7H
	DB	03eH
	DB	0d7H
	DB	0f9H
	DB	02bH
	DB	0b9H
	DB	01bH
	DB	0d8H
	DB	01bH
	DB	0d8H
	DB	01bH
	DB	0b9H
	DB	01bH
	DB	0d8H
	DB	01bH
	DB	0b9H
	DB	01bH
	DB	0d9H
	DB	01bH
	DB	0d9H
	DB	01bH
	DB	0d9H
	DB	01bH
	DB	0b9H
	DB	01bH
	DB	0b8H
	DB	01bH
	DB	098H
	DB	013H
	DB	0dcH
	DB	095H
	DB	0ffH
	DB	0ffH
	DB	0ffH
	DB	0ffH
	DB	05eH
	DB	0e7H
	DB	097H
	DB	02bH
	DB	057H
	DB	013H
	DB	057H
	DB	013H
	DB	057H
	DB	013H
	DB	036H
	DB	013H
	DB	077H
	DB	023H
	DB	05eH
	DB	0dfH
	DB	0ffH
	DB	0ffH
	DB	0ffH
	DB	0ffH
	DB	0dcH
	DB	095H
	DB	078H
	DB	013H
	DB	0b8H
	DB	01bH
	DB	0b9H
	DB	01bH
	DB	0d9H
	DB	01bH
	DB	0d9H
	DB	01bH
	DB	0d9H
	DB	01bH
	DB	0d9H
	DB	01bH
	DB	0d9H
	DB	01bH
	DB	0d9H
	DB	01bH
	DB	0b8H
	DB	01bH
	DB	0d9H
	DB	01bH
	DB	0b9H
	DB	01bH
	DB	0f9H
	DB	02bH
	DB	03eH
	DB	0d7H
	DB	07fH
	DB	0e7H
	DB	09fH
	DB	0efH
	DB	0dfH
	DB	0f7H
	DB	0dfH
	DB	0ffH
	DB	0ffH
	DB	0ffH
	DB	0ffH
	DB	0ffH
	DB	0dfH
	DB	0ffH
	DB	0ffH
	DB	0ffH
	DB	0ffH
	DB	0ffH
	DB	0ffH
	DB	0ffH
	DB	0ffH
	DB	0ffH
	DB	0ffH
	DB	0ffH
	DB	0ffH
	DB	0ffH
	DB	0ffH
	DB	0ffH
	DB	0dfH
	DB	0ffH
	DB	0ffH
	DB	0ffH
	DB	0dfH
	DB	0ffH
	DB	0ffH
	DB	0ffH
	DB	0dfH
	DB	0ffH
	DB	0ffH
	DB	0ffH
	DB	0dfH
	DB	0ffH
	DB	0ffH
	DB	0ffH
	DB	0dfH
	DB	0ffH
	DB	0dfH
	DB	0ffH
	DB	0ffH
	DB	0ffH
	DB	0dfH
	DB	0ffH
	DB	0dfH
	DB	0ffH
	DB	0ffH
	DB	0ffH
	DB	0dfH
	DB	0ffH
	DB	0dfH
	DB	0ffH
	DB	0ffH
	DB	0ffH
	DB	0dfH
	DB	0ffH
	DB	0dfH
	DB	0ffH
	DB	0ffH
	DB	0ffH
	DB	0dfH
	DB	0ffH
	DB	0dfH
	DB	0ffH
	DB	0ffH
	DB	0ffH
	DB	0dfH
	DB	0ffH
	DB	0faH
	DB	09dH
	DB	0dfH
	DB	0ffH
	DB	0dfH
	DB	0ffH
	DB	0dfH
	DB	0ffH
	DB	0dfH
	DB	0f7H
	DB	0dfH
	DB	0ffH
	DB	0dfH
	DB	0ffH
	DB	0dfH
	DB	0f7H
	DB	0dfH
	DB	0ffH
	DB	0dfH
	DB	0ffH
	DB	0dfH
	DB	0f7H
	DB	0dfH
	DB	0ffH
	DB	0dfH
	DB	0f7H
	DB	0dfH
	DB	0ffH
	DB	0dfH
	DB	0f7H
	DB	0dfH
	DB	0ffH
	DB	0dfH
	DB	0f7H
	DB	0dfH
	DB	0ffH
	DB	0dfH
	DB	0ffH
	DB	0dfH
	DB	0f7H
	DB	0dfH
	DB	0ffH
	DB	0dfH
	DB	0ffH
	DB	0dfH
	DB	0f7H
	DB	0dfH
	DB	0ffH
	DB	0dfH
	DB	0ffH
	DB	0dfH
	DB	0f7H
	DB	0dfH
	DB	0ffH
	DB	0dfH
	DB	0ffH
	DB	0dfH
	DB	0ffH
	DB	0dfH
	DB	0ffH
	DB	0dfH
	DB	0ffH
	DB	0dfH
	DB	0ffH
	DB	0dfH
	DB	0ffH
	DB	0dfH
	DB	0ffH
	DB	0dfH
	DB	0ffH
	DB	0dfH
	DB	0ffH
	DB	0dfH
	DB	0f7H
	DB	0bfH
	DB	0f7H
	DB	09fH
	DB	0efH
	DB	07fH
	DB	0e7H
	DB	03eH
	DB	0d7H
	DB	05aH
	DB	034H
	DB	0b8H
	DB	01bH
	DB	0b8H
	DB	01bH
	DB	0b9H
	DB	013H
	DB	0b8H
	DB	01bH
	DB	0b9H
	DB	01bH
	DB	0b8H
	DB	013H
	DB	0b9H
	DB	01bH
	DB	0b8H
	DB	01bH
	DB	0b8H
	DB	01bH
	DB	0b8H
	DB	01bH
	DB	098H
	DB	013H
	DB	057H
	DB	013H
	DB	03eH
	DB	0dfH
	DB	0ffH
	DB	0ffH
	DB	0ffH
	DB	0ffH
	DB	0b9H
	DB	064H
	DB	036H
	DB	013H
	DB	0b9H
	DB	05cH
	DB	09fH
	DB	0efH
	DB	09fH
	DB	0efH
	DB	099H
	DB	05cH
	DB	016H
	DB	013H
	DB	0b9H
	DB	064H
	DB	0ffH
	DB	0ffH
	DB	0ffH
	DB	0ffH
	DB	03eH
	DB	0dfH
	DB	057H
	DB	013H
	DB	098H
	DB	01bH
	DB	0b8H
	DB	01bH
	DB	0b9H
	DB	01bH
	DB	0b8H
	DB	01bH
	DB	0b9H
	DB	01bH
	DB	0b8H
	DB	01bH
	DB	0b8H
	DB	013H
	DB	0b8H
	DB	01bH
	DB	0b9H
	DB	01bH
	DB	0b8H
	DB	013H
	DB	0b8H
	DB	01bH
	DB	059H
	DB	034H
	DB	03eH
	DB	0d7H
	DB	07fH
	DB	0e7H
	DB	09fH
	DB	0efH
	DB	0bfH
	DB	0f7H
	DB	0dfH
	DB	0f7H
	DB	0dfH
	DB	0ffH
	DB	0dfH
	DB	0ffH
	DB	0dfH
	DB	0ffH
	DB	0dfH
	DB	0ffH
	DB	0dfH
	DB	0ffH
	DB	0dfH
	DB	0ffH
	DB	0dfH
	DB	0ffH
	DB	0dfH
	DB	0ffH
	DB	0dfH
	DB	0ffH
	DB	0dfH
	DB	0ffH
	DB	0dfH
	DB	0ffH
	DB	0dfH
	DB	0ffH
	DB	0dfH
	DB	0ffH
	DB	0dfH
	DB	0ffH
	DB	0dfH
	DB	0ffH
	DB	0dfH
	DB	0ffH
	DB	0dfH
	DB	0ffH
	DB	0dfH
	DB	0ffH
	DB	0dfH
	DB	0ffH
	DB	0dfH
	DB	0ffH
	DB	0dfH
	DB	0ffH
	DB	0dfH
	DB	0ffH
	DB	0dfH
	DB	0f7H
	DB	0dfH
	DB	0ffH
	DB	0dfH
	DB	0ffH
	DB	0dfH
	DB	0f7H
	DB	0dfH
	DB	0ffH
	DB	0dfH
	DB	0ffH
	DB	0dfH
	DB	0f7H
	DB	0dfH
	DB	0ffH
	DB	0dfH
	DB	0ffH
	DB	0dfH
	DB	0f7H
	DB	0dfH
	DB	0ffH
	DB	0dfH
	DB	0ffH
	DB	0fbH
	DB	0a5H
	DB	0dfH
	DB	0f7H
	DB	0dfH
	DB	0f7H
	DB	0dfH
	DB	0ffH
	DB	0dfH
	DB	0f7H
	DB	0dfH
	DB	0ffH
	DB	0dfH
	DB	0f7H
	DB	0dfH
	DB	0f7H
	DB	0dfH
	DB	0ffH
	DB	0dfH
	DB	0f7H
	DB	0dfH
	DB	0ffH
	DB	0dfH
	DB	0f7H
	DB	0dfH
	DB	0ffH
	DB	0dfH
	DB	0f7H
	DB	0dfH
	DB	0ffH
	DB	0dfH
	DB	0f7H
	DB	0dfH
	DB	0ffH
	DB	0dfH
	DB	0f7H
	DB	0dfH
	DB	0f7H
	DB	0dfH
	DB	0ffH
	DB	0dfH
	DB	0f7H
	DB	0dfH
	DB	0f7H
	DB	0dfH
	DB	0ffH
	DB	0dfH
	DB	0f7H
	DB	0dfH
	DB	0ffH
	DB	0dfH
	DB	0f7H
	DB	0dfH
	DB	0f7H
	DB	0dfH
	DB	0ffH
	DB	0dfH
	DB	0f7H
	DB	0dfH
	DB	0f7H
	DB	0dfH
	DB	0f7H
	DB	0dfH
	DB	0f7H
	DB	0dfH
	DB	0ffH
	DB	0dfH
	DB	0f7H
	DB	0dfH
	DB	0f7H
	DB	0dfH
	DB	0ffH
	DB	0dfH
	DB	0f7H
	DB	0bfH
	DB	0f7H
	DB	09fH
	DB	0efH
	DB	07fH
	DB	0e7H
	DB	03eH
	DB	0d7H
	DB	0baH
	DB	054H
	DB	099H
	DB	01bH
	DB	099H
	DB	01bH
	DB	0b9H
	DB	013H
	DB	098H
	DB	01bH
	DB	0b9H
	DB	01bH
	DB	0b8H
	DB	01bH
	DB	0b8H
	DB	013H
	DB	0b9H
	DB	01bH
	DB	0b9H
	DB	01bH
	DB	098H
	DB	01bH
	DB	078H
	DB	013H
	DB	057H
	DB	013H
	DB	0dfH
	DB	0ffH
	DB	0ffH
	DB	0ffH
	DB	0ffH
	DB	0ffH
	DB	036H
	DB	023H
	DB	016H
	DB	013H
	DB	09fH
	DB	0efH
	DB	0ffH
	DB	0ffH
	DB	0ffH
	DB	0ffH
	DB	09fH
	DB	0efH
	DB	016H
	DB	013H
	DB	056H
	DB	023H
	DB	0ffH
	DB	0ffH
	DB	0ffH
	DB	0ffH
	DB	0dfH
	DB	0ffH
	DB	057H
	DB	013H
	DB	078H
	DB	013H
	DB	098H
	DB	01bH
	DB	0b8H
	DB	013H
	DB	0b9H
	DB	01bH
	DB	0b8H
	DB	01bH
	DB	0b9H
	DB	013H
	DB	099H
	DB	01bH
	DB	098H
	DB	01bH
	DB	0b9H
	DB	01bH
	DB	099H
	DB	01bH
	DB	098H
	DB	01bH
	DB	0baH
	DB	054H
	DB	03eH
	DB	0d7H
	DB	07fH
	DB	0e7H
	DB	09fH
	DB	0efH
	DB	0bfH
	DB	0f7H
	DB	0dfH
	DB	0f7H
	DB	0dfH
	DB	0ffH
	DB	0dfH
	DB	0f7H
	DB	0dfH
	DB	0f7H
	DB	0dfH
	DB	0f7H
	DB	0dfH
	DB	0f7H
	DB	0dfH
	DB	0f7H
	DB	0dfH
	DB	0f7H
	DB	0dfH
	DB	0f7H
	DB	0dfH
	DB	0f7H
	DB	0dfH
	DB	0f7H
	DB	0dfH
	DB	0ffH
	DB	0dfH
	DB	0f7H
	DB	0dfH
	DB	0f7H
	DB	0dfH
	DB	0f7H
	DB	0dfH
	DB	0f7H
	DB	0dfH
	DB	0f7H
	DB	0dfH
	DB	0f7H
	DB	0dfH
	DB	0f7H
	DB	0dfH
	DB	0f7H
	DB	0dfH
	DB	0f7H
	DB	0dfH
	DB	0ffH
	DB	0dfH
	DB	0f7H
	DB	0dfH
	DB	0f7H
	DB	0dfH
	DB	0ffH
	DB	0dfH
	DB	0f7H
	DB	0dfH
	DB	0ffH
	DB	0dfH
	DB	0f7H
	DB	0dfH
	DB	0f7H
	DB	0dfH
	DB	0ffH
	DB	0dfH
	DB	0f7H
	DB	0dfH
	DB	0f7H
	DB	0dfH
	DB	0ffH
	DB	0dfH
	DB	0f7H
	DB	0dfH
	DB	0f7H
	DB	0faH
	DB	0a5H
	DB	0dfH
	DB	0f7H
	DB	0dfH
	DB	0ffH
	DB	0dfH
	DB	0f7H
	DB	0dfH
	DB	0ffH
	DB	0dfH
	DB	0f7H
	DB	0dfH
	DB	0ffH
	DB	0dfH
	DB	0ffH
	DB	0dfH
	DB	0f7H
	DB	0dfH
	DB	0f7H
	DB	0dfH
	DB	0ffH
	DB	0dfH
	DB	0ffH
	DB	0dfH
	DB	0f7H
	DB	0dfH
	DB	0ffH
	DB	0dfH
	DB	0f7H
	DB	0dfH
	DB	0ffH
	DB	0dfH
	DB	0ffH
	DB	0dfH
	DB	0f7H
	DB	0dfH
	DB	0ffH
	DB	0dfH
	DB	0ffH
	DB	0dfH
	DB	0f7H
	DB	0dfH
	DB	0ffH
	DB	0dfH
	DB	0f7H
	DB	0dfH
	DB	0ffH
	DB	0dfH
	DB	0f7H
	DB	0dfH
	DB	0ffH
	DB	0dfH
	DB	0f7H
	DB	0dfH
	DB	0ffH
	DB	0dfH
	DB	0f7H
	DB	0dfH
	DB	0ffH
	DB	0dfH
	DB	0ffH
	DB	0dfH
	DB	0f7H
	DB	0dfH
	DB	0f7H
	DB	0dfH
	DB	0ffH
	DB	0dfH
	DB	0f7H
	DB	0dfH
	DB	0f7H
	DB	0dfH
	DB	0f7H
	DB	0bfH
	DB	0f7H
	DB	09fH
	DB	0efH
	DB	07fH
	DB	0dfH
	DB	03eH
	DB	0d7H
	DB	05bH
	DB	075H
	DB	098H
	DB	01bH
	DB	098H
	DB	01bH
	DB	098H
	DB	01bH
	DB	098H
	DB	013H
	DB	098H
	DB	01bH
	DB	099H
	DB	01bH
	DB	098H
	DB	01bH
	DB	098H
	DB	013H
	DB	099H
	DB	01bH
	DB	098H
	DB	013H
	DB	078H
	DB	01bH
	DB	037H
	DB	013H
	DB	0ffH
	DB	0ffH
	DB	0ffH
	DB	0ffH
	DB	0ffH
	DB	0ffH
	DB	037H
	DB	023H
	DB	016H
	DB	013H
	DB	09fH
	DB	0efH
	DB	0ffH
	DB	0ffH
	DB	0ffH
	DB	0ffH
	DB	09fH
	DB	0efH
	DB	016H
	DB	013H
	DB	036H
	DB	01bH
	DB	0ffH
	DB	0ffH
	DB	0ffH
	DB	0ffH
	DB	0dfH
	DB	0ffH
	DB	037H
	DB	013H
	DB	078H
	DB	01bH
	DB	098H
	DB	01bH
	DB	098H
	DB	013H
	DB	098H
	DB	01bH
	DB	098H
	DB	01bH
	DB	098H
	DB	01bH
	DB	099H
	DB	01bH
	DB	098H
	DB	013H
	DB	098H
	DB	01bH
	DB	098H
	DB	01bH
	DB	099H
	DB	01bH
	DB	05bH
	DB	075H
	DB	03eH
	DB	0d7H
	DB	07fH
	DB	0e7H
	DB	09fH
	DB	0efH
	DB	0bfH
	DB	0efH
	DB	0dfH
	DB	0f7H
	DB	0dfH
	DB	0ffH
	DB	0dfH
	DB	0f7H
	DB	0dfH
	DB	0ffH
	DB	0dfH
	DB	0ffH
	DB	0dfH
	DB	0f7H
	DB	0dfH
	DB	0ffH
	DB	0dfH
	DB	0ffH
	DB	0dfH
	DB	0ffH
	DB	0dfH
	DB	0f7H
	DB	0dfH
	DB	0ffH
	DB	0dfH
	DB	0f7H
	DB	0dfH
	DB	0ffH
	DB	0dfH
	DB	0ffH
	DB	0dfH
	DB	0f7H
	DB	0dfH
	DB	0ffH
	DB	0dfH
	DB	0ffH
	DB	0dfH
	DB	0ffH
	DB	0dfH
	DB	0f7H
	DB	0dfH
	DB	0ffH
	DB	0dfH
	DB	0f7H
	DB	0dfH
	DB	0f7H
	DB	0dfH
	DB	0ffH
	DB	0dfH
	DB	0ffH
	DB	0dfH
	DB	0f7H
	DB	0dfH
	DB	0ffH
	DB	0dfH
	DB	0f7H
	DB	0dfH
	DB	0ffH
	DB	0dfH
	DB	0ffH
	DB	0dfH
	DB	0f7H
	DB	0dfH
	DB	0ffH
	DB	0dfH
	DB	0f7H
	DB	0dfH
	DB	0ffH
	DB	0dfH
	DB	0ffH
	DB	0dfH
	DB	0f7H
	DB	0fbH
	DB	0a5H
	DB	0dfH
	DB	0f7H
	DB	0dfH
	DB	0f7H
	DB	0dfH
	DB	0ffH
	DB	0dfH
	DB	0f7H
	DB	0dfH
	DB	0f7H
	DB	0dfH
	DB	0f7H
	DB	0dfH
	DB	0ffH
	DB	0dfH
	DB	0f7H
	DB	0dfH
	DB	0f7H
	DB	0dfH
	DB	0f7H
	DB	0dfH
	DB	0f7H
	DB	0dfH
	DB	0f7H
	DB	0dfH
	DB	0f7H
	DB	0dfH
	DB	0f7H
	DB	0dfH
	DB	0f7H
	DB	0dfH
	DB	0f7H
	DB	0dfH
	DB	0f7H
	DB	0dfH
	DB	0f7H
	DB	0dfH
	DB	0f7H
	DB	0dfH
	DB	0f7H
	DB	0dfH
	DB	0f7H
	DB	0dfH
	DB	0ffH
	DB	0dfH
	DB	0f7H
	DB	0dfH
	DB	0f7H
	DB	0dfH
	DB	0f7H
	DB	0dfH
	DB	0ffH
	DB	0dfH
	DB	0f7H
	DB	0dfH
	DB	0f7H
	DB	0dfH
	DB	0f7H
	DB	0dfH
	DB	0ffH
	DB	0dfH
	DB	0f7H
	DB	0dfH
	DB	0f7H
	DB	0dfH
	DB	0ffH
	DB	0dfH
	DB	0ffH
	DB	0dfH
	DB	0f7H
	DB	0dfH
	DB	0f7H
	DB	0bfH
	DB	0f7H
	DB	09fH
	DB	0efH
	DB	05fH
	DB	0dfH
	DB	03eH
	DB	0d7H
	DB	03dH
	DB	09eH
	DB	098H
	DB	01bH
	DB	098H
	DB	013H
	DB	098H
	DB	01bH
	DB	099H
	DB	013H
	DB	098H
	DB	013H
	DB	098H
	DB	01bH
	DB	098H
	DB	013H
	DB	098H
	DB	01bH
	DB	098H
	DB	01bH
	DB	078H
	DB	013H
	DB	078H
	DB	01bH
	DB	037H
	DB	013H
	DB	03eH
	DB	0dfH
	DB	0ffH
	DB	0ffH
	DB	0ffH
	DB	0ffH
	DB	099H
	DB	05cH
	DB	0f6H
	DB	012H
	DB	099H
	DB	064H
	DB	09fH
	DB	0efH
	DB	07fH
	DB	0efH
	DB	079H
	DB	05cH
	DB	0f6H
	DB	012H
	DB	079H
	DB	064H
	DB	0ffH
	DB	0ffH
	DB	0ffH
	DB	0ffH
	DB	03eH
	DB	0dfH
	DB	037H
	DB	013H
	DB	078H
	DB	013H
	DB	078H
	DB	01bH
	DB	098H
	DB	01bH
	DB	098H
	DB	013H
	DB	099H
	DB	013H
	DB	098H
	DB	01bH
	DB	098H
	DB	013H
	DB	098H
	DB	013H
	DB	098H
	DB	013H
	DB	098H
	DB	013H
	DB	098H
	DB	01bH
	DB	03dH
	DB	09eH
	DB	03eH
	DB	0d7H
	DB	05fH
	DB	0e7H
	DB	09fH
	DB	0efH
	DB	0bfH
	DB	0f7H
	DB	0bfH
	DB	0f7H
	DB	0dfH
	DB	0f7H
	DB	0dfH
	DB	0f7H
	DB	0dfH
	DB	0ffH
	DB	0dfH
	DB	0f7H
	DB	0dfH
	DB	0f7H
	DB	0dfH
	DB	0ffH
	DB	0dfH
	DB	0f7H
	DB	0dfH
	DB	0f7H
	DB	0dfH
	DB	0ffH
	DB	0dfH
	DB	0f7H
	DB	0dfH
	DB	0f7H
	DB	0dfH
	DB	0f7H
	DB	0dfH
	DB	0f7H
	DB	0dfH
	DB	0ffH
	DB	0dfH
	DB	0f7H
	DB	0dfH
	DB	0f7H
	DB	0dfH
	DB	0f7H
	DB	0dfH
	DB	0ffH
	DB	0dfH
	DB	0ffH
	DB	0dfH
	DB	0f7H
	DB	0dfH
	DB	0f7H
	DB	0dfH
	DB	0ffH
	DB	0dfH
	DB	0f7H
	DB	0dfH
	DB	0f7H
	DB	0dfH
	DB	0f7H
	DB	0dfH
	DB	0f7H
	DB	0dfH
	DB	0f7H
	DB	0dfH
	DB	0f7H
	DB	0dfH
	DB	0f7H
	DB	0dfH
	DB	0ffH
	DB	0dfH
	DB	0f7H
	DB	0dfH
	DB	0f7H
	DB	0dfH
	DB	0f7H
	DB	0dfH
	DB	0ffH
	DB	01bH
	DB	0a6H
	DB	0bfH
	DB	0f7H
	DB	0bfH
	DB	0f7H
	DB	0dfH
	DB	0f7H
	DB	0bfH
	DB	0f7H
	DB	0dfH
	DB	0f7H
	DB	0dfH
	DB	0f7H
	DB	0bfH
	DB	0f7H
	DB	0dfH
	DB	0f7H
	DB	0dfH
	DB	0ffH
	DB	0bfH
	DB	0f7H
	DB	0dfH
	DB	0f7H
	DB	0dfH
	DB	0ffH
	DB	0bfH
	DB	0f7H
	DB	0dfH
	DB	0f7H
	DB	0dfH
	DB	0ffH
	DB	0bfH
	DB	0f7H
	DB	0dfH
	DB	0f7H
	DB	0dfH
	DB	0ffH
	DB	0bfH
	DB	0f7H
	DB	0dfH
	DB	0f7H
	DB	0dfH
	DB	0f7H
	DB	0bfH
	DB	0f7H
	DB	0dfH
	DB	0f7H
	DB	0dfH
	DB	0f7H
	DB	0bfH
	DB	0f7H
	DB	0dfH
	DB	0f7H
	DB	0dfH
	DB	0f7H
	DB	0bfH
	DB	0f7H
	DB	0dfH
	DB	0f7H
	DB	0dfH
	DB	0f7H
	DB	0bfH
	DB	0f7H
	DB	0dfH
	DB	0f7H
	DB	0dfH
	DB	0f7H
	DB	0bfH
	DB	0f7H
	DB	0dfH
	DB	0f7H
	DB	0bfH
	DB	0f7H
	DB	0bfH
	DB	0f7H
	DB	09fH
	DB	0efH
	DB	07fH
	DB	0e7H
	DB	03eH
	DB	0d7H
	DB	0feH
	DB	0c6H
	DB	0d9H
	DB	02bH
	DB	078H
	DB	01bH
	DB	078H
	DB	01bH
	DB	078H
	DB	01bH
	DB	078H
	DB	01bH
	DB	078H
	DB	013H
	DB	078H
	DB	01bH
	DB	078H
	DB	01bH
	DB	078H
	DB	013H
	DB	078H
	DB	01bH
	DB	058H
	DB	013H
	DB	037H
	DB	013H
	DB	0bbH
	DB	095H
	DB	0ffH
	DB	0ffH
	DB	0ffH
	DB	0ffH
	DB	03eH
	DB	0dfH
	DB	016H
	DB	023H
	DB	0d6H
	DB	012H
	DB	0f6H
	DB	012H
	DB	0f6H
	DB	012H
	DB	0d6H
	DB	012H
	DB	016H
	DB	023H
	DB	03eH
	DB	0dfH
	DB	0ffH
	DB	0ffH
	DB	0ffH
	DB	0ffH
	DB	0bbH
	DB	095H
	DB	037H
	DB	013H
	DB	058H
	DB	013H
	DB	078H
	DB	01bH
	DB	078H
	DB	01bH
	DB	078H
	DB	013H
	DB	078H
	DB	01bH
	DB	078H
	DB	01bH
	DB	078H
	DB	01bH
	DB	078H
	DB	01bH
	DB	078H
	DB	01bH
	DB	078H
	DB	01bH
	DB	0d9H
	DB	02bH
	DB	0feH
	DB	0c6H
	DB	03eH
	DB	0d7H
	DB	07fH
	DB	0dfH
	DB	09fH
	DB	0efH
	DB	0bfH
	DB	0efH
	DB	0bfH
	DB	0f7H
	DB	0dfH
	DB	0f7H
	DB	0bfH
	DB	0f7H
	DB	0bfH
	DB	0f7H
	DB	0dfH
	DB	0f7H
	DB	0bfH
	DB	0f7H
	DB	0bfH
	DB	0f7H
	DB	0dfH
	DB	0f7H
	DB	0bfH
	DB	0f7H
	DB	0bfH
	DB	0f7H
	DB	0dfH
	DB	0f7H
	DB	0bfH
	DB	0f7H
	DB	0dfH
	DB	0f7H
	DB	0bfH
	DB	0f7H
	DB	0dfH
	DB	0f7H
	DB	0dfH
	DB	0f7H
	DB	0bfH
	DB	0f7H
	DB	0dfH
	DB	0f7H
	DB	0dfH
	DB	0f7H
	DB	0bfH
	DB	0f7H
	DB	0dfH
	DB	0f7H
	DB	0dfH
	DB	0f7H
	DB	0bfH
	DB	0f7H
	DB	0dfH
	DB	0f7H
	DB	0dfH
	DB	0f7H
	DB	0bfH
	DB	0ffH
	DB	0dfH
	DB	0f7H
	DB	0dfH
	DB	0f7H
	DB	0bfH
	DB	0f7H
	DB	0dfH
	DB	0f7H
	DB	0dfH
	DB	0f7H
	DB	0bfH
	DB	0f7H
	DB	0dfH
	DB	0f7H
	DB	0dfH
	DB	0f7H
	DB	0bfH
	DB	0f7H
	DB	0faH
	DB	0a5H
	DB	0bfH
	DB	0f7H
	DB	0dfH
	DB	0f7H
	DB	0bfH
	DB	0f7H
	DB	0bfH
	DB	0f7H
	DB	0dfH
	DB	0ffH
	DB	0bfH
	DB	0f7H
	DB	0bfH
	DB	0f7H
	DB	0dfH
	DB	0f7H
	DB	0bfH
	DB	0f7H
	DB	0bfH
	DB	0f7H
	DB	0dfH
	DB	0f7H
	DB	0bfH
	DB	0f7H
	DB	0bfH
	DB	0f7H
	DB	0dfH
	DB	0f7H
	DB	0bfH
	DB	0f7H
	DB	0bfH
	DB	0f7H
	DB	0dfH
	DB	0f7H
	DB	0bfH
	DB	0f7H
	DB	0bfH
	DB	0f7H
	DB	0dfH
	DB	0f7H
	DB	0bfH
	DB	0ffH
	DB	0bfH
	DB	0f7H
	DB	0dfH
	DB	0f7H
	DB	0bfH
	DB	0ffH
	DB	0bfH
	DB	0f7H
	DB	0bfH
	DB	0f7H
	DB	0dfH
	DB	0f7H
	DB	0bfH
	DB	0ffH
	DB	0bfH
	DB	0f7H
	DB	0dfH
	DB	0f7H
	DB	0bfH
	DB	0f7H
	DB	0bfH
	DB	0f7H
	DB	0dfH
	DB	0f7H
	DB	0bfH
	DB	0f7H
	DB	0bfH
	DB	0f7H
	DB	0bfH
	DB	0f7H
	DB	0bfH
	DB	0efH
	DB	09fH
	DB	0efH
	DB	07fH
	DB	0e7H
	DB	03eH
	DB	0d7H
	DB	0feH
	DB	0ceH
	DB	0fbH
	DB	064H
	DB	078H
	DB	01bH
	DB	078H
	DB	013H
	DB	078H
	DB	01bH
	DB	078H
	DB	01bH
	DB	078H
	DB	013H
	DB	078H
	DB	01bH
	DB	078H
	DB	01bH
	DB	078H
	DB	013H
	DB	058H
	DB	01bH
	DB	058H
	DB	01bH
	DB	037H
	DB	013H
	DB	097H
	DB	033H
	DB	0dfH
	DB	0ffH
	DB	0ffH
	DB	0ffH
	DB	0ffH
	DB	0ffH
	DB	05eH
	DB	0e7H
	DB	079H
	DB	05cH
	DB	016H
	DB	01bH
	DB	016H
	DB	01bH
	DB	079H
	DB	064H
	DB	03eH
	DB	0dfH
	DB	0ffH
	DB	0ffH
	DB	0ffH
	DB	0ffH
	DB	0dfH
	DB	0ffH
	DB	098H
	DB	02bH
	DB	037H
	DB	013H
	DB	058H
	DB	01bH
	DB	058H
	DB	013H
	DB	078H
	DB	01bH
	DB	078H
	DB	01bH
	DB	078H
	DB	013H
	DB	078H
	DB	01bH
	DB	078H
	DB	013H
	DB	078H
	DB	01bH
	DB	079H
	DB	01bH
	DB	078H
	DB	013H
	DB	0fbH
	DB	064H
	DB	0feH
	DB	0ceH
	DB	03eH
	DB	0d7H
	DB	07fH
	DB	0e7H
	DB	09fH
	DB	0efH
	DB	0bfH
	DB	0efH
	DB	0bfH
	DB	0f7H
	DB	0dfH
	DB	0f7H
	DB	0bfH
	DB	0f7H
	DB	0dfH
	DB	0f7H
	DB	0dfH
	DB	0f7H
	DB	0bfH
	DB	0f7H
	DB	0dfH
	DB	0f7H
	DB	0bfH
	DB	0f7H
	DB	0dfH
	DB	0f7H
	DB	0bfH
	DB	0f7H
	DB	0bfH
	DB	0f7H
	DB	0dfH
	DB	0ffH
	DB	0bfH
	DB	0f7H
	DB	0bfH
	DB	0f7H
	DB	0dfH
	DB	0f7H
	DB	0bfH
	DB	0f7H
	DB	0bfH
	DB	0ffH
	DB	0dfH
	DB	0f7H
	DB	0bfH
	DB	0f7H
	DB	0bfH
	DB	0f7H
	DB	0dfH
	DB	0f7H
	DB	0bfH
	DB	0f7H
	DB	0bfH
	DB	0f7H
	DB	0dfH
	DB	0f7H
	DB	0bfH
	DB	0f7H
	DB	0bfH
	DB	0f7H
	DB	0dfH
	DB	0f7H
	DB	0bfH
	DB	0ffH
	DB	0bfH
	DB	0f7H
	DB	0dfH
	DB	0f7H
	DB	0bfH
	DB	0f7H
	DB	0bfH
	DB	0ffH
	DB	0dfH
	DB	0f7H
	DB	0bfH
	DB	0f7H
	DB	0bfH
	DB	0f7H
	DB	01bH
	DB	0a6H
	DB	0bfH
	DB	0f7H
	DB	0bfH
	DB	0f7H
	DB	0bfH
	DB	0f7H
	DB	0bfH
	DB	0f7H
	DB	0bfH
	DB	0f7H
	DB	0bfH
	DB	0f7H
	DB	0bfH
	DB	0f7H
	DB	0bfH
	DB	0f7H
	DB	0bfH
	DB	0f7H
	DB	0bfH
	DB	0f7H
	DB	0bfH
	DB	0f7H
	DB	0bfH
	DB	0f7H
	DB	0bfH
	DB	0f7H
	DB	0bfH
	DB	0f7H
	DB	0bfH
	DB	0f7H
	DB	0bfH
	DB	0f7H
	DB	0bfH
	DB	0f7H
	DB	0bfH
	DB	0f7H
	DB	0bfH
	DB	0f7H
	DB	0bfH
	DB	0f7H
	DB	0bfH
	DB	0f7H
	DB	0bfH
	DB	0f7H
	DB	0bfH
	DB	0f7H
	DB	0bfH
	DB	0f7H
	DB	0bfH
	DB	0f7H
	DB	0bfH
	DB	0f7H
	DB	0bfH
	DB	0f7H
	DB	0bfH
	DB	0f7H
	DB	0bfH
	DB	0f7H
	DB	0bfH
	DB	0f7H
	DB	0bfH
	DB	0f7H
	DB	0bfH
	DB	0f7H
	DB	0bfH
	DB	0f7H
	DB	0bfH
	DB	0f7H
	DB	0bfH
	DB	0f7H
	DB	0bfH
	DB	0f7H
	DB	0bfH
	DB	0efH
	DB	09fH
	DB	0efH
	DB	07eH
	DB	0e7H
	DB	03eH
	DB	0dfH
	DB	01eH
	DB	0cfH
	DB	07dH
	DB	0aeH
	DB	078H
	DB	01bH
	DB	058H
	DB	013H
	DB	078H
	DB	013H
	DB	058H
	DB	013H
	DB	058H
	DB	013H
	DB	058H
	DB	01bH
	DB	058H
	DB	013H
	DB	058H
	DB	013H
	DB	058H
	DB	01bH
	DB	058H
	DB	013H
	DB	037H
	DB	013H
	DB	017H
	DB	013H
	DB	0baH
	DB	064H
	DB	0ffH
	DB	0ffH
	DB	0ffH
	DB	0ffH
	DB	0ffH
	DB	0ffH
	DB	0ffH
	DB	0ffH
	DB	0ffH
	DB	0ffH
	DB	0ffH
	DB	0ffH
	DB	0ffH
	DB	0ffH
	DB	0ffH
	DB	0ffH
	DB	0ffH
	DB	0ffH
	DB	0ffH
	DB	0ffH
	DB	0baH
	DB	064H
	DB	017H
	DB	013H
	DB	037H
	DB	01bH
	DB	058H
	DB	01bH
	DB	058H
	DB	013H
	DB	058H
	DB	013H
	DB	058H
	DB	01bH
	DB	058H
	DB	013H
	DB	058H
	DB	013H
	DB	058H
	DB	013H
	DB	078H
	DB	013H
	DB	078H
	DB	013H
	DB	078H
	DB	01bH
	DB	07dH
	DB	0aeH
	DB	01eH
	DB	0cfH
	DB	05eH
	DB	0dfH
	DB	07fH
	DB	0e7H
	DB	09fH
	DB	0efH
	DB	0bfH
	DB	0f7H
	DB	0bfH
	DB	0f7H
	DB	0bfH
	DB	0f7H
	DB	0bfH
	DB	0f7H
	DB	0bfH
	DB	0f7H
	DB	0bfH
	DB	0f7H
	DB	0bfH
	DB	0f7H
	DB	0bfH
	DB	0f7H
	DB	0bfH
	DB	0f7H
	DB	0bfH
	DB	0f7H
	DB	0bfH
	DB	0f7H
	DB	0bfH
	DB	0f7H
	DB	0bfH
	DB	0f7H
	DB	0bfH
	DB	0f7H
	DB	0bfH
	DB	0f7H
	DB	0bfH
	DB	0f7H
	DB	0bfH
	DB	0f7H
	DB	0bfH
	DB	0f7H
	DB	0bfH
	DB	0f7H
	DB	0bfH
	DB	0f7H
	DB	0bfH
	DB	0f7H
	DB	0bfH
	DB	0f7H
	DB	0bfH
	DB	0f7H
	DB	0bfH
	DB	0f7H
	DB	0bfH
	DB	0f7H
	DB	0bfH
	DB	0f7H
	DB	0bfH
	DB	0f7H
	DB	0bfH
	DB	0f7H
	DB	0bfH
	DB	0f7H
	DB	0bfH
	DB	0f7H
	DB	0bfH
	DB	0f7H
	DB	0bfH
	DB	0f7H
	DB	0bfH
	DB	0f7H
	DB	0bfH
	DB	0f7H
	DB	0bfH
	DB	0f7H
	DB	0bfH
	DB	0f7H
	DB	01bH
	DB	0aeH
	DB	0bfH
	DB	0f7H
	DB	0bfH
	DB	0f7H
	DB	0bfH
	DB	0f7H
	DB	0bfH
	DB	0f7H
	DB	0bfH
	DB	0f7H
	DB	0bfH
	DB	0f7H
	DB	0bfH
	DB	0f7H
	DB	0bfH
	DB	0f7H
	DB	0bfH
	DB	0f7H
	DB	0bfH
	DB	0f7H
	DB	0bfH
	DB	0f7H
	DB	0bfH
	DB	0f7H
	DB	0bfH
	DB	0f7H
	DB	0bfH
	DB	0f7H
	DB	0bfH
	DB	0f7H
	DB	0bfH
	DB	0f7H
	DB	0bfH
	DB	0f7H
	DB	0bfH
	DB	0f7H
	DB	0bfH
	DB	0f7H
	DB	0bfH
	DB	0f7H
	DB	0bfH
	DB	0f7H
	DB	0bfH
	DB	0f7H
	DB	0bfH
	DB	0f7H
	DB	0bfH
	DB	0f7H
	DB	0bfH
	DB	0f7H
	DB	0bfH
	DB	0f7H
	DB	0bfH
	DB	0f7H
	DB	0bfH
	DB	0f7H
	DB	0bfH
	DB	0f7H
	DB	0bfH
	DB	0f7H
	DB	0bfH
	DB	0f7H
	DB	0bfH
	DB	0f7H
	DB	0bfH
	DB	0f7H
	DB	0bfH
	DB	0f7H
	DB	0bfH
	DB	0f7H
	DB	0bfH
	DB	0f7H
	DB	0bfH
	DB	0f7H
	DB	09fH
	DB	0efH
	DB	07fH
	DB	0e7H
	DB	05eH
	DB	0dfH
	DB	01eH
	DB	0cfH
	DB	0deH
	DB	0c6H
	DB	0baH
	DB	05cH
	DB	058H
	DB	01bH
	DB	058H
	DB	013H
	DB	058H
	DB	01bH
	DB	058H
	DB	01bH
	DB	058H
	DB	013H
	DB	058H
	DB	01bH
	DB	058H
	DB	013H
	DB	038H
	DB	01bH
	DB	038H
	DB	013H
	DB	037H
	DB	013H
	DB	017H
	DB	013H
	DB	0f7H
	DB	012H
	DB	099H
	DB	064H
	DB	0dfH
	DB	0ffH
	DB	0ffH
	DB	0ffH
	DB	0ffH
	DB	0ffH
	DB	0ffH
	DB	0ffH
	DB	0ffH
	DB	0ffH
	DB	0ffH
	DB	0ffH
	DB	0ffH
	DB	0ffH
	DB	0dfH
	DB	0ffH
	DB	0daH
	DB	06cH
	DB	0f6H
	DB	012H
	DB	017H
	DB	013H
	DB	037H
	DB	013H
	DB	038H
	DB	013H
	DB	038H
	DB	01bH
	DB	058H
	DB	01bH
	DB	058H
	DB	013H
	DB	058H
	DB	01bH
	DB	058H
	DB	01bH
	DB	058H
	DB	01bH
	DB	058H
	DB	01bH
	DB	058H
	DB	01bH
	DB	0baH
	DB	05cH
	DB	0deH
	DB	0c6H
	DB	01eH
	DB	0cfH
	DB	05eH
	DB	0dfH
	DB	07fH
	DB	0e7H
	DB	09fH
	DB	0efH
	DB	0bfH
	DB	0efH
	DB	0bfH
	DB	0f7H
	DB	0bfH
	DB	0f7H
	DB	0bfH
	DB	0f7H
	DB	0bfH
	DB	0f7H
	DB	0bfH
	DB	0f7H
	DB	0bfH
	DB	0f7H
	DB	0bfH
	DB	0f7H
	DB	0bfH
	DB	0f7H
	DB	0bfH
	DB	0f7H
	DB	0bfH
	DB	0f7H
	DB	0bfH
	DB	0f7H
	DB	0bfH
	DB	0f7H
	DB	0bfH
	DB	0f7H
	DB	0bfH
	DB	0f7H
	DB	0bfH
	DB	0f7H
	DB	0bfH
	DB	0f7H
	DB	0bfH
	DB	0f7H
	DB	0bfH
	DB	0f7H
	DB	0bfH
	DB	0f7H
	DB	0bfH
	DB	0f7H
	DB	0bfH
	DB	0f7H
	DB	0bfH
	DB	0f7H
	DB	0bfH
	DB	0f7H
	DB	0bfH
	DB	0f7H
	DB	0bfH
	DB	0f7H
	DB	0bfH
	DB	0f7H
	DB	0bfH
	DB	0f7H
	DB	0bfH
	DB	0f7H
	DB	0bfH
	DB	0f7H
	DB	0bfH
	DB	0f7H
	DB	0bfH
	DB	0f7H
	DB	0bfH
	DB	0f7H
	DB	0bfH
	DB	0f7H
	DB	0bfH
	DB	0f7H
	DB	0bfH
	DB	0f7H
	DB	01bH
	DB	0a6H
	DB	0bfH
	DB	0f7H
	DB	0bfH
	DB	0f7H
	DB	0bfH
	DB	0efH
	DB	0bfH
	DB	0f7H
	DB	0bfH
	DB	0f7H
	DB	0bfH
	DB	0efH
	DB	0bfH
	DB	0f7H
	DB	0bfH
	DB	0f7H
	DB	0bfH
	DB	0efH
	DB	0bfH
	DB	0f7H
	DB	0bfH
	DB	0f7H
	DB	0bfH
	DB	0f7H
	DB	0bfH
	DB	0f7H
	DB	0bfH
	DB	0efH
	DB	0bfH
	DB	0f7H
	DB	0bfH
	DB	0f7H
	DB	0bfH
	DB	0f7H
	DB	0bfH
	DB	0efH
	DB	0bfH
	DB	0f7H
	DB	0bfH
	DB	0f7H
	DB	0bfH
	DB	0efH
	DB	0bfH
	DB	0f7H
	DB	0bfH
	DB	0f7H
	DB	0bfH
	DB	0efH
	DB	0bfH
	DB	0f7H
	DB	0bfH
	DB	0f7H
	DB	0bfH
	DB	0efH
	DB	0bfH
	DB	0f7H
	DB	0bfH
	DB	0f7H
	DB	0bfH
	DB	0f7H
	DB	0bfH
	DB	0f7H
	DB	0bfH
	DB	0f7H
	DB	0bfH
	DB	0f7H
	DB	0bfH
	DB	0f7H
	DB	0bfH
	DB	0efH
	DB	0bfH
	DB	0f7H
	DB	09fH
	DB	0efH
	DB	09fH
	DB	0efH
	DB	07fH
	DB	0e7H
	DB	05eH
	DB	0dfH
	DB	01eH
	DB	0d7H
	DB	0feH
	DB	0c6H
	DB	07dH
	DB	0aeH
	DB	078H
	DB	023H
	DB	058H
	DB	01bH
	DB	038H
	DB	013H
	DB	038H
	DB	01bH
	DB	038H
	DB	013H
	DB	038H
	DB	013H
	DB	038H
	DB	01bH
	DB	038H
	DB	013H
	DB	037H
	DB	01bH
	DB	037H
	DB	01bH
	DB	017H
	DB	013H
	DB	017H
	DB	013H
	DB	0f7H
	DB	012H
	DB	057H
	DB	02bH
	DB	07bH
	DB	08dH
	DB	01eH
	DB	0dfH
	DB	0ffH
	DB	0ffH
	DB	0dfH
	DB	0ffH
	DB	01eH
	DB	0d7H
	DB	07bH
	DB	08dH
	DB	057H
	DB	02bH
	DB	0f6H
	DB	012H
	DB	017H
	DB	013H
	DB	017H
	DB	01bH
	DB	038H
	DB	013H
	DB	037H
	DB	013H
	DB	038H
	DB	01bH
	DB	038H
	DB	013H
	DB	038H
	DB	013H
	DB	038H
	DB	013H
	DB	038H
	DB	01bH
	DB	038H
	DB	013H
	DB	038H
	DB	013H
	DB	078H
	DB	023H
	DB	07dH
	DB	0aeH
	DB	0feH
	DB	0c6H
	DB	01eH
	DB	0d7H
	DB	05eH
	DB	0dfH
	DB	07fH
	DB	0e7H
	DB	09fH
	DB	0efH
	DB	09fH
	DB	0efH
	DB	0bfH
	DB	0f7H
	DB	0bfH
	DB	0f7H
	DB	0bfH
	DB	0efH
	DB	0bfH
	DB	0f7H
	DB	0bfH
	DB	0f7H
	DB	0bfH
	DB	0f7H
	DB	0bfH
	DB	0f7H
	DB	0bfH
	DB	0f7H
	DB	0bfH
	DB	0f7H
	DB	0bfH
	DB	0f7H
	DB	0bfH
	DB	0efH
	DB	0bfH
	DB	0f7H
	DB	0bfH
	DB	0f7H
	DB	0bfH
	DB	0f7H
	DB	0bfH
	DB	0efH
	DB	0bfH
	DB	0f7H
	DB	0bfH
	DB	0f7H
	DB	0bfH
	DB	0efH
	DB	0bfH
	DB	0f7H
	DB	0bfH
	DB	0f7H
	DB	0bfH
	DB	0f7H
	DB	0bfH
	DB	0f7H
	DB	0bfH
	DB	0f7H
	DB	0bfH
	DB	0f7H
	DB	0bfH
	DB	0f7H
	DB	0bfH
	DB	0efH
	DB	0bfH
	DB	0f7H
	DB	0bfH
	DB	0f7H
	DB	0bfH
	DB	0efH
	DB	0bfH
	DB	0f7H
	DB	0bfH
	DB	0f7H
	DB	0bfH
	DB	0efH
	DB	0bfH
	DB	0f7H
	DB	0bfH
	DB	0f7H
	DB	0bfH
	DB	0efH
	DB	01bH
	DB	0aeH
	DB	0bfH
	DB	0efH
	DB	0bfH
	DB	0efH
	DB	0bfH
	DB	0efH
	DB	0bfH
	DB	0f7H
	DB	0bfH
	DB	0efH
	DB	0bfH
	DB	0efH
	DB	0bfH
	DB	0efH
	DB	0bfH
	DB	0f7H
	DB	0bfH
	DB	0efH
	DB	0bfH
	DB	0efH
	DB	0bfH
	DB	0efH
	DB	0bfH
	DB	0efH
	DB	0bfH
	DB	0efH
	DB	0bfH
	DB	0f7H
	DB	0bfH
	DB	0efH
	DB	0bfH
	DB	0efH
	DB	0bfH
	DB	0efH
	DB	0bfH
	DB	0f7H
	DB	0bfH
	DB	0efH
	DB	0bfH
	DB	0efH
	DB	0bfH
	DB	0efH
	DB	0bfH
	DB	0efH
	DB	0bfH
	DB	0efH
	DB	0bfH
	DB	0efH
	DB	0bfH
	DB	0efH
	DB	0bfH
	DB	0efH
	DB	0bfH
	DB	0efH
	DB	0bfH
	DB	0efH
	DB	0bfH
	DB	0efH
	DB	0bfH
	DB	0efH
	DB	0bfH
	DB	0efH
	DB	0bfH
	DB	0efH
	DB	0bfH
	DB	0efH
	DB	0bfH
	DB	0efH
	DB	0bfH
	DB	0f7H
	DB	0bfH
	DB	0efH
	DB	09fH
	DB	0efH
	DB	09fH
	DB	0efH
	DB	09fH
	DB	0e7H
	DB	05eH
	DB	0e7H
	DB	03eH
	DB	0d7H
	DB	0feH
	DB	0ceH
	DB	0deH
	DB	0beH
	DB	07bH
	DB	07dH
	DB	038H
	DB	013H
	DB	038H
	DB	013H
	DB	038H
	DB	013H
	DB	037H
	DB	01bH
	DB	038H
	DB	013H
	DB	037H
	DB	013H
	DB	038H
	DB	013H
	DB	018H
	DB	013H
	DB	018H
	DB	01bH
	DB	017H
	DB	01bH
	DB	017H
	DB	013H
	DB	0f7H
	DB	012H
	DB	0f7H
	DB	012H
	DB	0d6H
	DB	012H
	DB	0d6H
	DB	012H
	DB	0b6H
	DB	012H
	DB	0b6H
	DB	012H
	DB	0d6H
	DB	012H
	DB	0d6H
	DB	012H
	DB	0f7H
	DB	012H
	DB	0f7H
	DB	012H
	DB	017H
	DB	013H
	DB	018H
	DB	01bH
	DB	017H
	DB	01bH
	DB	037H
	DB	013H
	DB	018H
	DB	013H
	DB	037H
	DB	01bH
	DB	037H
	DB	013H
	DB	038H
	DB	013H
	DB	037H
	DB	013H
	DB	038H
	DB	013H
	DB	038H
	DB	013H
	DB	07bH
	DB	07dH
	DB	0deH
	DB	0beH
	DB	0feH
	DB	0ceH
	DB	03eH
	DB	0d7H
	DB	05fH
	DB	0e7H
	DB	09fH
	DB	0e7H
	DB	09fH
	DB	0efH
	DB	09fH
	DB	0efH
	DB	0bfH
	DB	0f7H
	DB	0bfH
	DB	0efH
	DB	0bfH
	DB	0efH
	DB	0bfH
	DB	0efH
	DB	0bfH
	DB	0efH
	DB	0bfH
	DB	0efH
	DB	0bfH
	DB	0efH
	DB	0bfH
	DB	0efH
	DB	0bfH
	DB	0efH
	DB	0bfH
	DB	0efH
	DB	0bfH
	DB	0f7H
	DB	0bfH
	DB	0efH
	DB	0bfH
	DB	0efH
	DB	0bfH
	DB	0efH
	DB	0bfH
	DB	0efH
	DB	0bfH
	DB	0f7H
	DB	0bfH
	DB	0efH
	DB	0bfH
	DB	0efH
	DB	0bfH
	DB	0efH
	DB	0bfH
	DB	0efH
	DB	0bfH
	DB	0efH
	DB	0bfH
	DB	0efH
	DB	0bfH
	DB	0efH
	DB	0bfH
	DB	0efH
	DB	0bfH
	DB	0efH
	DB	0bfH
	DB	0f7H
	DB	0bfH
	DB	0efH
	DB	0bfH
	DB	0efH
	DB	0bfH
	DB	0efH
	DB	0bfH
	DB	0f7H
	DB	0bfH
	DB	0efH
	DB	0bfH
	DB	0efH
	DB	0bfH
	DB	0efH
	DB	0bfH
	DB	0f7H
	DB	0bfH
	DB	0efH
	DB	01bH
	DB	0aeH
	DB	09fH
	DB	0efH
	DB	09fH
	DB	0efH
	DB	09fH
	DB	0f7H
	DB	09fH
	DB	0efH
	DB	09fH
	DB	0efH
	DB	09fH
	DB	0f7H
	DB	0bfH
	DB	0efH
	DB	09fH
	DB	0efH
	DB	09fH
	DB	0f7H
	DB	09fH
	DB	0efH
	DB	09fH
	DB	0efH
	DB	09fH
	DB	0f7H
	DB	0bfH
	DB	0efH
	DB	09fH
	DB	0efH
	DB	09fH
	DB	0f7H
	DB	09fH
	DB	0efH
	DB	09fH
	DB	0efH
	DB	0bfH
	DB	0f7H
	DB	09fH
	DB	0efH
	DB	09fH
	DB	0efH
	DB	09fH
	DB	0f7H
	DB	09fH
	DB	0f7H
	DB	09fH
	DB	0efH
	DB	0bfH
	DB	0f7H
	DB	09fH
	DB	0f7H
	DB	09fH
	DB	0efH
	DB	09fH
	DB	0f7H
	DB	09fH
	DB	0f7H
	DB	09fH
	DB	0efH
	DB	09fH
	DB	0efH
	DB	09fH
	DB	0f7H
	DB	09fH
	DB	0efH
	DB	09fH
	DB	0efH
	DB	09fH
	DB	0f7H
	DB	0bfH
	DB	0efH
	DB	09fH
	DB	0efH
	DB	09fH
	DB	0efH
	DB	09fH
	DB	0efH
	DB	09fH
	DB	0efH
	DB	07fH
	DB	0e7H
	DB	05eH
	DB	0dfH
	DB	01eH
	DB	0cfH
	DB	0deH
	DB	0c6H
	DB	0bdH
	DB	0beH
	DB	07aH
	DB	054H
	DB	038H
	DB	013H
	DB	037H
	DB	01bH
	DB	017H
	DB	013H
	DB	018H
	DB	01bH
	DB	017H
	DB	013H
	DB	017H
	DB	01bH
	DB	018H
	DB	013H
	DB	017H
	DB	013H
	DB	017H
	DB	013H
	DB	018H
	DB	013H
	DB	0f7H
	DB	01aH
	DB	0f7H
	DB	012H
	DB	0f7H
	DB	012H
	DB	0f7H
	DB	012H
	DB	0f7H
	DB	012H
	DB	0d7H
	DB	012H
	DB	0f7H
	DB	012H
	DB	0f7H
	DB	012H
	DB	0f7H
	DB	012H
	DB	0f7H
	DB	012H
	DB	017H
	DB	013H
	DB	018H
	DB	013H
	DB	018H
	DB	013H
	DB	017H
	DB	013H
	DB	018H
	DB	01bH
	DB	017H
	DB	013H
	DB	017H
	DB	01bH
	DB	038H
	DB	01bH
	DB	037H
	DB	013H
	DB	038H
	DB	01bH
	DB	07aH
	DB	054H
	DB	0bdH
	DB	0beH
	DB	0deH
	DB	0c6H
	DB	01eH
	DB	0d7H
	DB	05eH
	DB	0dfH
	DB	07eH
	DB	0e7H
	DB	07fH
	DB	0efH
	DB	09fH
	DB	0efH
	DB	09fH
	DB	0efH
	DB	09fH
	DB	0efH
	DB	09fH
	DB	0f7H
	DB	09fH
	DB	0efH
	DB	09fH
	DB	0f7H
	DB	09fH
	DB	0efH
	DB	09fH
	DB	0efH
	DB	09fH
	DB	0f7H
	DB	09fH
	DB	0efH
	DB	09fH
	DB	0efH
	DB	09fH
	DB	0f7H
	DB	0bfH
	DB	0efH
	DB	09fH
	DB	0efH
	DB	09fH
	DB	0f7H
	DB	0bfH
	DB	0efH
	DB	09fH
	DB	0efH
	DB	09fH
	DB	0f7H
	DB	09fH
	DB	0efH
	DB	09fH
	DB	0efH
	DB	0bfH
	DB	0f7H
	DB	09fH
	DB	0efH
	DB	09fH
	DB	0efH
	DB	09fH
	DB	0f7H
	DB	09fH
	DB	0efH
	DB	0bfH
	DB	0efH
	DB	09fH
	DB	0f7H
	DB	09fH
	DB	0efH
	DB	09fH
	DB	0efH
	DB	09fH
	DB	0f7H
	DB	09fH
	DB	0efH
	DB	09fH
	DB	0efH
	DB	09fH
	DB	0f7H
	DB	09fH
	DB	0efH
	DB	09fH
	DB	0efH
	DB	09fH
	DB	0efH
	DB	09fH
	DB	0efH
	DB	01bH
	DB	0aeH
	DB	09fH
	DB	0efH
	DB	09fH
	DB	0efH
	DB	09fH
	DB	0efH
	DB	09fH
	DB	0efH
	DB	09fH
	DB	0efH
	DB	09fH
	DB	0f7H
	DB	09fH
	DB	0efH
	DB	09fH
	DB	0efH
	DB	09fH
	DB	0efH
	DB	09fH
	DB	0f7H
	DB	09fH
	DB	0efH
	DB	09fH
	DB	0efH
	DB	09fH
	DB	0efH
	DB	09fH
	DB	0efH
	DB	09fH
	DB	0efH
	DB	09fH
	DB	0efH
	DB	09fH
	DB	0efH
	DB	09fH
	DB	0efH
	DB	09fH
	DB	0efH
	DB	09fH
	DB	0efH
	DB	09fH
	DB	0f7H
	DB	09fH
	DB	0efH
	DB	09fH
	DB	0efH
	DB	09fH
	DB	0efH
	DB	09fH
	DB	0efH
	DB	09fH
	DB	0efH
	DB	0bfH
	DB	0efH
	DB	09fH
	DB	0efH
	DB	09fH
	DB	0efH
	DB	0bfH
	DB	0f7H
	DB	09fH
	DB	0efH
	DB	09fH
	DB	0efH
	DB	09fH
	DB	0efH
	DB	09fH
	DB	0efH
	DB	09fH
	DB	0efH
	DB	09fH
	DB	0f7H
	DB	09fH
	DB	0efH
	DB	09fH
	DB	0efH
	DB	09fH
	DB	0efH
	DB	07eH
	DB	0e7H
	DB	05eH
	DB	0dfH
	DB	03eH
	DB	0d7H
	DB	0feH
	DB	0ceH
	DB	0bdH
	DB	0beH
	DB	07dH
	DB	0b6H
	DB	019H
	DB	044H
	DB	017H
	DB	013H
	DB	018H
	DB	013H
	DB	017H
	DB	013H
	DB	017H
	DB	013H
	DB	017H
	DB	013H
	DB	017H
	DB	013H
	DB	018H
	DB	013H
	DB	017H
	DB	013H
	DB	0f7H
	DB	012H
	DB	0f7H
	DB	01aH
	DB	0f7H
	DB	012H
	DB	0f7H
	DB	012H
	DB	0f7H
	DB	012H
	DB	0f7H
	DB	012H
	DB	0f7H
	DB	012H
	DB	0f7H
	DB	012H
	DB	0f7H
	DB	01aH
	DB	0f7H
	DB	012H
	DB	0f7H
	DB	01aH
	DB	017H
	DB	013H
	DB	0f7H
	DB	012H
	DB	017H
	DB	013H
	DB	018H
	DB	013H
	DB	017H
	DB	013H
	DB	017H
	DB	013H
	DB	018H
	DB	013H
	DB	018H
	DB	013H
	DB	017H
	DB	01bH
	DB	019H
	DB	044H
	DB	07dH
	DB	0b6H
	DB	0ddH
	DB	0beH
	DB	0feH
	DB	0ceH
	DB	03eH
	DB	0d7H
	DB	05eH
	DB	0dfH
	DB	07fH
	DB	0e7H
	DB	09fH
	DB	0efH
	DB	09eH
	DB	0efH
	DB	09fH
	DB	0efH
	DB	09fH
	DB	0efH
	DB	09fH
	DB	0efH
	DB	09fH
	DB	0efH
	DB	09fH
	DB	0f7H
	DB	09fH
	DB	0efH
	DB	09fH
	DB	0efH
	DB	09fH
	DB	0f7H
	DB	09fH
	DB	0efH
	DB	09fH
	DB	0efH
	DB	09fH
	DB	0efH
	DB	09fH
	DB	0efH
	DB	09fH
	DB	0efH
	DB	09fH
	DB	0f7H
	DB	09fH
	DB	0efH
	DB	09fH
	DB	0efH
	DB	09fH
	DB	0efH
	DB	09fH
	DB	0efH
	DB	09fH
	DB	0f7H
	DB	09fH
	DB	0efH
	DB	09fH
	DB	0efH
	DB	09fH
	DB	0f7H
	DB	09fH
	DB	0efH
	DB	09fH
	DB	0efH
	DB	09fH
	DB	0efH
	DB	09fH
	DB	0efH
	DB	09fH
	DB	0efH
	DB	09fH
	DB	0efH
	DB	0bfH
	DB	0f7H
	DB	09fH
	DB	0efH
	DB	09fH
	DB	0efH
	DB	0bfH
	DB	0efH
	DB	09fH
	DB	0f7H
	DB	09fH
	DB	0efH
	DB	09fH
	DB	0efH
	DB	09fH
	DB	0f7H
	DB	01bH
	DB	0aeH
	DB	09fH
	DB	0efH
	DB	09fH
	DB	0efH
	DB	09eH
	DB	0efH
	DB	09fH
	DB	0efH
	DB	09fH
	DB	0efH
	DB	09eH
	DB	0efH
	DB	09fH
	DB	0efH
	DB	09fH
	DB	0efH
	DB	09fH
	DB	0efH
	DB	09fH
	DB	0efH
	DB	09fH
	DB	0efH
	DB	09fH
	DB	0efH
	DB	09fH
	DB	0efH
	DB	09fH
	DB	0efH
	DB	09fH
	DB	0efH
	DB	09fH
	DB	0efH
	DB	09fH
	DB	0efH
	DB	09fH
	DB	0efH
	DB	09fH
	DB	0efH
	DB	09fH
	DB	0efH
	DB	09fH
	DB	0efH
	DB	09fH
	DB	0efH
	DB	09fH
	DB	0efH
	DB	09fH
	DB	0efH
	DB	09fH
	DB	0efH
	DB	09fH
	DB	0efH
	DB	09fH
	DB	0efH
	DB	09fH
	DB	0efH
	DB	09fH
	DB	0efH
	DB	09fH
	DB	0efH
	DB	09fH
	DB	0efH
	DB	09fH
	DB	0efH
	DB	09fH
	DB	0efH
	DB	09fH
	DB	0efH
	DB	09fH
	DB	0efH
	DB	09fH
	DB	0efH
	DB	09eH
	DB	0efH
	DB	09fH
	DB	0efH
	DB	09fH
	DB	0efH
	DB	07fH
	DB	0e7H
	DB	05eH
	DB	0e7H
	DB	03eH
	DB	0dfH
	DB	01eH
	DB	0cfH
	DB	0feH
	DB	0c6H
	DB	0bdH
	DB	0beH
	DB	05dH
	DB	0aeH
	DB	0f9H
	DB	043H
	DB	017H
	DB	013H
	DB	018H
	DB	013H
	DB	0f8H
	DB	01aH
	DB	0f7H
	DB	012H
	DB	0f7H
	DB	01aH
	DB	0f7H
	DB	01aH
	DB	0f8H
	DB	012H
	DB	0f7H
	DB	012H
	DB	0f7H
	DB	012H
	DB	0f7H
	DB	01aH
	DB	0f7H
	DB	012H
	DB	0f7H
	DB	01aH
	DB	0f7H
	DB	012H
	DB	0f7H
	DB	012H
	DB	0f7H
	DB	01aH
	DB	0f7H
	DB	012H
	DB	0f7H
	DB	012H
	DB	0f8H
	DB	012H
	DB	0f7H
	DB	01aH
	DB	0f7H
	DB	01aH
	DB	0f7H
	DB	012H
	DB	0f7H
	DB	01aH
	DB	0f7H
	DB	012H
	DB	018H
	DB	013H
	DB	0f7H
	DB	012H
	DB	017H
	DB	013H
	DB	0f9H
	DB	043H
	DB	05dH
	DB	0aeH
	DB	0bdH
	DB	0beH
	DB	0feH
	DB	0c6H
	DB	01eH
	DB	0cfH
	DB	03eH
	DB	0dfH
	DB	05eH
	DB	0dfH
	DB	07fH
	DB	0e7H
	DB	09fH
	DB	0efH
	DB	09eH
	DB	0efH
	DB	09fH
	DB	0efH
	DB	09eH
	DB	0efH
	DB	09eH
	DB	0efH
	DB	09fH
	DB	0efH
	DB	09eH
	DB	0efH
	DB	09fH
	DB	0efH
	DB	09eH
	DB	0efH
	DB	09fH
	DB	0efH
	DB	09fH
	DB	0efH
	DB	09eH
	DB	0efH
	DB	09fH
	DB	0efH
	DB	09fH
	DB	0efH
	DB	09fH
	DB	0efH
	DB	09fH
	DB	0efH
	DB	09fH
	DB	0efH
	DB	09fH
	DB	0efH
	DB	09fH
	DB	0efH
	DB	09fH
	DB	0efH
	DB	09fH
	DB	0efH
	DB	09fH
	DB	0efH
	DB	09fH
	DB	0efH
	DB	09fH
	DB	0efH
	DB	09fH
	DB	0efH
	DB	09fH
	DB	0efH
	DB	09fH
	DB	0efH
	DB	09fH
	DB	0efH
	DB	09fH
	DB	0efH
	DB	09fH
	DB	0efH
	DB	09fH
	DB	0efH
	DB	09fH
	DB	0efH
	DB	09fH
	DB	0efH
	DB	09fH
	DB	0efH
	DB	09fH
	DB	0efH
	DB	09fH
	DB	0efH
	DB	09fH
	DB	0efH
	DB	09fH
	DB	0efH
	DB	03bH
	DB	0aeH
	DB	09fH
	DB	0efH
	DB	09fH
	DB	0efH
	DB	09eH
	DB	0efH
	DB	09fH
	DB	0efH
	DB	09fH
	DB	0efH
	DB	09fH
	DB	0efH
	DB	09eH
	DB	0efH
	DB	09fH
	DB	0efH
	DB	09eH
	DB	0efH
	DB	09fH
	DB	0efH
	DB	09eH
	DB	0efH
	DB	09fH
	DB	0efH
	DB	09fH
	DB	0efH
	DB	09eH
	DB	0efH
	DB	09fH
	DB	0efH
	DB	09fH
	DB	0efH
	DB	09eH
	DB	0efH
	DB	09fH
	DB	0efH
	DB	09fH
	DB	0efH
	DB	09fH
	DB	0efH
	DB	09fH
	DB	0efH
	DB	09fH
	DB	0efH
	DB	09fH
	DB	0efH
	DB	09fH
	DB	0efH
	DB	09fH
	DB	0efH
	DB	09fH
	DB	0efH
	DB	09fH
	DB	0efH
	DB	09fH
	DB	0efH
	DB	09fH
	DB	0efH
	DB	09fH
	DB	0efH
	DB	09eH
	DB	0efH
	DB	09fH
	DB	0efH
	DB	09fH
	DB	0efH
	DB	09eH
	DB	0efH
	DB	09fH
	DB	0efH
	DB	09fH
	DB	0efH
	DB	09fH
	DB	0efH
	DB	09eH
	DB	0efH
	DB	09fH
	DB	0efH
	DB	07fH
	DB	0e7H
	DB	07fH
	DB	0e7H
	DB	05eH
	DB	0dfH
	DB	03eH
	DB	0d7H
	DB	01eH
	DB	0cfH
	DB	0deH
	DB	0c6H
	DB	0bdH
	DB	0b6H
	DB	07dH
	DB	0aeH
	DB	05aH
	DB	054H
	DB	0f7H
	DB	012H
	DB	0f7H
	DB	012H
	DB	0f7H
	DB	012H
	DB	0f8H
	DB	012H
	DB	0f7H
	DB	012H
	DB	0f7H
	DB	012H
	DB	0f7H
	DB	012H
	DB	0f7H
	DB	012H
	DB	0f8H
	DB	012H
	DB	0d7H
	DB	012H
	DB	0d7H
	DB	012H
	DB	0f7H
	DB	012H
	DB	0d7H
	DB	012H
	DB	0d7H
	DB	012H
	DB	0f7H
	DB	012H
	DB	0f7H
	DB	012H
	DB	0d7H
	DB	012H
	DB	0f7H
	DB	012H
	DB	0f7H
	DB	012H
	DB	0f8H
	DB	012H
	DB	0f7H
	DB	012H
	DB	0f7H
	DB	01aH
	DB	0f7H
	DB	012H
	DB	0f7H
	DB	01aH
	DB	05aH
	DB	054H
	DB	07dH
	DB	0aeH
	DB	0bdH
	DB	0b6H
	DB	0deH
	DB	0beH
	DB	0feH
	DB	0ceH
	DB	03eH
	DB	0d7H
	DB	05eH
	DB	0dfH
	DB	07fH
	DB	0e7H
	DB	07fH
	DB	0e7H
	DB	09eH
	DB	0efH
	DB	09fH
	DB	0efH
	DB	09fH
	DB	0efH
	DB	09fH
	DB	0efH
	DB	09fH
	DB	0efH
	DB	09fH
	DB	0efH
	DB	09fH
	DB	0efH
	DB	09fH
	DB	0efH
	DB	09fH
	DB	0efH
	DB	09eH
	DB	0efH
	DB	09fH
	DB	0efH
	DB	09fH
	DB	0efH
	DB	09eH
	DB	0efH
	DB	09fH
	DB	0efH
	DB	09eH
	DB	0efH
	DB	09fH
	DB	0efH
	DB	09eH
	DB	0efH
	DB	09fH
	DB	0efH
	DB	09fH
	DB	0efH
	DB	09eH
	DB	0efH
	DB	09fH
	DB	0efH
	DB	09fH
	DB	0efH
	DB	09eH
	DB	0efH
	DB	09fH
	DB	0efH
	DB	09fH
	DB	0efH
	DB	09eH
	DB	0efH
	DB	09fH
	DB	0efH
	DB	09fH
	DB	0efH
	DB	09fH
	DB	0efH
	DB	09eH
	DB	0efH
	DB	09fH
	DB	0efH
	DB	09fH
	DB	0efH
	DB	09fH
	DB	0efH
	DB	09eH
	DB	0efH
	DB	09fH
	DB	0efH
	DB	09fH
	DB	0efH
	DB	09eH
	DB	0efH
	DB	09fH
	DB	0efH
	DB	03bH
	DB	0aeH
	DB	09eH
	DB	0efH
	DB	09fH
	DB	0efH
	DB	09fH
	DB	0efH
	DB	09eH
	DB	0efH
	DB	09fH
	DB	0efH
	DB	09eH
	DB	0efH
	DB	09fH
	DB	0efH
	DB	09fH
	DB	0efH
	DB	09eH
	DB	0efH
	DB	09fH
	DB	0efH
	DB	09eH
	DB	0efH
	DB	09eH
	DB	0efH
	DB	09fH
	DB	0efH
	DB	09eH
	DB	0efH
	DB	09eH
	DB	0efH
	DB	09fH
	DB	0efH
	DB	09eH
	DB	0efH
	DB	09eH
	DB	0efH
	DB	09fH
	DB	0efH
	DB	09eH
	DB	0efH
	DB	09eH
	DB	0efH
	DB	09eH
	DB	0efH
	DB	09eH
	DB	0efH
	DB	09eH
	DB	0efH
	DB	09eH
	DB	0efH
	DB	09eH
	DB	0efH
	DB	09eH
	DB	0efH
	DB	09eH
	DB	0efH
	DB	09eH
	DB	0efH
	DB	09fH
	DB	0efH
	DB	09eH
	DB	0efH
	DB	09fH
	DB	0efH
	DB	09eH
	DB	0efH
	DB	09eH
	DB	0efH
	DB	09fH
	DB	0efH
	DB	09eH
	DB	0efH
	DB	09fH
	DB	0efH
	DB	09eH
	DB	0efH
	DB	07eH
	DB	0e7H
	DB	07fH
	DB	0e7H
	DB	07eH
	DB	0e7H
	DB	05eH
	DB	0e7H
	DB	05eH
	DB	0dfH
	DB	01eH
	DB	0d7H
	DB	0feH
	DB	0ceH
	DB	0bdH
	DB	0beH
	DB	09dH
	DB	0b6H
	DB	07dH
	DB	0aeH
	DB	03bH
	DB	075H
	DB	038H
	DB	023H
	DB	0d7H
	DB	012H
	DB	0f7H
	DB	012H
	DB	0d7H
	DB	012H
	DB	0d7H
	DB	012H
	DB	0d7H
	DB	012H
	DB	0d7H
	DB	012H
	DB	0d7H
	DB	012H
	DB	0d7H
	DB	012H
	DB	0d7H
	DB	012H
	DB	0d7H
	DB	012H
	DB	0d7H
	DB	012H
	DB	0d7H
	DB	012H
	DB	0d7H
	DB	012H
	DB	0d7H
	DB	012H
	DB	0d7H
	DB	012H
	DB	0d7H
	DB	012H
	DB	0d7H
	DB	012H
	DB	0d7H
	DB	012H
	DB	0d7H
	DB	012H
	DB	0f7H
	DB	012H
	DB	038H
	DB	023H
	DB	01bH
	DB	075H
	DB	07dH
	DB	0aeH
	DB	09dH
	DB	0b6H
	DB	0bdH
	DB	0beH
	DB	0feH
	DB	0ceH
	DB	01eH
	DB	0d7H
	DB	03eH
	DB	0dfH
	DB	05eH
	DB	0e7H
	DB	07fH
	DB	0e7H
	DB	07fH
	DB	0efH
	DB	09eH
	DB	0efH
	DB	09fH
	DB	0efH
	DB	09fH
	DB	0efH
	DB	09eH
	DB	0efH
	DB	09eH
	DB	0efH
	DB	09fH
	DB	0efH
	DB	09eH
	DB	0efH
	DB	09eH
	DB	0efH
	DB	09fH
	DB	0efH
	DB	09eH
	DB	0efH
	DB	09fH
	DB	0efH
	DB	09fH
	DB	0efH
	DB	09eH
	DB	0efH
	DB	09fH
	DB	0efH
	DB	09fH
	DB	0efH
	DB	09eH
	DB	0efH
	DB	09eH
	DB	0efH
	DB	09fH
	DB	0efH
	DB	09eH
	DB	0efH
	DB	09eH
	DB	0efH
	DB	09fH
	DB	0efH
	DB	09eH
	DB	0efH
	DB	09eH
	DB	0efH
	DB	09fH
	DB	0efH
	DB	09eH
	DB	0efH
	DB	09eH
	DB	0efH
	DB	09fH
	DB	0efH
	DB	09eH
	DB	0efH
	DB	09eH
	DB	0efH
	DB	09fH
	DB	0efH
	DB	09eH
	DB	0efH
	DB	09eH
	DB	0efH
	DB	09fH
	DB	0efH
	DB	09eH
	DB	0efH
	DB	09fH
	DB	0efH
	DB	09eH
	DB	0efH
	DB	09eH
	DB	0efH
	DB	09fH
	DB	0efH
	DB	03bH
	DB	0aeH
	DB	07fH
	DB	0e7H
	DB	09eH
	DB	0e7H
	DB	09fH
	DB	0efH
	DB	07fH
	DB	0e7H
	DB	09eH
	DB	0e7H
	DB	09fH
	DB	0efH
	DB	09fH
	DB	0e7H
	DB	09eH
	DB	0e7H
	DB	09fH
	DB	0e7H
	DB	09fH
	DB	0e7H
	DB	09fH
	DB	0efH
	DB	09fH
	DB	0e7H
	DB	09fH
	DB	0e7H
	DB	07fH
	DB	0efH
	DB	09fH
	DB	0e7H
	DB	09fH
	DB	0efH
	DB	09fH
	DB	0e7H
	DB	09fH
	DB	0efH
	DB	07eH
	DB	0e7H
	DB	09fH
	DB	0e7H
	DB	09fH
	DB	0efH
	DB	09fH
	DB	0e7H
	DB	09fH
	DB	0e7H
	DB	07fH
	DB	0e7H
	DB	09fH
	DB	0efH
	DB	09fH
	DB	0e7H
	DB	07fH
	DB	0e7H
	DB	09fH
	DB	0efH
	DB	07fH
	DB	0e7H
	DB	09eH
	DB	0e7H
	DB	09fH
	DB	0e7H
	DB	07fH
	DB	0efH
	DB	09fH
	DB	0e7H
	DB	09fH
	DB	0e7H
	DB	07fH
	DB	0efH
	DB	09eH
	DB	0e7H
	DB	09fH
	DB	0e7H
	DB	07fH
	DB	0efH
	DB	09fH
	DB	0efH
	DB	07fH
	DB	0e7H
	DB	07eH
	DB	0e7H
	DB	07fH
	DB	0e7H
	DB	05eH
	DB	0dfH
	DB	03eH
	DB	0d7H
	DB	01eH
	DB	0cfH
	DB	0feH
	DB	0c6H
	DB	0bdH
	DB	0beH
	DB	09dH
	DB	0b6H
	DB	07dH
	DB	0aeH
	DB	01cH
	DB	09eH
	DB	039H
	DB	04cH
	DB	0f7H
	DB	01aH
	DB	0d7H
	DB	012H
	DB	0d7H
	DB	012H
	DB	0d7H
	DB	01aH
	DB	0d7H
	DB	012H
	DB	0d7H
	DB	012H
	DB	0d7H
	DB	01aH
	DB	0d7H
	DB	012H
	DB	0d7H
	DB	012H
	DB	0d7H
	DB	01aH
	DB	0d7H
	DB	012H
	DB	0d7H
	DB	012H
	DB	0d7H
	DB	01aH
	DB	0d7H
	DB	012H
	DB	0d7H
	DB	012H
	DB	0d7H
	DB	012H
	DB	0d7H
	DB	012H
	DB	0f7H
	DB	01aH
	DB	03aH
	DB	04cH
	DB	01cH
	DB	09eH
	DB	07dH
	DB	0aeH
	DB	09dH
	DB	0b6H
	DB	0ddH
	DB	0beH
	DB	0feH
	DB	0c6H
	DB	01eH
	DB	0d7H
	DB	03eH
	DB	0d7H
	DB	05eH
	DB	0dfH
	DB	07eH
	DB	0e7H
	DB	07fH
	DB	0e7H
	DB	07eH
	DB	0e7H
	DB	07fH
	DB	0e7H
	DB	07eH
	DB	0e7H
	DB	09fH
	DB	0e7H
	DB	07fH
	DB	0e7H
	DB	09eH
	DB	0e7H
	DB	09fH
	DB	0e7H
	DB	07fH
	DB	0e7H
	DB	09eH
	DB	0e7H
	DB	09fH
	DB	0e7H
	DB	09fH
	DB	0e7H
	DB	09eH
	DB	0efH
	DB	09fH
	DB	0e7H
	DB	09fH
	DB	0e7H
	DB	07eH
	DB	0efH
	DB	09fH
	DB	0e7H
	DB	09fH
	DB	0e7H
	DB	07fH
	DB	0efH
	DB	09fH
	DB	0e7H
	DB	09fH
	DB	0e7H
	DB	09fH
	DB	0efH
	DB	07fH
	DB	0e7H
	DB	09fH
	DB	0e7H
	DB	09fH
	DB	0e7H
	DB	09fH
	DB	0e7H
	DB	07fH
	DB	0efH
	DB	09fH
	DB	0e7H
	DB	09fH
	DB	0e7H
	DB	07fH
	DB	0efH
	DB	09fH
	DB	0e7H
	DB	09fH
	DB	0e7H
	DB	07fH
	DB	0efH
	DB	09fH
	DB	0e7H
	DB	09eH
	DB	0e7H
	DB	07fH
	DB	0e7H
	DB	09fH
	DB	0e7H
	DB	09fH
	DB	0e7H
	DB	07fH
	DB	0efH
	DB	09eH
	DB	0e7H
	DB	03bH
	DB	0aeH
	DB	07eH
	DB	0e7H
	DB	07eH
	DB	0e7H
	DB	07eH
	DB	0efH
	DB	07fH
	DB	0e7H
	DB	07eH
	DB	0e7H
	DB	07eH
	DB	0e7H
	DB	07eH
	DB	0efH
	DB	07eH
	DB	0e7H
	DB	07fH
	DB	0e7H
	DB	07eH
	DB	0efH
	DB	07eH
	DB	0e7H
	DB	07eH
	DB	0e7H
	DB	07eH
	DB	0e7H
	DB	07eH
	DB	0e7H
	DB	07eH
	DB	0efH
	DB	07eH
	DB	0e7H
	DB	07fH
	DB	0e7H
	DB	07eH
	DB	0e7H
	DB	07eH
	DB	0efH
	DB	07fH
	DB	0e7H
	DB	07eH
	DB	0e7H
	DB	07eH
	DB	0e7H
	DB	07fH
	DB	0e7H
	DB	07eH
	DB	0efH
	DB	07eH
	DB	0e7H
	DB	07fH
	DB	0e7H
	DB	07eH
	DB	0e7H
	DB	07eH
	DB	0e7H
	DB	07fH
	DB	0efH
	DB	07eH
	DB	0e7H
	DB	07eH
	DB	0e7H
	DB	07eH
	DB	0e7H
	DB	07eH
	DB	0e7H
	DB	07fH
	DB	0e7H
	DB	07eH
	DB	0efH
	DB	07eH
	DB	0e7H
	DB	07fH
	DB	0e7H
	DB	07eH
	DB	0e7H
	DB	07eH
	DB	0e7H
	DB	07fH
	DB	0efH
	DB	07fH
	DB	0e7H
	DB	07eH
	DB	0e7H
	DB	05fH
	DB	0e7H
	DB	05eH
	DB	0dfH
	DB	03eH
	DB	0d7H
	DB	01eH
	DB	0d7H
	DB	0feH
	DB	0ceH
	DB	0ddH
	DB	0beH
	DB	09dH
	DB	0b6H
	DB	07dH
	DB	0b6H
	DB	05dH
	DB	0aeH
	DB	0fcH
	DB	095H
	DB	07aH
	DB	054H
	DB	018H
	DB	023H
	DB	0d7H
	DB	012H
	DB	0b7H
	DB	012H
	DB	0b7H
	DB	012H
	DB	0d7H
	DB	012H
	DB	0b7H
	DB	012H
	DB	0b7H
	DB	012H
	DB	0b7H
	DB	012H
	DB	0b7H
	DB	012H
	DB	0b7H
	DB	012H
	DB	0d7H
	DB	012H
	DB	0b7H
	DB	012H
	DB	0d7H
	DB	012H
	DB	038H
	DB	023H
	DB	05aH
	DB	05cH
	DB	0fcH
	DB	095H
	DB	05dH
	DB	0aeH
	DB	07dH
	DB	0aeH
	DB	09dH
	DB	0b6H
	DB	0ddH
	DB	0beH
	DB	0deH
	DB	0ceH
	DB	01eH
	DB	0cfH
	DB	03eH
	DB	0d7H
	DB	05eH
	DB	0dfH
	DB	05eH
	DB	0dfH
	DB	07fH
	DB	0e7H
	DB	07eH
	DB	0e7H
	DB	07eH
	DB	0e7H
	DB	07fH
	DB	0e7H
	DB	07eH
	DB	0efH
	DB	07eH
	DB	0e7H
	DB	07fH
	DB	0e7H
	DB	07eH
	DB	0efH
	DB	07eH
	DB	0e7H
	DB	07fH
	DB	0efH
	DB	07eH
	DB	0efH
	DB	07eH
	DB	0e7H
	DB	07fH
	DB	0e7H
	DB	07eH
	DB	0e7H
	DB	07eH
	DB	0e7H
	DB	07eH
	DB	0e7H
	DB	07eH
	DB	0efH
	DB	07eH
	DB	0e7H
	DB	07eH
	DB	0e7H
	DB	07eH
	DB	0e7H
	DB	07eH
	DB	0e7H
	DB	07eH
	DB	0e7H
	DB	07eH
	DB	0e7H
	DB	07eH
	DB	0efH
	DB	07eH
	DB	0e7H
	DB	07eH
	DB	0e7H
	DB	07eH
	DB	0efH
	DB	07eH
	DB	0e7H
	DB	07eH
	DB	0e7H
	DB	07eH
	DB	0e7H
	DB	07eH
	DB	0efH
	DB	07eH
	DB	0e7H
	DB	07eH
	DB	0e7H
	DB	07eH
	DB	0e7H
	DB	07fH
	DB	0efH
	DB	07eH
	DB	0e7H
	DB	07eH
	DB	0efH
	DB	07eH
	DB	0e7H
	DB	07fH
	DB	0e7H
	DB	07eH
	DB	0efH
	DB	07eH
	DB	0e7H
	DB	03bH
	DB	0b6H
	DB	07fH
	DB	0e7H
	DB	07fH
	DB	0e7H
	DB	07eH
	DB	0e7H
	DB	07fH
	DB	0e7H
	DB	07fH
	DB	0e7H
	DB	07eH
	DB	0e7H
	DB	07fH
	DB	0e7H
	DB	07fH
	DB	0efH
	DB	07eH
	DB	0e7H
	DB	07fH
	DB	0e7H
	DB	07eH
	DB	0e7H
	DB	07fH
	DB	0efH
	DB	07fH
	DB	0e7H
	DB	07eH
	DB	0e7H
	DB	07fH
	DB	0e7H
	DB	07eH
	DB	0e7H
	DB	07eH
	DB	0e7H
	DB	07fH
	DB	0e7H
	DB	07fH
	DB	0e7H
	DB	07eH
	DB	0efH
	DB	07eH
	DB	0e7H
	DB	07fH
	DB	0e7H
	DB	07eH
	DB	0efH
	DB	07eH
	DB	0e7H
	DB	07fH
	DB	0e7H
	DB	07eH
	DB	0efH
	DB	07eH
	DB	0e7H
	DB	07fH
	DB	0e7H
	DB	07eH
	DB	0e7H
	DB	07fH
	DB	0efH
	DB	07fH
	DB	0e7H
	DB	07eH
	DB	0efH
	DB	07fH
	DB	0e7H
	DB	07eH
	DB	0e7H
	DB	07fH
	DB	0e7H
	DB	07fH
	DB	0e7H
	DB	07eH
	DB	0e7H
	DB	07eH
	DB	0e7H
	DB	07fH
	DB	0e7H
	DB	07eH
	DB	0e7H
	DB	07eH
	DB	0e7H
	DB	07eH
	DB	0e7H
	DB	05eH
	DB	0e7H
	DB	05eH
	DB	0dfH
	DB	03eH
	DB	0dfH
	DB	03eH
	DB	0d7H
	DB	01eH
	DB	0cfH
	DB	0feH
	DB	0ceH
	DB	0bdH
	DB	0c6H
	DB	0bdH
	DB	0b6H
	DB	09dH
	DB	0b6H
	DB	07dH
	DB	0aeH
	DB	05dH
	DB	0aeH
	DB	03cH
	DB	0a6H
	DB	07bH
	DB	085H
	DB	09aH
	DB	05cH
	DB	0d9H
	DB	043H
	DB	058H
	DB	02bH
	DB	0f7H
	DB	01aH
	DB	0d7H
	DB	01aH
	DB	0d7H
	DB	012H
	DB	0f7H
	DB	01aH
	DB	058H
	DB	02bH
	DB	0d9H
	DB	043H
	DB	09aH
	DB	05cH
	DB	07bH
	DB	085H
	DB	03dH
	DB	0a6H
	DB	05dH
	DB	0a6H
	DB	07dH
	DB	0aeH
	DB	09dH
	DB	0b6H
	DB	09dH
	DB	0beH
	DB	0ddH
	DB	0beH
	DB	0feH
	DB	0ceH
	DB	01eH
	DB	0cfH
	DB	03eH
	DB	0d7H
	DB	03eH
	DB	0dfH
	DB	05eH
	DB	0e7H
	DB	07fH
	DB	0e7H
	DB	07eH
	DB	0e7H
	DB	07fH
	DB	0e7H
	DB	07fH
	DB	0e7H
	DB	07eH
	DB	0e7H
	DB	07fH
	DB	0efH
	DB	07fH
	DB	0e7H
	DB	07eH
	DB	0e7H
	DB	07fH
	DB	0efH
	DB	07fH
	DB	0e7H
	DB	07eH
	DB	0e7H
	DB	07fH
	DB	0e7H
	DB	07fH
	DB	0e7H
	DB	07eH
	DB	0efH
	DB	07fH
	DB	0e7H
	DB	07fH
	DB	0e7H
	DB	07fH
	DB	0efH
	DB	07fH
	DB	0e7H
	DB	07fH
	DB	0e7H
	DB	07fH
	DB	0efH
	DB	07eH
	DB	0e7H
	DB	07fH
	DB	0efH
	DB	07fH
	DB	0e7H
	DB	07eH
	DB	0e7H
	DB	07fH
	DB	0e7H
	DB	07fH
	DB	0efH
	DB	07eH
	DB	0e7H
	DB	07fH
	DB	0e7H
	DB	07fH
	DB	0e7H
	DB	07eH
	DB	0e7H
	DB	07fH
	DB	0efH
	DB	07fH
	DB	0e7H
	DB	07eH
	DB	0e7H
	DB	07fH
	DB	0e7H
	DB	07eH
	DB	0e7H
	DB	07fH
	DB	0e7H
	DB	07fH
	DB	0e7H
	DB	07eH
	DB	0efH
	DB	07fH
	DB	0e7H
	DB	07eH
	DB	0e7H
	DB	07fH
	DB	0e7H
	DB	07fH
	DB	0e7H
	DB	03bH
	DB	0b6H
	DB	07eH
	DB	0e7H
	DB	07eH
	DB	0e7H
	DB	07eH
	DB	0e7H
	DB	07eH
	DB	0e7H
	DB	07eH
	DB	0e7H
	DB	07fH
	DB	0e7H
	DB	07eH
	DB	0e7H
	DB	07eH
	DB	0e7H
	DB	07eH
	DB	0e7H
	DB	07fH
	DB	0e7H
	DB	07eH
	DB	0e7H
	DB	07eH
	DB	0e7H
	DB	07fH
	DB	0e7H
	DB	07eH
	DB	0e7H
	DB	07fH
	DB	0e7H
	DB	07eH
	DB	0e7H
	DB	07eH
	DB	0e7H
	DB	07fH
	DB	0e7H
	DB	07eH
	DB	0e7H
	DB	07eH
	DB	0e7H
	DB	07fH
	DB	0e7H
	DB	07eH
	DB	0e7H
	DB	07eH
	DB	0e7H
	DB	07fH
	DB	0e7H
	DB	07eH
	DB	0e7H
	DB	07eH
	DB	0e7H
	DB	07fH
	DB	0e7H
	DB	07eH
	DB	0e7H
	DB	07eH
	DB	0e7H
	DB	07fH
	DB	0e7H
	DB	07eH
	DB	0e7H
	DB	07eH
	DB	0e7H
	DB	07fH
	DB	0e7H
	DB	07eH
	DB	0e7H
	DB	07eH
	DB	0e7H
	DB	07eH
	DB	0e7H
	DB	07eH
	DB	0e7H
	DB	07fH
	DB	0e7H
	DB	07eH
	DB	0e7H
	DB	07eH
	DB	0e7H
	DB	07fH
	DB	0e7H
	DB	07fH
	DB	0e7H
	DB	05eH
	DB	0e7H
	DB	05eH
	DB	0e7H
	DB	05eH
	DB	0dfH
	DB	03eH
	DB	0dfH
	DB	01eH
	DB	0d7H
	DB	01eH
	DB	0cfH
	DB	0feH
	DB	0ceH
	DB	0ddH
	DB	0c6H
	DB	0bdH
	DB	0beH
	DB	09dH
	DB	0b6H
	DB	07dH
	DB	0b6H
	DB	07dH
	DB	0aeH
	DB	05dH
	DB	0aeH
	DB	05dH
	DB	0a6H
	DB	05cH
	DB	0a6H
	DB	03dH
	DB	0a6H
	DB	03dH
	DB	0a6H
	DB	03dH
	DB	0a6H
	DB	03dH
	DB	0a6H
	DB	03dH
	DB	0a6H
	DB	03cH
	DB	0a6H
	DB	05dH
	DB	0a6H
	DB	05dH
	DB	0a6H
	DB	05dH
	DB	0aeH
	DB	07dH
	DB	0aeH
	DB	07dH
	DB	0b6H
	DB	09dH
	DB	0b6H
	DB	0bdH
	DB	0beH
	DB	0ddH
	DB	0c6H
	DB	0feH
	DB	0ceH
	DB	01eH
	DB	0cfH
	DB	01eH
	DB	0d7H
	DB	03eH
	DB	0dfH
	DB	05eH
	DB	0dfH
	DB	05eH
	DB	0e7H
	DB	05eH
	DB	0e7H
	DB	07eH
	DB	0e7H
	DB	07eH
	DB	0e7H
	DB	07eH
	DB	0e7H
	DB	07eH
	DB	0e7H
	DB	07eH
	DB	0e7H
	DB	07eH
	DB	0e7H
	DB	07eH
	DB	0e7H
	DB	07eH
	DB	0e7H
	DB	07eH
	DB	0e7H
	DB	07eH
	DB	0e7H
	DB	07eH
	DB	0e7H
	DB	07eH
	DB	0e7H
	DB	07eH
	DB	0e7H
	DB	07eH
	DB	0e7H
	DB	07eH
	DB	0e7H
	DB	07eH
	DB	0e7H
	DB	07eH
	DB	0e7H
	DB	07eH
	DB	0e7H
	DB	07fH
	DB	0e7H
	DB	07eH
	DB	0e7H
	DB	07eH
	DB	0e7H
	DB	07fH
	DB	0e7H
	DB	07eH
	DB	0e7H
	DB	07eH
	DB	0e7H
	DB	07fH
	DB	0e7H
	DB	07eH
	DB	0e7H
	DB	07eH
	DB	0e7H
	DB	07fH
	DB	0e7H
	DB	07eH
	DB	0e7H
	DB	07eH
	DB	0e7H
	DB	07fH
	DB	0e7H
	DB	07eH
	DB	0e7H
	DB	07eH
	DB	0e7H
	DB	07fH
	DB	0e7H
	DB	07eH
	DB	0e7H
	DB	07eH
	DB	0e7H
	DB	07fH
	DB	0e7H
	DB	07eH
	DB	0e7H
	DB	07eH
	DB	0e7H
	DB	07eH
	DB	0e7H
	DB	07fH
	DB	0e7H
	DB	03bH
	DB	0b6H
	DB	05eH
	DB	0e7H
	DB	05fH
	DB	0e7H
	DB	05fH
	DB	0e7H
	DB	05eH
	DB	0e7H
	DB	05eH
	DB	0e7H
	DB	05fH
	DB	0e7H
	DB	05eH
	DB	0e7H
	DB	05eH
	DB	0e7H
	DB	05fH
	DB	0e7H
	DB	05eH
	DB	0e7H
	DB	05eH
	DB	0e7H
	DB	05fH
	DB	0e7H
	DB	05eH
	DB	0e7H
	DB	05eH
	DB	0e7H
	DB	05fH
	DB	0e7H
	DB	07eH
	DB	0e7H
	DB	05eH
	DB	0e7H
	DB	05fH
	DB	0e7H
	DB	05eH
	DB	0e7H
	DB	07eH
	DB	0e7H
	DB	05fH
	DB	0e7H
	DB	05eH
	DB	0e7H
	DB	05fH
	DB	0e7H
	DB	07eH
	DB	0e7H
	DB	05fH
	DB	0e7H
	DB	05eH
	DB	0e7H
	DB	07fH
	DB	0e7H
	DB	05eH
	DB	0e7H
	DB	05eH
	DB	0e7H
	DB	07fH
	DB	0e7H
	DB	05eH
	DB	0e7H
	DB	05eH
	DB	0e7H
	DB	07fH
	DB	0e7H
	DB	05eH
	DB	0e7H
	DB	05eH
	DB	0e7H
	DB	07fH
	DB	0e7H
	DB	05fH
	DB	0e7H
	DB	05eH
	DB	0e7H
	DB	07eH
	DB	0e7H
	DB	05fH
	DB	0e7H
	DB	05eH
	DB	0e7H
	DB	07eH
	DB	0e7H
	DB	07fH
	DB	0e7H
	DB	05eH
	DB	0e7H
	DB	05fH
	DB	0dfH
	DB	05eH
	DB	0dfH
	DB	03eH
	DB	0dfH
	DB	03eH
	DB	0d7H
	DB	01eH
	DB	0d7H
	DB	0feH
	DB	0ceH
	DB	0deH
	DB	0c6H
	DB	0ddH
	DB	0beH
	DB	0bdH
	DB	0beH
	DB	09dH
	DB	0b6H
	DB	09dH
	DB	0b6H
	DB	07dH
	DB	0b6H
	DB	07dH
	DB	0aeH
	DB	07dH
	DB	0aeH
	DB	07dH
	DB	0aeH
	DB	07cH
	DB	0a6H
	DB	07dH
	DB	0aeH
	DB	07dH
	DB	0aeH
	DB	07dH
	DB	0aeH
	DB	07dH
	DB	0aeH
	DB	07dH
	DB	0b6H
	DB	09dH
	DB	0b6H
	DB	09dH
	DB	0b6H
	DB	0bdH
	DB	0beH
	DB	0ddH
	DB	0c6H
	DB	0deH
	DB	0c6H
	DB	0feH
	DB	0ceH
	DB	01eH
	DB	0d7H
	DB	03eH
	DB	0d7H
	DB	03eH
	DB	0dfH
	DB	05eH
	DB	0dfH
	DB	05eH
	DB	0e7H
	DB	05eH
	DB	0dfH
	DB	05fH
	DB	0e7H
	DB	07fH
	DB	0e7H
	DB	05eH
	DB	0e7H
	DB	05fH
	DB	0e7H
	DB	07fH
	DB	0e7H
	DB	05eH
	DB	0e7H
	DB	07fH
	DB	0e7H
	DB	05fH
	DB	0e7H
	DB	05eH
	DB	0e7H
	DB	07fH
	DB	0e7H
	DB	05fH
	DB	0e7H
	DB	05eH
	DB	0e7H
	DB	07fH
	DB	0e7H
	DB	05fH
	DB	0e7H
	DB	05eH
	DB	0e7H
	DB	05eH
	DB	0e7H
	DB	05fH
	DB	0e7H
	DB	07eH
	DB	0e7H
	DB	05eH
	DB	0e7H
	DB	05eH
	DB	0e7H
	DB	07fH
	DB	0e7H
	DB	05eH
	DB	0e7H
	DB	05eH
	DB	0e7H
	DB	07fH
	DB	0e7H
	DB	05eH
	DB	0e7H
	DB	05eH
	DB	0e7H
	DB	07fH
	DB	0e7H
	DB	05eH
	DB	0e7H
	DB	05eH
	DB	0e7H
	DB	07fH
	DB	0e7H
	DB	05eH
	DB	0e7H
	DB	05eH
	DB	0e7H
	DB	07fH
	DB	0e7H
	DB	05eH
	DB	0e7H
	DB	05eH
	DB	0e7H
	DB	07eH
	DB	0e7H
	DB	05eH
	DB	0e7H
	DB	05fH
	DB	0e7H
	DB	07eH
	DB	0e7H
	DB	05eH
	DB	0e7H
	DB	05fH
	DB	0e7H
	DB	07eH
	DB	0e7H
	DB	03bH
	DB	0b6H
	DB	05eH
	DB	0e7H
	DB	05eH
	DB	0e7H
	DB	05eH
	DB	0e7H
	DB	07eH
	DB	0e7H
	DB	05eH
	DB	0e7H
	DB	05eH
	DB	0e7H
	DB	05eH
	DB	0e7H
	DB	05fH
	DB	0e7H
	DB	05eH
	DB	0e7H
	DB	05eH
	DB	0e7H
	DB	05eH
	DB	0e7H
	DB	05eH
	DB	0e7H
	DB	05eH
	DB	0e7H
	DB	05eH
	DB	0e7H
	DB	05eH
	DB	0e7H
	DB	05eH
	DB	0e7H
	DB	05eH
	DB	0e7H
	DB	05eH
	DB	0e7H
	DB	05eH
	DB	0e7H
	DB	05eH
	DB	0e7H
	DB	05eH
	DB	0e7H
	DB	05eH
	DB	0e7H
	DB	05eH
	DB	0e7H
	DB	05eH
	DB	0e7H
	DB	05eH
	DB	0e7H
	DB	05eH
	DB	0e7H
	DB	05eH
	DB	0e7H
	DB	05eH
	DB	0e7H
	DB	05eH
	DB	0e7H
	DB	05eH
	DB	0e7H
	DB	05eH
	DB	0e7H
	DB	05eH
	DB	0e7H
	DB	05eH
	DB	0e7H
	DB	05eH
	DB	0e7H
	DB	05eH
	DB	0e7H
	DB	05eH
	DB	0e7H
	DB	05eH
	DB	0e7H
	DB	05eH
	DB	0e7H
	DB	05eH
	DB	0e7H
	DB	05eH
	DB	0e7H
	DB	05eH
	DB	0e7H
	DB	05eH
	DB	0e7H
	DB	05eH
	DB	0dfH
	DB	05eH
	DB	0e7H
	DB	05eH
	DB	0e7H
	DB	05eH
	DB	0dfH
	DB	05eH
	DB	0dfH
	DB	03eH
	DB	0dfH
	DB	03eH
	DB	0d7H
	DB	01eH
	DB	0d7H
	DB	01eH
	DB	0cfH
	DB	0feH
	DB	0ceH
	DB	0fdH
	DB	0c6H
	DB	0ddH
	DB	0c6H
	DB	0bdH
	DB	0beH
	DB	0bdH
	DB	0beH
	DB	0bdH
	DB	0b6H
	DB	09dH
	DB	0b6H
	DB	09dH
	DB	0b6H
	DB	09dH
	DB	0b6H
	DB	09dH
	DB	0b6H
	DB	09dH
	DB	0b6H
	DB	09dH
	DB	0b6H
	DB	09dH
	DB	0b6H
	DB	0bdH
	DB	0beH
	DB	0bdH
	DB	0beH
	DB	0ddH
	DB	0c6H
	DB	0fdH
	DB	0c6H
	DB	0feH
	DB	0ceH
	DB	01eH
	DB	0cfH
	DB	01eH
	DB	0d7H
	DB	03eH
	DB	0d7H
	DB	03eH
	DB	0dfH
	DB	05eH
	DB	0dfH
	DB	05eH
	DB	0dfH
	DB	05eH
	DB	0e7H
	DB	05fH
	DB	0e7H
	DB	05eH
	DB	0dfH
	DB	05eH
	DB	0e7H
	DB	05eH
	DB	0e7H
	DB	05eH
	DB	0e7H
	DB	05eH
	DB	0e7H
	DB	05eH
	DB	0e7H
	DB	05eH
	DB	0e7H
	DB	05eH
	DB	0e7H
	DB	05eH
	DB	0e7H
	DB	05eH
	DB	0e7H
	DB	05eH
	DB	0e7H
	DB	05eH
	DB	0e7H
	DB	05eH
	DB	0e7H
	DB	05eH
	DB	0e7H
	DB	05eH
	DB	0e7H
	DB	05fH
	DB	0e7H
	DB	05eH
	DB	0e7H
	DB	05eH
	DB	0e7H
	DB	05fH
	DB	0e7H
	DB	05eH
	DB	0e7H
	DB	05eH
	DB	0e7H
	DB	05eH
	DB	0e7H
	DB	05eH
	DB	0e7H
	DB	05eH
	DB	0e7H
	DB	05eH
	DB	0e7H
	DB	05eH
	DB	0e7H
	DB	05eH
	DB	0e7H
	DB	05eH
	DB	0e7H
	DB	05eH
	DB	0e7H
	DB	05eH
	DB	0e7H
	DB	05eH
	DB	0e7H
	DB	05eH
	DB	0e7H
	DB	05eH
	DB	0e7H
	DB	05fH
	DB	0e7H
	DB	05eH
	DB	0e7H
	DB	05eH
	DB	0e7H
	DB	05fH
	DB	0e7H
	DB	05eH
	DB	0e7H
	DB	05eH
	DB	0e7H
	DB	05eH
	DB	0e7H
	DB	05eH
	DB	0e7H
	DB	05eH
	DB	0e7H
	DB	05cH
	DB	0b6H
	DB	05eH
	DB	0e7H
	DB	05eH
	DB	0dfH
	DB	07eH
	DB	0e7H
	DB	05fH
	DB	0e7H
	DB	07eH
	DB	0e7H
	DB	07eH
	DB	0dfH
	DB	05fH
	DB	0e7H
	DB	07eH
	DB	0e7H
	DB	07eH
	DB	0dfH
	DB	05fH
	DB	0e7H
	DB	07eH
	DB	0e7H
	DB	07eH
	DB	0dfH
	DB	05fH
	DB	0e7H
	DB	07eH
	DB	0e7H
	DB	07fH
	DB	0dfH
	DB	05eH
	DB	0e7H
	DB	05fH
	DB	0e7H
	DB	07eH
	DB	0dfH
	DB	05fH
	DB	0e7H
	DB	05fH
	DB	0e7H
	DB	07eH
	DB	0dfH
	DB	05eH
	DB	0e7H
	DB	07fH
	DB	0dfH
	DB	05eH
	DB	0e7H
	DB	05eH
	DB	0dfH
	DB	07fH
	DB	0e7H
	DB	05eH
	DB	0dfH
	DB	05fH
	DB	0e7H
	DB	07eH
	DB	0dfH
	DB	05fH
	DB	0e7H
	DB	05eH
	DB	0dfH
	DB	07fH
	DB	0e7H
	DB	05eH
	DB	0e7H
	DB	05fH
	DB	0dfH
	DB	07eH
	DB	0e7H
	DB	05eH
	DB	0e7H
	DB	05fH
	DB	0e7H
	DB	07eH
	DB	0e7H
	DB	05fH
	DB	0e7H
	DB	05eH
	DB	0dfH
	DB	07fH
	DB	0e7H
	DB	05fH
	DB	0e7H
	DB	05eH
	DB	0dfH
	DB	05eH
	DB	0dfH
	DB	05fH
	DB	0e7H
	DB	05eH
	DB	0dfH
	DB	05eH
	DB	0dfH
	DB	05eH
	DB	0dfH
	DB	03eH
	DB	0dfH
	DB	03eH
	DB	0d7H
	DB	01eH
	DB	0d7H
	DB	01eH
	DB	0d7H
	DB	01eH
	DB	0cfH
	DB	0feH
	DB	0ceH
	DB	0feH
	DB	0ceH
	DB	0ddH
	DB	0c6H
	DB	0ddH
	DB	0c6H
	DB	0ddH
	DB	0c6H
	DB	0ddH
	DB	0c6H
	DB	0ddH
	DB	0beH
	DB	0ddH
	DB	0beH
	DB	0ddH
	DB	0c6H
	DB	0ddH
	DB	0c6H
	DB	0ddH
	DB	0c6H
	DB	0fdH
	DB	0c6H
	DB	0feH
	DB	0ceH
	DB	0feH
	DB	0ceH
	DB	01eH
	DB	0cfH
	DB	01eH
	DB	0d7H
	DB	01eH
	DB	0d7H
	DB	03eH
	DB	0d7H
	DB	03eH
	DB	0dfH
	DB	05eH
	DB	0dfH
	DB	05eH
	DB	0dfH
	DB	05eH
	DB	0dfH
	DB	05eH
	DB	0e7H
	DB	05eH
	DB	0dfH
	DB	07eH
	DB	0dfH
	DB	05eH
	DB	0e7H
	DB	05fH
	DB	0e7H
	DB	07eH
	DB	0dfH
	DB	05eH
	DB	0dfH
	DB	05fH
	DB	0e7H
	DB	07eH
	DB	0dfH
	DB	05eH
	DB	0dfH
	DB	07fH
	DB	0e7H
	DB	05eH
	DB	0dfH
	DB	05eH
	DB	0dfH
	DB	07fH
	DB	0e7H
	DB	05eH
	DB	0dfH
	DB	05eH
	DB	0e7H
	DB	07fH
	DB	0e7H
	DB	07eH
	DB	0dfH
	DB	05eH
	DB	0e7H
	DB	05eH
	DB	0dfH
	DB	07eH
	DB	0dfH
	DB	05fH
	DB	0e7H
	DB	05eH
	DB	0dfH
	DB	07eH
	DB	0e7H
	DB	05fH
	DB	0dfH
	DB	05eH
	DB	0e7H
	DB	07fH
	DB	0e7H
	DB	05eH
	DB	0dfH
	DB	05fH
	DB	0e7H
	DB	07eH
	DB	0e7H
	DB	05fH
	DB	0dfH
	DB	05eH
	DB	0e7H
	DB	07fH
	DB	0e7H
	DB	05eH
	DB	0dfH
	DB	05eH
	DB	0e7H
	DB	07eH
	DB	0e7H
	DB	05fH
	DB	0dfH
	DB	05eH
	DB	0e7H
	DB	07eH
	DB	0e7H
	DB	05eH
	DB	0dfH
	DB	05fH
	DB	0e7H
	DB	07eH
	DB	0dfH
	DB	05eH
	DB	0e7H
	DB	05eH
	DB	0dfH
	DB	05cH
	DB	0b6H
	DB	05eH
	DB	0dfH
	DB	05eH
	DB	0dfH
	DB	05eH
	DB	0dfH
	DB	05eH
	DB	0dfH
	DB	05eH
	DB	0dfH
	DB	05eH
	DB	0dfH
	DB	05eH
	DB	0dfH
	DB	05eH
	DB	0dfH
	DB	05eH
	DB	0dfH
	DB	05eH
	DB	0dfH
	DB	05eH
	DB	0dfH
	DB	05eH
	DB	0dfH
	DB	05eH
	DB	0dfH
	DB	05eH
	DB	0dfH
	DB	05eH
	DB	0dfH
	DB	05eH
	DB	0dfH
	DB	05eH
	DB	0dfH
	DB	05eH
	DB	0dfH
	DB	05eH
	DB	0dfH
	DB	05eH
	DB	0dfH
	DB	05eH
	DB	0dfH
	DB	05eH
	DB	0dfH
	DB	05eH
	DB	0dfH
	DB	05eH
	DB	0dfH
	DB	05eH
	DB	0dfH
	DB	05eH
	DB	0dfH
	DB	05eH
	DB	0dfH
	DB	05eH
	DB	0dfH
	DB	05eH
	DB	0dfH
	DB	05eH
	DB	0dfH
	DB	05eH
	DB	0dfH
	DB	05eH
	DB	0dfH
	DB	05eH
	DB	0dfH
	DB	05eH
	DB	0dfH
	DB	05eH
	DB	0dfH
	DB	05eH
	DB	0dfH
	DB	05eH
	DB	0dfH
	DB	05eH
	DB	0dfH
	DB	05eH
	DB	0dfH
	DB	05eH
	DB	0dfH
	DB	05eH
	DB	0dfH
	DB	05eH
	DB	0dfH
	DB	05eH
	DB	0dfH
	DB	05eH
	DB	0dfH
	DB	05eH
	DB	0dfH
	DB	05eH
	DB	0e7H
	DB	05eH
	DB	0dfH
	DB	05eH
	DB	0dfH
	DB	03eH
	DB	0dfH
	DB	05eH
	DB	0dfH
	DB	03eH
	DB	0dfH
	DB	03eH
	DB	0d7H
	DB	01eH
	DB	0d7H
	DB	01eH
	DB	0d7H
	DB	01eH
	DB	0d7H
	DB	01eH
	DB	0cfH
	DB	0feH
	DB	0ceH
	DB	0feH
	DB	0ceH
	DB	0feH
	DB	0ceH
	DB	0feH
	DB	0ceH
	DB	0feH
	DB	0ceH
	DB	0feH
	DB	0ceH
	DB	0feH
	DB	0ceH
	DB	0feH
	DB	0ceH
	DB	0feH
	DB	0ceH
	DB	01eH
	DB	0d7H
	DB	01eH
	DB	0d7H
	DB	01eH
	DB	0d7H
	DB	03eH
	DB	0d7H
	DB	03eH
	DB	0dfH
	DB	05eH
	DB	0dfH
	DB	05eH
	DB	0dfH
	DB	05eH
	DB	0dfH
	DB	05eH
	DB	0e7H
	DB	05eH
	DB	0dfH
	DB	05eH
	DB	0dfH
	DB	05eH
	DB	0dfH
	DB	05eH
	DB	0dfH
	DB	05eH
	DB	0dfH
	DB	05eH
	DB	0dfH
	DB	05eH
	DB	0dfH
	DB	05eH
	DB	0dfH
	DB	05eH
	DB	0dfH
	DB	05eH
	DB	0dfH
	DB	05eH
	DB	0dfH
	DB	05eH
	DB	0e7H
	DB	05eH
	DB	0dfH
	DB	05eH
	DB	0dfH
	DB	05eH
	DB	0dfH
	DB	05eH
	DB	0dfH
	DB	05eH
	DB	0dfH
	DB	05eH
	DB	0dfH
	DB	05eH
	DB	0dfH
	DB	05eH
	DB	0dfH
	DB	05eH
	DB	0dfH
	DB	05eH
	DB	0dfH
	DB	05eH
	DB	0dfH
	DB	05eH
	DB	0dfH
	DB	05eH
	DB	0dfH
	DB	05eH
	DB	0dfH
	DB	05eH
	DB	0dfH
	DB	05eH
	DB	0dfH
	DB	05eH
	DB	0dfH
	DB	05eH
	DB	0dfH
	DB	05eH
	DB	0dfH
	DB	05eH
	DB	0dfH
	DB	05eH
	DB	0dfH
	DB	05eH
	DB	0dfH
	DB	05eH
	DB	0dfH
	DB	05eH
	DB	0dfH
	DB	05eH
	DB	0dfH
	DB	05eH
	DB	0dfH
	DB	05eH
	DB	0dfH
	DB	05eH
	DB	0dfH
	DB	05eH
	DB	0dfH
	DB	05eH
	DB	0dfH
	DB	05eH
	DB	0dfH
	DB	05eH
	DB	0dfH
	DB	05eH
	DB	0dfH
	DB	05cH
	DB	0b6H
	DB	05eH
	DB	0dfH
	DB	05eH
	DB	0dfH
	DB	05eH
	DB	0dfH
	DB	05eH
	DB	0dfH
	DB	05fH
	DB	0dfH
	DB	05eH
	DB	0dfH
	DB	05eH
	DB	0dfH
	DB	05eH
	DB	0dfH
	DB	05eH
	DB	0e7H
	DB	05eH
	DB	0dfH
	DB	05eH
	DB	0dfH
	DB	05eH
	DB	0dfH
	DB	05eH
	DB	0dfH
	DB	05eH
	DB	0dfH
	DB	05eH
	DB	0e7H
	DB	05eH
	DB	0dfH
	DB	05eH
	DB	0dfH
	DB	05eH
	DB	0e7H
	DB	05eH
	DB	0dfH
	DB	05eH
	DB	0dfH
	DB	05eH
	DB	0e7H
	DB	05eH
	DB	0dfH
	DB	05eH
	DB	0dfH
	DB	05eH
	DB	0e7H
	DB	05eH
	DB	0dfH
	DB	05eH
	DB	0dfH
	DB	05eH
	DB	0e7H
	DB	05eH
	DB	0dfH
	DB	05eH
	DB	0dfH
	DB	05eH
	DB	0e7H
	DB	05eH
	DB	0dfH
	DB	05eH
	DB	0dfH
	DB	05eH
	DB	0dfH
	DB	05eH
	DB	0dfH
	DB	05eH
	DB	0dfH
	DB	05eH
	DB	0dfH
	DB	05eH
	DB	0dfH
	DB	05eH
	DB	0dfH
	DB	05eH
	DB	0dfH
	DB	05eH
	DB	0dfH
	DB	05eH
	DB	0dfH
	DB	05eH
	DB	0e7H
	DB	05eH
	DB	0dfH
	DB	05eH
	DB	0dfH
	DB	05eH
	DB	0e7H
	DB	05eH
	DB	0dfH
	DB	05eH
	DB	0dfH
	DB	05eH
	DB	0e7H
	DB	05eH
	DB	0dfH
	DB	03eH
	DB	0dfH
	DB	05eH
	DB	0dfH
	DB	03eH
	DB	0dfH
	DB	03eH
	DB	0dfH
	DB	03eH
	DB	0dfH
	DB	03eH
	DB	0d7H
	DB	01eH
	DB	0d7H
	DB	01eH
	DB	0d7H
	DB	01eH
	DB	0d7H
	DB	01eH
	DB	0d7H
	DB	01eH
	DB	0d7H
	DB	01eH
	DB	0d7H
	DB	01eH
	DB	0d7H
	DB	01eH
	DB	0d7H
	DB	01eH
	DB	0d7H
	DB	03eH
	DB	0d7H
	DB	03eH
	DB	0d7H
	DB	03dH
	DB	0dfH
	DB	03eH
	DB	0dfH
	DB	03eH
	DB	0dfH
	DB	05eH
	DB	0dfH
	DB	03eH
	DB	0dfH
	DB	05eH
	DB	0dfH
	DB	05eH
	DB	0dfH
	DB	03eH
	DB	0dfH
	DB	05eH
	DB	0dfH
	DB	05fH
	DB	0e7H
	DB	05eH
	DB	0dfH
	DB	05eH
	DB	0e7H
	DB	05fH
	DB	0dfH
	DB	05eH
	DB	0dfH
	DB	05eH
	DB	0e7H
	DB	05eH
	DB	0dfH
	DB	05eH
	DB	0e7H
	DB	05eH
	DB	0dfH
	DB	05eH
	DB	0dfH
	DB	05eH
	DB	0dfH
	DB	05eH
	DB	0e7H
	DB	05eH
	DB	0dfH
	DB	05eH
	DB	0dfH
	DB	05eH
	DB	0e7H
	DB	05eH
	DB	0dfH
	DB	05eH
	DB	0dfH
	DB	05eH
	DB	0dfH
	DB	05eH
	DB	0e7H
	DB	05fH
	DB	0dfH
	DB	05eH
	DB	0e7H
	DB	05eH
	DB	0dfH
	DB	05eH
	DB	0dfH
	DB	05eH
	DB	0e7H
	DB	05eH
	DB	0dfH
	DB	05eH
	DB	0dfH
	DB	05eH
	DB	0dfH
	DB	05eH
	DB	0dfH
	DB	05eH
	DB	0dfH
	DB	05eH
	DB	0dfH
	DB	05eH
	DB	0dfH
	DB	05eH
	DB	0dfH
	DB	05eH
	DB	0dfH
	DB	05eH
	DB	0dfH
	DB	05fH
	DB	0dfH
	DB	05eH
	DB	0e7H
	DB	05eH
	DB	0dfH
	DB	05eH
	DB	0dfH
	DB	05eH
	DB	0dfH
	DB	05eH
	DB	0e7H
	DB	05eH
	DB	0dfH
	DB	05fH
	DB	0dfH
	DB	05eH
	DB	0e7H
	DB	05eH
	DB	0dfH
	DB	05cH
	DB	0beH
	DB	03eH
	DB	0dfH
	DB	03eH
	DB	0dfH
	DB	05eH
	DB	0dfH
	DB	03eH
	DB	0e7H
	DB	03eH
	DB	0dfH
	DB	03eH
	DB	0dfH
	DB	03eH
	DB	0dfH
	DB	03eH
	DB	0dfH
	DB	03eH
	DB	0dfH
	DB	03eH
	DB	0dfH
	DB	03eH
	DB	0dfH
	DB	03eH
	DB	0e7H
	DB	03eH
	DB	0dfH
	DB	05eH
	DB	0dfH
	DB	03eH
	DB	0dfH
	DB	03eH
	DB	0dfH
	DB	05eH
	DB	0dfH
	DB	03eH
	DB	0dfH
	DB	05eH
	DB	0dfH
	DB	03eH
	DB	0dfH
	DB	05eH
	DB	0dfH
	DB	03eH
	DB	0dfH
	DB	03eH
	DB	0dfH
	DB	05eH
	DB	0dfH
	DB	03eH
	DB	0dfH
	DB	05eH
	DB	0dfH
	DB	03eH
	DB	0dfH
	DB	05eH
	DB	0dfH
	DB	03eH
	DB	0dfH
	DB	05eH
	DB	0dfH
	DB	03eH
	DB	0dfH
	DB	05eH
	DB	0dfH
	DB	03eH
	DB	0e7H
	DB	05eH
	DB	0dfH
	DB	03eH
	DB	0dfH
	DB	05eH
	DB	0dfH
	DB	03eH
	DB	0dfH
	DB	05eH
	DB	0e7H
	DB	03eH
	DB	0dfH
	DB	05eH
	DB	0dfH
	DB	03eH
	DB	0dfH
	DB	05eH
	DB	0dfH
	DB	05eH
	DB	0dfH
	DB	03eH
	DB	0dfH
	DB	03eH
	DB	0dfH
	DB	03eH
	DB	0dfH
	DB	03eH
	DB	0dfH
	DB	03eH
	DB	0dfH
	DB	03eH
	DB	0dfH
	DB	05eH
	DB	0dfH
	DB	03eH
	DB	0dfH
	DB	05eH
	DB	0dfH
	DB	03eH
	DB	0dfH
	DB	03eH
	DB	0dfH
	DB	03eH
	DB	0dfH
	DB	03eH
	DB	0dfH
	DB	03eH
	DB	0d7H
	DB	03dH
	DB	0d7H
	DB	03eH
	DB	0d7H
	DB	03eH
	DB	0d7H
	DB	03dH
	DB	0d7H
	DB	03eH
	DB	0d7H
	DB	03eH
	DB	0d7H
	DB	03dH
	DB	0dfH
	DB	03eH
	DB	0dfH
	DB	03eH
	DB	0dfH
	DB	03eH
	DB	0dfH
	DB	03eH
	DB	0dfH
	DB	05eH
	DB	0dfH
	DB	05eH
	DB	0dfH
	DB	03eH
	DB	0dfH
	DB	03eH
	DB	0dfH
	DB	03eH
	DB	0dfH
	DB	03eH
	DB	0dfH
	DB	03eH
	DB	0dfH
	DB	05eH
	DB	0dfH
	DB	03eH
	DB	0dfH
	DB	03eH
	DB	0dfH
	DB	05eH
	DB	0dfH
	DB	03eH
	DB	0dfH
	DB	05eH
	DB	0dfH
	DB	03eH
	DB	0dfH
	DB	03eH
	DB	0dfH
	DB	05eH
	DB	0dfH
	DB	03eH
	DB	0dfH
	DB	03eH
	DB	0dfH
	DB	05eH
	DB	0dfH
	DB	03eH
	DB	0dfH
	DB	05eH
	DB	0dfH
	DB	03eH
	DB	0dfH
	DB	03eH
	DB	0dfH
	DB	05eH
	DB	0dfH
	DB	03eH
	DB	0dfH
	DB	03eH
	DB	0dfH
	DB	05eH
	DB	0dfH
	DB	03eH
	DB	0dfH
	DB	05eH
	DB	0dfH
	DB	03eH
	DB	0dfH
	DB	05eH
	DB	0dfH
	DB	03eH
	DB	0dfH
	DB	05eH
	DB	0dfH
	DB	03eH
	DB	0e7H
	DB	05eH
	DB	0dfH
	DB	03eH
	DB	0dfH
	DB	05eH
	DB	0e7H
	DB	03eH
	DB	0dfH
	DB	05eH
	DB	0dfH
	DB	03eH
	DB	0e7H
	DB	05eH
	DB	0dfH
	DB	03eH
	DB	0dfH
	DB	05eH
	DB	0dfH
	DB	03eH
	DB	0dfH
	DB	05eH
	DB	0dfH
	DB	03eH
	DB	0dfH
	DB	05eH
	DB	0dfH
	DB	03eH
	DB	0dfH
	DB	03eH
	DB	0dfH
	DB	05eH
	DB	0dfH
	DB	03eH
	DB	0dfH
	DB	05cH
	DB	0beH
	DB	03eH
	DB	0dfH
	DB	05eH
	DB	0dfH
	DB	03eH
	DB	0dfH
	DB	05eH
	DB	0dfH
	DB	05eH
	DB	0dfH
	DB	03eH
	DB	0dfH
	DB	05eH
	DB	0dfH
	DB	05eH
	DB	0dfH
	DB	05eH
	DB	0dfH
	DB	05eH
	DB	0dfH
	DB	05eH
	DB	0dfH
	DB	03eH
	DB	0dfH
	DB	05eH
	DB	0dfH
	DB	03eH
	DB	0dfH
	DB	03eH
	DB	0dfH
	DB	05eH
	DB	0dfH
	DB	03eH
	DB	0dfH
	DB	05eH
	DB	0dfH
	DB	03eH
	DB	0dfH
	DB	03eH
	DB	0dfH
	DB	05eH
	DB	0dfH
	DB	05eH
	DB	0dfH
	DB	03eH
	DB	0dfH
	DB	05eH
	DB	0dfH
	DB	03eH
	DB	0dfH
	DB	03eH
	DB	0dfH
	DB	05eH
	DB	0dfH
	DB	03eH
	DB	0dfH
	DB	05eH
	DB	0dfH
	DB	03eH
	DB	0dfH
	DB	05eH
	DB	0dfH
	DB	03eH
	DB	0dfH
	DB	05eH
	DB	0dfH
	DB	03eH
	DB	0dfH
	DB	05eH
	DB	0dfH
	DB	03eH
	DB	0dfH
	DB	05eH
	DB	0dfH
	DB	03eH
	DB	0dfH
	DB	05eH
	DB	0dfH
	DB	03eH
	DB	0dfH
	DB	03eH
	DB	0dfH
	DB	05eH
	DB	0dfH
	DB	03eH
	DB	0dfH
	DB	05eH
	DB	0dfH
	DB	05eH
	DB	0dfH
	DB	05eH
	DB	0dfH
	DB	05eH
	DB	0dfH
	DB	03eH
	DB	0dfH
	DB	05eH
	DB	0dfH
	DB	03eH
	DB	0dfH
	DB	05eH
	DB	0dfH
	DB	03eH
	DB	0dfH
	DB	05eH
	DB	0dfH
	DB	05eH
	DB	0dfH
	DB	03eH
	DB	0dfH
	DB	03eH
	DB	0dfH
	DB	03eH
	DB	0dfH
	DB	03eH
	DB	0dfH
	DB	03eH
	DB	0dfH
	DB	03eH
	DB	0dfH
	DB	03eH
	DB	0dfH
	DB	03eH
	DB	0dfH
	DB	03eH
	DB	0dfH
	DB	03eH
	DB	0dfH
	DB	03eH
	DB	0dfH
	DB	03eH
	DB	0dfH
	DB	05eH
	DB	0dfH
	DB	05eH
	DB	0dfH
	DB	03eH
	DB	0dfH
	DB	03eH
	DB	0dfH
	DB	05eH
	DB	0dfH
	DB	05eH
	DB	0dfH
	DB	05eH
	DB	0dfH
	DB	05eH
	DB	0dfH
	DB	03eH
	DB	0dfH
	DB	05eH
	DB	0dfH
	DB	03eH
	DB	0dfH
	DB	05eH
	DB	0dfH
	DB	03eH
	DB	0dfH
	DB	05eH
	DB	0dfH
	DB	03eH
	DB	0dfH
	DB	05eH
	DB	0dfH
	DB	05eH
	DB	0dfH
	DB	03eH
	DB	0dfH
	DB	05eH
	DB	0dfH
	DB	05eH
	DB	0dfH
	DB	03eH
	DB	0dfH
	DB	03eH
	DB	0dfH
	DB	05eH
	DB	0dfH
	DB	05eH
	DB	0dfH
	DB	03eH
	DB	0dfH
	DB	05eH
	DB	0dfH
	DB	03eH
	DB	0dfH
	DB	05eH
	DB	0dfH
	DB	03eH
	DB	0dfH
	DB	03eH
	DB	0dfH
	DB	05eH
	DB	0dfH
	DB	03eH
	DB	0dfH
	DB	03eH
	DB	0dfH
	DB	05eH
	DB	0dfH
	DB	03eH
	DB	0dfH
	DB	05eH
	DB	0dfH
	DB	03eH
	DB	0dfH
	DB	03eH
	DB	0dfH
	DB	05eH
	DB	0dfH
	DB	03eH
	DB	0dfH
	DB	03eH
	DB	0dfH
	DB	05eH
	DB	0dfH
	DB	03eH
	DB	0dfH
	DB	05eH
	DB	0dfH
	DB	03eH
	DB	0dfH
	DB	05eH
	DB	0dfH
	DB	03eH
	DB	0dfH
	DB	05eH
	DB	0dfH
	DB	03eH
	DB	0dfH
	DB	05eH
	DB	0dfH
	DB	05eH
	DB	0dfH
	DB	03eH
	DB	0dfH
	DB	03eH
	DB	0dfH
	DB	05cH
	DB	0b6H
	DB	03eH
	DB	0dfH
	DB	03eH
	DB	0dfH
	DB	03eH
	DB	0dfH
	DB	03eH
	DB	0dfH
	DB	03eH
	DB	0dfH
	DB	03eH
	DB	0dfH
	DB	03eH
	DB	0dfH
	DB	03eH
	DB	0dfH
	DB	03eH
	DB	0dfH
	DB	03eH
	DB	0dfH
	DB	03eH
	DB	0dfH
	DB	03eH
	DB	0dfH
	DB	03eH
	DB	0dfH
	DB	03eH
	DB	0dfH
	DB	03eH
	DB	0dfH
	DB	03eH
	DB	0dfH
	DB	03eH
	DB	0dfH
	DB	03eH
	DB	0dfH
	DB	03eH
	DB	0dfH
	DB	03eH
	DB	0dfH
	DB	03eH
	DB	0dfH
	DB	03eH
	DB	0dfH
	DB	0fdH
	DB	0d6H
	DB	0fdH
	DB	0d6H
	DB	0fdH
	DB	0d6H
	DB	0fdH
	DB	0d6H
	DB	0fdH
	DB	0d6H
	DB	03eH
	DB	0dfH
	DB	03eH
	DB	0dfH
	DB	0fdH
	DB	0d6H
	DB	0fdH
	DB	0d6H
	DB	0fdH
	DB	0d6H
	DB	0fdH
	DB	0d6H
	DB	03eH
	DB	0dfH
	DB	03eH
	DB	0dfH
	DB	0fdH
	DB	0d6H
	DB	03eH
	DB	0dfH
	DB	03eH
	DB	0dfH
	DB	03eH
	DB	0dfH
	DB	03eH
	DB	0dfH
	DB	03eH
	DB	0dfH
	DB	0fdH
	DB	0d6H
	DB	03eH
	DB	0dfH
	DB	03eH
	DB	0dfH
	DB	03eH
	DB	0dfH
	DB	0fdH
	DB	0d6H
	DB	0fdH
	DB	0d6H
	DB	03eH
	DB	0dfH
	DB	03eH
	DB	0dfH
	DB	03eH
	DB	0dfH
	DB	03eH
	DB	0dfH
	DB	0fdH
	DB	0d6H
	DB	0fdH
	DB	0d6H
	DB	0fdH
	DB	0d6H
	DB	0fdH
	DB	0d6H
	DB	05eH
	DB	0dfH
	DB	03eH
	DB	0dfH
	DB	0fdH
	DB	0d6H
	DB	0fdH
	DB	0d6H
	DB	0fdH
	DB	0d6H
	DB	03eH
	DB	0dfH
	DB	03eH
	DB	0dfH
	DB	03eH
	DB	0dfH
	DB	03eH
	DB	0dfH
	DB	03eH
	DB	0dfH
	DB	03eH
	DB	0dfH
	DB	0fdH
	DB	0d6H
	DB	03eH
	DB	0dfH
	DB	03eH
	DB	0dfH
	DB	03eH
	DB	0dfH
	DB	03eH
	DB	0dfH
	DB	0fdH
	DB	0d6H
	DB	0fdH
	DB	0d6H
	DB	0fdH
	DB	0d6H
	DB	0fdH
	DB	0d6H
	DB	03eH
	DB	0dfH
	DB	03eH
	DB	0dfH
	DB	03eH
	DB	0dfH
	DB	03eH
	DB	0dfH
	DB	03eH
	DB	0dfH
	DB	03eH
	DB	0dfH
	DB	03eH
	DB	0dfH
	DB	0fdH
	DB	0d6H
	DB	03eH
	DB	0dfH
	DB	03eH
	DB	0dfH
	DB	0fdH
	DB	0d6H
	DB	0fdH
	DB	0d6H
	DB	0fdH
	DB	0d6H
	DB	03eH
	DB	0dfH
	DB	03eH
	DB	0dfH
	DB	03eH
	DB	0dfH
	DB	03eH
	DB	0dfH
	DB	0fdH
	DB	0d6H
	DB	0fdH
	DB	0d6H
	DB	0fdH
	DB	0d6H
	DB	0fdH
	DB	0d6H
	DB	03eH
	DB	0dfH
	DB	03eH
	DB	0dfH
	DB	03eH
	DB	0dfH
	DB	03eH
	DB	0dfH
	DB	03eH
	DB	0dfH
	DB	03eH
	DB	0dfH
	DB	03eH
	DB	0dfH
	DB	03eH
	DB	0dfH
	DB	03eH
	DB	0dfH
	DB	03eH
	DB	0dfH
	DB	03eH
	DB	0dfH
	DB	03eH
	DB	0dfH
	DB	03eH
	DB	0dfH
	DB	03eH
	DB	0dfH
	DB	03eH
	DB	0dfH
	DB	03eH
	DB	0dfH
	DB	03eH
	DB	0dfH
	DB	03eH
	DB	0dfH
	DB	03eH
	DB	0dfH
	DB	03eH
	DB	0dfH
	DB	03eH
	DB	0dfH
	DB	03eH
	DB	0dfH
	DB	03eH
	DB	0dfH
	DB	05cH
	DB	0beH
	DB	03eH
	DB	0dfH
	DB	03eH
	DB	0dfH
	DB	03eH
	DB	0dfH
	DB	03eH
	DB	0dfH
	DB	03eH
	DB	0dfH
	DB	05eH
	DB	0dfH
	DB	03eH
	DB	0dfH
	DB	03eH
	DB	0dfH
	DB	03eH
	DB	0dfH
	DB	03eH
	DB	0dfH
	DB	03eH
	DB	0dfH
	DB	05eH
	DB	0dfH
	DB	03eH
	DB	0dfH
	DB	05eH
	DB	0dfH
	DB	05eH
	DB	0dfH
	DB	03eH
	DB	0dfH
	DB	03eH
	DB	0dfH
	DB	05eH
	DB	0dfH
	DB	03eH
	DB	0dfH
	DB	03eH
	DB	0dfH
	DB	05eH
	DB	0dfH
	DB	03aH
	DB	0beH
	DB	06dH
	DB	03aH
	DB	06dH
	DB	03aH
	DB	06dH
	DB	03aH
	DB	06dH
	DB	03aH
	DB	06dH
	DB	03aH
	DB	03aH
	DB	0beH
	DB	0f9H
	DB	0b5H
	DB	06dH
	DB	03aH
	DB	06dH
	DB	03aH
	DB	06dH
	DB	03aH
	DB	06dH
	DB	03aH
	DB	0fdH
	DB	0d6H
	DB	0fdH
	DB	0d6H
	DB	06dH
	DB	03aH
	DB	0b1H
	DB	063H
	DB	03eH
	DB	0dfH
	DB	03eH
	DB	0dfH
	DB	05eH
	DB	0dfH
	DB	050H
	DB	053H
	DB	06dH
	DB	03aH
	DB	0fdH
	DB	0d6H
	DB	03eH
	DB	0dfH
	DB	0b1H
	DB	063H
	DB	06dH
	DB	03aH
	DB	06dH
	DB	03aH
	DB	0ceH
	DB	04aH
	DB	057H
	DB	09dH
	DB	03eH
	DB	0dfH
	DB	0f9H
	DB	0b5H
	DB	06dH
	DB	032H
	DB	06dH
	DB	032H
	DB	06cH
	DB	032H
	DB	06cH
	DB	032H
	DB	0fdH
	DB	0d6H
	DB	01dH
	DB	0d7H
	DB	06cH
	DB	032H
	DB	06cH
	DB	032H
	DB	06dH
	DB	032H
	DB	04fH
	DB	053H
	DB	07bH
	DB	0c6H
	DB	03eH
	DB	0dfH
	DB	05eH
	DB	0d7H
	DB	05eH
	DB	0d7H
	DB	073H
	DB	07cH
	DB	06cH
	DB	032H
	DB	0f9H
	DB	0adH
	DB	03eH
	DB	0dfH
	DB	03eH
	DB	0dfH
	DB	0ceH
	DB	042H
	DB	06dH
	DB	03aH
	DB	06dH
	DB	03aH
	DB	06dH
	DB	03aH
	DB	06dH
	DB	03aH
	DB	057H
	DB	09dH
	DB	03eH
	DB	0dfH
	DB	0b1H
	DB	063H
	DB	0b1H
	DB	063H
	DB	03eH
	DB	0dfH
	DB	03eH
	DB	0dfH
	DB	016H
	DB	095H
	DB	06dH
	DB	03aH
	DB	0fdH
	DB	0d6H
	DB	0fdH
	DB	0d6H
	DB	06dH
	DB	03aH
	DB	06dH
	DB	03aH
	DB	06dH
	DB	03aH
	DB	050H
	DB	053H
	DB	07bH
	DB	0c6H
	DB	03eH
	DB	0dfH
	DB	0fdH
	DB	0d6H
	DB	06dH
	DB	03aH
	DB	06dH
	DB	03aH
	DB	06dH
	DB	03aH
	DB	06dH
	DB	03aH
	DB	0f9H
	DB	0b5H
	DB	05eH
	DB	0dfH
	DB	03eH
	DB	0dfH
	DB	03eH
	DB	0dfH
	DB	05eH
	DB	0dfH
	DB	03eH
	DB	0dfH
	DB	03eH
	DB	0dfH
	DB	05eH
	DB	0dfH
	DB	03eH
	DB	0dfH
	DB	05eH
	DB	0dfH
	DB	03eH
	DB	0dfH
	DB	03eH
	DB	0dfH
	DB	05eH
	DB	0dfH
	DB	03eH
	DB	0dfH
	DB	03eH
	DB	0dfH
	DB	03eH
	DB	0dfH
	DB	05eH
	DB	0dfH
	DB	03eH
	DB	0dfH
	DB	03eH
	DB	0dfH
	DB	03eH
	DB	0dfH
	DB	03eH
	DB	0dfH
	DB	05eH
	DB	0dfH
	DB	05eH
	DB	0dfH
	DB	07cH
	DB	0beH
	DB	03eH
	DB	0dfH
	DB	03eH
	DB	0dfH
	DB	03eH
	DB	0dfH
	DB	03eH
	DB	0dfH
	DB	03eH
	DB	0dfH
	DB	03eH
	DB	0dfH
	DB	03eH
	DB	0dfH
	DB	03eH
	DB	0dfH
	DB	03eH
	DB	0dfH
	DB	03eH
	DB	0dfH
	DB	03eH
	DB	0dfH
	DB	03eH
	DB	0dfH
	DB	03eH
	DB	0dfH
	DB	03eH
	DB	0dfH
	DB	03eH
	DB	0dfH
	DB	03eH
	DB	0dfH
	DB	03eH
	DB	0dfH
	DB	03eH
	DB	0dfH
	DB	03eH
	DB	0dfH
	DB	03eH
	DB	0dfH
	DB	03eH
	DB	0dfH
	DB	0fdH
	DB	0d6H
	DB	0f9H
	DB	0adH
	DB	057H
	DB	09dH
	DB	06dH
	DB	032H
	DB	057H
	DB	09dH
	DB	0f9H
	DB	0adH
	DB	03eH
	DB	0dfH
	DB	0d9H
	DB	0adH
	DB	06dH
	DB	032H
	DB	057H
	DB	09dH
	DB	0f9H
	DB	0adH
	DB	0f9H
	DB	0adH
	DB	03eH
	DB	0dfH
	DB	0fdH
	DB	0d6H
	DB	06dH
	DB	032H
	DB	06dH
	DB	03aH
	DB	057H
	DB	09dH
	DB	03eH
	DB	0dfH
	DB	016H
	DB	095H
	DB	06dH
	DB	032H
	DB	06dH
	DB	03aH
	DB	0fdH
	DB	0d6H
	DB	03eH
	DB	0dfH
	DB	0b1H
	DB	063H
	DB	0b1H
	DB	063H
	DB	0f9H
	DB	0adH
	DB	0b1H
	DB	063H
	DB	0ceH
	DB	04aH
	DB	03eH
	DB	0dfH
	DB	0f9H
	DB	0adH
	DB	06dH
	DB	03aH
	DB	057H
	DB	09dH
	DB	0f9H
	DB	0adH
	DB	0d9H
	DB	0adH
	DB	03eH
	DB	0dfH
	DB	0fdH
	DB	0d6H
	DB	06dH
	DB	032H
	DB	053H
	DB	07cH
	DB	098H
	DB	0a5H
	DB	0ceH
	DB	04aH
	DB	0b1H
	DB	063H
	DB	03eH
	DB	0dfH
	DB	03eH
	DB	0dfH
	DB	03eH
	DB	0dfH
	DB	0ceH
	DB	04aH
	DB	06dH
	DB	032H
	DB	053H
	DB	07cH
	DB	03eH
	DB	0dfH
	DB	03eH
	DB	0dfH
	DB	0f9H
	DB	0adH
	DB	0f9H
	DB	0adH
	DB	06cH
	DB	032H
	DB	053H
	DB	07cH
	DB	0f9H
	DB	0adH
	DB	0fdH
	DB	0d6H
	DB	03eH
	DB	0dfH
	DB	0b1H
	DB	063H
	DB	0b1H
	DB	063H
	DB	03eH
	DB	0dfH
	DB	03eH
	DB	0dfH
	DB	016H
	DB	095H
	DB	06dH
	DB	032H
	DB	0fdH
	DB	0d6H
	DB	0fdH
	DB	0d6H
	DB	06dH
	DB	032H
	DB	053H
	DB	07cH
	DB	098H
	DB	0a5H
	DB	0ceH
	DB	04aH
	DB	0b1H
	DB	063H
	DB	03eH
	DB	0dfH
	DB	0fdH
	DB	0d6H
	DB	06dH
	DB	032H
	DB	053H
	DB	07cH
	DB	0f9H
	DB	0adH
	DB	0f9H
	DB	0adH
	DB	0fdH
	DB	0d6H
	DB	03eH
	DB	0dfH
	DB	03eH
	DB	0dfH
	DB	03eH
	DB	0dfH
	DB	03eH
	DB	0dfH
	DB	03eH
	DB	0dfH
	DB	03eH
	DB	0dfH
	DB	03eH
	DB	0dfH
	DB	03eH
	DB	0dfH
	DB	03eH
	DB	0dfH
	DB	03eH
	DB	0dfH
	DB	03eH
	DB	0dfH
	DB	03eH
	DB	0dfH
	DB	03eH
	DB	0dfH
	DB	03eH
	DB	0dfH
	DB	03eH
	DB	0dfH
	DB	03eH
	DB	0dfH
	DB	03eH
	DB	0dfH
	DB	03eH
	DB	0dfH
	DB	03eH
	DB	0dfH
	DB	03eH
	DB	0dfH
	DB	03eH
	DB	0dfH
	DB	03eH
	DB	0dfH
	DB	05cH
	DB	0beH
	DB	03eH
	DB	0d7H
	DB	03eH
	DB	0d7H
	DB	03eH
	DB	0d7H
	DB	03eH
	DB	0d7H
	DB	03eH
	DB	0dfH
	DB	03eH
	DB	0d7H
	DB	03eH
	DB	0d7H
	DB	03eH
	DB	0dfH
	DB	03eH
	DB	0d7H
	DB	03eH
	DB	0d7H
	DB	03eH
	DB	0dfH
	DB	03eH
	DB	0d7H
	DB	03eH
	DB	0d7H
	DB	03eH
	DB	0d7H
	DB	03eH
	DB	0d7H
	DB	03eH
	DB	0dfH
	DB	03eH
	DB	0d7H
	DB	03eH
	DB	0d7H
	DB	03eH
	DB	0d7H
	DB	03eH
	DB	0dfH
	DB	03eH
	DB	0d7H
	DB	03eH
	DB	0d7H
	DB	03eH
	DB	0dfH
	DB	0d9H
	DB	0adH
	DB	06dH
	DB	032H
	DB	0d9H
	DB	0adH
	DB	03eH
	DB	0dfH
	DB	03eH
	DB	0d7H
	DB	0f9H
	DB	0adH
	DB	06dH
	DB	03aH
	DB	057H
	DB	09dH
	DB	0d9H
	DB	0adH
	DB	03aH
	DB	0b6H
	DB	03eH
	DB	0dfH
	DB	0fdH
	DB	0ceH
	DB	06dH
	DB	032H
	DB	0ceH
	DB	04aH
	DB	0ceH
	DB	042H
	DB	07bH
	DB	0beH
	DB	0ceH
	DB	04aH
	DB	0ceH
	DB	042H
	DB	06dH
	DB	032H
	DB	0fdH
	DB	0d6H
	DB	03eH
	DB	0dfH
	DB	0b1H
	DB	063H
	DB	0b1H
	DB	063H
	DB	0fdH
	DB	0d6H
	DB	0b5H
	DB	084H
	DB	06dH
	DB	032H
	DB	0fdH
	DB	0d6H
	DB	0f9H
	DB	0adH
	DB	06cH
	DB	03aH
	DB	057H
	DB	09dH
	DB	0d9H
	DB	0adH
	DB	03aH
	DB	0beH
	DB	03eH
	DB	0dfH
	DB	0fdH
	DB	0d6H
	DB	06dH
	DB	032H
	DB	016H
	DB	095H
	DB	0bcH
	DB	0ceH
	DB	04fH
	DB	053H
	DB	053H
	DB	07cH
	DB	03eH
	DB	0d7H
	DB	03eH
	DB	0dfH
	DB	098H
	DB	0a5H
	DB	06cH
	DB	032H
	DB	053H
	DB	07cH
	DB	0ceH
	DB	04aH
	DB	03eH
	DB	0d7H
	DB	03eH
	DB	0dfH
	DB	03eH
	DB	0dfH
	DB	0fdH
	DB	0d6H
	DB	06cH
	DB	032H
	DB	0f6H
	DB	094H
	DB	03eH
	DB	0dfH
	DB	03eH
	DB	0dfH
	DB	03eH
	DB	0dfH
	DB	0b1H
	DB	063H
	DB	0b1H
	DB	063H
	DB	03eH
	DB	0dfH
	DB	03eH
	DB	0dfH
	DB	0f6H
	DB	094H
	DB	06dH
	DB	032H
	DB	0fdH
	DB	0d6H
	DB	0fdH
	DB	0d6H
	DB	06dH
	DB	032H
	DB	016H
	DB	095H
	DB	0bcH
	DB	0ceH
	DB	050H
	DB	053H
	DB	053H
	DB	07cH
	DB	03eH
	DB	0dfH
	DB	0fdH
	DB	0ceH
	DB	06dH
	DB	032H
	DB	053H
	DB	07cH
	DB	0d9H
	DB	0adH
	DB	0f9H
	DB	0adH
	DB	03eH
	DB	0dfH
	DB	03eH
	DB	0d7H
	DB	03eH
	DB	0d7H
	DB	03eH
	DB	0d7H
	DB	03eH
	DB	0dfH
	DB	03eH
	DB	0d7H
	DB	03eH
	DB	0d7H
	DB	03eH
	DB	0d7H
	DB	03eH
	DB	0d7H
	DB	03eH
	DB	0d7H
	DB	03eH
	DB	0d7H
	DB	03eH
	DB	0d7H
	DB	03eH
	DB	0d7H
	DB	03eH
	DB	0d7H
	DB	03eH
	DB	0dfH
	DB	03eH
	DB	0d7H
	DB	03eH
	DB	0d7H
	DB	03eH
	DB	0dfH
	DB	03eH
	DB	0d7H
	DB	03eH
	DB	0d7H
	DB	03eH
	DB	0dfH
	DB	03eH
	DB	0d7H
	DB	03eH
	DB	0d7H
	DB	07cH
	DB	0beH
	DB	03eH
	DB	0dfH
	DB	03eH
	DB	0dfH
	DB	03eH
	DB	0d7H
	DB	03eH
	DB	0dfH
	DB	03eH
	DB	0d7H
	DB	03eH
	DB	0d7H
	DB	03eH
	DB	0dfH
	DB	03eH
	DB	0d7H
	DB	03eH
	DB	0d7H
	DB	03eH
	DB	0dfH
	DB	03eH
	DB	0d7H
	DB	03eH
	DB	0dfH
	DB	03eH
	DB	0dfH
	DB	03eH
	DB	0d7H
	DB	03eH
	DB	0dfH
	DB	03eH
	DB	0d7H
	DB	03eH
	DB	0dfH
	DB	03eH
	DB	0d7H
	DB	03eH
	DB	0dfH
	DB	03eH
	DB	0d7H
	DB	03eH
	DB	0d7H
	DB	03eH
	DB	0dfH
	DB	03eH
	DB	0d7H
	DB	0d9H
	DB	0adH
	DB	06cH
	DB	03aH
	DB	0f9H
	DB	0adH
	DB	03eH
	DB	0dfH
	DB	03eH
	DB	0d7H
	DB	0d9H
	DB	0adH
	DB	06cH
	DB	03aH
	DB	06dH
	DB	032H
	DB	06dH
	DB	03aH
	DB	0b1H
	DB	063H
	DB	03eH
	DB	0d7H
	DB	0fdH
	DB	0d6H
	DB	06dH
	DB	03aH
	DB	0b5H
	DB	084H
	DB	0ceH
	DB	042H
	DB	0ceH
	DB	04aH
	DB	04fH
	DB	053H
	DB	0b5H
	DB	084H
	DB	06cH
	DB	03aH
	DB	0fdH
	DB	0ceH
	DB	03eH
	DB	0d7H
	DB	0b1H
	DB	063H
	DB	04dH
	DB	032H
	DB	06cH
	DB	03aH
	DB	06dH
	DB	032H
	DB	0b5H
	DB	084H
	DB	03eH
	DB	0dfH
	DB	0d9H
	DB	0adH
	DB	06dH
	DB	032H
	DB	06cH
	DB	03aH
	DB	06dH
	DB	03aH
	DB	0b1H
	DB	063H
	DB	03eH
	DB	0d7H
	DB	0fdH
	DB	0ceH
	DB	06cH
	DB	03aH
	DB	06dH
	DB	03aH
	DB	06dH
	DB	032H
	DB	02fH
	DB	053H
	DB	0fdH
	DB	0d6H
	DB	03eH
	DB	0d7H
	DB	03eH
	DB	0d7H
	DB	053H
	DB	07cH
	DB	0b1H
	DB	063H
	DB	03aH
	DB	0b6H
	DB	06dH
	DB	03aH
	DB	098H
	DB	0a5H
	DB	03eH
	DB	0d7H
	DB	03eH
	DB	0d7H
	DB	0fdH
	DB	0d6H
	DB	06dH
	DB	032H
	DB	0f6H
	DB	094H
	DB	03eH
	DB	0d7H
	DB	03eH
	DB	0d7H
	DB	03eH
	DB	0d7H
	DB	0b1H
	DB	063H
	DB	0b1H
	DB	063H
	DB	03eH
	DB	0d7H
	DB	03eH
	DB	0d7H
	DB	0f5H
	DB	094H
	DB	06cH
	DB	032H
	DB	0fdH
	DB	0ceH
	DB	0fdH
	DB	0ceH
	DB	06dH
	DB	03aH
	DB	06cH
	DB	032H
	DB	06dH
	DB	032H
	DB	030H
	DB	053H
	DB	0fdH
	DB	0d6H
	DB	03eH
	DB	0d7H
	DB	0fdH
	DB	0d6H
	DB	06dH
	DB	03aH
	DB	06dH
	DB	03aH
	DB	06dH
	DB	03aH
	DB	06dH
	DB	032H
	DB	0fdH
	DB	0d6H
	DB	03eH
	DB	0d7H
	DB	03eH
	DB	0dfH
	DB	03eH
	DB	0d7H
	DB	03eH
	DB	0d7H
	DB	03eH
	DB	0dfH
	DB	03eH
	DB	0dfH
	DB	03eH
	DB	0d7H
	DB	03eH
	DB	0dfH
	DB	03eH
	DB	0dfH
	DB	03eH
	DB	0dfH
	DB	03eH
	DB	0d7H
	DB	03eH
	DB	0dfH
	DB	03eH
	DB	0dfH
	DB	03eH
	DB	0d7H
	DB	03eH
	DB	0d7H
	DB	03eH
	DB	0dfH
	DB	03eH
	DB	0d7H
	DB	03eH
	DB	0d7H
	DB	03eH
	DB	0dfH
	DB	03eH
	DB	0d7H
	DB	03eH
	DB	0d7H
	DB	03eH
	DB	0dfH
	DB	07cH
	DB	0beH
	DB	03eH
	DB	0d7H
	DB	03dH
	DB	0dfH
	DB	03eH
	DB	0dfH
	DB	03eH
	DB	0d7H
	DB	03dH
	DB	0dfH
	DB	03eH
	DB	0dfH
	DB	03eH
	DB	0dfH
	DB	03dH
	DB	0d7H
	DB	03eH
	DB	0dfH
	DB	03eH
	DB	0dfH
	DB	03eH
	DB	0d7H
	DB	03eH
	DB	0d7H
	DB	03eH
	DB	0dfH
	DB	03eH
	DB	0dfH
	DB	03eH
	DB	0d7H
	DB	03eH
	DB	0dfH
	DB	03eH
	DB	0d7H
	DB	03eH
	DB	0dfH
	DB	03eH
	DB	0dfH
	DB	03eH
	DB	0d7H
	DB	03eH
	DB	0dfH
	DB	03eH
	DB	0dfH
	DB	03eH
	DB	0d7H
	DB	0d9H
	DB	0adH
	DB	06cH
	DB	03aH
	DB	0d9H
	DB	0adH
	DB	03eH
	DB	0dfH
	DB	03eH
	DB	0dfH
	DB	0d9H
	DB	0adH
	DB	04cH
	DB	032H
	DB	0d9H
	DB	0adH
	DB	0fdH
	DB	0d6H
	DB	01eH
	DB	0d7H
	DB	03eH
	DB	0dfH
	DB	0fdH
	DB	0ceH
	DB	06cH
	DB	03aH
	DB	0f6H
	DB	094H
	DB	057H
	DB	09dH
	DB	06dH
	DB	03aH
	DB	057H
	DB	09dH
	DB	0f6H
	DB	094H
	DB	06dH
	DB	03aH
	DB	0fdH
	DB	0ceH
	DB	01eH
	DB	0dfH
	DB	091H
	DB	063H
	DB	02fH
	DB	053H
	DB	0f6H
	DB	094H
	DB	0d9H
	DB	0adH
	DB	03dH
	DB	0dfH
	DB	03eH
	DB	0d7H
	DB	0d9H
	DB	0adH
	DB	04cH
	DB	03aH
	DB	0d9H
	DB	0adH
	DB	0fdH
	DB	0ceH
	DB	01eH
	DB	0d7H
	DB	03eH
	DB	0dfH
	DB	0fdH
	DB	0ceH
	DB	04cH
	DB	03aH
	DB	053H
	DB	07cH
	DB	057H
	DB	09dH
	DB	06dH
	DB	03aH
	DB	057H
	DB	09dH
	DB	03eH
	DB	0dfH
	DB	03eH
	DB	0dfH
	DB	0ceH
	DB	04aH
	DB	02fH
	DB	053H
	DB	0b1H
	DB	063H
	DB	06dH
	DB	03aH
	DB	053H
	DB	07cH
	DB	03eH
	DB	0d7H
	DB	03dH
	DB	0dfH
	DB	0fdH
	DB	0ceH
	DB	06cH
	DB	03aH
	DB	0f6H
	DB	094H
	DB	03eH
	DB	0d7H
	DB	03dH
	DB	0dfH
	DB	03eH
	DB	0d7H
	DB	091H
	DB	063H
	DB	091H
	DB	063H
	DB	03dH
	DB	0d7H
	DB	03eH
	DB	0dfH
	DB	0f6H
	DB	094H
	DB	06dH
	DB	032H
	DB	0fdH
	DB	0d6H
	DB	0fdH
	DB	0d6H
	DB	04cH
	DB	032H
	DB	053H
	DB	07cH
	DB	057H
	DB	09dH
	DB	06cH
	DB	03aH
	DB	057H
	DB	09dH
	DB	03eH
	DB	0d7H
	DB	0fdH
	DB	0ceH
	DB	06cH
	DB	03aH
	DB	0f6H
	DB	094H
	DB	0fdH
	DB	0ceH
	DB	0fdH
	DB	0ceH
	DB	01eH
	DB	0dfH
	DB	03eH
	DB	0dfH
	DB	03eH
	DB	0d7H
	DB	03eH
	DB	0dfH
	DB	03eH
	DB	0dfH
	DB	03eH
	DB	0d7H
	DB	03eH
	DB	0dfH
	DB	03eH
	DB	0dfH
	DB	03eH
	DB	0d7H
	DB	03eH
	DB	0dfH
	DB	03eH
	DB	0d7H
	DB	03eH
	DB	0dfH
	DB	03eH
	DB	0dfH
	DB	03eH
	DB	0d7H
	DB	03eH
	DB	0dfH
	DB	03dH
	DB	0dfH
	DB	03eH
	DB	0dfH
	DB	03eH
	DB	0d7H
	DB	03eH
	DB	0dfH
	DB	03dH
	DB	0dfH
	DB	03eH
	DB	0d7H
	DB	03eH
	DB	0dfH
	DB	03dH
	DB	0dfH
	DB	05cH
	DB	0beH
	DB	03eH
	DB	0d7H
	DB	01eH
	DB	0d7H
	DB	03eH
	DB	0d7H
	DB	03dH
	DB	0d7H
	DB	01eH
	DB	0d7H
	DB	03eH
	DB	0d7H
	DB	03eH
	DB	0d7H
	DB	01eH
	DB	0d7H
	DB	03dH
	DB	0d7H
	DB	03eH
	DB	0dfH
	DB	01dH
	DB	0d7H
	DB	03eH
	DB	0d7H
	DB	03dH
	DB	0d7H
	DB	01eH
	DB	0d7H
	DB	01dH
	DB	0d7H
	DB	03eH
	DB	0d7H
	DB	01dH
	DB	0d7H
	DB	03eH
	DB	0d7H
	DB	01dH
	DB	0d7H
	DB	03eH
	DB	0d7H
	DB	01dH
	DB	0dfH
	DB	03eH
	DB	0d7H
	DB	03eH
	DB	0d7H
	DB	0d9H
	DB	0adH
	DB	06dH
	DB	03aH
	DB	0d9H
	DB	0adH
	DB	01eH
	DB	0d7H
	DB	03eH
	DB	0d7H
	DB	0d9H
	DB	0adH
	DB	06cH
	DB	03aH
	DB	057H
	DB	09dH
	DB	0d9H
	DB	0adH
	DB	0d9H
	DB	0adH
	DB	03dH
	DB	0d7H
	DB	0ddH
	DB	0ceH
	DB	06cH
	DB	032H
	DB	0f5H
	DB	094H
	DB	03eH
	DB	0d7H
	DB	0d9H
	DB	0adH
	DB	03eH
	DB	0d7H
	DB	0f5H
	DB	094H
	DB	06cH
	DB	032H
	DB	0fdH
	DB	0ceH
	DB	03eH
	DB	0dfH
	DB	091H
	DB	063H
	DB	0b1H
	DB	063H
	DB	03eH
	DB	0d7H
	DB	03eH
	DB	0d7H
	DB	03dH
	DB	0dfH
	DB	03eH
	DB	0d7H
	DB	0d9H
	DB	0adH
	DB	06cH
	DB	03aH
	DB	057H
	DB	09dH
	DB	0d9H
	DB	0adH
	DB	0d9H
	DB	0adH
	DB	03dH
	DB	0d7H
	DB	0fdH
	DB	0d6H
	DB	04dH
	DB	032H
	DB	0f6H
	DB	094H
	DB	03eH
	DB	0d7H
	DB	02fH
	DB	053H
	DB	0f2H
	DB	06bH
	DB	03eH
	DB	0d7H
	DB	098H
	DB	0a5H
	DB	06cH
	DB	032H
	DB	0f6H
	DB	094H
	DB	0f6H
	DB	094H
	DB	0f2H
	DB	06bH
	DB	0ceH
	DB	042H
	DB	03eH
	DB	0dfH
	DB	03eH
	DB	0d7H
	DB	0ddH
	DB	0ceH
	DB	06cH
	DB	03aH
	DB	0f6H
	DB	094H
	DB	03eH
	DB	0d7H
	DB	03dH
	DB	0d7H
	DB	01eH
	DB	0dfH
	DB	0f2H
	DB	073H
	DB	0ceH
	DB	042H
	DB	098H
	DB	0a5H
	DB	098H
	DB	0a5H
	DB	0ceH
	DB	042H
	DB	02fH
	DB	053H
	DB	03eH
	DB	0d7H
	DB	0fdH
	DB	0d6H
	DB	06dH
	DB	032H
	DB	0f6H
	DB	094H
	DB	03eH
	DB	0d7H
	DB	02fH
	DB	053H
	DB	0f2H
	DB	073H
	DB	03eH
	DB	0d7H
	DB	0fdH
	DB	0ceH
	DB	04cH
	DB	032H
	DB	053H
	DB	07cH
	DB	0d9H
	DB	0adH
	DB	0d9H
	DB	0adH
	DB	0fdH
	DB	0ceH
	DB	03dH
	DB	0d7H
	DB	01dH
	DB	0d7H
	DB	03eH
	DB	0d7H
	DB	01dH
	DB	0d7H
	DB	03eH
	DB	0d7H
	DB	03dH
	DB	0d7H
	DB	01eH
	DB	0d7H
	DB	03dH
	DB	0d7H
	DB	03eH
	DB	0d7H
	DB	01dH
	DB	0d7H
	DB	03dH
	DB	0d7H
	DB	03eH
	DB	0d7H
	DB	01eH
	DB	0d7H
	DB	03dH
	DB	0d7H
	DB	03eH
	DB	0d7H
	DB	01eH
	DB	0d7H
	DB	03eH
	DB	0d7H
	DB	03dH
	DB	0d7H
	DB	01eH
	DB	0d7H
	DB	03eH
	DB	0d7H
	DB	03dH
	DB	0d7H
	DB	01eH
	DB	0d7H
	DB	07cH
	DB	0beH
	DB	03eH
	DB	0d7H
	DB	03eH
	DB	0dfH
	DB	03dH
	DB	0d7H
	DB	03eH
	DB	0dfH
	DB	01eH
	DB	0d7H
	DB	03dH
	DB	0dfH
	DB	03eH
	DB	0dfH
	DB	03eH
	DB	0d7H
	DB	03eH
	DB	0d7H
	DB	03eH
	DB	0dfH
	DB	01eH
	DB	0d7H
	DB	03dH
	DB	0dfH
	DB	03eH
	DB	0dfH
	DB	03eH
	DB	0d7H
	DB	03eH
	DB	0dfH
	DB	03eH
	DB	0dfH
	DB	03eH
	DB	0d7H
	DB	03dH
	DB	0dfH
	DB	03eH
	DB	0d7H
	DB	01eH
	DB	0dfH
	DB	03eH
	DB	0d7H
	DB	03dH
	DB	0d7H
	DB	01eH
	DB	0dfH
	DB	0d9H
	DB	0adH
	DB	06cH
	DB	03aH
	DB	0d9H
	DB	0adH
	DB	03dH
	DB	0d7H
	DB	03eH
	DB	0d7H
	DB	0d9H
	DB	0adH
	DB	06dH
	DB	03aH
	DB	06cH
	DB	03aH
	DB	06cH
	DB	032H
	DB	06dH
	DB	03aH
	DB	0fdH
	DB	0d6H
	DB	0fdH
	DB	0ceH
	DB	06dH
	DB	03aH
	DB	057H
	DB	09dH
	DB	03eH
	DB	0d7H
	DB	03eH
	DB	0d7H
	DB	03eH
	DB	0d7H
	DB	0f5H
	DB	094H
	DB	04dH
	DB	03aH
	DB	0fdH
	DB	0ceH
	DB	03dH
	DB	0d7H
	DB	091H
	DB	063H
	DB	0b1H
	DB	063H
	DB	03dH
	DB	0d7H
	DB	01eH
	DB	0dfH
	DB	03eH
	DB	0d7H
	DB	03eH
	DB	0d7H
	DB	0d9H
	DB	0adH
	DB	06dH
	DB	03aH
	DB	06cH
	DB	032H
	DB	06dH
	DB	03aH
	DB	06cH
	DB	03aH
	DB	0fdH
	DB	0ceH
	DB	0fdH
	DB	0ceH
	DB	06cH
	DB	03aH
	DB	0f6H
	DB	094H
	DB	03eH
	DB	0d7H
	DB	057H
	DB	09dH
	DB	06cH
	DB	03aH
	DB	05bH
	DB	0beH
	DB	0f2H
	DB	073H
	DB	0b1H
	DB	063H
	DB	03eH
	DB	0d7H
	DB	03eH
	DB	0d7H
	DB	01aH
	DB	0b6H
	DB	06cH
	DB	03aH
	DB	098H
	DB	0a5H
	DB	03eH
	DB	0d7H
	DB	0fdH
	DB	0ceH
	DB	04cH
	DB	03aH
	DB	0f6H
	DB	094H
	DB	03eH
	DB	0d7H
	DB	03eH
	DB	0d7H
	DB	03eH
	DB	0d7H
	DB	05bH
	DB	0beH
	DB	012H
	DB	074H
	DB	06cH
	DB	03aH
	DB	06dH
	DB	032H
	DB	02fH
	DB	05bH
	DB	05bH
	DB	0beH
	DB	03eH
	DB	0d7H
	DB	0fdH
	DB	0ceH
	DB	06cH
	DB	03aH
	DB	0f6H
	DB	094H
	DB	03eH
	DB	0d7H
	DB	057H
	DB	09dH
	DB	06cH
	DB	03aH
	DB	05bH
	DB	0beH
	DB	0fdH
	DB	0d6H
	DB	06dH
	DB	03aH
	DB	06dH
	DB	032H
	DB	06cH
	DB	03aH
	DB	06cH
	DB	03aH
	DB	0d9H
	DB	0adH
	DB	03eH
	DB	0d7H
	DB	03eH
	DB	0dfH
	DB	01eH
	DB	0dfH
	DB	03eH
	DB	0d7H
	DB	03dH
	DB	0dfH
	DB	01eH
	DB	0d7H
	DB	03eH
	DB	0dfH
	DB	03eH
	DB	0dfH
	DB	01eH
	DB	0d7H
	DB	03eH
	DB	0dfH
	DB	03eH
	DB	0d7H
	DB	01eH
	DB	0dfH
	DB	03dH
	DB	0d7H
	DB	03eH
	DB	0dfH
	DB	03eH
	DB	0d7H
	DB	01eH
	DB	0dfH
	DB	03dH
	DB	0dfH
	DB	03eH
	DB	0d7H
	DB	01eH
	DB	0dfH
	DB	03eH
	DB	0dfH
	DB	03eH
	DB	0d7H
	DB	03eH
	DB	0dfH
	DB	07cH
	DB	0beH
	DB	01eH
	DB	0d7H
	DB	01eH
	DB	0dfH
	DB	01eH
	DB	0d7H
	DB	01eH
	DB	0d7H
	DB	03eH
	DB	0dfH
	DB	01dH
	DB	0d7H
	DB	01eH
	DB	0d7H
	DB	01eH
	DB	0dfH
	DB	01dH
	DB	0d7H
	DB	01eH
	DB	0d7H
	DB	03eH
	DB	0dfH
	DB	01eH
	DB	0d7H
	DB	01eH
	DB	0d7H
	DB	01eH
	DB	0d7H
	DB	01dH
	DB	0dfH
	DB	01eH
	DB	0d7H
	DB	01eH
	DB	0d7H
	DB	01eH
	DB	0dfH
	DB	03eH
	DB	0dfH
	DB	01eH
	DB	0d7H
	DB	01eH
	DB	0d7H
	DB	03dH
	DB	0dfH
	DB	01eH
	DB	0d7H
	DB	01eH
	DB	0d7H
	DB	0fdH
	DB	0ceH
	DB	01eH
	DB	0dfH
	DB	03eH
	DB	0dfH
	DB	01dH
	DB	0d7H
	DB	01eH
	DB	0d7H
	DB	0fdH
	DB	0ceH
	DB	0fdH
	DB	0ceH
	DB	0ddH
	DB	0ceH
	DB	0fdH
	DB	0ceH
	DB	01eH
	DB	0d7H
	DB	01eH
	DB	0dfH
	DB	0fdH
	DB	0ceH
	DB	01eH
	DB	0d7H
	DB	01dH
	DB	0dfH
	DB	01eH
	DB	0d7H
	DB	01eH
	DB	0d7H
	DB	01eH
	DB	0d7H
	DB	0fdH
	DB	0d6H
	DB	01eH
	DB	0d7H
	DB	01eH
	DB	0d7H
	DB	03eH
	DB	0dfH
	DB	01dH
	DB	0d7H
	DB	01eH
	DB	0dfH
	DB	01eH
	DB	0d7H
	DB	01eH
	DB	0dfH
	DB	01dH
	DB	0d7H
	DB	01eH
	DB	0d7H
	DB	0fdH
	DB	0ceH
	DB	0fdH
	DB	0ceH
	DB	0ddH
	DB	0ceH
	DB	0fdH
	DB	0d6H
	DB	01eH
	DB	0d7H
	DB	01eH
	DB	0d7H
	DB	0fdH
	DB	0ceH
	DB	01dH
	DB	0d7H
	DB	01eH
	DB	0d7H
	DB	03eH
	DB	0dfH
	DB	0fdH
	DB	0ceH
	DB	01eH
	DB	0d7H
	DB	01eH
	DB	0d7H
	DB	03eH
	DB	0dfH
	DB	01dH
	DB	0d7H
	DB	01eH
	DB	0d7H
	DB	03eH
	DB	0dfH
	DB	0fdH
	DB	0ceH
	DB	01eH
	DB	0d7H
	DB	01eH
	DB	0dfH
	DB	03eH
	DB	0d7H
	DB	0fdH
	DB	0ceH
	DB	01eH
	DB	0d7H
	DB	01dH
	DB	0d7H
	DB	01eH
	DB	0dfH
	DB	03eH
	DB	0d7H
	DB	03dH
	DB	0d7H
	DB	01eH
	DB	0dfH
	DB	0fdH
	DB	0ceH
	DB	0fdH
	DB	0ceH
	DB	03eH
	DB	0dfH
	DB	01eH
	DB	0dfH
	DB	01eH
	DB	0d7H
	DB	01dH
	DB	0dfH
	DB	0fdH
	DB	0ceH
	DB	01eH
	DB	0d7H
	DB	01eH
	DB	0d7H
	DB	03eH
	DB	0dfH
	DB	0fdH
	DB	0ceH
	DB	01eH
	DB	0d7H
	DB	01eH
	DB	0d7H
	DB	0fdH
	DB	0d6H
	DB	0fdH
	DB	0ceH
	DB	0fdH
	DB	0ceH
	DB	0ddH
	DB	0ceH
	DB	01eH
	DB	0dfH
	DB	01eH
	DB	0d7H
	DB	03eH
	DB	0d7H
	DB	01eH
	DB	0dfH
	DB	01eH
	DB	0d7H
	DB	03eH
	DB	0d7H
	DB	01eH
	DB	0dfH
	DB	01dH
	DB	0d7H
	DB	01eH
	DB	0d7H
	DB	01eH
	DB	0dfH
	DB	03dH
	DB	0d7H
	DB	01eH
	DB	0dfH
	DB	01eH
	DB	0d7H
	DB	01eH
	DB	0dfH
	DB	01eH
	DB	0d7H
	DB	01dH
	DB	0d7H
	DB	03eH
	DB	0dfH
	DB	01eH
	DB	0d7H
	DB	01eH
	DB	0d7H
	DB	03dH
	DB	0dfH
	DB	01eH
	DB	0d7H
	DB	01eH
	DB	0d7H
	DB	01dH
	DB	0dfH
	DB	07cH
	DB	0c6H
	DB	03eH
	DB	0d7H
	DB	03dH
	DB	0d7H
	DB	03eH
	DB	0dfH
	DB	03eH
	DB	0d7H
	DB	03dH
	DB	0d7H
	DB	03eH
	DB	0dfH
	DB	03eH
	DB	0d7H
	DB	03eH
	DB	0d7H
	DB	03dH
	DB	0dfH
	DB	03eH
	DB	0d7H
	DB	03eH
	DB	0d7H
	DB	03dH
	DB	0dfH
	DB	03eH
	DB	0d7H
	DB	03eH
	DB	0d7H
	DB	03dH
	DB	0dfH
	DB	03eH
	DB	0d7H
	DB	03eH
	DB	0d7H
	DB	03dH
	DB	0d7H
	DB	03eH
	DB	0d7H
	DB	03dH
	DB	0d7H
	DB	03eH
	DB	0dfH
	DB	03eH
	DB	0d7H
	DB	03dH
	DB	0dfH
	DB	03eH
	DB	0d7H
	DB	03eH
	DB	0d7H
	DB	03dH
	DB	0d7H
	DB	03eH
	DB	0dfH
	DB	03eH
	DB	0dfH
	DB	03eH
	DB	0d7H
	DB	03eH
	DB	0dfH
	DB	03eH
	DB	0dfH
	DB	03eH
	DB	0d7H
	DB	03dH
	DB	0dfH
	DB	03eH
	DB	0d7H
	DB	03dH
	DB	0d7H
	DB	03eH
	DB	0d7H
	DB	03eH
	DB	0d7H
	DB	03dH
	DB	0dfH
	DB	03eH
	DB	0dfH
	DB	03eH
	DB	0d7H
	DB	03dH
	DB	0d7H
	DB	03eH
	DB	0dfH
	DB	03eH
	DB	0d7H
	DB	03dH
	DB	0d7H
	DB	03eH
	DB	0dfH
	DB	03eH
	DB	0d7H
	DB	03eH
	DB	0d7H
	DB	03eH
	DB	0dfH
	DB	03dH
	DB	0d7H
	DB	03eH
	DB	0dfH
	DB	03eH
	DB	0dfH
	DB	03eH
	DB	0d7H
	DB	03eH
	DB	0dfH
	DB	01eH
	DB	0d7H
	DB	03eH
	DB	0d7H
	DB	03dH
	DB	0dfH
	DB	03eH
	DB	0dfH
	DB	03eH
	DB	0d7H
	DB	03eH
	DB	0d7H
	DB	03dH
	DB	0dfH
	DB	03eH
	DB	0d7H
	DB	03eH
	DB	0d7H
	DB	03dH
	DB	0dfH
	DB	03eH
	DB	0d7H
	DB	03eH
	DB	0d7H
	DB	03dH
	DB	0dfH
	DB	03eH
	DB	0d7H
	DB	03eH
	DB	0dfH
	DB	03dH
	DB	0d7H
	DB	03eH
	DB	0d7H
	DB	03dH
	DB	0dfH
	DB	03eH
	DB	0d7H
	DB	03eH
	DB	0d7H
	DB	03dH
	DB	0dfH
	DB	03eH
	DB	0dfH
	DB	03eH
	DB	0d7H
	DB	03dH
	DB	0dfH
	DB	03eH
	DB	0d7H
	DB	03eH
	DB	0d7H
	DB	03eH
	DB	0dfH
	DB	03eH
	DB	0d7H
	DB	03dH
	DB	0d7H
	DB	03eH
	DB	0d7H
	DB	03eH
	DB	0dfH
	DB	03eH
	DB	0d7H
	DB	03eH
	DB	0d7H
	DB	03dH
	DB	0dfH
	DB	03dH
	DB	0d7H
	DB	03eH
	DB	0d7H
	DB	03eH
	DB	0dfH
	DB	03dH
	DB	0d7H
	DB	03eH
	DB	0d7H
	DB	03dH
	DB	0dfH
	DB	01eH
	DB	0d7H
	DB	03eH
	DB	0d7H
	DB	03eH
	DB	0dfH
	DB	03dH
	DB	0d7H
	DB	03eH
	DB	0d7H
	DB	03dH
	DB	0dfH
	DB	03dH
	DB	0d7H
	DB	03eH
	DB	0d7H
	DB	03eH
	DB	0dfH
	DB	03dH
	DB	0d7H
	DB	03eH
	DB	0d7H
	DB	03eH
	DB	0d7H
	DB	03dH
	DB	0d7H
	DB	03eH
	DB	0dfH
	DB	03eH
	DB	0d7H
	DB	03dH
	DB	0d7H
	DB	03eH
	DB	0d7H
	DB	03eH
	DB	0dfH
	DB	03dH
	DB	0d7H
	DB	03eH
	DB	0d7H
	DB	03eH
	DB	0d7H
	DB	03dH
	DB	0dfH
	DB	03eH
	DB	0d7H
	DB	03eH
	DB	0d7H
	DB	03dH
	DB	0d7H
	DB	03eH
	DB	0d7H
	DB	07cH
	DB	0c6H
	DB	03eH
	DB	0dfH
	DB	03eH
	DB	0dfH
	DB	03eH
	DB	0dfH
	DB	03eH
	DB	0dfH
	DB	03eH
	DB	0d7H
	DB	03eH
	DB	0dfH
	DB	03eH
	DB	0dfH
	DB	03eH
	DB	0dfH
	DB	03eH
	DB	0dfH
	DB	03eH
	DB	0d7H
	DB	03eH
	DB	0dfH
	DB	03eH
	DB	0dfH
	DB	03eH
	DB	0dfH
	DB	03eH
	DB	0dfH
	DB	03eH
	DB	0d7H
	DB	03eH
	DB	0dfH
	DB	03eH
	DB	0dfH
	DB	03eH
	DB	0dfH
	DB	03eH
	DB	0dfH
	DB	03eH
	DB	0dfH
	DB	03eH
	DB	0d7H
	DB	03eH
	DB	0dfH
	DB	03eH
	DB	0dfH
	DB	03eH
	DB	0dfH
	DB	03eH
	DB	0dfH
	DB	03eH
	DB	0d7H
	DB	01eH
	DB	0d7H
	DB	03eH
	DB	0dfH
	DB	03eH
	DB	0dfH
	DB	01eH
	DB	0d7H
	DB	03eH
	DB	0dfH
	DB	01eH
	DB	0dfH
	DB	03eH
	DB	0dfH
	DB	03eH
	DB	0dfH
	DB	01eH
	DB	0dfH
	DB	03eH
	DB	0dfH
	DB	03eH
	DB	0d7H
	DB	03eH
	DB	0dfH
	DB	03eH
	DB	0dfH
	DB	03eH
	DB	0d7H
	DB	03eH
	DB	0dfH
	DB	03eH
	DB	0dfH
	DB	03eH
	DB	0dfH
	DB	03eH
	DB	0d7H
	DB	03eH
	DB	0dfH
	DB	03eH
	DB	0dfH
	DB	03eH
	DB	0d7H
	DB	03eH
	DB	0dfH
	DB	03eH
	DB	0d7H
	DB	03eH
	DB	0dfH
	DB	03eH
	DB	0dfH
	DB	03eH
	DB	0d7H
	DB	01dH
	DB	0dfH
	DB	03eH
	DB	0dfH
	DB	03eH
	DB	0d7H
	DB	03eH
	DB	0dfH
	DB	01eH
	DB	0dfH
	DB	03eH
	DB	0dfH
	DB	03eH
	DB	0dfH
	DB	03eH
	DB	0dfH
	DB	01eH
	DB	0d7H
	DB	03eH
	DB	0dfH
	DB	03eH
	DB	0dfH
	DB	03eH
	DB	0dfH
	DB	03eH
	DB	0d7H
	DB	03eH
	DB	0dfH
	DB	03eH
	DB	0dfH
	DB	01eH
	DB	0d7H
	DB	03eH
	DB	0dfH
	DB	03eH
	DB	0dfH
	DB	03eH
	DB	0dfH
	DB	01eH
	DB	0dfH
	DB	03eH
	DB	0d7H
	DB	03eH
	DB	0dfH
	DB	03eH
	DB	0d7H
	DB	03eH
	DB	0dfH
	DB	01eH
	DB	0dfH
	DB	03eH
	DB	0dfH
	DB	01eH
	DB	0d7H
	DB	03eH
	DB	0dfH
	DB	01eH
	DB	0dfH
	DB	03eH
	DB	0d7H
	DB	03eH
	DB	0dfH
	DB	03eH
	DB	0dfH
	DB	03eH
	DB	0d7H
	DB	03eH
	DB	0dfH
	DB	01eH
	DB	0dfH
	DB	03eH
	DB	0dfH
	DB	01eH
	DB	0d7H
	DB	03eH
	DB	0dfH
	DB	03eH
	DB	0dfH
	DB	03eH
	DB	0dfH
	DB	01eH
	DB	0d7H
	DB	03eH
	DB	0dfH
	DB	03eH
	DB	0dfH
	DB	03eH
	DB	0dfH
	DB	03eH
	DB	0d7H
	DB	03eH
	DB	0dfH
	DB	03eH
	DB	0dfH
	DB	03eH
	DB	0dfH
	DB	03eH
	DB	0dfH
	DB	03eH
	DB	0dfH
	DB	03eH
	DB	0dfH
	DB	03eH
	DB	0dfH
	DB	03eH
	DB	0dfH
	DB	03eH
	DB	0dfH
	DB	03eH
	DB	0d7H
	DB	03eH
	DB	0dfH
	DB	03eH
	DB	0dfH
	DB	03eH
	DB	0dfH
	DB	03eH
	DB	0d7H
	DB	03eH
	DB	0dfH
	DB	03eH
	DB	0dfH
	DB	03eH
	DB	0dfH
	DB	03eH
	DB	0dfH
	DB	03eH
	DB	0dfH
	DB	03eH
	DB	0dfH
	DB	03eH
	DB	0dfH
	DB	03eH
	DB	0d7H
	DB	07cH
	DB	0c6H
	DB	03eH
	DB	0dfH
	DB	03eH
	DB	0dfH
	DB	03eH
	DB	0dfH
	DB	03eH
	DB	0dfH
	DB	03eH
	DB	0dfH
	DB	03eH
	DB	0dfH
	DB	03eH
	DB	0dfH
	DB	03eH
	DB	0dfH
	DB	03eH
	DB	0dfH
	DB	03eH
	DB	0dfH
	DB	03eH
	DB	0dfH
	DB	03eH
	DB	0dfH
	DB	03eH
	DB	0dfH
	DB	03eH
	DB	0dfH
	DB	03eH
	DB	0dfH
	DB	03eH
	DB	0dfH
	DB	03eH
	DB	0dfH
	DB	03eH
	DB	0dfH
	DB	03eH
	DB	0dfH
	DB	03eH
	DB	0dfH
	DB	03eH
	DB	0dfH
	DB	03eH
	DB	0dfH
	DB	03eH
	DB	0dfH
	DB	03eH
	DB	0dfH
	DB	03eH
	DB	0dfH
	DB	03eH
	DB	0dfH
	DB	03eH
	DB	0dfH
	DB	03eH
	DB	0dfH
	DB	03eH
	DB	0dfH
	DB	03eH
	DB	0dfH
	DB	03eH
	DB	0dfH
	DB	03eH
	DB	0dfH
	DB	03eH
	DB	0dfH
	DB	03eH
	DB	0dfH
	DB	03eH
	DB	0dfH
	DB	03eH
	DB	0dfH
	DB	03eH
	DB	0dfH
	DB	03eH
	DB	0dfH
	DB	03eH
	DB	0dfH
	DB	03eH
	DB	0dfH
	DB	03eH
	DB	0dfH
	DB	03eH
	DB	0dfH
	DB	03eH
	DB	0dfH
	DB	03eH
	DB	0dfH
	DB	03eH
	DB	0dfH
	DB	03eH
	DB	0dfH
	DB	03eH
	DB	0dfH
	DB	03eH
	DB	0dfH
	DB	03eH
	DB	0dfH
	DB	03eH
	DB	0dfH
	DB	03eH
	DB	0dfH
	DB	03eH
	DB	0dfH
	DB	03eH
	DB	0dfH
	DB	03eH
	DB	0dfH
	DB	03eH
	DB	0dfH
	DB	03eH
	DB	0dfH
	DB	03eH
	DB	0dfH
	DB	03eH
	DB	0dfH
	DB	03eH
	DB	0dfH
	DB	03eH
	DB	0dfH
	DB	03eH
	DB	0dfH
	DB	03eH
	DB	0dfH
	DB	03eH
	DB	0dfH
	DB	03eH
	DB	0dfH
	DB	03eH
	DB	0dfH
	DB	03eH
	DB	0dfH
	DB	03eH
	DB	0dfH
	DB	03eH
	DB	0dfH
	DB	03eH
	DB	0dfH
	DB	03eH
	DB	0dfH
	DB	03eH
	DB	0dfH
	DB	03eH
	DB	0dfH
	DB	03eH
	DB	0dfH
	DB	03eH
	DB	0dfH
	DB	03eH
	DB	0dfH
	DB	03eH
	DB	0dfH
	DB	03eH
	DB	0dfH
	DB	03eH
	DB	0dfH
	DB	03eH
	DB	0dfH
	DB	03eH
	DB	0dfH
	DB	03eH
	DB	0dfH
	DB	03eH
	DB	0dfH
	DB	03eH
	DB	0dfH
	DB	03eH
	DB	0dfH
	DB	03eH
	DB	0dfH
	DB	03eH
	DB	0dfH
	DB	03eH
	DB	0dfH
	DB	03eH
	DB	0dfH
	DB	03eH
	DB	0dfH
	DB	03eH
	DB	0dfH
	DB	03eH
	DB	0dfH
	DB	03eH
	DB	0dfH
	DB	03eH
	DB	0dfH
	DB	03eH
	DB	0dfH
	DB	03eH
	DB	0dfH
	DB	03eH
	DB	0dfH
	DB	03eH
	DB	0dfH
	DB	03eH
	DB	0dfH
	DB	03eH
	DB	0dfH
	DB	03eH
	DB	0dfH
	DB	03eH
	DB	0dfH
	DB	03eH
	DB	0dfH
	DB	03eH
	DB	0dfH
	DB	03eH
	DB	0dfH
	DB	03eH
	DB	0dfH
	DB	03eH
	DB	0dfH
	DB	03eH
	DB	0dfH
	DB	03eH
	DB	0dfH
	DB	03eH
	DB	0dfH
	DB	03eH
	DB	0dfH
	DB	03eH
	DB	0dfH
	DB	03eH
	DB	0dfH
	DB	03eH
	DB	0dfH
	DB	03eH
	DB	0dfH
	DB	03eH
	DB	0dfH
	DB	03eH
	DB	0dfH
	DB	03eH
	DB	0dfH
	DB	03eH
	DB	0dfH
	DB	03eH
	DB	0dfH
	DB	07cH
	DB	0c6H
	DB	03dH
	DB	0dfH
	DB	05eH
	DB	0dfH
	DB	05eH
	DB	0dfH
	DB	05eH
	DB	0dfH
	DB	05eH
	DB	0dfH
	DB	05eH
	DB	0dfH
	DB	05eH
	DB	0dfH
	DB	05eH
	DB	0dfH
	DB	05eH
	DB	0dfH
	DB	05eH
	DB	0dfH
	DB	05eH
	DB	0dfH
	DB	05eH
	DB	0dfH
	DB	05eH
	DB	0dfH
	DB	05eH
	DB	0dfH
	DB	05eH
	DB	0dfH
	DB	05eH
	DB	0dfH
	DB	05eH
	DB	0dfH
	DB	05eH
	DB	0dfH
	DB	05eH
	DB	0dfH
	DB	05eH
	DB	0dfH
	DB	05eH
	DB	0dfH
	DB	05eH
	DB	0dfH
	DB	05eH
	DB	0dfH
	DB	05eH
	DB	0dfH
	DB	05eH
	DB	0dfH
	DB	05eH
	DB	0dfH
	DB	05eH
	DB	0dfH
	DB	05eH
	DB	0dfH
	DB	05eH
	DB	0dfH
	DB	05eH
	DB	0dfH
	DB	05eH
	DB	0dfH
	DB	05eH
	DB	0dfH
	DB	05eH
	DB	0dfH
	DB	05eH
	DB	0dfH
	DB	05eH
	DB	0dfH
	DB	05eH
	DB	0dfH
	DB	05eH
	DB	0dfH
	DB	05eH
	DB	0dfH
	DB	05eH
	DB	0dfH
	DB	05eH
	DB	0dfH
	DB	05eH
	DB	0dfH
	DB	05eH
	DB	0dfH
	DB	05eH
	DB	0dfH
	DB	05eH
	DB	0dfH
	DB	05eH
	DB	0dfH
	DB	05eH
	DB	0dfH
	DB	05eH
	DB	0dfH
	DB	05eH
	DB	0dfH
	DB	05eH
	DB	0dfH
	DB	05eH
	DB	0dfH
	DB	05eH
	DB	0dfH
	DB	05eH
	DB	0dfH
	DB	05eH
	DB	0dfH
	DB	05eH
	DB	0dfH
	DB	05eH
	DB	0dfH
	DB	05eH
	DB	0dfH
	DB	05eH
	DB	0dfH
	DB	05eH
	DB	0dfH
	DB	05eH
	DB	0dfH
	DB	05eH
	DB	0dfH
	DB	05eH
	DB	0dfH
	DB	05eH
	DB	0dfH
	DB	05eH
	DB	0dfH
	DB	05eH
	DB	0dfH
	DB	05eH
	DB	0dfH
	DB	05eH
	DB	0dfH
	DB	05eH
	DB	0dfH
	DB	05eH
	DB	0dfH
	DB	05eH
	DB	0dfH
	DB	05eH
	DB	0dfH
	DB	05eH
	DB	0dfH
	DB	05eH
	DB	0dfH
	DB	05eH
	DB	0dfH
	DB	05eH
	DB	0dfH
	DB	05eH
	DB	0dfH
	DB	05eH
	DB	0dfH
	DB	05eH
	DB	0dfH
	DB	05eH
	DB	0dfH
	DB	05eH
	DB	0dfH
	DB	05eH
	DB	0dfH
	DB	05eH
	DB	0dfH
	DB	05eH
	DB	0dfH
	DB	05eH
	DB	0dfH
	DB	05eH
	DB	0dfH
	DB	05eH
	DB	0dfH
	DB	05eH
	DB	0dfH
	DB	05eH
	DB	0dfH
	DB	05eH
	DB	0dfH
	DB	05eH
	DB	0dfH
	DB	05eH
	DB	0dfH
	DB	05eH
	DB	0dfH
	DB	05eH
	DB	0dfH
	DB	05eH
	DB	0dfH
	DB	05eH
	DB	0dfH
	DB	05eH
	DB	0dfH
	DB	05eH
	DB	0dfH
	DB	05eH
	DB	0dfH
	DB	05eH
	DB	0dfH
	DB	05eH
	DB	0dfH
	DB	05eH
	DB	0dfH
	DB	05eH
	DB	0dfH
	DB	05eH
	DB	0dfH
	DB	05eH
	DB	0dfH
	DB	05eH
	DB	0dfH
	DB	05eH
	DB	0dfH
	DB	05eH
	DB	0dfH
	DB	05eH
	DB	0dfH
	DB	05eH
	DB	0dfH
	DB	05eH
	DB	0dfH
	DB	05eH
	DB	0dfH
	DB	05eH
	DB	0dfH
	DB	05eH
	DB	0dfH
	DB	05eH
	DB	0dfH
	DB	05eH
	DB	0dfH
	DB	05eH
	DB	0dfH
	DB	05eH
	DB	0dfH
	DB	05eH
	DB	0dfH
	DB	05eH
	DB	0dfH
	DB	05eH
	DB	0dfH
	DB	09cH
	DB	0c6H
	DB	0d8H
	DB	0b5H
	DB	07eH
	DB	0e7H
	DB	07eH
	DB	0e7H
	DB	07eH
	DB	0e7H
	DB	07eH
	DB	0e7H
	DB	07eH
	DB	0e7H
	DB	07eH
	DB	0e7H
	DB	07eH
	DB	0e7H
	DB	07eH
	DB	0e7H
	DB	07eH
	DB	0e7H
	DB	07eH
	DB	0e7H
	DB	07eH
	DB	0e7H
	DB	07eH
	DB	0e7H
	DB	07eH
	DB	0e7H
	DB	07eH
	DB	0e7H
	DB	07eH
	DB	0e7H
	DB	07eH
	DB	0e7H
	DB	07eH
	DB	0e7H
	DB	07eH
	DB	0e7H
	DB	07eH
	DB	0e7H
	DB	07eH
	DB	0e7H
	DB	07eH
	DB	0e7H
	DB	07eH
	DB	0e7H
	DB	07eH
	DB	0e7H
	DB	07eH
	DB	0e7H
	DB	07eH
	DB	0e7H
	DB	07eH
	DB	0e7H
	DB	07eH
	DB	0e7H
	DB	07eH
	DB	0e7H
	DB	07eH
	DB	0e7H
	DB	07eH
	DB	0e7H
	DB	07eH
	DB	0e7H
	DB	07eH
	DB	0e7H
	DB	07eH
	DB	0e7H
	DB	07eH
	DB	0e7H
	DB	07eH
	DB	0e7H
	DB	07eH
	DB	0e7H
	DB	07eH
	DB	0e7H
	DB	07eH
	DB	0e7H
	DB	07eH
	DB	0e7H
	DB	07eH
	DB	0e7H
	DB	07eH
	DB	0e7H
	DB	07eH
	DB	0e7H
	DB	07eH
	DB	0e7H
	DB	07eH
	DB	0e7H
	DB	07eH
	DB	0e7H
	DB	07eH
	DB	0e7H
	DB	07eH
	DB	0e7H
	DB	07eH
	DB	0e7H
	DB	07eH
	DB	0e7H
	DB	07eH
	DB	0e7H
	DB	07eH
	DB	0e7H
	DB	07eH
	DB	0e7H
	DB	07eH
	DB	0e7H
	DB	07eH
	DB	0e7H
	DB	07eH
	DB	0e7H
	DB	07eH
	DB	0e7H
	DB	07eH
	DB	0e7H
	DB	07eH
	DB	0e7H
	DB	07eH
	DB	0e7H
	DB	07eH
	DB	0e7H
	DB	07eH
	DB	0e7H
	DB	07eH
	DB	0e7H
	DB	07eH
	DB	0e7H
	DB	07eH
	DB	0e7H
	DB	07eH
	DB	0e7H
	DB	07eH
	DB	0e7H
	DB	07eH
	DB	0e7H
	DB	07eH
	DB	0e7H
	DB	07eH
	DB	0e7H
	DB	07eH
	DB	0e7H
	DB	07eH
	DB	0e7H
	DB	07eH
	DB	0e7H
	DB	07eH
	DB	0e7H
	DB	07eH
	DB	0e7H
	DB	07eH
	DB	0e7H
	DB	07eH
	DB	0e7H
	DB	07eH
	DB	0e7H
	DB	07eH
	DB	0e7H
	DB	07eH
	DB	0e7H
	DB	07eH
	DB	0e7H
	DB	07eH
	DB	0e7H
	DB	07eH
	DB	0e7H
	DB	07eH
	DB	0e7H
	DB	07eH
	DB	0e7H
	DB	07eH
	DB	0e7H
	DB	07eH
	DB	0e7H
	DB	07eH
	DB	0e7H
	DB	07eH
	DB	0e7H
	DB	07eH
	DB	0e7H
	DB	07eH
	DB	0e7H
	DB	07eH
	DB	0e7H
	DB	07eH
	DB	0e7H
	DB	07eH
	DB	0e7H
	DB	07eH
	DB	0e7H
	DB	07eH
	DB	0e7H
	DB	07eH
	DB	0e7H
	DB	07eH
	DB	0e7H
	DB	07eH
	DB	0e7H
	DB	07eH
	DB	0e7H
	DB	07eH
	DB	0e7H
	DB	07eH
	DB	0e7H
	DB	07eH
	DB	0e7H
	DB	07eH
	DB	0e7H
	DB	07eH
	DB	0e7H
	DB	07eH
	DB	0e7H
	DB	07eH
	DB	0e7H
	DB	07eH
	DB	0e7H
	DB	07eH
	DB	0e7H
	DB	07eH
	DB	0e7H
	DB	07eH
	DB	0e7H
	DB	07eH
	DB	0e7H
	DB	07eH
	DB	0e7H
	DB	07eH
	DB	0e7H
	DB	07eH
	DB	0e7H
	DB	07eH
	DB	0e7H
	DB	07eH
	DB	0e7H
	DB	07eH
	DB	0e7H
	DB	07eH
	DB	0e7H
	DB	09cH
	DB	0c6H
	DB	04dH
	DB	063H
	DB	07fH
	DB	0efH
	DB	09fH
	DB	0efH
	DB	07fH
	DB	0efH
	DB	07fH
	DB	0efH
	DB	09fH
	DB	0efH
	DB	07fH
	DB	0efH
	DB	07fH
	DB	0efH
	DB	09fH
	DB	0efH
	DB	07fH
	DB	0efH
	DB	07fH
	DB	0efH
	DB	09fH
	DB	0efH
	DB	07fH
	DB	0efH
	DB	09fH
	DB	0efH
	DB	07fH
	DB	0efH
	DB	09fH
	DB	0efH
	DB	07fH
	DB	0efH
	DB	09fH
	DB	0efH
	DB	07fH
	DB	0efH
	DB	07fH
	DB	0efH
	DB	09fH
	DB	0efH
	DB	07fH
	DB	0efH
	DB	07fH
	DB	0efH
	DB	09fH
	DB	0efH
	DB	09fH
	DB	0efH
	DB	07fH
	DB	0efH
	DB	09fH
	DB	0efH
	DB	09fH
	DB	0efH
	DB	09fH
	DB	0efH
	DB	09fH
	DB	0efH
	DB	09fH
	DB	0efH
	DB	09fH
	DB	0efH
	DB	09fH
	DB	0efH
	DB	07fH
	DB	0efH
	DB	09fH
	DB	0efH
	DB	09fH
	DB	0efH
	DB	07fH
	DB	0efH
	DB	09fH
	DB	0efH
	DB	07fH
	DB	0efH
	DB	09fH
	DB	0efH
	DB	07fH
	DB	0efH
	DB	09fH
	DB	0efH
	DB	07fH
	DB	0efH
	DB	09fH
	DB	0efH
	DB	07fH
	DB	0efH
	DB	09fH
	DB	0efH
	DB	09fH
	DB	0efH
	DB	07fH
	DB	0efH
	DB	09fH
	DB	0efH
	DB	09fH
	DB	0efH
	DB	07fH
	DB	0efH
	DB	09fH
	DB	0efH
	DB	09fH
	DB	0efH
	DB	09fH
	DB	0efH
	DB	09fH
	DB	0efH
	DB	09fH
	DB	0efH
	DB	07fH
	DB	0efH
	DB	09fH
	DB	0efH
	DB	09fH
	DB	0efH
	DB	07fH
	DB	0efH
	DB	09fH
	DB	0efH
	DB	09fH
	DB	0efH
	DB	07fH
	DB	0efH
	DB	09fH
	DB	0efH
	DB	07fH
	DB	0efH
	DB	09fH
	DB	0efH
	DB	09fH
	DB	0efH
	DB	07fH
	DB	0efH
	DB	09fH
	DB	0efH
	DB	09fH
	DB	0efH
	DB	07fH
	DB	0efH
	DB	09fH
	DB	0efH
	DB	09fH
	DB	0efH
	DB	07fH
	DB	0efH
	DB	09fH
	DB	0efH
	DB	09fH
	DB	0efH
	DB	07fH
	DB	0efH
	DB	09fH
	DB	0efH
	DB	09fH
	DB	0efH
	DB	09fH
	DB	0efH
	DB	09fH
	DB	0efH
	DB	07fH
	DB	0efH
	DB	09fH
	DB	0efH
	DB	09fH
	DB	0efH
	DB	07fH
	DB	0efH
	DB	09fH
	DB	0efH
	DB	09fH
	DB	0efH
	DB	09fH
	DB	0efH
	DB	09fH
	DB	0efH
	DB	07fH
	DB	0efH
	DB	09fH
	DB	0efH
	DB	09fH
	DB	0efH
	DB	09fH
	DB	0efH
	DB	07fH
	DB	0efH
	DB	09fH
	DB	0efH
	DB	09fH
	DB	0efH
	DB	07fH
	DB	0efH
	DB	09fH
	DB	0efH
	DB	07fH
	DB	0efH
	DB	07fH
	DB	0efH
	DB	09fH
	DB	0efH
	DB	07fH
	DB	0efH
	DB	09fH
	DB	0efH
	DB	07fH
	DB	0efH
	DB	09fH
	DB	0efH
	DB	07fH
	DB	0efH
	DB	09fH
	DB	0efH
	DB	07fH
	DB	0efH
	DB	09fH
	DB	0efH
	DB	09fH
	DB	0efH
	DB	07fH
	DB	0efH
	DB	09fH
	DB	0efH
	DB	07fH
	DB	0efH
	DB	09fH
	DB	0efH
	DB	07fH
	DB	0efH
	DB	09fH
	DB	0efH
	DB	07fH
	DB	0efH
	DB	09fH
	DB	0efH
	DB	09fH
	DB	0efH
	DB	07cH
	DB	0c6H
	DB	041H
	DB	08H
	DB	039H
	DB	0c6H
	DB	09fH
	DB	0efH
	DB	0bfH
	DB	0efH
	DB	09fH
	DB	0efH
	DB	09fH
	DB	0efH
	DB	0bfH
	DB	0efH
	DB	09fH
	DB	0efH
	DB	09fH
	DB	0efH
	DB	0bfH
	DB	0efH
	DB	09fH
	DB	0efH
	DB	09fH
	DB	0efH
	DB	0bfH
	DB	0efH
	DB	09fH
	DB	0efH
	DB	09fH
	DB	0efH
	DB	09fH
	DB	0efH
	DB	0bfH
	DB	0efH
	DB	09fH
	DB	0efH
	DB	09fH
	DB	0efH
	DB	0bfH
	DB	0efH
	DB	09fH
	DB	0efH
	DB	09fH
	DB	0efH
	DB	0bfH
	DB	0efH
	DB	09fH
	DB	0efH
	DB	09fH
	DB	0efH
	DB	09fH
	DB	0efH
	DB	09fH
	DB	0efH
	DB	09fH
	DB	0efH
	DB	09fH
	DB	0efH
	DB	09fH
	DB	0efH
	DB	09fH
	DB	0efH
	DB	09fH
	DB	0efH
	DB	09fH
	DB	0efH
	DB	09fH
	DB	0efH
	DB	09fH
	DB	0efH
	DB	09fH
	DB	0efH
	DB	09fH
	DB	0efH
	DB	09fH
	DB	0efH
	DB	0bfH
	DB	0efH
	DB	09fH
	DB	0efH
	DB	09fH
	DB	0efH
	DB	09fH
	DB	0efH
	DB	0bfH
	DB	0efH
	DB	09fH
	DB	0efH
	DB	09fH
	DB	0efH
	DB	09fH
	DB	0efH
	DB	09fH
	DB	0efH
	DB	09fH
	DB	0efH
	DB	09fH
	DB	0efH
	DB	09fH
	DB	0efH
	DB	09fH
	DB	0efH
	DB	09fH
	DB	0efH
	DB	09fH
	DB	0efH
	DB	09fH
	DB	0efH
	DB	09fH
	DB	0efH
	DB	09fH
	DB	0efH
	DB	09fH
	DB	0efH
	DB	09fH
	DB	0efH
	DB	09fH
	DB	0efH
	DB	09fH
	DB	0efH
	DB	09fH
	DB	0efH
	DB	09fH
	DB	0efH
	DB	09fH
	DB	0efH
	DB	09fH
	DB	0efH
	DB	09fH
	DB	0efH
	DB	09fH
	DB	0efH
	DB	09fH
	DB	0efH
	DB	09fH
	DB	0efH
	DB	09fH
	DB	0efH
	DB	09fH
	DB	0efH
	DB	09fH
	DB	0efH
	DB	09fH
	DB	0efH
	DB	09fH
	DB	0efH
	DB	09fH
	DB	0efH
	DB	09fH
	DB	0efH
	DB	09fH
	DB	0efH
	DB	09fH
	DB	0efH
	DB	09fH
	DB	0efH
	DB	09fH
	DB	0efH
	DB	09fH
	DB	0efH
	DB	09fH
	DB	0efH
	DB	09fH
	DB	0efH
	DB	09fH
	DB	0efH
	DB	09fH
	DB	0efH
	DB	09fH
	DB	0efH
	DB	09fH
	DB	0efH
	DB	09fH
	DB	0efH
	DB	09fH
	DB	0efH
	DB	09fH
	DB	0efH
	DB	09fH
	DB	0efH
	DB	09fH
	DB	0efH
	DB	09fH
	DB	0efH
	DB	09fH
	DB	0efH
	DB	09fH
	DB	0efH
	DB	09fH
	DB	0efH
	DB	09fH
	DB	0efH
	DB	09fH
	DB	0efH
	DB	0bfH
	DB	0efH
	DB	09fH
	DB	0efH
	DB	09fH
	DB	0efH
	DB	0bfH
	DB	0efH
	DB	09fH
	DB	0efH
	DB	09fH
	DB	0efH
	DB	09fH
	DB	0efH
	DB	09fH
	DB	0efH
	DB	0bfH
	DB	0efH
	DB	09fH
	DB	0efH
	DB	09fH
	DB	0efH
	DB	09fH
	DB	0efH
	DB	09fH
	DB	0efH
	DB	09fH
	DB	0efH
	DB	09fH
	DB	0efH
	DB	0bfH
	DB	0efH
	DB	09fH
	DB	0efH
	DB	09fH
	DB	0efH
	DB	09fH
	DB	0efH
	DB	09fH
	DB	0efH
	DB	09fH
	DB	0efH
	DB	09fH
	DB	0efH
	DB	09cH
	DB	0c6H
	DB	00H
	DB	00H
	DB	0c3H
	DB	018H
	DB	059H
	DB	0c6H
	DB	0dfH
	DB	0f7H
	DB	0dfH
	DB	0f7H
	DB	0dfH
	DB	0f7H
	DB	0dfH
	DB	0f7H
	DB	0dfH
	DB	0f7H
	DB	0bfH
	DB	0f7H
	DB	0dfH
	DB	0f7H
	DB	0dfH
	DB	0f7H
	DB	0bfH
	DB	0f7H
	DB	0dfH
	DB	0f7H
	DB	0dfH
	DB	0f7H
	DB	0bfH
	DB	0f7H
	DB	0dfH
	DB	0f7H
	DB	0dfH
	DB	0f7H
	DB	0bfH
	DB	0f7H
	DB	0dfH
	DB	0f7H
	DB	0dfH
	DB	0f7H
	DB	0dfH
	DB	0f7H
	DB	0dfH
	DB	0f7H
	DB	0bfH
	DB	0f7H
	DB	0dfH
	DB	0f7H
	DB	0dfH
	DB	0f7H
	DB	0dfH
	DB	0f7H
	DB	0dfH
	DB	0f7H
	DB	0bfH
	DB	0f7H
	DB	0dfH
	DB	0f7H
	DB	0dfH
	DB	0f7H
	DB	0bfH
	DB	0f7H
	DB	0dfH
	DB	0f7H
	DB	0dfH
	DB	0f7H
	DB	0dfH
	DB	0f7H
	DB	0dfH
	DB	0f7H
	DB	0dfH
	DB	0f7H
	DB	0dfH
	DB	0f7H
	DB	0bfH
	DB	0f7H
	DB	0dfH
	DB	0f7H
	DB	0dfH
	DB	0f7H
	DB	0bfH
	DB	0f7H
	DB	0dfH
	DB	0f7H
	DB	0dfH
	DB	0f7H
	DB	0bfH
	DB	0f7H
	DB	0dfH
	DB	0f7H
	DB	0dfH
	DB	0f7H
	DB	0dfH
	DB	0f7H
	DB	0dfH
	DB	0f7H
	DB	0dfH
	DB	0f7H
	DB	0dfH
	DB	0f7H
	DB	0dfH
	DB	0f7H
	DB	0dfH
	DB	0f7H
	DB	0bfH
	DB	0f7H
	DB	0dfH
	DB	0f7H
	DB	0dfH
	DB	0f7H
	DB	0dfH
	DB	0f7H
	DB	0dfH
	DB	0f7H
	DB	0dfH
	DB	0f7H
	DB	0dfH
	DB	0f7H
	DB	0dfH
	DB	0f7H
	DB	0dfH
	DB	0f7H
	DB	0dfH
	DB	0f7H
	DB	0dfH
	DB	0f7H
	DB	0dfH
	DB	0f7H
	DB	0dfH
	DB	0f7H
	DB	0dfH
	DB	0f7H
	DB	0dfH
	DB	0f7H
	DB	0dfH
	DB	0f7H
	DB	0dfH
	DB	0f7H
	DB	0dfH
	DB	0f7H
	DB	0dfH
	DB	0f7H
	DB	0dfH
	DB	0f7H
	DB	0dfH
	DB	0f7H
	DB	0dfH
	DB	0f7H
	DB	0dfH
	DB	0f7H
	DB	0dfH
	DB	0f7H
	DB	0dfH
	DB	0f7H
	DB	0dfH
	DB	0f7H
	DB	0dfH
	DB	0f7H
	DB	0bfH
	DB	0f7H
	DB	0dfH
	DB	0f7H
	DB	0dfH
	DB	0f7H
	DB	0dfH
	DB	0f7H
	DB	0dfH
	DB	0f7H
	DB	0dfH
	DB	0f7H
	DB	0dfH
	DB	0f7H
	DB	0bfH
	DB	0f7H
	DB	0dfH
	DB	0f7H
	DB	0dfH
	DB	0f7H
	DB	0dfH
	DB	0f7H
	DB	0dfH
	DB	0f7H
	DB	0dfH
	DB	0f7H
	DB	0dfH
	DB	0f7H
	DB	0dfH
	DB	0f7H
	DB	0dfH
	DB	0f7H
	DB	0dfH
	DB	0f7H
	DB	0bfH
	DB	0f7H
	DB	0dfH
	DB	0f7H
	DB	0dfH
	DB	0f7H
	DB	0dfH
	DB	0f7H
	DB	0bfH
	DB	0f7H
	DB	0dfH
	DB	0f7H
	DB	0dfH
	DB	0f7H
	DB	0dfH
	DB	0f7H
	DB	0bfH
	DB	0f7H
	DB	0dfH
	DB	0f7H
	DB	0dfH
	DB	0f7H
	DB	0dfH
	DB	0f7H
	DB	0dfH
	DB	0f7H
	DB	0dfH
	DB	0f7H
	DB	0dfH
	DB	0f7H
	DB	0bfH
	DB	0f7H
	DB	0dfH
	DB	0f7H
	DB	0dfH
	DB	0f7H
	DB	0dfH
	DB	0f7H
	DB	0dfH
	DB	0f7H
	DB	0dfH
	DB	0f7H
	DB	0dfH
	DB	0f7H
	DB	0bfH
	DB	0f7H
	DB	09cH
	DB	0c6H
	DB	00H
	DB	00H
	DB	00H
	DB	00H
	DB	021H
	DB	08H
	DB	06dH
	DB	06bH
	DB	039H
	DB	0c6H
	DB	07eH
	DB	0efH
	DB	0dfH
	DB	0ffH
	DB	0dfH
	DB	0ffH
	DB	0dfH
	DB	0ffH
	DB	0dfH
	DB	0ffH
	DB	0dfH
	DB	0ffH
	DB	0dfH
	DB	0ffH
	DB	0dfH
	DB	0ffH
	DB	0dfH
	DB	0ffH
	DB	0dfH
	DB	0ffH
	DB	0dfH
	DB	0ffH
	DB	0dfH
	DB	0ffH
	DB	0dfH
	DB	0ffH
	DB	0dfH
	DB	0ffH
	DB	0dfH
	DB	0ffH
	DB	0dfH
	DB	0ffH
	DB	0dfH
	DB	0ffH
	DB	0dfH
	DB	0ffH
	DB	0dfH
	DB	0ffH
	DB	0dfH
	DB	0ffH
	DB	0dfH
	DB	0ffH
	DB	0dfH
	DB	0ffH
	DB	0dfH
	DB	0ffH
	DB	0dfH
	DB	0ffH
	DB	0dfH
	DB	0ffH
	DB	0dfH
	DB	0ffH
	DB	0dfH
	DB	0ffH
	DB	0dfH
	DB	0ffH
	DB	0dfH
	DB	0ffH
	DB	0dfH
	DB	0ffH
	DB	0dfH
	DB	0ffH
	DB	0dfH
	DB	0ffH
	DB	0dfH
	DB	0ffH
	DB	0dfH
	DB	0ffH
	DB	0dfH
	DB	0ffH
	DB	0dfH
	DB	0ffH
	DB	0dfH
	DB	0ffH
	DB	0dfH
	DB	0ffH
	DB	0dfH
	DB	0ffH
	DB	0dfH
	DB	0ffH
	DB	0dfH
	DB	0ffH
	DB	0dfH
	DB	0ffH
	DB	0dfH
	DB	0ffH
	DB	0dfH
	DB	0ffH
	DB	0dfH
	DB	0ffH
	DB	0dfH
	DB	0ffH
	DB	0dfH
	DB	0ffH
	DB	0dfH
	DB	0ffH
	DB	0dfH
	DB	0ffH
	DB	0dfH
	DB	0ffH
	DB	0dfH
	DB	0ffH
	DB	0dfH
	DB	0ffH
	DB	0dfH
	DB	0ffH
	DB	0dfH
	DB	0ffH
	DB	0dfH
	DB	0ffH
	DB	0dfH
	DB	0ffH
	DB	0dfH
	DB	0ffH
	DB	0dfH
	DB	0ffH
	DB	0dfH
	DB	0ffH
	DB	0dfH
	DB	0ffH
	DB	0dfH
	DB	0ffH
	DB	0dfH
	DB	0ffH
	DB	0dfH
	DB	0ffH
	DB	0dfH
	DB	0ffH
	DB	0dfH
	DB	0ffH
	DB	0dfH
	DB	0ffH
	DB	0dfH
	DB	0ffH
	DB	0dfH
	DB	0ffH
	DB	0dfH
	DB	0ffH
	DB	0dfH
	DB	0ffH
	DB	0dfH
	DB	0ffH
	DB	0dfH
	DB	0ffH
	DB	0dfH
	DB	0ffH
	DB	0dfH
	DB	0ffH
	DB	0dfH
	DB	0ffH
	DB	0dfH
	DB	0ffH
	DB	0dfH
	DB	0ffH
	DB	0dfH
	DB	0ffH
	DB	0dfH
	DB	0ffH
	DB	0dfH
	DB	0ffH
	DB	0dfH
	DB	0ffH
	DB	0dfH
	DB	0ffH
	DB	0dfH
	DB	0ffH
	DB	0dfH
	DB	0ffH
	DB	0dfH
	DB	0ffH
	DB	0dfH
	DB	0ffH
	DB	0dfH
	DB	0ffH
	DB	0dfH
	DB	0ffH
	DB	0dfH
	DB	0ffH
	DB	0dfH
	DB	0ffH
	DB	0dfH
	DB	0ffH
	DB	0dfH
	DB	0ffH
	DB	0dfH
	DB	0ffH
	DB	0dfH
	DB	0ffH
	DB	0dfH
	DB	0ffH
	DB	0dfH
	DB	0ffH
	DB	0dfH
	DB	0ffH
	DB	0dfH
	DB	0ffH
	DB	0dfH
	DB	0ffH
	DB	0dfH
	DB	0ffH
	DB	0dfH
	DB	0ffH
	DB	0dfH
	DB	0ffH
	DB	0dfH
	DB	0ffH
	DB	0dfH
	DB	0ffH
	DB	0dfH
	DB	0ffH
	DB	0dfH
	DB	0ffH
	DB	0dfH
	DB	0ffH
	DB	0dfH
	DB	0ffH
	DB	0dfH
	DB	0ffH
	DB	0dfH
	DB	0ffH
	DB	0dfH
	DB	0ffH
	DB	0dfH
	DB	0ffH
	DB	0dfH
	DB	0ffH
	DB	0dfH
	DB	0ffH
	DB	09cH
	DB	0c6H
CONST	ENDS
END
