; Listing generated by Microsoft (R) Optimizing Compiler Version 19.27.29112.0 

	TITLE	D:\hackTuesProject\project\TouchGFX\generated\images\src\__designer\image_Dark_Togglebars_Toggle_large_button_On.cpp
	.686P
	.XMM
	include listing.inc
	.model	flat

INCLUDELIB MSVCRTD
INCLUDELIB OLDNAMES

PUBLIC	?image_dark_togglebars_toggle_large_button_on@@3QBEB ; image_dark_togglebars_toggle_large_button_on
CONST	SEGMENT
?image_dark_togglebars_toggle_large_button_on@@3QBEB DB 0a6H ; image_dark_togglebars_toggle_large_button_on
	DB	031H
	DB	0a7H
	DB	039H
	DB	0a7H
	DB	039H
	DB	0a6H
	DB	031H
	DB	0a7H
	DB	039H
	DB	0a7H
	DB	039H
	DB	0a6H
	DB	031H
	DB	0a7H
	DB	039H
	DB	0a7H
	DB	039H
	DB	0a6H
	DB	031H
	DB	0a7H
	DB	039H
	DB	0a7H
	DB	039H
	DB	0a6H
	DB	031H
	DB	0a7H
	DB	039H
	DB	0a7H
	DB	039H
	DB	0a6H
	DB	031H
	DB	0a7H
	DB	039H
	DB	0a7H
	DB	039H
	DB	0a6H
	DB	031H
	DB	0a7H
	DB	039H
	DB	0a7H
	DB	039H
	DB	0a6H
	DB	031H
	DB	0a7H
	DB	039H
	DB	0a7H
	DB	039H
	DB	0a6H
	DB	031H
	DB	0a7H
	DB	039H
	DB	0a7H
	DB	039H
	DB	0a6H
	DB	031H
	DB	0a7H
	DB	039H
	DB	0a7H
	DB	039H
	DB	0a6H
	DB	031H
	DB	0a7H
	DB	039H
	DB	0a7H
	DB	039H
	DB	0a6H
	DB	031H
	DB	0a7H
	DB	039H
	DB	0a7H
	DB	039H
	DB	0a6H
	DB	031H
	DB	0a7H
	DB	039H
	DB	0a7H
	DB	039H
	DB	0a6H
	DB	031H
	DB	0a7H
	DB	039H
	DB	0a7H
	DB	039H
	DB	0a6H
	DB	031H
	DB	0a7H
	DB	039H
	DB	0a7H
	DB	039H
	DB	0a6H
	DB	031H
	DB	0a7H
	DB	039H
	DB	0a7H
	DB	039H
	DB	0a6H
	DB	031H
	DB	0a7H
	DB	039H
	DB	0a7H
	DB	039H
	DB	0a6H
	DB	031H
	DB	0a7H
	DB	039H
	DB	0a7H
	DB	039H
	DB	0a6H
	DB	031H
	DB	0a7H
	DB	039H
	DB	0a7H
	DB	039H
	DB	0a6H
	DB	031H
	DB	0a7H
	DB	039H
	DB	0a7H
	DB	039H
	DB	0a6H
	DB	031H
	DB	0a7H
	DB	039H
	DB	0a7H
	DB	039H
	DB	0a6H
	DB	031H
	DB	0a7H
	DB	039H
	DB	0a7H
	DB	039H
	DB	0a6H
	DB	031H
	DB	0a7H
	DB	039H
	DB	0a7H
	DB	039H
	DB	0a6H
	DB	031H
	DB	0a7H
	DB	039H
	DB	0a7H
	DB	039H
	DB	0c7H
	DB	039H
	DB	0c7H
	DB	039H
	DB	0e7H
	DB	039H
	DB	0e7H
	DB	039H
	DB	07H
	DB	042H
	DB	027H
	DB	042H
	DB	047H
	DB	042H
	DB	047H
	DB	042H
	DB	067H
	DB	042H
	DB	087H
	DB	04aH
	DB	0a7H
	DB	04aH
	DB	0a7H
	DB	04aH
	DB	0c7H
	DB	04aH
	DB	0e7H
	DB	052H
	DB	0e8H
	DB	052H
	DB	07H
	DB	053H
	DB	027H
	DB	053H
	DB	028H
	DB	05bH
	DB	048H
	DB	05bH
	DB	047H
	DB	05bH
	DB	068H
	DB	05bH
	DB	068H
	DB	05bH
	DB	068H
	DB	05bH
	DB	068H
	DB	05bH
	DB	068H
	DB	05bH
	DB	047H
	DB	05bH
	DB	048H
	DB	05bH
	DB	028H
	DB	05bH
	DB	027H
	DB	053H
	DB	07H
	DB	053H
	DB	0e8H
	DB	052H
	DB	0e7H
	DB	052H
	DB	0c7H
	DB	04aH
	DB	0a7H
	DB	04aH
	DB	0a7H
	DB	04aH
	DB	087H
	DB	04aH
	DB	067H
	DB	042H
	DB	047H
	DB	042H
	DB	047H
	DB	042H
	DB	027H
	DB	042H
	DB	07H
	DB	03aH
	DB	0e7H
	DB	039H
	DB	0e7H
	DB	039H
	DB	0c7H
	DB	039H
	DB	0c7H
	DB	039H
	DB	0a6H
	DB	039H
	DB	0a7H
	DB	039H
	DB	0a7H
	DB	031H
	DB	0a6H
	DB	039H
	DB	0a7H
	DB	039H
	DB	0a7H
	DB	031H
	DB	0a6H
	DB	039H
	DB	0a7H
	DB	039H
	DB	0a7H
	DB	031H
	DB	0a6H
	DB	031H
	DB	0a6H
	DB	039H
	DB	0a7H
	DB	039H
	DB	0c7H
	DB	039H
	DB	0c7H
	DB	039H
	DB	0e7H
	DB	039H
	DB	0c7H
	DB	039H
	DB	0c7H
	DB	039H
	DB	0c7H
	DB	039H
	DB	0c7H
	DB	039H
	DB	0c7H
	DB	039H
	DB	0c7H
	DB	039H
	DB	0c7H
	DB	039H
	DB	0c7H
	DB	039H
	DB	0c7H
	DB	039H
	DB	0c7H
	DB	039H
	DB	0c7H
	DB	039H
	DB	0c7H
	DB	039H
	DB	0c7H
	DB	039H
	DB	0c7H
	DB	039H
	DB	0c7H
	DB	039H
	DB	0c7H
	DB	039H
	DB	0c7H
	DB	039H
	DB	0c7H
	DB	039H
	DB	0c7H
	DB	039H
	DB	0c7H
	DB	039H
	DB	0c7H
	DB	039H
	DB	0c7H
	DB	039H
	DB	0c7H
	DB	039H
	DB	0c7H
	DB	039H
	DB	0c7H
	DB	039H
	DB	0c7H
	DB	039H
	DB	0c7H
	DB	039H
	DB	0c7H
	DB	039H
	DB	0c7H
	DB	039H
	DB	0c7H
	DB	039H
	DB	0c7H
	DB	039H
	DB	0c7H
	DB	039H
	DB	0c7H
	DB	039H
	DB	0c7H
	DB	039H
	DB	0c7H
	DB	039H
	DB	0c7H
	DB	039H
	DB	0c7H
	DB	039H
	DB	0c7H
	DB	039H
	DB	0c7H
	DB	039H
	DB	0c7H
	DB	039H
	DB	0c7H
	DB	039H
	DB	0c7H
	DB	039H
	DB	0c7H
	DB	039H
	DB	0c7H
	DB	039H
	DB	0c7H
	DB	039H
	DB	0c7H
	DB	039H
	DB	0c7H
	DB	039H
	DB	0c7H
	DB	039H
	DB	0c7H
	DB	039H
	DB	0c7H
	DB	039H
	DB	0c7H
	DB	039H
	DB	0c7H
	DB	039H
	DB	0c7H
	DB	039H
	DB	0c7H
	DB	039H
	DB	0c7H
	DB	039H
	DB	0c7H
	DB	039H
	DB	0c7H
	DB	039H
	DB	0c7H
	DB	039H
	DB	0c7H
	DB	039H
	DB	0c7H
	DB	039H
	DB	0c7H
	DB	039H
	DB	0c7H
	DB	039H
	DB	0c7H
	DB	039H
	DB	0c7H
	DB	039H
	DB	0c7H
	DB	039H
	DB	0c7H
	DB	039H
	DB	0c7H
	DB	039H
	DB	0e7H
	DB	039H
	DB	0e7H
	DB	039H
	DB	0e7H
	DB	039H
	DB	07H
	DB	042H
	DB	027H
	DB	042H
	DB	027H
	DB	042H
	DB	047H
	DB	042H
	DB	067H
	DB	04aH
	DB	068H
	DB	04aH
	DB	088H
	DB	04aH
	DB	0a8H
	DB	04aH
	DB	0c8H
	DB	052H
	DB	0e8H
	DB	052H
	DB	0e8H
	DB	052H
	DB	08H
	DB	053H
	DB	028H
	DB	05bH
	DB	048H
	DB	05bH
	DB	068H
	DB	05bH
	DB	068H
	DB	05bH
	DB	088H
	DB	05bH
	DB	088H
	DB	05bH
	DB	088H
	DB	063H
	DB	0a8H
	DB	063H
	DB	0a8H
	DB	063H
	DB	088H
	DB	063H
	DB	088H
	DB	063H
	DB	088H
	DB	05bH
	DB	088H
	DB	05bH
	DB	068H
	DB	05bH
	DB	068H
	DB	05bH
	DB	048H
	DB	05bH
	DB	028H
	DB	05bH
	DB	08H
	DB	053H
	DB	08H
	DB	053H
	DB	0e8H
	DB	052H
	DB	0c8H
	DB	052H
	DB	0a8H
	DB	04aH
	DB	088H
	DB	04aH
	DB	068H
	DB	04aH
	DB	067H
	DB	04aH
	DB	047H
	DB	042H
	DB	027H
	DB	042H
	DB	027H
	DB	042H
	DB	07H
	DB	042H
	DB	0e7H
	DB	039H
	DB	0e7H
	DB	039H
	DB	0e7H
	DB	039H
	DB	0c7H
	DB	039H
	DB	0c7H
	DB	039H
	DB	0c7H
	DB	039H
	DB	0c7H
	DB	039H
	DB	0c7H
	DB	039H
	DB	0c7H
	DB	039H
	DB	0e7H
	DB	039H
	DB	0c7H
	DB	039H
	DB	0c7H
	DB	039H
	DB	0a7H
	DB	039H
	DB	0c7H
	DB	039H
	DB	0e7H
	DB	039H
	DB	08H
	DB	042H
	DB	0e8H
	DB	041H
	DB	0e8H
	DB	041H
	DB	08H
	DB	042H
	DB	0e7H
	DB	039H
	DB	0e8H
	DB	041H
	DB	0e7H
	DB	039H
	DB	0e8H
	DB	041H
	DB	0e7H
	DB	039H
	DB	0e8H
	DB	041H
	DB	0e7H
	DB	039H
	DB	0e8H
	DB	041H
	DB	0e7H
	DB	039H
	DB	0e8H
	DB	041H
	DB	0e7H
	DB	039H
	DB	0e8H
	DB	041H
	DB	0e7H
	DB	039H
	DB	0e8H
	DB	041H
	DB	0e7H
	DB	039H
	DB	0e8H
	DB	041H
	DB	0e7H
	DB	039H
	DB	0e8H
	DB	041H
	DB	0e7H
	DB	039H
	DB	0e8H
	DB	041H
	DB	0e7H
	DB	039H
	DB	0e8H
	DB	041H
	DB	0e7H
	DB	039H
	DB	0e8H
	DB	041H
	DB	0e7H
	DB	039H
	DB	0e8H
	DB	041H
	DB	0e7H
	DB	039H
	DB	0e8H
	DB	041H
	DB	0e7H
	DB	039H
	DB	0e8H
	DB	041H
	DB	0e7H
	DB	039H
	DB	0e8H
	DB	041H
	DB	0e7H
	DB	039H
	DB	0e8H
	DB	041H
	DB	0e7H
	DB	039H
	DB	0e8H
	DB	041H
	DB	0e7H
	DB	039H
	DB	0e8H
	DB	041H
	DB	0e7H
	DB	039H
	DB	0e8H
	DB	041H
	DB	0e7H
	DB	039H
	DB	0e8H
	DB	041H
	DB	0e7H
	DB	039H
	DB	0e8H
	DB	041H
	DB	0e7H
	DB	039H
	DB	0e8H
	DB	041H
	DB	0e7H
	DB	039H
	DB	0e8H
	DB	041H
	DB	0e7H
	DB	039H
	DB	0e8H
	DB	041H
	DB	0e7H
	DB	039H
	DB	0e8H
	DB	041H
	DB	0e7H
	DB	039H
	DB	0e8H
	DB	041H
	DB	0e7H
	DB	039H
	DB	0e8H
	DB	041H
	DB	0e7H
	DB	039H
	DB	0e8H
	DB	041H
	DB	0e7H
	DB	039H
	DB	0e8H
	DB	041H
	DB	0e7H
	DB	039H
	DB	0e8H
	DB	041H
	DB	0e7H
	DB	039H
	DB	0e8H
	DB	041H
	DB	0e7H
	DB	039H
	DB	0e7H
	DB	041H
	DB	08H
	DB	042H
	DB	08H
	DB	042H
	DB	027H
	DB	042H
	DB	048H
	DB	042H
	DB	048H
	DB	042H
	DB	068H
	DB	04aH
	DB	068H
	DB	04aH
	DB	088H
	DB	04aH
	DB	0a8H
	DB	04aH
	DB	0c8H
	DB	052H
	DB	0c8H
	DB	052H
	DB	08H
	DB	053H
	DB	08H
	DB	05bH
	DB	028H
	DB	05bH
	DB	049H
	DB	05bH
	DB	069H
	DB	05bH
	DB	068H
	DB	05bH
	DB	089H
	DB	063H
	DB	089H
	DB	063H
	DB	0a9H
	DB	063H
	DB	0a9H
	DB	063H
	DB	0a9H
	DB	063H
	DB	0a9H
	DB	063H
	DB	0a9H
	DB	063H
	DB	0a9H
	DB	063H
	DB	0a9H
	DB	063H
	DB	089H
	DB	063H
	DB	089H
	DB	063H
	DB	068H
	DB	05bH
	DB	069H
	DB	05bH
	DB	048H
	DB	05bH
	DB	028H
	DB	05bH
	DB	08H
	DB	05bH
	DB	0e8H
	DB	052H
	DB	0e8H
	DB	052H
	DB	0c8H
	DB	052H
	DB	0a8H
	DB	04aH
	DB	088H
	DB	04aH
	DB	088H
	DB	04aH
	DB	068H
	DB	04aH
	DB	048H
	DB	04aH
	DB	028H
	DB	042H
	DB	028H
	DB	042H
	DB	08H
	DB	042H
	DB	07H
	DB	042H
	DB	0e8H
	DB	041H
	DB	0e7H
	DB	039H
	DB	0e8H
	DB	041H
	DB	0e7H
	DB	039H
	DB	0e8H
	DB	041H
	DB	08H
	DB	042H
	DB	0e8H
	DB	041H
	DB	08H
	DB	042H
	DB	08H
	DB	042H
	DB	0e7H
	DB	039H
	DB	0c7H
	DB	039H
	DB	0e8H
	DB	041H
	DB	08H
	DB	042H
	DB	08H
	DB	042H
	DB	00H
	DB	00H
	DB	00H
	DB	00H
	DB	00H
	DB	00H
	DB	00H
	DB	00H
	DB	00H
	DB	00H
	DB	00H
	DB	00H
	DB	00H
	DB	00H
	DB	00H
	DB	00H
	DB	00H
	DB	00H
	DB	00H
	DB	00H
	DB	00H
	DB	00H
	DB	00H
	DB	00H
	DB	00H
	DB	00H
	DB	00H
	DB	00H
	DB	00H
	DB	00H
	DB	00H
	DB	00H
	DB	00H
	DB	00H
	DB	00H
	DB	00H
	DB	00H
	DB	00H
	DB	00H
	DB	00H
	DB	00H
	DB	00H
	DB	00H
	DB	00H
	DB	00H
	DB	00H
	DB	00H
	DB	00H
	DB	00H
	DB	00H
	DB	00H
	DB	00H
	DB	00H
	DB	00H
	DB	00H
	DB	00H
	DB	00H
	DB	00H
	DB	00H
	DB	00H
	DB	00H
	DB	00H
	DB	00H
	DB	00H
	DB	00H
	DB	00H
	DB	00H
	DB	00H
	DB	00H
	DB	00H
	DB	00H
	DB	00H
	DB	00H
	DB	00H
	DB	00H
	DB	00H
	DB	00H
	DB	00H
	DB	00H
	DB	00H
	DB	00H
	DB	00H
	DB	00H
	DB	00H
	DB	00H
	DB	00H
	DB	00H
	DB	00H
	DB	00H
	DB	00H
	DB	00H
	DB	00H
	DB	00H
	DB	00H
	DB	00H
	DB	00H
	DB	00H
	DB	00H
	DB	00H
	DB	00H
	DB	00H
	DB	00H
	DB	00H
	DB	00H
	DB	00H
	DB	00H
	DB	00H
	DB	00H
	DB	00H
	DB	00H
	DB	00H
	DB	00H
	DB	00H
	DB	00H
	DB	00H
	DB	00H
	DB	00H
	DB	00H
	DB	00H
	DB	00H
	DB	00H
	DB	00H
	DB	00H
	DB	00H
	DB	00H
	DB	00H
	DB	00H
	DB	00H
	DB	00H
	DB	00H
	DB	00H
	DB	00H
	DB	00H
	DB	00H
	DB	00H
	DB	00H
	DB	00H
	DB	00H
	DB	00H
	DB	00H
	DB	00H
	DB	00H
	DB	00H
	DB	00H
	DB	00H
	DB	00H
	DB	00H
	DB	00H
	DB	00H
	DB	00H
	DB	00H
	DB	00H
	DB	00H
	DB	00H
	DB	00H
	DB	00H
	DB	00H
	DB	00H
	DB	00H
	DB	00H
	DB	00H
	DB	00H
	DB	00H
	DB	00H
	DB	00H
	DB	00H
	DB	00H
	DB	00H
	DB	00H
	DB	00H
	DB	00H
	DB	00H
	DB	00H
	DB	00H
	DB	00H
	DB	00H
	DB	00H
	DB	00H
	DB	00H
	DB	00H
	DB	00H
	DB	00H
	DB	00H
	DB	00H
	DB	00H
	DB	00H
	DB	00H
	DB	00H
	DB	00H
	DB	00H
	DB	00H
	DB	00H
	DB	00H
	DB	00H
	DB	00H
	DB	00H
	DB	00H
	DB	00H
	DB	00H
	DB	00H
	DB	00H
	DB	00H
	DB	00H
	DB	00H
	DB	00H
	DB	00H
	DB	00H
	DB	00H
	DB	00H
	DB	00H
	DB	00H
	DB	00H
	DB	00H
	DB	00H
	DB	00H
	DB	00H
	DB	00H
	DB	00H
	DB	00H
	DB	00H
	DB	00H
	DB	00H
	DB	00H
	DB	00H
	DB	00H
	DB	00H
	DB	00H
	DB	00H
	DB	00H
	DB	00H
	DB	00H
	DB	00H
	DB	00H
	DB	00H
	DB	00H
	DB	00H
	DB	00H
	DB	00H
	DB	00H
	DB	00H
	DB	00H
	DB	00H
	DB	00H
	DB	00H
	DB	08H
	DB	042H
	DB	08H
	DB	042H
	DB	0e8H
	DB	041H
	DB	08H
	DB	042H
	DB	08H
	DB	042H
	DB	08H
	DB	042H
	DB	00H
	DB	00H
	DB	00H
	DB	00H
	DB	00H
	DB	00H
	DB	00H
	DB	00H
	DB	00H
	DB	00H
	DB	00H
	DB	00H
	DB	00H
	DB	00H
	DB	00H
	DB	00H
	DB	00H
	DB	00H
	DB	00H
	DB	00H
	DB	00H
	DB	00H
	DB	00H
	DB	00H
	DB	00H
	DB	00H
	DB	00H
	DB	00H
	DB	00H
	DB	00H
	DB	00H
	DB	00H
	DB	00H
	DB	00H
	DB	00H
	DB	00H
	DB	00H
	DB	00H
	DB	00H
	DB	00H
	DB	00H
	DB	00H
	DB	00H
	DB	00H
	DB	00H
	DB	00H
	DB	00H
	DB	00H
	DB	00H
	DB	00H
	DB	00H
	DB	00H
	DB	00H
	DB	00H
	DB	00H
	DB	00H
	DB	00H
	DB	00H
	DB	00H
	DB	00H
	DB	00H
	DB	00H
	DB	00H
	DB	00H
	DB	00H
	DB	00H
	DB	00H
	DB	00H
	DB	00H
	DB	00H
	DB	00H
	DB	00H
	DB	00H
	DB	00H
	DB	00H
	DB	00H
	DB	00H
	DB	00H
	DB	00H
	DB	00H
	DB	00H
	DB	00H
	DB	00H
	DB	00H
	DB	00H
	DB	00H
	DB	00H
	DB	00H
	DB	00H
	DB	00H
	DB	00H
	DB	00H
	DB	00H
	DB	00H
	DB	00H
	DB	00H
	DB	00H
	DB	00H
	DB	00H
	DB	00H
	DB	00H
	DB	00H
	DB	00H
	DB	00H
	DB	00H
	DB	00H
	DB	00H
	DB	00H
	DB	00H
	DB	00H
	DB	00H
	DB	00H
	DB	00H
	DB	00H
	DB	00H
	DB	00H
	DB	00H
	DB	00H
	DB	00H
	DB	00H
	DB	00H
	DB	00H
	DB	00H
	DB	00H
	DB	00H
	DB	00H
	DB	00H
	DB	00H
	DB	00H
	DB	00H
	DB	00H
	DB	00H
	DB	00H
	DB	00H
	DB	00H
	DB	00H
	DB	00H
	DB	00H
	DB	00H
	DB	00H
	DB	00H
	DB	00H
	DB	00H
	DB	00H
	DB	00H
	DB	00H
	DB	00H
	DB	00H
	DB	00H
	DB	00H
	DB	00H
	DB	00H
	DB	00H
	DB	00H
	DB	00H
	DB	00H
	DB	00H
	DB	00H
	DB	00H
	DB	00H
	DB	00H
	DB	00H
	DB	00H
	DB	00H
	DB	00H
	DB	00H
	DB	00H
	DB	00H
	DB	00H
	DB	00H
	DB	00H
	DB	00H
	DB	00H
	DB	00H
	DB	00H
	DB	00H
	DB	00H
	DB	00H
	DB	00H
	DB	00H
	DB	00H
	DB	00H
	DB	00H
	DB	00H
	DB	00H
	DB	00H
	DB	00H
	DB	00H
	DB	00H
	DB	00H
	DB	00H
	DB	00H
	DB	00H
	DB	00H
	DB	00H
	DB	00H
	DB	00H
	DB	00H
	DB	00H
	DB	00H
	DB	00H
	DB	00H
	DB	00H
	DB	00H
	DB	00H
	DB	00H
	DB	00H
	DB	00H
	DB	00H
	DB	00H
	DB	00H
	DB	00H
	DB	00H
	DB	00H
	DB	00H
	DB	00H
	DB	00H
	DB	00H
	DB	00H
	DB	00H
	DB	00H
	DB	00H
	DB	00H
	DB	00H
	DB	00H
	DB	00H
	DB	00H
	DB	00H
	DB	00H
	DB	00H
	DB	00H
	DB	00H
	DB	00H
	DB	00H
	DB	00H
	DB	00H
	DB	00H
	DB	00H
	DB	00H
	DB	00H
	DB	00H
	DB	00H
	DB	00H
	DB	00H
	DB	08H
	DB	042H
	DB	08H
	DB	042H
	DB	08H
	DB	042H
	DB	08H
	DB	042H
	DB	028H
	DB	042H
	DB	08H
	DB	042H
	DB	00H
	DB	00H
	DB	00H
	DB	00H
	DB	00H
	DB	00H
	DB	00H
	DB	00H
	DB	00H
	DB	00H
	DB	00H
	DB	00H
	DB	00H
	DB	00H
	DB	00H
	DB	00H
	DB	00H
	DB	00H
	DB	00H
	DB	00H
	DB	00H
	DB	00H
	DB	00H
	DB	00H
	DB	00H
	DB	00H
	DB	00H
	DB	00H
	DB	00H
	DB	00H
	DB	00H
	DB	00H
	DB	00H
	DB	00H
	DB	00H
	DB	00H
	DB	00H
	DB	00H
	DB	00H
	DB	00H
	DB	00H
	DB	00H
	DB	00H
	DB	00H
	DB	00H
	DB	00H
	DB	00H
	DB	00H
	DB	00H
	DB	00H
	DB	00H
	DB	00H
	DB	00H
	DB	00H
	DB	00H
	DB	00H
	DB	00H
	DB	00H
	DB	00H
	DB	00H
	DB	00H
	DB	00H
	DB	00H
	DB	00H
	DB	00H
	DB	00H
	DB	00H
	DB	00H
	DB	00H
	DB	00H
	DB	00H
	DB	00H
	DB	00H
	DB	00H
	DB	00H
	DB	00H
	DB	00H
	DB	00H
	DB	00H
	DB	00H
	DB	00H
	DB	00H
	DB	00H
	DB	00H
	DB	00H
	DB	00H
	DB	00H
	DB	00H
	DB	00H
	DB	00H
	DB	00H
	DB	00H
	DB	00H
	DB	00H
	DB	00H
	DB	00H
	DB	00H
	DB	00H
	DB	00H
	DB	00H
	DB	00H
	DB	00H
	DB	00H
	DB	00H
	DB	00H
	DB	00H
	DB	00H
	DB	00H
	DB	00H
	DB	00H
	DB	00H
	DB	00H
	DB	00H
	DB	00H
	DB	00H
	DB	00H
	DB	00H
	DB	00H
	DB	00H
	DB	00H
	DB	00H
	DB	00H
	DB	00H
	DB	00H
	DB	00H
	DB	00H
	DB	00H
	DB	00H
	DB	00H
	DB	00H
	DB	00H
	DB	00H
	DB	00H
	DB	00H
	DB	00H
	DB	00H
	DB	00H
	DB	00H
	DB	00H
	DB	00H
	DB	00H
	DB	00H
	DB	00H
	DB	00H
	DB	00H
	DB	00H
	DB	00H
	DB	00H
	DB	00H
	DB	00H
	DB	00H
	DB	00H
	DB	00H
	DB	00H
	DB	00H
	DB	00H
	DB	00H
	DB	00H
	DB	00H
	DB	00H
	DB	00H
	DB	00H
	DB	00H
	DB	00H
	DB	00H
	DB	00H
	DB	00H
	DB	00H
	DB	00H
	DB	00H
	DB	00H
	DB	00H
	DB	00H
	DB	00H
	DB	00H
	DB	00H
	DB	00H
	DB	00H
	DB	00H
	DB	00H
	DB	00H
	DB	00H
	DB	00H
	DB	00H
	DB	00H
	DB	00H
	DB	00H
	DB	00H
	DB	00H
	DB	00H
	DB	00H
	DB	00H
	DB	00H
	DB	00H
	DB	00H
	DB	00H
	DB	00H
	DB	00H
	DB	00H
	DB	00H
	DB	00H
	DB	00H
	DB	00H
	DB	00H
	DB	00H
	DB	00H
	DB	00H
	DB	00H
	DB	00H
	DB	00H
	DB	00H
	DB	00H
	DB	00H
	DB	00H
	DB	00H
	DB	00H
	DB	00H
	DB	00H
	DB	00H
	DB	00H
	DB	00H
	DB	00H
	DB	00H
	DB	00H
	DB	00H
	DB	00H
	DB	00H
	DB	00H
	DB	00H
	DB	00H
	DB	00H
	DB	00H
	DB	00H
	DB	00H
	DB	00H
	DB	00H
	DB	00H
	DB	00H
	DB	00H
	DB	00H
	DB	00H
	DB	00H
	DB	00H
	DB	00H
	DB	08H
	DB	042H
	DB	028H
	DB	042H
	DB	08H
	DB	042H
	DB	08H
	DB	042H
	DB	028H
	DB	042H
	DB	028H
	DB	042H
	DB	00H
	DB	00H
	DB	00H
	DB	00H
	DB	00H
	DB	00H
	DB	0b6H
	DB	0b5H
	DB	0b6H
	DB	0b5H
	DB	096H
	DB	0b5H
	DB	096H
	DB	0b5H
	DB	096H
	DB	0b5H
	DB	096H
	DB	0b5H
	DB	096H
	DB	0b5H
	DB	096H
	DB	0b5H
	DB	096H
	DB	0b5H
	DB	096H
	DB	0b5H
	DB	096H
	DB	0b5H
	DB	096H
	DB	0b5H
	DB	096H
	DB	0b5H
	DB	096H
	DB	0b5H
	DB	096H
	DB	0b5H
	DB	096H
	DB	0b5H
	DB	096H
	DB	0b5H
	DB	096H
	DB	0b5H
	DB	096H
	DB	0b5H
	DB	096H
	DB	0b5H
	DB	096H
	DB	0b5H
	DB	096H
	DB	0b5H
	DB	096H
	DB	0b5H
	DB	096H
	DB	0b5H
	DB	096H
	DB	0b5H
	DB	096H
	DB	0b5H
	DB	096H
	DB	0b5H
	DB	096H
	DB	0b5H
	DB	096H
	DB	0b5H
	DB	096H
	DB	0b5H
	DB	096H
	DB	0b5H
	DB	096H
	DB	0b5H
	DB	096H
	DB	0b5H
	DB	096H
	DB	0b5H
	DB	096H
	DB	0b5H
	DB	096H
	DB	0b5H
	DB	096H
	DB	0b5H
	DB	096H
	DB	0b5H
	DB	096H
	DB	0b5H
	DB	096H
	DB	0b5H
	DB	096H
	DB	0b5H
	DB	096H
	DB	0b5H
	DB	096H
	DB	0b5H
	DB	096H
	DB	0b5H
	DB	096H
	DB	0b5H
	DB	096H
	DB	0b5H
	DB	096H
	DB	0b5H
	DB	096H
	DB	0b5H
	DB	096H
	DB	0b5H
	DB	096H
	DB	0b5H
	DB	096H
	DB	0b5H
	DB	096H
	DB	0b5H
	DB	096H
	DB	0b5H
	DB	096H
	DB	0b5H
	DB	096H
	DB	0b5H
	DB	0b6H
	DB	0b5H
	DB	0b6H
	DB	0b5H
	DB	00H
	DB	00H
	DB	00H
	DB	00H
	DB	085H
	DB	029H
	DB	0a5H
	DB	029H
	DB	085H
	DB	029H
	DB	0a5H
	DB	029H
	DB	085H
	DB	029H
	DB	085H
	DB	029H
	DB	0a5H
	DB	029H
	DB	085H
	DB	029H
	DB	084H
	DB	029H
	DB	085H
	DB	029H
	DB	085H
	DB	029H
	DB	084H
	DB	029H
	DB	085H
	DB	029H
	DB	085H
	DB	029H
	DB	084H
	DB	029H
	DB	085H
	DB	029H
	DB	085H
	DB	029H
	DB	085H
	DB	029H
	DB	085H
	DB	029H
	DB	085H
	DB	029H
	DB	085H
	DB	029H
	DB	085H
	DB	029H
	DB	085H
	DB	029H
	DB	084H
	DB	029H
	DB	085H
	DB	029H
	DB	085H
	DB	029H
	DB	084H
	DB	029H
	DB	085H
	DB	029H
	DB	085H
	DB	029H
	DB	084H
	DB	029H
	DB	085H
	DB	029H
	DB	084H
	DB	029H
	DB	085H
	DB	029H
	DB	085H
	DB	029H
	DB	084H
	DB	029H
	DB	085H
	DB	029H
	DB	085H
	DB	029H
	DB	085H
	DB	029H
	DB	085H
	DB	029H
	DB	085H
	DB	029H
	DB	085H
	DB	029H
	DB	085H
	DB	029H
	DB	085H
	DB	029H
	DB	085H
	DB	029H
	DB	085H
	DB	029H
	DB	084H
	DB	029H
	DB	085H
	DB	029H
	DB	085H
	DB	029H
	DB	084H
	DB	029H
	DB	085H
	DB	029H
	DB	085H
	DB	029H
	DB	084H
	DB	029H
	DB	085H
	DB	029H
	DB	085H
	DB	029H
	DB	085H
	DB	029H
	DB	084H
	DB	029H
	DB	085H
	DB	029H
	DB	00H
	DB	00H
	DB	00H
	DB	00H
	DB	00H
	DB	00H
	DB	028H
	DB	042H
	DB	028H
	DB	042H
	DB	08H
	DB	042H
	DB	028H
	DB	042H
	DB	029H
	DB	04aH
	DB	028H
	DB	042H
	DB	00H
	DB	00H
	DB	00H
	DB	00H
	DB	00H
	DB	00H
	DB	035H
	DB	0adH
	DB	0d3H
	DB	09cH
	DB	0d3H
	DB	09cH
	DB	0b3H
	DB	09cH
	DB	0b3H
	DB	09cH
	DB	0d3H
	DB	09cH
	DB	0b3H
	DB	09cH
	DB	0d3H
	DB	09cH
	DB	0b3H
	DB	09cH
	DB	0d3H
	DB	09cH
	DB	0d3H
	DB	09cH
	DB	0b3H
	DB	09cH
	DB	0d3H
	DB	09cH
	DB	0b3H
	DB	09cH
	DB	0d3H
	DB	09cH
	DB	0d3H
	DB	09cH
	DB	0b3H
	DB	09cH
	DB	0d3H
	DB	09cH
	DB	0b3H
	DB	09cH
	DB	0d3H
	DB	09cH
	DB	0d3H
	DB	09cH
	DB	0b3H
	DB	09cH
	DB	0d3H
	DB	09cH
	DB	0b3H
	DB	09cH
	DB	0d3H
	DB	09cH
	DB	0d3H
	DB	09cH
	DB	0b3H
	DB	09cH
	DB	0d3H
	DB	09cH
	DB	0b3H
	DB	09cH
	DB	0d3H
	DB	09cH
	DB	0d3H
	DB	09cH
	DB	0b3H
	DB	09cH
	DB	0d3H
	DB	09cH
	DB	0b3H
	DB	09cH
	DB	0d3H
	DB	09cH
	DB	0d3H
	DB	09cH
	DB	0b3H
	DB	09cH
	DB	0d3H
	DB	09cH
	DB	0b3H
	DB	09cH
	DB	0d3H
	DB	09cH
	DB	0d3H
	DB	09cH
	DB	0b3H
	DB	09cH
	DB	0d3H
	DB	09cH
	DB	0b3H
	DB	09cH
	DB	0d3H
	DB	09cH
	DB	0d3H
	DB	09cH
	DB	0b3H
	DB	09cH
	DB	0d3H
	DB	09cH
	DB	0b3H
	DB	09cH
	DB	0d3H
	DB	09cH
	DB	0d3H
	DB	09cH
	DB	0b3H
	DB	09cH
	DB	0d3H
	DB	09cH
	DB	0b3H
	DB	09cH
	DB	0d3H
	DB	09cH
	DB	0d3H
	DB	09cH
	DB	035H
	DB	0adH
	DB	00H
	DB	00H
	DB	00H
	DB	00H
	DB	0a5H
	DB	029H
	DB	0a5H
	DB	031H
	DB	0a4H
	DB	031H
	DB	0a5H
	DB	031H
	DB	0a5H
	DB	031H
	DB	0a5H
	DB	031H
	DB	0a5H
	DB	031H
	DB	0a5H
	DB	031H
	DB	0a5H
	DB	031H
	DB	0a5H
	DB	031H
	DB	0a5H
	DB	031H
	DB	0a5H
	DB	031H
	DB	0a5H
	DB	031H
	DB	0a5H
	DB	031H
	DB	0a5H
	DB	031H
	DB	0c5H
	DB	031H
	DB	0a5H
	DB	031H
	DB	0a5H
	DB	031H
	DB	0c5H
	DB	031H
	DB	0c5H
	DB	031H
	DB	0c5H
	DB	031H
	DB	0c5H
	DB	031H
	DB	0c5H
	DB	031H
	DB	0a5H
	DB	031H
	DB	0c5H
	DB	031H
	DB	0c5H
	DB	031H
	DB	0a5H
	DB	031H
	DB	0a5H
	DB	031H
	DB	0a5H
	DB	031H
	DB	0a5H
	DB	031H
	DB	0a5H
	DB	031H
	DB	0c5H
	DB	031H
	DB	0a5H
	DB	031H
	DB	0a5H
	DB	031H
	DB	0a5H
	DB	031H
	DB	0a5H
	DB	031H
	DB	0a5H
	DB	031H
	DB	0a5H
	DB	031H
	DB	0a5H
	DB	031H
	DB	0a5H
	DB	031H
	DB	0a5H
	DB	031H
	DB	0a5H
	DB	031H
	DB	0a5H
	DB	031H
	DB	0a5H
	DB	031H
	DB	0a5H
	DB	031H
	DB	0a5H
	DB	031H
	DB	0a5H
	DB	031H
	DB	0a5H
	DB	031H
	DB	0a5H
	DB	031H
	DB	0a5H
	DB	031H
	DB	0a5H
	DB	031H
	DB	0a5H
	DB	031H
	DB	0a5H
	DB	031H
	DB	0a5H
	DB	031H
	DB	0a5H
	DB	031H
	DB	0a5H
	DB	029H
	DB	084H
	DB	029H
	DB	00H
	DB	00H
	DB	00H
	DB	00H
	DB	00H
	DB	00H
	DB	028H
	DB	042H
	DB	029H
	DB	04aH
	DB	028H
	DB	042H
	DB	029H
	DB	04aH
	DB	049H
	DB	04aH
	DB	029H
	DB	04aH
	DB	00H
	DB	00H
	DB	00H
	DB	00H
	DB	00H
	DB	00H
	DB	0d3H
	DB	09cH
	DB	092H
	DB	094H
	DB	071H
	DB	08cH
	DB	071H
	DB	08cH
	DB	071H
	DB	08cH
	DB	071H
	DB	08cH
	DB	071H
	DB	08cH
	DB	071H
	DB	08cH
	DB	071H
	DB	08cH
	DB	071H
	DB	08cH
	DB	071H
	DB	08cH
	DB	071H
	DB	08cH
	DB	071H
	DB	08cH
	DB	071H
	DB	08cH
	DB	071H
	DB	08cH
	DB	071H
	DB	08cH
	DB	071H
	DB	08cH
	DB	071H
	DB	08cH
	DB	071H
	DB	08cH
	DB	071H
	DB	08cH
	DB	071H
	DB	08cH
	DB	071H
	DB	08cH
	DB	071H
	DB	08cH
	DB	071H
	DB	08cH
	DB	071H
	DB	08cH
	DB	071H
	DB	08cH
	DB	071H
	DB	08cH
	DB	071H
	DB	08cH
	DB	071H
	DB	08cH
	DB	071H
	DB	08cH
	DB	071H
	DB	08cH
	DB	071H
	DB	08cH
	DB	071H
	DB	08cH
	DB	071H
	DB	08cH
	DB	071H
	DB	08cH
	DB	071H
	DB	08cH
	DB	071H
	DB	08cH
	DB	071H
	DB	08cH
	DB	071H
	DB	08cH
	DB	071H
	DB	08cH
	DB	071H
	DB	08cH
	DB	071H
	DB	08cH
	DB	071H
	DB	08cH
	DB	071H
	DB	08cH
	DB	071H
	DB	08cH
	DB	071H
	DB	08cH
	DB	071H
	DB	08cH
	DB	071H
	DB	08cH
	DB	071H
	DB	08cH
	DB	071H
	DB	08cH
	DB	071H
	DB	08cH
	DB	071H
	DB	08cH
	DB	071H
	DB	08cH
	DB	071H
	DB	08cH
	DB	072H
	DB	094H
	DB	092H
	DB	094H
	DB	0d3H
	DB	09cH
	DB	00H
	DB	00H
	DB	00H
	DB	00H
	DB	085H
	DB	029H
	DB	0a5H
	DB	031H
	DB	0a5H
	DB	031H
	DB	0c5H
	DB	031H
	DB	0c5H
	DB	031H
	DB	0c5H
	DB	031H
	DB	0c5H
	DB	031H
	DB	0c5H
	DB	031H
	DB	0e5H
	DB	031H
	DB	0c5H
	DB	031H
	DB	0c5H
	DB	031H
	DB	0e5H
	DB	031H
	DB	0c5H
	DB	031H
	DB	0e5H
	DB	031H
	DB	0e5H
	DB	031H
	DB	0e5H
	DB	031H
	DB	0e5H
	DB	031H
	DB	0e5H
	DB	031H
	DB	0e5H
	DB	031H
	DB	05H
	DB	03aH
	DB	0e5H
	DB	031H
	DB	05H
	DB	03aH
	DB	05H
	DB	03aH
	DB	05H
	DB	032H
	DB	0e5H
	DB	039H
	DB	05H
	DB	03aH
	DB	05H
	DB	032H
	DB	05H
	DB	032H
	DB	0e5H
	DB	031H
	DB	0e5H
	DB	031H
	DB	05H
	DB	03aH
	DB	0e5H
	DB	031H
	DB	0e5H
	DB	031H
	DB	05H
	DB	032H
	DB	0e5H
	DB	039H
	DB	05H
	DB	032H
	DB	0e5H
	DB	031H
	DB	0e5H
	DB	031H
	DB	0e5H
	DB	031H
	DB	0e5H
	DB	031H
	DB	0e5H
	DB	031H
	DB	0e5H
	DB	031H
	DB	0e5H
	DB	031H
	DB	0e5H
	DB	031H
	DB	0c5H
	DB	031H
	DB	0c5H
	DB	031H
	DB	0c5H
	DB	031H
	DB	0e5H
	DB	031H
	DB	0c5H
	DB	031H
	DB	0c5H
	DB	031H
	DB	0e5H
	DB	031H
	DB	0c5H
	DB	031H
	DB	0c5H
	DB	031H
	DB	0c5H
	DB	031H
	DB	0c5H
	DB	031H
	DB	0a5H
	DB	031H
	DB	0a5H
	DB	029H
	DB	00H
	DB	00H
	DB	00H
	DB	00H
	DB	00H
	DB	00H
	DB	029H
	DB	04aH
	DB	049H
	DB	04aH
	DB	029H
	DB	04aH
	DB	049H
	DB	04aH
	DB	049H
	DB	04aH
	DB	049H
	DB	04aH
	DB	00H
	DB	00H
	DB	00H
	DB	00H
	DB	00H
	DB	00H
	DB	0b3H
	DB	09cH
	DB	071H
	DB	08cH
	DB	071H
	DB	08cH
	DB	051H
	DB	08cH
	DB	051H
	DB	08cH
	DB	051H
	DB	08cH
	DB	051H
	DB	08cH
	DB	051H
	DB	08cH
	DB	051H
	DB	08cH
	DB	051H
	DB	08cH
	DB	051H
	DB	08cH
	DB	051H
	DB	08cH
	DB	051H
	DB	08cH
	DB	051H
	DB	08cH
	DB	051H
	DB	08cH
	DB	051H
	DB	08cH
	DB	051H
	DB	08cH
	DB	051H
	DB	08cH
	DB	051H
	DB	08cH
	DB	051H
	DB	08cH
	DB	051H
	DB	08cH
	DB	051H
	DB	08cH
	DB	051H
	DB	08cH
	DB	051H
	DB	08cH
	DB	051H
	DB	08cH
	DB	051H
	DB	08cH
	DB	051H
	DB	08cH
	DB	051H
	DB	08cH
	DB	051H
	DB	08cH
	DB	051H
	DB	08cH
	DB	051H
	DB	08cH
	DB	051H
	DB	08cH
	DB	051H
	DB	08cH
	DB	051H
	DB	08cH
	DB	051H
	DB	08cH
	DB	051H
	DB	08cH
	DB	051H
	DB	08cH
	DB	051H
	DB	08cH
	DB	051H
	DB	08cH
	DB	051H
	DB	08cH
	DB	051H
	DB	08cH
	DB	051H
	DB	08cH
	DB	051H
	DB	08cH
	DB	051H
	DB	08cH
	DB	051H
	DB	08cH
	DB	051H
	DB	08cH
	DB	051H
	DB	08cH
	DB	051H
	DB	08cH
	DB	051H
	DB	08cH
	DB	051H
	DB	08cH
	DB	051H
	DB	08cH
	DB	051H
	DB	08cH
	DB	051H
	DB	08cH
	DB	051H
	DB	08cH
	DB	071H
	DB	08cH
	DB	071H
	DB	08cH
	DB	0b3H
	DB	09cH
	DB	00H
	DB	00H
	DB	00H
	DB	00H
	DB	0a5H
	DB	031H
	DB	0c5H
	DB	031H
	DB	0e6H
	DB	031H
	DB	0e6H
	DB	031H
	DB	06H
	DB	03aH
	DB	06H
	DB	03aH
	DB	06H
	DB	03aH
	DB	06H
	DB	03aH
	DB	06H
	DB	03aH
	DB	06H
	DB	03aH
	DB	06H
	DB	03aH
	DB	06H
	DB	03aH
	DB	06H
	DB	03aH
	DB	06H
	DB	03aH
	DB	06H
	DB	03aH
	DB	06H
	DB	03aH
	DB	026H
	DB	03aH
	DB	026H
	DB	03aH
	DB	046H
	DB	042H
	DB	046H
	DB	03aH
	DB	046H
	DB	03aH
	DB	046H
	DB	042H
	DB	046H
	DB	03aH
	DB	046H
	DB	03aH
	DB	066H
	DB	03aH
	DB	046H
	DB	042H
	DB	046H
	DB	03aH
	DB	046H
	DB	042H
	DB	046H
	DB	03aH
	DB	046H
	DB	03aH
	DB	046H
	DB	042H
	DB	046H
	DB	03aH
	DB	046H
	DB	03aH
	DB	046H
	DB	042H
	DB	046H
	DB	03aH
	DB	046H
	DB	03aH
	DB	046H
	DB	03aH
	DB	026H
	DB	03aH
	DB	026H
	DB	03aH
	DB	026H
	DB	03aH
	DB	06H
	DB	03aH
	DB	06H
	DB	03aH
	DB	06H
	DB	03aH
	DB	06H
	DB	03aH
	DB	06H
	DB	03aH
	DB	06H
	DB	03aH
	DB	06H
	DB	03aH
	DB	06H
	DB	03aH
	DB	06H
	DB	03aH
	DB	06H
	DB	03aH
	DB	06H
	DB	03aH
	DB	06H
	DB	03aH
	DB	06H
	DB	03aH
	DB	0e6H
	DB	031H
	DB	0e6H
	DB	031H
	DB	0c5H
	DB	031H
	DB	0a5H
	DB	031H
	DB	00H
	DB	00H
	DB	00H
	DB	00H
	DB	00H
	DB	00H
	DB	049H
	DB	04aH
	DB	049H
	DB	04aH
	DB	049H
	DB	04aH
	DB	049H
	DB	04aH
	DB	069H
	DB	04aH
	DB	049H
	DB	04aH
	DB	00H
	DB	00H
	DB	00H
	DB	00H
	DB	00H
	DB	00H
	DB	092H
	DB	094H
	DB	051H
	DB	08cH
	DB	051H
	DB	08cH
	DB	051H
	DB	08cH
	DB	051H
	DB	08cH
	DB	051H
	DB	08cH
	DB	051H
	DB	08cH
	DB	051H
	DB	08cH
	DB	051H
	DB	08cH
	DB	051H
	DB	08cH
	DB	051H
	DB	08cH
	DB	051H
	DB	08cH
	DB	051H
	DB	08cH
	DB	051H
	DB	08cH
	DB	051H
	DB	08cH
	DB	051H
	DB	08cH
	DB	051H
	DB	08cH
	DB	051H
	DB	08cH
	DB	051H
	DB	08cH
	DB	051H
	DB	08cH
	DB	051H
	DB	08cH
	DB	051H
	DB	08cH
	DB	051H
	DB	08cH
	DB	051H
	DB	08cH
	DB	051H
	DB	08cH
	DB	051H
	DB	08cH
	DB	051H
	DB	08cH
	DB	051H
	DB	08cH
	DB	051H
	DB	08cH
	DB	051H
	DB	08cH
	DB	051H
	DB	08cH
	DB	051H
	DB	08cH
	DB	051H
	DB	08cH
	DB	051H
	DB	08cH
	DB	051H
	DB	08cH
	DB	051H
	DB	08cH
	DB	051H
	DB	08cH
	DB	051H
	DB	08cH
	DB	051H
	DB	08cH
	DB	051H
	DB	08cH
	DB	051H
	DB	08cH
	DB	051H
	DB	08cH
	DB	051H
	DB	08cH
	DB	051H
	DB	08cH
	DB	051H
	DB	08cH
	DB	051H
	DB	08cH
	DB	051H
	DB	08cH
	DB	051H
	DB	08cH
	DB	051H
	DB	08cH
	DB	051H
	DB	08cH
	DB	051H
	DB	08cH
	DB	051H
	DB	08cH
	DB	051H
	DB	08cH
	DB	051H
	DB	08cH
	DB	051H
	DB	08cH
	DB	051H
	DB	08cH
	DB	0b2H
	DB	094H
	DB	00H
	DB	00H
	DB	00H
	DB	00H
	DB	0c5H
	DB	031H
	DB	0e6H
	DB	031H
	DB	0e6H
	DB	039H
	DB	06H
	DB	03aH
	DB	026H
	DB	03aH
	DB	06H
	DB	03aH
	DB	027H
	DB	03aH
	DB	06H
	DB	03aH
	DB	07H
	DB	03aH
	DB	027H
	DB	03aH
	DB	06H
	DB	03aH
	DB	027H
	DB	03aH
	DB	027H
	DB	03aH
	DB	026H
	DB	03aH
	DB	026H
	DB	042H
	DB	046H
	DB	03aH
	DB	066H
	DB	042H
	DB	066H
	DB	042H
	DB	086H
	DB	042H
	DB	086H
	DB	042H
	DB	086H
	DB	042H
	DB	0a6H
	DB	042H
	DB	0a6H
	DB	042H
	DB	0a6H
	DB	042H
	DB	086H
	DB	042H
	DB	086H
	DB	042H
	DB	086H
	DB	042H
	DB	086H
	DB	042H
	DB	086H
	DB	042H
	DB	086H
	DB	042H
	DB	086H
	DB	042H
	DB	086H
	DB	042H
	DB	086H
	DB	042H
	DB	086H
	DB	042H
	DB	086H
	DB	042H
	DB	066H
	DB	042H
	DB	086H
	DB	042H
	DB	066H
	DB	042H
	DB	066H
	DB	042H
	DB	046H
	DB	042H
	DB	026H
	DB	03aH
	DB	046H
	DB	03aH
	DB	026H
	DB	03aH
	DB	027H
	DB	03aH
	DB	027H
	DB	03aH
	DB	06H
	DB	03aH
	DB	027H
	DB	03aH
	DB	07H
	DB	03aH
	DB	06H
	DB	03aH
	DB	027H
	DB	03aH
	DB	07H
	DB	03aH
	DB	06H
	DB	03aH
	DB	026H
	DB	03aH
	DB	06H
	DB	03aH
	DB	0e6H
	DB	039H
	DB	0e6H
	DB	031H
	DB	0a5H
	DB	031H
	DB	00H
	DB	00H
	DB	00H
	DB	00H
	DB	00H
	DB	00H
	DB	049H
	DB	04aH
	DB	069H
	DB	04aH
	DB	049H
	DB	04aH
	DB	069H
	DB	04aH
	DB	06aH
	DB	052H
	DB	069H
	DB	04aH
	DB	00H
	DB	00H
	DB	00H
	DB	00H
	DB	00H
	DB	00H
	DB	092H
	DB	094H
	DB	051H
	DB	08cH
	DB	031H
	DB	08cH
	DB	031H
	DB	08cH
	DB	031H
	DB	08cH
	DB	030H
	DB	084H
	DB	031H
	DB	08cH
	DB	031H
	DB	08cH
	DB	030H
	DB	084H
	DB	031H
	DB	08cH
	DB	031H
	DB	08cH
	DB	030H
	DB	084H
	DB	031H
	DB	08cH
	DB	031H
	DB	08cH
	DB	030H
	DB	084H
	DB	031H
	DB	08cH
	DB	031H
	DB	08cH
	DB	030H
	DB	084H
	DB	031H
	DB	08cH
	DB	031H
	DB	08cH
	DB	030H
	DB	084H
	DB	031H
	DB	08cH
	DB	031H
	DB	08cH
	DB	030H
	DB	084H
	DB	031H
	DB	08cH
	DB	031H
	DB	08cH
	DB	030H
	DB	084H
	DB	031H
	DB	08cH
	DB	031H
	DB	08cH
	DB	030H
	DB	084H
	DB	031H
	DB	08cH
	DB	031H
	DB	08cH
	DB	030H
	DB	084H
	DB	031H
	DB	08cH
	DB	031H
	DB	08cH
	DB	030H
	DB	084H
	DB	031H
	DB	08cH
	DB	031H
	DB	08cH
	DB	030H
	DB	084H
	DB	031H
	DB	08cH
	DB	031H
	DB	08cH
	DB	030H
	DB	084H
	DB	031H
	DB	08cH
	DB	031H
	DB	08cH
	DB	030H
	DB	084H
	DB	031H
	DB	08cH
	DB	031H
	DB	08cH
	DB	030H
	DB	084H
	DB	031H
	DB	08cH
	DB	031H
	DB	08cH
	DB	030H
	DB	084H
	DB	031H
	DB	08cH
	DB	030H
	DB	084H
	DB	031H
	DB	08cH
	DB	031H
	DB	08cH
	DB	051H
	DB	08cH
	DB	092H
	DB	094H
	DB	00H
	DB	00H
	DB	00H
	DB	00H
	DB	0c5H
	DB	031H
	DB	06H
	DB	03aH
	DB	06H
	DB	03aH
	DB	027H
	DB	03aH
	DB	027H
	DB	03aH
	DB	027H
	DB	03aH
	DB	027H
	DB	03aH
	DB	027H
	DB	03aH
	DB	026H
	DB	03aH
	DB	027H
	DB	03aH
	DB	027H
	DB	03aH
	DB	027H
	DB	042H
	DB	026H
	DB	03aH
	DB	047H
	DB	042H
	DB	047H
	DB	042H
	DB	066H
	DB	042H
	DB	086H
	DB	042H
	DB	086H
	DB	042H
	DB	0c6H
	DB	04aH
	DB	0c6H
	DB	04aH
	DB	0e6H
	DB	04aH
	DB	0e6H
	DB	04aH
	DB	0e6H
	DB	04aH
	DB	0e6H
	DB	04aH
	DB	0e6H
	DB	04aH
	DB	0e6H
	DB	04aH
	DB	0e6H
	DB	04aH
	DB	0c6H
	DB	04aH
	DB	0c6H
	DB	04aH
	DB	0e6H
	DB	04aH
	DB	0e6H
	DB	04aH
	DB	0e6H
	DB	04aH
	DB	0e6H
	DB	04aH
	DB	0c6H
	DB	04aH
	DB	0c6H
	DB	04aH
	DB	0a6H
	DB	04aH
	DB	0a6H
	DB	042H
	DB	0a6H
	DB	042H
	DB	086H
	DB	042H
	DB	066H
	DB	042H
	DB	067H
	DB	042H
	DB	047H
	DB	042H
	DB	046H
	DB	042H
	DB	047H
	DB	042H
	DB	027H
	DB	03aH
	DB	026H
	DB	03aH
	DB	027H
	DB	03aH
	DB	027H
	DB	03aH
	DB	026H
	DB	03aH
	DB	027H
	DB	03aH
	DB	027H
	DB	03aH
	DB	027H
	DB	03aH
	DB	027H
	DB	03aH
	DB	027H
	DB	03aH
	DB	06H
	DB	03aH
	DB	06H
	DB	03aH
	DB	0c6H
	DB	031H
	DB	00H
	DB	00H
	DB	00H
	DB	00H
	DB	00H
	DB	00H
	DB	069H
	DB	04aH
	DB	06aH
	DB	052H
	DB	069H
	DB	04aH
	DB	06aH
	DB	052H
	DB	08aH
	DB	052H
	DB	06aH
	DB	052H
	DB	00H
	DB	00H
	DB	00H
	DB	00H
	DB	00H
	DB	00H
	DB	092H
	DB	094H
	DB	031H
	DB	08cH
	DB	030H
	DB	084H
	DB	010H
	DB	084H
	DB	010H
	DB	084H
	DB	010H
	DB	084H
	DB	010H
	DB	084H
	DB	010H
	DB	084H
	DB	010H
	DB	084H
	DB	010H
	DB	084H
	DB	010H
	DB	084H
	DB	010H
	DB	084H
	DB	010H
	DB	084H
	DB	010H
	DB	084H
	DB	010H
	DB	084H
	DB	010H
	DB	084H
	DB	010H
	DB	084H
	DB	010H
	DB	084H
	DB	010H
	DB	084H
	DB	010H
	DB	084H
	DB	010H
	DB	084H
	DB	010H
	DB	084H
	DB	010H
	DB	084H
	DB	010H
	DB	084H
	DB	010H
	DB	084H
	DB	010H
	DB	084H
	DB	010H
	DB	084H
	DB	010H
	DB	084H
	DB	010H
	DB	084H
	DB	010H
	DB	084H
	DB	010H
	DB	084H
	DB	010H
	DB	084H
	DB	010H
	DB	084H
	DB	010H
	DB	084H
	DB	010H
	DB	084H
	DB	010H
	DB	084H
	DB	010H
	DB	084H
	DB	010H
	DB	084H
	DB	010H
	DB	084H
	DB	010H
	DB	084H
	DB	010H
	DB	084H
	DB	010H
	DB	084H
	DB	010H
	DB	084H
	DB	010H
	DB	084H
	DB	010H
	DB	084H
	DB	010H
	DB	084H
	DB	010H
	DB	084H
	DB	010H
	DB	084H
	DB	010H
	DB	084H
	DB	010H
	DB	084H
	DB	010H
	DB	084H
	DB	010H
	DB	084H
	DB	010H
	DB	084H
	DB	010H
	DB	084H
	DB	030H
	DB	084H
	DB	031H
	DB	08cH
	DB	072H
	DB	094H
	DB	00H
	DB	00H
	DB	00H
	DB	00H
	DB	0e6H
	DB	031H
	DB	06H
	DB	03aH
	DB	027H
	DB	03aH
	DB	027H
	DB	042H
	DB	027H
	DB	042H
	DB	027H
	DB	042H
	DB	027H
	DB	042H
	DB	027H
	DB	042H
	DB	027H
	DB	042H
	DB	026H
	DB	042H
	DB	027H
	DB	042H
	DB	047H
	DB	042H
	DB	046H
	DB	042H
	DB	067H
	DB	042H
	DB	067H
	DB	042H
	DB	086H
	DB	042H
	DB	0a6H
	DB	042H
	DB	0c6H
	DB	04aH
	DB	0e6H
	DB	04aH
	DB	06H
	DB	04bH
	DB	05H
	DB	04bH
	DB	05H
	DB	04bH
	DB	025H
	DB	04bH
	DB	025H
	DB	04bH
	DB	025H
	DB	04bH
	DB	025H
	DB	04bH
	DB	026H
	DB	04bH
	DB	025H
	DB	04bH
	DB	026H
	DB	04bH
	DB	025H
	DB	04bH
	DB	025H
	DB	04bH
	DB	025H
	DB	04bH
	DB	025H
	DB	04bH
	DB	026H
	DB	04bH
	DB	06H
	DB	04bH
	DB	06H
	DB	04bH
	DB	0e6H
	DB	04aH
	DB	0e6H
	DB	04aH
	DB	0a6H
	DB	04aH
	DB	086H
	DB	042H
	DB	087H
	DB	042H
	DB	066H
	DB	042H
	DB	047H
	DB	042H
	DB	047H
	DB	042H
	DB	027H
	DB	042H
	DB	027H
	DB	042H
	DB	027H
	DB	042H
	DB	027H
	DB	042H
	DB	027H
	DB	042H
	DB	027H
	DB	042H
	DB	026H
	DB	042H
	DB	027H
	DB	042H
	DB	027H
	DB	042H
	DB	027H
	DB	042H
	DB	027H
	DB	03aH
	DB	06H
	DB	03aH
	DB	0e6H
	DB	031H
	DB	00H
	DB	00H
	DB	00H
	DB	00H
	DB	00H
	DB	00H
	DB	06aH
	DB	052H
	DB	08aH
	DB	052H
	DB	06aH
	DB	052H
	DB	08aH
	DB	052H
	DB	08aH
	DB	052H
	DB	08aH
	DB	052H
	DB	00H
	DB	00H
	DB	00H
	DB	00H
	DB	00H
	DB	00H
	DB	071H
	DB	08cH
	DB	030H
	DB	084H
	DB	010H
	DB	084H
	DB	010H
	DB	084H
	DB	010H
	DB	084H
	DB	010H
	DB	084H
	DB	010H
	DB	084H
	DB	010H
	DB	084H
	DB	010H
	DB	084H
	DB	010H
	DB	084H
	DB	010H
	DB	084H
	DB	010H
	DB	084H
	DB	010H
	DB	084H
	DB	010H
	DB	084H
	DB	010H
	DB	084H
	DB	010H
	DB	084H
	DB	010H
	DB	084H
	DB	010H
	DB	084H
	DB	010H
	DB	084H
	DB	0cfH
	DB	07bH
	DB	0cfH
	DB	07bH
	DB	010H
	DB	084H
	DB	010H
	DB	084H
	DB	010H
	DB	084H
	DB	010H
	DB	084H
	DB	010H
	DB	084H
	DB	010H
	DB	084H
	DB	010H
	DB	084H
	DB	010H
	DB	084H
	DB	010H
	DB	084H
	DB	010H
	DB	084H
	DB	010H
	DB	084H
	DB	010H
	DB	084H
	DB	010H
	DB	084H
	DB	010H
	DB	084H
	DB	010H
	DB	084H
	DB	010H
	DB	084H
	DB	010H
	DB	084H
	DB	010H
	DB	084H
	DB	010H
	DB	084H
	DB	010H
	DB	084H
	DB	010H
	DB	084H
	DB	010H
	DB	084H
	DB	010H
	DB	084H
	DB	010H
	DB	084H
	DB	010H
	DB	084H
	DB	010H
	DB	084H
	DB	010H
	DB	084H
	DB	010H
	DB	084H
	DB	010H
	DB	084H
	DB	010H
	DB	084H
	DB	010H
	DB	084H
	DB	010H
	DB	084H
	DB	010H
	DB	084H
	DB	010H
	DB	084H
	DB	030H
	DB	084H
	DB	071H
	DB	08cH
	DB	00H
	DB	00H
	DB	00H
	DB	00H
	DB	0e6H
	DB	039H
	DB	06H
	DB	03aH
	DB	027H
	DB	03aH
	DB	027H
	DB	042H
	DB	027H
	DB	03aH
	DB	046H
	DB	03aH
	DB	027H
	DB	042H
	DB	027H
	DB	03aH
	DB	047H
	DB	03aH
	DB	027H
	DB	042H
	DB	047H
	DB	03aH
	DB	047H
	DB	03aH
	DB	047H
	DB	042H
	DB	066H
	DB	042H
	DB	086H
	DB	042H
	DB	0a7H
	DB	042H
	DB	0c6H
	DB	04aH
	DB	06H
	DB	04bH
	DB	025H
	DB	04bH
	DB	025H
	DB	043H
	DB	044H
	DB	03bH
	DB	084H
	DB	03bH
	DB	084H
	DB	043H
	DB	064H
	DB	03bH
	DB	065H
	DB	04bH
	DB	065H
	DB	053H
	DB	065H
	DB	053H
	DB	065H
	DB	053H
	DB	065H
	DB	04bH
	DB	064H
	DB	043H
	DB	084H
	DB	03bH
	DB	064H
	DB	03bH
	DB	084H
	DB	043H
	DB	065H
	DB	053H
	DB	065H
	DB	053H
	DB	045H
	DB	043H
	DB	044H
	DB	03bH
	DB	04H
	DB	03bH
	DB	0e5H
	DB	03aH
	DB	0c6H
	DB	04aH
	DB	0a6H
	DB	042H
	DB	087H
	DB	042H
	DB	066H
	DB	042H
	DB	047H
	DB	042H
	DB	047H
	DB	03aH
	DB	027H
	DB	03aH
	DB	027H
	DB	042H
	DB	047H
	DB	03aH
	DB	027H
	DB	03aH
	DB	027H
	DB	042H
	DB	047H
	DB	03aH
	DB	027H
	DB	03aH
	DB	027H
	DB	042H
	DB	047H
	DB	042H
	DB	026H
	DB	03aH
	DB	06H
	DB	03aH
	DB	0e6H
	DB	039H
	DB	00H
	DB	00H
	DB	00H
	DB	00H
	DB	00H
	DB	00H
	DB	08aH
	DB	052H
	DB	0aaH
	DB	052H
	DB	08aH
	DB	052H
	DB	08aH
	DB	052H
	DB	0aaH
	DB	052H
	DB	0aaH
	DB	052H
	DB	00H
	DB	00H
	DB	00H
	DB	00H
	DB	00H
	DB	00H
	DB	051H
	DB	08cH
	DB	010H
	DB	084H
	DB	010H
	DB	084H
	DB	0f0H
	DB	083H
	DB	0efH
	DB	07bH
	DB	0f0H
	DB	083H
	DB	0efH
	DB	07bH
	DB	0f0H
	DB	083H
	DB	0efH
	DB	07bH
	DB	0f0H
	DB	083H
	DB	0efH
	DB	07bH
	DB	0f0H
	DB	083H
	DB	0efH
	DB	07bH
	DB	0f0H
	DB	083H
	DB	0efH
	DB	07bH
	DB	0f0H
	DB	083H
	DB	0cfH
	DB	07bH
	DB	069H
	DB	04aH
	DB	086H
	DB	031H
	DB	065H
	DB	029H
	DB	065H
	DB	029H
	DB	0a7H
	DB	039H
	DB	0cbH
	DB	05aH
	DB	0efH
	DB	07bH
	DB	0f0H
	DB	083H
	DB	0efH
	DB	07bH
	DB	0f0H
	DB	083H
	DB	08H
	DB	042H
	DB	065H
	DB	029H
	DB	065H
	DB	029H
	DB	045H
	DB	029H
	DB	065H
	DB	029H
	DB	065H
	DB	029H
	DB	0f0H
	DB	083H
	DB	0efH
	DB	07bH
	DB	0ebH
	DB	05aH
	DB	065H
	DB	029H
	DB	045H
	DB	029H
	DB	065H
	DB	029H
	DB	065H
	DB	029H
	DB	045H
	DB	029H
	DB	0cH
	DB	063H
	DB	0f0H
	DB	083H
	DB	0efH
	DB	07bH
	DB	0f0H
	DB	083H
	DB	0efH
	DB	07bH
	DB	0f0H
	DB	083H
	DB	0efH
	DB	07bH
	DB	0f0H
	DB	083H
	DB	0f0H
	DB	083H
	DB	0efH
	DB	07bH
	DB	0f0H
	DB	083H
	DB	0f0H
	DB	083H
	DB	0efH
	DB	07bH
	DB	010H
	DB	084H
	DB	010H
	DB	084H
	DB	051H
	DB	08cH
	DB	00H
	DB	00H
	DB	00H
	DB	00H
	DB	0e6H
	DB	039H
	DB	027H
	DB	03aH
	DB	027H
	DB	042H
	DB	047H
	DB	042H
	DB	047H
	DB	03aH
	DB	047H
	DB	042H
	DB	047H
	DB	042H
	DB	047H
	DB	03aH
	DB	047H
	DB	042H
	DB	027H
	DB	042H
	DB	047H
	DB	03aH
	DB	046H
	DB	042H
	DB	067H
	DB	042H
	DB	086H
	DB	042H
	DB	0a6H
	DB	042H
	DB	0c6H
	DB	04aH
	DB	06H
	DB	04bH
	DB	025H
	DB	043H
	DB	0a4H
	DB	03bH
	DB	04H
	DB	076H
	DB	084H
	DB	08fH
	DB	0e5H
	DB	097H
	DB	0c5H
	DB	097H
	DB	044H
	DB	08fH
	DB	0a4H
	DB	065H
	DB	0c4H
	DB	04bH
	DB	0c5H
	DB	053H
	DB	0a5H
	DB	053H
	DB	0c4H
	DB	043H
	DB	0c4H
	DB	07eH
	DB	0c5H
	DB	097H
	DB	0e5H
	DB	097H
	DB	084H
	DB	054H
	DB	0c4H
	DB	04bH
	DB	0a5H
	DB	05bH
	DB	0a4H
	DB	043H
	DB	0e5H
	DB	086H
	DB	0e5H
	DB	097H
	DB	0a4H
	DB	043H
	DB	0e6H
	DB	04aH
	DB	0c6H
	DB	04aH
	DB	0a6H
	DB	042H
	DB	087H
	DB	042H
	DB	066H
	DB	042H
	DB	046H
	DB	042H
	DB	047H
	DB	042H
	DB	047H
	DB	042H
	DB	046H
	DB	03aH
	DB	047H
	DB	042H
	DB	047H
	DB	042H
	DB	047H
	DB	042H
	DB	047H
	DB	03aH
	DB	047H
	DB	042H
	DB	047H
	DB	042H
	DB	027H
	DB	03aH
	DB	026H
	DB	03aH
	DB	0e6H
	DB	039H
	DB	00H
	DB	00H
	DB	00H
	DB	00H
	DB	00H
	DB	00H
	DB	0aaH
	DB	052H
	DB	0aaH
	DB	05aH
	DB	08aH
	DB	052H
	DB	0aaH
	DB	052H
	DB	0cbH
	DB	05aH
	DB	0abH
	DB	05aH
	DB	00H
	DB	00H
	DB	00H
	DB	00H
	DB	00H
	DB	00H
	DB	051H
	DB	08cH
	DB	0f0H
	DB	083H
	DB	0f0H
	DB	083H
	DB	0cfH
	DB	07bH
	DB	0efH
	DB	07bH
	DB	0cfH
	DB	07bH
	DB	0efH
	DB	07bH
	DB	0efH
	DB	07bH
	DB	0cfH
	DB	07bH
	DB	0efH
	DB	07bH
	DB	0cfH
	DB	07bH
	DB	0efH
	DB	07bH
	DB	0cfH
	DB	07bH
	DB	0efH
	DB	07bH
	DB	0cfH
	DB	07bH
	DB	0cfH
	DB	07bH
	DB	0e7H
	DB	039H
	DB	045H
	DB	029H
	DB	086H
	DB	031H
	DB	029H
	DB	04aH
	DB	08H
	DB	042H
	DB	045H
	DB	029H
	DB	065H
	DB	029H
	DB	049H
	DB	04aH
	DB	0cfH
	DB	07bH
	DB	0efH
	DB	07bH
	DB	0cfH
	DB	07bH
	DB	08H
	DB	042H
	DB	045H
	DB	029H
	DB	0c7H
	DB	039H
	DB	08H
	DB	042H
	DB	08H
	DB	042H
	DB	08H
	DB	042H
	DB	0cfH
	DB	07bH
	DB	0cfH
	DB	07bH
	DB	0cbH
	DB	05aH
	DB	066H
	DB	031H
	DB	086H
	DB	031H
	DB	08H
	DB	042H
	DB	08H
	DB	042H
	DB	08H
	DB	042H
	DB	02dH
	DB	06bH
	DB	0efH
	DB	07bH
	DB	0cfH
	DB	07bH
	DB	0efH
	DB	07bH
	DB	0cfH
	DB	07bH
	DB	0efH
	DB	07bH
	DB	0cfH
	DB	07bH
	DB	0efH
	DB	07bH
	DB	0cfH
	DB	07bH
	DB	0efH
	DB	07bH
	DB	0cfH
	DB	07bH
	DB	0cfH
	DB	07bH
	DB	0efH
	DB	07bH
	DB	0f0H
	DB	083H
	DB	0f0H
	DB	083H
	DB	051H
	DB	08cH
	DB	00H
	DB	00H
	DB	00H
	DB	00H
	DB	06H
	DB	03aH
	DB	027H
	DB	03aH
	DB	027H
	DB	042H
	DB	047H
	DB	042H
	DB	047H
	DB	042H
	DB	047H
	DB	042H
	DB	027H
	DB	042H
	DB	047H
	DB	042H
	DB	047H
	DB	042H
	DB	047H
	DB	042H
	DB	047H
	DB	042H
	DB	047H
	DB	042H
	DB	087H
	DB	042H
	DB	0a7H
	DB	042H
	DB	0c6H
	DB	04aH
	DB	06H
	DB	04bH
	DB	026H
	DB	04bH
	DB	044H
	DB	03bH
	DB	0e5H
	DB	086H
	DB	0c5H
	DB	097H
	DB	064H
	DB	08fH
	DB	044H
	DB	07eH
	DB	084H
	DB	07eH
	DB	0a5H
	DB	097H
	DB	0c5H
	DB	097H
	DB	044H
	DB	076H
	DB	0e4H
	DB	04bH
	DB	05H
	DB	05cH
	DB	03H
	DB	04cH
	DB	0c4H
	DB	086H
	DB	085H
	DB	097H
	DB	0a5H
	DB	097H
	DB	04H
	DB	087H
	DB	03H
	DB	04cH
	DB	04H
	DB	05cH
	DB	0e4H
	DB	043H
	DB	0e4H
	DB	086H
	DB	0a5H
	DB	097H
	DB	0e4H
	DB	043H
	DB	026H
	DB	04bH
	DB	0e6H
	DB	04aH
	DB	0c7H
	DB	04aH
	DB	087H
	DB	042H
	DB	067H
	DB	042H
	DB	067H
	DB	042H
	DB	047H
	DB	042H
	DB	047H
	DB	042H
	DB	027H
	DB	042H
	DB	047H
	DB	042H
	DB	047H
	DB	042H
	DB	027H
	DB	042H
	DB	047H
	DB	042H
	DB	047H
	DB	042H
	DB	027H
	DB	042H
	DB	027H
	DB	042H
	DB	027H
	DB	03aH
	DB	06H
	DB	03aH
	DB	00H
	DB	00H
	DB	00H
	DB	00H
	DB	00H
	DB	00H
	DB	0aaH
	DB	052H
	DB	0abH
	DB	05aH
	DB	0abH
	DB	052H
	DB	0abH
	DB	05aH
	DB	0cbH
	DB	05aH
	DB	0abH
	DB	05aH
	DB	00H
	DB	00H
	DB	00H
	DB	00H
	DB	00H
	DB	00H
	DB	031H
	DB	08cH
	DB	0efH
	DB	07bH
	DB	0cfH
	DB	07bH
	DB	0cfH
	DB	07bH
	DB	0cfH
	DB	07bH
	DB	0cfH
	DB	07bH
	DB	0cfH
	DB	07bH
	DB	0cfH
	DB	07bH
	DB	0cfH
	DB	07bH
	DB	0cfH
	DB	07bH
	DB	0cfH
	DB	07bH
	DB	0cfH
	DB	07bH
	DB	0cfH
	DB	07bH
	DB	0cfH
	DB	07bH
	DB	0cfH
	DB	07bH
	DB	0cbH
	DB	05aH
	DB	045H
	DB	029H
	DB	086H
	DB	031H
	DB	06eH
	DB	073H
	DB	0cfH
	DB	07bH
	DB	0cfH
	DB	07bH
	DB	0cH
	DB	063H
	DB	065H
	DB	029H
	DB	065H
	DB	029H
	DB	04dH
	DB	06bH
	DB	0cfH
	DB	07bH
	DB	0cfH
	DB	07bH
	DB	08H
	DB	042H
	DB	045H
	DB	029H
	DB	0ecH
	DB	062H
	DB	0cfH
	DB	07bH
	DB	0cfH
	DB	07bH
	DB	0cfH
	DB	07bH
	DB	0cfH
	DB	07bH
	DB	0cfH
	DB	07bH
	DB	0cbH
	DB	05aH
	DB	045H
	DB	029H
	DB	029H
	DB	04aH
	DB	0cfH
	DB	07bH
	DB	0afH
	DB	07bH
	DB	0cfH
	DB	07bH
	DB	0cfH
	DB	07bH
	DB	0cfH
	DB	07bH
	DB	0cfH
	DB	07bH
	DB	0cfH
	DB	07bH
	DB	0cfH
	DB	07bH
	DB	0cfH
	DB	07bH
	DB	0cfH
	DB	07bH
	DB	0cfH
	DB	07bH
	DB	0cfH
	DB	07bH
	DB	0cfH
	DB	07bH
	DB	0cfH
	DB	07bH
	DB	0cfH
	DB	07bH
	DB	0cfH
	DB	07bH
	DB	0cfH
	DB	07bH
	DB	0efH
	DB	07bH
	DB	031H
	DB	08cH
	DB	00H
	DB	00H
	DB	00H
	DB	00H
	DB	0e6H
	DB	039H
	DB	027H
	DB	03aH
	DB	027H
	DB	03aH
	DB	047H
	DB	042H
	DB	047H
	DB	042H
	DB	027H
	DB	03aH
	DB	047H
	DB	042H
	DB	047H
	DB	042H
	DB	027H
	DB	03aH
	DB	047H
	DB	042H
	DB	047H
	DB	042H
	DB	067H
	DB	042H
	DB	087H
	DB	042H
	DB	0a7H
	DB	04aH
	DB	0e6H
	DB	04aH
	DB	06H
	DB	04bH
	DB	045H
	DB	04bH
	DB	024H
	DB	065H
	DB	0a5H
	DB	097H
	DB	044H
	DB	08fH
	DB	063H
	DB	04cH
	DB	0e3H
	DB	04bH
	DB	03H
	DB	04cH
	DB	03H
	DB	055H
	DB	085H
	DB	097H
	DB	0a5H
	DB	097H
	DB	0e3H
	DB	054H
	DB	024H
	DB	05cH
	DB	023H
	DB	04cH
	DB	0a4H
	DB	07eH
	DB	085H
	DB	097H
	DB	04H
	DB	08fH
	DB	0a5H
	DB	097H
	DB	0a3H
	DB	065H
	DB	023H
	DB	04cH
	DB	023H
	DB	04cH
	DB	0c4H
	DB	086H
	DB	085H
	DB	097H
	DB	04H
	DB	04cH
	DB	046H
	DB	04bH
	DB	06H
	DB	04bH
	DB	0c6H
	DB	04aH
	DB	0a7H
	DB	042H
	DB	067H
	DB	042H
	DB	047H
	DB	042H
	DB	047H
	DB	042H
	DB	047H
	DB	03aH
	DB	027H
	DB	042H
	DB	047H
	DB	042H
	DB	047H
	DB	03aH
	DB	027H
	DB	042H
	DB	047H
	DB	03aH
	DB	047H
	DB	042H
	DB	047H
	DB	042H
	DB	027H
	DB	03aH
	DB	027H
	DB	03aH
	DB	0e6H
	DB	039H
	DB	00H
	DB	00H
	DB	00H
	DB	00H
	DB	00H
	DB	00H
	DB	0abH
	DB	05aH
	DB	0cbH
	DB	05aH
	DB	0cbH
	DB	05aH
	DB	0cbH
	DB	05aH
	DB	0cbH
	DB	05aH
	DB	0cbH
	DB	05aH
	DB	00H
	DB	00H
	DB	00H
	DB	00H
	DB	00H
	DB	00H
	DB	030H
	DB	084H
	DB	0cfH
	DB	07bH
	DB	0cfH
	DB	07bH
	DB	0afH
	DB	07bH
	DB	0afH
	DB	07bH
	DB	0afH
	DB	07bH
	DB	0afH
	DB	07bH
	DB	0afH
	DB	07bH
	DB	0afH
	DB	07bH
	DB	0afH
	DB	07bH
	DB	0afH
	DB	07bH
	DB	0afH
	DB	07bH
	DB	0afH
	DB	07bH
	DB	0afH
	DB	07bH
	DB	0afH
	DB	07bH
	DB	028H
	DB	042H
	DB	065H
	DB	029H
	DB	049H
	DB	04aH
	DB	0afH
	DB	07bH
	DB	0afH
	DB	07bH
	DB	0afH
	DB	07bH
	DB	0afH
	DB	07bH
	DB	0e8H
	DB	041H
	DB	065H
	DB	029H
	DB	08aH
	DB	052H
	DB	0afH
	DB	07bH
	DB	0afH
	DB	07bH
	DB	08H
	DB	042H
	DB	065H
	DB	029H
	DB	0ecH
	DB	062H
	DB	0afH
	DB	07bH
	DB	0afH
	DB	07bH
	DB	0afH
	DB	07bH
	DB	0afH
	DB	07bH
	DB	0afH
	DB	07bH
	DB	0cbH
	DB	05aH
	DB	045H
	DB	029H
	DB	028H
	DB	042H
	DB	0afH
	DB	07bH
	DB	0afH
	DB	07bH
	DB	0aeH
	DB	073H
	DB	0afH
	DB	07bH
	DB	0afH
	DB	07bH
	DB	0afH
	DB	07bH
	DB	0afH
	DB	07bH
	DB	0afH
	DB	07bH
	DB	0afH
	DB	07bH
	DB	0afH
	DB	07bH
	DB	0afH
	DB	07bH
	DB	0afH
	DB	07bH
	DB	0afH
	DB	07bH
	DB	0afH
	DB	07bH
	DB	0afH
	DB	07bH
	DB	0afH
	DB	07bH
	DB	0cfH
	DB	07bH
	DB	0cfH
	DB	07bH
	DB	030H
	DB	084H
	DB	00H
	DB	00H
	DB	00H
	DB	00H
	DB	06H
	DB	03aH
	DB	027H
	DB	03aH
	DB	047H
	DB	042H
	DB	047H
	DB	042H
	DB	047H
	DB	042H
	DB	047H
	DB	042H
	DB	047H
	DB	042H
	DB	047H
	DB	042H
	DB	047H
	DB	042H
	DB	047H
	DB	042H
	DB	047H
	DB	042H
	DB	067H
	DB	042H
	DB	087H
	DB	042H
	DB	0c6H
	DB	04aH
	DB	0e6H
	DB	04aH
	DB	026H
	DB	04bH
	DB	045H
	DB	043H
	DB	044H
	DB	076H
	DB	085H
	DB	097H
	DB	04H
	DB	076H
	DB	04H
	DB	04cH
	DB	024H
	DB	05cH
	DB	044H
	DB	05cH
	DB	043H
	DB	04cH
	DB	0a4H
	DB	086H
	DB	085H
	DB	097H
	DB	0e4H
	DB	06dH
	DB	043H
	DB	054H
	DB	043H
	DB	04cH
	DB	0c4H
	DB	07eH
	DB	065H
	DB	097H
	DB	0a3H
	DB	065H
	DB	085H
	DB	097H
	DB	085H
	DB	097H
	DB	083H
	DB	04cH
	DB	043H
	DB	04cH
	DB	0e4H
	DB	086H
	DB	085H
	DB	097H
	DB	024H
	DB	04cH
	DB	065H
	DB	04bH
	DB	026H
	DB	053H
	DB	0e6H
	DB	04aH
	DB	0c7H
	DB	04aH
	DB	087H
	DB	042H
	DB	067H
	DB	042H
	DB	047H
	DB	042H
	DB	047H
	DB	042H
	DB	047H
	DB	042H
	DB	047H
	DB	042H
	DB	047H
	DB	042H
	DB	047H
	DB	042H
	DB	047H
	DB	042H
	DB	047H
	DB	042H
	DB	047H
	DB	042H
	DB	047H
	DB	042H
	DB	027H
	DB	03aH
	DB	06H
	DB	03aH
	DB	00H
	DB	00H
	DB	00H
	DB	00H
	DB	00H
	DB	00H
	DB	0cbH
	DB	05aH
	DB	0cbH
	DB	05aH
	DB	0cbH
	DB	05aH
	DB	0ebH
	DB	05aH
	DB	0ecH
	DB	062H
	DB	0ebH
	DB	05aH
	DB	00H
	DB	00H
	DB	00H
	DB	00H
	DB	00H
	DB	00H
	DB	010H
	DB	084H
	DB	0cfH
	DB	07bH
	DB	0aeH
	DB	073H
	DB	08eH
	DB	073H
	DB	0aeH
	DB	073H
	DB	08eH
	DB	073H
	DB	08eH
	DB	073H
	DB	0aeH
	DB	073H
	DB	08eH
	DB	073H
	DB	08eH
	DB	073H
	DB	0aeH
	DB	073H
	DB	08eH
	DB	073H
	DB	0aeH
	DB	073H
	DB	08eH
	DB	073H
	DB	0aeH
	DB	073H
	DB	0c7H
	DB	039H
	DB	045H
	DB	029H
	DB	0abH
	DB	05aH
	DB	0aeH
	DB	073H
	DB	0aeH
	DB	073H
	DB	08eH
	DB	073H
	DB	0aeH
	DB	073H
	DB	049H
	DB	04aH
	DB	045H
	DB	029H
	DB	049H
	DB	04aH
	DB	0aeH
	DB	073H
	DB	08eH
	DB	073H
	DB	0e8H
	DB	041H
	DB	065H
	DB	029H
	DB	0c7H
	DB	039H
	DB	08H
	DB	042H
	DB	08H
	DB	042H
	DB	08aH
	DB	052H
	DB	08eH
	DB	073H
	DB	0aeH
	DB	073H
	DB	0abH
	DB	05aH
	DB	065H
	DB	029H
	DB	0a6H
	DB	031H
	DB	08H
	DB	042H
	DB	028H
	DB	042H
	DB	028H
	DB	042H
	DB	06eH
	DB	073H
	DB	08eH
	DB	073H
	DB	0aeH
	DB	073H
	DB	08eH
	DB	073H
	DB	0aeH
	DB	073H
	DB	08eH
	DB	073H
	DB	0aeH
	DB	073H
	DB	08eH
	DB	073H
	DB	0aeH
	DB	073H
	DB	08eH
	DB	073H
	DB	0aeH
	DB	073H
	DB	0aeH
	DB	073H
	DB	08eH
	DB	073H
	DB	0aeH
	DB	073H
	DB	0cfH
	DB	07bH
	DB	010H
	DB	084H
	DB	00H
	DB	00H
	DB	00H
	DB	00H
	DB	0e6H
	DB	039H
	DB	027H
	DB	042H
	DB	047H
	DB	042H
	DB	047H
	DB	042H
	DB	047H
	DB	042H
	DB	047H
	DB	042H
	DB	047H
	DB	042H
	DB	047H
	DB	042H
	DB	047H
	DB	042H
	DB	047H
	DB	042H
	DB	047H
	DB	042H
	DB	067H
	DB	042H
	DB	087H
	DB	042H
	DB	0c7H
	DB	04aH
	DB	07H
	DB	04bH
	DB	026H
	DB	053H
	DB	044H
	DB	043H
	DB	0c5H
	DB	086H
	DB	085H
	DB	097H
	DB	064H
	DB	065H
	DB	024H
	DB	054H
	DB	065H
	DB	064H
	DB	064H
	DB	064H
	DB	043H
	DB	054H
	DB	044H
	DB	076H
	DB	085H
	DB	097H
	DB	044H
	DB	076H
	DB	043H
	DB	054H
	DB	063H
	DB	04cH
	DB	0c4H
	DB	086H
	DB	085H
	DB	097H
	DB	0e2H
	DB	054H
	DB	0c4H
	DB	086H
	DB	085H
	DB	097H
	DB	044H
	DB	076H
	DB	043H
	DB	04cH
	DB	0e4H
	DB	086H
	DB	085H
	DB	097H
	DB	024H
	DB	04cH
	DB	065H
	DB	053H
	DB	026H
	DB	053H
	DB	0e7H
	DB	04aH
	DB	0c7H
	DB	04aH
	DB	087H
	DB	042H
	DB	067H
	DB	042H
	DB	047H
	DB	042H
	DB	047H
	DB	042H
	DB	048H
	DB	042H
	DB	047H
	DB	042H
	DB	047H
	DB	042H
	DB	047H
	DB	042H
	DB	047H
	DB	042H
	DB	047H
	DB	042H
	DB	047H
	DB	042H
	DB	047H
	DB	042H
	DB	027H
	DB	03aH
	DB	0e6H
	DB	039H
	DB	00H
	DB	00H
	DB	00H
	DB	00H
	DB	00H
	DB	00H
	DB	0ebH
	DB	05aH
	DB	0ecH
	DB	062H
	DB	0cbH
	DB	05aH
	DB	0ebH
	DB	05aH
	DB	0cH
	DB	063H
	DB	0ecH
	DB	062H
	DB	00H
	DB	00H
	DB	00H
	DB	00H
	DB	00H
	DB	00H
	DB	0f0H
	DB	083H
	DB	0afH
	DB	07bH
	DB	0aeH
	DB	073H
	DB	08eH
	DB	073H
	DB	08eH
	DB	073H
	DB	08eH
	DB	073H
	DB	08eH
	DB	073H
	DB	08eH
	DB	073H
	DB	08eH
	DB	073H
	DB	08eH
	DB	073H
	DB	08eH
	DB	073H
	DB	08eH
	DB	073H
	DB	08eH
	DB	073H
	DB	08eH
	DB	073H
	DB	08eH
	DB	073H
	DB	0c7H
	DB	039H
	DB	045H
	DB	029H
	DB	0abH
	DB	05aH
	DB	08eH
	DB	073H
	DB	08eH
	DB	073H
	DB	08eH
	DB	073H
	DB	08eH
	DB	073H
	DB	049H
	DB	04aH
	DB	045H
	DB	029H
	DB	049H
	DB	04aH
	DB	08eH
	DB	073H
	DB	08eH
	DB	073H
	DB	0e8H
	DB	041H
	DB	045H
	DB	029H
	DB	065H
	DB	029H
	DB	065H
	DB	029H
	DB	065H
	DB	029H
	DB	0e8H
	DB	041H
	DB	08eH
	DB	073H
	DB	08eH
	DB	073H
	DB	0aaH
	DB	052H
	DB	045H
	DB	029H
	DB	065H
	DB	029H
	DB	045H
	DB	029H
	DB	045H
	DB	029H
	DB	065H
	DB	029H
	DB	06dH
	DB	06bH
	DB	08eH
	DB	073H
	DB	08eH
	DB	073H
	DB	08eH
	DB	073H
	DB	08eH
	DB	073H
	DB	08eH
	DB	073H
	DB	08eH
	DB	073H
	DB	08eH
	DB	073H
	DB	08eH
	DB	073H
	DB	08eH
	DB	073H
	DB	08eH
	DB	073H
	DB	08eH
	DB	073H
	DB	08eH
	DB	073H
	DB	08eH
	DB	073H
	DB	0afH
	DB	07bH
	DB	0f0H
	DB	083H
	DB	00H
	DB	00H
	DB	00H
	DB	00H
	DB	07H
	DB	03aH
	DB	027H
	DB	03aH
	DB	047H
	DB	042H
	DB	048H
	DB	042H
	DB	048H
	DB	042H
	DB	048H
	DB	042H
	DB	048H
	DB	042H
	DB	048H
	DB	042H
	DB	048H
	DB	042H
	DB	048H
	DB	042H
	DB	068H
	DB	042H
	DB	087H
	DB	042H
	DB	087H
	DB	04aH
	DB	0c7H
	DB	04aH
	DB	07H
	DB	04bH
	DB	026H
	DB	053H
	DB	044H
	DB	043H
	DB	0c4H
	DB	086H
	DB	085H
	DB	097H
	DB	083H
	DB	065H
	DB	024H
	DB	054H
	DB	064H
	DB	064H
	DB	065H
	DB	064H
	DB	064H
	DB	054H
	DB	044H
	DB	076H
	DB	084H
	DB	097H
	DB	044H
	DB	076H
	DB	043H
	DB	054H
	DB	063H
	DB	04cH
	DB	0c4H
	DB	086H
	DB	085H
	DB	097H
	DB	03H
	DB	055H
	DB	023H
	DB	05dH
	DB	084H
	DB	097H
	DB	0a4H
	DB	097H
	DB	0c3H
	DB	04cH
	DB	0a4H
	DB	07eH
	DB	084H
	DB	097H
	DB	044H
	DB	04cH
	DB	086H
	DB	053H
	DB	046H
	DB	053H
	DB	07H
	DB	04bH
	DB	0c7H
	DB	04aH
	DB	087H
	DB	04aH
	DB	067H
	DB	042H
	DB	048H
	DB	042H
	DB	048H
	DB	042H
	DB	048H
	DB	042H
	DB	048H
	DB	042H
	DB	048H
	DB	042H
	DB	048H
	DB	042H
	DB	048H
	DB	042H
	DB	048H
	DB	042H
	DB	048H
	DB	042H
	DB	047H
	DB	042H
	DB	027H
	DB	042H
	DB	07H
	DB	03aH
	DB	00H
	DB	00H
	DB	00H
	DB	00H
	DB	00H
	DB	00H
	DB	0ecH
	DB	062H
	DB	0cH
	DB	063H
	DB	0ebH
	DB	05aH
	DB	0ecH
	DB	062H
	DB	0cH
	DB	063H
	DB	0ecH
	DB	062H
	DB	00H
	DB	00H
	DB	00H
	DB	00H
	DB	00H
	DB	00H
	DB	0efH
	DB	07bH
	DB	08eH
	DB	073H
	DB	08eH
	DB	073H
	DB	06eH
	DB	073H
	DB	06eH
	DB	073H
	DB	06eH
	DB	073H
	DB	06eH
	DB	073H
	DB	06dH
	DB	06bH
	DB	06eH
	DB	073H
	DB	06eH
	DB	073H
	DB	06eH
	DB	073H
	DB	06eH
	DB	073H
	DB	06eH
	DB	073H
	DB	06eH
	DB	073H
	DB	06eH
	DB	073H
	DB	08H
	DB	042H
	DB	065H
	DB	029H
	DB	029H
	DB	04aH
	DB	06eH
	DB	073H
	DB	06dH
	DB	06bH
	DB	06eH
	DB	073H
	DB	06eH
	DB	073H
	DB	0c7H
	DB	039H
	DB	045H
	DB	029H
	DB	06aH
	DB	052H
	DB	06eH
	DB	073H
	DB	06eH
	DB	073H
	DB	0e7H
	DB	039H
	DB	065H
	DB	029H
	DB	08aH
	DB	052H
	DB	04dH
	DB	06bH
	DB	04dH
	DB	06bH
	DB	04dH
	DB	06bH
	DB	06eH
	DB	073H
	DB	06eH
	DB	073H
	DB	0aaH
	DB	052H
	DB	065H
	DB	029H
	DB	08H
	DB	042H
	DB	04eH
	DB	073H
	DB	04dH
	DB	06bH
	DB	04dH
	DB	06bH
	DB	06eH
	DB	073H
	DB	06eH
	DB	073H
	DB	06eH
	DB	073H
	DB	06dH
	DB	06bH
	DB	06eH
	DB	073H
	DB	06eH
	DB	073H
	DB	06dH
	DB	06bH
	DB	06eH
	DB	073H
	DB	06eH
	DB	073H
	DB	06dH
	DB	06bH
	DB	06eH
	DB	073H
	DB	06eH
	DB	073H
	DB	06eH
	DB	073H
	DB	08eH
	DB	073H
	DB	08eH
	DB	073H
	DB	0efH
	DB	07bH
	DB	00H
	DB	00H
	DB	00H
	DB	00H
	DB	07H
	DB	03aH
	DB	047H
	DB	042H
	DB	048H
	DB	042H
	DB	048H
	DB	042H
	DB	067H
	DB	042H
	DB	068H
	DB	042H
	DB	048H
	DB	042H
	DB	067H
	DB	042H
	DB	068H
	DB	042H
	DB	048H
	DB	042H
	DB	068H
	DB	042H
	DB	087H
	DB	042H
	DB	0a7H
	DB	04aH
	DB	0c7H
	DB	04aH
	DB	07H
	DB	04bH
	DB	026H
	DB	053H
	DB	045H
	DB	043H
	DB	044H
	DB	076H
	DB	085H
	DB	097H
	DB	024H
	DB	076H
	DB	03H
	DB	04cH
	DB	044H
	DB	05cH
	DB	044H
	DB	05cH
	DB	043H
	DB	04cH
	DB	0e4H
	DB	086H
	DB	085H
	DB	097H
	DB	0c4H
	DB	06dH
	DB	024H
	DB	054H
	DB	043H
	DB	04cH
	DB	0c4H
	DB	07eH
	DB	085H
	DB	097H
	DB	0e3H
	DB	054H
	DB	063H
	DB	054H
	DB	044H
	DB	076H
	DB	084H
	DB	097H
	DB	084H
	DB	07eH
	DB	0a4H
	DB	07eH
	DB	085H
	DB	097H
	DB	024H
	DB	04cH
	DB	085H
	DB	053H
	DB	046H
	DB	053H
	DB	07H
	DB	04bH
	DB	0c7H
	DB	04aH
	DB	087H
	DB	04aH
	DB	068H
	DB	042H
	DB	068H
	DB	042H
	DB	067H
	DB	042H
	DB	047H
	DB	042H
	DB	068H
	DB	042H
	DB	068H
	DB	042H
	DB	047H
	DB	042H
	DB	068H
	DB	042H
	DB	068H
	DB	042H
	DB	048H
	DB	042H
	DB	047H
	DB	042H
	DB	047H
	DB	042H
	DB	07H
	DB	03aH
	DB	00H
	DB	00H
	DB	00H
	DB	00H
	DB	00H
	DB	00H
	DB	0ecH
	DB	062H
	DB	0cH
	DB	063H
	DB	0cH
	DB	063H
	DB	0cH
	DB	063H
	DB	02cH
	DB	063H
	DB	0cH
	DB	063H
	DB	00H
	DB	00H
	DB	00H
	DB	00H
	DB	00H
	DB	00H
	DB	0efH
	DB	07bH
	DB	08eH
	DB	073H
	DB	06eH
	DB	073H
	DB	06dH
	DB	06bH
	DB	06dH
	DB	06bH
	DB	06dH
	DB	06bH
	DB	06dH
	DB	06bH
	DB	06dH
	DB	06bH
	DB	06dH
	DB	06bH
	DB	06dH
	DB	06bH
	DB	06dH
	DB	06bH
	DB	06dH
	DB	06bH
	DB	06dH
	DB	06bH
	DB	06dH
	DB	06bH
	DB	06dH
	DB	06bH
	DB	0abH
	DB	05aH
	DB	065H
	DB	029H
	DB	086H
	DB	031H
	DB	02cH
	DB	063H
	DB	06dH
	DB	06bH
	DB	06dH
	DB	06bH
	DB	0ebH
	DB	05aH
	DB	045H
	DB	029H
	DB	065H
	DB	029H
	DB	0cH
	DB	063H
	DB	06dH
	DB	06bH
	DB	06dH
	DB	06bH
	DB	0e8H
	DB	041H
	DB	045H
	DB	029H
	DB	0abH
	DB	05aH
	DB	06eH
	DB	073H
	DB	06dH
	DB	06bH
	DB	06dH
	DB	06bH
	DB	06dH
	DB	06bH
	DB	06dH
	DB	06bH
	DB	08aH
	DB	052H
	DB	046H
	DB	031H
	DB	08H
	DB	042H
	DB	06eH
	DB	073H
	DB	06dH
	DB	06bH
	DB	06dH
	DB	06bH
	DB	06eH
	DB	073H
	DB	06dH
	DB	06bH
	DB	06dH
	DB	06bH
	DB	06dH
	DB	06bH
	DB	06dH
	DB	06bH
	DB	06dH
	DB	06bH
	DB	06dH
	DB	06bH
	DB	06dH
	DB	06bH
	DB	06dH
	DB	06bH
	DB	06dH
	DB	06bH
	DB	06dH
	DB	06bH
	DB	06dH
	DB	06bH
	DB	06dH
	DB	06bH
	DB	06eH
	DB	073H
	DB	08eH
	DB	073H
	DB	0efH
	DB	07bH
	DB	00H
	DB	00H
	DB	00H
	DB	00H
	DB	07H
	DB	03aH
	DB	027H
	DB	042H
	DB	048H
	DB	042H
	DB	068H
	DB	042H
	DB	067H
	DB	042H
	DB	048H
	DB	042H
	DB	048H
	DB	042H
	DB	067H
	DB	042H
	DB	048H
	DB	042H
	DB	048H
	DB	042H
	DB	067H
	DB	042H
	DB	068H
	DB	04aH
	DB	087H
	DB	04aH
	DB	0c7H
	DB	04aH
	DB	0e7H
	DB	04aH
	DB	027H
	DB	053H
	DB	046H
	DB	04bH
	DB	0e4H
	DB	05cH
	DB	085H
	DB	097H
	DB	065H
	DB	097H
	DB	063H
	DB	04cH
	DB	04H
	DB	04cH
	DB	04H
	DB	04cH
	DB	03H
	DB	05dH
	DB	0a5H
	DB	097H
	DB	085H
	DB	097H
	DB	0c3H
	DB	054H
	DB	024H
	DB	05cH
	DB	024H
	DB	04cH
	DB	0a4H
	DB	086H
	DB	085H
	DB	097H
	DB	0c3H
	DB	054H
	DB	064H
	DB	05cH
	DB	063H
	DB	04cH
	DB	045H
	DB	097H
	DB	085H
	DB	097H
	DB	044H
	DB	097H
	DB	085H
	DB	097H
	DB	04H
	DB	04cH
	DB	066H
	DB	053H
	DB	026H
	DB	053H
	DB	0e7H
	DB	04aH
	DB	0c7H
	DB	04aH
	DB	0a7H
	DB	04aH
	DB	068H
	DB	042H
	DB	068H
	DB	042H
	DB	048H
	DB	042H
	DB	068H
	DB	042H
	DB	047H
	DB	042H
	DB	068H
	DB	042H
	DB	048H
	DB	042H
	DB	067H
	DB	042H
	DB	048H
	DB	042H
	DB	068H
	DB	042H
	DB	048H
	DB	042H
	DB	027H
	DB	042H
	DB	07H
	DB	03aH
	DB	00H
	DB	00H
	DB	00H
	DB	00H
	DB	00H
	DB	00H
	DB	0cH
	DB	063H
	DB	02cH
	DB	063H
	DB	0cH
	DB	063H
	DB	02cH
	DB	063H
	DB	02dH
	DB	06bH
	DB	02cH
	DB	063H
	DB	00H
	DB	00H
	DB	00H
	DB	00H
	DB	00H
	DB	00H
	DB	0cfH
	DB	07bH
	DB	06eH
	DB	073H
	DB	06dH
	DB	06bH
	DB	04dH
	DB	06bH
	DB	04dH
	DB	06bH
	DB	04dH
	DB	06bH
	DB	04dH
	DB	06bH
	DB	04dH
	DB	06bH
	DB	04dH
	DB	06bH
	DB	04dH
	DB	06bH
	DB	04dH
	DB	06bH
	DB	04dH
	DB	06bH
	DB	04dH
	DB	06bH
	DB	04dH
	DB	06bH
	DB	04dH
	DB	06bH
	DB	04dH
	DB	06bH
	DB	0c7H
	DB	039H
	DB	045H
	DB	029H
	DB	066H
	DB	031H
	DB	0e7H
	DB	039H
	DB	0e8H
	DB	041H
	DB	045H
	DB	029H
	DB	065H
	DB	029H
	DB	029H
	DB	04aH
	DB	04dH
	DB	06bH
	DB	04dH
	DB	06bH
	DB	04dH
	DB	06bH
	DB	0e7H
	DB	039H
	DB	065H
	DB	029H
	DB	0abH
	DB	05aH
	DB	04dH
	DB	06bH
	DB	04dH
	DB	06bH
	DB	04dH
	DB	06bH
	DB	04dH
	DB	06bH
	DB	04dH
	DB	06bH
	DB	08aH
	DB	052H
	DB	065H
	DB	029H
	DB	08H
	DB	042H
	DB	04dH
	DB	06bH
	DB	04dH
	DB	06bH
	DB	04dH
	DB	06bH
	DB	04dH
	DB	06bH
	DB	04dH
	DB	06bH
	DB	04dH
	DB	06bH
	DB	04dH
	DB	06bH
	DB	04dH
	DB	06bH
	DB	04dH
	DB	06bH
	DB	04dH
	DB	06bH
	DB	04dH
	DB	06bH
	DB	04dH
	DB	06bH
	DB	04dH
	DB	06bH
	DB	04dH
	DB	06bH
	DB	04dH
	DB	06bH
	DB	04dH
	DB	06bH
	DB	06dH
	DB	06bH
	DB	06eH
	DB	073H
	DB	0cfH
	DB	07bH
	DB	00H
	DB	00H
	DB	00H
	DB	00H
	DB	07H
	DB	03aH
	DB	047H
	DB	042H
	DB	068H
	DB	042H
	DB	068H
	DB	042H
	DB	068H
	DB	04aH
	DB	068H
	DB	042H
	DB	068H
	DB	04aH
	DB	068H
	DB	042H
	DB	068H
	DB	04aH
	DB	068H
	DB	042H
	DB	068H
	DB	042H
	DB	068H
	DB	04aH
	DB	0a8H
	DB	04aH
	DB	0c7H
	DB	04aH
	DB	0e7H
	DB	04aH
	DB	07H
	DB	053H
	DB	046H
	DB	053H
	DB	045H
	DB	043H
	DB	0a4H
	DB	086H
	DB	085H
	DB	097H
	DB	084H
	DB	08fH
	DB	0c4H
	DB	07eH
	DB	0c4H
	DB	07eH
	DB	0c5H
	DB	097H
	DB	085H
	DB	097H
	DB	04H
	DB	076H
	DB	0e4H
	DB	04bH
	DB	0e5H
	DB	05bH
	DB	0e4H
	DB	04bH
	DB	0a4H
	DB	07eH
	DB	085H
	DB	097H
	DB	084H
	DB	054H
	DB	024H
	DB	05cH
	DB	04H
	DB	04cH
	DB	064H
	DB	065H
	DB	084H
	DB	097H
	DB	065H
	DB	097H
	DB	084H
	DB	097H
	DB	04H
	DB	04cH
	DB	046H
	DB	04bH
	DB	027H
	DB	053H
	DB	0e7H
	DB	04aH
	DB	0c7H
	DB	04aH
	DB	088H
	DB	04aH
	DB	088H
	DB	04aH
	DB	068H
	DB	042H
	DB	068H
	DB	04aH
	DB	068H
	DB	04aH
	DB	068H
	DB	042H
	DB	068H
	DB	04aH
	DB	068H
	DB	04aH
	DB	068H
	DB	042H
	DB	068H
	DB	04aH
	DB	068H
	DB	042H
	DB	048H
	DB	042H
	DB	047H
	DB	042H
	DB	07H
	DB	03aH
	DB	00H
	DB	00H
	DB	00H
	DB	00H
	DB	00H
	DB	00H
	DB	02cH
	DB	063H
	DB	02dH
	DB	06bH
	DB	02cH
	DB	063H
	DB	02dH
	DB	06bH
	DB	04dH
	DB	06bH
	DB	02dH
	DB	06bH
	DB	00H
	DB	00H
	DB	00H
	DB	00H
	DB	00H
	DB	00H
	DB	0afH
	DB	07bH
	DB	06dH
	DB	06bH
	DB	04dH
	DB	06bH
	DB	04dH
	DB	06bH
	DB	04dH
	DB	06bH
	DB	04dH
	DB	06bH
	DB	04dH
	DB	06bH
	DB	04dH
	DB	06bH
	DB	04dH
	DB	06bH
	DB	04dH
	DB	06bH
	DB	04dH
	DB	06bH
	DB	04dH
	DB	06bH
	DB	04dH
	DB	06bH
	DB	04dH
	DB	06bH
	DB	04dH
	DB	06bH
	DB	04dH
	DB	06bH
	DB	02cH
	DB	063H
	DB	029H
	DB	04aH
	DB	066H
	DB	031H
	DB	065H
	DB	029H
	DB	045H
	DB	029H
	DB	086H
	DB	031H
	DB	08aH
	DB	052H
	DB	04dH
	DB	06bH
	DB	04dH
	DB	06bH
	DB	04dH
	DB	06bH
	DB	04dH
	DB	06bH
	DB	0c7H
	DB	039H
	DB	065H
	DB	029H
	DB	0aaH
	DB	052H
	DB	04dH
	DB	06bH
	DB	04dH
	DB	06bH
	DB	04dH
	DB	06bH
	DB	04dH
	DB	06bH
	DB	04dH
	DB	06bH
	DB	08aH
	DB	052H
	DB	045H
	DB	029H
	DB	08H
	DB	042H
	DB	04dH
	DB	06bH
	DB	04dH
	DB	06bH
	DB	04dH
	DB	06bH
	DB	04dH
	DB	06bH
	DB	04dH
	DB	06bH
	DB	04dH
	DB	06bH
	DB	04dH
	DB	06bH
	DB	04dH
	DB	06bH
	DB	04dH
	DB	06bH
	DB	04dH
	DB	06bH
	DB	04dH
	DB	06bH
	DB	04dH
	DB	06bH
	DB	04dH
	DB	06bH
	DB	04dH
	DB	06bH
	DB	04dH
	DB	06bH
	DB	04dH
	DB	06bH
	DB	04dH
	DB	06bH
	DB	06dH
	DB	06bH
	DB	0cfH
	DB	07bH
	DB	00H
	DB	00H
	DB	00H
	DB	00H
	DB	027H
	DB	03aH
	DB	047H
	DB	042H
	DB	068H
	DB	042H
	DB	068H
	DB	04aH
	DB	068H
	DB	042H
	DB	068H
	DB	042H
	DB	068H
	DB	04aH
	DB	068H
	DB	042H
	DB	068H
	DB	04aH
	DB	068H
	DB	04aH
	DB	068H
	DB	042H
	DB	088H
	DB	042H
	DB	088H
	DB	04aH
	DB	0a7H
	DB	04aH
	DB	0c7H
	DB	04aH
	DB	07H
	DB	04bH
	DB	027H
	DB	053H
	DB	046H
	DB	04bH
	DB	0a4H
	DB	043H
	DB	084H
	DB	06dH
	DB	045H
	DB	097H
	DB	085H
	DB	097H
	DB	085H
	DB	097H
	DB	04H
	DB	08fH
	DB	024H
	DB	065H
	DB	0a4H
	DB	04bH
	DB	0c6H
	DB	053H
	DB	0a6H
	DB	05bH
	DB	0a5H
	DB	04bH
	DB	085H
	DB	07eH
	DB	084H
	DB	097H
	DB	044H
	DB	04cH
	DB	0e5H
	DB	05bH
	DB	0e5H
	DB	05bH
	DB	0c4H
	DB	043H
	DB	0e4H
	DB	08eH
	DB	065H
	DB	097H
	DB	085H
	DB	097H
	DB	0e4H
	DB	04bH
	DB	046H
	DB	04bH
	DB	07H
	DB	053H
	DB	0e7H
	DB	04aH
	DB	0c7H
	DB	04aH
	DB	088H
	DB	04aH
	DB	068H
	DB	042H
	DB	067H
	DB	042H
	DB	068H
	DB	04aH
	DB	068H
	DB	042H
	DB	068H
	DB	042H
	DB	068H
	DB	04aH
	DB	068H
	DB	042H
	DB	068H
	DB	042H
	DB	068H
	DB	04aH
	DB	068H
	DB	042H
	DB	067H
	DB	042H
	DB	047H
	DB	042H
	DB	027H
	DB	03aH
	DB	00H
	DB	00H
	DB	00H
	DB	00H
	DB	00H
	DB	00H
	DB	02dH
	DB	06bH
	DB	04dH
	DB	06bH
	DB	02dH
	DB	06bH
	DB	02dH
	DB	06bH
	DB	04dH
	DB	06bH
	DB	04dH
	DB	06bH
	DB	00H
	DB	00H
	DB	00H
	DB	00H
	DB	00H
	DB	00H
	DB	0afH
	DB	07bH
	DB	06dH
	DB	06bH
	DB	04dH
	DB	06bH
	DB	02dH
	DB	06bH
	DB	04dH
	DB	06bH
	DB	02dH
	DB	06bH
	DB	04dH
	DB	06bH
	DB	04dH
	DB	06bH
	DB	02dH
	DB	06bH
	DB	04dH
	DB	06bH
	DB	04dH
	DB	06bH
	DB	04dH
	DB	06bH
	DB	02dH
	DB	06bH
	DB	04dH
	DB	06bH
	DB	04dH
	DB	06bH
	DB	02dH
	DB	06bH
	DB	04dH
	DB	06bH
	DB	04dH
	DB	06bH
	DB	04dH
	DB	06bH
	DB	0cH
	DB	063H
	DB	02cH
	DB	063H
	DB	02dH
	DB	06bH
	DB	02dH
	DB	06bH
	DB	02dH
	DB	06bH
	DB	02dH
	DB	06bH
	DB	04dH
	DB	06bH
	DB	02dH
	DB	06bH
	DB	02dH
	DB	06bH
	DB	02dH
	DB	06bH
	DB	02dH
	DB	06bH
	DB	04dH
	DB	06bH
	DB	02dH
	DB	06bH
	DB	04dH
	DB	06bH
	DB	02dH
	DB	06bH
	DB	04dH
	DB	06bH
	DB	02dH
	DB	06bH
	DB	02dH
	DB	06bH
	DB	02dH
	DB	06bH
	DB	04dH
	DB	06bH
	DB	02dH
	DB	06bH
	DB	02dH
	DB	06bH
	DB	04dH
	DB	06bH
	DB	02dH
	DB	06bH
	DB	04dH
	DB	06bH
	DB	04dH
	DB	06bH
	DB	02dH
	DB	06bH
	DB	04dH
	DB	06bH
	DB	04dH
	DB	06bH
	DB	02dH
	DB	06bH
	DB	04dH
	DB	06bH
	DB	04dH
	DB	06bH
	DB	02dH
	DB	06bH
	DB	04dH
	DB	06bH
	DB	04dH
	DB	06bH
	DB	04dH
	DB	06bH
	DB	04dH
	DB	06bH
	DB	0afH
	DB	07bH
	DB	00H
	DB	00H
	DB	00H
	DB	00H
	DB	07H
	DB	03aH
	DB	047H
	DB	042H
	DB	068H
	DB	042H
	DB	068H
	DB	04aH
	DB	068H
	DB	04aH
	DB	068H
	DB	042H
	DB	068H
	DB	04aH
	DB	068H
	DB	042H
	DB	068H
	DB	042H
	DB	068H
	DB	04aH
	DB	068H
	DB	04aH
	DB	088H
	DB	04aH
	DB	088H
	DB	04aH
	DB	0a8H
	DB	04aH
	DB	0a7H
	DB	04aH
	DB	0c7H
	DB	04aH
	DB	07H
	DB	04bH
	DB	027H
	DB	053H
	DB	046H
	DB	053H
	DB	045H
	DB	04bH
	DB	065H
	DB	043H
	DB	084H
	DB	043H
	DB	0a4H
	DB	043H
	DB	065H
	DB	043H
	DB	085H
	DB	04bH
	DB	086H
	DB	05bH
	DB	066H
	DB	053H
	DB	067H
	DB	053H
	DB	066H
	DB	04bH
	DB	065H
	DB	04bH
	DB	065H
	DB	043H
	DB	065H
	DB	04bH
	DB	086H
	DB	053H
	DB	086H
	DB	05bH
	DB	086H
	DB	04bH
	DB	065H
	DB	043H
	DB	064H
	DB	043H
	DB	025H
	DB	03bH
	DB	026H
	DB	043H
	DB	07H
	DB	053H
	DB	0e7H
	DB	04aH
	DB	0c8H
	DB	04aH
	DB	0a8H
	DB	04aH
	DB	088H
	DB	04aH
	DB	068H
	DB	04aH
	DB	068H
	DB	042H
	DB	068H
	DB	04aH
	DB	068H
	DB	04aH
	DB	068H
	DB	042H
	DB	068H
	DB	04aH
	DB	068H
	DB	042H
	DB	068H
	DB	04aH
	DB	068H
	DB	04aH
	DB	068H
	DB	042H
	DB	068H
	DB	04aH
	DB	048H
	DB	042H
	DB	07H
	DB	03aH
	DB	00H
	DB	00H
	DB	00H
	DB	00H
	DB	00H
	DB	00H
	DB	04dH
	DB	06bH
	DB	04dH
	DB	06bH
	DB	02dH
	DB	06bH
	DB	04dH
	DB	06bH
	DB	06dH
	DB	06bH
	DB	04dH
	DB	06bH
	DB	00H
	DB	00H
	DB	00H
	DB	00H
	DB	00H
	DB	00H
	DB	0aeH
	DB	073H
	DB	04dH
	DB	06bH
	DB	04dH
	DB	06bH
	DB	02dH
	DB	06bH
	DB	02cH
	DB	063H
	DB	02dH
	DB	06bH
	DB	02dH
	DB	06bH
	DB	02cH
	DB	063H
	DB	02dH
	DB	06bH
	DB	02dH
	DB	06bH
	DB	02cH
	DB	063H
	DB	02dH
	DB	06bH
	DB	02cH
	DB	063H
	DB	02dH
	DB	06bH
	DB	02cH
	DB	063H
	DB	02dH
	DB	06bH
	DB	02cH
	DB	063H
	DB	02dH
	DB	06bH
	DB	02dH
	DB	06bH
	DB	02dH
	DB	06bH
	DB	02dH
	DB	06bH
	DB	04dH
	DB	06bH
	DB	02dH
	DB	06bH
	DB	02cH
	DB	063H
	DB	02dH
	DB	06bH
	DB	02cH
	DB	063H
	DB	02dH
	DB	06bH
	DB	02dH
	DB	06bH
	DB	02dH
	DB	06bH
	DB	02dH
	DB	06bH
	DB	02cH
	DB	063H
	DB	02dH
	DB	06bH
	DB	02dH
	DB	06bH
	DB	02cH
	DB	063H
	DB	02dH
	DB	06bH
	DB	02dH
	DB	06bH
	DB	02cH
	DB	063H
	DB	02dH
	DB	06bH
	DB	02cH
	DB	063H
	DB	02dH
	DB	06bH
	DB	02cH
	DB	063H
	DB	02dH
	DB	06bH
	DB	02dH
	DB	06bH
	DB	02cH
	DB	063H
	DB	02dH
	DB	06bH
	DB	02dH
	DB	06bH
	DB	02cH
	DB	063H
	DB	02dH
	DB	06bH
	DB	02dH
	DB	06bH
	DB	02dH
	DB	06bH
	DB	02cH
	DB	063H
	DB	02dH
	DB	06bH
	DB	02dH
	DB	06bH
	DB	02dH
	DB	06bH
	DB	04dH
	DB	06bH
	DB	04dH
	DB	06bH
	DB	0aeH
	DB	073H
	DB	00H
	DB	00H
	DB	00H
	DB	00H
	DB	027H
	DB	042H
	DB	048H
	DB	042H
	DB	068H
	DB	04aH
	DB	068H
	DB	04aH
	DB	068H
	DB	04aH
	DB	068H
	DB	04aH
	DB	068H
	DB	04aH
	DB	068H
	DB	04aH
	DB	068H
	DB	042H
	DB	068H
	DB	04aH
	DB	068H
	DB	042H
	DB	088H
	DB	04aH
	DB	088H
	DB	04aH
	DB	0a8H
	DB	04aH
	DB	0a8H
	DB	04aH
	DB	0c8H
	DB	04aH
	DB	0e8H
	DB	04aH
	DB	07H
	DB	053H
	DB	027H
	DB	053H
	DB	027H
	DB	053H
	DB	047H
	DB	053H
	DB	046H
	DB	053H
	DB	047H
	DB	053H
	DB	067H
	DB	053H
	DB	047H
	DB	053H
	DB	047H
	DB	053H
	DB	047H
	DB	053H
	DB	027H
	DB	053H
	DB	027H
	DB	053H
	DB	047H
	DB	053H
	DB	047H
	DB	053H
	DB	047H
	DB	053H
	DB	047H
	DB	053H
	DB	047H
	DB	053H
	DB	047H
	DB	053H
	DB	047H
	DB	053H
	DB	047H
	DB	053H
	DB	027H
	DB	053H
	DB	07H
	DB	053H
	DB	0e7H
	DB	052H
	DB	0e8H
	DB	04aH
	DB	0c8H
	DB	04aH
	DB	0a8H
	DB	04aH
	DB	088H
	DB	04aH
	DB	088H
	DB	04aH
	DB	068H
	DB	04aH
	DB	068H
	DB	042H
	DB	068H
	DB	04aH
	DB	068H
	DB	04aH
	DB	068H
	DB	04aH
	DB	068H
	DB	04aH
	DB	068H
	DB	042H
	DB	068H
	DB	04aH
	DB	068H
	DB	04aH
	DB	068H
	DB	042H
	DB	048H
	DB	042H
	DB	027H
	DB	042H
	DB	00H
	DB	00H
	DB	00H
	DB	00H
	DB	00H
	DB	00H
	DB	04dH
	DB	06bH
	DB	06dH
	DB	06bH
	DB	04dH
	DB	06bH
	DB	06dH
	DB	06bH
	DB	06eH
	DB	073H
	DB	06dH
	DB	06bH
	DB	00H
	DB	00H
	DB	00H
	DB	00H
	DB	00H
	DB	00H
	DB	0aeH
	DB	073H
	DB	04dH
	DB	06bH
	DB	02dH
	DB	06bH
	DB	02cH
	DB	063H
	DB	02cH
	DB	063H
	DB	02cH
	DB	063H
	DB	02cH
	DB	063H
	DB	02cH
	DB	063H
	DB	02cH
	DB	063H
	DB	02cH
	DB	063H
	DB	02dH
	DB	06bH
	DB	02cH
	DB	063H
	DB	02cH
	DB	063H
	DB	02dH
	DB	06bH
	DB	02cH
	DB	063H
	DB	02cH
	DB	063H
	DB	02dH
	DB	06bH
	DB	02cH
	DB	063H
	DB	02cH
	DB	063H
	DB	02cH
	DB	063H
	DB	02cH
	DB	063H
	DB	02cH
	DB	063H
	DB	02cH
	DB	063H
	DB	02dH
	DB	06bH
	DB	02cH
	DB	063H
	DB	02cH
	DB	063H
	DB	02cH
	DB	063H
	DB	02cH
	DB	063H
	DB	02cH
	DB	063H
	DB	02cH
	DB	063H
	DB	02cH
	DB	063H
	DB	02dH
	DB	06bH
	DB	02cH
	DB	063H
	DB	02cH
	DB	063H
	DB	02cH
	DB	063H
	DB	02dH
	DB	06bH
	DB	02cH
	DB	063H
	DB	02cH
	DB	063H
	DB	02dH
	DB	06bH
	DB	02cH
	DB	063H
	DB	02cH
	DB	063H
	DB	02cH
	DB	063H
	DB	02cH
	DB	063H
	DB	02cH
	DB	063H
	DB	02dH
	DB	06bH
	DB	02cH
	DB	063H
	DB	02cH
	DB	063H
	DB	02cH
	DB	063H
	DB	02dH
	DB	06bH
	DB	02cH
	DB	063H
	DB	02cH
	DB	063H
	DB	02cH
	DB	063H
	DB	02cH
	DB	063H
	DB	02cH
	DB	063H
	DB	04dH
	DB	06bH
	DB	04dH
	DB	06bH
	DB	0aeH
	DB	073H
	DB	00H
	DB	00H
	DB	00H
	DB	00H
	DB	027H
	DB	042H
	DB	048H
	DB	042H
	DB	068H
	DB	042H
	DB	068H
	DB	042H
	DB	088H
	DB	042H
	DB	068H
	DB	04aH
	DB	068H
	DB	042H
	DB	088H
	DB	04aH
	DB	088H
	DB	04aH
	DB	068H
	DB	042H
	DB	088H
	DB	04aH
	DB	088H
	DB	042H
	DB	088H
	DB	04aH
	DB	088H
	DB	04aH
	DB	0a8H
	DB	04aH
	DB	0a8H
	DB	04aH
	DB	0c8H
	DB	04aH
	DB	0e8H
	DB	04aH
	DB	07H
	DB	04bH
	DB	07H
	DB	053H
	DB	027H
	DB	053H
	DB	027H
	DB	053H
	DB	027H
	DB	053H
	DB	027H
	DB	053H
	DB	027H
	DB	053H
	DB	027H
	DB	053H
	DB	07H
	DB	053H
	DB	07H
	DB	04bH
	DB	07H
	DB	053H
	DB	07H
	DB	04bH
	DB	07H
	DB	053H
	DB	07H
	DB	053H
	DB	07H
	DB	053H
	DB	07H
	DB	053H
	DB	027H
	DB	053H
	DB	027H
	DB	053H
	DB	07H
	DB	053H
	DB	07H
	DB	04bH
	DB	0e8H
	DB	04aH
	DB	0e8H
	DB	04aH
	DB	0c8H
	DB	04aH
	DB	0a8H
	DB	04aH
	DB	0a8H
	DB	04aH
	DB	088H
	DB	04aH
	DB	088H
	DB	042H
	DB	088H
	DB	04aH
	DB	068H
	DB	042H
	DB	088H
	DB	042H
	DB	068H
	DB	04aH
	DB	068H
	DB	042H
	DB	088H
	DB	04aH
	DB	068H
	DB	042H
	DB	068H
	DB	04aH
	DB	088H
	DB	04aH
	DB	068H
	DB	042H
	DB	048H
	DB	042H
	DB	027H
	DB	042H
	DB	00H
	DB	00H
	DB	00H
	DB	00H
	DB	00H
	DB	00H
	DB	06dH
	DB	06bH
	DB	06eH
	DB	073H
	DB	06dH
	DB	06bH
	DB	06eH
	DB	073H
	DB	08eH
	DB	073H
	DB	06eH
	DB	073H
	DB	00H
	DB	00H
	DB	00H
	DB	00H
	DB	00H
	DB	00H
	DB	08eH
	DB	073H
	DB	04dH
	DB	06bH
	DB	02dH
	DB	06bH
	DB	02cH
	DB	063H
	DB	02dH
	DB	06bH
	DB	02dH
	DB	06bH
	DB	02cH
	DB	063H
	DB	02dH
	DB	06bH
	DB	02cH
	DB	063H
	DB	02cH
	DB	063H
	DB	02dH
	DB	06bH
	DB	02cH
	DB	063H
	DB	02cH
	DB	063H
	DB	02dH
	DB	06bH
	DB	02cH
	DB	063H
	DB	02cH
	DB	063H
	DB	02dH
	DB	06bH
	DB	02cH
	DB	063H
	DB	02cH
	DB	063H
	DB	02dH
	DB	06bH
	DB	02cH
	DB	063H
	DB	02cH
	DB	063H
	DB	02dH
	DB	06bH
	DB	02cH
	DB	063H
	DB	02cH
	DB	063H
	DB	02dH
	DB	06bH
	DB	02dH
	DB	06bH
	DB	02cH
	DB	063H
	DB	02cH
	DB	063H
	DB	02dH
	DB	06bH
	DB	02cH
	DB	063H
	DB	02cH
	DB	063H
	DB	02dH
	DB	06bH
	DB	02cH
	DB	063H
	DB	02cH
	DB	063H
	DB	02dH
	DB	06bH
	DB	02cH
	DB	063H
	DB	02cH
	DB	063H
	DB	02dH
	DB	06bH
	DB	02cH
	DB	063H
	DB	02dH
	DB	06bH
	DB	02dH
	DB	06bH
	DB	02cH
	DB	063H
	DB	02cH
	DB	063H
	DB	02dH
	DB	06bH
	DB	02cH
	DB	063H
	DB	02cH
	DB	063H
	DB	02dH
	DB	06bH
	DB	02cH
	DB	063H
	DB	02cH
	DB	063H
	DB	02dH
	DB	06bH
	DB	02cH
	DB	063H
	DB	02cH
	DB	063H
	DB	02dH
	DB	06bH
	DB	02dH
	DB	06bH
	DB	04dH
	DB	06bH
	DB	08eH
	DB	073H
	DB	00H
	DB	00H
	DB	00H
	DB	00H
	DB	027H
	DB	042H
	DB	068H
	DB	042H
	DB	068H
	DB	04aH
	DB	088H
	DB	04aH
	DB	088H
	DB	04aH
	DB	068H
	DB	04aH
	DB	088H
	DB	04aH
	DB	088H
	DB	04aH
	DB	068H
	DB	04aH
	DB	068H
	DB	04aH
	DB	088H
	DB	04aH
	DB	088H
	DB	04aH
	DB	088H
	DB	042H
	DB	088H
	DB	04aH
	DB	088H
	DB	04aH
	DB	0a8H
	DB	04aH
	DB	0a8H
	DB	04aH
	DB	0c8H
	DB	04aH
	DB	0c8H
	DB	04aH
	DB	0e8H
	DB	04aH
	DB	0e8H
	DB	04aH
	DB	0e8H
	DB	04aH
	DB	0e8H
	DB	052H
	DB	0e8H
	DB	04aH
	DB	0e8H
	DB	052H
	DB	0e8H
	DB	04aH
	DB	0c8H
	DB	04aH
	DB	0c8H
	DB	04aH
	DB	0c8H
	DB	04aH
	DB	0c8H
	DB	04aH
	DB	0c8H
	DB	04aH
	DB	0e8H
	DB	04aH
	DB	0e8H
	DB	04aH
	DB	0c8H
	DB	04aH
	DB	0e8H
	DB	04aH
	DB	0e8H
	DB	04aH
	DB	0e8H
	DB	04aH
	DB	0e8H
	DB	052H
	DB	0c8H
	DB	04aH
	DB	0a8H
	DB	04aH
	DB	0a8H
	DB	04aH
	DB	0a8H
	DB	04aH
	DB	088H
	DB	04aH
	DB	088H
	DB	04aH
	DB	088H
	DB	04aH
	DB	068H
	DB	04aH
	DB	088H
	DB	04aH
	DB	089H
	DB	04aH
	DB	068H
	DB	04aH
	DB	088H
	DB	04aH
	DB	088H
	DB	04aH
	DB	088H
	DB	04aH
	DB	068H
	DB	04aH
	DB	088H
	DB	04aH
	DB	068H
	DB	04aH
	DB	068H
	DB	042H
	DB	027H
	DB	042H
	DB	00H
	DB	00H
	DB	00H
	DB	00H
	DB	00H
	DB	00H
	DB	06eH
	DB	073H
	DB	08eH
	DB	073H
	DB	06eH
	DB	073H
	DB	08eH
	DB	073H
	DB	08eH
	DB	073H
	DB	08eH
	DB	073H
	DB	00H
	DB	00H
	DB	00H
	DB	00H
	DB	00H
	DB	00H
	DB	0aeH
	DB	073H
	DB	04dH
	DB	06bH
	DB	02dH
	DB	06bH
	DB	02cH
	DB	063H
	DB	02cH
	DB	063H
	DB	02dH
	DB	06bH
	DB	02cH
	DB	063H
	DB	02dH
	DB	06bH
	DB	02dH
	DB	06bH
	DB	02cH
	DB	063H
	DB	02dH
	DB	06bH
	DB	02cH
	DB	063H
	DB	02cH
	DB	063H
	DB	02dH
	DB	06bH
	DB	02cH
	DB	063H
	DB	02cH
	DB	063H
	DB	02dH
	DB	06bH
	DB	02cH
	DB	063H
	DB	02dH
	DB	06bH
	DB	02dH
	DB	06bH
	DB	02cH
	DB	063H
	DB	02dH
	DB	06bH
	DB	02dH
	DB	06bH
	DB	02cH
	DB	063H
	DB	02cH
	DB	063H
	DB	02dH
	DB	06bH
	DB	02cH
	DB	063H
	DB	02dH
	DB	06bH
	DB	02dH
	DB	06bH
	DB	02cH
	DB	063H
	DB	02dH
	DB	06bH
	DB	02cH
	DB	063H
	DB	02dH
	DB	06bH
	DB	02cH
	DB	063H
	DB	02dH
	DB	06bH
	DB	02cH
	DB	063H
	DB	02cH
	DB	063H
	DB	02dH
	DB	06bH
	DB	02cH
	DB	063H
	DB	02cH
	DB	063H
	DB	02cH
	DB	063H
	DB	02dH
	DB	06bH
	DB	02cH
	DB	063H
	DB	02dH
	DB	06bH
	DB	02cH
	DB	063H
	DB	02cH
	DB	063H
	DB	02dH
	DB	06bH
	DB	02cH
	DB	063H
	DB	02cH
	DB	063H
	DB	02dH
	DB	06bH
	DB	02dH
	DB	06bH
	DB	02cH
	DB	063H
	DB	02dH
	DB	06bH
	DB	02cH
	DB	063H
	DB	02dH
	DB	06bH
	DB	04dH
	DB	06bH
	DB	08eH
	DB	073H
	DB	00H
	DB	00H
	DB	00H
	DB	00H
	DB	027H
	DB	042H
	DB	068H
	DB	042H
	DB	068H
	DB	04aH
	DB	089H
	DB	04aH
	DB	089H
	DB	04aH
	DB	089H
	DB	042H
	DB	089H
	DB	04aH
	DB	089H
	DB	042H
	DB	089H
	DB	04aH
	DB	088H
	DB	04aH
	DB	089H
	DB	042H
	DB	069H
	DB	04aH
	DB	088H
	DB	04aH
	DB	089H
	DB	04aH
	DB	088H
	DB	04aH
	DB	0a8H
	DB	04aH
	DB	0a8H
	DB	04aH
	DB	0a8H
	DB	04aH
	DB	0a8H
	DB	04aH
	DB	0c8H
	DB	04aH
	DB	0c8H
	DB	04aH
	DB	0c8H
	DB	04aH
	DB	0c8H
	DB	04aH
	DB	0c8H
	DB	04aH
	DB	0c8H
	DB	04aH
	DB	0c8H
	DB	04aH
	DB	0c8H
	DB	04aH
	DB	0a8H
	DB	04aH
	DB	0a8H
	DB	04aH
	DB	0a8H
	DB	04aH
	DB	0a8H
	DB	04aH
	DB	0a8H
	DB	04aH
	DB	0a8H
	DB	04aH
	DB	0c8H
	DB	04aH
	DB	0a8H
	DB	04aH
	DB	0a8H
	DB	04aH
	DB	0a8H
	DB	04aH
	DB	0a8H
	DB	04aH
	DB	0a8H
	DB	04aH
	DB	0a8H
	DB	04aH
	DB	088H
	DB	04aH
	DB	088H
	DB	04aH
	DB	088H
	DB	04aH
	DB	088H
	DB	04aH
	DB	089H
	DB	04aH
	DB	088H
	DB	04aH
	DB	089H
	DB	04aH
	DB	088H
	DB	04aH
	DB	089H
	DB	042H
	DB	089H
	DB	04aH
	DB	088H
	DB	04aH
	DB	089H
	DB	042H
	DB	089H
	DB	04aH
	DB	088H
	DB	04aH
	DB	068H
	DB	042H
	DB	068H
	DB	042H
	DB	027H
	DB	042H
	DB	00H
	DB	00H
	DB	00H
	DB	00H
	DB	00H
	DB	00H
	DB	08eH
	DB	073H
	DB	08eH
	DB	073H
	DB	08eH
	DB	073H
	DB	08eH
	DB	073H
	DB	0aeH
	DB	073H
	DB	08eH
	DB	073H
	DB	00H
	DB	00H
	DB	00H
	DB	00H
	DB	00H
	DB	00H
	DB	0cfH
	DB	07bH
	DB	06eH
	DB	073H
	DB	04dH
	DB	06bH
	DB	04dH
	DB	06bH
	DB	04dH
	DB	06bH
	DB	04dH
	DB	06bH
	DB	04dH
	DB	06bH
	DB	04dH
	DB	06bH
	DB	04dH
	DB	06bH
	DB	04dH
	DB	06bH
	DB	04dH
	DB	06bH
	DB	04dH
	DB	06bH
	DB	04dH
	DB	06bH
	DB	04dH
	DB	06bH
	DB	04dH
	DB	06bH
	DB	04dH
	DB	06bH
	DB	04dH
	DB	06bH
	DB	04dH
	DB	06bH
	DB	04dH
	DB	06bH
	DB	04dH
	DB	06bH
	DB	04dH
	DB	06bH
	DB	04dH
	DB	06bH
	DB	04dH
	DB	06bH
	DB	04dH
	DB	06bH
	DB	04dH
	DB	06bH
	DB	04dH
	DB	06bH
	DB	04dH
	DB	06bH
	DB	04dH
	DB	06bH
	DB	04dH
	DB	06bH
	DB	04dH
	DB	06bH
	DB	04dH
	DB	06bH
	DB	04dH
	DB	06bH
	DB	04dH
	DB	06bH
	DB	04dH
	DB	06bH
	DB	04dH
	DB	06bH
	DB	04dH
	DB	06bH
	DB	04dH
	DB	06bH
	DB	04dH
	DB	06bH
	DB	04dH
	DB	06bH
	DB	04dH
	DB	06bH
	DB	04dH
	DB	06bH
	DB	04dH
	DB	06bH
	DB	04dH
	DB	06bH
	DB	04dH
	DB	06bH
	DB	04dH
	DB	06bH
	DB	04dH
	DB	06bH
	DB	04dH
	DB	06bH
	DB	04dH
	DB	06bH
	DB	04dH
	DB	06bH
	DB	04dH
	DB	06bH
	DB	04dH
	DB	06bH
	DB	04dH
	DB	06bH
	DB	04dH
	DB	06bH
	DB	04dH
	DB	06bH
	DB	04dH
	DB	06bH
	DB	06dH
	DB	06bH
	DB	0cfH
	DB	07bH
	DB	00H
	DB	00H
	DB	00H
	DB	00H
	DB	027H
	DB	042H
	DB	048H
	DB	042H
	DB	068H
	DB	04aH
	DB	089H
	DB	04aH
	DB	088H
	DB	04aH
	DB	068H
	DB	04aH
	DB	089H
	DB	04aH
	DB	088H
	DB	04aH
	DB	069H
	DB	04aH
	DB	089H
	DB	04aH
	DB	088H
	DB	04aH
	DB	089H
	DB	04aH
	DB	089H
	DB	04aH
	DB	088H
	DB	04aH
	DB	089H
	DB	04aH
	DB	088H
	DB	04aH
	DB	088H
	DB	04aH
	DB	088H
	DB	04aH
	DB	0a8H
	DB	04aH
	DB	0a8H
	DB	04aH
	DB	0a8H
	DB	04aH
	DB	0a8H
	DB	04aH
	DB	0a8H
	DB	04aH
	DB	0a8H
	DB	04aH
	DB	0a8H
	DB	04aH
	DB	0a8H
	DB	04aH
	DB	088H
	DB	04aH
	DB	0a8H
	DB	04aH
	DB	0a9H
	DB	04aH
	DB	0a8H
	DB	04aH
	DB	0a8H
	DB	04aH
	DB	089H
	DB	04aH
	DB	0a8H
	DB	04aH
	DB	0a8H
	DB	04aH
	DB	088H
	DB	04aH
	DB	0a8H
	DB	04aH
	DB	0a8H
	DB	04aH
	DB	088H
	DB	04aH
	DB	088H
	DB	04aH
	DB	088H
	DB	04aH
	DB	088H
	DB	04aH
	DB	089H
	DB	04aH
	DB	089H
	DB	04aH
	DB	088H
	DB	04aH
	DB	089H
	DB	04aH
	DB	069H
	DB	042H
	DB	088H
	DB	04aH
	DB	069H
	DB	04aH
	DB	088H
	DB	04aH
	DB	089H
	DB	04aH
	DB	069H
	DB	04aH
	DB	088H
	DB	04aH
	DB	089H
	DB	04aH
	DB	089H
	DB	04aH
	DB	068H
	DB	04aH
	DB	048H
	DB	042H
	DB	027H
	DB	042H
	DB	00H
	DB	00H
	DB	00H
	DB	00H
	DB	00H
	DB	00H
	DB	08eH
	DB	073H
	DB	0aeH
	DB	073H
	DB	08eH
	DB	073H
	DB	08eH
	DB	073H
	DB	0afH
	DB	07bH
	DB	08eH
	DB	073H
	DB	00H
	DB	00H
	DB	00H
	DB	00H
	DB	00H
	DB	00H
	DB	0f0H
	DB	083H
	DB	0aeH
	DB	073H
	DB	08eH
	DB	073H
	DB	08eH
	DB	073H
	DB	08eH
	DB	073H
	DB	08eH
	DB	073H
	DB	08eH
	DB	073H
	DB	08eH
	DB	073H
	DB	08eH
	DB	073H
	DB	08eH
	DB	073H
	DB	08eH
	DB	073H
	DB	08eH
	DB	073H
	DB	08eH
	DB	073H
	DB	08eH
	DB	073H
	DB	08eH
	DB	073H
	DB	08eH
	DB	073H
	DB	08eH
	DB	073H
	DB	08eH
	DB	073H
	DB	08eH
	DB	073H
	DB	08eH
	DB	073H
	DB	08eH
	DB	073H
	DB	08eH
	DB	073H
	DB	08eH
	DB	073H
	DB	08eH
	DB	073H
	DB	08eH
	DB	073H
	DB	08eH
	DB	073H
	DB	08eH
	DB	073H
	DB	08eH
	DB	073H
	DB	08eH
	DB	073H
	DB	08eH
	DB	073H
	DB	08eH
	DB	073H
	DB	08eH
	DB	073H
	DB	08eH
	DB	073H
	DB	08eH
	DB	073H
	DB	08eH
	DB	073H
	DB	08eH
	DB	073H
	DB	08eH
	DB	073H
	DB	08eH
	DB	073H
	DB	08eH
	DB	073H
	DB	08eH
	DB	073H
	DB	08eH
	DB	073H
	DB	08eH
	DB	073H
	DB	08eH
	DB	073H
	DB	08eH
	DB	073H
	DB	08eH
	DB	073H
	DB	08eH
	DB	073H
	DB	08eH
	DB	073H
	DB	08eH
	DB	073H
	DB	08eH
	DB	073H
	DB	08eH
	DB	073H
	DB	08eH
	DB	073H
	DB	08eH
	DB	073H
	DB	08eH
	DB	073H
	DB	08eH
	DB	073H
	DB	08eH
	DB	073H
	DB	0afH
	DB	07bH
	DB	010H
	DB	084H
	DB	00H
	DB	00H
	DB	00H
	DB	00H
	DB	027H
	DB	03aH
	DB	048H
	DB	042H
	DB	068H
	DB	042H
	DB	068H
	DB	04aH
	DB	089H
	DB	04aH
	DB	088H
	DB	04aH
	DB	088H
	DB	04aH
	DB	068H
	DB	04aH
	DB	088H
	DB	04aH
	DB	089H
	DB	04aH
	DB	068H
	DB	04aH
	DB	088H
	DB	04aH
	DB	089H
	DB	042H
	DB	068H
	DB	04aH
	DB	089H
	DB	04aH
	DB	089H
	DB	04aH
	DB	089H
	DB	04aH
	DB	089H
	DB	04aH
	DB	089H
	DB	04aH
	DB	088H
	DB	04aH
	DB	088H
	DB	04aH
	DB	089H
	DB	04aH
	DB	088H
	DB	04aH
	DB	088H
	DB	04aH
	DB	088H
	DB	04aH
	DB	089H
	DB	04aH
	DB	089H
	DB	04aH
	DB	088H
	DB	04aH
	DB	089H
	DB	04aH
	DB	089H
	DB	04aH
	DB	088H
	DB	04aH
	DB	089H
	DB	04aH
	DB	089H
	DB	04aH
	DB	089H
	DB	04aH
	DB	089H
	DB	04aH
	DB	089H
	DB	04aH
	DB	089H
	DB	04aH
	DB	089H
	DB	04aH
	DB	089H
	DB	04aH
	DB	088H
	DB	04aH
	DB	089H
	DB	04aH
	DB	088H
	DB	04aH
	DB	089H
	DB	04aH
	DB	088H
	DB	04aH
	DB	088H
	DB	04aH
	DB	089H
	DB	04aH
	DB	068H
	DB	04aH
	DB	088H
	DB	04aH
	DB	089H
	DB	04aH
	DB	068H
	DB	04aH
	DB	088H
	DB	04aH
	DB	089H
	DB	04aH
	DB	068H
	DB	042H
	DB	068H
	DB	04aH
	DB	068H
	DB	042H
	DB	048H
	DB	042H
	DB	027H
	DB	03aH
	DB	00H
	DB	00H
	DB	00H
	DB	00H
	DB	00H
	DB	00H
	DB	08eH
	DB	073H
	DB	0afH
	DB	07bH
	DB	0aeH
	DB	073H
	DB	0aeH
	DB	073H
	DB	0cfH
	DB	07bH
	DB	0aeH
	DB	073H
	DB	00H
	DB	00H
	DB	00H
	DB	00H
	DB	00H
	DB	00H
	DB	030H
	DB	084H
	DB	0f0H
	DB	083H
	DB	0efH
	DB	07bH
	DB	0cfH
	DB	07bH
	DB	0cfH
	DB	07bH
	DB	0cfH
	DB	07bH
	DB	0cfH
	DB	07bH
	DB	0cfH
	DB	07bH
	DB	0cfH
	DB	07bH
	DB	0cfH
	DB	07bH
	DB	0cfH
	DB	07bH
	DB	0cfH
	DB	07bH
	DB	0cfH
	DB	07bH
	DB	0cfH
	DB	07bH
	DB	0cfH
	DB	07bH
	DB	0cfH
	DB	07bH
	DB	0cfH
	DB	07bH
	DB	0cfH
	DB	07bH
	DB	0cfH
	DB	07bH
	DB	0cfH
	DB	07bH
	DB	0cfH
	DB	07bH
	DB	0cfH
	DB	07bH
	DB	0cfH
	DB	07bH
	DB	0cfH
	DB	07bH
	DB	0cfH
	DB	07bH
	DB	0cfH
	DB	07bH
	DB	0cfH
	DB	07bH
	DB	0cfH
	DB	07bH
	DB	0cfH
	DB	07bH
	DB	0cfH
	DB	07bH
	DB	0cfH
	DB	07bH
	DB	0cfH
	DB	07bH
	DB	0cfH
	DB	07bH
	DB	0cfH
	DB	07bH
	DB	0cfH
	DB	07bH
	DB	0cfH
	DB	07bH
	DB	0cfH
	DB	07bH
	DB	0cfH
	DB	07bH
	DB	0cfH
	DB	07bH
	DB	0cfH
	DB	07bH
	DB	0cfH
	DB	07bH
	DB	0cfH
	DB	07bH
	DB	0cfH
	DB	07bH
	DB	0cfH
	DB	07bH
	DB	0cfH
	DB	07bH
	DB	0cfH
	DB	07bH
	DB	0cfH
	DB	07bH
	DB	0cfH
	DB	07bH
	DB	0cfH
	DB	07bH
	DB	0cfH
	DB	07bH
	DB	0cfH
	DB	07bH
	DB	0cfH
	DB	07bH
	DB	0cfH
	DB	07bH
	DB	0cfH
	DB	07bH
	DB	0efH
	DB	07bH
	DB	0f0H
	DB	083H
	DB	010H
	DB	084H
	DB	00H
	DB	00H
	DB	00H
	DB	00H
	DB	07H
	DB	03aH
	DB	048H
	DB	042H
	DB	068H
	DB	042H
	DB	068H
	DB	042H
	DB	069H
	DB	04aH
	DB	089H
	DB	04aH
	DB	089H
	DB	042H
	DB	089H
	DB	04aH
	DB	088H
	DB	04aH
	DB	089H
	DB	042H
	DB	068H
	DB	04aH
	DB	089H
	DB	04aH
	DB	088H
	DB	04aH
	DB	068H
	DB	04aH
	DB	089H
	DB	04aH
	DB	088H
	DB	04aH
	DB	068H
	DB	04aH
	DB	089H
	DB	04aH
	DB	089H
	DB	04aH
	DB	068H
	DB	04aH
	DB	089H
	DB	04aH
	DB	089H
	DB	04aH
	DB	089H
	DB	04aH
	DB	088H
	DB	04aH
	DB	089H
	DB	04aH
	DB	089H
	DB	04aH
	DB	088H
	DB	04aH
	DB	088H
	DB	04aH
	DB	069H
	DB	04aH
	DB	088H
	DB	04aH
	DB	089H
	DB	04aH
	DB	088H
	DB	04aH
	DB	088H
	DB	04aH
	DB	088H
	DB	04aH
	DB	089H
	DB	04aH
	DB	088H
	DB	04aH
	DB	088H
	DB	04aH
	DB	089H
	DB	04aH
	DB	088H
	DB	04aH
	DB	089H
	DB	04aH
	DB	089H
	DB	04aH
	DB	088H
	DB	04aH
	DB	068H
	DB	04aH
	DB	089H
	DB	04aH
	DB	089H
	DB	04aH
	DB	088H
	DB	04aH
	DB	089H
	DB	04aH
	DB	089H
	DB	042H
	DB	088H
	DB	04aH
	DB	089H
	DB	04aH
	DB	088H
	DB	042H
	DB	089H
	DB	04aH
	DB	069H
	DB	04aH
	DB	068H
	DB	042H
	DB	068H
	DB	042H
	DB	048H
	DB	042H
	DB	07H
	DB	03aH
	DB	00H
	DB	00H
	DB	00H
	DB	00H
	DB	00H
	DB	00H
	DB	0aeH
	DB	073H
	DB	0afH
	DB	07bH
	DB	0aeH
	DB	073H
	DB	0afH
	DB	07bH
	DB	0cfH
	DB	07bH
	DB	0afH
	DB	07bH
	DB	00H
	DB	00H
	DB	00H
	DB	00H
	DB	00H
	DB	00H
	DB	00H
	DB	00H
	DB	00H
	DB	00H
	DB	00H
	DB	00H
	DB	00H
	DB	00H
	DB	00H
	DB	00H
	DB	00H
	DB	00H
	DB	00H
	DB	00H
	DB	00H
	DB	00H
	DB	00H
	DB	00H
	DB	00H
	DB	00H
	DB	00H
	DB	00H
	DB	00H
	DB	00H
	DB	00H
	DB	00H
	DB	00H
	DB	00H
	DB	00H
	DB	00H
	DB	00H
	DB	00H
	DB	00H
	DB	00H
	DB	00H
	DB	00H
	DB	00H
	DB	00H
	DB	00H
	DB	00H
	DB	00H
	DB	00H
	DB	00H
	DB	00H
	DB	00H
	DB	00H
	DB	00H
	DB	00H
	DB	00H
	DB	00H
	DB	00H
	DB	00H
	DB	00H
	DB	00H
	DB	00H
	DB	00H
	DB	00H
	DB	00H
	DB	00H
	DB	00H
	DB	00H
	DB	00H
	DB	00H
	DB	00H
	DB	00H
	DB	00H
	DB	00H
	DB	00H
	DB	00H
	DB	00H
	DB	00H
	DB	00H
	DB	00H
	DB	00H
	DB	00H
	DB	00H
	DB	00H
	DB	00H
	DB	00H
	DB	00H
	DB	00H
	DB	00H
	DB	00H
	DB	00H
	DB	00H
	DB	00H
	DB	00H
	DB	00H
	DB	00H
	DB	00H
	DB	00H
	DB	00H
	DB	00H
	DB	00H
	DB	00H
	DB	00H
	DB	00H
	DB	00H
	DB	00H
	DB	00H
	DB	00H
	DB	00H
	DB	00H
	DB	00H
	DB	00H
	DB	00H
	DB	00H
	DB	00H
	DB	00H
	DB	00H
	DB	00H
	DB	00H
	DB	00H
	DB	00H
	DB	00H
	DB	00H
	DB	00H
	DB	00H
	DB	021H
	DB	00H
	DB	021H
	DB	00H
	DB	021H
	DB	00H
	DB	021H
	DB	00H
	DB	021H
	DB	00H
	DB	021H
	DB	00H
	DB	021H
	DB	00H
	DB	021H
	DB	00H
	DB	021H
	DB	00H
	DB	021H
	DB	00H
	DB	021H
	DB	00H
	DB	021H
	DB	00H
	DB	021H
	DB	00H
	DB	021H
	DB	00H
	DB	021H
	DB	00H
	DB	021H
	DB	00H
	DB	021H
	DB	00H
	DB	021H
	DB	00H
	DB	021H
	DB	00H
	DB	021H
	DB	00H
	DB	021H
	DB	00H
	DB	021H
	DB	08H
	DB	021H
	DB	00H
	DB	021H
	DB	00H
	DB	021H
	DB	08H
	DB	021H
	DB	00H
	DB	021H
	DB	00H
	DB	021H
	DB	08H
	DB	021H
	DB	00H
	DB	021H
	DB	00H
	DB	021H
	DB	00H
	DB	021H
	DB	00H
	DB	021H
	DB	00H
	DB	021H
	DB	00H
	DB	021H
	DB	00H
	DB	021H
	DB	00H
	DB	021H
	DB	00H
	DB	021H
	DB	00H
	DB	021H
	DB	00H
	DB	021H
	DB	00H
	DB	021H
	DB	00H
	DB	021H
	DB	00H
	DB	021H
	DB	00H
	DB	021H
	DB	00H
	DB	021H
	DB	00H
	DB	021H
	DB	00H
	DB	021H
	DB	00H
	DB	021H
	DB	00H
	DB	021H
	DB	00H
	DB	021H
	DB	00H
	DB	021H
	DB	00H
	DB	021H
	DB	00H
	DB	021H
	DB	00H
	DB	021H
	DB	00H
	DB	021H
	DB	00H
	DB	021H
	DB	00H
	DB	021H
	DB	00H
	DB	00H
	DB	00H
	DB	00H
	DB	00H
	DB	00H
	DB	00H
	DB	0afH
	DB	07bH
	DB	0cfH
	DB	07bH
	DB	0afH
	DB	07bH
	DB	0cfH
	DB	07bH
	DB	0cfH
	DB	07bH
	DB	0cfH
	DB	07bH
	DB	00H
	DB	00H
	DB	00H
	DB	00H
	DB	00H
	DB	00H
	DB	00H
	DB	00H
	DB	00H
	DB	00H
	DB	00H
	DB	00H
	DB	00H
	DB	00H
	DB	00H
	DB	00H
	DB	00H
	DB	00H
	DB	00H
	DB	00H
	DB	00H
	DB	00H
	DB	00H
	DB	00H
	DB	00H
	DB	00H
	DB	00H
	DB	00H
	DB	00H
	DB	00H
	DB	00H
	DB	00H
	DB	00H
	DB	00H
	DB	00H
	DB	00H
	DB	00H
	DB	00H
	DB	00H
	DB	00H
	DB	00H
	DB	00H
	DB	00H
	DB	00H
	DB	00H
	DB	00H
	DB	00H
	DB	00H
	DB	00H
	DB	00H
	DB	00H
	DB	00H
	DB	00H
	DB	00H
	DB	00H
	DB	00H
	DB	00H
	DB	00H
	DB	00H
	DB	00H
	DB	00H
	DB	00H
	DB	00H
	DB	00H
	DB	00H
	DB	00H
	DB	00H
	DB	00H
	DB	00H
	DB	00H
	DB	00H
	DB	00H
	DB	00H
	DB	00H
	DB	00H
	DB	00H
	DB	00H
	DB	00H
	DB	00H
	DB	00H
	DB	00H
	DB	00H
	DB	00H
	DB	00H
	DB	00H
	DB	00H
	DB	00H
	DB	00H
	DB	00H
	DB	00H
	DB	00H
	DB	00H
	DB	00H
	DB	00H
	DB	00H
	DB	00H
	DB	00H
	DB	00H
	DB	00H
	DB	00H
	DB	00H
	DB	00H
	DB	00H
	DB	00H
	DB	00H
	DB	00H
	DB	00H
	DB	00H
	DB	00H
	DB	00H
	DB	00H
	DB	00H
	DB	00H
	DB	00H
	DB	00H
	DB	00H
	DB	00H
	DB	00H
	DB	00H
	DB	00H
	DB	00H
	DB	00H
	DB	00H
	DB	00H
	DB	00H
	DB	00H
	DB	00H
	DB	00H
	DB	00H
	DB	00H
	DB	00H
	DB	00H
	DB	00H
	DB	00H
	DB	00H
	DB	00H
	DB	00H
	DB	00H
	DB	00H
	DB	00H
	DB	00H
	DB	00H
	DB	00H
	DB	00H
	DB	00H
	DB	00H
	DB	00H
	DB	00H
	DB	00H
	DB	00H
	DB	00H
	DB	00H
	DB	00H
	DB	00H
	DB	00H
	DB	00H
	DB	00H
	DB	00H
	DB	00H
	DB	00H
	DB	00H
	DB	00H
	DB	00H
	DB	00H
	DB	00H
	DB	00H
	DB	00H
	DB	00H
	DB	00H
	DB	00H
	DB	00H
	DB	00H
	DB	00H
	DB	00H
	DB	00H
	DB	00H
	DB	00H
	DB	00H
	DB	00H
	DB	00H
	DB	00H
	DB	00H
	DB	00H
	DB	00H
	DB	00H
	DB	00H
	DB	00H
	DB	00H
	DB	00H
	DB	00H
	DB	00H
	DB	00H
	DB	00H
	DB	00H
	DB	00H
	DB	00H
	DB	00H
	DB	00H
	DB	00H
	DB	00H
	DB	00H
	DB	00H
	DB	00H
	DB	00H
	DB	00H
	DB	00H
	DB	00H
	DB	00H
	DB	00H
	DB	00H
	DB	00H
	DB	00H
	DB	00H
	DB	00H
	DB	00H
	DB	00H
	DB	00H
	DB	00H
	DB	00H
	DB	00H
	DB	00H
	DB	00H
	DB	00H
	DB	00H
	DB	00H
	DB	00H
	DB	00H
	DB	00H
	DB	00H
	DB	00H
	DB	00H
	DB	00H
	DB	00H
	DB	00H
	DB	00H
	DB	00H
	DB	00H
	DB	00H
	DB	00H
	DB	00H
	DB	00H
	DB	00H
	DB	00H
	DB	00H
	DB	0cfH
	DB	07bH
	DB	0efH
	DB	07bH
	DB	0cfH
	DB	07bH
	DB	0cfH
	DB	07bH
	DB	0efH
	DB	07bH
	DB	0efH
	DB	07bH
	DB	00H
	DB	00H
	DB	00H
	DB	00H
	DB	00H
	DB	00H
	DB	00H
	DB	00H
	DB	00H
	DB	00H
	DB	00H
	DB	00H
	DB	00H
	DB	00H
	DB	00H
	DB	00H
	DB	00H
	DB	00H
	DB	00H
	DB	00H
	DB	00H
	DB	00H
	DB	00H
	DB	00H
	DB	00H
	DB	00H
	DB	00H
	DB	00H
	DB	00H
	DB	00H
	DB	00H
	DB	00H
	DB	00H
	DB	00H
	DB	00H
	DB	00H
	DB	00H
	DB	00H
	DB	00H
	DB	00H
	DB	00H
	DB	00H
	DB	00H
	DB	00H
	DB	00H
	DB	00H
	DB	00H
	DB	00H
	DB	00H
	DB	00H
	DB	00H
	DB	00H
	DB	00H
	DB	00H
	DB	00H
	DB	00H
	DB	00H
	DB	00H
	DB	00H
	DB	00H
	DB	00H
	DB	00H
	DB	00H
	DB	00H
	DB	00H
	DB	00H
	DB	00H
	DB	00H
	DB	00H
	DB	00H
	DB	00H
	DB	00H
	DB	00H
	DB	00H
	DB	00H
	DB	00H
	DB	00H
	DB	00H
	DB	00H
	DB	00H
	DB	00H
	DB	00H
	DB	00H
	DB	00H
	DB	00H
	DB	00H
	DB	00H
	DB	00H
	DB	00H
	DB	00H
	DB	00H
	DB	00H
	DB	00H
	DB	00H
	DB	00H
	DB	00H
	DB	00H
	DB	00H
	DB	00H
	DB	00H
	DB	00H
	DB	00H
	DB	00H
	DB	00H
	DB	00H
	DB	00H
	DB	00H
	DB	00H
	DB	00H
	DB	00H
	DB	00H
	DB	00H
	DB	00H
	DB	00H
	DB	00H
	DB	00H
	DB	00H
	DB	00H
	DB	00H
	DB	00H
	DB	00H
	DB	00H
	DB	00H
	DB	00H
	DB	00H
	DB	00H
	DB	00H
	DB	00H
	DB	00H
	DB	00H
	DB	00H
	DB	00H
	DB	00H
	DB	00H
	DB	00H
	DB	00H
	DB	00H
	DB	00H
	DB	00H
	DB	00H
	DB	00H
	DB	00H
	DB	00H
	DB	00H
	DB	00H
	DB	00H
	DB	00H
	DB	00H
	DB	00H
	DB	00H
	DB	00H
	DB	00H
	DB	00H
	DB	00H
	DB	00H
	DB	00H
	DB	00H
	DB	00H
	DB	00H
	DB	00H
	DB	00H
	DB	00H
	DB	00H
	DB	00H
	DB	00H
	DB	00H
	DB	00H
	DB	00H
	DB	00H
	DB	00H
	DB	00H
	DB	00H
	DB	00H
	DB	00H
	DB	00H
	DB	00H
	DB	00H
	DB	00H
	DB	00H
	DB	00H
	DB	00H
	DB	00H
	DB	00H
	DB	00H
	DB	00H
	DB	00H
	DB	00H
	DB	00H
	DB	00H
	DB	00H
	DB	00H
	DB	00H
	DB	00H
	DB	00H
	DB	00H
	DB	00H
	DB	00H
	DB	00H
	DB	00H
	DB	00H
	DB	00H
	DB	00H
	DB	00H
	DB	00H
	DB	00H
	DB	00H
	DB	00H
	DB	00H
	DB	00H
	DB	00H
	DB	00H
	DB	00H
	DB	00H
	DB	00H
	DB	00H
	DB	00H
	DB	00H
	DB	00H
	DB	00H
	DB	00H
	DB	00H
	DB	00H
	DB	00H
	DB	00H
	DB	00H
	DB	00H
	DB	00H
	DB	00H
	DB	00H
	DB	00H
	DB	00H
	DB	00H
	DB	00H
	DB	00H
	DB	00H
	DB	00H
	DB	00H
	DB	00H
	DB	00H
	DB	00H
	DB	00H
	DB	00H
	DB	00H
	DB	00H
	DB	0efH
	DB	07bH
	DB	0f0H
	DB	083H
	DB	0cfH
	DB	07bH
	DB	0cfH
	DB	07bH
	DB	010H
	DB	084H
	DB	010H
	DB	084H
	DB	0efH
	DB	07bH
	DB	0afH
	DB	07bH
	DB	08eH
	DB	073H
	DB	06dH
	DB	06bH
	DB	06dH
	DB	06bH
	DB	04dH
	DB	06bH
	DB	04dH
	DB	06bH
	DB	04dH
	DB	06bH
	DB	04dH
	DB	06bH
	DB	06dH
	DB	06bH
	DB	04dH
	DB	06bH
	DB	04dH
	DB	06bH
	DB	04dH
	DB	06bH
	DB	04dH
	DB	06bH
	DB	04dH
	DB	06bH
	DB	04dH
	DB	06bH
	DB	04dH
	DB	06bH
	DB	04dH
	DB	06bH
	DB	04eH
	DB	073H
	DB	04dH
	DB	06bH
	DB	04dH
	DB	06bH
	DB	04dH
	DB	06bH
	DB	04dH
	DB	06bH
	DB	04dH
	DB	06bH
	DB	04dH
	DB	06bH
	DB	04dH
	DB	06bH
	DB	06dH
	DB	06bH
	DB	04dH
	DB	06bH
	DB	04dH
	DB	06bH
	DB	06dH
	DB	06bH
	DB	04dH
	DB	06bH
	DB	04dH
	DB	06bH
	DB	06dH
	DB	06bH
	DB	04dH
	DB	06bH
	DB	06dH
	DB	06bH
	DB	04dH
	DB	06bH
	DB	04dH
	DB	06bH
	DB	06dH
	DB	06bH
	DB	04dH
	DB	06bH
	DB	04dH
	DB	06bH
	DB	06eH
	DB	073H
	DB	04dH
	DB	06bH
	DB	04dH
	DB	06bH
	DB	06eH
	DB	073H
	DB	04dH
	DB	06bH
	DB	04dH
	DB	06bH
	DB	06dH
	DB	06bH
	DB	04eH
	DB	073H
	DB	04dH
	DB	06bH
	DB	04dH
	DB	06bH
	DB	04dH
	DB	06bH
	DB	04dH
	DB	06bH
	DB	04dH
	DB	06bH
	DB	04dH
	DB	06bH
	DB	04dH
	DB	06bH
	DB	04dH
	DB	06bH
	DB	04dH
	DB	06bH
	DB	06dH
	DB	06bH
	DB	06eH
	DB	073H
	DB	06eH
	DB	073H
	DB	08eH
	DB	073H
	DB	08eH
	DB	073H
	DB	08eH
	DB	073H
	DB	0aeH
	DB	073H
	DB	0aeH
	DB	07bH
	DB	0aeH
	DB	073H
	DB	08eH
	DB	073H
	DB	0aeH
	DB	073H
	DB	0aeH
	DB	07bH
	DB	0aeH
	DB	07bH
	DB	0ceH
	DB	07bH
	DB	0eeH
	DB	07bH
	DB	0efH
	DB	07bH
	DB	0fH
	DB	07cH
	DB	02eH
	DB	084H
	DB	04fH
	DB	084H
	DB	06fH
	DB	084H
	DB	08fH
	DB	08cH
	DB	0afH
	DB	08cH
	DB	0cfH
	DB	08cH
	DB	0efH
	DB	094H
	DB	0fH
	DB	095H
	DB	02fH
	DB	095H
	DB	04fH
	DB	09dH
	DB	04fH
	DB	09dH
	DB	06fH
	DB	09dH
	DB	08fH
	DB	09dH
	DB	0b0H
	DB	0a5H
	DB	0afH
	DB	0a5H
	DB	0d0H
	DB	0a5H
	DB	0d0H
	DB	0a5H
	DB	0d0H
	DB	0a5H
	DB	0cfH
	DB	0a5H
	DB	0d0H
	DB	0a5H
	DB	0b0H
	DB	0a5H
	DB	0afH
	DB	0a5H
	DB	08fH
	DB	09dH
	DB	06fH
	DB	09dH
	DB	06fH
	DB	09dH
	DB	04fH
	DB	09dH
	DB	02fH
	DB	095H
	DB	0fH
	DB	095H
	DB	0efH
	DB	094H
	DB	0cfH
	DB	08cH
	DB	0afH
	DB	08cH
	DB	08fH
	DB	08cH
	DB	06fH
	DB	084H
	DB	04eH
	DB	084H
	DB	02fH
	DB	084H
	DB	0eH
	DB	07cH
	DB	0eeH
	DB	07bH
	DB	0eeH
	DB	07bH
	DB	0ceH
	DB	07bH
	DB	0aeH
	DB	07bH
	DB	0aeH
	DB	073H
	DB	0aeH
	DB	073H
	DB	0aeH
	DB	07bH
	DB	08eH
	DB	073H
	DB	0aeH
	DB	073H
	DB	0aeH
	DB	07bH
	DB	0afH
	DB	07bH
	DB	0efH
	DB	07bH
	DB	010H
	DB	084H
	DB	010H
	DB	084H
	DB	0cfH
	DB	07bH
	DB	0efH
	DB	07bH
	DB	010H
	DB	084H
	DB	031H
	DB	08cH
	DB	010H
	DB	084H
	DB	0f0H
	DB	083H
	DB	0efH
	DB	07bH
	DB	0cfH
	DB	07bH
	DB	0cfH
	DB	07bH
	DB	0cfH
	DB	07bH
	DB	0cfH
	DB	07bH
	DB	0cfH
	DB	07bH
	DB	0cfH
	DB	07bH
	DB	0cfH
	DB	07bH
	DB	0cfH
	DB	07bH
	DB	0cfH
	DB	07bH
	DB	0cfH
	DB	07bH
	DB	0cfH
	DB	07bH
	DB	0cfH
	DB	07bH
	DB	0cfH
	DB	07bH
	DB	0cfH
	DB	07bH
	DB	0cfH
	DB	07bH
	DB	0cfH
	DB	07bH
	DB	0cfH
	DB	07bH
	DB	0cfH
	DB	07bH
	DB	0cfH
	DB	07bH
	DB	0cfH
	DB	07bH
	DB	0cfH
	DB	07bH
	DB	0cfH
	DB	07bH
	DB	0cfH
	DB	07bH
	DB	0cfH
	DB	07bH
	DB	0cfH
	DB	07bH
	DB	0cfH
	DB	07bH
	DB	0cfH
	DB	07bH
	DB	0cfH
	DB	07bH
	DB	0cfH
	DB	07bH
	DB	0cfH
	DB	07bH
	DB	0cfH
	DB	07bH
	DB	0cfH
	DB	07bH
	DB	0cfH
	DB	07bH
	DB	0cfH
	DB	07bH
	DB	0cfH
	DB	07bH
	DB	0cfH
	DB	07bH
	DB	0cfH
	DB	07bH
	DB	0cfH
	DB	07bH
	DB	0cfH
	DB	07bH
	DB	0cfH
	DB	07bH
	DB	0cfH
	DB	07bH
	DB	0cfH
	DB	07bH
	DB	0cfH
	DB	07bH
	DB	0cfH
	DB	07bH
	DB	0cfH
	DB	07bH
	DB	0cfH
	DB	07bH
	DB	0cfH
	DB	07bH
	DB	0cfH
	DB	07bH
	DB	0cfH
	DB	07bH
	DB	0cfH
	DB	07bH
	DB	0cfH
	DB	07bH
	DB	0cfH
	DB	07bH
	DB	0cfH
	DB	07bH
	DB	0cfH
	DB	07bH
	DB	0cfH
	DB	07bH
	DB	0cfH
	DB	07bH
	DB	0cfH
	DB	07bH
	DB	0cfH
	DB	07bH
	DB	0cfH
	DB	07bH
	DB	0efH
	DB	07bH
	DB	0cfH
	DB	07bH
	DB	0cfH
	DB	07bH
	DB	0efH
	DB	083H
	DB	0cfH
	DB	07bH
	DB	0efH
	DB	07bH
	DB	0efH
	DB	07bH
	DB	0efH
	DB	083H
	DB	010H
	DB	084H
	DB	02fH
	DB	084H
	DB	02fH
	DB	084H
	DB	050H
	DB	084H
	DB	070H
	DB	08cH
	DB	090H
	DB	08cH
	DB	0b0H
	DB	08cH
	DB	0d0H
	DB	094H
	DB	0f0H
	DB	094H
	DB	010H
	DB	095H
	DB	030H
	DB	09dH
	DB	050H
	DB	09dH
	DB	070H
	DB	09dH
	DB	090H
	DB	0a5H
	DB	0b1H
	DB	0a5H
	DB	0d1H
	DB	0a5H
	DB	0f1H
	DB	0adH
	DB	0f0H
	DB	0adH
	DB	011H
	DB	0aeH
	DB	011H
	DB	0aeH
	DB	031H
	DB	0aeH
	DB	030H
	DB	0aeH
	DB	011H
	DB	0aeH
	DB	011H
	DB	0aeH
	DB	011H
	DB	0aeH
	DB	0f1H
	DB	0adH
	DB	0f1H
	DB	0adH
	DB	0d1H
	DB	0a5H
	DB	0b0H
	DB	0a5H
	DB	090H
	DB	0a5H
	DB	070H
	DB	09dH
	DB	050H
	DB	09dH
	DB	030H
	DB	09dH
	DB	010H
	DB	095H
	DB	0f0H
	DB	094H
	DB	0d0H
	DB	094H
	DB	0b0H
	DB	08cH
	DB	090H
	DB	08cH
	DB	070H
	DB	08cH
	DB	050H
	DB	084H
	DB	030H
	DB	084H
	DB	030H
	DB	084H
	DB	0fH
	DB	084H
	DB	0efH
	DB	07bH
	DB	0efH
	DB	07bH
	DB	0cfH
	DB	07bH
	DB	0cfH
	DB	083H
	DB	0f0H
	DB	07bH
	DB	0efH
	DB	07bH
	DB	0f0H
	DB	083H
	DB	0f0H
	DB	083H
	DB	030H
	DB	084H
	DB	030H
	DB	084H
	DB	010H
	DB	084H
	DB	0efH
	DB	07bH
	DB	0cfH
	DB	07bH
	DB	0f0H
	DB	083H
	DB	030H
	DB	084H
	DB	030H
	DB	084H
	DB	010H
	DB	084H
	DB	010H
	DB	084H
	DB	0f0H
	DB	083H
	DB	0f0H
	DB	083H
	DB	010H
	DB	084H
	DB	010H
	DB	084H
	DB	0f0H
	DB	083H
	DB	010H
	DB	084H
	DB	0f0H
	DB	083H
	DB	010H
	DB	084H
	DB	010H
	DB	084H
	DB	0f0H
	DB	083H
	DB	010H
	DB	084H
	DB	010H
	DB	084H
	DB	010H
	DB	084H
	DB	010H
	DB	084H
	DB	010H
	DB	084H
	DB	0f0H
	DB	083H
	DB	010H
	DB	084H
	DB	010H
	DB	084H
	DB	010H
	DB	084H
	DB	010H
	DB	084H
	DB	0f0H
	DB	083H
	DB	010H
	DB	084H
	DB	010H
	DB	084H
	DB	0f0H
	DB	083H
	DB	0f0H
	DB	083H
	DB	010H
	DB	084H
	DB	0f0H
	DB	083H
	DB	0f0H
	DB	083H
	DB	010H
	DB	084H
	DB	0f0H
	DB	083H
	DB	0f0H
	DB	083H
	DB	010H
	DB	084H
	DB	0f0H
	DB	083H
	DB	010H
	DB	084H
	DB	0f0H
	DB	083H
	DB	010H
	DB	084H
	DB	0f0H
	DB	083H
	DB	010H
	DB	084H
	DB	0f0H
	DB	083H
	DB	010H
	DB	084H
	DB	0f0H
	DB	083H
	DB	010H
	DB	084H
	DB	0f0H
	DB	083H
	DB	0f0H
	DB	083H
	DB	010H
	DB	084H
	DB	010H
	DB	084H
	DB	010H
	DB	084H
	DB	010H
	DB	084H
	DB	010H
	DB	084H
	DB	010H
	DB	084H
	DB	010H
	DB	084H
	DB	0f0H
	DB	083H
	DB	010H
	DB	084H
	DB	0f0H
	DB	083H
	DB	0f0H
	DB	083H
	DB	010H
	DB	084H
	DB	0f0H
	DB	083H
	DB	0f0H
	DB	083H
	DB	010H
	DB	084H
	DB	010H
	DB	084H
	DB	0f0H
	DB	083H
	DB	010H
	DB	084H
	DB	0f0H
	DB	083H
	DB	0f0H
	DB	083H
	DB	010H
	DB	084H
	DB	0f0H
	DB	083H
	DB	010H
	DB	084H
	DB	030H
	DB	084H
	DB	050H
	DB	084H
	DB	070H
	DB	08cH
	DB	070H
	DB	08cH
	DB	090H
	DB	08cH
	DB	0b0H
	DB	094H
	DB	0d0H
	DB	094H
	DB	0f0H
	DB	094H
	DB	010H
	DB	095H
	DB	031H
	DB	09dH
	DB	051H
	DB	09dH
	DB	071H
	DB	09dH
	DB	091H
	DB	0a5H
	DB	0b1H
	DB	0a5H
	DB	0d1H
	DB	0a5H
	DB	0d1H
	DB	0adH
	DB	0f1H
	DB	0adH
	DB	011H
	DB	0aeH
	DB	011H
	DB	0aeH
	DB	031H
	DB	0aeH
	DB	031H
	DB	0aeH
	DB	031H
	DB	0b6H
	DB	031H
	DB	0aeH
	DB	031H
	DB	0aeH
	DB	011H
	DB	0aeH
	DB	011H
	DB	0aeH
	DB	0f1H
	DB	0adH
	DB	0d1H
	DB	0adH
	DB	0d1H
	DB	0a5H
	DB	0b1H
	DB	0a5H
	DB	091H
	DB	0a5H
	DB	071H
	DB	09dH
	DB	051H
	DB	09dH
	DB	031H
	DB	09dH
	DB	010H
	DB	09dH
	DB	0f0H
	DB	094H
	DB	0d0H
	DB	094H
	DB	0b0H
	DB	08cH
	DB	090H
	DB	08cH
	DB	070H
	DB	08cH
	DB	070H
	DB	08cH
	DB	030H
	DB	084H
	DB	030H
	DB	084H
	DB	010H
	DB	084H
	DB	010H
	DB	084H
	DB	0f0H
	DB	083H
	DB	0f0H
	DB	083H
	DB	010H
	DB	084H
	DB	0f0H
	DB	083H
	DB	010H
	DB	084H
	DB	010H
	DB	084H
	DB	010H
	DB	084H
	DB	030H
	DB	084H
	DB	0f0H
	DB	083H
	DB	0cfH
	DB	07bH
CONST	ENDS
END
