; Listing generated by Microsoft (R) Optimizing Compiler Version 19.27.29112.0 

	TITLE	D:\hackTuesProject\project\TouchGFX\generated\images\src\Hallway\image_sky_bg.cpp
	.686P
	.XMM
	include listing.inc
	.model	flat

INCLUDELIB MSVCRTD
INCLUDELIB OLDNAMES

PUBLIC	?image_sky_bg@@3QBEB				; image_sky_bg
CONST	SEGMENT
?image_sky_bg@@3QBEB DB 0f8H				; image_sky_bg
	DB	0fcH
	DB	0f8H
	DB	0ffH
	DB	0f8H
	DB	0fcH
	DB	0f8H
	DB	0ffH
	DB	0f8H
	DB	0fcH
	DB	0f8H
	DB	0ffH
	DB	0f8H
	DB	0fcH
	DB	0f8H
	DB	0ffH
	DB	0f8H
	DB	0fcH
	DB	0f8H
	DB	0ffH
	DB	0f8H
	DB	0fcH
	DB	0f8H
	DB	0ffH
	DB	0f8H
	DB	0fcH
	DB	0f8H
	DB	0ffH
	DB	0f8H
	DB	0fcH
	DB	0f8H
	DB	0ffH
	DB	0f8H
	DB	0fcH
	DB	0f8H
	DB	0ffH
	DB	0f8H
	DB	0fcH
	DB	0f8H
	DB	0ffH
	DB	0f8H
	DB	0fcH
	DB	0f8H
	DB	0ffH
	DB	0f8H
	DB	0fcH
	DB	0f8H
	DB	0ffH
	DB	0f8H
	DB	0fcH
	DB	0f8H
	DB	0ffH
	DB	0f8H
	DB	0fcH
	DB	0f8H
	DB	0ffH
	DB	0f8H
	DB	0fcH
	DB	0f8H
	DB	0ffH
	DB	0f8H
	DB	0fcH
	DB	0f8H
	DB	0ffH
	DB	0f8H
	DB	0fcH
	DB	0f8H
	DB	0ffH
	DB	0f8H
	DB	0fcH
	DB	0f8H
	DB	0ffH
	DB	0f8H
	DB	0fcH
	DB	0f8H
	DB	0ffH
	DB	0f8H
	DB	0fcH
	DB	0f8H
	DB	0ffH
	DB	0f8H
	DB	0fcH
	DB	0f8H
	DB	0ffH
	DB	0f8H
	DB	0fcH
	DB	0f8H
	DB	0ffH
	DB	0f8H
	DB	0fcH
	DB	0f8H
	DB	0ffH
	DB	0f8H
	DB	0fcH
	DB	0f8H
	DB	0ffH
	DB	0f8H
	DB	0fcH
	DB	0f8H
	DB	0ffH
	DB	0f8H
	DB	0fcH
	DB	0f8H
	DB	0ffH
	DB	0f8H
	DB	0fcH
	DB	0f8H
	DB	0ffH
	DB	0f8H
	DB	0fcH
	DB	0f8H
	DB	0ffH
	DB	0f8H
	DB	0fcH
	DB	0f8H
	DB	0ffH
	DB	0f8H
	DB	0fcH
	DB	0f8H
	DB	0ffH
	DB	0f8H
	DB	0fcH
	DB	0f8H
	DB	0ffH
	DB	0f8H
	DB	0fcH
	DB	0f8H
	DB	0ffH
	DB	0f8H
	DB	0fcH
	DB	0f8H
	DB	0ffH
	DB	0f8H
	DB	0fcH
	DB	0f8H
	DB	0ffH
	DB	0f8H
	DB	0fcH
	DB	0f8H
	DB	0ffH
	DB	0f8H
	DB	0fcH
	DB	0f8H
	DB	0ffH
	DB	0f8H
	DB	0fcH
	DB	0f8H
	DB	0ffH
	DB	0f8H
	DB	0fcH
	DB	0f8H
	DB	0ffH
	DB	0f8H
	DB	0fcH
	DB	0f8H
	DB	0ffH
	DB	0f8H
	DB	0fcH
	DB	0f8H
	DB	0ffH
	DB	0f8H
	DB	0fcH
	DB	0f8H
	DB	0ffH
	DB	0f8H
	DB	0fcH
	DB	0f8H
	DB	0ffH
	DB	0f8H
	DB	0fcH
	DB	0f8H
	DB	0ffH
	DB	0f8H
	DB	0fcH
	DB	0f8H
	DB	0ffH
	DB	0f8H
	DB	0fcH
	DB	0f8H
	DB	0ffH
	DB	0f8H
	DB	0fcH
	DB	0f8H
	DB	0ffH
	DB	0f8H
	DB	0fcH
	DB	0f8H
	DB	0ffH
	DB	0f8H
	DB	0fcH
	DB	0f8H
	DB	0ffH
	DB	0f8H
	DB	0fcH
	DB	0f8H
	DB	0ffH
	DB	0f8H
	DB	0fcH
	DB	0f8H
	DB	0ffH
	DB	0f8H
	DB	0fcH
	DB	0f8H
	DB	0ffH
	DB	0f8H
	DB	0fcH
	DB	0f8H
	DB	0ffH
	DB	0f8H
	DB	0fcH
	DB	0f8H
	DB	0ffH
	DB	0f8H
	DB	0fcH
	DB	0f8H
	DB	0ffH
	DB	0f8H
	DB	0fcH
	DB	0f8H
	DB	0ffH
	DB	0f8H
	DB	0fcH
	DB	0f8H
	DB	0ffH
	DB	0f8H
	DB	0fcH
	DB	0f8H
	DB	0ffH
	DB	0f8H
	DB	0fcH
	DB	0f8H
	DB	0ffH
	DB	0f8H
	DB	0fcH
	DB	0f8H
	DB	0ffH
	DB	0f8H
	DB	0fcH
	DB	0f8H
	DB	0ffH
	DB	0f8H
	DB	0fcH
	DB	0f8H
	DB	0ffH
	DB	0f8H
	DB	0fcH
	DB	0f8H
	DB	0ffH
	DB	0f8H
	DB	0fcH
	DB	0f8H
	DB	0ffH
	DB	0f8H
	DB	0fcH
	DB	0f8H
	DB	0ffH
	DB	0f8H
	DB	0fcH
	DB	0f8H
	DB	0ffH
	DB	0f8H
	DB	0fcH
	DB	0f8H
	DB	0ffH
	DB	0f8H
	DB	0fcH
	DB	0f8H
	DB	0ffH
	DB	0f8H
	DB	0fcH
	DB	0f8H
	DB	0ffH
	DB	0f8H
	DB	0f8H
	DB	0f8H
	DB	0ffH
	DB	0f8H
	DB	0f8H
	DB	0f8H
	DB	0ffH
	DB	0f8H
	DB	0f8H
	DB	0f8H
	DB	0ffH
	DB	0f8H
	DB	0f8H
	DB	0f8H
	DB	0ffH
	DB	0f8H
	DB	0f8H
	DB	0f8H
	DB	0ffH
	DB	0f0H
	DB	0f8H
	DB	0f8H
	DB	0ffH
	DB	0f0H
	DB	0f4H
	DB	0f8H
	DB	0ffH
	DB	0f8H
	DB	0f4H
	DB	0f8H
	DB	0ffH
	DB	0f0H
	DB	0f4H
	DB	0f0H
	DB	0ffH
	DB	0f0H
	DB	0f4H
	DB	0f8H
	DB	0ffH
	DB	0f0H
	DB	0f4H
	DB	0f0H
	DB	0ffH
	DB	0f0H
	DB	0f4H
	DB	0f0H
	DB	0ffH
	DB	0f0H
	DB	0f4H
	DB	0f8H
	DB	0ffH
	DB	0f0H
	DB	0f4H
	DB	0f0H
	DB	0ffH
	DB	0f0H
	DB	0f4H
	DB	0f0H
	DB	0ffH
	DB	0f0H
	DB	0f4H
	DB	0f8H
	DB	0ffH
	DB	0f8H
	DB	0f4H
	DB	0f8H
	DB	0ffH
	DB	0f0H
	DB	0f4H
	DB	0f0H
	DB	0ffH
	DB	0f0H
	DB	0f4H
	DB	0f8H
	DB	0ffH
	DB	0f0H
	DB	0f4H
	DB	0f0H
	DB	0ffH
	DB	0f0H
	DB	0f4H
	DB	0f0H
	DB	0ffH
	DB	0f0H
	DB	0f4H
	DB	0f0H
	DB	0ffH
	DB	0f0H
	DB	0f4H
	DB	0f0H
	DB	0ffH
	DB	0f8H
	DB	0f4H
	DB	0f8H
	DB	0ffH
	DB	0f0H
	DB	0f4H
	DB	0f0H
	DB	0ffH
	DB	0f0H
	DB	0f4H
	DB	0f0H
	DB	0ffH
	DB	0f0H
	DB	0f4H
	DB	0f8H
	DB	0ffH
	DB	0f0H
	DB	0f4H
	DB	0f0H
	DB	0ffH
	DB	0f0H
	DB	0f0H
	DB	0f0H
	DB	0ffH
	DB	0f0H
	DB	0f0H
	DB	0f0H
	DB	0ffH
	DB	0f0H
	DB	0f0H
	DB	0f0H
	DB	0ffH
	DB	0f0H
	DB	0f0H
	DB	0f0H
	DB	0ffH
	DB	0f0H
	DB	0f0H
	DB	0f0H
	DB	0ffH
	DB	0f0H
	DB	0f0H
	DB	0f0H
	DB	0ffH
	DB	0f0H
	DB	0f0H
	DB	0f0H
	DB	0ffH
	DB	0f0H
	DB	0ecH
	DB	0f0H
	DB	0ffH
	DB	0f0H
	DB	0ecH
	DB	0f0H
	DB	0ffH
	DB	0e8H
	DB	0ecH
	DB	0e8H
	DB	0ffH
	DB	0f0H
	DB	0ecH
	DB	0f0H
	DB	0ffH
	DB	0f0H
	DB	0ecH
	DB	0f0H
	DB	0ffH
	DB	0e8H
	DB	0ecH
	DB	0e8H
	DB	0ffH
	DB	0e8H
	DB	0ecH
	DB	0e8H
	DB	0ffH
	DB	0e8H
	DB	0e8H
	DB	0e8H
	DB	0ffH
	DB	0e8H
	DB	0e8H
	DB	0e8H
	DB	0ffH
	DB	0e8H
	DB	0ecH
	DB	0e8H
	DB	0ffH
	DB	0e8H
	DB	0e8H
	DB	0e8H
	DB	0ffH
	DB	0e8H
	DB	0e8H
	DB	0e8H
	DB	0ffH
	DB	0e8H
	DB	0e8H
	DB	0e8H
	DB	0ffH
	DB	0e8H
	DB	0e8H
	DB	0e8H
	DB	0ffH
	DB	0e8H
	DB	0e8H
	DB	0e8H
	DB	0ffH
	DB	0e8H
	DB	0e8H
	DB	0e8H
	DB	0ffH
	DB	0e8H
	DB	0e8H
	DB	0e8H
	DB	0ffH
	DB	0e8H
	DB	0e8H
	DB	0e8H
	DB	0ffH
	DB	0e8H
	DB	0e8H
	DB	0e8H
	DB	0ffH
	DB	0e8H
	DB	0e8H
	DB	0e8H
	DB	0ffH
	DB	0e8H
	DB	0e8H
	DB	0e8H
	DB	0ffH
	DB	0e8H
	DB	0e8H
	DB	0e8H
	DB	0ffH
	DB	0e8H
	DB	0e8H
	DB	0e8H
	DB	0ffH
	DB	0e8H
	DB	0e8H
	DB	0e8H
	DB	0ffH
	DB	0e8H
	DB	0ecH
	DB	0e8H
	DB	0ffH
	DB	0e8H
	DB	0e8H
	DB	0e8H
	DB	0ffH
	DB	0e8H
	DB	0e8H
	DB	0e8H
	DB	0ffH
	DB	0e8H
	DB	0ecH
	DB	0e8H
	DB	0ffH
	DB	0e8H
	DB	0e8H
	DB	0e8H
	DB	0ffH
	DB	0e8H
	DB	0e8H
	DB	0e8H
	DB	0ffH
	DB	0e8H
	DB	0ecH
	DB	0e8H
	DB	0ffH
	DB	0e8H
	DB	0e8H
	DB	0e8H
	DB	0ffH
	DB	0e8H
	DB	0e8H
	DB	0e8H
	DB	0ffH
	DB	0e8H
	DB	0ecH
	DB	0e8H
	DB	0ffH
	DB	0e8H
	DB	0e8H
	DB	0e8H
	DB	0ffH
	DB	0e8H
	DB	0e8H
	DB	0e8H
	DB	0ffH
	DB	0e8H
	DB	0ecH
	DB	0e8H
	DB	0ffH
	DB	0f0H
	DB	0ecH
	DB	0f0H
	DB	0ffH
	DB	0e8H
	DB	0ecH
	DB	0e8H
	DB	0ffH
	DB	0e8H
	DB	0ecH
	DB	0e8H
	DB	0ffH
	DB	0e8H
	DB	0e8H
	DB	0e8H
	DB	0ffH
	DB	0e8H
	DB	0e8H
	DB	0e8H
	DB	0ffH
	DB	0e8H
	DB	0ecH
	DB	0e8H
	DB	0ffH
	DB	0e8H
	DB	0e8H
	DB	0e8H
	DB	0ffH
	DB	0e8H
	DB	0e8H
	DB	0e8H
	DB	0ffH
	DB	0e8H
	DB	0e8H
	DB	0e8H
	DB	0ffH
	DB	0e8H
	DB	0e8H
	DB	0e8H
	DB	0ffH
	DB	0e8H
	DB	0e8H
	DB	0e8H
	DB	0ffH
	DB	0e8H
	DB	0e8H
	DB	0e8H
	DB	0ffH
	DB	0e8H
	DB	0e8H
	DB	0e8H
	DB	0ffH
	DB	0e8H
	DB	0e4H
	DB	0e8H
	DB	0ffH
	DB	0e8H
	DB	0e4H
	DB	0e8H
	DB	0ffH
	DB	0e8H
	DB	0e8H
	DB	0e8H
	DB	0ffH
	DB	0e8H
	DB	0e8H
	DB	0e8H
	DB	0ffH
	DB	0e8H
	DB	0e8H
	DB	0e8H
	DB	0ffH
	DB	0e8H
	DB	0e8H
	DB	0e8H
	DB	0ffH
	DB	0e8H
	DB	0e8H
	DB	0e8H
	DB	0ffH
	DB	0e8H
	DB	0e4H
	DB	0e8H
	DB	0ffH
	DB	0e8H
	DB	0e4H
	DB	0e8H
	DB	0ffH
	DB	0e0H
	DB	0e4H
	DB	0e0H
	DB	0ffH
	DB	0e8H
	DB	0e4H
	DB	0e8H
	DB	0ffH
	DB	0e8H
	DB	0e4H
	DB	0e0H
	DB	0ffH
	DB	0e8H
	DB	0e0H
	DB	0e0H
	DB	0ffH
	DB	0e8H
	DB	0e0H
	DB	0e0H
	DB	0ffH
	DB	0e0H
	DB	0e0H
	DB	0e0H
	DB	0ffH
	DB	0e0H
	DB	0e0H
	DB	0e0H
	DB	0ffH
	DB	0e8H
	DB	0e4H
	DB	0e0H
	DB	0ffH
	DB	0e0H
	DB	0e0H
	DB	0e0H
	DB	0ffH
	DB	0e0H
	DB	0e0H
	DB	0e0H
	DB	0ffH
	DB	0e0H
	DB	0e0H
	DB	0e0H
	DB	0ffH
	DB	0e0H
	DB	0e0H
	DB	0e0H
	DB	0ffH
	DB	0e0H
	DB	0e0H
	DB	0e0H
	DB	0ffH
	DB	0e0H
	DB	0e0H
	DB	0e0H
	DB	0ffH
	DB	0e8H
	DB	0e0H
	DB	0e0H
	DB	0ffH
	DB	0e8H
	DB	0e4H
	DB	0e0H
	DB	0ffH
	DB	0e0H
	DB	0e4H
	DB	0e0H
	DB	0ffH
	DB	0e8H
	DB	0e4H
	DB	0e8H
	DB	0ffH
	DB	0e8H
	DB	0e4H
	DB	0e0H
	DB	0ffH
	DB	0e8H
	DB	0e4H
	DB	0e0H
	DB	0ffH
	DB	0e0H
	DB	0e4H
	DB	0e0H
	DB	0ffH
	DB	0e0H
	DB	0e0H
	DB	0e0H
	DB	0ffH
	DB	0e8H
	DB	0e0H
	DB	0e0H
	DB	0ffH
	DB	0e0H
	DB	0e4H
	DB	0e0H
	DB	0ffH
	DB	0e0H
	DB	0e4H
	DB	0e0H
	DB	0ffH
	DB	0e8H
	DB	0e4H
	DB	0e8H
	DB	0ffH
	DB	0e8H
	DB	0e4H
	DB	0e8H
	DB	0ffH
	DB	0e8H
	DB	0e4H
	DB	0e0H
	DB	0ffH
	DB	0e8H
	DB	0e4H
	DB	0e0H
	DB	0ffH
	DB	0e8H
	DB	0e4H
	DB	0e8H
	DB	0ffH
	DB	0e8H
	DB	0e4H
	DB	0e0H
	DB	0ffH
	DB	0e0H
	DB	0e4H
	DB	0e0H
	DB	0ffH
	DB	0e8H
	DB	0e4H
	DB	0e0H
	DB	0ffH
	DB	0e8H
	DB	0e4H
	DB	0e0H
	DB	0ffH
	DB	0e8H
	DB	0e4H
	DB	0e8H
	DB	0ffH
	DB	0e8H
	DB	0e4H
	DB	0e8H
	DB	0ffH
	DB	0e8H
	DB	0e4H
	DB	0e8H
	DB	0ffH
	DB	0e8H
	DB	0e4H
	DB	0e8H
	DB	0ffH
	DB	0e8H
	DB	0e8H
	DB	0e8H
	DB	0ffH
	DB	0e8H
	DB	0e4H
	DB	0e8H
	DB	0ffH
	DB	0e8H
	DB	0e4H
	DB	0e0H
	DB	0ffH
	DB	0e0H
	DB	0e4H
	DB	0e0H
	DB	0ffH
	DB	0e0H
	DB	0e0H
	DB	0e0H
	DB	0ffH
	DB	0e0H
	DB	0e0H
	DB	0e0H
	DB	0ffH
	DB	0e0H
	DB	0e0H
	DB	0e0H
	DB	0ffH
	DB	0e0H
	DB	0e0H
	DB	0e0H
	DB	0ffH
	DB	0e0H
	DB	0e0H
	DB	0e0H
	DB	0ffH
	DB	0e0H
	DB	0e0H
	DB	0e0H
	DB	0ffH
	DB	0e0H
	DB	0e0H
	DB	0e0H
	DB	0ffH
	DB	0e0H
	DB	0dcH
	DB	0e0H
	DB	0ffH
	DB	0e0H
	DB	0dcH
	DB	0d8H
	DB	0ffH
	DB	0e0H
	DB	0dcH
	DB	0d8H
	DB	0ffH
	DB	0e0H
	DB	0dcH
	DB	0e0H
	DB	0ffH
	DB	0e0H
	DB	0e0H
	DB	0e0H
	DB	0ffH
	DB	0e0H
	DB	0e0H
	DB	0e0H
	DB	0ffH
	DB	0e0H
	DB	0e0H
	DB	0e0H
	DB	0ffH
	DB	0e0H
	DB	0e0H
	DB	0e0H
	DB	0ffH
	DB	0e8H
	DB	0e0H
	DB	0e0H
	DB	0ffH
	DB	0e8H
	DB	0e4H
	DB	0e0H
	DB	0ffH
	DB	0e0H
	DB	0e0H
	DB	0e0H
	DB	0ffH
	DB	0e0H
	DB	0e0H
	DB	0e0H
	DB	0ffH
	DB	0e0H
	DB	0e0H
	DB	0e0H
	DB	0ffH
	DB	0e8H
	DB	0e4H
	DB	0e0H
	DB	0ffH
	DB	0e8H
	DB	0e4H
	DB	0e8H
	DB	0ffH
	DB	0e8H
	DB	0e8H
	DB	0e8H
	DB	0ffH
	DB	0e8H
	DB	0e4H
	DB	0e8H
	DB	0ffH
	DB	0e8H
	DB	0e4H
	DB	0e8H
	DB	0ffH
	DB	0e0H
	DB	0e4H
	DB	0e0H
	DB	0ffH
	DB	0e0H
	DB	0e0H
	DB	0e0H
	DB	0ffH
	DB	0e0H
	DB	0dcH
	DB	0d8H
	DB	0ffH
	DB	0e0H
	DB	0e0H
	DB	0d8H
	DB	0ffH
	DB	0e0H
	DB	0e0H
	DB	0e0H
	DB	0ffH
	DB	0e0H
	DB	0d8H
	DB	0d8H
	DB	0ffH
	DB	0d8H
	DB	0d8H
	DB	0d0H
	DB	0ffH
	DB	0d8H
	DB	0d8H
	DB	0d8H
	DB	0ffH
	DB	0e0H
	DB	0dcH
	DB	0d8H
	DB	0ffH
	DB	0e0H
	DB	0dcH
	DB	0d8H
	DB	0ffH
	DB	0d8H
	DB	0d8H
	DB	0d8H
	DB	0ffH
	DB	0e0H
	DB	0d8H
	DB	0d8H
	DB	0ffH
	DB	0d8H
	DB	0d4H
	DB	0d8H
	DB	0ffH
	DB	0d8H
	DB	0d4H
	DB	0d8H
	DB	0ffH
	DB	0e0H
	DB	0d8H
	DB	0d8H
	DB	0ffH
	DB	0e0H
	DB	0d8H
	DB	0d8H
	DB	0ffH
	DB	0e0H
	DB	0dcH
	DB	0e0H
	DB	0ffH
	DB	0e0H
	DB	0dcH
	DB	0d8H
	DB	0ffH
	DB	0e0H
	DB	0dcH
	DB	0d8H
	DB	0ffH
	DB	0e0H
	DB	0e0H
	DB	0e0H
	DB	0ffH
	DB	0e0H
	DB	0e0H
	DB	0e0H
	DB	0ffH
	DB	0e8H
	DB	0e0H
	DB	0e0H
	DB	0ffH
	DB	0e0H
	DB	0e0H
	DB	0e0H
	DB	0ffH
	DB	0e0H
	DB	0e0H
	DB	0e0H
	DB	0ffH
	DB	0e0H
	DB	0e4H
	DB	0e8H
	DB	0ffH
	DB	0e8H
	DB	0e4H
	DB	0e8H
	DB	0ffH
	DB	0e8H
	DB	0e8H
	DB	0e8H
	DB	0ffH
	DB	0e8H
	DB	0e4H
	DB	0e8H
	DB	0ffH
	DB	0e8H
	DB	0e4H
	DB	0e8H
	DB	0ffH
	DB	0e0H
	DB	0e0H
	DB	0e0H
	DB	0ffH
	DB	0e0H
	DB	0e0H
	DB	0e0H
	DB	0ffH
	DB	0e0H
	DB	0e4H
	DB	0e8H
	DB	0ffH
	DB	0e8H
	DB	0e4H
	DB	0e8H
	DB	0ffH
	DB	0e8H
	DB	0e4H
	DB	0e8H
	DB	0ffH
	DB	0e8H
	DB	0e8H
	DB	0e8H
	DB	0ffH
	DB	0e8H
	DB	0ecH
	DB	0e8H
	DB	0ffH
	DB	0e8H
	DB	0ecH
	DB	0f0H
	DB	0ffH
	DB	0e8H
	DB	0ecH
	DB	0e8H
	DB	0ffH
	DB	0e8H
	DB	0ecH
	DB	0f0H
	DB	0ffH
	DB	0e8H
	DB	0ecH
	DB	0e8H
	DB	0ffH
	DB	0e8H
	DB	0ecH
	DB	0e8H
	DB	0ffH
	DB	0e8H
	DB	0ecH
	DB	0f0H
	DB	0ffH
	DB	0e8H
	DB	0e8H
	DB	0e8H
	DB	0ffH
	DB	0e8H
	DB	0ecH
	DB	0e8H
	DB	0ffH
	DB	0e8H
	DB	0e8H
	DB	0e8H
	DB	0ffH
	DB	0e8H
	DB	0e8H
	DB	0e8H
	DB	0ffH
	DB	0e8H
	DB	0e4H
	DB	0e8H
	DB	0ffH
	DB	0e0H
	DB	0e0H
	DB	0e0H
	DB	0ffH
	DB	0e0H
	DB	0dcH
	DB	0e0H
	DB	0ffH
	DB	0e0H
	DB	0e0H
	DB	0e0H
	DB	0ffH
	DB	0e0H
	DB	0e0H
	DB	0e0H
	DB	0ffH
	DB	0e8H
	DB	0e4H
	DB	0e8H
	DB	0ffH
	DB	0e8H
	DB	0e4H
	DB	0e0H
	DB	0ffH
	DB	0e0H
	DB	0e0H
	DB	0e0H
	DB	0ffH
	DB	0e0H
	DB	0e0H
	DB	0e0H
	DB	0ffH
	DB	0e0H
	DB	0e0H
	DB	0e0H
	DB	0ffH
	DB	0e0H
	DB	0e0H
	DB	0e0H
	DB	0ffH
	DB	0e0H
	DB	0e0H
	DB	0e0H
	DB	0ffH
	DB	0e0H
	DB	0dcH
	DB	0d8H
	DB	0ffH
	DB	0d8H
	DB	0d8H
	DB	0d8H
	DB	0ffH
	DB	0e0H
	DB	0d8H
	DB	0d8H
	DB	0ffH
	DB	0d8H
	DB	0d4H
	DB	0d8H
	DB	0ffH
	DB	0d8H
	DB	0d4H
	DB	0d0H
	DB	0ffH
	DB	0d8H
	DB	0d0H
	DB	0c8H
	DB	0ffH
	DB	0d8H
	DB	0d0H
	DB	0c8H
	DB	0ffH
	DB	0d8H
	DB	0d0H
	DB	0c0H
	DB	0ffH
	DB	0d8H
	DB	0d0H
	DB	0c0H
	DB	0ffH
	DB	0d8H
	DB	0d0H
	DB	0c0H
	DB	0ffH
	DB	0d8H
	DB	0ccH
	DB	0c0H
	DB	0ffH
	DB	0d0H
	DB	0ccH
	DB	0b8H
	DB	0ffH
	DB	0d0H
	DB	0ccH
	DB	0b8H
	DB	0ffH
	DB	0d8H
	DB	0ccH
	DB	0c0H
	DB	0ffH
	DB	0d8H
	DB	0ccH
	DB	0c0H
	DB	0ffH
	DB	0d8H
	DB	0ccH
	DB	0c0H
	DB	0ffH
	DB	0d8H
	DB	0ccH
	DB	0c0H
	DB	0ffH
	DB	0d8H
	DB	0ccH
	DB	0c0H
	DB	0ffH
	DB	0d0H
	DB	0ccH
	DB	0c0H
	DB	0ffH
	DB	0d0H
	DB	0ccH
	DB	0c0H
	DB	0ffH
	DB	0d8H
	DB	0ccH
	DB	0c0H
	DB	0ffH
	DB	0d0H
	DB	0ccH
	DB	0c0H
	DB	0ffH
	DB	0d0H
	DB	0c8H
	DB	0c0H
	DB	0ffH
	DB	0d8H
	DB	0c8H
	DB	0b8H
	DB	0ffH
	DB	0d8H
	DB	0ccH
	DB	0b8H
	DB	0ffH
	DB	0d8H
	DB	0ccH
	DB	0b8H
	DB	0ffH
	DB	0d8H
	DB	0d0H
	DB	0c0H
	DB	0ffH
	DB	0d8H
	DB	0d0H
	DB	0c0H
	DB	0ffH
	DB	0d0H
	DB	0ccH
	DB	0c0H
	DB	0ffH
	DB	0d8H
	DB	0d0H
	DB	0c8H
	DB	0ffH
	DB	0e0H
	DB	0d8H
	DB	0d8H
	DB	0ffH
	DB	0e8H
	DB	0e0H
	DB	0e0H
	DB	0ffH
	DB	0e8H
	DB	0e8H
	DB	0e8H
	DB	0ffH
	DB	0e8H
	DB	0ecH
	DB	0e8H
	DB	0ffH
	DB	0f0H
	DB	0ecH
	DB	0f0H
	DB	0ffH
	DB	0f0H
	DB	0f0H
	DB	0f0H
	DB	0ffH
	DB	0f0H
	DB	0f0H
	DB	0f0H
	DB	0ffH
	DB	0e8H
	DB	0ecH
	DB	0f0H
	DB	0ffH
	DB	0e8H
	DB	0ecH
	DB	0f0H
	DB	0ffH
	DB	0e8H
	DB	0e8H
	DB	0e8H
	DB	0ffH
	DB	0e8H
	DB	0e8H
	DB	0e8H
	DB	0ffH
	DB	0e8H
	DB	0e8H
	DB	0e8H
	DB	0ffH
	DB	0e8H
	DB	0e8H
	DB	0e8H
	DB	0ffH
	DB	0e8H
	DB	0e8H
	DB	0e8H
	DB	0ffH
	DB	0e8H
	DB	0e8H
	DB	0e8H
	DB	0ffH
	DB	0e0H
	DB	0e4H
	DB	0e8H
	DB	0ffH
	DB	0e0H
	DB	0e4H
	DB	0e0H
	DB	0ffH
	DB	0e8H
	DB	0e8H
	DB	0e8H
	DB	0ffH
	DB	0e8H
	DB	0e8H
	DB	0e8H
	DB	0ffH
	DB	0e8H
	DB	0ecH
	DB	0f0H
	DB	0ffH
	DB	0e8H
	DB	0ecH
	DB	0f0H
	DB	0ffH
	DB	0e8H
	DB	0e8H
	DB	0e8H
	DB	0ffH
	DB	0e8H
	DB	0e8H
	DB	0e8H
	DB	0ffH
	DB	0e8H
	DB	0e8H
	DB	0e8H
	DB	0ffH
	DB	0e8H
	DB	0e8H
	DB	0e8H
	DB	0ffH
	DB	0e0H
	DB	0e4H
	DB	0e8H
	DB	0ffH
	DB	0e0H
	DB	0e4H
	DB	0e0H
	DB	0ffH
	DB	0e8H
	DB	0e4H
	DB	0e0H
	DB	0ffH
	DB	0e0H
	DB	0e0H
	DB	0e0H
	DB	0ffH
	DB	0e0H
	DB	0e0H
	DB	0e0H
	DB	0ffH
	DB	0e0H
	DB	0e0H
	DB	0e0H
	DB	0ffH
	DB	0e0H
	DB	0e0H
	DB	0e0H
	DB	0ffH
	DB	0e0H
	DB	0dcH
	DB	0d8H
	DB	0ffH
	DB	0d8H
	DB	0d8H
	DB	0d0H
	DB	0ffH
	DB	0d8H
	DB	0d4H
	DB	0c8H
	DB	0ffH
	DB	0d8H
	DB	0ccH
	DB	0c8H
	DB	0ffH
	DB	0d8H
	DB	0ccH
	DB	0c0H
	DB	0ffH
	DB	0d8H
	DB	0ccH
	DB	0c0H
	DB	0ffH
	DB	0d8H
	DB	0ccH
	DB	0c0H
	DB	0ffH
	DB	0d8H
	DB	0c8H
	DB	0b8H
	DB	0ffH
	DB	0d0H
	DB	0c8H
	DB	0b8H
	DB	0ffH
	DB	0d8H
	DB	0c8H
	DB	0b8H
	DB	0ffH
	DB	0d0H
	DB	0c8H
	DB	0b8H
	DB	0ffH
	DB	0d0H
	DB	0c8H
	DB	0b8H
	DB	0ffH
	DB	0d8H
	DB	0c8H
	DB	0b8H
	DB	0ffH
	DB	0d8H
	DB	0c8H
	DB	0b8H
	DB	0ffH
	DB	0d8H
	DB	0ccH
	DB	0b8H
	DB	0ffH
	DB	0d8H
	DB	0ccH
	DB	0b8H
	DB	0ffH
	DB	0d8H
	DB	0ccH
	DB	0b8H
	DB	0ffH
	DB	0d8H
	DB	0ccH
	DB	0b8H
	DB	0ffH
	DB	0d8H
	DB	0ccH
	DB	0c0H
	DB	0ffH
	DB	0d8H
	DB	0ccH
	DB	0c0H
	DB	0ffH
	DB	0d8H
	DB	0ccH
	DB	0b8H
	DB	0ffH
	DB	0d8H
	DB	0ccH
	DB	0b8H
	DB	0ffH
	DB	0d0H
	DB	0c8H
	DB	0b8H
	DB	0ffH
	DB	0d0H
	DB	0c8H
	DB	0b8H
	DB	0ffH
	DB	0d0H
	DB	0c8H
	DB	0b8H
	DB	0ffH
	DB	0d0H
	DB	0c8H
	DB	0b0H
	DB	0ffH
	DB	0d8H
	DB	0c8H
	DB	0b8H
	DB	0ffH
	DB	0d8H
	DB	0c8H
	DB	0b8H
	DB	0ffH
	DB	0d0H
	DB	0ccH
	DB	0b8H
	DB	0ffH
	DB	0d0H
	DB	0c8H
	DB	0b0H
	DB	0ffH
	DB	0d0H
	DB	0c8H
	DB	0b0H
	DB	0ffH
	DB	0d0H
	DB	0c8H
	DB	0b0H
	DB	0ffH
	DB	0d0H
	DB	0c8H
	DB	0b0H
	DB	0ffH
	DB	0d0H
	DB	0c8H
	DB	0b0H
	DB	0ffH
	DB	0d0H
	DB	0c8H
	DB	0b8H
	DB	0ffH
	DB	0d0H
	DB	0c8H
	DB	0b8H
	DB	0ffH
	DB	0d8H
	DB	0c8H
	DB	0b8H
	DB	0ffH
	DB	0d8H
	DB	0ccH
	DB	0b8H
	DB	0ffH
	DB	0d8H
	DB	0ccH
	DB	0b8H
	DB	0ffH
	DB	0d0H
	DB	0c8H
	DB	0b8H
	DB	0ffH
	DB	0d0H
	DB	0c8H
	DB	0b8H
	DB	0ffH
	DB	0d0H
	DB	0c8H
	DB	0b8H
	DB	0ffH
	DB	0d0H
	DB	0c4H
	DB	0b8H
	DB	0ffH
	DB	0d0H
	DB	0c8H
	DB	0b8H
	DB	0ffH
	DB	0d8H
	DB	0ccH
	DB	0b8H
	DB	0ffH
	DB	0d8H
	DB	0ccH
	DB	0b8H
	DB	0ffH
	DB	0d0H
	DB	0c8H
	DB	0b8H
	DB	0ffH
	DB	0d0H
	DB	0c8H
	DB	0b8H
	DB	0ffH
	DB	0d8H
	DB	0ccH
	DB	0c0H
	DB	0ffH
	DB	0d8H
	DB	0ccH
	DB	0c0H
	DB	0ffH
	DB	0d0H
	DB	0ccH
	DB	0c0H
	DB	0ffH
	DB	0d0H
	DB	0ccH
	DB	0c0H
	DB	0ffH
	DB	0d8H
	DB	0ccH
	DB	0c8H
	DB	0ffH
	DB	0d8H
	DB	0d0H
	DB	0c8H
	DB	0ffH
	DB	0d0H
	DB	0ccH
	DB	0c8H
	DB	0ffH
	DB	0d0H
	DB	0d0H
	DB	0c8H
	DB	0ffH
	DB	0d8H
	DB	0d0H
	DB	0c8H
	DB	0ffH
	DB	0d8H
	DB	0d0H
	DB	0c8H
	DB	0ffH
	DB	0d8H
	DB	0d0H
	DB	0c8H
	DB	0ffH
	DB	0d8H
	DB	0d0H
	DB	0c8H
	DB	0ffH
	DB	0d8H
	DB	0ccH
	DB	0c0H
	DB	0ffH
	DB	0d8H
	DB	0ccH
	DB	0c0H
	DB	0ffH
	DB	0d0H
	DB	0ccH
	DB	0c0H
	DB	0ffH
	DB	0d0H
	DB	0ccH
	DB	0c0H
	DB	0ffH
	DB	0d0H
	DB	0ccH
	DB	0c0H
	DB	0ffH
	DB	0d0H
	DB	0d0H
	DB	0c8H
	DB	0ffH
	DB	0d8H
	DB	0ccH
	DB	0c0H
	DB	0ffH
	DB	0d8H
	DB	0c8H
	DB	0b8H
	DB	0ffH
	DB	0d0H
	DB	0c8H
	DB	0b8H
	DB	0ffH
	DB	0d0H
	DB	0c4H
	DB	0b0H
	DB	0ffH
	DB	0d8H
	DB	0c4H
	DB	0b0H
	DB	0ffH
	DB	0d8H
	DB	0c8H
	DB	0b8H
	DB	0ffH
	DB	0d0H
	DB	0c8H
	DB	0b0H
	DB	0ffH
	DB	0d0H
	DB	0c4H
	DB	0b0H
	DB	0ffH
	DB	0d8H
	DB	0c4H
	DB	0b0H
	DB	0ffH
	DB	0d0H
	DB	0c4H
	DB	0b0H
	DB	0ffH
	DB	0d0H
	DB	0c4H
	DB	0b8H
	DB	0ffH
	DB	0d0H
	DB	0c8H
	DB	0b8H
	DB	0ffH
	DB	0d0H
	DB	0c8H
	DB	0b8H
	DB	0ffH
	DB	0d8H
	DB	0c8H
	DB	0b8H
	DB	0ffH
	DB	0d8H
	DB	0c8H
	DB	0b8H
	DB	0ffH
	DB	0d0H
	DB	0c8H
	DB	0b0H
	DB	0ffH
	DB	0d0H
	DB	0c8H
	DB	0b8H
	DB	0ffH
	DB	0d0H
	DB	0c4H
	DB	0b8H
	DB	0ffH
	DB	0d0H
	DB	0c4H
	DB	0b0H
	DB	0ffH
	DB	0d0H
	DB	0c4H
	DB	0b0H
	DB	0ffH
	DB	0d0H
	DB	0c4H
	DB	0b0H
	DB	0ffH
	DB	0d0H
	DB	0c4H
	DB	0b0H
	DB	0ffH
	DB	0d0H
	DB	0c4H
	DB	0b0H
	DB	0ffH
	DB	0d0H
	DB	0c4H
	DB	0b0H
	DB	0ffH
	DB	0d0H
	DB	0c4H
	DB	0b0H
	DB	0ffH
	DB	0d0H
	DB	0c4H
	DB	0b0H
	DB	0ffH
	DB	0d0H
	DB	0c4H
	DB	0b0H
	DB	0ffH
	DB	0d0H
	DB	0c4H
	DB	0b0H
	DB	0ffH
	DB	0d0H
	DB	0c4H
	DB	0b0H
	DB	0ffH
	DB	0d0H
	DB	0c4H
	DB	0b0H
	DB	0ffH
	DB	0d0H
	DB	0c8H
	DB	0b8H
	DB	0ffH
	DB	0d0H
	DB	0c8H
	DB	0b8H
	DB	0ffH
	DB	0d0H
	DB	0c8H
	DB	0b8H
	DB	0ffH
	DB	0d0H
	DB	0c8H
	DB	0b8H
	DB	0ffH
	DB	0d0H
	DB	0ccH
	DB	0c0H
	DB	0ffH
	DB	0d8H
	DB	0ccH
	DB	0c8H
	DB	0ffH
	DB	0d8H
	DB	0d0H
	DB	0d0H
	DB	0ffH
	DB	0d8H
	DB	0d4H
	DB	0d0H
	DB	0ffH
	DB	0d8H
	DB	0d4H
	DB	0d0H
	DB	0ffH
	DB	0d8H
	DB	0d8H
	DB	0d8H
	DB	0ffH
	DB	0e0H
	DB	0dcH
	DB	0e0H
	DB	0ffH
	DB	0e0H
	DB	0e4H
	DB	0e0H
	DB	0ffH
	DB	0e0H
	DB	0e4H
	DB	0e8H
	DB	0ffH
	DB	0e8H
	DB	0e4H
	DB	0e8H
	DB	0ffH
	DB	0e0H
	DB	0e4H
	DB	0e8H
	DB	0ffH
	DB	0e8H
	DB	0e8H
	DB	0e8H
	DB	0ffH
	DB	0e8H
	DB	0e8H
	DB	0e8H
	DB	0ffH
	DB	0e8H
	DB	0e8H
	DB	0e8H
	DB	0ffH
	DB	0e8H
	DB	0ecH
	DB	0f0H
	DB	0ffH
	DB	0e8H
	DB	0f0H
	DB	0f0H
	DB	0ffH
	DB	0f0H
	DB	0f0H
	DB	0f0H
	DB	0ffH
	DB	0e8H
	DB	0f0H
	DB	0f0H
	DB	0ffH
	DB	0e8H
	DB	0f0H
	DB	0f0H
	DB	0ffH
	DB	0e8H
	DB	0f0H
	DB	0f0H
	DB	0ffH
	DB	0e8H
	DB	0f0H
	DB	0f0H
	DB	0ffH
	DB	0e8H
	DB	0f0H
	DB	0f0H
	DB	0ffH
	DB	0e8H
	DB	0ecH
	DB	0f0H
	DB	0ffH
	DB	0e8H
	DB	0ecH
	DB	0f0H
	DB	0ffH
	DB	0e8H
	DB	0ecH
	DB	0e8H
	DB	0ffH
	DB	0e8H
	DB	0e8H
	DB	0e8H
	DB	0ffH
	DB	0e8H
	DB	0e8H
	DB	0e8H
	DB	0ffH
	DB	0e0H
	DB	0e8H
	DB	0e8H
	DB	0ffH
	DB	0e0H
	DB	0e8H
	DB	0e8H
	DB	0ffH
	DB	0e8H
	DB	0e8H
	DB	0e8H
	DB	0ffH
	DB	0e0H
	DB	0e8H
	DB	0e8H
	DB	0ffH
	DB	0f8H
	DB	0fcH
	DB	0f8H
	DB	0ffH
	DB	0f8H
	DB	0fcH
	DB	0f8H
	DB	0ffH
	DB	0f8H
	DB	0fcH
	DB	0f8H
	DB	0ffH
	DB	0f8H
	DB	0fcH
	DB	0f8H
	DB	0ffH
	DB	0f8H
	DB	0fcH
	DB	0f8H
	DB	0ffH
	DB	0f8H
	DB	0fcH
	DB	0f8H
	DB	0ffH
	DB	0f8H
	DB	0fcH
	DB	0f8H
	DB	0ffH
	DB	0f8H
	DB	0fcH
	DB	0f8H
	DB	0ffH
	DB	0f8H
	DB	0fcH
	DB	0f8H
	DB	0ffH
	DB	0f8H
	DB	0fcH
	DB	0f8H
	DB	0ffH
	DB	0f8H
	DB	0fcH
	DB	0f8H
	DB	0ffH
	DB	0f8H
	DB	0fcH
	DB	0f8H
	DB	0ffH
	DB	0f8H
	DB	0fcH
	DB	0f8H
	DB	0ffH
	DB	0f8H
	DB	0fcH
	DB	0f8H
	DB	0ffH
	DB	0f8H
	DB	0fcH
	DB	0f8H
	DB	0ffH
	DB	0f8H
	DB	0fcH
	DB	0f8H
	DB	0ffH
	DB	0f8H
	DB	0fcH
	DB	0f8H
	DB	0ffH
	DB	0f8H
	DB	0fcH
	DB	0f8H
	DB	0ffH
	DB	0f8H
	DB	0fcH
	DB	0f8H
	DB	0ffH
	DB	0f8H
	DB	0fcH
	DB	0f8H
	DB	0ffH
	DB	0f8H
	DB	0fcH
	DB	0f8H
	DB	0ffH
	DB	0f8H
	DB	0fcH
	DB	0f8H
	DB	0ffH
	DB	0f8H
	DB	0fcH
	DB	0f8H
	DB	0ffH
	DB	0f8H
	DB	0fcH
	DB	0f8H
	DB	0ffH
	DB	0f8H
	DB	0fcH
	DB	0f8H
	DB	0ffH
	DB	0f8H
	DB	0fcH
	DB	0f8H
	DB	0ffH
	DB	0f8H
	DB	0fcH
	DB	0f8H
	DB	0ffH
	DB	0f8H
	DB	0fcH
	DB	0f8H
	DB	0ffH
	DB	0f8H
	DB	0fcH
	DB	0f8H
	DB	0ffH
	DB	0f8H
	DB	0fcH
	DB	0f8H
	DB	0ffH
	DB	0f8H
	DB	0fcH
	DB	0f8H
	DB	0ffH
	DB	0f8H
	DB	0fcH
	DB	0f8H
	DB	0ffH
	DB	0f8H
	DB	0fcH
	DB	0f8H
	DB	0ffH
	DB	0f8H
	DB	0fcH
	DB	0f8H
	DB	0ffH
	DB	0f8H
	DB	0fcH
	DB	0f8H
	DB	0ffH
	DB	0f8H
	DB	0fcH
	DB	0f8H
	DB	0ffH
	DB	0f8H
	DB	0fcH
	DB	0f8H
	DB	0ffH
	DB	0f8H
	DB	0fcH
	DB	0f8H
	DB	0ffH
	DB	0f8H
	DB	0fcH
	DB	0f8H
	DB	0ffH
	DB	0f8H
	DB	0fcH
	DB	0f8H
	DB	0ffH
	DB	0f8H
	DB	0fcH
	DB	0f8H
	DB	0ffH
	DB	0f8H
	DB	0fcH
	DB	0f8H
	DB	0ffH
	DB	0f8H
	DB	0fcH
	DB	0f8H
	DB	0ffH
	DB	0f8H
	DB	0fcH
	DB	0f8H
	DB	0ffH
	DB	0f8H
	DB	0fcH
	DB	0f8H
	DB	0ffH
	DB	0f8H
	DB	0fcH
	DB	0f8H
	DB	0ffH
	DB	0f8H
	DB	0fcH
	DB	0f8H
	DB	0ffH
	DB	0f8H
	DB	0fcH
	DB	0f8H
	DB	0ffH
	DB	0f8H
	DB	0fcH
	DB	0f8H
	DB	0ffH
	DB	0f8H
	DB	0fcH
	DB	0f8H
	DB	0ffH
	DB	0f8H
	DB	0fcH
	DB	0f8H
	DB	0ffH
	DB	0f8H
	DB	0fcH
	DB	0f8H
	DB	0ffH
	DB	0f8H
	DB	0fcH
	DB	0f8H
	DB	0ffH
	DB	0f8H
	DB	0fcH
	DB	0f8H
	DB	0ffH
	DB	0f8H
	DB	0fcH
	DB	0f8H
	DB	0ffH
	DB	0f8H
	DB	0fcH
	DB	0f8H
	DB	0ffH
	DB	0f8H
	DB	0f8H
	DB	0f8H
	DB	0ffH
	DB	0f8H
	DB	0fcH
	DB	0f8H
	DB	0ffH
	DB	0f8H
	DB	0f8H
	DB	0f8H
	DB	0ffH
	DB	0f8H
	DB	0fcH
	DB	0f8H
	DB	0ffH
	DB	0f8H
	DB	0f8H
	DB	0f8H
	DB	0ffH
	DB	0f8H
	DB	0fcH
	DB	0f8H
	DB	0ffH
	DB	0f8H
	DB	0f8H
	DB	0f8H
	DB	0ffH
	DB	0f8H
	DB	0fcH
	DB	0f8H
	DB	0ffH
	DB	0f8H
	DB	0f8H
	DB	0f8H
	DB	0ffH
	DB	0f8H
	DB	0fcH
	DB	0f8H
	DB	0ffH
	DB	0f8H
	DB	0fcH
	DB	0f8H
	DB	0ffH
	DB	0f8H
	DB	0f8H
	DB	0f8H
	DB	0ffH
	DB	0f8H
	DB	0f8H
	DB	0f8H
	DB	0ffH
	DB	0f8H
	DB	0f8H
	DB	0f8H
	DB	0ffH
	DB	0f8H
	DB	0f8H
	DB	0f8H
	DB	0ffH
	DB	0f8H
	DB	0f8H
	DB	0f8H
	DB	0ffH
	DB	0f8H
	DB	0f8H
	DB	0f8H
	DB	0ffH
	DB	0f8H
	DB	0f8H
	DB	0f8H
	DB	0ffH
	DB	0f8H
	DB	0f8H
	DB	0f8H
	DB	0ffH
	DB	0f8H
	DB	0f8H
	DB	0f8H
	DB	0ffH
	DB	0f8H
	DB	0f8H
	DB	0f8H
	DB	0ffH
	DB	0f0H
	DB	0f4H
	DB	0f8H
	DB	0ffH
	DB	0f8H
	DB	0f4H
	DB	0f8H
	DB	0ffH
	DB	0f0H
	DB	0f4H
	DB	0f0H
	DB	0ffH
	DB	0f0H
	DB	0f4H
	DB	0f0H
	DB	0ffH
	DB	0f0H
	DB	0f4H
	DB	0f8H
	DB	0ffH
	DB	0f0H
	DB	0f4H
	DB	0f0H
	DB	0ffH
	DB	0f0H
	DB	0f4H
	DB	0f8H
	DB	0ffH
	DB	0f8H
	DB	0f4H
	DB	0f8H
	DB	0ffH
	DB	0f8H
	DB	0f8H
	DB	0f8H
	DB	0ffH
	DB	0f8H
	DB	0f4H
	DB	0f8H
	DB	0ffH
	DB	0f8H
	DB	0f8H
	DB	0f8H
	DB	0ffH
	DB	0f8H
	DB	0f4H
	DB	0f8H
	DB	0ffH
	DB	0f0H
	DB	0f4H
	DB	0f8H
	DB	0ffH
	DB	0f0H
	DB	0f4H
	DB	0f8H
	DB	0ffH
	DB	0f8H
	DB	0f4H
	DB	0f8H
	DB	0ffH
	DB	0f0H
	DB	0f4H
	DB	0f8H
	DB	0ffH
	DB	0f0H
	DB	0f4H
	DB	0f0H
	DB	0ffH
	DB	0f8H
	DB	0f4H
	DB	0f8H
	DB	0ffH
	DB	0f8H
	DB	0f4H
	DB	0f8H
	DB	0ffH
	DB	0f8H
	DB	0f4H
	DB	0f0H
	DB	0ffH
	DB	0f0H
	DB	0f4H
	DB	0f0H
	DB	0ffH
	DB	0f0H
	DB	0f4H
	DB	0f8H
	DB	0ffH
	DB	0f0H
	DB	0f0H
	DB	0f0H
	DB	0ffH
	DB	0f0H
	DB	0f0H
	DB	0f0H
	DB	0ffH
	DB	0f0H
	DB	0f0H
	DB	0f0H
	DB	0ffH
	DB	0f0H
	DB	0f0H
	DB	0f0H
	DB	0ffH
	DB	0f0H
	DB	0ecH
	DB	0f0H
	DB	0ffH
	DB	0f0H
	DB	0f0H
	DB	0f0H
	DB	0ffH
	DB	0e8H
	DB	0ecH
	DB	0e8H
	DB	0ffH
	DB	0e8H
	DB	0ecH
	DB	0e8H
	DB	0ffH
	DB	0f0H
	DB	0ecH
	DB	0f0H
	DB	0ffH
	DB	0e8H
	DB	0ecH
	DB	0e8H
	DB	0ffH
	DB	0e8H
	DB	0ecH
	DB	0e8H
	DB	0ffH
	DB	0f0H
	DB	0ecH
	DB	0f0H
	DB	0ffH
	DB	0e8H
	DB	0ecH
	DB	0e8H
	DB	0ffH
	DB	0e8H
	DB	0e8H
	DB	0e8H
	DB	0ffH
	DB	0e8H
	DB	0e8H
	DB	0e8H
	DB	0ffH
	DB	0e8H
	DB	0e8H
	DB	0e8H
	DB	0ffH
	DB	0e8H
	DB	0e8H
	DB	0e8H
	DB	0ffH
	DB	0e8H
	DB	0e8H
	DB	0e8H
	DB	0ffH
	DB	0e8H
	DB	0e8H
	DB	0e8H
	DB	0ffH
	DB	0e8H
	DB	0e8H
	DB	0e8H
	DB	0ffH
	DB	0e8H
	DB	0e8H
	DB	0e8H
	DB	0ffH
	DB	0e8H
	DB	0e8H
	DB	0e8H
	DB	0ffH
	DB	0e8H
	DB	0e8H
	DB	0e8H
	DB	0ffH
	DB	0e8H
	DB	0e8H
	DB	0e8H
	DB	0ffH
	DB	0e8H
	DB	0ecH
	DB	0e8H
	DB	0ffH
	DB	0e8H
	DB	0ecH
	DB	0e8H
	DB	0ffH
	DB	0f0H
	DB	0ecH
	DB	0f0H
	DB	0ffH
	DB	0f0H
	DB	0ecH
	DB	0f0H
	DB	0ffH
	DB	0e8H
	DB	0ecH
	DB	0e8H
	DB	0ffH
	DB	0e8H
	DB	0e8H
	DB	0e8H
	DB	0ffH
	DB	0e8H
	DB	0ecH
	DB	0e8H
	DB	0ffH
	DB	0e8H
	DB	0ecH
	DB	0e8H
	DB	0ffH
	DB	0f0H
	DB	0ecH
	DB	0f0H
	DB	0ffH
	DB	0e8H
	DB	0ecH
	DB	0e8H
	DB	0ffH
	DB	0f0H
	DB	0ecH
	DB	0f0H
	DB	0ffH
	DB	0e8H
	DB	0ecH
	DB	0e8H
	DB	0ffH
	DB	0f0H
	DB	0ecH
	DB	0f0H
	DB	0ffH
	DB	0f0H
	DB	0ecH
	DB	0f0H
	DB	0ffH
	DB	0f0H
	DB	0ecH
	DB	0f0H
	DB	0ffH
	DB	0e8H
	DB	0ecH
	DB	0e8H
	DB	0ffH
	DB	0f0H
	DB	0ecH
	DB	0f0H
	DB	0ffH
	DB	0f0H
	DB	0ecH
	DB	0f0H
	DB	0ffH
	DB	0e8H
	DB	0ecH
	DB	0e8H
	DB	0ffH
	DB	0f0H
	DB	0ecH
	DB	0f0H
	DB	0ffH
	DB	0f0H
	DB	0ecH
	DB	0f0H
	DB	0ffH
	DB	0e8H
	DB	0ecH
	DB	0e8H
	DB	0ffH
	DB	0e8H
	DB	0ecH
	DB	0e8H
	DB	0ffH
	DB	0f0H
	DB	0ecH
	DB	0f0H
	DB	0ffH
	DB	0e8H
	DB	0ecH
	DB	0e8H
	DB	0ffH
	DB	0e8H
	DB	0e8H
	DB	0e8H
	DB	0ffH
	DB	0e8H
	DB	0e8H
	DB	0e8H
	DB	0ffH
	DB	0e8H
	DB	0e8H
	DB	0e8H
	DB	0ffH
	DB	0e8H
	DB	0e8H
	DB	0e8H
	DB	0ffH
	DB	0e8H
	DB	0e8H
	DB	0e8H
	DB	0ffH
	DB	0e8H
	DB	0e8H
	DB	0e8H
	DB	0ffH
	DB	0e8H
	DB	0e4H
	DB	0e8H
	DB	0ffH
	DB	0e8H
	DB	0e8H
	DB	0e8H
	DB	0ffH
	DB	0e8H
	DB	0e8H
	DB	0e8H
	DB	0ffH
	DB	0e8H
	DB	0e4H
	DB	0e8H
	DB	0ffH
	DB	0e8H
	DB	0e8H
	DB	0e8H
	DB	0ffH
	DB	0e8H
	DB	0e8H
	DB	0e8H
	DB	0ffH
	DB	0e8H
	DB	0e4H
	DB	0e8H
	DB	0ffH
	DB	0e0H
	DB	0e8H
	DB	0e8H
	DB	0ffH
	DB	0e8H
	DB	0e4H
	DB	0e0H
	DB	0ffH
	DB	0e8H
	DB	0e4H
	DB	0e8H
	DB	0ffH
	DB	0e8H
	DB	0e4H
	DB	0e0H
	DB	0ffH
	DB	0e8H
	DB	0e4H
	DB	0e0H
	DB	0ffH
	DB	0e8H
	DB	0e0H
	DB	0e8H
	DB	0ffH
	DB	0e0H
	DB	0e4H
	DB	0e0H
	DB	0ffH
	DB	0e8H
	DB	0e4H
	DB	0e0H
	DB	0ffH
	DB	0e8H
	DB	0e0H
	DB	0e0H
	DB	0ffH
	DB	0e8H
	DB	0e4H
	DB	0e0H
	DB	0ffH
	DB	0e0H
	DB	0e0H
	DB	0e0H
	DB	0ffH
	DB	0e8H
	DB	0e0H
	DB	0e0H
	DB	0ffH
	DB	0e8H
	DB	0e0H
	DB	0e0H
	DB	0ffH
	DB	0e0H
	DB	0e0H
	DB	0e0H
	DB	0ffH
	DB	0e0H
	DB	0e0H
	DB	0e0H
	DB	0ffH
	DB	0e8H
	DB	0e4H
	DB	0e0H
	DB	0ffH
	DB	0e8H
	DB	0e4H
	DB	0e8H
	DB	0ffH
	DB	0e8H
	DB	0e4H
	DB	0e8H
	DB	0ffH
	DB	0e8H
	DB	0e4H
	DB	0e8H
	DB	0ffH
	DB	0e8H
	DB	0e4H
	DB	0e8H
	DB	0ffH
	DB	0e8H
	DB	0e4H
	DB	0e8H
	DB	0ffH
	DB	0e8H
	DB	0e4H
	DB	0e8H
	DB	0ffH
	DB	0e8H
	DB	0e4H
	DB	0e8H
	DB	0ffH
	DB	0e8H
	DB	0e4H
	DB	0e0H
	DB	0ffH
	DB	0e8H
	DB	0e4H
	DB	0e0H
	DB	0ffH
	DB	0e8H
	DB	0e4H
	DB	0e8H
	DB	0ffH
	DB	0e8H
	DB	0e4H
	DB	0e8H
	DB	0ffH
	DB	0e8H
	DB	0e4H
	DB	0e0H
	DB	0ffH
	DB	0e8H
	DB	0e4H
	DB	0e8H
	DB	0ffH
	DB	0e8H
	DB	0e4H
	DB	0e8H
	DB	0ffH
	DB	0e8H
	DB	0e8H
	DB	0e8H
	DB	0ffH
	DB	0e8H
	DB	0e4H
	DB	0e8H
	DB	0ffH
	DB	0e0H
	DB	0e4H
	DB	0e0H
	DB	0ffH
	DB	0e8H
	DB	0e4H
	DB	0e8H
	DB	0ffH
	DB	0e0H
	DB	0e0H
	DB	0e0H
	DB	0ffH
	DB	0e8H
	DB	0e4H
	DB	0e0H
	DB	0ffH
	DB	0e8H
	DB	0e4H
	DB	0e8H
	DB	0ffH
	DB	0e8H
	DB	0e8H
	DB	0e8H
	DB	0ffH
	DB	0e8H
	DB	0e8H
	DB	0e0H
	DB	0ffH
	DB	0e8H
	DB	0e4H
	DB	0e0H
	DB	0ffH
	DB	0e8H
	DB	0e4H
	DB	0e8H
	DB	0ffH
	DB	0e8H
	DB	0e4H
	DB	0e8H
	DB	0ffH
	DB	0e0H
	DB	0e4H
	DB	0e0H
	DB	0ffH
	DB	0e0H
	DB	0e0H
	DB	0e0H
	DB	0ffH
	DB	0e8H
	DB	0e0H
	DB	0e0H
	DB	0ffH
	DB	0e0H
	DB	0e0H
	DB	0e0H
	DB	0ffH
	DB	0e0H
	DB	0e0H
	DB	0e0H
	DB	0ffH
	DB	0e0H
	DB	0e0H
	DB	0e0H
	DB	0ffH
	DB	0e0H
	DB	0dcH
	DB	0d8H
	DB	0ffH
	DB	0e0H
	DB	0dcH
	DB	0e0H
	DB	0ffH
	DB	0e0H
	DB	0dcH
	DB	0d8H
	DB	0ffH
	DB	0e0H
	DB	0dcH
	DB	0d8H
	DB	0ffH
	DB	0e0H
	DB	0dcH
	DB	0d8H
	DB	0ffH
	DB	0e0H
	DB	0dcH
	DB	0e0H
	DB	0ffH
	DB	0e0H
	DB	0e0H
	DB	0e0H
	DB	0ffH
	DB	0e0H
	DB	0e0H
	DB	0e0H
	DB	0ffH
	DB	0e0H
	DB	0e0H
	DB	0e0H
	DB	0ffH
	DB	0e0H
	DB	0e0H
	DB	0e0H
	DB	0ffH
	DB	0e0H
	DB	0e0H
	DB	0e0H
	DB	0ffH
	DB	0e8H
	DB	0e4H
	DB	0e0H
	DB	0ffH
	DB	0e8H
	DB	0e4H
	DB	0e8H
	DB	0ffH
	DB	0e0H
	DB	0e0H
	DB	0e0H
	DB	0ffH
	DB	0e8H
	DB	0e4H
	DB	0e0H
	DB	0ffH
	DB	0e8H
	DB	0e4H
	DB	0e8H
	DB	0ffH
	DB	0e0H
	DB	0e4H
	DB	0e0H
	DB	0ffH
	DB	0e8H
	DB	0e4H
	DB	0e0H
	DB	0ffH
	DB	0e8H
	DB	0e4H
	DB	0e0H
	DB	0ffH
	DB	0e0H
	DB	0e4H
	DB	0e0H
	DB	0ffH
	DB	0e0H
	DB	0e0H
	DB	0e0H
	DB	0ffH
	DB	0d8H
	DB	0d8H
	DB	0d8H
	DB	0ffH
	DB	0e0H
	DB	0d8H
	DB	0d8H
	DB	0ffH
	DB	0e8H
	DB	0e0H
	DB	0e0H
	DB	0ffH
	DB	0e0H
	DB	0dcH
	DB	0d8H
	DB	0ffH
	DB	0d8H
	DB	0d0H
	DB	0d0H
	DB	0ffH
	DB	0d8H
	DB	0d4H
	DB	0d0H
	DB	0ffH
	DB	0d8H
	DB	0d4H
	DB	0d0H
	DB	0ffH
	DB	0d8H
	DB	0d8H
	DB	0d8H
	DB	0ffH
	DB	0e0H
	DB	0dcH
	DB	0d8H
	DB	0ffH
	DB	0e0H
	DB	0d8H
	DB	0d8H
	DB	0ffH
	DB	0e0H
	DB	0d8H
	DB	0d8H
	DB	0ffH
	DB	0d8H
	DB	0d8H
	DB	0d0H
	DB	0ffH
	DB	0d8H
	DB	0d4H
	DB	0d0H
	DB	0ffH
	DB	0d8H
	DB	0d4H
	DB	0d0H
	DB	0ffH
	DB	0d8H
	DB	0d8H
	DB	0d0H
	DB	0ffH
	DB	0e0H
	DB	0d8H
	DB	0d8H
	DB	0ffH
	DB	0e0H
	DB	0d8H
	DB	0d8H
	DB	0ffH
	DB	0e0H
	DB	0dcH
	DB	0d8H
	DB	0ffH
	DB	0e8H
	DB	0e0H
	DB	0e0H
	DB	0ffH
	DB	0e0H
	DB	0e0H
	DB	0e0H
	DB	0ffH
	DB	0e0H
	DB	0e0H
	DB	0e0H
	DB	0ffH
	DB	0e0H
	DB	0e0H
	DB	0e0H
	DB	0ffH
	DB	0e8H
	DB	0e4H
	DB	0e8H
	DB	0ffH
	DB	0e8H
	DB	0e8H
	DB	0e8H
	DB	0ffH
	DB	0e8H
	DB	0e4H
	DB	0e8H
	DB	0ffH
	DB	0e8H
	DB	0e8H
	DB	0e8H
	DB	0ffH
	DB	0e8H
	DB	0e8H
	DB	0e8H
	DB	0ffH
	DB	0e8H
	DB	0e4H
	DB	0e8H
	DB	0ffH
	DB	0e8H
	DB	0e4H
	DB	0e8H
	DB	0ffH
	DB	0e8H
	DB	0e4H
	DB	0e8H
	DB	0ffH
	DB	0e8H
	DB	0e4H
	DB	0e8H
	DB	0ffH
	DB	0e8H
	DB	0e8H
	DB	0e8H
	DB	0ffH
	DB	0e8H
	DB	0e8H
	DB	0e8H
	DB	0ffH
	DB	0e8H
	DB	0ecH
	DB	0f0H
	DB	0ffH
	DB	0e8H
	DB	0ecH
	DB	0f0H
	DB	0ffH
	DB	0f0H
	DB	0ecH
	DB	0f0H
	DB	0ffH
	DB	0e8H
	DB	0ecH
	DB	0f0H
	DB	0ffH
	DB	0e8H
	DB	0ecH
	DB	0e8H
	DB	0ffH
	DB	0e8H
	DB	0e8H
	DB	0e8H
	DB	0ffH
	DB	0e8H
	DB	0ecH
	DB	0f0H
	DB	0ffH
	DB	0e8H
	DB	0ecH
	DB	0f0H
	DB	0ffH
	DB	0e8H
	DB	0e8H
	DB	0e8H
	DB	0ffH
	DB	0f0H
	DB	0e8H
	DB	0e8H
	DB	0ffH
	DB	0e8H
	DB	0ecH
	DB	0e8H
	DB	0ffH
	DB	0e8H
	DB	0e8H
	DB	0e8H
	DB	0ffH
	DB	0e0H
	DB	0e0H
	DB	0e0H
	DB	0ffH
	DB	0d8H
	DB	0dcH
	DB	0d8H
	DB	0ffH
	DB	0d8H
	DB	0dcH
	DB	0d8H
	DB	0ffH
	DB	0e0H
	DB	0e4H
	DB	0e0H
	DB	0ffH
	DB	0e8H
	DB	0e4H
	DB	0e8H
	DB	0ffH
	DB	0e8H
	DB	0e8H
	DB	0e8H
	DB	0ffH
	DB	0e8H
	DB	0e8H
	DB	0e8H
	DB	0ffH
	DB	0e0H
	DB	0e4H
	DB	0e0H
	DB	0ffH
	DB	0e0H
	DB	0e0H
	DB	0e0H
	DB	0ffH
	DB	0e0H
	DB	0e0H
	DB	0e0H
	DB	0ffH
	DB	0e0H
	DB	0e0H
	DB	0e0H
	DB	0ffH
	DB	0e0H
	DB	0e0H
	DB	0e0H
	DB	0ffH
	DB	0e0H
	DB	0dcH
	DB	0e0H
	DB	0ffH
	DB	0e0H
	DB	0dcH
	DB	0d8H
	DB	0ffH
	DB	0e0H
	DB	0dcH
	DB	0d8H
	DB	0ffH
	DB	0e0H
	DB	0d8H
	DB	0e0H
	DB	0ffH
	DB	0e0H
	DB	0d8H
	DB	0d8H
	DB	0ffH
	DB	0d8H
	DB	0d4H
	DB	0d0H
	DB	0ffH
	DB	0d0H
	DB	0d0H
	DB	0c8H
	DB	0ffH
	DB	0d0H
	DB	0d0H
	DB	0c8H
	DB	0ffH
	DB	0d8H
	DB	0d0H
	DB	0c8H
	DB	0ffH
	DB	0d8H
	DB	0d0H
	DB	0c8H
	DB	0ffH
	DB	0d8H
	DB	0d0H
	DB	0c8H
	DB	0ffH
	DB	0d8H
	DB	0d0H
	DB	0c0H
	DB	0ffH
	DB	0d8H
	DB	0ccH
	DB	0c0H
	DB	0ffH
	DB	0d0H
	DB	0ccH
	DB	0c0H
	DB	0ffH
	DB	0d8H
	DB	0ccH
	DB	0c0H
	DB	0ffH
	DB	0d8H
	DB	0ccH
	DB	0c8H
	DB	0ffH
	DB	0d8H
	DB	0d0H
	DB	0c8H
	DB	0ffH
	DB	0d8H
	DB	0d0H
	DB	0c8H
	DB	0ffH
	DB	0d8H
	DB	0d4H
	DB	0c8H
	DB	0ffH
	DB	0d8H
	DB	0d4H
	DB	0c8H
	DB	0ffH
	DB	0d8H
	DB	0d0H
	DB	0c8H
	DB	0ffH
	DB	0d8H
	DB	0d4H
	DB	0c8H
	DB	0ffH
	DB	0d8H
	DB	0d0H
	DB	0c8H
	DB	0ffH
	DB	0d8H
	DB	0d0H
	DB	0c8H
	DB	0ffH
	DB	0d8H
	DB	0d0H
	DB	0c0H
	DB	0ffH
	DB	0d0H
	DB	0ccH
	DB	0c0H
	DB	0ffH
	DB	0d0H
	DB	0ccH
	DB	0c0H
	DB	0ffH
	DB	0d0H
	DB	0ccH
	DB	0c0H
	DB	0ffH
	DB	0d8H
	DB	0d0H
	DB	0c8H
	DB	0ffH
	DB	0d8H
	DB	0d4H
	DB	0d0H
	DB	0ffH
	DB	0e0H
	DB	0d8H
	DB	0e0H
	DB	0ffH
	DB	0e0H
	DB	0dcH
	DB	0e8H
	DB	0ffH
	DB	0e8H
	DB	0e4H
	DB	0e8H
	DB	0ffH
	DB	0e8H
	DB	0e8H
	DB	0e8H
	DB	0ffH
	DB	0f0H
	DB	0ecH
	DB	0f0H
	DB	0ffH
	DB	0f0H
	DB	0f0H
	DB	0f0H
	DB	0ffH
	DB	0e8H
	DB	0ecH
	DB	0f0H
	DB	0ffH
	DB	0e8H
	DB	0ecH
	DB	0e8H
	DB	0ffH
	DB	0e8H
	DB	0ecH
	DB	0e8H
	DB	0ffH
	DB	0e8H
	DB	0ecH
	DB	0e8H
	DB	0ffH
	DB	0e8H
	DB	0e8H
	DB	0e8H
	DB	0ffH
	DB	0e0H
	DB	0e4H
	DB	0e8H
	DB	0ffH
	DB	0e0H
	DB	0e8H
	DB	0e8H
	DB	0ffH
	DB	0e0H
	DB	0e4H
	DB	0e8H
	DB	0ffH
	DB	0e0H
	DB	0e4H
	DB	0e8H
	DB	0ffH
	DB	0e0H
	DB	0e0H
	DB	0e0H
	DB	0ffH
	DB	0e0H
	DB	0e0H
	DB	0e0H
	DB	0ffH
	DB	0e0H
	DB	0e4H
	DB	0e8H
	DB	0ffH
	DB	0e8H
	DB	0e8H
	DB	0e8H
	DB	0ffH
	DB	0e8H
	DB	0ecH
	DB	0e8H
	DB	0ffH
	DB	0e8H
	DB	0ecH
	DB	0f0H
	DB	0ffH
	DB	0e8H
	DB	0ecH
	DB	0e8H
	DB	0ffH
	DB	0e8H
	DB	0e8H
	DB	0e8H
	DB	0ffH
	DB	0e8H
	DB	0e8H
	DB	0e8H
	DB	0ffH
	DB	0e0H
	DB	0e8H
	DB	0e8H
	DB	0ffH
	DB	0e0H
	DB	0e4H
	DB	0e8H
	DB	0ffH
	DB	0e0H
	DB	0e0H
	DB	0e0H
	DB	0ffH
	DB	0e0H
	DB	0e0H
	DB	0e0H
	DB	0ffH
	DB	0e8H
	DB	0e0H
	DB	0e0H
	DB	0ffH
	DB	0e0H
	DB	0e0H
	DB	0e0H
	DB	0ffH
	DB	0e8H
	DB	0e0H
	DB	0e0H
	DB	0ffH
	DB	0e8H
	DB	0e0H
	DB	0e0H
	DB	0ffH
	DB	0e0H
	DB	0dcH
	DB	0d8H
	DB	0ffH
	DB	0d8H
	DB	0d4H
	DB	0d0H
	DB	0ffH
	DB	0d8H
	DB	0d0H
	DB	0c8H
	DB	0ffH
	DB	0d8H
	DB	0ccH
	DB	0c0H
	DB	0ffH
	DB	0d8H
	DB	0ccH
	DB	0c0H
	DB	0ffH
	DB	0d0H
	DB	0ccH
	DB	0c0H
	DB	0ffH
	DB	0d0H
	DB	0c8H
	DB	0b8H
	DB	0ffH
	DB	0d8H
	DB	0c8H
	DB	0b8H
	DB	0ffH
	DB	0d8H
	DB	0c8H
	DB	0b8H
	DB	0ffH
	DB	0d8H
	DB	0c8H
	DB	0b8H
	DB	0ffH
	DB	0d0H
	DB	0c4H
	DB	0b8H
	DB	0ffH
	DB	0d8H
	DB	0c8H
	DB	0b8H
	DB	0ffH
	DB	0d8H
	DB	0c8H
	DB	0b8H
	DB	0ffH
	DB	0d8H
	DB	0c8H
	DB	0b8H
	DB	0ffH
	DB	0d8H
	DB	0c8H
	DB	0b8H
	DB	0ffH
	DB	0d8H
	DB	0c8H
	DB	0b8H
	DB	0ffH
	DB	0d8H
	DB	0c8H
	DB	0b8H
	DB	0ffH
	DB	0d8H
	DB	0c8H
	DB	0b8H
	DB	0ffH
	DB	0d8H
	DB	0ccH
	DB	0b8H
	DB	0ffH
	DB	0d0H
	DB	0ccH
	DB	0b8H
	DB	0ffH
	DB	0d8H
	DB	0ccH
	DB	0b8H
	DB	0ffH
	DB	0d8H
	DB	0ccH
	DB	0b8H
	DB	0ffH
	DB	0d0H
	DB	0c8H
	DB	0b8H
	DB	0ffH
	DB	0d8H
	DB	0c8H
	DB	0b8H
	DB	0ffH
	DB	0d0H
	DB	0c8H
	DB	0b0H
	DB	0ffH
	DB	0d0H
	DB	0c8H
	DB	0b0H
	DB	0ffH
	DB	0d0H
	DB	0c8H
	DB	0b8H
	DB	0ffH
	DB	0d0H
	DB	0c8H
	DB	0b0H
	DB	0ffH
	DB	0d8H
	DB	0c8H
	DB	0b8H
	DB	0ffH
	DB	0d8H
	DB	0c8H
	DB	0b8H
	DB	0ffH
	DB	0d0H
	DB	0c8H
	DB	0b8H
	DB	0ffH
	DB	0d8H
	DB	0c8H
	DB	0b8H
	DB	0ffH
	DB	0d0H
	DB	0c8H
	DB	0b0H
	DB	0ffH
	DB	0d0H
	DB	0c4H
	DB	0b8H
	DB	0ffH
	DB	0d0H
	DB	0c8H
	DB	0b8H
	DB	0ffH
	DB	0d8H
	DB	0c8H
	DB	0b8H
	DB	0ffH
	DB	0d8H
	DB	0ccH
	DB	0c0H
	DB	0ffH
	DB	0d8H
	DB	0d0H
	DB	0c0H
	DB	0ffH
	DB	0d8H
	DB	0d0H
	DB	0c0H
	DB	0ffH
	DB	0d8H
	DB	0ccH
	DB	0b8H
	DB	0ffH
	DB	0d0H
	DB	0c8H
	DB	0b8H
	DB	0ffH
	DB	0d8H
	DB	0ccH
	DB	0b8H
	DB	0ffH
	DB	0d0H
	DB	0ccH
	DB	0c0H
	DB	0ffH
	DB	0d8H
	DB	0d0H
	DB	0c8H
	DB	0ffH
	DB	0d8H
	DB	0d4H
	DB	0c8H
	DB	0ffH
	DB	0d8H
	DB	0d4H
	DB	0c8H
	DB	0ffH
	DB	0d0H
	DB	0d0H
	DB	0c8H
	DB	0ffH
	DB	0d8H
	DB	0ccH
	DB	0c8H
	DB	0ffH
	DB	0d8H
	DB	0d4H
	DB	0d0H
	DB	0ffH
	DB	0e0H
	DB	0d4H
	DB	0d0H
	DB	0ffH
	DB	0d8H
	DB	0d0H
	DB	0d0H
	DB	0ffH
	DB	0d8H
	DB	0d0H
	DB	0c8H
	DB	0ffH
	DB	0d8H
	DB	0d0H
	DB	0d0H
	DB	0ffH
	DB	0d8H
	DB	0d0H
	DB	0d0H
	DB	0ffH
	DB	0d8H
	DB	0d0H
	DB	0c8H
	DB	0ffH
	DB	0d8H
	DB	0d0H
	DB	0d0H
	DB	0ffH
	DB	0d8H
	DB	0d4H
	DB	0d0H
	DB	0ffH
	DB	0d0H
	DB	0d0H
	DB	0d0H
	DB	0ffH
	DB	0d0H
	DB	0d0H
	DB	0c8H
	DB	0ffH
	DB	0d8H
	DB	0d0H
	DB	0c8H
	DB	0ffH
	DB	0d8H
	DB	0d0H
	DB	0c8H
	DB	0ffH
	DB	0d8H
	DB	0d0H
	DB	0c0H
	DB	0ffH
	DB	0d8H
	DB	0ccH
	DB	0c0H
	DB	0ffH
	DB	0d0H
	DB	0ccH
	DB	0c0H
	DB	0ffH
	DB	0d0H
	DB	0ccH
	DB	0c0H
	DB	0ffH
	DB	0d8H
	DB	0ccH
	DB	0c0H
	DB	0ffH
	DB	0d8H
	DB	0d0H
	DB	0c0H
	DB	0ffH
	DB	0d8H
	DB	0ccH
	DB	0b8H
	DB	0ffH
	DB	0d0H
	DB	0c8H
	DB	0b8H
	DB	0ffH
	DB	0d0H
	DB	0c8H
	DB	0b8H
	DB	0ffH
	DB	0d0H
	DB	0c4H
	DB	0b8H
	DB	0ffH
	DB	0d0H
	DB	0c8H
	DB	0b8H
	DB	0ffH
	DB	0d8H
	DB	0c4H
	DB	0b0H
	DB	0ffH
	DB	0d0H
	DB	0c4H
	DB	0b0H
	DB	0ffH
	DB	0d0H
	DB	0c4H
	DB	0b0H
	DB	0ffH
	DB	0d0H
	DB	0c8H
	DB	0b8H
	DB	0ffH
	DB	0d0H
	DB	0c8H
	DB	0b0H
	DB	0ffH
	DB	0d0H
	DB	0c8H
	DB	0b0H
	DB	0ffH
	DB	0d0H
	DB	0c8H
	DB	0b8H
	DB	0ffH
	DB	0d8H
	DB	0c8H
	DB	0b0H
	DB	0ffH
	DB	0d8H
	DB	0c8H
	DB	0b0H
	DB	0ffH
	DB	0d0H
	DB	0c8H
	DB	0b0H
	DB	0ffH
	DB	0d0H
	DB	0c4H
	DB	0b0H
	DB	0ffH
	DB	0d0H
	DB	0c4H
	DB	0b0H
	DB	0ffH
	DB	0d0H
	DB	0c4H
	DB	0b0H
	DB	0ffH
	DB	0d0H
	DB	0c4H
	DB	0b0H
	DB	0ffH
	DB	0d0H
	DB	0c4H
	DB	0b0H
	DB	0ffH
	DB	0d0H
	DB	0c4H
	DB	0b8H
	DB	0ffH
	DB	0d0H
	DB	0c4H
	DB	0b0H
	DB	0ffH
	DB	0d0H
	DB	0c4H
	DB	0b0H
	DB	0ffH
	DB	0d0H
	DB	0c4H
	DB	0b0H
	DB	0ffH
	DB	0d0H
	DB	0c4H
	DB	0b0H
	DB	0ffH
	DB	0d0H
	DB	0c4H
	DB	0b0H
	DB	0ffH
	DB	0d0H
	DB	0c4H
	DB	0b0H
	DB	0ffH
	DB	0d0H
	DB	0c4H
	DB	0b0H
	DB	0ffH
	DB	0d0H
	DB	0c4H
	DB	0b0H
	DB	0ffH
	DB	0d0H
	DB	0c4H
	DB	0b8H
	DB	0ffH
	DB	0d0H
	DB	0c8H
	DB	0b8H
	DB	0ffH
	DB	0d0H
	DB	0c8H
	DB	0b0H
	DB	0ffH
	DB	0d0H
	DB	0c8H
	DB	0b8H
	DB	0ffH
	DB	0d0H
	DB	0c8H
	DB	0c0H
	DB	0ffH
	DB	0d8H
	DB	0ccH
	DB	0c8H
	DB	0ffH
	DB	0d8H
	DB	0d4H
	DB	0d0H
	DB	0ffH
	DB	0e0H
	DB	0dcH
	DB	0e0H
	DB	0ffH
	DB	0e0H
	DB	0dcH
	DB	0d8H
	DB	0ffH
	DB	0e0H
	DB	0e0H
	DB	0e0H
	DB	0ffH
	DB	0e0H
	DB	0e4H
	DB	0e8H
	DB	0ffH
	DB	0e8H
	DB	0e8H
	DB	0e8H
	DB	0ffH
	DB	0e8H
	DB	0ecH
	DB	0f0H
	DB	0ffH
	DB	0e8H
	DB	0f0H
	DB	0f0H
	DB	0ffH
	DB	0e8H
	DB	0ecH
	DB	0e8H
	DB	0ffH
	DB	0e8H
	DB	0ecH
	DB	0e8H
	DB	0ffH
	DB	0e8H
	DB	0e8H
	DB	0e8H
	DB	0ffH
	DB	0e8H
	DB	0e8H
	DB	0e8H
	DB	0ffH
	DB	0e8H
	DB	0f0H
	DB	0f0H
	DB	0ffH
	DB	0e8H
	DB	0f0H
	DB	0f0H
	DB	0ffH
	DB	0e8H
	DB	0f0H
	DB	0f0H
	DB	0ffH
	DB	0f0H
	DB	0f0H
	DB	0f0H
	DB	0ffH
	DB	0f0H
	DB	0f0H
	DB	0f0H
	DB	0ffH
	DB	0e8H
	DB	0f0H
	DB	0f0H
	DB	0ffH
	DB	0e8H
	DB	0ecH
	DB	0f0H
	DB	0ffH
	DB	0f0H
	DB	0ecH
	DB	0f0H
	DB	0ffH
	DB	0e8H
	DB	0ecH
	DB	0f0H
	DB	0ffH
	DB	0e8H
	DB	0ecH
	DB	0e8H
	DB	0ffH
	DB	0e8H
	DB	0e8H
	DB	0e8H
	DB	0ffH
	DB	0e0H
	DB	0e8H
	DB	0e8H
	DB	0ffH
	DB	0e8H
	DB	0e8H
	DB	0e8H
	DB	0ffH
	DB	0e0H
	DB	0e8H
	DB	0e8H
	DB	0ffH
	DB	0e0H
	DB	0e4H
	DB	0e8H
	DB	0ffH
	DB	0e0H
	DB	0e8H
	DB	0e8H
	DB	0ffH
	DB	0e0H
	DB	0e4H
	DB	0e8H
	DB	0ffH
	DB	0f8H
	DB	0fcH
	DB	0f8H
	DB	0ffH
	DB	0f8H
	DB	0fcH
	DB	0f8H
	DB	0ffH
	DB	0f8H
	DB	0fcH
	DB	0f8H
	DB	0ffH
	DB	0f8H
	DB	0fcH
	DB	0f8H
	DB	0ffH
	DB	0f8H
	DB	0fcH
	DB	0f8H
	DB	0ffH
	DB	0f8H
	DB	0fcH
	DB	0f8H
	DB	0ffH
	DB	0f8H
	DB	0fcH
	DB	0f8H
	DB	0ffH
	DB	0f8H
	DB	0fcH
	DB	0f8H
	DB	0ffH
	DB	0f8H
	DB	0fcH
	DB	0f8H
	DB	0ffH
	DB	0f8H
	DB	0fcH
	DB	0f8H
	DB	0ffH
	DB	0f8H
	DB	0fcH
	DB	0f8H
	DB	0ffH
	DB	0f8H
	DB	0fcH
	DB	0f8H
	DB	0ffH
	DB	0f8H
	DB	0fcH
	DB	0f8H
	DB	0ffH
	DB	0f8H
	DB	0fcH
	DB	0f8H
	DB	0ffH
	DB	0f8H
	DB	0fcH
	DB	0f8H
	DB	0ffH
	DB	0f8H
	DB	0fcH
	DB	0f8H
	DB	0ffH
	DB	0f8H
	DB	0fcH
	DB	0f8H
	DB	0ffH
	DB	0f8H
	DB	0fcH
	DB	0f8H
	DB	0ffH
	DB	0f8H
	DB	0fcH
	DB	0f8H
	DB	0ffH
	DB	0f8H
	DB	0fcH
	DB	0f8H
	DB	0ffH
	DB	0f8H
	DB	0fcH
	DB	0f8H
	DB	0ffH
	DB	0f8H
	DB	0fcH
	DB	0f8H
	DB	0ffH
	DB	0f8H
	DB	0fcH
	DB	0f8H
	DB	0ffH
	DB	0f8H
	DB	0fcH
	DB	0f8H
	DB	0ffH
	DB	0f8H
	DB	0fcH
	DB	0f8H
	DB	0ffH
	DB	0f8H
	DB	0fcH
	DB	0f8H
	DB	0ffH
	DB	0f8H
	DB	0fcH
	DB	0f8H
	DB	0ffH
	DB	0f8H
	DB	0fcH
	DB	0f8H
	DB	0ffH
	DB	0f8H
	DB	0fcH
	DB	0f8H
	DB	0ffH
	DB	0f8H
	DB	0fcH
	DB	0f8H
	DB	0ffH
	DB	0f8H
	DB	0fcH
	DB	0f8H
	DB	0ffH
	DB	0f8H
	DB	0fcH
	DB	0f8H
	DB	0ffH
	DB	0f8H
	DB	0fcH
	DB	0f8H
	DB	0ffH
	DB	0f8H
	DB	0fcH
	DB	0f8H
	DB	0ffH
	DB	0f8H
	DB	0fcH
	DB	0f8H
	DB	0ffH
	DB	0f8H
	DB	0fcH
	DB	0f8H
	DB	0ffH
	DB	0f8H
	DB	0fcH
	DB	0f8H
	DB	0ffH
	DB	0f8H
	DB	0fcH
	DB	0f8H
	DB	0ffH
	DB	0f8H
	DB	0fcH
	DB	0f8H
	DB	0ffH
	DB	0f8H
	DB	0fcH
	DB	0f8H
	DB	0ffH
	DB	0f8H
	DB	0fcH
	DB	0f8H
	DB	0ffH
	DB	0f8H
	DB	0fcH
	DB	0f8H
	DB	0ffH
	DB	0f8H
	DB	0fcH
	DB	0f8H
	DB	0ffH
	DB	0f8H
	DB	0fcH
	DB	0f8H
	DB	0ffH
	DB	0f8H
	DB	0fcH
	DB	0f8H
	DB	0ffH
	DB	0f8H
	DB	0fcH
	DB	0f8H
	DB	0ffH
	DB	0f8H
	DB	0fcH
	DB	0f8H
	DB	0ffH
	DB	0f8H
	DB	0fcH
	DB	0f8H
	DB	0ffH
	DB	0f8H
	DB	0fcH
	DB	0f8H
	DB	0ffH
	DB	0f8H
	DB	0fcH
	DB	0f8H
	DB	0ffH
	DB	0f8H
	DB	0fcH
	DB	0f8H
	DB	0ffH
	DB	0f8H
	DB	0fcH
	DB	0f8H
	DB	0ffH
	DB	0f8H
	DB	0fcH
	DB	0f8H
	DB	0ffH
	DB	0f8H
	DB	0fcH
	DB	0f8H
	DB	0ffH
	DB	0f8H
	DB	0fcH
	DB	0f8H
	DB	0ffH
	DB	0f8H
	DB	0f8H
	DB	0f8H
	DB	0ffH
	DB	0f8H
	DB	0fcH
	DB	0f8H
	DB	0ffH
	DB	0f8H
	DB	0fcH
	DB	0f8H
	DB	0ffH
	DB	0f8H
	DB	0fcH
	DB	0f8H
	DB	0ffH
	DB	0f8H
	DB	0f8H
	DB	0f8H
	DB	0ffH
	DB	0f8H
	DB	0fcH
	DB	0f8H
	DB	0ffH
	DB	0f8H
	DB	0fcH
	DB	0f8H
	DB	0ffH
	DB	0f8H
	DB	0fcH
	DB	0f8H
	DB	0ffH
	DB	0f8H
	DB	0f8H
	DB	0f8H
	DB	0ffH
	DB	0f8H
	DB	0f8H
	DB	0f8H
	DB	0ffH
	DB	0f8H
	DB	0f8H
	DB	0f8H
	DB	0ffH
	DB	0f8H
	DB	0fcH
	DB	0f8H
	DB	0ffH
	DB	0f8H
	DB	0fcH
	DB	0f8H
	DB	0ffH
	DB	0f8H
	DB	0fcH
	DB	0f8H
	DB	0ffH
	DB	0f8H
	DB	0f8H
	DB	0f8H
	DB	0ffH
	DB	0f8H
	DB	0f8H
	DB	0f8H
	DB	0ffH
	DB	0f8H
	DB	0f8H
	DB	0f8H
	DB	0ffH
	DB	0f8H
	DB	0f8H
	DB	0f8H
	DB	0ffH
	DB	0f0H
	DB	0f8H
	DB	0f8H
	DB	0ffH
	DB	0f8H
	DB	0f8H
	DB	0f8H
	DB	0ffH
	DB	0f8H
	DB	0f8H
	DB	0f8H
	DB	0ffH
	DB	0f0H
	DB	0f8H
	DB	0f8H
	DB	0ffH
	DB	0f8H
	DB	0f8H
	DB	0f8H
	DB	0ffH
	DB	0f8H
	DB	0f4H
	DB	0f8H
	DB	0ffH
	DB	0f0H
	DB	0f4H
	DB	0f8H
	DB	0ffH
	DB	0f0H
	DB	0f4H
	DB	0f8H
	DB	0ffH
	DB	0f8H
	DB	0f4H
	DB	0f8H
	DB	0ffH
	DB	0f8H
	DB	0f4H
	DB	0f8H
	DB	0ffH
	DB	0f8H
	DB	0f8H
	DB	0f8H
	DB	0ffH
	DB	0f0H
	DB	0f8H
	DB	0f8H
	DB	0ffH
	DB	0f8H
	DB	0f8H
	DB	0f8H
	DB	0ffH
	DB	0f8H
	DB	0fcH
	DB	0f8H
	DB	0ffH
	DB	0f8H
	DB	0f8H
	DB	0f8H
	DB	0ffH
	DB	0f8H
	DB	0f8H
	DB	0f8H
	DB	0ffH
	DB	0f0H
	DB	0f8H
	DB	0f8H
	DB	0ffH
	DB	0f8H
	DB	0f8H
	DB	0f8H
	DB	0ffH
	DB	0f8H
	DB	0f8H
	DB	0f8H
	DB	0ffH
	DB	0f8H
	DB	0f8H
	DB	0f8H
	DB	0ffH
	DB	0f8H
	DB	0f8H
	DB	0f8H
	DB	0ffH
	DB	0f0H
	DB	0f8H
	DB	0f8H
	DB	0ffH
	DB	0f8H
	DB	0f4H
	DB	0f8H
	DB	0ffH
	DB	0f8H
	DB	0f4H
	DB	0f8H
	DB	0ffH
	DB	0f8H
	DB	0f4H
	DB	0f8H
	DB	0ffH
	DB	0f8H
	DB	0f4H
	DB	0f0H
	DB	0ffH
	DB	0f0H
	DB	0f4H
	DB	0f0H
	DB	0ffH
	DB	0f0H
	DB	0f0H
	DB	0f0H
	DB	0ffH
	DB	0f0H
	DB	0f0H
	DB	0f0H
	DB	0ffH
	DB	0f0H
	DB	0f0H
	DB	0f0H
	DB	0ffH
	DB	0f0H
	DB	0f0H
	DB	0f0H
	DB	0ffH
	DB	0f0H
	DB	0f0H
	DB	0f0H
	DB	0ffH
	DB	0f0H
	DB	0ecH
	DB	0f0H
	DB	0ffH
	DB	0f0H
	DB	0ecH
	DB	0f0H
	DB	0ffH
	DB	0f0H
	DB	0ecH
	DB	0f0H
	DB	0ffH
	DB	0f0H
	DB	0ecH
	DB	0f0H
	DB	0ffH
	DB	0e8H
	DB	0ecH
	DB	0e8H
	DB	0ffH
	DB	0f0H
	DB	0ecH
	DB	0f0H
	DB	0ffH
	DB	0f0H
	DB	0ecH
	DB	0f0H
	DB	0ffH
	DB	0e8H
	DB	0e8H
	DB	0e8H
	DB	0ffH
	DB	0e8H
	DB	0e8H
	DB	0e8H
	DB	0ffH
	DB	0e8H
	DB	0ecH
	DB	0e8H
	DB	0ffH
	DB	0e8H
	DB	0e8H
	DB	0e8H
	DB	0ffH
	DB	0e8H
	DB	0e8H
	DB	0e8H
	DB	0ffH
	DB	0e8H
	DB	0e8H
	DB	0e8H
	DB	0ffH
	DB	0e8H
	DB	0e8H
	DB	0e8H
	DB	0ffH
	DB	0e8H
	DB	0e8H
	DB	0e8H
	DB	0ffH
	DB	0e8H
	DB	0ecH
	DB	0e8H
	DB	0ffH
	DB	0e8H
	DB	0e8H
	DB	0e8H
	DB	0ffH
	DB	0e8H
	DB	0e8H
	DB	0e8H
	DB	0ffH
	DB	0e8H
	DB	0ecH
	DB	0e8H
	DB	0ffH
	DB	0f0H
	DB	0ecH
	DB	0f0H
	DB	0ffH
	DB	0f0H
	DB	0ecH
	DB	0f0H
	DB	0ffH
	DB	0f0H
	DB	0ecH
	DB	0f0H
	DB	0ffH
	DB	0f0H
	DB	0ecH
	DB	0f0H
	DB	0ffH
	DB	0f0H
	DB	0ecH
	DB	0f0H
	DB	0ffH
	DB	0f0H
	DB	0ecH
	DB	0f0H
	DB	0ffH
	DB	0f0H
	DB	0ecH
	DB	0f0H
	DB	0ffH
	DB	0f0H
	DB	0ecH
	DB	0f0H
	DB	0ffH
	DB	0e8H
	DB	0ecH
	DB	0e8H
	DB	0ffH
	DB	0e8H
	DB	0ecH
	DB	0e8H
	DB	0ffH
	DB	0f0H
	DB	0ecH
	DB	0f0H
	DB	0ffH
	DB	0e8H
	DB	0ecH
	DB	0e8H
	DB	0ffH
	DB	0f0H
	DB	0ecH
	DB	0f0H
	DB	0ffH
	DB	0e8H
	DB	0ecH
	DB	0e8H
	DB	0ffH
	DB	0f0H
	DB	0ecH
	DB	0f0H
	DB	0ffH
	DB	0f0H
	DB	0ecH
	DB	0f0H
	DB	0ffH
	DB	0e8H
	DB	0ecH
	DB	0e8H
	DB	0ffH
	DB	0f0H
	DB	0ecH
	DB	0f0H
	DB	0ffH
	DB	0f0H
	DB	0ecH
	DB	0f0H
	DB	0ffH
	DB	0e8H
	DB	0ecH
	DB	0e8H
	DB	0ffH
	DB	0e8H
	DB	0ecH
	DB	0e8H
	DB	0ffH
	DB	0f0H
	DB	0ecH
	DB	0f0H
	DB	0ffH
	DB	0f0H
	DB	0ecH
	DB	0f0H
	DB	0ffH
	DB	0e8H
	DB	0ecH
	DB	0e8H
	DB	0ffH
	DB	0f0H
	DB	0ecH
	DB	0f0H
	DB	0ffH
	DB	0e8H
	DB	0ecH
	DB	0e8H
	DB	0ffH
	DB	0e8H
	DB	0e8H
	DB	0e8H
	DB	0ffH
	DB	0e8H
	DB	0e8H
	DB	0e8H
	DB	0ffH
	DB	0e8H
	DB	0e8H
	DB	0e8H
	DB	0ffH
	DB	0e8H
	DB	0e8H
	DB	0e8H
	DB	0ffH
	DB	0e8H
	DB	0e8H
	DB	0e8H
	DB	0ffH
	DB	0e0H
	DB	0e8H
	DB	0e0H
	DB	0ffH
	DB	0e8H
	DB	0e4H
	DB	0e8H
	DB	0ffH
	DB	0e8H
	DB	0e8H
	DB	0e8H
	DB	0ffH
	DB	0e8H
	DB	0e8H
	DB	0e8H
	DB	0ffH
	DB	0e8H
	DB	0e8H
	DB	0e0H
	DB	0ffH
	DB	0e0H
	DB	0e4H
	DB	0e8H
	DB	0ffH
	DB	0e8H
	DB	0e4H
	DB	0e0H
	DB	0ffH
	DB	0e0H
	DB	0e4H
	DB	0e8H
	DB	0ffH
	DB	0e8H
	DB	0e4H
	DB	0e8H
	DB	0ffH
	DB	0e8H
	DB	0e4H
	DB	0e8H
	DB	0ffH
	DB	0e8H
	DB	0e4H
	DB	0e8H
	DB	0ffH
	DB	0e8H
	DB	0e0H
	DB	0e0H
	DB	0ffH
	DB	0e8H
	DB	0e4H
	DB	0e8H
	DB	0ffH
	DB	0e0H
	DB	0e4H
	DB	0e8H
	DB	0ffH
	DB	0e8H
	DB	0e4H
	DB	0e8H
	DB	0ffH
	DB	0e8H
	DB	0e4H
	DB	0e8H
	DB	0ffH
	DB	0e0H
	DB	0e4H
	DB	0e0H
	DB	0ffH
	DB	0e8H
	DB	0e4H
	DB	0e0H
	DB	0ffH
	DB	0e8H
	DB	0e4H
	DB	0e8H
	DB	0ffH
	DB	0e0H
	DB	0e4H
	DB	0e0H
	DB	0ffH
	DB	0e8H
	DB	0e4H
	DB	0e0H
	DB	0ffH
	DB	0e8H
	DB	0e4H
	DB	0e8H
	DB	0ffH
	DB	0e8H
	DB	0e4H
	DB	0e8H
	DB	0ffH
	DB	0e8H
	DB	0e8H
	DB	0e8H
	DB	0ffH
	DB	0e8H
	DB	0e8H
	DB	0e8H
	DB	0ffH
	DB	0e8H
	DB	0e8H
	DB	0e8H
	DB	0ffH
	DB	0e8H
	DB	0e8H
	DB	0e8H
	DB	0ffH
	DB	0e8H
	DB	0e4H
	DB	0e8H
	DB	0ffH
	DB	0e8H
	DB	0e4H
	DB	0e8H
	DB	0ffH
	DB	0e8H
	DB	0e4H
	DB	0e8H
	DB	0ffH
	DB	0e8H
	DB	0e4H
	DB	0e8H
	DB	0ffH
	DB	0e8H
	DB	0e4H
	DB	0e8H
	DB	0ffH
	DB	0e8H
	DB	0e4H
	DB	0e8H
	DB	0ffH
	DB	0e8H
	DB	0e8H
	DB	0e8H
	DB	0ffH
	DB	0e8H
	DB	0e8H
	DB	0e8H
	DB	0ffH
	DB	0e8H
	DB	0e4H
	DB	0e8H
	DB	0ffH
	DB	0e8H
	DB	0e4H
	DB	0e0H
	DB	0ffH
	DB	0e8H
	DB	0e4H
	DB	0e8H
	DB	0ffH
	DB	0e8H
	DB	0e4H
	DB	0e0H
	DB	0ffH
	DB	0e0H
	DB	0e4H
	DB	0e8H
	DB	0ffH
	DB	0e0H
	DB	0e0H
	DB	0e0H
	DB	0ffH
	DB	0e0H
	DB	0e0H
	DB	0e0H
	DB	0ffH
	DB	0e8H
	DB	0e4H
	DB	0e0H
	DB	0ffH
	DB	0e8H
	DB	0e4H
	DB	0e0H
	DB	0ffH
	DB	0e8H
	DB	0e4H
	DB	0e8H
	DB	0ffH
	DB	0e8H
	DB	0e4H
	DB	0e0H
	DB	0ffH
	DB	0e0H
	DB	0e4H
	DB	0e0H
	DB	0ffH
	DB	0e8H
	DB	0e0H
	DB	0e0H
	DB	0ffH
	DB	0e8H
	DB	0e0H
	DB	0e0H
	DB	0ffH
	DB	0e8H
	DB	0e0H
	DB	0e0H
	DB	0ffH
	DB	0e0H
	DB	0e0H
	DB	0e0H
	DB	0ffH
	DB	0e0H
	DB	0e0H
	DB	0e0H
	DB	0ffH
	DB	0e0H
	DB	0dcH
	DB	0d8H
	DB	0ffH
	DB	0e0H
	DB	0dcH
	DB	0d8H
	DB	0ffH
	DB	0e0H
	DB	0dcH
	DB	0d8H
	DB	0ffH
	DB	0e0H
	DB	0dcH
	DB	0d8H
	DB	0ffH
	DB	0e0H
	DB	0d8H
	DB	0d8H
	DB	0ffH
	DB	0d8H
	DB	0d8H
	DB	0d8H
	DB	0ffH
	DB	0e0H
	DB	0dcH
	DB	0d8H
	DB	0ffH
	DB	0e0H
	DB	0dcH
	DB	0d8H
	DB	0ffH
	DB	0e0H
	DB	0dcH
	DB	0e0H
	DB	0ffH
	DB	0e0H
	DB	0dcH
	DB	0d8H
	DB	0ffH
	DB	0e0H
	DB	0dcH
	DB	0e0H
	DB	0ffH
	DB	0e0H
	DB	0e0H
	DB	0e0H
	DB	0ffH
	DB	0e0H
	DB	0e0H
	DB	0e0H
	DB	0ffH
	DB	0e0H
	DB	0e0H
	DB	0e0H
	DB	0ffH
	DB	0e8H
	DB	0e4H
	DB	0e0H
	DB	0ffH
	DB	0e0H
	DB	0e0H
	DB	0e0H
	DB	0ffH
	DB	0e8H
	DB	0e0H
	DB	0e0H
	DB	0ffH
	DB	0e8H
	DB	0e4H
	DB	0e8H
	DB	0ffH
	DB	0e8H
	DB	0e4H
	DB	0e8H
	DB	0ffH
	DB	0e8H
	DB	0e4H
	DB	0e8H
	DB	0ffH
	DB	0e8H
	DB	0e4H
	DB	0e0H
	DB	0ffH
	DB	0e0H
	DB	0dcH
	DB	0e0H
	DB	0ffH
	DB	0d8H
	DB	0d4H
	DB	0d8H
	DB	0ffH
	DB	0d8H
	DB	0d0H
	DB	0d0H
	DB	0ffH
	DB	0d8H
	DB	0d8H
	DB	0d0H
	DB	0ffH
	DB	0e0H
	DB	0d8H
	DB	0d8H
	DB	0ffH
	DB	0d8H
	DB	0d8H
	DB	0d0H
	DB	0ffH
	DB	0d8H
	DB	0d0H
	DB	0d0H
	DB	0ffH
	DB	0d8H
	DB	0d4H
	DB	0d0H
	DB	0ffH
	DB	0d8H
	DB	0d4H
	DB	0d0H
	DB	0ffH
	DB	0d8H
	DB	0d4H
	DB	0d0H
	DB	0ffH
	DB	0e0H
	DB	0d4H
	DB	0d0H
	DB	0ffH
	DB	0e0H
	DB	0d8H
	DB	0d0H
	DB	0ffH
	DB	0e0H
	DB	0d8H
	DB	0d0H
	DB	0ffH
	DB	0e0H
	DB	0d8H
	DB	0d0H
	DB	0ffH
	DB	0d8H
	DB	0d4H
	DB	0d0H
	DB	0ffH
	DB	0d8H
	DB	0d0H
	DB	0c8H
	DB	0ffH
	DB	0d8H
	DB	0d4H
	DB	0c8H
	DB	0ffH
	DB	0d8H
	DB	0d4H
	DB	0d0H
	DB	0ffH
	DB	0e0H
	DB	0d8H
	DB	0d0H
	DB	0ffH
	DB	0e0H
	DB	0dcH
	DB	0d8H
	DB	0ffH
	DB	0e0H
	DB	0dcH
	DB	0e0H
	DB	0ffH
	DB	0e0H
	DB	0dcH
	DB	0d8H
	DB	0ffH
	DB	0e0H
	DB	0dcH
	DB	0d8H
	DB	0ffH
	DB	0e8H
	DB	0e4H
	DB	0e0H
	DB	0ffH
	DB	0e8H
	DB	0e4H
	DB	0e8H
	DB	0ffH
	DB	0e8H
	DB	0e8H
	DB	0e8H
	DB	0ffH
	DB	0e8H
	DB	0e8H
	DB	0e8H
	DB	0ffH
	DB	0e8H
	DB	0e8H
	DB	0e8H
	DB	0ffH
	DB	0e8H
	DB	0e8H
	DB	0e8H
	DB	0ffH
	DB	0e8H
	DB	0e8H
	DB	0e8H
	DB	0ffH
	DB	0e8H
	DB	0e8H
	DB	0e8H
	DB	0ffH
	DB	0e8H
	DB	0e8H
	DB	0e8H
	DB	0ffH
	DB	0e8H
	DB	0e8H
	DB	0e8H
	DB	0ffH
	DB	0e8H
	DB	0ecH
	DB	0e8H
	DB	0ffH
	DB	0f0H
	DB	0ecH
	DB	0f0H
	DB	0ffH
	DB	0e8H
	DB	0ecH
	DB	0f0H
	DB	0ffH
	DB	0e8H
	DB	0f0H
	DB	0f0H
	DB	0ffH
	DB	0e8H
	DB	0ecH
	DB	0f0H
	DB	0ffH
	DB	0e8H
	DB	0ecH
	DB	0f0H
	DB	0ffH
	DB	0e8H
	DB	0e8H
	DB	0e8H
	DB	0ffH
	DB	0e8H
	DB	0e8H
	DB	0e8H
	DB	0ffH
	DB	0e8H
	DB	0e8H
	DB	0e8H
	DB	0ffH
	DB	0e8H
	DB	0e8H
	DB	0e8H
	DB	0ffH
	DB	0e8H
	DB	0e8H
	DB	0e8H
	DB	0ffH
	DB	0e8H
	DB	0e8H
	DB	0e8H
	DB	0ffH
	DB	0e8H
	DB	0e8H
	DB	0e8H
	DB	0ffH
	DB	0e8H
	DB	0e4H
	DB	0e8H
	DB	0ffH
	DB	0e0H
	DB	0e4H
	DB	0e0H
	DB	0ffH
	DB	0e0H
	DB	0e0H
	DB	0e0H
	DB	0ffH
	DB	0e0H
	DB	0e4H
	DB	0e0H
	DB	0ffH
	DB	0e8H
	DB	0e4H
	DB	0e8H
	DB	0ffH
	DB	0e0H
	DB	0e4H
	DB	0e0H
	DB	0ffH
	DB	0e0H
	DB	0e0H
	DB	0e0H
	DB	0ffH
	DB	0e0H
	DB	0e4H
	DB	0e0H
	DB	0ffH
	DB	0e0H
	DB	0e0H
	DB	0e0H
	DB	0ffH
	DB	0e0H
	DB	0e0H
	DB	0e0H
	DB	0ffH
	DB	0e0H
	DB	0e0H
	DB	0e0H
	DB	0ffH
	DB	0e0H
	DB	0e0H
	DB	0e0H
	DB	0ffH
	DB	0e0H
	DB	0e0H
	DB	0e0H
	DB	0ffH
	DB	0e0H
	DB	0e0H
	DB	0e0H
	DB	0ffH
	DB	0e0H
	DB	0e0H
	DB	0e0H
	DB	0ffH
	DB	0e0H
	DB	0dcH
	DB	0e0H
	DB	0ffH
	DB	0e0H
	DB	0dcH
	DB	0d8H
	DB	0ffH
	DB	0d8H
	DB	0d8H
	DB	0d8H
	DB	0ffH
	DB	0d8H
	DB	0d4H
	DB	0d8H
	DB	0ffH
	DB	0d8H
	DB	0d4H
	DB	0d0H
	DB	0ffH
	DB	0d8H
	DB	0d4H
	DB	0d0H
	DB	0ffH
	DB	0d8H
	DB	0d0H
	DB	0c8H
	DB	0ffH
	DB	0d0H
	DB	0ccH
	DB	0c8H
	DB	0ffH
	DB	0d8H
	DB	0d0H
	DB	0c8H
	DB	0ffH
	DB	0d8H
	DB	0d0H
	DB	0c8H
	DB	0ffH
	DB	0d8H
	DB	0d0H
	DB	0c0H
	DB	0ffH
	DB	0d8H
	DB	0ccH
	DB	0c8H
	DB	0ffH
	DB	0d8H
	DB	0ccH
	DB	0c8H
	DB	0ffH
	DB	0d8H
	DB	0d0H
	DB	0c8H
	DB	0ffH
	DB	0d8H
	DB	0d0H
	DB	0c8H
	DB	0ffH
	DB	0d8H
	DB	0d4H
	DB	0d0H
	DB	0ffH
	DB	0e0H
	DB	0dcH
	DB	0d8H
	DB	0ffH
	DB	0e0H
	DB	0e0H
	DB	0d8H
	DB	0ffH
	DB	0d8H
	DB	0dcH
	DB	0d8H
	DB	0ffH
	DB	0d8H
	DB	0d8H
	DB	0d0H
	DB	0ffH
	DB	0e0H
	DB	0d8H
	DB	0d0H
	DB	0ffH
	DB	0e0H
	DB	0d8H
	DB	0d0H
	DB	0ffH
	DB	0e0H
	DB	0d8H
	DB	0d8H
	DB	0ffH
	DB	0d8H
	DB	0d4H
	DB	0d0H
	DB	0ffH
	DB	0d8H
	DB	0d0H
	DB	0d0H
	DB	0ffH
	DB	0d8H
	DB	0d4H
	DB	0d0H
	DB	0ffH
	DB	0d8H
	DB	0d8H
	DB	0d8H
	DB	0ffH
	DB	0e0H
	DB	0dcH
	DB	0d8H
	DB	0ffH
	DB	0e0H
	DB	0e0H
	DB	0e0H
	DB	0ffH
	DB	0e0H
	DB	0e4H
	DB	0e8H
	DB	0ffH
	DB	0e8H
	DB	0e8H
	DB	0e8H
	DB	0ffH
	DB	0e8H
	DB	0ecH
	DB	0f0H
	DB	0ffH
	DB	0e8H
	DB	0f0H
	DB	0f0H
	DB	0ffH
	DB	0e8H
	DB	0ecH
	DB	0f0H
	DB	0ffH
	DB	0e8H
	DB	0ecH
	DB	0f0H
	DB	0ffH
	DB	0e8H
	DB	0ecH
	DB	0f0H
	DB	0ffH
	DB	0e8H
	DB	0e8H
	DB	0e8H
	DB	0ffH
	DB	0e8H
	DB	0e8H
	DB	0e8H
	DB	0ffH
	DB	0e0H
	DB	0e4H
	DB	0e8H
	DB	0ffH
	DB	0e0H
	DB	0e4H
	DB	0e8H
	DB	0ffH
	DB	0e0H
	DB	0e4H
	DB	0e8H
	DB	0ffH
	DB	0e0H
	DB	0e4H
	DB	0e0H
	DB	0ffH
	DB	0e0H
	DB	0e4H
	DB	0e8H
	DB	0ffH
	DB	0e0H
	DB	0e0H
	DB	0e0H
	DB	0ffH
	DB	0e0H
	DB	0e0H
	DB	0e0H
	DB	0ffH
	DB	0e0H
	DB	0e4H
	DB	0e8H
	DB	0ffH
	DB	0e8H
	DB	0e8H
	DB	0e8H
	DB	0ffH
	DB	0e8H
	DB	0ecH
	DB	0f0H
	DB	0ffH
	DB	0e8H
	DB	0ecH
	DB	0f0H
	DB	0ffH
	DB	0e8H
	DB	0e8H
	DB	0e8H
	DB	0ffH
	DB	0e8H
	DB	0e8H
	DB	0e8H
	DB	0ffH
	DB	0e8H
	DB	0e8H
	DB	0e8H
	DB	0ffH
	DB	0e0H
	DB	0e4H
	DB	0e8H
	DB	0ffH
	DB	0e8H
	DB	0e4H
	DB	0e8H
	DB	0ffH
	DB	0e8H
	DB	0e4H
	DB	0e8H
	DB	0ffH
	DB	0e0H
	DB	0e4H
	DB	0e8H
	DB	0ffH
	DB	0e0H
	DB	0e0H
	DB	0e0H
	DB	0ffH
	DB	0e0H
	DB	0e0H
	DB	0e0H
	DB	0ffH
	DB	0e0H
	DB	0e0H
	DB	0e0H
	DB	0ffH
	DB	0e8H
	DB	0e0H
	DB	0e0H
	DB	0ffH
	DB	0e0H
	DB	0dcH
	DB	0d8H
	DB	0ffH
	DB	0d8H
	DB	0d8H
	DB	0d8H
	DB	0ffH
	DB	0d8H
	DB	0d4H
	DB	0c8H
	DB	0ffH
	DB	0d8H
	DB	0ccH
	DB	0c0H
	DB	0ffH
	DB	0d8H
	DB	0ccH
	DB	0c0H
	DB	0ffH
	DB	0d0H
	DB	0ccH
	DB	0b8H
	DB	0ffH
	DB	0d8H
	DB	0c8H
	DB	0b8H
	DB	0ffH
	DB	0d8H
	DB	0c8H
	DB	0b8H
	DB	0ffH
	DB	0d8H
	DB	0c8H
	DB	0b8H
	DB	0ffH
	DB	0d8H
	DB	0c8H
	DB	0b8H
	DB	0ffH
	DB	0d8H
	DB	0c8H
	DB	0b8H
	DB	0ffH
	DB	0d0H
	DB	0c8H
	DB	0b8H
	DB	0ffH
	DB	0d0H
	DB	0c8H
	DB	0b8H
	DB	0ffH
	DB	0d8H
	DB	0c8H
	DB	0b8H
	DB	0ffH
	DB	0d0H
	DB	0c8H
	DB	0b8H
	DB	0ffH
	DB	0d8H
	DB	0c8H
	DB	0b8H
	DB	0ffH
	DB	0d8H
	DB	0c8H
	DB	0c0H
	DB	0ffH
	DB	0d0H
	DB	0c8H
	DB	0b8H
	DB	0ffH
	DB	0d8H
	DB	0c8H
	DB	0b8H
	DB	0ffH
	DB	0d8H
	DB	0c8H
	DB	0b8H
	DB	0ffH
	DB	0d8H
	DB	0c8H
	DB	0b8H
	DB	0ffH
	DB	0d8H
	DB	0ccH
	DB	0b8H
	DB	0ffH
	DB	0d0H
	DB	0ccH
	DB	0b8H
	DB	0ffH
	DB	0d8H
	DB	0c8H
	DB	0b0H
	DB	0ffH
	DB	0d8H
	DB	0c8H
	DB	0b0H
	DB	0ffH
	DB	0d0H
	DB	0c8H
	DB	0b0H
	DB	0ffH
	DB	0d0H
	DB	0c8H
	DB	0b8H
	DB	0ffH
	DB	0d8H
	DB	0c8H
	DB	0b0H
	DB	0ffH
	DB	0d0H
	DB	0c8H
	DB	0b0H
	DB	0ffH
	DB	0d0H
	DB	0c8H
	DB	0b8H
	DB	0ffH
	DB	0d8H
	DB	0c8H
	DB	0b0H
	DB	0ffH
	DB	0d8H
	DB	0c8H
	DB	0b8H
	DB	0ffH
	DB	0d8H
	DB	0c8H
	DB	0b8H
	DB	0ffH
	DB	0d0H
	DB	0c8H
	DB	0b8H
	DB	0ffH
	DB	0d0H
	DB	0c8H
	DB	0b8H
	DB	0ffH
	DB	0d0H
	DB	0ccH
	DB	0b8H
	DB	0ffH
	DB	0d8H
	DB	0ccH
	DB	0b8H
	DB	0ffH
	DB	0d8H
	DB	0d0H
	DB	0c0H
	DB	0ffH
	DB	0d8H
	DB	0d0H
	DB	0c0H
	DB	0ffH
	DB	0d0H
	DB	0ccH
	DB	0b8H
	DB	0ffH
	DB	0d8H
	DB	0c8H
	DB	0b8H
	DB	0ffH
	DB	0d8H
	DB	0ccH
	DB	0c0H
	DB	0ffH
	DB	0d8H
	DB	0d4H
	DB	0c8H
	DB	0ffH
	DB	0d8H
	DB	0d4H
	DB	0d0H
	DB	0ffH
	DB	0d8H
	DB	0d0H
	DB	0c8H
	DB	0ffH
	DB	0d0H
	DB	0d0H
	DB	0c0H
	DB	0ffH
	DB	0d0H
	DB	0ccH
	DB	0c8H
	DB	0ffH
	DB	0d8H
	DB	0d0H
	DB	0c8H
	DB	0ffH
	DB	0d8H
	DB	0d0H
	DB	0d0H
	DB	0ffH
	DB	0d8H
	DB	0d4H
	DB	0d8H
	DB	0ffH
	DB	0d8H
	DB	0d4H
	DB	0d0H
	DB	0ffH
	DB	0d8H
	DB	0d4H
	DB	0d0H
	DB	0ffH
	DB	0e0H
	DB	0d4H
	DB	0d0H
	DB	0ffH
	DB	0d8H
	DB	0d4H
	DB	0d0H
	DB	0ffH
	DB	0d8H
	DB	0d4H
	DB	0d0H
	DB	0ffH
	DB	0d8H
	DB	0d4H
	DB	0d0H
	DB	0ffH
	DB	0d8H
	DB	0d4H
	DB	0d8H
	DB	0ffH
	DB	0d8H
	DB	0d4H
	DB	0d0H
	DB	0ffH
	DB	0d0H
	DB	0d0H
	DB	0c8H
	DB	0ffH
	DB	0d0H
	DB	0d0H
	DB	0c8H
	DB	0ffH
	DB	0d8H
	DB	0d0H
	DB	0c0H
	DB	0ffH
	DB	0d8H
	DB	0ccH
	DB	0c0H
	DB	0ffH
	DB	0d8H
	DB	0ccH
	DB	0c0H
	DB	0ffH
	DB	0d0H
	DB	0c8H
	DB	0b8H
	DB	0ffH
	DB	0d0H
	DB	0c8H
	DB	0b8H
	DB	0ffH
	DB	0d0H
	DB	0c4H
	DB	0b8H
	DB	0ffH
	DB	0d0H
	DB	0c8H
	DB	0b8H
	DB	0ffH
	DB	0d0H
	DB	0c8H
	DB	0b8H
	DB	0ffH
	DB	0d0H
	DB	0c8H
	DB	0c0H
	DB	0ffH
	DB	0d0H
	DB	0c8H
	DB	0b8H
	DB	0ffH
	DB	0d0H
	DB	0c8H
	DB	0b8H
	DB	0ffH
	DB	0d0H
	DB	0c4H
	DB	0b8H
	DB	0ffH
	DB	0d0H
	DB	0c4H
	DB	0b8H
	DB	0ffH
	DB	0d8H
	DB	0c8H
	DB	0b8H
	DB	0ffH
	DB	0d0H
	DB	0c8H
	DB	0b8H
	DB	0ffH
	DB	0d0H
	DB	0c8H
	DB	0b8H
	DB	0ffH
	DB	0d0H
	DB	0c8H
	DB	0b8H
	DB	0ffH
	DB	0d0H
	DB	0c8H
	DB	0b8H
	DB	0ffH
	DB	0d0H
	DB	0ccH
	DB	0b8H
	DB	0ffH
	DB	0d0H
	DB	0c8H
	DB	0b8H
	DB	0ffH
	DB	0d0H
	DB	0c4H
	DB	0b0H
	DB	0ffH
	DB	0d8H
	DB	0c4H
	DB	0b0H
	DB	0ffH
	DB	0d8H
	DB	0c8H
	DB	0b0H
	DB	0ffH
	DB	0d0H
	DB	0c8H
	DB	0b0H
	DB	0ffH
	DB	0d0H
	DB	0c4H
	DB	0b0H
	DB	0ffH
	DB	0d0H
	DB	0c4H
	DB	0b0H
	DB	0ffH
	DB	0d0H
	DB	0c4H
	DB	0b0H
	DB	0ffH
	DB	0d0H
	DB	0c4H
	DB	0b0H
	DB	0ffH
	DB	0d0H
	DB	0c4H
	DB	0b0H
	DB	0ffH
	DB	0d0H
	DB	0c4H
	DB	0b0H
	DB	0ffH
	DB	0d0H
	DB	0c4H
	DB	0b0H
	DB	0ffH
	DB	0d0H
	DB	0c0H
	DB	0b0H
	DB	0ffH
	DB	0d0H
	DB	0c4H
	DB	0b0H
	DB	0ffH
	DB	0d0H
	DB	0c4H
	DB	0b0H
	DB	0ffH
	DB	0d0H
	DB	0c4H
	DB	0b0H
	DB	0ffH
	DB	0d0H
	DB	0c4H
	DB	0b8H
	DB	0ffH
	DB	0d0H
	DB	0c4H
	DB	0b8H
	DB	0ffH
	DB	0d0H
	DB	0c8H
	DB	0b0H
	DB	0ffH
	DB	0d0H
	DB	0c4H
	DB	0b0H
	DB	0ffH
	DB	0d0H
	DB	0c8H
	DB	0b8H
	DB	0ffH
	DB	0d0H
	DB	0ccH
	DB	0c0H
	DB	0ffH
	DB	0d8H
	DB	0d0H
	DB	0c8H
	DB	0ffH
	DB	0d8H
	DB	0d8H
	DB	0d8H
	DB	0ffH
	DB	0e0H
	DB	0dcH
	DB	0e0H
	DB	0ffH
	DB	0e0H
	DB	0e0H
	DB	0e0H
	DB	0ffH
	DB	0e0H
	DB	0e4H
	DB	0e8H
	DB	0ffH
	DB	0e8H
	DB	0ecH
	DB	0f0H
	DB	0ffH
	DB	0e8H
	DB	0f0H
	DB	0f0H
	DB	0ffH
	DB	0f0H
	DB	0f0H
	DB	0f0H
	DB	0ffH
	DB	0e8H
	DB	0f0H
	DB	0f0H
	DB	0ffH
	DB	0e8H
	DB	0ecH
	DB	0f0H
	DB	0ffH
	DB	0e8H
	DB	0ecH
	DB	0f0H
	DB	0ffH
	DB	0e8H
	DB	0ecH
	DB	0f0H
	DB	0ffH
	DB	0e8H
	DB	0ecH
	DB	0f0H
	DB	0ffH
	DB	0e8H
	DB	0f0H
	DB	0f0H
	DB	0ffH
	DB	0f0H
	DB	0f0H
	DB	0f0H
	DB	0ffH
	DB	0f0H
	DB	0f0H
	DB	0f0H
	DB	0ffH
	DB	0e8H
	DB	0f0H
	DB	0f0H
	DB	0ffH
	DB	0f0H
	DB	0f0H
	DB	0f0H
	DB	0ffH
	DB	0e8H
	DB	0ecH
	DB	0f0H
	DB	0ffH
	DB	0e8H
	DB	0ecH
	DB	0f0H
	DB	0ffH
	DB	0e8H
	DB	0ecH
	DB	0f0H
	DB	0ffH
	DB	0e8H
	DB	0ecH
	DB	0e8H
	DB	0ffH
	DB	0e8H
	DB	0ecH
	DB	0e8H
	DB	0ffH
	DB	0e0H
	DB	0e8H
	DB	0e8H
	DB	0ffH
	DB	0e0H
	DB	0e8H
	DB	0e8H
	DB	0ffH
	DB	0e0H
	DB	0e8H
	DB	0e8H
	DB	0ffH
	DB	0e0H
	DB	0e4H
	DB	0e8H
	DB	0ffH
	DB	0e0H
	DB	0e4H
	DB	0e8H
	DB	0ffH
	DB	0e0H
	DB	0e4H
	DB	0e8H
	DB	0ffH
	DB	0e0H
	DB	0e4H
	DB	0e8H
	DB	0ffH
	DB	0f8H
	DB	0fcH
	DB	0f8H
	DB	0ffH
	DB	0f8H
	DB	0fcH
	DB	0f8H
	DB	0ffH
	DB	0f8H
	DB	0fcH
	DB	0f8H
	DB	0ffH
	DB	0f8H
	DB	0fcH
	DB	0f8H
	DB	0ffH
	DB	0f8H
	DB	0fcH
	DB	0f8H
	DB	0ffH
	DB	0f8H
	DB	0fcH
	DB	0f8H
	DB	0ffH
	DB	0f8H
	DB	0fcH
	DB	0f8H
	DB	0ffH
	DB	0f8H
	DB	0fcH
	DB	0f8H
	DB	0ffH
	DB	0f8H
	DB	0fcH
	DB	0f8H
	DB	0ffH
	DB	0f8H
	DB	0fcH
	DB	0f8H
	DB	0ffH
	DB	0f8H
	DB	0fcH
	DB	0f8H
	DB	0ffH
	DB	0f8H
	DB	0fcH
	DB	0f8H
	DB	0ffH
	DB	0f8H
	DB	0fcH
	DB	0f8H
	DB	0ffH
	DB	0f8H
	DB	0fcH
	DB	0f8H
	DB	0ffH
	DB	0f8H
	DB	0fcH
	DB	0f8H
	DB	0ffH
	DB	0f8H
	DB	0fcH
	DB	0f8H
	DB	0ffH
	DB	0f8H
	DB	0fcH
	DB	0f8H
	DB	0ffH
	DB	0f8H
	DB	0fcH
	DB	0f8H
	DB	0ffH
	DB	0f8H
	DB	0fcH
	DB	0f8H
	DB	0ffH
	DB	0f8H
	DB	0fcH
	DB	0f8H
	DB	0ffH
	DB	0f8H
	DB	0fcH
	DB	0f8H
	DB	0ffH
	DB	0f8H
	DB	0fcH
	DB	0f8H
	DB	0ffH
	DB	0f8H
	DB	0fcH
	DB	0f8H
	DB	0ffH
	DB	0f8H
	DB	0fcH
	DB	0f8H
	DB	0ffH
	DB	0f8H
	DB	0fcH
	DB	0f8H
	DB	0ffH
	DB	0f8H
	DB	0fcH
	DB	0f8H
	DB	0ffH
	DB	0f8H
	DB	0fcH
	DB	0f8H
	DB	0ffH
	DB	0f8H
	DB	0fcH
	DB	0f8H
	DB	0ffH
	DB	0f8H
	DB	0fcH
	DB	0f8H
	DB	0ffH
	DB	0f8H
	DB	0fcH
	DB	0f8H
	DB	0ffH
	DB	0f8H
	DB	0fcH
	DB	0f8H
	DB	0ffH
	DB	0f8H
	DB	0fcH
	DB	0f8H
	DB	0ffH
	DB	0f8H
	DB	0fcH
	DB	0f8H
	DB	0ffH
	DB	0f8H
	DB	0fcH
	DB	0f8H
	DB	0ffH
	DB	0f8H
	DB	0fcH
	DB	0f8H
	DB	0ffH
	DB	0f8H
	DB	0fcH
	DB	0f8H
	DB	0ffH
	DB	0f8H
	DB	0fcH
	DB	0f8H
	DB	0ffH
	DB	0f8H
	DB	0fcH
	DB	0f8H
	DB	0ffH
	DB	0f8H
	DB	0fcH
	DB	0f8H
	DB	0ffH
	DB	0f8H
	DB	0fcH
	DB	0f8H
	DB	0ffH
	DB	0f8H
	DB	0fcH
	DB	0f8H
	DB	0ffH
	DB	0f8H
	DB	0fcH
	DB	0f8H
	DB	0ffH
	DB	0f8H
	DB	0fcH
	DB	0f8H
	DB	0ffH
	DB	0f8H
	DB	0fcH
	DB	0f8H
	DB	0ffH
	DB	0f8H
	DB	0fcH
	DB	0f8H
	DB	0ffH
	DB	0f8H
	DB	0fcH
	DB	0f8H
	DB	0ffH
	DB	0f8H
	DB	0fcH
	DB	0f8H
	DB	0ffH
	DB	0f8H
	DB	0fcH
	DB	0f8H
	DB	0ffH
	DB	0f8H
	DB	0fcH
	DB	0f8H
	DB	0ffH
	DB	0f8H
	DB	0fcH
	DB	0f8H
	DB	0ffH
	DB	0f8H
	DB	0f8H
	DB	0f8H
	DB	0ffH
	DB	0f8H
	DB	0f8H
	DB	0f8H
	DB	0ffH
	DB	0f8H
	DB	0f8H
	DB	0f8H
	DB	0ffH
	DB	0f8H
	DB	0f8H
	DB	0f8H
	DB	0ffH
	DB	0f8H
	DB	0f8H
	DB	0f8H
	DB	0ffH
	DB	0f8H
	DB	0fcH
	DB	0f8H
	DB	0ffH
	DB	0f8H
	DB	0fcH
	DB	0f8H
	DB	0ffH
	DB	0f8H
	DB	0fcH
	DB	0f8H
	DB	0ffH
	DB	0f8H
	DB	0fcH
	DB	0f8H
	DB	0ffH
	DB	0f8H
	DB	0fcH
	DB	0f8H
	DB	0ffH
	DB	0f8H
	DB	0fcH
	DB	0f8H
	DB	0ffH
	DB	0f8H
	DB	0fcH
	DB	0f8H
	DB	0ffH
	DB	0f8H
	DB	0fcH
	DB	0f8H
	DB	0ffH
	DB	0f8H
	DB	0f8H
	DB	0f8H
	DB	0ffH
	DB	0f8H
	DB	0fcH
	DB	0f8H
	DB	0ffH
	DB	0f8H
	DB	0fcH
	DB	0f8H
	DB	0ffH
	DB	0f8H
	DB	0f8H
	DB	0f8H
	DB	0ffH
	DB	0f8H
	DB	0fcH
	DB	0f8H
	DB	0ffH
	DB	0f8H
	DB	0fcH
	DB	0f8H
	DB	0ffH
	DB	0f8H
	DB	0f8H
	DB	0f8H
	DB	0ffH
	DB	0f8H
	DB	0fcH
	DB	0f8H
	DB	0ffH
	DB	0f8H
	DB	0fcH
	DB	0f8H
	DB	0ffH
	DB	0f8H
	DB	0fcH
	DB	0f8H
	DB	0ffH
	DB	0f8H
	DB	0f8H
	DB	0f8H
	DB	0ffH
	DB	0f0H
	DB	0f8H
	DB	0f8H
	DB	0ffH
	DB	0f8H
	DB	0f8H
	DB	0f8H
	DB	0ffH
	DB	0f8H
	DB	0f8H
	DB	0f8H
	DB	0ffH
	DB	0f0H
	DB	0f8H
	DB	0f8H
	DB	0ffH
	DB	0f8H
	DB	0f8H
	DB	0f0H
	DB	0ffH
	DB	0f0H
	DB	0f8H
	DB	0f8H
	DB	0ffH
	DB	0f0H
	DB	0f8H
	DB	0f8H
	DB	0ffH
	DB	0f0H
	DB	0f8H
	DB	0f8H
	DB	0ffH
	DB	0f0H
	DB	0f8H
	DB	0f8H
	DB	0ffH
	DB	0f8H
	DB	0fcH
	DB	0f8H
	DB	0ffH
	DB	0f0H
	DB	0fcH
	DB	0f8H
	DB	0ffH
	DB	0f8H
	DB	0fcH
	DB	0f8H
	DB	0ffH
	DB	0f8H
	DB	0fcH
	DB	0f8H
	DB	0ffH
	DB	0f8H
	DB	0fcH
	DB	0f8H
	DB	0ffH
	DB	0f8H
	DB	0fcH
	DB	0f8H
	DB	0ffH
	DB	0f0H
	DB	0fcH
	DB	0f8H
	DB	0ffH
	DB	0f8H
	DB	0fcH
	DB	0f8H
	DB	0ffH
	DB	0f8H
	DB	0fcH
	DB	0f8H
	DB	0ffH
	DB	0f8H
	DB	0fcH
	DB	0f8H
	DB	0ffH
	DB	0f0H
	DB	0fcH
	DB	0f8H
	DB	0ffH
	DB	0f0H
	DB	0f8H
	DB	0f8H
	DB	0ffH
	DB	0f8H
	DB	0f8H
	DB	0f8H
	DB	0ffH
	DB	0f8H
	DB	0f8H
	DB	0f8H
	DB	0ffH
	DB	0f8H
	DB	0f8H
	DB	0f8H
	DB	0ffH
	DB	0f8H
	DB	0f4H
	DB	0f8H
	DB	0ffH
	DB	0f0H
	DB	0f4H
	DB	0f0H
	DB	0ffH
	DB	0f0H
	DB	0f4H
	DB	0f0H
	DB	0ffH
	DB	0f0H
	DB	0f0H
	DB	0f0H
	DB	0ffH
	DB	0f0H
	DB	0f0H
	DB	0f0H
	DB	0ffH
	DB	0f0H
	DB	0f0H
	DB	0f0H
	DB	0ffH
	DB	0f0H
	DB	0f0H
	DB	0f0H
	DB	0ffH
	DB	0f0H
	DB	0f0H
	DB	0f0H
	DB	0ffH
	DB	0e8H
	DB	0f0H
	DB	0e8H
	DB	0ffH
	DB	0e8H
	DB	0ecH
	DB	0e8H
	DB	0ffH
	DB	0e8H
	DB	0ecH
	DB	0e8H
	DB	0ffH
	DB	0e8H
	DB	0ecH
	DB	0e8H
	DB	0ffH
	DB	0e8H
	DB	0e8H
	DB	0e8H
	DB	0ffH
	DB	0f0H
	DB	0ecH
	DB	0f0H
	DB	0ffH
	DB	0e8H
	DB	0ecH
	DB	0e8H
	DB	0ffH
	DB	0e8H
	DB	0e8H
	DB	0e8H
	DB	0ffH
	DB	0e8H
	DB	0e8H
	DB	0e8H
	DB	0ffH
	DB	0f0H
	DB	0ecH
	DB	0f0H
	DB	0ffH
	DB	0e8H
	DB	0ecH
	DB	0e8H
	DB	0ffH
	DB	0e8H
	DB	0ecH
	DB	0e8H
	DB	0ffH
	DB	0e8H
	DB	0ecH
	DB	0e8H
	DB	0ffH
	DB	0f0H
	DB	0ecH
	DB	0f0H
	DB	0ffH
	DB	0f0H
	DB	0ecH
	DB	0f0H
	DB	0ffH
	DB	0e8H
	DB	0ecH
	DB	0e8H
	DB	0ffH
	DB	0f0H
	DB	0ecH
	DB	0f0H
	DB	0ffH
	DB	0f0H
	DB	0ecH
	DB	0f0H
	DB	0ffH
	DB	0e8H
	DB	0ecH
	DB	0e8H
	DB	0ffH
	DB	0e8H
	DB	0ecH
	DB	0e8H
	DB	0ffH
	DB	0e8H
	DB	0ecH
	DB	0e8H
	DB	0ffH
	DB	0f0H
	DB	0f0H
	DB	0f0H
	DB	0ffH
	DB	0f0H
	DB	0f0H
	DB	0f0H
	DB	0ffH
	DB	0f0H
	DB	0ecH
	DB	0f0H
	DB	0ffH
	DB	0f0H
	DB	0ecH
	DB	0f0H
	DB	0ffH
	DB	0e8H
	DB	0ecH
	DB	0e8H
	DB	0ffH
	DB	0f0H
	DB	0ecH
	DB	0f0H
	DB	0ffH
	DB	0f0H
	DB	0ecH
	DB	0f0H
	DB	0ffH
	DB	0e8H
	DB	0ecH
	DB	0e8H
	DB	0ffH
	DB	0f0H
	DB	0ecH
	DB	0e8H
	DB	0ffH
	DB	0f0H
	DB	0ecH
	DB	0f0H
	DB	0ffH
	DB	0e8H
	DB	0ecH
	DB	0e8H
	DB	0ffH
	DB	0f0H
	DB	0ecH
	DB	0e8H
	DB	0ffH
	DB	0f0H
	DB	0ecH
	DB	0f0H
	DB	0ffH
	DB	0f0H
	DB	0ecH
	DB	0e8H
	DB	0ffH
	DB	0f0H
	DB	0ecH
	DB	0f0H
	DB	0ffH
	DB	0f0H
	DB	0ecH
	DB	0f0H
	DB	0ffH
	DB	0e8H
	DB	0ecH
	DB	0e8H
	DB	0ffH
	DB	0f0H
	DB	0ecH
	DB	0f0H
	DB	0ffH
	DB	0f0H
	DB	0ecH
	DB	0f0H
	DB	0ffH
	DB	0e8H
	DB	0ecH
	DB	0e8H
	DB	0ffH
	DB	0f0H
	DB	0ecH
	DB	0f0H
	DB	0ffH
	DB	0f0H
	DB	0ecH
	DB	0e8H
	DB	0ffH
	DB	0e8H
	DB	0ecH
	DB	0e8H
	DB	0ffH
	DB	0e8H
	DB	0e8H
	DB	0e8H
	DB	0ffH
	DB	0e8H
	DB	0e8H
	DB	0e8H
	DB	0ffH
	DB	0e8H
	DB	0e8H
	DB	0e8H
	DB	0ffH
	DB	0e8H
	DB	0e8H
	DB	0e8H
	DB	0ffH
	DB	0e8H
	DB	0e8H
	DB	0e8H
	DB	0ffH
	DB	0e8H
	DB	0e8H
	DB	0e8H
	DB	0ffH
	DB	0e8H
	DB	0e8H
	DB	0e8H
	DB	0ffH
	DB	0e8H
	DB	0e8H
	DB	0e8H
	DB	0ffH
	DB	0e8H
	DB	0e4H
	DB	0e8H
	DB	0ffH
	DB	0e8H
	DB	0e8H
	DB	0e8H
	DB	0ffH
	DB	0e8H
	DB	0e4H
	DB	0e8H
	DB	0ffH
	DB	0e0H
	DB	0e4H
	DB	0e0H
	DB	0ffH
	DB	0e8H
	DB	0e4H
	DB	0e8H
	DB	0ffH
	DB	0e8H
	DB	0e8H
	DB	0e8H
	DB	0ffH
	DB	0e8H
	DB	0e4H
	DB	0e0H
	DB	0ffH
	DB	0e8H
	DB	0e4H
	DB	0e0H
	DB	0ffH
	DB	0e8H
	DB	0e0H
	DB	0e8H
	DB	0ffH
	DB	0e8H
	DB	0e4H
	DB	0e0H
	DB	0ffH
	DB	0e0H
	DB	0e4H
	DB	0e0H
	DB	0ffH
	DB	0e8H
	DB	0e4H
	DB	0e0H
	DB	0ffH
	DB	0e8H
	DB	0e4H
	DB	0e8H
	DB	0ffH
	DB	0e0H
	DB	0e4H
	DB	0e0H
	DB	0ffH
	DB	0e8H
	DB	0e4H
	DB	0e8H
	DB	0ffH
	DB	0e8H
	DB	0e4H
	DB	0e0H
	DB	0ffH
	DB	0e0H
	DB	0e4H
	DB	0e8H
	DB	0ffH
	DB	0e8H
	DB	0e4H
	DB	0e8H
	DB	0ffH
	DB	0e8H
	DB	0e4H
	DB	0e8H
	DB	0ffH
	DB	0e8H
	DB	0e8H
	DB	0e8H
	DB	0ffH
	DB	0e8H
	DB	0e8H
	DB	0e8H
	DB	0ffH
	DB	0e8H
	DB	0e8H
	DB	0e8H
	DB	0ffH
	DB	0e8H
	DB	0e8H
	DB	0e8H
	DB	0ffH
	DB	0e8H
	DB	0e8H
	DB	0e8H
	DB	0ffH
	DB	0e8H
	DB	0e8H
	DB	0e8H
	DB	0ffH
	DB	0e8H
	DB	0e8H
	DB	0e8H
	DB	0ffH
	DB	0e8H
	DB	0e8H
	DB	0e8H
	DB	0ffH
	DB	0e0H
	DB	0e8H
	DB	0e8H
	DB	0ffH
	DB	0e8H
	DB	0e8H
	DB	0e8H
	DB	0ffH
	DB	0e0H
	DB	0e8H
	DB	0e8H
	DB	0ffH
	DB	0e8H
	DB	0e8H
	DB	0e8H
	DB	0ffH
	DB	0e0H
	DB	0e8H
	DB	0e8H
	DB	0ffH
	DB	0e8H
	DB	0e8H
	DB	0e8H
	DB	0ffH
	DB	0e8H
	DB	0e4H
	DB	0e8H
	DB	0ffH
	DB	0e8H
	DB	0e4H
	DB	0e0H
	DB	0ffH
	DB	0e0H
	DB	0e4H
	DB	0e8H
	DB	0ffH
	DB	0e8H
	DB	0e4H
	DB	0e0H
	DB	0ffH
	DB	0e0H
	DB	0e0H
	DB	0e0H
	DB	0ffH
	DB	0e0H
	DB	0e0H
	DB	0e0H
	DB	0ffH
	DB	0e0H
	DB	0e4H
	DB	0e0H
	DB	0ffH
	DB	0e0H
	DB	0e4H
	DB	0e8H
	DB	0ffH
	DB	0e8H
	DB	0e0H
	DB	0e0H
	DB	0ffH
	DB	0e8H
	DB	0e0H
	DB	0e0H
	DB	0ffH
	DB	0e8H
	DB	0e0H
	DB	0e0H
	DB	0ffH
	DB	0e0H
	DB	0e0H
	DB	0e0H
	DB	0ffH
	DB	0e8H
	DB	0e0H
	DB	0e0H
	DB	0ffH
	DB	0e0H
	DB	0e0H
	DB	0e0H
	DB	0ffH
	DB	0e0H
	DB	0dcH
	DB	0e0H
	DB	0ffH
	DB	0e8H
	DB	0dcH
	DB	0e0H
	DB	0ffH
	DB	0e8H
	DB	0e0H
	DB	0d8H
	DB	0ffH
	DB	0e0H
	DB	0e0H
	DB	0d8H
	DB	0ffH
	DB	0e0H
	DB	0e0H
	DB	0d8H
	DB	0ffH
	DB	0e0H
	DB	0dcH
	DB	0d8H
	DB	0ffH
	DB	0d8H
	DB	0d8H
	DB	0d0H
	DB	0ffH
	DB	0d8H
	DB	0d8H
	DB	0d8H
	DB	0ffH
	DB	0d8H
	DB	0d8H
	DB	0d8H
	DB	0ffH
	DB	0e0H
	DB	0dcH
	DB	0d8H
	DB	0ffH
	DB	0e0H
	DB	0dcH
	DB	0d8H
	DB	0ffH
	DB	0e0H
	DB	0dcH
	DB	0e0H
	DB	0ffH
	DB	0e0H
	DB	0dcH
	DB	0e0H
	DB	0ffH
	DB	0e0H
	DB	0dcH
	DB	0e0H
	DB	0ffH
	DB	0e0H
	DB	0dcH
	DB	0e0H
	DB	0ffH
	DB	0e0H
	DB	0e0H
	DB	0e0H
	DB	0ffH
	DB	0e0H
	DB	0e4H
	DB	0e0H
	DB	0ffH
	DB	0e0H
	DB	0e0H
	DB	0e0H
	DB	0ffH
	DB	0e8H
	DB	0e0H
	DB	0e0H
	DB	0ffH
	DB	0e8H
	DB	0e0H
	DB	0e0H
	DB	0ffH
	DB	0e8H
	DB	0e4H
	DB	0e8H
	DB	0ffH
	DB	0e8H
	DB	0e4H
	DB	0e8H
	DB	0ffH
	DB	0e8H
	DB	0e0H
	DB	0e0H
	DB	0ffH
	DB	0e0H
	DB	0d8H
	DB	0d8H
	DB	0ffH
	DB	0d8H
	DB	0d4H
	DB	0d8H
	DB	0ffH
	DB	0d8H
	DB	0d8H
	DB	0d8H
	DB	0ffH
	DB	0e0H
	DB	0dcH
	DB	0d8H
	DB	0ffH
	DB	0e0H
	DB	0d8H
	DB	0d0H
	DB	0ffH
	DB	0e0H
	DB	0d8H
	DB	0d0H
	DB	0ffH
	DB	0d8H
	DB	0d4H
	DB	0d0H
	DB	0ffH
	DB	0d8H
	DB	0d4H
	DB	0d0H
	DB	0ffH
	DB	0d8H
	DB	0d4H
	DB	0d0H
	DB	0ffH
	DB	0d8H
	DB	0d4H
	DB	0d0H
	DB	0ffH
	DB	0d8H
	DB	0d4H
	DB	0d0H
	DB	0ffH
	DB	0d8H
	DB	0d4H
	DB	0c8H
	DB	0ffH
	DB	0e0H
	DB	0d4H
	DB	0c8H
	DB	0ffH
	DB	0d8H
	DB	0d4H
	DB	0c8H
	DB	0ffH
	DB	0d8H
	DB	0d0H
	DB	0c8H
	DB	0ffH
	DB	0d8H
	DB	0d0H
	DB	0c8H
	DB	0ffH
	DB	0e0H
	DB	0d0H
	DB	0c8H
	DB	0ffH
	DB	0e0H
	DB	0d4H
	DB	0c8H
	DB	0ffH
	DB	0d8H
	DB	0d4H
	DB	0c8H
	DB	0ffH
	DB	0d8H
	DB	0d4H
	DB	0d0H
	DB	0ffH
	DB	0d8H
	DB	0d8H
	DB	0d8H
	DB	0ffH
	DB	0e0H
	DB	0dcH
	DB	0d8H
	DB	0ffH
	DB	0e0H
	DB	0dcH
	DB	0e0H
	DB	0ffH
	DB	0e0H
	DB	0e0H
	DB	0e0H
	DB	0ffH
	DB	0e8H
	DB	0e4H
	DB	0e0H
	DB	0ffH
	DB	0e8H
	DB	0e8H
	DB	0e8H
	DB	0ffH
	DB	0e8H
	DB	0e8H
	DB	0e8H
	DB	0ffH
	DB	0e8H
	DB	0e4H
	DB	0e8H
	DB	0ffH
	DB	0e8H
	DB	0e8H
	DB	0e8H
	DB	0ffH
	DB	0e8H
	DB	0e8H
	DB	0e8H
	DB	0ffH
	DB	0e8H
	DB	0e8H
	DB	0e8H
	DB	0ffH
	DB	0e8H
	DB	0e8H
	DB	0e8H
	DB	0ffH
	DB	0e8H
	DB	0e8H
	DB	0f0H
	DB	0ffH
	DB	0f0H
	DB	0ecH
	DB	0f0H
	DB	0ffH
	DB	0f0H
	DB	0ecH
	DB	0f0H
	DB	0ffH
	DB	0f0H
	DB	0ecH
	DB	0f0H
	DB	0ffH
	DB	0e8H
	DB	0ecH
	DB	0e8H
	DB	0ffH
	DB	0e8H
	DB	0ecH
	DB	0e8H
	DB	0ffH
	DB	0e8H
	DB	0e8H
	DB	0e8H
	DB	0ffH
	DB	0e8H
	DB	0e4H
	DB	0e8H
	DB	0ffH
	DB	0e8H
	DB	0e8H
	DB	0e8H
	DB	0ffH
	DB	0e0H
	DB	0e4H
	DB	0e8H
	DB	0ffH
	DB	0e8H
	DB	0e4H
	DB	0e8H
	DB	0ffH
	DB	0e0H
	DB	0e4H
	DB	0e8H
	DB	0ffH
	DB	0e8H
	DB	0e4H
	DB	0e8H
	DB	0ffH
	DB	0e8H
	DB	0e4H
	DB	0e8H
	DB	0ffH
	DB	0e0H
	DB	0e0H
	DB	0e0H
	DB	0ffH
	DB	0e0H
	DB	0e0H
	DB	0e0H
	DB	0ffH
	DB	0e8H
	DB	0e4H
	DB	0e8H
	DB	0ffH
	DB	0e8H
	DB	0e8H
	DB	0e8H
	DB	0ffH
	DB	0e8H
	DB	0e8H
	DB	0e8H
	DB	0ffH
	DB	0e8H
	DB	0e4H
	DB	0e8H
	DB	0ffH
	DB	0e0H
	DB	0e0H
	DB	0e0H
	DB	0ffH
	DB	0e0H
	DB	0dcH
	DB	0e0H
	DB	0ffH
	DB	0e0H
	DB	0e0H
	DB	0e0H
	DB	0ffH
	DB	0e0H
	DB	0e4H
	DB	0e0H
	DB	0ffH
	DB	0e8H
	DB	0e4H
	DB	0e0H
	DB	0ffH
	DB	0e0H
	DB	0e4H
	DB	0e0H
	DB	0ffH
	DB	0e0H
	DB	0e4H
	DB	0e8H
	DB	0ffH
	DB	0e8H
	DB	0e8H
	DB	0e8H
	DB	0ffH
	DB	0e8H
	DB	0e4H
	DB	0e0H
	DB	0ffH
	DB	0e0H
	DB	0e0H
	DB	0e0H
	DB	0ffH
	DB	0e0H
	DB	0dcH
	DB	0e0H
	DB	0ffH
	DB	0e0H
	DB	0dcH
	DB	0e0H
	DB	0ffH
	DB	0d8H
	DB	0d8H
	DB	0d8H
	DB	0ffH
	DB	0d8H
	DB	0d8H
	DB	0d0H
	DB	0ffH
	DB	0e0H
	DB	0dcH
	DB	0d8H
	DB	0ffH
	DB	0e0H
	DB	0d8H
	DB	0d0H
	DB	0ffH
	DB	0d8H
	DB	0d0H
	DB	0c8H
	DB	0ffH
	DB	0d0H
	DB	0ccH
	DB	0c0H
	DB	0ffH
	DB	0d8H
	DB	0d4H
	DB	0c8H
	DB	0ffH
	DB	0d8H
	DB	0d4H
	DB	0c8H
	DB	0ffH
	DB	0d8H
	DB	0d0H
	DB	0c8H
	DB	0ffH
	DB	0e0H
	DB	0d0H
	DB	0c8H
	DB	0ffH
	DB	0e0H
	DB	0d4H
	DB	0d0H
	DB	0ffH
	DB	0d8H
	DB	0d4H
	DB	0d0H
	DB	0ffH
	DB	0d8H
	DB	0d8H
	DB	0d8H
	DB	0ffH
	DB	0d8H
	DB	0dcH
	DB	0d8H
	DB	0ffH
	DB	0d8H
	DB	0dcH
	DB	0e0H
	DB	0ffH
	DB	0d8H
	DB	0e0H
	DB	0e0H
	DB	0ffH
	DB	0e0H
	DB	0e0H
	DB	0d8H
	DB	0ffH
	DB	0e0H
	DB	0dcH
	DB	0d8H
	DB	0ffH
	DB	0e0H
	DB	0dcH
	DB	0e0H
	DB	0ffH
	DB	0e0H
	DB	0dcH
	DB	0e0H
	DB	0ffH
	DB	0e0H
	DB	0dcH
	DB	0e0H
	DB	0ffH
	DB	0e0H
	DB	0dcH
	DB	0e0H
	DB	0ffH
	DB	0e0H
	DB	0e0H
	DB	0e0H
	DB	0ffH
	DB	0e8H
	DB	0e4H
	DB	0e0H
	DB	0ffH
	DB	0e0H
	DB	0e4H
	DB	0e8H
	DB	0ffH
	DB	0e0H
	DB	0e8H
	DB	0e8H
	DB	0ffH
	DB	0e8H
	DB	0e8H
	DB	0f0H
	DB	0ffH
	DB	0e8H
	DB	0e8H
	DB	0f0H
	DB	0ffH
	DB	0e8H
	DB	0ecH
	DB	0f0H
	DB	0ffH
	DB	0e8H
	DB	0ecH
	DB	0f0H
	DB	0ffH
	DB	0e8H
	DB	0ecH
	DB	0f0H
	DB	0ffH
	DB	0f0H
	DB	0ecH
	DB	0f0H
	DB	0ffH
	DB	0e8H
	DB	0ecH
	DB	0f0H
	DB	0ffH
	DB	0e8H
	DB	0e8H
	DB	0f0H
	DB	0ffH
	DB	0e8H
	DB	0e8H
	DB	0f0H
	DB	0ffH
	DB	0e8H
	DB	0e8H
	DB	0e8H
	DB	0ffH
	DB	0e8H
	DB	0e8H
	DB	0e8H
	DB	0ffH
	DB	0e8H
	DB	0e8H
	DB	0e8H
	DB	0ffH
	DB	0e8H
	DB	0e4H
	DB	0e8H
	DB	0ffH
	DB	0e0H
	DB	0e4H
	DB	0e8H
	DB	0ffH
	DB	0e8H
	DB	0e8H
	DB	0e8H
	DB	0ffH
	DB	0e8H
	DB	0e8H
	DB	0e8H
	DB	0ffH
	DB	0e0H
	DB	0e8H
	DB	0e8H
	DB	0ffH
	DB	0e8H
	DB	0e8H
	DB	0e8H
	DB	0ffH
	DB	0e8H
	DB	0ecH
	DB	0e8H
	DB	0ffH
	DB	0e8H
	DB	0ecH
	DB	0f0H
	DB	0ffH
	DB	0e8H
	DB	0e8H
	DB	0e8H
	DB	0ffH
	DB	0e8H
	DB	0e8H
	DB	0e8H
	DB	0ffH
	DB	0e8H
	DB	0e8H
	DB	0e8H
	DB	0ffH
	DB	0e0H
	DB	0e8H
	DB	0e8H
	DB	0ffH
	DB	0e0H
	DB	0e4H
	DB	0e8H
	DB	0ffH
	DB	0e8H
	DB	0e8H
	DB	0e8H
	DB	0ffH
	DB	0e8H
	DB	0e4H
	DB	0e0H
	DB	0ffH
	DB	0e0H
	DB	0e0H
	DB	0e0H
	DB	0ffH
	DB	0e0H
	DB	0dcH
	DB	0e0H
	DB	0ffH
	DB	0e0H
	DB	0dcH
	DB	0d8H
	DB	0ffH
	DB	0e0H
	DB	0dcH
	DB	0d8H
	DB	0ffH
	DB	0e0H
	DB	0dcH
	DB	0d8H
	DB	0ffH
	DB	0d8H
	DB	0d8H
	DB	0d8H
	DB	0ffH
	DB	0d8H
	DB	0d0H
	DB	0c8H
	DB	0ffH
	DB	0d8H
	DB	0ccH
	DB	0c0H
	DB	0ffH
	DB	0d0H
	DB	0ccH
	DB	0c0H
	DB	0ffH
	DB	0d0H
	DB	0c8H
	DB	0b8H
	DB	0ffH
	DB	0d0H
	DB	0c8H
	DB	0b8H
	DB	0ffH
	DB	0d8H
	DB	0c8H
	DB	0b8H
	DB	0ffH
	DB	0d8H
	DB	0ccH
	DB	0b8H
	DB	0ffH
	DB	0d8H
	DB	0ccH
	DB	0b8H
	DB	0ffH
	DB	0d8H
	DB	0c8H
	DB	0b8H
	DB	0ffH
	DB	0d8H
	DB	0c8H
	DB	0b8H
	DB	0ffH
	DB	0d0H
	DB	0c8H
	DB	0b8H
	DB	0ffH
	DB	0d0H
	DB	0c8H
	DB	0b8H
	DB	0ffH
	DB	0d0H
	DB	0c8H
	DB	0b8H
	DB	0ffH
	DB	0d0H
	DB	0c8H
	DB	0b8H
	DB	0ffH
	DB	0d0H
	DB	0c8H
	DB	0b8H
	DB	0ffH
	DB	0d0H
	DB	0c8H
	DB	0b8H
	DB	0ffH
	DB	0d0H
	DB	0c8H
	DB	0b8H
	DB	0ffH
	DB	0d0H
	DB	0c8H
	DB	0b8H
	DB	0ffH
	DB	0d0H
	DB	0c8H
	DB	0b8H
	DB	0ffH
	DB	0d0H
	DB	0c8H
	DB	0b8H
	DB	0ffH
	DB	0d8H
	DB	0c8H
	DB	0b0H
	DB	0ffH
	DB	0d0H
	DB	0c8H
	DB	0b0H
	DB	0ffH
	DB	0d0H
	DB	0c8H
	DB	0b0H
	DB	0ffH
	DB	0d0H
	DB	0c8H
	DB	0b0H
	DB	0ffH
	DB	0d0H
	DB	0c8H
	DB	0b8H
	DB	0ffH
	DB	0d0H
	DB	0c8H
	DB	0b8H
	DB	0ffH
	DB	0d0H
	DB	0c8H
	DB	0b0H
	DB	0ffH
	DB	0d0H
	DB	0c8H
	DB	0b0H
	DB	0ffH
	DB	0d8H
	DB	0c8H
	DB	0b8H
	DB	0ffH
	DB	0d8H
	DB	0ccH
	DB	0b0H
	DB	0ffH
	DB	0d8H
	DB	0c8H
	DB	0b0H
	DB	0ffH
	DB	0d8H
	DB	0ccH
	DB	0b0H
	DB	0ffH
	DB	0d0H
	DB	0c8H
	DB	0b0H
	DB	0ffH
	DB	0d0H
	DB	0c8H
	DB	0b8H
	DB	0ffH
	DB	0d0H
	DB	0ccH
	DB	0b8H
	DB	0ffH
	DB	0d0H
	DB	0ccH
	DB	0b8H
	DB	0ffH
	DB	0d0H
	DB	0c8H
	DB	0b8H
	DB	0ffH
	DB	0d0H
	DB	0c8H
	DB	0b8H
	DB	0ffH
	DB	0d0H
	DB	0c8H
	DB	0b8H
	DB	0ffH
	DB	0d0H
	DB	0ccH
	DB	0b8H
	DB	0ffH
	DB	0d0H
	DB	0d0H
	DB	0c0H
	DB	0ffH
	DB	0d8H
	DB	0d0H
	DB	0c0H
	DB	0ffH
	DB	0d8H
	DB	0d0H
	DB	0c0H
	DB	0ffH
	DB	0d0H
	DB	0c8H
	DB	0c0H
	DB	0ffH
	DB	0d0H
	DB	0ccH
	DB	0c0H
	DB	0ffH
	DB	0d8H
	DB	0ccH
	DB	0c8H
	DB	0ffH
	DB	0d8H
	DB	0ccH
	DB	0d0H
	DB	0ffH
	DB	0e0H
	DB	0ccH
	DB	0d0H
	DB	0ffH
	DB	0e0H
	DB	0d4H
	DB	0d0H
	DB	0ffH
	DB	0e0H
	DB	0d4H
	DB	0d0H
	DB	0ffH
	DB	0d8H
	DB	0d8H
	DB	0d0H
	DB	0ffH
	DB	0e0H
	DB	0d4H
	DB	0d0H
	DB	0ffH
	DB	0d8H
	DB	0d4H
	DB	0d8H
	DB	0ffH
	DB	0d8H
	DB	0d4H
	DB	0d8H
	DB	0ffH
	DB	0d8H
	DB	0d4H
	DB	0d0H
	DB	0ffH
	DB	0d8H
	DB	0d0H
	DB	0d0H
	DB	0ffH
	DB	0d8H
	DB	0d0H
	DB	0c8H
	DB	0ffH
	DB	0d0H
	DB	0ccH
	DB	0c8H
	DB	0ffH
	DB	0d8H
	DB	0ccH
	DB	0c0H
	DB	0ffH
	DB	0d8H
	DB	0ccH
	DB	0b8H
	DB	0ffH
	DB	0d8H
	DB	0c8H
	DB	0b8H
	DB	0ffH
	DB	0d8H
	DB	0c8H
	DB	0b8H
	DB	0ffH
	DB	0d8H
	DB	0c8H
	DB	0b8H
	DB	0ffH
	DB	0d0H
	DB	0c8H
	DB	0b8H
	DB	0ffH
	DB	0c8H
	DB	0c4H
	DB	0b8H
	DB	0ffH
	DB	0d0H
	DB	0c8H
	DB	0c0H
	DB	0ffH
	DB	0d8H
	DB	0d0H
	DB	0c0H
	DB	0ffH
	DB	0d8H
	DB	0ccH
	DB	0c0H
	DB	0ffH
	DB	0d0H
	DB	0c8H
	DB	0b8H
	DB	0ffH
	DB	0d0H
	DB	0c4H
	DB	0b0H
	DB	0ffH
	DB	0d0H
	DB	0c8H
	DB	0b8H
	DB	0ffH
	DB	0d8H
	DB	0d0H
	DB	0c0H
	DB	0ffH
	DB	0d8H
	DB	0d0H
	DB	0c8H
	DB	0ffH
	DB	0d8H
	DB	0ccH
	DB	0c8H
	DB	0ffH
	DB	0d8H
	DB	0ccH
	DB	0c0H
	DB	0ffH
	DB	0d0H
	DB	0ccH
	DB	0b8H
	DB	0ffH
	DB	0d8H
	DB	0d0H
	DB	0b8H
	DB	0ffH
	DB	0d0H
	DB	0c8H
	DB	0b8H
	DB	0ffH
	DB	0d8H
	DB	0c4H
	DB	0b8H
	DB	0ffH
	DB	0d0H
	DB	0c0H
	DB	0b8H
	DB	0ffH
	DB	0d8H
	DB	0c8H
	DB	0b0H
	DB	0ffH
	DB	0d8H
	DB	0c8H
	DB	0b0H
	DB	0ffH
	DB	0d0H
	DB	0c4H
	DB	0b0H
	DB	0ffH
	DB	0d0H
	DB	0c4H
	DB	0b0H
	DB	0ffH
	DB	0d0H
	DB	0c8H
	DB	0b0H
	DB	0ffH
	DB	0d0H
	DB	0c4H
	DB	0b0H
	DB	0ffH
	DB	0d8H
	DB	0c4H
	DB	0b0H
	DB	0ffH
	DB	0d8H
	DB	0c8H
	DB	0b0H
	DB	0ffH
	DB	0d0H
	DB	0c4H
	DB	0b0H
	DB	0ffH
	DB	0d0H
	DB	0c8H
	DB	0b0H
	DB	0ffH
	DB	0d8H
	DB	0c8H
	DB	0b8H
	DB	0ffH
	DB	0d8H
	DB	0c8H
	DB	0b8H
	DB	0ffH
	DB	0d0H
	DB	0c8H
	DB	0b8H
	DB	0ffH
	DB	0d0H
	DB	0c8H
	DB	0b8H
	DB	0ffH
	DB	0d0H
	DB	0c4H
	DB	0b0H
	DB	0ffH
	DB	0d0H
	DB	0c4H
	DB	0b0H
	DB	0ffH
	DB	0d0H
	DB	0c4H
	DB	0b0H
	DB	0ffH
	DB	0d0H
	DB	0c8H
	DB	0b8H
	DB	0ffH
	DB	0d0H
	DB	0ccH
	DB	0c0H
	DB	0ffH
	DB	0d8H
	DB	0d0H
	DB	0c8H
	DB	0ffH
	DB	0d8H
	DB	0d8H
	DB	0d8H
	DB	0ffH
	DB	0e0H
	DB	0e0H
	DB	0e0H
	DB	0ffH
	DB	0e0H
	DB	0e8H
	DB	0f0H
	DB	0ffH
	DB	0e8H
	DB	0ecH
	DB	0f0H
	DB	0ffH
	DB	0f0H
	DB	0f0H
	DB	0f0H
	DB	0ffH
	DB	0f0H
	DB	0f0H
	DB	0f8H
	DB	0ffH
	DB	0f0H
	DB	0f0H
	DB	0f8H
	DB	0ffH
	DB	0f0H
	DB	0f0H
	DB	0f0H
	DB	0ffH
	DB	0e8H
	DB	0ecH
	DB	0f0H
	DB	0ffH
	DB	0e8H
	DB	0ecH
	DB	0f0H
	DB	0ffH
	DB	0e8H
	DB	0ecH
	DB	0f0H
	DB	0ffH
	DB	0e8H
	DB	0ecH
	DB	0f0H
	DB	0ffH
	DB	0e8H
	DB	0ecH
	DB	0f0H
	DB	0ffH
	DB	0e8H
	DB	0f0H
	DB	0f0H
	DB	0ffH
	DB	0f0H
	DB	0f0H
	DB	0f0H
	DB	0ffH
	DB	0f0H
	DB	0f0H
	DB	0f0H
	DB	0ffH
	DB	0e8H
	DB	0f0H
	DB	0f0H
	DB	0ffH
	DB	0e8H
	DB	0ecH
	DB	0f0H
	DB	0ffH
	DB	0e8H
	DB	0ecH
	DB	0f0H
	DB	0ffH
	DB	0e8H
	DB	0ecH
	DB	0f0H
	DB	0ffH
	DB	0e8H
	DB	0ecH
	DB	0e8H
	DB	0ffH
	DB	0e8H
	DB	0e8H
	DB	0e8H
	DB	0ffH
	DB	0e8H
	DB	0e8H
	DB	0f0H
	DB	0ffH
	DB	0e0H
	DB	0e8H
	DB	0e8H
	DB	0ffH
	DB	0e0H
	DB	0e4H
	DB	0e8H
	DB	0ffH
	DB	0e0H
	DB	0e4H
	DB	0e0H
	DB	0ffH
	DB	0e0H
	DB	0e0H
	DB	0e0H
	DB	0ffH
	DB	0e0H
	DB	0e4H
	DB	0e0H
	DB	0ffH
	DB	0e0H
	DB	0e4H
	DB	0e0H
	DB	0ffH
	DB	0f8H
	DB	0fcH
	DB	0f8H
	DB	0ffH
	DB	0f8H
	DB	0fcH
	DB	0f8H
	DB	0ffH
	DB	0f8H
	DB	0fcH
	DB	0f8H
	DB	0ffH
	DB	0f8H
	DB	0fcH
	DB	0f8H
	DB	0ffH
	DB	0f8H
	DB	0fcH
	DB	0f8H
	DB	0ffH
	DB	0f8H
	DB	0fcH
	DB	0f8H
	DB	0ffH
	DB	0f8H
	DB	0fcH
	DB	0f8H
	DB	0ffH
	DB	0f8H
	DB	0fcH
	DB	0f8H
	DB	0ffH
	DB	0f8H
	DB	0fcH
	DB	0f8H
	DB	0ffH
	DB	0f8H
	DB	0fcH
	DB	0f8H
	DB	0ffH
	DB	0f8H
	DB	0fcH
	DB	0f8H
	DB	0ffH
	DB	0f8H
	DB	0fcH
	DB	0f8H
	DB	0ffH
	DB	0f8H
	DB	0fcH
	DB	0f8H
	DB	0ffH
	DB	0f8H
	DB	0fcH
	DB	0f8H
	DB	0ffH
	DB	0f8H
	DB	0fcH
	DB	0f8H
	DB	0ffH
	DB	0f8H
	DB	0fcH
	DB	0f8H
	DB	0ffH
	DB	0f8H
	DB	0fcH
	DB	0f8H
	DB	0ffH
	DB	0f8H
	DB	0fcH
	DB	0f8H
	DB	0ffH
	DB	0f8H
	DB	0fcH
	DB	0f8H
	DB	0ffH
	DB	0f8H
	DB	0fcH
	DB	0f8H
	DB	0ffH
	DB	0f8H
	DB	0fcH
	DB	0f8H
	DB	0ffH
	DB	0f8H
	DB	0fcH
	DB	0f8H
	DB	0ffH
	DB	0f8H
	DB	0fcH
	DB	0f8H
	DB	0ffH
	DB	0f8H
	DB	0fcH
	DB	0f8H
	DB	0ffH
	DB	0f8H
	DB	0fcH
	DB	0f8H
	DB	0ffH
	DB	0f8H
	DB	0fcH
	DB	0f8H
	DB	0ffH
	DB	0f8H
	DB	0fcH
	DB	0f8H
	DB	0ffH
	DB	0f8H
	DB	0fcH
	DB	0f8H
	DB	0ffH
	DB	0f8H
	DB	0fcH
	DB	0f8H
	DB	0ffH
	DB	0f8H
	DB	0fcH
	DB	0f8H
	DB	0ffH
	DB	0f8H
	DB	0fcH
	DB	0f8H
	DB	0ffH
	DB	0f8H
	DB	0fcH
	DB	0f8H
	DB	0ffH
	DB	0f8H
	DB	0fcH
	DB	0f8H
	DB	0ffH
	DB	0f8H
	DB	0fcH
	DB	0f8H
	DB	0ffH
	DB	0f8H
	DB	0fcH
	DB	0f8H
	DB	0ffH
	DB	0f8H
	DB	0fcH
	DB	0f8H
	DB	0ffH
	DB	0f8H
	DB	0fcH
	DB	0f8H
	DB	0ffH
	DB	0f8H
	DB	0fcH
	DB	0f8H
	DB	0ffH
	DB	0f8H
	DB	0fcH
	DB	0f8H
	DB	0ffH
	DB	0f8H
	DB	0fcH
	DB	0f8H
	DB	0ffH
	DB	0f8H
	DB	0fcH
	DB	0f8H
	DB	0ffH
	DB	0f8H
	DB	0fcH
	DB	0f8H
	DB	0ffH
	DB	0f8H
	DB	0fcH
	DB	0f8H
	DB	0ffH
	DB	0f8H
	DB	0fcH
	DB	0f8H
	DB	0ffH
	DB	0f8H
	DB	0fcH
	DB	0f8H
	DB	0ffH
	DB	0f8H
	DB	0fcH
	DB	0f8H
	DB	0ffH
	DB	0f8H
	DB	0fcH
	DB	0f8H
	DB	0ffH
	DB	0f8H
	DB	0fcH
	DB	0f8H
	DB	0ffH
	DB	0f8H
	DB	0fcH
	DB	0f8H
	DB	0ffH
	DB	0f8H
	DB	0fcH
	DB	0f8H
	DB	0ffH
	DB	0f8H
	DB	0f8H
	DB	0f8H
	DB	0ffH
	DB	0f8H
	DB	0fcH
	DB	0f8H
	DB	0ffH
	DB	0f8H
	DB	0f8H
	DB	0f8H
	DB	0ffH
	DB	0f8H
	DB	0fcH
	DB	0f8H
	DB	0ffH
	DB	0f8H
	DB	0f8H
	DB	0f8H
	DB	0ffH
	DB	0f8H
	DB	0fcH
	DB	0f8H
	DB	0ffH
	DB	0f8H
	DB	0fcH
	DB	0f8H
	DB	0ffH
	DB	0f8H
	DB	0f8H
	DB	0f8H
	DB	0ffH
	DB	0f8H
	DB	0fcH
	DB	0f8H
	DB	0ffH
	DB	0f8H
	DB	0f8H
	DB	0f8H
	DB	0ffH
	DB	0f8H
	DB	0f8H
	DB	0f8H
	DB	0ffH
	DB	0f8H
	DB	0f8H
	DB	0f8H
	DB	0ffH
	DB	0f8H
	DB	0f8H
	DB	0f8H
	DB	0ffH
	DB	0f8H
	DB	0f8H
	DB	0f8H
	DB	0ffH
	DB	0f8H
	DB	0f8H
	DB	0f8H
	DB	0ffH
	DB	0f8H
	DB	0f8H
	DB	0f8H
	DB	0ffH
	DB	0f8H
	DB	0f8H
	DB	0f8H
	DB	0ffH
	DB	0f8H
	DB	0f8H
	DB	0f8H
	DB	0ffH
	DB	0f8H
	DB	0fcH
	DB	0f8H
	DB	0ffH
	DB	0f8H
	DB	0f8H
	DB	0f8H
	DB	0ffH
	DB	0f8H
	DB	0f8H
	DB	0f8H
	DB	0ffH
	DB	0f8H
	DB	0fcH
	DB	0f8H
	DB	0ffH
	DB	0f8H
	DB	0f8H
	DB	0f8H
	DB	0ffH
	DB	0f8H
	DB	0f8H
	DB	0f8H
	DB	0ffH
	DB	0f8H
	DB	0f8H
	DB	0f8H
	DB	0ffH
	DB	0f8H
	DB	0f8H
	DB	0f8H
	DB	0ffH
	DB	0f8H
	DB	0f8H
	DB	0f8H
	DB	0ffH
	DB	0f8H
	DB	0f8H
	DB	0f8H
	DB	0ffH
	DB	0f8H
	DB	0f8H
	DB	0f8H
	DB	0ffH
	DB	0f8H
	DB	0f8H
	DB	0f8H
	DB	0ffH
	DB	0f8H
	DB	0f8H
	DB	0f8H
	DB	0ffH
	DB	0f8H
	DB	0f8H
	DB	0f8H
	DB	0ffH
	DB	0f8H
	DB	0f8H
	DB	0f8H
	DB	0ffH
	DB	0f8H
	DB	0fcH
	DB	0f8H
	DB	0ffH
	DB	0f8H
	DB	0fcH
	DB	0f8H
	DB	0ffH
	DB	0f8H
	DB	0fcH
	DB	0f8H
	DB	0ffH
	DB	0f8H
	DB	0fcH
	DB	0f8H
	DB	0ffH
	DB	0f8H
	DB	0fcH
	DB	0f8H
	DB	0ffH
	DB	0f8H
	DB	0fcH
	DB	0f8H
	DB	0ffH
	DB	0f8H
	DB	0fcH
	DB	0f8H
	DB	0ffH
	DB	0f8H
	DB	0fcH
	DB	0f8H
	DB	0ffH
	DB	0f8H
	DB	0fcH
	DB	0f8H
	DB	0ffH
	DB	0f8H
	DB	0fcH
	DB	0f8H
	DB	0ffH
	DB	0f8H
	DB	0fcH
	DB	0f8H
	DB	0ffH
	DB	0f8H
	DB	0f8H
	DB	0f8H
	DB	0ffH
	DB	0f8H
	DB	0f8H
	DB	0f8H
	DB	0ffH
	DB	0f8H
	DB	0f8H
	DB	0f8H
	DB	0ffH
	DB	0f8H
	DB	0f8H
	DB	0f8H
	DB	0ffH
	DB	0f0H
	DB	0f4H
	DB	0f8H
	DB	0ffH
	DB	0f0H
	DB	0f4H
	DB	0f8H
	DB	0ffH
	DB	0f8H
	DB	0f4H
	DB	0f0H
	DB	0ffH
	DB	0f0H
	DB	0f4H
	DB	0f0H
	DB	0ffH
	DB	0f0H
	DB	0f0H
	DB	0f0H
	DB	0ffH
	DB	0f0H
	DB	0f0H
	DB	0f0H
	DB	0ffH
	DB	0f0H
	DB	0f0H
	DB	0f0H
	DB	0ffH
	DB	0f0H
	DB	0ecH
	DB	0f0H
	DB	0ffH
	DB	0f0H
	DB	0ecH
	DB	0f0H
	DB	0ffH
	DB	0f0H
	DB	0ecH
	DB	0f0H
	DB	0ffH
	DB	0f0H
	DB	0ecH
	DB	0f0H
	DB	0ffH
	DB	0f0H
	DB	0ecH
	DB	0f0H
	DB	0ffH
	DB	0e8H
	DB	0ecH
	DB	0e8H
	DB	0ffH
	DB	0e8H
	DB	0e8H
	DB	0e8H
	DB	0ffH
	DB	0e8H
	DB	0ecH
	DB	0e8H
	DB	0ffH
	DB	0e8H
	DB	0ecH
	DB	0e8H
	DB	0ffH
	DB	0f0H
	DB	0e8H
	DB	0f0H
	DB	0ffH
	DB	0e8H
	DB	0e8H
	DB	0e8H
	DB	0ffH
	DB	0e8H
	DB	0ecH
	DB	0e8H
	DB	0ffH
	DB	0e8H
	DB	0e8H
	DB	0e8H
	DB	0ffH
	DB	0e8H
	DB	0e8H
	DB	0e8H
	DB	0ffH
	DB	0f0H
	DB	0ecH
	DB	0f0H
	DB	0ffH
	DB	0e8H
	DB	0ecH
	DB	0e8H
	DB	0ffH
	DB	0e8H
	DB	0ecH
	DB	0e8H
	DB	0ffH
	DB	0e8H
	DB	0ecH
	DB	0e8H
	DB	0ffH
	DB	0f0H
	DB	0ecH
	DB	0f0H
	DB	0ffH
	DB	0e8H
	DB	0ecH
	DB	0e8H
	DB	0ffH
	DB	0f0H
	DB	0ecH
	DB	0f0H
	DB	0ffH
	DB	0f0H
	DB	0ecH
	DB	0f0H
	DB	0ffH
	DB	0e8H
	DB	0f0H
	DB	0f0H
	DB	0ffH
	DB	0e8H
	DB	0ecH
	DB	0e8H
	DB	0ffH
	DB	0e8H
	DB	0f0H
	DB	0f0H
	DB	0ffH
	DB	0f0H
	DB	0f0H
	DB	0f0H
	DB	0ffH
	DB	0e8H
	DB	0ecH
	DB	0e8H
	DB	0ffH
	DB	0f0H
	DB	0ecH
	DB	0f0H
	DB	0ffH
	DB	0f0H
	DB	0ecH
	DB	0f0H
	DB	0ffH
	DB	0e8H
	DB	0ecH
	DB	0f0H
	DB	0ffH
	DB	0f0H
	DB	0f0H
	DB	0f0H
	DB	0ffH
	DB	0f0H
	DB	0f0H
	DB	0f0H
	DB	0ffH
	DB	0e8H
	DB	0f0H
	DB	0f0H
	DB	0ffH
	DB	0e8H
	DB	0f0H
	DB	0f0H
	DB	0ffH
	DB	0f0H
	DB	0f0H
	DB	0f0H
	DB	0ffH
	DB	0e8H
	DB	0f0H
	DB	0f0H
	DB	0ffH
	DB	0e8H
	DB	0f0H
	DB	0f0H
	DB	0ffH
	DB	0f0H
	DB	0f0H
	DB	0f0H
	DB	0ffH
	DB	0f0H
	DB	0ecH
	DB	0f0H
	DB	0ffH
	DB	0f0H
	DB	0ecH
	DB	0f0H
	DB	0ffH
	DB	0e8H
	DB	0ecH
	DB	0f0H
	DB	0ffH
	DB	0e8H
	DB	0ecH
	DB	0f0H
	DB	0ffH
	DB	0e8H
	DB	0ecH
	DB	0f0H
	DB	0ffH
	DB	0e8H
	DB	0ecH
	DB	0e8H
	DB	0ffH
	DB	0e8H
	DB	0ecH
	DB	0f0H
	DB	0ffH
	DB	0e8H
	DB	0e8H
	DB	0f0H
	DB	0ffH
	DB	0e8H
	DB	0ecH
	DB	0e8H
	DB	0ffH
	DB	0e8H
	DB	0e8H
	DB	0e8H
	DB	0ffH
	DB	0e8H
	DB	0e8H
	DB	0e8H
	DB	0ffH
	DB	0e8H
	DB	0e8H
	DB	0e8H
	DB	0ffH
	DB	0e8H
	DB	0e8H
	DB	0e8H
	DB	0ffH
	DB	0e8H
	DB	0e8H
	DB	0e8H
	DB	0ffH
	DB	0e0H
	DB	0e4H
	DB	0e8H
	DB	0ffH
	DB	0e0H
	DB	0e4H
	DB	0e0H
	DB	0ffH
	DB	0e8H
	DB	0e8H
	DB	0e8H
	DB	0ffH
	DB	0e8H
	DB	0e8H
	DB	0e8H
	DB	0ffH
	DB	0e0H
	DB	0e4H
	DB	0e0H
	DB	0ffH
	DB	0e8H
	DB	0e4H
	DB	0e8H
	DB	0ffH
	DB	0e8H
	DB	0e8H
	DB	0e8H
	DB	0ffH
	DB	0e8H
	DB	0e4H
	DB	0e0H
	DB	0ffH
	DB	0e8H
	DB	0e4H
	DB	0e8H
	DB	0ffH
	DB	0e8H
	DB	0e4H
	DB	0e8H
	DB	0ffH
	DB	0e8H
	DB	0e4H
	DB	0e8H
	DB	0ffH
	DB	0e8H
	DB	0e4H
	DB	0e0H
	DB	0ffH
	DB	0e8H
	DB	0e4H
	DB	0e8H
	DB	0ffH
	DB	0e8H
	DB	0e4H
	DB	0e8H
	DB	0ffH
	DB	0e0H
	DB	0e0H
	DB	0e0H
	DB	0ffH
	DB	0e0H
	DB	0e0H
	DB	0e0H
	DB	0ffH
	DB	0e0H
	DB	0e4H
	DB	0e0H
	DB	0ffH
	DB	0e8H
	DB	0e0H
	DB	0e0H
	DB	0ffH
	DB	0e8H
	DB	0e4H
	DB	0e8H
	DB	0ffH
	DB	0e8H
	DB	0e8H
	DB	0e8H
	DB	0ffH
	DB	0e8H
	DB	0e8H
	DB	0e8H
	DB	0ffH
	DB	0e8H
	DB	0e8H
	DB	0e8H
	DB	0ffH
	DB	0e8H
	DB	0e8H
	DB	0e8H
	DB	0ffH
	DB	0f0H
	DB	0e8H
	DB	0e8H
	DB	0ffH
	DB	0e8H
	DB	0ecH
	DB	0e8H
	DB	0ffH
	DB	0e8H
	DB	0e8H
	DB	0e8H
	DB	0ffH
	DB	0e8H
	DB	0e8H
	DB	0e8H
	DB	0ffH
	DB	0e8H
	DB	0e8H
	DB	0e8H
	DB	0ffH
	DB	0e8H
	DB	0e8H
	DB	0e0H
	DB	0ffH
	DB	0e8H
	DB	0e8H
	DB	0e8H
	DB	0ffH
	DB	0e8H
	DB	0e8H
	DB	0e8H
	DB	0ffH
	DB	0e8H
	DB	0e8H
	DB	0e0H
	DB	0ffH
	DB	0e8H
	DB	0e8H
	DB	0e8H
	DB	0ffH
	DB	0e8H
	DB	0e4H
	DB	0e8H
	DB	0ffH
	DB	0e8H
	DB	0e4H
	DB	0e0H
	DB	0ffH
	DB	0e8H
	DB	0e4H
	DB	0e0H
	DB	0ffH
	DB	0e8H
	DB	0e4H
	DB	0e0H
	DB	0ffH
	DB	0e8H
	DB	0e0H
	DB	0e0H
	DB	0ffH
	DB	0e0H
	DB	0e0H
	DB	0e0H
	DB	0ffH
	DB	0e0H
	DB	0e0H
	DB	0e0H
	DB	0ffH
	DB	0e8H
	DB	0e0H
	DB	0e0H
	DB	0ffH
	DB	0e0H
	DB	0e0H
	DB	0e0H
	DB	0ffH
	DB	0e0H
	DB	0e0H
	DB	0e0H
	DB	0ffH
	DB	0e8H
	DB	0e0H
	DB	0e0H
	DB	0ffH
	DB	0e0H
	DB	0e0H
	DB	0e0H
	DB	0ffH
	DB	0e0H
	DB	0e0H
	DB	0e0H
	DB	0ffH
	DB	0e0H
	DB	0dcH
	DB	0e0H
	DB	0ffH
	DB	0e0H
	DB	0dcH
	DB	0e0H
	DB	0ffH
	DB	0e0H
	DB	0dcH
	DB	0e0H
	DB	0ffH
	DB	0e0H
	DB	0dcH
	DB	0e0H
	DB	0ffH
	DB	0e8H
	DB	0e0H
	DB	0e0H
	DB	0ffH
	DB	0e0H
	DB	0e0H
	DB	0d8H
	DB	0ffH
	DB	0e0H
	DB	0dcH
	DB	0d8H
	DB	0ffH
	DB	0e0H
	DB	0dcH
	DB	0d8H
	DB	0ffH
	DB	0d8H
	DB	0d8H
	DB	0d8H
	DB	0ffH
	DB	0d8H
	DB	0d4H
	DB	0d0H
	DB	0ffH
	DB	0e0H
	DB	0d8H
	DB	0d0H
	DB	0ffH
	DB	0e0H
	DB	0d8H
	DB	0d0H
	DB	0ffH
	DB	0e0H
	DB	0dcH
	DB	0d8H
	DB	0ffH
	DB	0d8H
	DB	0dcH
	DB	0d8H
	DB	0ffH
	DB	0e0H
	DB	0dcH
	DB	0d8H
	DB	0ffH
	DB	0e0H
	DB	0dcH
	DB	0d8H
	DB	0ffH
	DB	0e0H
	DB	0e0H
	DB	0d8H
	DB	0ffH
	DB	0e8H
	DB	0e0H
	DB	0e0H
	DB	0ffH
	DB	0e0H
	DB	0e0H
	DB	0e0H
	DB	0ffH
	DB	0e0H
	DB	0e0H
	DB	0e0H
	DB	0ffH
	DB	0e8H
	DB	0e0H
	DB	0e0H
	DB	0ffH
	DB	0e0H
	DB	0e4H
	DB	0e8H
	DB	0ffH
	DB	0e8H
	DB	0e4H
	DB	0e0H
	DB	0ffH
	DB	0e8H
	DB	0e4H
	DB	0e0H
	DB	0ffH
	DB	0e0H
	DB	0e0H
	DB	0e0H
	DB	0ffH
	DB	0e0H
	DB	0d8H
	DB	0d8H
	DB	0ffH
	DB	0e0H
	DB	0d8H
	DB	0d8H
	DB	0ffH
	DB	0e0H
	DB	0dcH
	DB	0d8H
	DB	0ffH
	DB	0e0H
	DB	0e0H
	DB	0d8H
	DB	0ffH
	DB	0e0H
	DB	0dcH
	DB	0d8H
	DB	0ffH
	DB	0e0H
	DB	0d8H
	DB	0d0H
	DB	0ffH
	DB	0e0H
	DB	0d8H
	DB	0d0H
	DB	0ffH
	DB	0d8H
	DB	0d4H
	DB	0d0H
	DB	0ffH
	DB	0e0H
	DB	0d4H
	DB	0c8H
	DB	0ffH
	DB	0d8H
	DB	0d4H
	DB	0c8H
	DB	0ffH
	DB	0d8H
	DB	0d4H
	DB	0c8H
	DB	0ffH
	DB	0d8H
	DB	0d0H
	DB	0c8H
	DB	0ffH
	DB	0d8H
	DB	0d0H
	DB	0c8H
	DB	0ffH
	DB	0d8H
	DB	0d0H
	DB	0c8H
	DB	0ffH
	DB	0d8H
	DB	0d0H
	DB	0c0H
	DB	0ffH
	DB	0d8H
	DB	0d0H
	DB	0c0H
	DB	0ffH
	DB	0d8H
	DB	0d0H
	DB	0c8H
	DB	0ffH
	DB	0d8H
	DB	0d4H
	DB	0c8H
	DB	0ffH
	DB	0e0H
	DB	0d4H
	DB	0c8H
	DB	0ffH
	DB	0d8H
	DB	0d0H
	DB	0d0H
	DB	0ffH
	DB	0d8H
	DB	0d4H
	DB	0d0H
	DB	0ffH
	DB	0e0H
	DB	0dcH
	DB	0d8H
	DB	0ffH
	DB	0e0H
	DB	0e0H
	DB	0e0H
	DB	0ffH
	DB	0e0H
	DB	0e0H
	DB	0e0H
	DB	0ffH
	DB	0e8H
	DB	0e0H
	DB	0e0H
	DB	0ffH
	DB	0e8H
	DB	0e8H
	DB	0e8H
	DB	0ffH
	DB	0e8H
	DB	0e8H
	DB	0e8H
	DB	0ffH
	DB	0e8H
	DB	0e4H
	DB	0e8H
	DB	0ffH
	DB	0e8H
	DB	0e8H
	DB	0e8H
	DB	0ffH
	DB	0e8H
	DB	0e8H
	DB	0e8H
	DB	0ffH
	DB	0e8H
	DB	0ecH
	DB	0f0H
	DB	0ffH
	DB	0e8H
	DB	0e8H
	DB	0e8H
	DB	0ffH
	DB	0e8H
	DB	0e8H
	DB	0e8H
	DB	0ffH
	DB	0e8H
	DB	0e8H
	DB	0e8H
	DB	0ffH
	DB	0e8H
	DB	0ecH
	DB	0e8H
	DB	0ffH
	DB	0e8H
	DB	0ecH
	DB	0e8H
	DB	0ffH
	DB	0e8H
	DB	0ecH
	DB	0e8H
	DB	0ffH
	DB	0e8H
	DB	0e8H
	DB	0e8H
	DB	0ffH
	DB	0e8H
	DB	0e8H
	DB	0e8H
	DB	0ffH
	DB	0e0H
	DB	0e8H
	DB	0e8H
	DB	0ffH
	DB	0e0H
	DB	0e4H
	DB	0e8H
	DB	0ffH
	DB	0e0H
	DB	0e8H
	DB	0e8H
	DB	0ffH
	DB	0e0H
	DB	0e8H
	DB	0e0H
	DB	0ffH
	DB	0e0H
	DB	0e4H
	DB	0e0H
	DB	0ffH
	DB	0e0H
	DB	0e4H
	DB	0e0H
	DB	0ffH
	DB	0e0H
	DB	0e4H
	DB	0e0H
	DB	0ffH
	DB	0e0H
	DB	0e4H
	DB	0e0H
	DB	0ffH
	DB	0e0H
	DB	0e4H
	DB	0e0H
	DB	0ffH
	DB	0e8H
	DB	0e8H
	DB	0e8H
	DB	0ffH
	DB	0e8H
	DB	0e8H
	DB	0e8H
	DB	0ffH
	DB	0e8H
	DB	0e8H
	DB	0e8H
	DB	0ffH
	DB	0e8H
	DB	0e8H
	DB	0e8H
	DB	0ffH
	DB	0e8H
	DB	0e8H
	DB	0e8H
	DB	0ffH
	DB	0e8H
	DB	0e8H
	DB	0e8H
	DB	0ffH
	DB	0e8H
	DB	0e8H
	DB	0e8H
	DB	0ffH
	DB	0e8H
	DB	0e4H
	DB	0e8H
	DB	0ffH
	DB	0e0H
	DB	0e4H
	DB	0e8H
	DB	0ffH
	DB	0e8H
	DB	0e4H
	DB	0e8H
	DB	0ffH
	DB	0e8H
	DB	0e4H
	DB	0e8H
	DB	0ffH
	DB	0e8H
	DB	0e8H
	DB	0e8H
	DB	0ffH
	DB	0e8H
	DB	0e4H
	DB	0e8H
	DB	0ffH
	DB	0e0H
	DB	0e0H
	DB	0e0H
	DB	0ffH
	DB	0e0H
	DB	0dcH
	DB	0e0H
	DB	0ffH
	DB	0e0H
	DB	0dcH
	DB	0e0H
	DB	0ffH
	DB	0e0H
	DB	0dcH
	DB	0d8H
	DB	0ffH
	DB	0e0H
	DB	0dcH
	DB	0d8H
	DB	0ffH
	DB	0e0H
	DB	0e0H
	DB	0e0H
	DB	0ffH
	DB	0e0H
	DB	0e0H
	DB	0d8H
	DB	0ffH
	DB	0d8H
	DB	0d4H
	DB	0d0H
	DB	0ffH
	DB	0d8H
	DB	0d0H
	DB	0c8H
	DB	0ffH
	DB	0d8H
	DB	0d0H
	DB	0c8H
	DB	0ffH
	DB	0d8H
	DB	0d8H
	DB	0d0H
	DB	0ffH
	DB	0e0H
	DB	0dcH
	DB	0d0H
	DB	0ffH
	DB	0e0H
	DB	0d8H
	DB	0d0H
	DB	0ffH
	DB	0e0H
	DB	0d8H
	DB	0d8H
	DB	0ffH
	DB	0d8H
	DB	0d8H
	DB	0d8H
	DB	0ffH
	DB	0e0H
	DB	0dcH
	DB	0d8H
	DB	0ffH
	DB	0e0H
	DB	0dcH
	DB	0e0H
	DB	0ffH
	DB	0e0H
	DB	0dcH
	DB	0e0H
	DB	0ffH
	DB	0e0H
	DB	0dcH
	DB	0e0H
	DB	0ffH
	DB	0e0H
	DB	0dcH
	DB	0e0H
	DB	0ffH
	DB	0e0H
	DB	0dcH
	DB	0e0H
	DB	0ffH
	DB	0e0H
	DB	0dcH
	DB	0d8H
	DB	0ffH
	DB	0e0H
	DB	0dcH
	DB	0e0H
	DB	0ffH
	DB	0e0H
	DB	0dcH
	DB	0e0H
	DB	0ffH
	DB	0e0H
	DB	0e0H
	DB	0e0H
	DB	0ffH
	DB	0e0H
	DB	0e4H
	DB	0e0H
	DB	0ffH
	DB	0e0H
	DB	0e0H
	DB	0e0H
	DB	0ffH
	DB	0e0H
	DB	0e4H
	DB	0e8H
	DB	0ffH
	DB	0e8H
	DB	0e8H
	DB	0e8H
	DB	0ffH
	DB	0e8H
	DB	0e8H
	DB	0e8H
	DB	0ffH
	DB	0e8H
	DB	0ecH
	DB	0f0H
	DB	0ffH
	DB	0e8H
	DB	0f0H
	DB	0f0H
	DB	0ffH
	DB	0e8H
	DB	0ecH
	DB	0f0H
	DB	0ffH
	DB	0f0H
	DB	0ecH
	DB	0f0H
	DB	0ffH
	DB	0e8H
	DB	0ecH
	DB	0f0H
	DB	0ffH
	DB	0f0H
	DB	0ecH
	DB	0f0H
	DB	0ffH
	DB	0e8H
	DB	0ecH
	DB	0f0H
	DB	0ffH
	DB	0e8H
	DB	0ecH
	DB	0f0H
	DB	0ffH
	DB	0e8H
	DB	0ecH
	DB	0f0H
	DB	0ffH
	DB	0e8H
	DB	0ecH
	DB	0f0H
	DB	0ffH
	DB	0e8H
	DB	0ecH
	DB	0e8H
	DB	0ffH
	DB	0e8H
	DB	0ecH
	DB	0f0H
	DB	0ffH
	DB	0e8H
	DB	0ecH
	DB	0e8H
	DB	0ffH
	DB	0e8H
	DB	0ecH
	DB	0f0H
	DB	0ffH
	DB	0e8H
	DB	0ecH
	DB	0e8H
	DB	0ffH
	DB	0e8H
	DB	0e8H
	DB	0e8H
	DB	0ffH
	DB	0e8H
	DB	0ecH
	DB	0f0H
	DB	0ffH
	DB	0e8H
	DB	0ecH
	DB	0f0H
	DB	0ffH
	DB	0e8H
	DB	0ecH
	DB	0f0H
	DB	0ffH
	DB	0e8H
	DB	0ecH
	DB	0f0H
	DB	0ffH
	DB	0e8H
	DB	0ecH
	DB	0e8H
	DB	0ffH
	DB	0e8H
	DB	0e8H
	DB	0e8H
	DB	0ffH
	DB	0e8H
	DB	0e8H
	DB	0e8H
	DB	0ffH
	DB	0e0H
	DB	0e8H
	DB	0e8H
	DB	0ffH
	DB	0e8H
	DB	0e4H
	DB	0e8H
	DB	0ffH
	DB	0e8H
	DB	0e4H
	DB	0e0H
	DB	0ffH
	DB	0e0H
	DB	0e0H
	DB	0e0H
	DB	0ffH
	DB	0e0H
	DB	0dcH
	DB	0e0H
	DB	0ffH
	DB	0d8H
	DB	0d8H
	DB	0d8H
	DB	0ffH
	DB	0e0H
	DB	0dcH
	DB	0d8H
	DB	0ffH
	DB	0d8H
	DB	0d8H
	DB	0d8H
	DB	0ffH
	DB	0d8H
	DB	0d8H
	DB	0d0H
	DB	0ffH
	DB	0d8H
	DB	0d0H
	DB	0c8H
	DB	0ffH
	DB	0d8H
	DB	0ccH
	DB	0c0H
	DB	0ffH
	DB	0d8H
	DB	0ccH
	DB	0b8H
	DB	0ffH
	DB	0d8H
	DB	0c8H
	DB	0b8H
	DB	0ffH
	DB	0d0H
	DB	0c8H
	DB	0b8H
	DB	0ffH
	DB	0d8H
	DB	0c8H
	DB	0b0H
	DB	0ffH
	DB	0d8H
	DB	0ccH
	DB	0b8H
	DB	0ffH
	DB	0d8H
	DB	0ccH
	DB	0b8H
	DB	0ffH
	DB	0d8H
	DB	0c8H
	DB	0b8H
	DB	0ffH
	DB	0d0H
	DB	0c8H
	DB	0b8H
	DB	0ffH
	DB	0d8H
	DB	0c8H
	DB	0b8H
	DB	0ffH
	DB	0d8H
	DB	0c8H
	DB	0b8H
	DB	0ffH
	DB	0d0H
	DB	0c8H
	DB	0b8H
	DB	0ffH
	DB	0d8H
	DB	0c8H
	DB	0b8H
	DB	0ffH
	DB	0d0H
	DB	0c4H
	DB	0b8H
	DB	0ffH
	DB	0d0H
	DB	0c8H
	DB	0b0H
	DB	0ffH
	DB	0d8H
	DB	0c8H
	DB	0b8H
	DB	0ffH
	DB	0d8H
	DB	0c8H
	DB	0b0H
	DB	0ffH
	DB	0d0H
	DB	0c8H
	DB	0b0H
	DB	0ffH
	DB	0d0H
	DB	0c8H
	DB	0b0H
	DB	0ffH
	DB	0d8H
	DB	0c8H
	DB	0b0H
	DB	0ffH
	DB	0d0H
	DB	0c8H
	DB	0b0H
	DB	0ffH
	DB	0d0H
	DB	0c8H
	DB	0b0H
	DB	0ffH
	DB	0d8H
	DB	0c8H
	DB	0b0H
	DB	0ffH
	DB	0d0H
	DB	0c8H
	DB	0b0H
	DB	0ffH
	DB	0d0H
	DB	0c8H
	DB	0b0H
	DB	0ffH
	DB	0d8H
	DB	0c8H
	DB	0b0H
	DB	0ffH
	DB	0d0H
	DB	0c8H
	DB	0b0H
	DB	0ffH
	DB	0d0H
	DB	0c8H
	DB	0b8H
	DB	0ffH
	DB	0d0H
	DB	0c8H
	DB	0b8H
	DB	0ffH
	DB	0d0H
	DB	0c8H
	DB	0b8H
	DB	0ffH
	DB	0d0H
	DB	0c8H
	DB	0b8H
	DB	0ffH
	DB	0d0H
	DB	0c8H
	DB	0b8H
	DB	0ffH
	DB	0d0H
	DB	0c4H
	DB	0b8H
	DB	0ffH
	DB	0d0H
	DB	0c8H
	DB	0b8H
	DB	0ffH
	DB	0d0H
	DB	0ccH
	DB	0b8H
	DB	0ffH
	DB	0d0H
	DB	0c8H
	DB	0b8H
	DB	0ffH
	DB	0d0H
	DB	0c4H
	DB	0b8H
	DB	0ffH
	DB	0d0H
	DB	0c8H
	DB	0b8H
	DB	0ffH
	DB	0d8H
	DB	0ccH
	DB	0b8H
	DB	0ffH
	DB	0d8H
	DB	0ccH
	DB	0c0H
	DB	0ffH
	DB	0d8H
	DB	0ccH
	DB	0c0H
	DB	0ffH
	DB	0d8H
	DB	0ccH
	DB	0b8H
	DB	0ffH
	DB	0d8H
	DB	0ccH
	DB	0c0H
	DB	0ffH
	DB	0d8H
	DB	0ccH
	DB	0c0H
	DB	0ffH
	DB	0d8H
	DB	0d0H
	DB	0c0H
	DB	0ffH
	DB	0d8H
	DB	0d0H
	DB	0c8H
	DB	0ffH
	DB	0d8H
	DB	0d0H
	DB	0d0H
	DB	0ffH
	DB	0d8H
	DB	0d4H
	DB	0d0H
	DB	0ffH
	DB	0e0H
	DB	0d4H
	DB	0d0H
	DB	0ffH
	DB	0e0H
	DB	0d8H
	DB	0d8H
	DB	0ffH
	DB	0e0H
	DB	0dcH
	DB	0d8H
	DB	0ffH
	DB	0e0H
	DB	0d8H
	DB	0d8H
	DB	0ffH
	DB	0e0H
	DB	0d8H
	DB	0d8H
	DB	0ffH
	DB	0d8H
	DB	0d4H
	DB	0d0H
	DB	0ffH
	DB	0d0H
	DB	0ccH
	DB	0c8H
	DB	0ffH
	DB	0d0H
	DB	0ccH
	DB	0c0H
	DB	0ffH
	DB	0d8H
	DB	0d0H
	DB	0c8H
	DB	0ffH
	DB	0d0H
	DB	0d0H
	DB	0c0H
	DB	0ffH
	DB	0d8H
	DB	0ccH
	DB	0c0H
	DB	0ffH
	DB	0d0H
	DB	0ccH
	DB	0b8H
	DB	0ffH
	DB	0d0H
	DB	0c8H
	DB	0b8H
	DB	0ffH
	DB	0d0H
	DB	0c8H
	DB	0b8H
	DB	0ffH
	DB	0d8H
	DB	0d0H
	DB	0c0H
	DB	0ffH
	DB	0d8H
	DB	0d8H
	DB	0d0H
	DB	0ffH
	DB	0e0H
	DB	0dcH
	DB	0d8H
	DB	0ffH
	DB	0e0H
	DB	0dcH
	DB	0d8H
	DB	0ffH
	DB	0e0H
	DB	0d4H
	DB	0d0H
	DB	0ffH
	DB	0d0H
	DB	0ccH
	DB	0c8H
	DB	0ffH
	DB	0d0H
	DB	0c8H
	DB	0c0H
	DB	0ffH
	DB	0d0H
	DB	0c8H
	DB	0c0H
	DB	0ffH
	DB	0d8H
	DB	0d0H
	DB	0c8H
	DB	0ffH
	DB	0d8H
	DB	0d4H
	DB	0d0H
	DB	0ffH
	DB	0d8H
	DB	0d0H
	DB	0d0H
	DB	0ffH
	DB	0d8H
	DB	0d0H
	DB	0c8H
	DB	0ffH
	DB	0d8H
	DB	0d0H
	DB	0c0H
	DB	0ffH
	DB	0d8H
	DB	0d0H
	DB	0c8H
	DB	0ffH
	DB	0d8H
	DB	0d0H
	DB	0c0H
	DB	0ffH
	DB	0d8H
	DB	0ccH
	DB	0c0H
	DB	0ffH
	DB	0d8H
	DB	0c4H
	DB	0b8H
	DB	0ffH
	DB	0d0H
	DB	0c8H
	DB	0b0H
	DB	0ffH
	DB	0d0H
	DB	0c8H
	DB	0b0H
	DB	0ffH
	DB	0d8H
	DB	0c8H
	DB	0b0H
	DB	0ffH
	DB	0d8H
	DB	0c4H
	DB	0b0H
	DB	0ffH
	DB	0d0H
	DB	0c4H
	DB	0b0H
	DB	0ffH
	DB	0d8H
	DB	0c8H
	DB	0b0H
	DB	0ffH
	DB	0d0H
	DB	0c8H
	DB	0b0H
	DB	0ffH
	DB	0d0H
	DB	0c4H
	DB	0b0H
	DB	0ffH
	DB	0d0H
	DB	0c4H
	DB	0b8H
	DB	0ffH
	DB	0d8H
	DB	0ccH
	DB	0b8H
	DB	0ffH
	DB	0d8H
	DB	0ccH
	DB	0b8H
	DB	0ffH
	DB	0d8H
	DB	0c8H
	DB	0b8H
	DB	0ffH
	DB	0d0H
	DB	0c4H
	DB	0b8H
	DB	0ffH
	DB	0d0H
	DB	0c4H
	DB	0b8H
	DB	0ffH
	DB	0d0H
	DB	0c4H
	DB	0b0H
	DB	0ffH
	DB	0d0H
	DB	0c4H
	DB	0b8H
	DB	0ffH
	DB	0d0H
	DB	0c8H
	DB	0c0H
	DB	0ffH
	DB	0d0H
	DB	0c8H
	DB	0c0H
	DB	0ffH
	DB	0d8H
	DB	0d0H
	DB	0d0H
	DB	0ffH
	DB	0d8H
	DB	0d4H
	DB	0d8H
	DB	0ffH
	DB	0e0H
	DB	0e0H
	DB	0e0H
	DB	0ffH
	DB	0e8H
	DB	0e8H
	DB	0e8H
	DB	0ffH
	DB	0e8H
	DB	0ecH
	DB	0f0H
	DB	0ffH
	DB	0f0H
	DB	0f0H
	DB	0f8H
	DB	0ffH
	DB	0f0H
	DB	0f0H
	DB	0f0H
	DB	0ffH
	DB	0f0H
	DB	0f0H
	DB	0f8H
	DB	0ffH
	DB	0e8H
	DB	0f0H
	DB	0f0H
	DB	0ffH
	DB	0e8H
	DB	0f0H
	DB	0f0H
	DB	0ffH
	DB	0f0H
	DB	0f0H
	DB	0f0H
	DB	0ffH
	DB	0e8H
	DB	0f0H
	DB	0f0H
	DB	0ffH
	DB	0e8H
	DB	0f0H
	DB	0f0H
	DB	0ffH
	DB	0f0H
	DB	0f0H
	DB	0f0H
	DB	0ffH
	DB	0e8H
	DB	0ecH
	DB	0f0H
	DB	0ffH
	DB	0e8H
	DB	0ecH
	DB	0f0H
	DB	0ffH
	DB	0e8H
	DB	0ecH
	DB	0f0H
	DB	0ffH
	DB	0e8H
	DB	0ecH
	DB	0f0H
	DB	0ffH
	DB	0e8H
	DB	0ecH
	DB	0f0H
	DB	0ffH
	DB	0e8H
	DB	0ecH
	DB	0f0H
	DB	0ffH
	DB	0e8H
	DB	0ecH
	DB	0e8H
	DB	0ffH
	DB	0e8H
	DB	0ecH
	DB	0e8H
	DB	0ffH
	DB	0e8H
	DB	0ecH
	DB	0f0H
	DB	0ffH
	DB	0e8H
	DB	0ecH
	DB	0f0H
	DB	0ffH
	DB	0e8H
	DB	0e8H
	DB	0e8H
	DB	0ffH
	DB	0e8H
	DB	0e8H
	DB	0e8H
	DB	0ffH
	DB	0e0H
	DB	0e4H
	DB	0e8H
	DB	0ffH
	DB	0e0H
	DB	0e0H
	DB	0e0H
	DB	0ffH
	DB	0e0H
	DB	0e4H
	DB	0e8H
	DB	0ffH
	DB	0e0H
	DB	0e0H
	DB	0e0H
	DB	0ffH
	DB	0e0H
	DB	0e0H
	DB	0e0H
	DB	0ffH
	DB	0f8H
	DB	0fcH
	DB	0f8H
	DB	0ffH
	DB	0f8H
	DB	0fcH
	DB	0f8H
	DB	0ffH
	DB	0f8H
	DB	0fcH
	DB	0f8H
	DB	0ffH
	DB	0f8H
	DB	0fcH
	DB	0f8H
	DB	0ffH
	DB	0f8H
	DB	0fcH
	DB	0f8H
	DB	0ffH
	DB	0f8H
	DB	0fcH
	DB	0f8H
	DB	0ffH
	DB	0f8H
	DB	0fcH
	DB	0f8H
	DB	0ffH
	DB	0f8H
	DB	0fcH
	DB	0f8H
	DB	0ffH
	DB	0f8H
	DB	0fcH
	DB	0f8H
	DB	0ffH
	DB	0f8H
	DB	0fcH
	DB	0f8H
	DB	0ffH
	DB	0f8H
	DB	0fcH
	DB	0f8H
	DB	0ffH
	DB	0f8H
	DB	0fcH
	DB	0f8H
	DB	0ffH
	DB	0f8H
	DB	0fcH
	DB	0f8H
	DB	0ffH
	DB	0f8H
	DB	0fcH
	DB	0f8H
	DB	0ffH
	DB	0f8H
	DB	0fcH
	DB	0f8H
	DB	0ffH
	DB	0f8H
	DB	0fcH
	DB	0f8H
	DB	0ffH
	DB	0f8H
	DB	0fcH
	DB	0f8H
	DB	0ffH
	DB	0f8H
	DB	0fcH
	DB	0f8H
	DB	0ffH
	DB	0f8H
	DB	0fcH
	DB	0f8H
	DB	0ffH
	DB	0f8H
	DB	0fcH
	DB	0f8H
	DB	0ffH
	DB	0f8H
	DB	0fcH
	DB	0f8H
	DB	0ffH
	DB	0f8H
	DB	0fcH
	DB	0f8H
	DB	0ffH
	DB	0f8H
	DB	0fcH
	DB	0f8H
	DB	0ffH
	DB	0f8H
	DB	0fcH
	DB	0f8H
	DB	0ffH
	DB	0f8H
	DB	0fcH
	DB	0f8H
	DB	0ffH
	DB	0f8H
	DB	0fcH
	DB	0f8H
	DB	0ffH
	DB	0f8H
	DB	0fcH
	DB	0f8H
	DB	0ffH
	DB	0f8H
	DB	0fcH
	DB	0f8H
	DB	0ffH
	DB	0f8H
	DB	0fcH
	DB	0f8H
	DB	0ffH
	DB	0f8H
	DB	0fcH
	DB	0f8H
	DB	0ffH
	DB	0f8H
	DB	0fcH
	DB	0f8H
	DB	0ffH
	DB	0f8H
	DB	0fcH
	DB	0f8H
	DB	0ffH
	DB	0f8H
	DB	0fcH
	DB	0f8H
	DB	0ffH
	DB	0f8H
	DB	0fcH
	DB	0f8H
	DB	0ffH
	DB	0f8H
	DB	0fcH
	DB	0f8H
	DB	0ffH
	DB	0f8H
	DB	0fcH
	DB	0f8H
	DB	0ffH
	DB	0f8H
	DB	0fcH
	DB	0f8H
	DB	0ffH
	DB	0f8H
	DB	0fcH
	DB	0f8H
	DB	0ffH
	DB	0f8H
	DB	0fcH
	DB	0f8H
	DB	0ffH
	DB	0f8H
	DB	0fcH
	DB	0f8H
	DB	0ffH
	DB	0f8H
	DB	0fcH
	DB	0f8H
	DB	0ffH
	DB	0f8H
	DB	0fcH
	DB	0f8H
	DB	0ffH
	DB	0f8H
	DB	0fcH
	DB	0f8H
	DB	0ffH
	DB	0f8H
	DB	0fcH
	DB	0f8H
	DB	0ffH
	DB	0f8H
	DB	0fcH
	DB	0f8H
	DB	0ffH
	DB	0f8H
	DB	0fcH
	DB	0f8H
	DB	0ffH
	DB	0f8H
	DB	0fcH
	DB	0f8H
	DB	0ffH
	DB	0f8H
	DB	0fcH
	DB	0f8H
	DB	0ffH
	DB	0f8H
	DB	0fcH
	DB	0f8H
	DB	0ffH
	DB	0f8H
	DB	0fcH
	DB	0f8H
	DB	0ffH
	DB	0f8H
	DB	0fcH
	DB	0f8H
	DB	0ffH
	DB	0f8H
	DB	0fcH
	DB	0f8H
	DB	0ffH
	DB	0f8H
	DB	0fcH
	DB	0f8H
	DB	0ffH
	DB	0f8H
	DB	0fcH
	DB	0f8H
	DB	0ffH
	DB	0f8H
	DB	0fcH
	DB	0f8H
	DB	0ffH
	DB	0f8H
	DB	0fcH
	DB	0f8H
	DB	0ffH
	DB	0f8H
	DB	0fcH
	DB	0f8H
	DB	0ffH
	DB	0f8H
	DB	0f8H
	DB	0f8H
	DB	0ffH
	DB	0f8H
	DB	0fcH
	DB	0f8H
	DB	0ffH
	DB	0f8H
	DB	0f8H
	DB	0f8H
	DB	0ffH
	DB	0f8H
	DB	0fcH
	DB	0f8H
	DB	0ffH
	DB	0f8H
	DB	0fcH
	DB	0f8H
	DB	0ffH
	DB	0f8H
	DB	0f8H
	DB	0f8H
	DB	0ffH
	DB	0f8H
	DB	0f8H
	DB	0f8H
	DB	0ffH
	DB	0f8H
	DB	0f8H
	DB	0f8H
	DB	0ffH
	DB	0f8H
	DB	0f8H
	DB	0f8H
	DB	0ffH
	DB	0f8H
	DB	0f8H
	DB	0f8H
	DB	0ffH
	DB	0f8H
	DB	0f8H
	DB	0f8H
	DB	0ffH
	DB	0f8H
	DB	0f8H
	DB	0f8H
	DB	0ffH
	DB	0f8H
	DB	0f8H
	DB	0f8H
	DB	0ffH
	DB	0f0H
	DB	0f8H
	DB	0f8H
	DB	0ffH
	DB	0f8H
	DB	0f8H
	DB	0f8H
	DB	0ffH
	DB	0f8H
	DB	0f8H
	DB	0f8H
	DB	0ffH
	DB	0f8H
	DB	0f8H
	DB	0f8H
	DB	0ffH
	DB	0f8H
	DB	0f8H
	DB	0f8H
	DB	0ffH
	DB	0f8H
	DB	0f8H
	DB	0f8H
	DB	0ffH
	DB	0f8H
	DB	0f8H
	DB	0f8H
	DB	0ffH
	DB	0f8H
	DB	0f8H
	DB	0f8H
	DB	0ffH
	DB	0f8H
	DB	0f8H
	DB	0f8H
	DB	0ffH
	DB	0f8H
	DB	0f8H
	DB	0f8H
	DB	0ffH
	DB	0f8H
	DB	0f8H
	DB	0f8H
	DB	0ffH
	DB	0f8H
	DB	0fcH
	DB	0f8H
	DB	0ffH
	DB	0f8H
	DB	0fcH
	DB	0f8H
	DB	0ffH
	DB	0f8H
	DB	0fcH
	DB	0f8H
	DB	0ffH
	DB	0f8H
	DB	0fcH
	DB	0f8H
	DB	0ffH
	DB	0f8H
	DB	0fcH
	DB	0f8H
	DB	0ffH
	DB	0f8H
	DB	0fcH
	DB	0f8H
	DB	0ffH
	DB	0f8H
	DB	0fcH
	DB	0f8H
	DB	0ffH
	DB	0f8H
	DB	0fcH
	DB	0f8H
	DB	0ffH
	DB	0f8H
	DB	0fcH
	DB	0f8H
	DB	0ffH
	DB	0f8H
	DB	0fcH
	DB	0f8H
	DB	0ffH
	DB	0f8H
	DB	0fcH
	DB	0f8H
	DB	0ffH
	DB	0f8H
	DB	0fcH
	DB	0f8H
	DB	0ffH
	DB	0f8H
	DB	0f8H
	DB	0f8H
	DB	0ffH
	DB	0f8H
	DB	0fcH
	DB	0f8H
	DB	0ffH
	DB	0f8H
	DB	0fcH
	DB	0f8H
	DB	0ffH
	DB	0f8H
	DB	0f8H
	DB	0f8H
	DB	0ffH
	DB	0f0H
	DB	0f8H
	DB	0f8H
	DB	0ffH
	DB	0f8H
	DB	0f4H
	DB	0f8H
	DB	0ffH
	DB	0f0H
	DB	0f4H
	DB	0f8H
	DB	0ffH
	DB	0f0H
	DB	0f4H
	DB	0f8H
	DB	0ffH
	DB	0f0H
	DB	0f4H
	DB	0f0H
	DB	0ffH
	DB	0f0H
	DB	0f0H
	DB	0f0H
	DB	0ffH
	DB	0f0H
	DB	0f0H
	DB	0f0H
	DB	0ffH
	DB	0f0H
	DB	0f0H
	DB	0f0H
	DB	0ffH
	DB	0f0H
	DB	0f0H
	DB	0f0H
	DB	0ffH
	DB	0e8H
	DB	0ecH
	DB	0e8H
	DB	0ffH
	DB	0f0H
	DB	0f0H
	DB	0f0H
	DB	0ffH
	DB	0f0H
	DB	0ecH
	DB	0f0H
	DB	0ffH
	DB	0f0H
	DB	0ecH
	DB	0f0H
	DB	0ffH
	DB	0e8H
	DB	0ecH
	DB	0e8H
	DB	0ffH
	DB	0f0H
	DB	0ecH
	DB	0f0H
	DB	0ffH
	DB	0f0H
	DB	0ecH
	DB	0f0H
	DB	0ffH
	DB	0e8H
	DB	0ecH
	DB	0e8H
	DB	0ffH
	DB	0f0H
	DB	0ecH
	DB	0f0H
	DB	0ffH
	DB	0e8H
	DB	0ecH
	DB	0e8H
	DB	0ffH
	DB	0f0H
	DB	0ecH
	DB	0f0H
	DB	0ffH
	DB	0f0H
	DB	0ecH
	DB	0f0H
	DB	0ffH
	DB	0e8H
	DB	0ecH
	DB	0e8H
	DB	0ffH
	DB	0e8H
	DB	0ecH
	DB	0e8H
	DB	0ffH
	DB	0f0H
	DB	0e8H
	DB	0f0H
	DB	0ffH
	DB	0e8H
	DB	0ecH
	DB	0e8H
	DB	0ffH
	DB	0e8H
	DB	0ecH
	DB	0e8H
	DB	0ffH
	DB	0e8H
	DB	0e8H
	DB	0e8H
	DB	0ffH
	DB	0f0H
	DB	0ecH
	DB	0f0H
	DB	0ffH
	DB	0f0H
	DB	0ecH
	DB	0f0H
	DB	0ffH
	DB	0f0H
	DB	0f0H
	DB	0f0H
	DB	0ffH
	DB	0e8H
	DB	0ecH
	DB	0f0H
	DB	0ffH
	DB	0f0H
	DB	0ecH
	DB	0e8H
	DB	0ffH
	DB	0f0H
	DB	0f0H
	DB	0f0H
	DB	0ffH
	DB	0e8H
	DB	0ecH
	DB	0f0H
	DB	0ffH
	DB	0f0H
	DB	0f0H
	DB	0f0H
	DB	0ffH
	DB	0e8H
	DB	0f0H
	DB	0f0H
	DB	0ffH
	DB	0f0H
	DB	0f0H
	DB	0f0H
	DB	0ffH
	DB	0f0H
	DB	0f0H
	DB	0f0H
	DB	0ffH
	DB	0e8H
	DB	0f0H
	DB	0f0H
	DB	0ffH
	DB	0f0H
	DB	0f0H
	DB	0f0H
	DB	0ffH
	DB	0f0H
	DB	0f0H
	DB	0f0H
	DB	0ffH
	DB	0f0H
	DB	0f0H
	DB	0f0H
	DB	0ffH
	DB	0e8H
	DB	0f0H
	DB	0f0H
	DB	0ffH
	DB	0f0H
	DB	0f0H
	DB	0f0H
	DB	0ffH
	DB	0f0H
	DB	0f0H
	DB	0f0H
	DB	0ffH
	DB	0e8H
	DB	0f0H
	DB	0f0H
	DB	0ffH
	DB	0f0H
	DB	0f0H
	DB	0f0H
	DB	0ffH
	DB	0f0H
	DB	0f0H
	DB	0f0H
	DB	0ffH
	DB	0f0H
	DB	0f0H
	DB	0f0H
	DB	0ffH
	DB	0e8H
	DB	0f0H
	DB	0f0H
	DB	0ffH
	DB	0e8H
	DB	0ecH
	DB	0f0H
	DB	0ffH
	DB	0f0H
	DB	0ecH
	DB	0f0H
	DB	0ffH
	DB	0e8H
	DB	0ecH
	DB	0f0H
	DB	0ffH
	DB	0e8H
	DB	0ecH
	DB	0e8H
	DB	0ffH
	DB	0e8H
	DB	0ecH
	DB	0e8H
	DB	0ffH
	DB	0e8H
	DB	0e8H
	DB	0e8H
	DB	0ffH
	DB	0e8H
	DB	0e8H
	DB	0e8H
	DB	0ffH
	DB	0e8H
	DB	0e8H
	DB	0e8H
	DB	0ffH
	DB	0e8H
	DB	0e8H
	DB	0e8H
	DB	0ffH
	DB	0e8H
	DB	0e8H
	DB	0e8H
	DB	0ffH
	DB	0e8H
	DB	0e8H
	DB	0e8H
	DB	0ffH
	DB	0e8H
	DB	0e4H
	DB	0e0H
	DB	0ffH
	DB	0e8H
	DB	0e8H
	DB	0e8H
	DB	0ffH
	DB	0e8H
	DB	0e8H
	DB	0e8H
	DB	0ffH
	DB	0e8H
	DB	0e8H
	DB	0e8H
	DB	0ffH
	DB	0e0H
	DB	0e4H
	DB	0e0H
	DB	0ffH
	DB	0e0H
	DB	0e4H
	DB	0e8H
	DB	0ffH
	DB	0e0H
	DB	0e8H
	DB	0e8H
	DB	0ffH
	DB	0e0H
	DB	0e8H
	DB	0e8H
	DB	0ffH
	DB	0e0H
	DB	0e4H
	DB	0e8H
	DB	0ffH
	DB	0e8H
	DB	0e8H
	DB	0e8H
	DB	0ffH
	DB	0e8H
	DB	0e4H
	DB	0e8H
	DB	0ffH
	DB	0e0H
	DB	0e4H
	DB	0e8H
	DB	0ffH
	DB	0e8H
	DB	0e8H
	DB	0e8H
	DB	0ffH
	DB	0e0H
	DB	0e4H
	DB	0e8H
	DB	0ffH
	DB	0e8H
	DB	0e4H
	DB	0e8H
	DB	0ffH
	DB	0e0H
	DB	0e4H
	DB	0e8H
	DB	0ffH
	DB	0e0H
	DB	0e4H
	DB	0e0H
	DB	0ffH
	DB	0e8H
	DB	0e4H
	DB	0e8H
	DB	0ffH
	DB	0e8H
	DB	0e8H
	DB	0e8H
	DB	0ffH
	DB	0e8H
	DB	0e8H
	DB	0e8H
	DB	0ffH
	DB	0e8H
	DB	0e8H
	DB	0e8H
	DB	0ffH
	DB	0e8H
	DB	0ecH
	DB	0e8H
	DB	0ffH
	DB	0f0H
	DB	0ecH
	DB	0e8H
	DB	0ffH
	DB	0e8H
	DB	0e8H
	DB	0e8H
	DB	0ffH
	DB	0e8H
	DB	0e8H
	DB	0e8H
	DB	0ffH
	DB	0e8H
	DB	0e8H
	DB	0e8H
	DB	0ffH
	DB	0e8H
	DB	0e4H
	DB	0e0H
	DB	0ffH
	DB	0e8H
	DB	0e8H
	DB	0e8H
	DB	0ffH
	DB	0e8H
	DB	0e4H
	DB	0e8H
	DB	0ffH
	DB	0e8H
	DB	0e4H
	DB	0e8H
	DB	0ffH
	DB	0e8H
	DB	0e4H
	DB	0e0H
	DB	0ffH
	DB	0e8H
	DB	0e4H
	DB	0e8H
	DB	0ffH
	DB	0e8H
	DB	0e4H
	DB	0e0H
	DB	0ffH
	DB	0e8H
	DB	0e0H
	DB	0e0H
	DB	0ffH
	DB	0e8H
	DB	0e0H
	DB	0e0H
	DB	0ffH
	DB	0e8H
	DB	0e0H
	DB	0e0H
	DB	0ffH
	DB	0e0H
	DB	0e0H
	DB	0e0H
	DB	0ffH
	DB	0e8H
	DB	0e0H
	DB	0e0H
	DB	0ffH
	DB	0e8H
	DB	0e0H
	DB	0e0H
	DB	0ffH
	DB	0e8H
	DB	0dcH
	DB	0e0H
	DB	0ffH
	DB	0e0H
	DB	0dcH
	DB	0e0H
	DB	0ffH
	DB	0e0H
	DB	0dcH
	DB	0e0H
	DB	0ffH
	DB	0e8H
	DB	0e0H
	DB	0e0H
	DB	0ffH
	DB	0e8H
	DB	0e0H
	DB	0e0H
	DB	0ffH
	DB	0e8H
	DB	0dcH
	DB	0e0H
	DB	0ffH
	DB	0e8H
	DB	0e0H
	DB	0e0H
	DB	0ffH
	DB	0e8H
	DB	0e0H
	DB	0e0H
	DB	0ffH
	DB	0e8H
	DB	0e0H
	DB	0e0H
	DB	0ffH
	DB	0e8H
	DB	0e0H
	DB	0e0H
	DB	0ffH
	DB	0e8H
	DB	0e4H
	DB	0e0H
	DB	0ffH
	DB	0e0H
	DB	0e0H
	DB	0e0H
	DB	0ffH
	DB	0e0H
	DB	0dcH
	DB	0d8H
	DB	0ffH
	DB	0e0H
	DB	0dcH
	DB	0e0H
	DB	0ffH
	DB	0d8H
	DB	0d8H
	DB	0d8H
	DB	0ffH
	DB	0d8H
	DB	0d0H
	DB	0d0H
	DB	0ffH
	DB	0e0H
	DB	0d4H
	DB	0c8H
	DB	0ffH
	DB	0e0H
	DB	0d4H
	DB	0d0H
	DB	0ffH
	DB	0e0H
	DB	0d8H
	DB	0d0H
	DB	0ffH
	DB	0d8H
	DB	0d4H
	DB	0d0H
	DB	0ffH
	DB	0e0H
	DB	0d8H
	DB	0d0H
	DB	0ffH
	DB	0e0H
	DB	0dcH
	DB	0d0H
	DB	0ffH
	DB	0e0H
	DB	0dcH
	DB	0d8H
	DB	0ffH
	DB	0e0H
	DB	0e0H
	DB	0d8H
	DB	0ffH
	DB	0e8H
	DB	0e0H
	DB	0e0H
	DB	0ffH
	DB	0e0H
	DB	0dcH
	DB	0e0H
	DB	0ffH
	DB	0e0H
	DB	0dcH
	DB	0e0H
	DB	0ffH
	DB	0e0H
	DB	0dcH
	DB	0e0H
	DB	0ffH
	DB	0e0H
	DB	0e0H
	DB	0e0H
	DB	0ffH
	DB	0e8H
	DB	0e0H
	DB	0e0H
	DB	0ffH
	DB	0e0H
	DB	0e0H
	DB	0d8H
	DB	0ffH
	DB	0e0H
	DB	0e0H
	DB	0d8H
	DB	0ffH
	DB	0e0H
	DB	0dcH
	DB	0d8H
	DB	0ffH
	DB	0e0H
	DB	0d8H
	DB	0d8H
	DB	0ffH
	DB	0e0H
	DB	0dcH
	DB	0d8H
	DB	0ffH
	DB	0e0H
	DB	0d8H
	DB	0d8H
	DB	0ffH
	DB	0e0H
	DB	0d4H
	DB	0d0H
	DB	0ffH
	DB	0d8H
	DB	0d4H
	DB	0d0H
	DB	0ffH
	DB	0d8H
	DB	0d4H
	DB	0c8H
	DB	0ffH
	DB	0e0H
	DB	0d8H
	DB	0c8H
	DB	0ffH
	DB	0e0H
	DB	0d4H
	DB	0c8H
	DB	0ffH
	DB	0d8H
	DB	0d0H
	DB	0c0H
	DB	0ffH
	DB	0d8H
	DB	0d0H
	DB	0c8H
	DB	0ffH
	DB	0d8H
	DB	0d0H
	DB	0c8H
	DB	0ffH
	DB	0e0H
	DB	0d0H
	DB	0c0H
	DB	0ffH
	DB	0d8H
	DB	0d0H
	DB	0c0H
	DB	0ffH
	DB	0d8H
	DB	0d4H
	DB	0c0H
	DB	0ffH
	DB	0d8H
	DB	0d0H
	DB	0c0H
	DB	0ffH
	DB	0d8H
	DB	0d4H
	DB	0c0H
	DB	0ffH
	DB	0d8H
	DB	0d4H
	DB	0c8H
	DB	0ffH
	DB	0d8H
	DB	0d4H
	DB	0d0H
	DB	0ffH
	DB	0d8H
	DB	0d8H
	DB	0d0H
	DB	0ffH
	DB	0d8H
	DB	0d8H
	DB	0d0H
	DB	0ffH
	DB	0e0H
	DB	0dcH
	DB	0d8H
	DB	0ffH
	DB	0e0H
	DB	0e0H
	DB	0e0H
	DB	0ffH
	DB	0e8H
	DB	0e0H
	DB	0e0H
	DB	0ffH
	DB	0e8H
	DB	0e4H
	DB	0e8H
	DB	0ffH
	DB	0e8H
	DB	0e8H
	DB	0e8H
	DB	0ffH
	DB	0e8H
	DB	0e8H
	DB	0e0H
	DB	0ffH
	DB	0e8H
	DB	0e8H
	DB	0e8H
	DB	0ffH
	DB	0e8H
	DB	0e8H
	DB	0e8H
	DB	0ffH
	DB	0e8H
	DB	0e8H
	DB	0e8H
	DB	0ffH
	DB	0e8H
	DB	0ecH
	DB	0e8H
	DB	0ffH
	DB	0e8H
	DB	0e8H
	DB	0e8H
	DB	0ffH
	DB	0e8H
	DB	0e8H
	DB	0e8H
	DB	0ffH
	DB	0e0H
	DB	0e8H
	DB	0e8H
	DB	0ffH
	DB	0e8H
	DB	0e8H
	DB	0e8H
	DB	0ffH
	DB	0e8H
	DB	0e8H
	DB	0e8H
	DB	0ffH
	DB	0e8H
	DB	0e8H
	DB	0e8H
	DB	0ffH
	DB	0e8H
	DB	0e8H
	DB	0e8H
	DB	0ffH
	DB	0e8H
	DB	0e8H
	DB	0e8H
	DB	0ffH
	DB	0e8H
	DB	0e8H
	DB	0e8H
	DB	0ffH
	DB	0e8H
	DB	0e8H
	DB	0e8H
	DB	0ffH
	DB	0e8H
	DB	0e8H
	DB	0e8H
	DB	0ffH
	DB	0e8H
	DB	0e4H
	DB	0e8H
	DB	0ffH
	DB	0e0H
	DB	0e0H
	DB	0e0H
	DB	0ffH
	DB	0e0H
	DB	0e4H
	DB	0e8H
	DB	0ffH
	DB	0e8H
	DB	0e4H
	DB	0e8H
	DB	0ffH
	DB	0e8H
	DB	0e4H
	DB	0e0H
	DB	0ffH
	DB	0e8H
	DB	0e8H
	DB	0e8H
	DB	0ffH
	DB	0e8H
	DB	0e8H
	DB	0e8H
	DB	0ffH
	DB	0e8H
	DB	0e8H
	DB	0e8H
	DB	0ffH
	DB	0e8H
	DB	0ecH
	DB	0e8H
	DB	0ffH
	DB	0e8H
	DB	0ecH
	DB	0f0H
	DB	0ffH
	DB	0e8H
	DB	0f0H
	DB	0f0H
	DB	0ffH
	DB	0f0H
	DB	0f0H
	DB	0f0H
	DB	0ffH
	DB	0e8H
	DB	0ecH
	DB	0f0H
	DB	0ffH
	DB	0e0H
	DB	0e8H
	DB	0e8H
	DB	0ffH
	DB	0e8H
	DB	0e4H
	DB	0e8H
	DB	0ffH
	DB	0e8H
	DB	0e8H
	DB	0e8H
	DB	0ffH
	DB	0e0H
	DB	0e8H
	DB	0e8H
	DB	0ffH
	DB	0e0H
	DB	0e4H
	DB	0e8H
	DB	0ffH
	DB	0e0H
	DB	0e4H
	DB	0e0H
	DB	0ffH
	DB	0e0H
	DB	0e4H
	DB	0e0H
	DB	0ffH
	DB	0e0H
	DB	0e0H
	DB	0e0H
	DB	0ffH
	DB	0e0H
	DB	0e0H
	DB	0e0H
	DB	0ffH
	DB	0e0H
	DB	0e0H
	DB	0e0H
	DB	0ffH
	DB	0e0H
	DB	0dcH
	DB	0e0H
	DB	0ffH
	DB	0e0H
	DB	0dcH
	DB	0d8H
	DB	0ffH
	DB	0d8H
	DB	0d8H
	DB	0d8H
	DB	0ffH
	DB	0d8H
	DB	0d0H
	DB	0d0H
	DB	0ffH
	DB	0d8H
	DB	0d0H
	DB	0d0H
	DB	0ffH
	DB	0d8H
	DB	0d4H
	DB	0d0H
	DB	0ffH
	DB	0e0H
	DB	0dcH
	DB	0d8H
	DB	0ffH
	DB	0e0H
	DB	0dcH
	DB	0d8H
	DB	0ffH
	DB	0e0H
	DB	0dcH
	DB	0d8H
	DB	0ffH
	DB	0e0H
	DB	0d8H
	DB	0d8H
	DB	0ffH
	DB	0e0H
	DB	0dcH
	DB	0e0H
	DB	0ffH
	DB	0e0H
	DB	0dcH
	DB	0e0H
	DB	0ffH
	DB	0e8H
	DB	0dcH
	DB	0e0H
	DB	0ffH
	DB	0e0H
	DB	0dcH
	DB	0d8H
	DB	0ffH
	DB	0e0H
	DB	0dcH
	DB	0e0H
	DB	0ffH
	DB	0e0H
	DB	0d8H
	DB	0d8H
	DB	0ffH
	DB	0e0H
	DB	0dcH
	DB	0d8H
	DB	0ffH
	DB	0d8H
	DB	0dcH
	DB	0d8H
	DB	0ffH
	DB	0d8H
	DB	0dcH
	DB	0e0H
	DB	0ffH
	DB	0e0H
	DB	0e0H
	DB	0e0H
	DB	0ffH
	DB	0e0H
	DB	0e0H
	DB	0e0H
	DB	0ffH
	DB	0e0H
	DB	0dcH
	DB	0e0H
	DB	0ffH
	DB	0e0H
	DB	0e0H
	DB	0e0H
	DB	0ffH
	DB	0e8H
	DB	0e4H
	DB	0e0H
	DB	0ffH
	DB	0e8H
	DB	0e4H
	DB	0e8H
	DB	0ffH
	DB	0e8H
	DB	0e8H
	DB	0e8H
	DB	0ffH
	DB	0e8H
	DB	0ecH
	DB	0e8H
	DB	0ffH
	DB	0f0H
	DB	0f0H
	DB	0f0H
	DB	0ffH
	DB	0e8H
	DB	0ecH
	DB	0f0H
	DB	0ffH
	DB	0e8H
	DB	0ecH
	DB	0e8H
	DB	0ffH
	DB	0e8H
	DB	0ecH
	DB	0f0H
	DB	0ffH
	DB	0f0H
	DB	0f0H
	DB	0f0H
	DB	0ffH
	DB	0f0H
	DB	0f0H
	DB	0f0H
	DB	0ffH
	DB	0f0H
	DB	0f0H
	DB	0f0H
	DB	0ffH
	DB	0f0H
	DB	0f0H
	DB	0f0H
	DB	0ffH
	DB	0f0H
	DB	0f0H
	DB	0f0H
	DB	0ffH
	DB	0f0H
	DB	0f0H
	DB	0f0H
	DB	0ffH
	DB	0f0H
	DB	0f0H
	DB	0f0H
	DB	0ffH
	DB	0e8H
	DB	0ecH
	DB	0f0H
	DB	0ffH
	DB	0e8H
	DB	0ecH
	DB	0f0H
	DB	0ffH
	DB	0f0H
	DB	0ecH
	DB	0f0H
	DB	0ffH
	DB	0f0H
	DB	0f0H
	DB	0f0H
	DB	0ffH
	DB	0f0H
	DB	0ecH
	DB	0f0H
	DB	0ffH
	DB	0e8H
	DB	0ecH
	DB	0f0H
	DB	0ffH
	DB	0e8H
	DB	0ecH
	DB	0f0H
	DB	0ffH
	DB	0e8H
	DB	0ecH
	DB	0f0H
	DB	0ffH
	DB	0e8H
	DB	0ecH
	DB	0e8H
	DB	0ffH
	DB	0e8H
	DB	0e8H
	DB	0e8H
	DB	0ffH
	DB	0e0H
	DB	0e4H
	DB	0e8H
	DB	0ffH
	DB	0e0H
	DB	0e4H
	DB	0e0H
	DB	0ffH
	DB	0e0H
	DB	0e4H
	DB	0e8H
	DB	0ffH
	DB	0e0H
	DB	0e0H
	DB	0e0H
	DB	0ffH
	DB	0e0H
	DB	0dcH
	DB	0e0H
	DB	0ffH
	DB	0e0H
	DB	0dcH
	DB	0e0H
	DB	0ffH
	DB	0d8H
	DB	0d8H
	DB	0d8H
	DB	0ffH
	DB	0e0H
	DB	0d8H
	DB	0d8H
	DB	0ffH
	DB	0d8H
	DB	0d8H
	DB	0d8H
	DB	0ffH
	DB	0d8H
	DB	0d0H
	DB	0c8H
	DB	0ffH
	DB	0d8H
	DB	0ccH
	DB	0c0H
	DB	0ffH
	DB	0d8H
	DB	0c8H
	DB	0c0H
	DB	0ffH
	DB	0d8H
	DB	0c8H
	DB	0b8H
	DB	0ffH
	DB	0d8H
	DB	0c8H
	DB	0b8H
	DB	0ffH
	DB	0d8H
	DB	0ccH
	DB	0b8H
	DB	0ffH
	DB	0d8H
	DB	0ccH
	DB	0b0H
	DB	0ffH
	DB	0d8H
	DB	0c8H
	DB	0b8H
	DB	0ffH
	DB	0d8H
	DB	0c8H
	DB	0b8H
	DB	0ffH
	DB	0d0H
	DB	0c8H
	DB	0b8H
	DB	0ffH
	DB	0d8H
	DB	0c8H
	DB	0b8H
	DB	0ffH
	DB	0d8H
	DB	0c8H
	DB	0b8H
	DB	0ffH
	DB	0d8H
	DB	0c8H
	DB	0b8H
	DB	0ffH
	DB	0d8H
	DB	0c8H
	DB	0b8H
	DB	0ffH
	DB	0d0H
	DB	0c8H
	DB	0b0H
	DB	0ffH
	DB	0d8H
	DB	0c8H
	DB	0b8H
	DB	0ffH
	DB	0d8H
	DB	0c8H
	DB	0b0H
	DB	0ffH
	DB	0d8H
	DB	0c4H
	DB	0b0H
	DB	0ffH
	DB	0d8H
	DB	0c4H
	DB	0b0H
	DB	0ffH
	DB	0d0H
	DB	0c8H
	DB	0b0H
	DB	0ffH
	DB	0d8H
	DB	0c8H
	DB	0b0H
	DB	0ffH
	DB	0d8H
	DB	0c8H
	DB	0b0H
	DB	0ffH
	DB	0d8H
	DB	0c8H
	DB	0b0H
	DB	0ffH
	DB	0d8H
	DB	0c8H
	DB	0b0H
	DB	0ffH
	DB	0d0H
	DB	0c8H
	DB	0a8H
	DB	0ffH
	DB	0d0H
	DB	0c8H
	DB	0b0H
	DB	0ffH
	DB	0d0H
	DB	0c8H
	DB	0b0H
	DB	0ffH
	DB	0d0H
	DB	0c8H
	DB	0b0H
	DB	0ffH
	DB	0d0H
	DB	0c8H
	DB	0b8H
	DB	0ffH
	DB	0d0H
	DB	0c8H
	DB	0c0H
	DB	0ffH
	DB	0d0H
	DB	0c8H
	DB	0c0H
	DB	0ffH
	DB	0d0H
	DB	0c4H
	DB	0b8H
	DB	0ffH
	DB	0d0H
	DB	0c8H
	DB	0b8H
	DB	0ffH
	DB	0d8H
	DB	0c8H
	DB	0b8H
	DB	0ffH
	DB	0d0H
	DB	0c8H
	DB	0b8H
	DB	0ffH
	DB	0d8H
	DB	0c8H
	DB	0b8H
	DB	0ffH
	DB	0d0H
	DB	0c8H
	DB	0b8H
	DB	0ffH
	DB	0d0H
	DB	0c8H
	DB	0b8H
	DB	0ffH
	DB	0d8H
	DB	0ccH
	DB	0b8H
	DB	0ffH
	DB	0d8H
	DB	0ccH
	DB	0c0H
	DB	0ffH
	DB	0d8H
	DB	0ccH
	DB	0b8H
	DB	0ffH
	DB	0d0H
	DB	0c8H
	DB	0b8H
	DB	0ffH
	DB	0d0H
	DB	0c8H
	DB	0b8H
	DB	0ffH
	DB	0d0H
	DB	0ccH
	DB	0c0H
	DB	0ffH
	DB	0d8H
	DB	0d0H
	DB	0c0H
	DB	0ffH
	DB	0d8H
	DB	0d0H
	DB	0c0H
	DB	0ffH
	DB	0d8H
	DB	0d0H
	DB	0c8H
	DB	0ffH
	DB	0d8H
	DB	0d4H
	DB	0c8H
	DB	0ffH
	DB	0d8H
	DB	0d0H
	DB	0c8H
	DB	0ffH
	DB	0d8H
	DB	0d4H
	DB	0c8H
	DB	0ffH
	DB	0d8H
	DB	0d8H
	DB	0d0H
	DB	0ffH
	DB	0e0H
	DB	0d8H
	DB	0d8H
	DB	0ffH
	DB	0e0H
	DB	0d8H
	DB	0d0H
	DB	0ffH
	DB	0e0H
	DB	0d8H
	DB	0d0H
	DB	0ffH
	DB	0d8H
	DB	0d4H
	DB	0d0H
	DB	0ffH
	DB	0d0H
	DB	0c8H
	DB	0c0H
	DB	0ffH
	DB	0c8H
	DB	0c8H
	DB	0c0H
	DB	0ffH
	DB	0d0H
	DB	0d0H
	DB	0c0H
	DB	0ffH
	DB	0d8H
	DB	0d0H
	DB	0c8H
	DB	0ffH
	DB	0d0H
	DB	0d0H
	DB	0c8H
	DB	0ffH
	DB	0d8H
	DB	0d4H
	DB	0d0H
	DB	0ffH
	DB	0d8H
	DB	0d4H
	DB	0d0H
	DB	0ffH
	DB	0d0H
	DB	0ccH
	DB	0c0H
	DB	0ffH
	DB	0e0H
	DB	0dcH
	DB	0d0H
	DB	0ffH
	DB	0e0H
	DB	0e4H
	DB	0e0H
	DB	0ffH
	DB	0e8H
	DB	0e8H
	DB	0e8H
	DB	0ffH
	DB	0e8H
	DB	0e4H
	DB	0e8H
	DB	0ffH
	DB	0e0H
	DB	0e0H
	DB	0e0H
	DB	0ffH
	DB	0e0H
	DB	0dcH
	DB	0e0H
	DB	0ffH
	DB	0d8H
	DB	0d4H
	DB	0d8H
	DB	0ffH
	DB	0d8H
	DB	0d0H
	DB	0d0H
	DB	0ffH
	DB	0e0H
	DB	0d4H
	DB	0d8H
	DB	0ffH
	DB	0d8H
	DB	0d4H
	DB	0d0H
	DB	0ffH
	DB	0d8H
	DB	0d0H
	DB	0d0H
	DB	0ffH
	DB	0d0H
	DB	0d0H
	DB	0c8H
	DB	0ffH
	DB	0d0H
	DB	0d0H
	DB	0c8H
	DB	0ffH
	DB	0d8H
	DB	0ccH
	DB	0c8H
	DB	0ffH
	DB	0d8H
	DB	0ccH
	DB	0c0H
	DB	0ffH
	DB	0d0H
	DB	0ccH
	DB	0b8H
	DB	0ffH
	DB	0d0H
	DB	0c4H
	DB	0b8H
	DB	0ffH
	DB	0d0H
	DB	0c8H
	DB	0b8H
	DB	0ffH
	DB	0d0H
	DB	0c8H
	DB	0b8H
	DB	0ffH
	DB	0d8H
	DB	0c8H
	DB	0b0H
	DB	0ffH
	DB	0d8H
	DB	0c8H
	DB	0b0H
	DB	0ffH
	DB	0d0H
	DB	0c4H
	DB	0b0H
	DB	0ffH
	DB	0d8H
	DB	0c8H
	DB	0b0H
	DB	0ffH
	DB	0d0H
	DB	0c4H
	DB	0b0H
	DB	0ffH
	DB	0d0H
	DB	0c4H
	DB	0b0H
	DB	0ffH
	DB	0d8H
	DB	0c4H
	DB	0b8H
	DB	0ffH
	DB	0d8H
	DB	0c8H
	DB	0c0H
	DB	0ffH
	DB	0d8H
	DB	0c8H
	DB	0c0H
	DB	0ffH
	DB	0d0H
	DB	0c4H
	DB	0b8H
	DB	0ffH
	DB	0d0H
	DB	0c4H
	DB	0b8H
	DB	0ffH
	DB	0d0H
	DB	0c4H
	DB	0b8H
	DB	0ffH
	DB	0d0H
	DB	0c8H
	DB	0b8H
	DB	0ffH
	DB	0d0H
	DB	0c8H
	DB	0b8H
	DB	0ffH
	DB	0d0H
	DB	0d0H
	DB	0c8H
	DB	0ffH
	DB	0d8H
	DB	0d4H
	DB	0d8H
	DB	0ffH
	DB	0e0H
	DB	0d8H
	DB	0e0H
	DB	0ffH
	DB	0e0H
	DB	0e0H
	DB	0e8H
	DB	0ffH
	DB	0e8H
	DB	0e8H
	DB	0e8H
	DB	0ffH
	DB	0e8H
	DB	0ecH
	DB	0f0H
	DB	0ffH
	DB	0f0H
	DB	0f0H
	DB	0f0H
	DB	0ffH
	DB	0f0H
	DB	0f0H
	DB	0f0H
	DB	0ffH
	DB	0f0H
	DB	0f4H
	DB	0f0H
	DB	0ffH
	DB	0e8H
	DB	0f0H
	DB	0f0H
	DB	0ffH
	DB	0e8H
	DB	0f0H
	DB	0f0H
	DB	0ffH
	DB	0f0H
	DB	0f0H
	DB	0f0H
	DB	0ffH
	DB	0f0H
	DB	0f0H
	DB	0f0H
	DB	0ffH
	DB	0e8H
	DB	0f0H
	DB	0f0H
	DB	0ffH
	DB	0e8H
	DB	0f0H
	DB	0f0H
	DB	0ffH
	DB	0e8H
	DB	0f0H
	DB	0f0H
	DB	0ffH
	DB	0e8H
	DB	0ecH
	DB	0f0H
	DB	0ffH
	DB	0e8H
	DB	0ecH
	DB	0f0H
	DB	0ffH
	DB	0e8H
	DB	0ecH
	DB	0e8H
	DB	0ffH
	DB	0e8H
	DB	0ecH
	DB	0f0H
	DB	0ffH
	DB	0e8H
	DB	0ecH
	DB	0e8H
	DB	0ffH
	DB	0e8H
	DB	0ecH
	DB	0e8H
	DB	0ffH
	DB	0e8H
	DB	0ecH
	DB	0e8H
	DB	0ffH
	DB	0e8H
	DB	0e8H
	DB	0e8H
	DB	0ffH
	DB	0e8H
	DB	0ecH
	DB	0f0H
	DB	0ffH
	DB	0e8H
	DB	0e8H
	DB	0e8H
	DB	0ffH
	DB	0e8H
	DB	0e8H
	DB	0e8H
	DB	0ffH
	DB	0e0H
	DB	0e8H
	DB	0e8H
	DB	0ffH
	DB	0e0H
	DB	0e4H
	DB	0e8H
	DB	0ffH
	DB	0e0H
	DB	0e4H
	DB	0e8H
	DB	0ffH
	DB	0e0H
	DB	0e4H
	DB	0e0H
	DB	0ffH
	DB	0e0H
	DB	0e0H
	DB	0e0H
	DB	0ffH
	DB	0e0H
	DB	0e0H
	DB	0e0H
	DB	0ffH
	DB	0f8H
	DB	0fcH
	DB	0f8H
	DB	0ffH
	DB	0f8H
	DB	0fcH
	DB	0f8H
	DB	0ffH
	DB	0f8H
	DB	0fcH
	DB	0f8H
	DB	0ffH
	DB	0f8H
	DB	0fcH
	DB	0f8H
	DB	0ffH
	DB	0f8H
	DB	0fcH
	DB	0f8H
	DB	0ffH
	DB	0f8H
	DB	0fcH
	DB	0f8H
	DB	0ffH
	DB	0f8H
	DB	0fcH
	DB	0f8H
	DB	0ffH
	DB	0f8H
	DB	0fcH
	DB	0f8H
	DB	0ffH
	DB	0f8H
	DB	0fcH
	DB	0f8H
	DB	0ffH
	DB	0f8H
	DB	0fcH
	DB	0f8H
	DB	0ffH
	DB	0f8H
	DB	0fcH
	DB	0f8H
	DB	0ffH
	DB	0f8H
	DB	0fcH
	DB	0f8H
	DB	0ffH
	DB	0f8H
	DB	0fcH
	DB	0f8H
	DB	0ffH
	DB	0f8H
	DB	0fcH
	DB	0f8H
	DB	0ffH
	DB	0f8H
	DB	0fcH
	DB	0f8H
	DB	0ffH
	DB	0f8H
	DB	0fcH
	DB	0f8H
	DB	0ffH
	DB	0f8H
	DB	0fcH
	DB	0f8H
	DB	0ffH
	DB	0f8H
	DB	0fcH
	DB	0f8H
	DB	0ffH
	DB	0f8H
	DB	0fcH
	DB	0f8H
	DB	0ffH
	DB	0f8H
	DB	0fcH
	DB	0f8H
	DB	0ffH
	DB	0f8H
	DB	0fcH
	DB	0f8H
	DB	0ffH
	DB	0f8H
	DB	0fcH
	DB	0f8H
	DB	0ffH
	DB	0f8H
	DB	0fcH
	DB	0f8H
	DB	0ffH
	DB	0f8H
	DB	0fcH
	DB	0f8H
	DB	0ffH
	DB	0f8H
	DB	0fcH
	DB	0f8H
	DB	0ffH
	DB	0f8H
	DB	0fcH
	DB	0f8H
	DB	0ffH
	DB	0f8H
	DB	0fcH
	DB	0f8H
	DB	0ffH
	DB	0f8H
	DB	0fcH
	DB	0f8H
	DB	0ffH
	DB	0f8H
	DB	0fcH
	DB	0f8H
	DB	0ffH
	DB	0f8H
	DB	0fcH
	DB	0f8H
	DB	0ffH
	DB	0f8H
	DB	0fcH
	DB	0f8H
	DB	0ffH
	DB	0f8H
	DB	0fcH
	DB	0f8H
	DB	0ffH
	DB	0f8H
	DB	0fcH
	DB	0f8H
	DB	0ffH
	DB	0f8H
	DB	0fcH
	DB	0f8H
	DB	0ffH
	DB	0f8H
	DB	0fcH
	DB	0f8H
	DB	0ffH
	DB	0f8H
	DB	0fcH
	DB	0f8H
	DB	0ffH
	DB	0f8H
	DB	0fcH
	DB	0f8H
	DB	0ffH
	DB	0f8H
	DB	0fcH
	DB	0f8H
	DB	0ffH
	DB	0f8H
	DB	0fcH
	DB	0f8H
	DB	0ffH
	DB	0f8H
	DB	0fcH
	DB	0f8H
	DB	0ffH
	DB	0f8H
	DB	0fcH
	DB	0f8H
	DB	0ffH
	DB	0f8H
	DB	0fcH
	DB	0f8H
	DB	0ffH
	DB	0f8H
	DB	0fcH
	DB	0f8H
	DB	0ffH
	DB	0f8H
	DB	0fcH
	DB	0f8H
	DB	0ffH
	DB	0f8H
	DB	0fcH
	DB	0f8H
	DB	0ffH
	DB	0f8H
	DB	0fcH
	DB	0f8H
	DB	0ffH
	DB	0f8H
	DB	0fcH
	DB	0f8H
	DB	0ffH
	DB	0f8H
	DB	0fcH
	DB	0f8H
	DB	0ffH
	DB	0f8H
	DB	0fcH
	DB	0f8H
	DB	0ffH
	DB	0f8H
	DB	0fcH
	DB	0f8H
	DB	0ffH
	DB	0f8H
	DB	0fcH
	DB	0f8H
	DB	0ffH
	DB	0f8H
	DB	0fcH
	DB	0f8H
	DB	0ffH
	DB	0f8H
	DB	0fcH
	DB	0f8H
	DB	0ffH
	DB	0f8H
	DB	0fcH
	DB	0f8H
	DB	0ffH
	DB	0f8H
	DB	0f8H
	DB	0f8H
	DB	0ffH
	DB	0f8H
	DB	0fcH
	DB	0f8H
	DB	0ffH
	DB	0f8H
	DB	0fcH
	DB	0f8H
	DB	0ffH
	DB	0f8H
	DB	0fcH
	DB	0f8H
	DB	0ffH
	DB	0f8H
	DB	0fcH
	DB	0f8H
	DB	0ffH
	DB	0f8H
	DB	0fcH
	DB	0f8H
	DB	0ffH
	DB	0f8H
	DB	0fcH
	DB	0f8H
	DB	0ffH
	DB	0f8H
	DB	0fcH
	DB	0f8H
	DB	0ffH
	DB	0f8H
	DB	0fcH
	DB	0f8H
	DB	0ffH
	DB	0f8H
	DB	0fcH
	DB	0f8H
	DB	0ffH
	DB	0f8H
	DB	0fcH
	DB	0f8H
	DB	0ffH
	DB	0f8H
	DB	0fcH
	DB	0f8H
	DB	0ffH
	DB	0f8H
	DB	0fcH
	DB	0f8H
	DB	0ffH
	DB	0f8H
	DB	0f8H
	DB	0f8H
	DB	0ffH
	DB	0f8H
	DB	0f8H
	DB	0f8H
	DB	0ffH
	DB	0f8H
	DB	0fcH
	DB	0f8H
	DB	0ffH
	DB	0f8H
	DB	0f8H
	DB	0f8H
	DB	0ffH
	DB	0f8H
	DB	0fcH
	DB	0f8H
	DB	0ffH
	DB	0f8H
	DB	0fcH
	DB	0f8H
	DB	0ffH
	DB	0f8H
	DB	0fcH
	DB	0f8H
	DB	0ffH
	DB	0f8H
	DB	0fcH
	DB	0f8H
	DB	0ffH
	DB	0f8H
	DB	0fcH
	DB	0f8H
	DB	0ffH
	DB	0f8H
	DB	0fcH
	DB	0f8H
	DB	0ffH
	DB	0f8H
	DB	0fcH
	DB	0f8H
	DB	0ffH
	DB	0f8H
	DB	0fcH
	DB	0f8H
	DB	0ffH
	DB	0f8H
	DB	0fcH
	DB	0f8H
	DB	0ffH
	DB	0f8H
	DB	0fcH
	DB	0f8H
	DB	0ffH
	DB	0f8H
	DB	0fcH
	DB	0f8H
	DB	0ffH
	DB	0f8H
	DB	0fcH
	DB	0f8H
	DB	0ffH
	DB	0f8H
	DB	0fcH
	DB	0f8H
	DB	0ffH
	DB	0f8H
	DB	0fcH
	DB	0f8H
	DB	0ffH
	DB	0f8H
	DB	0fcH
	DB	0f8H
	DB	0ffH
	DB	0f8H
	DB	0fcH
	DB	0f8H
	DB	0ffH
	DB	0f8H
	DB	0fcH
	DB	0f8H
	DB	0ffH
	DB	0f8H
	DB	0fcH
	DB	0f8H
	DB	0ffH
	DB	0f8H
	DB	0fcH
	DB	0f8H
	DB	0ffH
	DB	0f8H
	DB	0fcH
	DB	0f8H
	DB	0ffH
	DB	0f8H
	DB	0fcH
	DB	0f8H
	DB	0ffH
	DB	0f8H
	DB	0fcH
	DB	0f8H
	DB	0ffH
	DB	0f8H
	DB	0fcH
	DB	0f8H
	DB	0ffH
	DB	0f8H
	DB	0fcH
	DB	0f8H
	DB	0ffH
	DB	0f8H
	DB	0fcH
	DB	0f8H
	DB	0ffH
	DB	0f8H
	DB	0f8H
	DB	0f8H
	DB	0ffH
	DB	0f8H
	DB	0f8H
	DB	0f8H
	DB	0ffH
	DB	0f8H
	DB	0f8H
	DB	0f8H
	DB	0ffH
	DB	0f8H
	DB	0f8H
	DB	0f0H
	DB	0ffH
	DB	0f0H
	DB	0f4H
	DB	0f8H
	DB	0ffH
	DB	0f0H
	DB	0f4H
	DB	0f0H
	DB	0ffH
	DB	0f0H
	DB	0f4H
	DB	0f0H
	DB	0ffH
	DB	0f0H
	DB	0f0H
	DB	0f0H
	DB	0ffH
	DB	0f0H
	DB	0f0H
	DB	0f0H
	DB	0ffH
	DB	0f0H
	DB	0f0H
	DB	0f0H
	DB	0ffH
	DB	0f0H
	DB	0f0H
	DB	0f0H
	DB	0ffH
	DB	0e8H
	DB	0ecH
	DB	0e8H
	DB	0ffH
	DB	0e8H
	DB	0ecH
	DB	0e8H
	DB	0ffH
	DB	0e8H
	DB	0ecH
	DB	0e8H
	DB	0ffH
	DB	0f0H
	DB	0ecH
	DB	0f0H
	DB	0ffH
	DB	0e8H
	DB	0ecH
	DB	0e8H
	DB	0ffH
	DB	0e8H
	DB	0ecH
	DB	0e8H
	DB	0ffH
	DB	0f0H
	DB	0e8H
	DB	0f0H
	DB	0ffH
	DB	0e8H
	DB	0ecH
	DB	0e8H
	DB	0ffH
	DB	0e8H
	DB	0ecH
	DB	0e8H
	DB	0ffH
	DB	0f0H
	DB	0e8H
	DB	0f0H
	DB	0ffH
	DB	0e8H
	DB	0ecH
	DB	0e8H
	DB	0ffH
	DB	0e8H
	DB	0ecH
	DB	0e8H
	DB	0ffH
	DB	0f0H
	DB	0ecH
	DB	0f0H
	DB	0ffH
	DB	0e8H
	DB	0e8H
	DB	0e8H
	DB	0ffH
	DB	0f0H
	DB	0ecH
	DB	0f0H
	DB	0ffH
	DB	0f0H
	DB	0ecH
	DB	0f0H
	DB	0ffH
	DB	0f0H
	DB	0ecH
	DB	0f0H
	DB	0ffH
	DB	0e8H
	DB	0ecH
	DB	0e8H
	DB	0ffH
	DB	0f0H
	DB	0f0H
	DB	0f0H
	DB	0ffH
	DB	0f0H
	DB	0f0H
	DB	0f0H
	DB	0ffH
	DB	0f0H
	DB	0f0H
	DB	0f0H
	DB	0ffH
	DB	0f0H
	DB	0f0H
	DB	0f0H
	DB	0ffH
	DB	0f0H
	DB	0f0H
	DB	0f0H
	DB	0ffH
	DB	0e8H
	DB	0f0H
	DB	0f0H
	DB	0ffH
	DB	0f0H
	DB	0f0H
	DB	0f0H
	DB	0ffH
	DB	0f0H
	DB	0f0H
	DB	0f0H
	DB	0ffH
	DB	0f0H
	DB	0f0H
	DB	0f0H
	DB	0ffH
	DB	0f0H
	DB	0f0H
	DB	0f0H
	DB	0ffH
	DB	0f0H
	DB	0f0H
	DB	0f0H
	DB	0ffH
	DB	0e8H
	DB	0f0H
	DB	0f0H
	DB	0ffH
	DB	0f0H
	DB	0f0H
	DB	0f0H
	DB	0ffH
	DB	0f0H
	DB	0f0H
	DB	0f0H
	DB	0ffH
	DB	0f0H
	DB	0f0H
	DB	0f0H
	DB	0ffH
	DB	0f0H
	DB	0f0H
	DB	0f0H
	DB	0ffH
	DB	0f0H
	DB	0f0H
	DB	0f0H
	DB	0ffH
	DB	0f0H
	DB	0f0H
	DB	0f0H
	DB	0ffH
	DB	0f0H
	DB	0f4H
	DB	0f0H
	DB	0ffH
	DB	0f0H
	DB	0f0H
	DB	0f0H
	DB	0ffH
	DB	0f0H
	DB	0f0H
	DB	0f0H
	DB	0ffH
	DB	0f0H
	DB	0f0H
	DB	0f0H
	DB	0ffH
	DB	0f0H
	DB	0f0H
	DB	0f0H
	DB	0ffH
	DB	0f0H
	DB	0ecH
	DB	0f0H
	DB	0ffH
	DB	0e8H
	DB	0ecH
	DB	0f0H
	DB	0ffH
	DB	0e8H
	DB	0ecH
	DB	0f0H
	DB	0ffH
	DB	0f0H
	DB	0ecH
	DB	0e8H
	DB	0ffH
	DB	0f0H
	DB	0ecH
	DB	0f0H
	DB	0ffH
	DB	0e8H
	DB	0e8H
	DB	0e8H
	DB	0ffH
	DB	0e8H
	DB	0e8H
	DB	0e8H
	DB	0ffH
	DB	0e8H
	DB	0e8H
	DB	0e8H
	DB	0ffH
	DB	0e8H
	DB	0e8H
	DB	0e8H
	DB	0ffH
	DB	0e8H
	DB	0e8H
	DB	0e8H
	DB	0ffH
	DB	0e8H
	DB	0e8H
	DB	0e8H
	DB	0ffH
	DB	0e8H
	DB	0e8H
	DB	0e8H
	DB	0ffH
	DB	0e8H
	DB	0e8H
	DB	0e8H
	DB	0ffH
	DB	0e8H
	DB	0e8H
	DB	0e8H
	DB	0ffH
	DB	0e8H
	DB	0e8H
	DB	0e8H
	DB	0ffH
	DB	0e8H
	DB	0e4H
	DB	0e8H
	DB	0ffH
	DB	0e8H
	DB	0e8H
	DB	0e8H
	DB	0ffH
	DB	0e8H
	DB	0e8H
	DB	0e8H
	DB	0ffH
	DB	0e8H
	DB	0e8H
	DB	0e0H
	DB	0ffH
	DB	0e8H
	DB	0e8H
	DB	0e8H
	DB	0ffH
	DB	0e8H
	DB	0e8H
	DB	0e8H
	DB	0ffH
	DB	0e8H
	DB	0e8H
	DB	0e8H
	DB	0ffH
	DB	0e8H
	DB	0e4H
	DB	0e0H
	DB	0ffH
	DB	0e8H
	DB	0e8H
	DB	0e8H
	DB	0ffH
	DB	0e8H
	DB	0e4H
	DB	0e8H
	DB	0ffH
	DB	0e8H
	DB	0e4H
	DB	0e0H
	DB	0ffH
	DB	0e8H
	DB	0e8H
	DB	0e8H
	DB	0ffH
	DB	0e8H
	DB	0e8H
	DB	0e8H
	DB	0ffH
	DB	0e8H
	DB	0e8H
	DB	0e8H
	DB	0ffH
	DB	0e8H
	DB	0e8H
	DB	0e8H
	DB	0ffH
	DB	0e8H
	DB	0e8H
	DB	0e8H
	DB	0ffH
	DB	0e8H
	DB	0e8H
	DB	0e8H
	DB	0ffH
	DB	0e8H
	DB	0e8H
	DB	0e8H
	DB	0ffH
	DB	0e8H
	DB	0e8H
	DB	0e8H
	DB	0ffH
	DB	0e8H
	DB	0e8H
	DB	0e8H
	DB	0ffH
	DB	0e8H
	DB	0e4H
	DB	0e8H
	DB	0ffH
	DB	0e8H
	DB	0e8H
	DB	0e8H
	DB	0ffH
	DB	0e8H
	DB	0e4H
	DB	0e8H
	DB	0ffH
	DB	0e8H
	DB	0e8H
	DB	0e8H
	DB	0ffH
	DB	0e8H
	DB	0e8H
	DB	0e0H
	DB	0ffH
	DB	0e8H
	DB	0e4H
	DB	0e8H
	DB	0ffH
	DB	0e8H
	DB	0e4H
	DB	0e8H
	DB	0ffH
	DB	0e8H
	DB	0e4H
	DB	0e8H
	DB	0ffH
	DB	0e0H
	DB	0e0H
	DB	0e0H
	DB	0ffH
	DB	0e0H
	DB	0e0H
	DB	0e0H
	DB	0ffH
	DB	0e0H
	DB	0e0H
	DB	0e0H
	DB	0ffH
	DB	0e0H
	DB	0dcH
	DB	0e0H
	DB	0ffH
	DB	0e0H
	DB	0e0H
	DB	0e0H
	DB	0ffH
	DB	0e0H
	DB	0e0H
	DB	0e0H
	DB	0ffH
	DB	0e8H
	DB	0e0H
	DB	0e0H
	DB	0ffH
	DB	0e8H
	DB	0e0H
	DB	0e0H
	DB	0ffH
	DB	0e0H
	DB	0e0H
	DB	0e0H
	DB	0ffH
	DB	0e8H
	DB	0e4H
	DB	0e8H
	DB	0ffH
	DB	0e8H
	DB	0e4H
	DB	0e8H
	DB	0ffH
	DB	0e8H
	DB	0e4H
	DB	0e8H
	DB	0ffH
	DB	0e8H
	DB	0e4H
	DB	0e8H
	DB	0ffH
	DB	0e8H
	DB	0e4H
	DB	0e0H
	DB	0ffH
	DB	0e8H
	DB	0e4H
	DB	0e0H
	DB	0ffH
	DB	0e8H
	DB	0e4H
	DB	0e0H
	DB	0ffH
	DB	0e8H
	DB	0e4H
	DB	0e0H
	DB	0ffH
	DB	0e0H
	DB	0e0H
	DB	0e0H
	DB	0ffH
	DB	0e0H
	DB	0e0H
	DB	0e0H
	DB	0ffH
	DB	0e8H
	DB	0e0H
	DB	0e0H
	DB	0ffH
	DB	0e0H
	DB	0dcH
	DB	0d8H
	DB	0ffH
	DB	0d8H
	DB	0d4H
	DB	0d0H
	DB	0ffH
	DB	0d8H
	DB	0d0H
	DB	0d0H
	DB	0ffH
	DB	0e0H
	DB	0d4H
	DB	0d0H
	DB	0ffH
	DB	0d8H
	DB	0d4H
	DB	0d0H
	DB	0ffH
	DB	0d8H
	DB	0d0H
	DB	0c8H
	DB	0ffH
	DB	0d8H
	DB	0d0H
	DB	0c8H
	DB	0ffH
	DB	0d8H
	DB	0d8H
	DB	0d0H
	DB	0ffH
	DB	0e0H
	DB	0d8H
	DB	0d0H
	DB	0ffH
	DB	0e0H
	DB	0dcH
	DB	0d8H
	DB	0ffH
	DB	0e0H
	DB	0dcH
	DB	0e0H
	DB	0ffH
	DB	0e0H
	DB	0dcH
	DB	0e0H
	DB	0ffH
	DB	0e0H
	DB	0dcH
	DB	0d8H
	DB	0ffH
	DB	0e0H
	DB	0dcH
	DB	0d8H
	DB	0ffH
	DB	0e0H
	DB	0d8H
	DB	0d8H
	DB	0ffH
	DB	0e0H
	DB	0dcH
	DB	0d8H
	DB	0ffH
	DB	0e0H
	DB	0e0H
	DB	0e0H
	DB	0ffH
	DB	0e0H
	DB	0dcH
	DB	0d8H
	DB	0ffH
	DB	0e0H
	DB	0d4H
	DB	0d0H
	DB	0ffH
	DB	0d8H
	DB	0d4H
	DB	0d0H
	DB	0ffH
	DB	0e0H
	DB	0d8H
	DB	0d0H
	DB	0ffH
	DB	0e0H
	DB	0d4H
	DB	0d0H
	DB	0ffH
	DB	0d8H
	DB	0d4H
	DB	0d0H
	DB	0ffH
	DB	0d8H
	DB	0d4H
	DB	0c8H
	DB	0ffH
	DB	0e0H
	DB	0d4H
	DB	0c8H
	DB	0ffH
	DB	0e0H
	DB	0d4H
	DB	0c8H
	DB	0ffH
	DB	0d8H
	DB	0d4H
	DB	0c8H
	DB	0ffH
	DB	0d8H
	DB	0d0H
	DB	0c0H
	DB	0ffH
	DB	0e0H
	DB	0d0H
	DB	0c0H
	DB	0ffH
	DB	0d8H
	DB	0d0H
	DB	0c0H
	DB	0ffH
	DB	0d8H
	DB	0d0H
	DB	0c0H
	DB	0ffH
	DB	0d8H
	DB	0d0H
	DB	0c0H
	DB	0ffH
	DB	0d8H
	DB	0d4H
	DB	0c0H
	DB	0ffH
	DB	0d8H
	DB	0d0H
	DB	0c0H
	DB	0ffH
	DB	0d8H
	DB	0d0H
	DB	0c8H
	DB	0ffH
	DB	0d8H
	DB	0d0H
	DB	0c8H
	DB	0ffH
	DB	0d8H
	DB	0d4H
	DB	0d0H
	DB	0ffH
	DB	0e0H
	DB	0dcH
	DB	0e0H
	DB	0ffH
	DB	0e0H
	DB	0dcH
	DB	0e0H
	DB	0ffH
	DB	0e0H
	DB	0dcH
	DB	0d8H
	DB	0ffH
	DB	0e0H
	DB	0e0H
	DB	0e0H
	DB	0ffH
	DB	0e8H
	DB	0e4H
	DB	0e0H
	DB	0ffH
	DB	0e8H
	DB	0e4H
	DB	0e0H
	DB	0ffH
	DB	0e0H
	DB	0e8H
	DB	0e8H
	DB	0ffH
	DB	0e8H
	DB	0e4H
	DB	0e8H
	DB	0ffH
	DB	0e8H
	DB	0e4H
	DB	0e8H
	DB	0ffH
	DB	0e8H
	DB	0e4H
	DB	0e8H
	DB	0ffH
	DB	0e8H
	DB	0e8H
	DB	0e8H
	DB	0ffH
	DB	0e8H
	DB	0e8H
	DB	0e8H
	DB	0ffH
	DB	0e8H
	DB	0e8H
	DB	0e8H
	DB	0ffH
	DB	0e8H
	DB	0e8H
	DB	0e8H
	DB	0ffH
	DB	0e8H
	DB	0e4H
	DB	0e8H
	DB	0ffH
	DB	0e8H
	DB	0e8H
	DB	0e8H
	DB	0ffH
	DB	0e8H
	DB	0e8H
	DB	0e8H
	DB	0ffH
	DB	0e8H
	DB	0e4H
	DB	0e8H
	DB	0ffH
	DB	0e8H
	DB	0e4H
	DB	0e8H
	DB	0ffH
	DB	0e8H
	DB	0e8H
	DB	0e8H
	DB	0ffH
	DB	0e8H
	DB	0e4H
	DB	0e8H
	DB	0ffH
	DB	0e8H
	DB	0e4H
	DB	0e8H
	DB	0ffH
	DB	0e8H
	DB	0e8H
	DB	0e8H
	DB	0ffH
	DB	0e8H
	DB	0e8H
	DB	0e8H
	DB	0ffH
	DB	0e8H
	DB	0e4H
	DB	0e0H
	DB	0ffH
	DB	0e0H
	DB	0e0H
	DB	0e0H
	DB	0ffH
	DB	0e0H
	DB	0e0H
	DB	0e0H
	DB	0ffH
	DB	0e0H
	DB	0e0H
	DB	0e0H
	DB	0ffH
	DB	0e8H
	DB	0e4H
	DB	0e8H
	DB	0ffH
	DB	0f0H
	DB	0ecH
	DB	0f0H
	DB	0ffH
	DB	0f0H
	DB	0f0H
	DB	0f0H
	DB	0ffH
	DB	0e8H
	DB	0f0H
	DB	0f0H
	DB	0ffH
	DB	0f0H
	DB	0ecH
	DB	0f0H
	DB	0ffH
	DB	0e8H
	DB	0ecH
	DB	0f0H
	DB	0ffH
	DB	0f0H
	DB	0f0H
	DB	0f0H
	DB	0ffH
	DB	0e8H
	DB	0ecH
	DB	0f0H
	DB	0ffH
	DB	0e8H
	DB	0e8H
	DB	0e8H
	DB	0ffH
	DB	0e8H
	DB	0e8H
	DB	0e8H
	DB	0ffH
	DB	0e8H
	DB	0ecH
	DB	0e8H
	DB	0ffH
	DB	0e8H
	DB	0e8H
	DB	0e8H
	DB	0ffH
	DB	0e8H
	DB	0e8H
	DB	0e8H
	DB	0ffH
	DB	0e0H
	DB	0e8H
	DB	0e8H
	DB	0ffH
	DB	0e0H
	DB	0e4H
	DB	0e0H
	DB	0ffH
	DB	0e0H
	DB	0e0H
	DB	0e0H
	DB	0ffH
	DB	0e0H
	DB	0dcH
	DB	0e0H
	DB	0ffH
	DB	0e0H
	DB	0dcH
	DB	0e0H
	DB	0ffH
	DB	0e0H
	DB	0dcH
	DB	0d8H
	DB	0ffH
	DB	0e0H
	DB	0dcH
	DB	0d8H
	DB	0ffH
	DB	0e0H
	DB	0d8H
	DB	0d0H
	DB	0ffH
	DB	0d8H
	DB	0d4H
	DB	0d0H
	DB	0ffH
	DB	0d8H
	DB	0d4H
	DB	0d0H
	DB	0ffH
	DB	0e0H
	DB	0d8H
	DB	0d8H
	DB	0ffH
	DB	0e0H
	DB	0dcH
	DB	0d8H
	DB	0ffH
	DB	0e0H
	DB	0d8H
	DB	0d8H
	DB	0ffH
	DB	0e0H
	DB	0dcH
	DB	0d8H
	DB	0ffH
	DB	0e0H
	DB	0dcH
	DB	0e0H
	DB	0ffH
	DB	0e0H
	DB	0dcH
	DB	0e0H
	DB	0ffH
	DB	0e0H
	DB	0dcH
	DB	0e0H
	DB	0ffH
	DB	0e0H
	DB	0e0H
	DB	0e0H
	DB	0ffH
	DB	0e0H
	DB	0e0H
	DB	0e0H
	DB	0ffH
	DB	0e0H
	DB	0dcH
	DB	0e0H
	DB	0ffH
	DB	0e0H
	DB	0dcH
	DB	0e0H
	DB	0ffH
	DB	0e0H
	DB	0dcH
	DB	0d8H
	DB	0ffH
	DB	0d8H
	DB	0dcH
	DB	0e0H
	DB	0ffH
	DB	0e0H
	DB	0dcH
	DB	0e0H
	DB	0ffH
	DB	0e0H
	DB	0e0H
	DB	0e0H
	DB	0ffH
	DB	0e0H
	DB	0e0H
	DB	0e0H
	DB	0ffH
	DB	0e0H
	DB	0e0H
	DB	0e0H
	DB	0ffH
	DB	0e0H
	DB	0e0H
	DB	0e0H
	DB	0ffH
	DB	0e0H
	DB	0e4H
	DB	0e0H
	DB	0ffH
	DB	0e0H
	DB	0e4H
	DB	0e8H
	DB	0ffH
	DB	0e8H
	DB	0e8H
	DB	0e8H
	DB	0ffH
	DB	0e8H
	DB	0e8H
	DB	0e8H
	DB	0ffH
	DB	0e8H
	DB	0ecH
	DB	0f0H
	DB	0ffH
	DB	0e8H
	DB	0ecH
	DB	0f0H
	DB	0ffH
	DB	0f0H
	DB	0ecH
	DB	0f0H
	DB	0ffH
	DB	0e8H
	DB	0f0H
	DB	0f0H
	DB	0ffH
	DB	0f0H
	DB	0f0H
	DB	0f0H
	DB	0ffH
	DB	0f0H
	DB	0f0H
	DB	0f0H
	DB	0ffH
	DB	0f0H
	DB	0f0H
	DB	0f0H
	DB	0ffH
	DB	0f0H
	DB	0f0H
	DB	0f0H
	DB	0ffH
	DB	0e8H
	DB	0f0H
	DB	0f0H
	DB	0ffH
	DB	0f0H
	DB	0f0H
	DB	0f0H
	DB	0ffH
	DB	0f0H
	DB	0f0H
	DB	0f0H
	DB	0ffH
	DB	0f0H
	DB	0f0H
	DB	0f0H
	DB	0ffH
	DB	0f0H
	DB	0f0H
	DB	0f0H
	DB	0ffH
	DB	0f0H
	DB	0f0H
	DB	0f0H
	DB	0ffH
	DB	0e8H
	DB	0ecH
	DB	0f0H
	DB	0ffH
	DB	0e8H
	DB	0ecH
	DB	0e8H
	DB	0ffH
	DB	0f0H
	DB	0ecH
	DB	0f0H
	DB	0ffH
	DB	0e8H
	DB	0ecH
	DB	0e8H
	DB	0ffH
	DB	0e8H
	DB	0e8H
	DB	0e8H
	DB	0ffH
	DB	0e8H
	DB	0e8H
	DB	0e8H
	DB	0ffH
	DB	0e8H
	DB	0e8H
	DB	0e8H
	DB	0ffH
	DB	0e8H
	DB	0e8H
	DB	0e8H
	DB	0ffH
	DB	0e8H
	DB	0e4H
	DB	0e8H
	DB	0ffH
	DB	0e8H
	DB	0e8H
	DB	0e8H
	DB	0ffH
	DB	0e0H
	DB	0e4H
	DB	0e0H
	DB	0ffH
	DB	0e0H
	DB	0e0H
	DB	0e0H
	DB	0ffH
	DB	0e0H
	DB	0dcH
	DB	0d8H
	DB	0ffH
	DB	0e0H
	DB	0dcH
	DB	0d8H
	DB	0ffH
	DB	0e0H
	DB	0dcH
	DB	0e0H
	DB	0ffH
	DB	0e0H
	DB	0dcH
	DB	0e0H
	DB	0ffH
	DB	0d8H
	DB	0d4H
	DB	0d0H
	DB	0ffH
	DB	0d0H
	DB	0ccH
	DB	0c0H
	DB	0ffH
	DB	0d0H
	DB	0ccH
	DB	0c0H
	DB	0ffH
	DB	0d0H
	DB	0ccH
	DB	0b8H
	DB	0ffH
	DB	0d8H
	DB	0ccH
	DB	0b8H
	DB	0ffH
	DB	0d8H
	DB	0ccH
	DB	0b8H
	DB	0ffH
	DB	0d0H
	DB	0ccH
	DB	0b8H
	DB	0ffH
	DB	0d0H
	DB	0ccH
	DB	0b8H
	DB	0ffH
	DB	0d8H
	DB	0ccH
	DB	0b8H
	DB	0ffH
	DB	0d8H
	DB	0ccH
	DB	0b8H
	DB	0ffH
	DB	0d8H
	DB	0ccH
	DB	0b8H
	DB	0ffH
	DB	0d8H
	DB	0ccH
	DB	0b8H
	DB	0ffH
	DB	0d8H
	DB	0c8H
	DB	0b8H
	DB	0ffH
	DB	0d8H
	DB	0c8H
	DB	0b8H
	DB	0ffH
	DB	0d8H
	DB	0c8H
	DB	0b8H
	DB	0ffH
	DB	0d0H
	DB	0c8H
	DB	0b8H
	DB	0ffH
	DB	0d8H
	DB	0c8H
	DB	0b8H
	DB	0ffH
	DB	0d0H
	DB	0c4H
	DB	0b8H
	DB	0ffH
	DB	0d0H
	DB	0c4H
	DB	0b0H
	DB	0ffH
	DB	0d0H
	DB	0c4H
	DB	0b0H
	DB	0ffH
	DB	0d8H
	DB	0c8H
	DB	0b0H
	DB	0ffH
	DB	0d0H
	DB	0c8H
	DB	0b0H
	DB	0ffH
	DB	0d0H
	DB	0c8H
	DB	0b0H
	DB	0ffH
	DB	0d8H
	DB	0c8H
	DB	0b0H
	DB	0ffH
	DB	0d8H
	DB	0c4H
	DB	0b0H
	DB	0ffH
	DB	0d8H
	DB	0c4H
	DB	0b0H
	DB	0ffH
	DB	0d0H
	DB	0c8H
	DB	0b0H
	DB	0ffH
	DB	0d8H
	DB	0c8H
	DB	0b8H
	DB	0ffH
	DB	0d8H
	DB	0c8H
	DB	0b8H
	DB	0ffH
	DB	0d8H
	DB	0ccH
	DB	0b8H
	DB	0ffH
	DB	0d8H
	DB	0c8H
	DB	0c0H
	DB	0ffH
	DB	0d8H
	DB	0c8H
	DB	0b8H
	DB	0ffH
	DB	0d0H
	DB	0c8H
	DB	0b8H
	DB	0ffH
	DB	0d0H
	DB	0c8H
	DB	0b8H
	DB	0ffH
	DB	0d8H
	DB	0c8H
	DB	0b8H
	DB	0ffH
	DB	0d0H
	DB	0c8H
	DB	0b8H
	DB	0ffH
	DB	0d8H
	DB	0ccH
	DB	0b8H
	DB	0ffH
	DB	0d8H
	DB	0ccH
	DB	0b8H
	DB	0ffH
	DB	0d8H
	DB	0ccH
	DB	0b8H
	DB	0ffH
	DB	0d8H
	DB	0ccH
	DB	0c0H
	DB	0ffH
	DB	0d8H
	DB	0c8H
	DB	0b8H
	DB	0ffH
	DB	0d0H
	DB	0c8H
	DB	0b8H
	DB	0ffH
	DB	0d0H
	DB	0c8H
	DB	0b8H
	DB	0ffH
	DB	0d0H
	DB	0c8H
	DB	0b8H
	DB	0ffH
	DB	0d0H
	DB	0ccH
	DB	0c0H
	DB	0ffH
	DB	0d8H
	DB	0d0H
	DB	0c0H
	DB	0ffH
	DB	0d0H
	DB	0d0H
	DB	0c8H
	DB	0ffH
	DB	0d8H
	DB	0d0H
	DB	0c8H
	DB	0ffH
	DB	0d8H
	DB	0d0H
	DB	0c8H
	DB	0ffH
	DB	0d8H
	DB	0d0H
	DB	0c8H
	DB	0ffH
	DB	0d8H
	DB	0d4H
	DB	0d0H
	DB	0ffH
	DB	0d8H
	DB	0d4H
	DB	0d0H
	DB	0ffH
	DB	0d8H
	DB	0d0H
	DB	0c8H
	DB	0ffH
	DB	0d0H
	DB	0ccH
	DB	0c8H
	DB	0ffH
	DB	0d0H
	DB	0d0H
	DB	0c8H
	DB	0ffH
	DB	0d0H
	DB	0ccH
	DB	0c8H
	DB	0ffH
	DB	0d0H
	DB	0ccH
	DB	0d0H
	DB	0ffH
	DB	0d8H
	DB	0d4H
	DB	0d0H
	DB	0ffH
	DB	0e0H
	DB	0dcH
	DB	0d8H
	DB	0ffH
	DB	0e0H
	DB	0dcH
	DB	0d8H
	DB	0ffH
	DB	0e0H
	DB	0dcH
	DB	0e0H
	DB	0ffH
	DB	0e0H
	DB	0dcH
	DB	0d8H
	DB	0ffH
	DB	0e0H
	DB	0dcH
	DB	0d8H
	DB	0ffH
	DB	0e8H
	DB	0e0H
	DB	0e0H
	DB	0ffH
	DB	0e0H
	DB	0e4H
	DB	0e0H
	DB	0ffH
	DB	0e0H
	DB	0e4H
	DB	0e8H
	DB	0ffH
	DB	0e8H
	DB	0e8H
	DB	0e8H
	DB	0ffH
	DB	0e8H
	DB	0e8H
	DB	0e8H
	DB	0ffH
	DB	0e8H
	DB	0e8H
	DB	0e0H
	DB	0ffH
	DB	0e8H
	DB	0e0H
	DB	0e0H
	DB	0ffH
	DB	0e0H
	DB	0dcH
	DB	0d8H
	DB	0ffH
	DB	0e0H
	DB	0dcH
	DB	0d8H
	DB	0ffH
	DB	0d8H
	DB	0d8H
	DB	0d8H
	DB	0ffH
	DB	0d8H
	DB	0d8H
	DB	0d8H
	DB	0ffH
	DB	0d8H
	DB	0d4H
	DB	0d0H
	DB	0ffH
	DB	0d8H
	DB	0d4H
	DB	0d0H
	DB	0ffH
	DB	0d8H
	DB	0d0H
	DB	0c8H
	DB	0ffH
	DB	0d8H
	DB	0d0H
	DB	0c8H
	DB	0ffH
	DB	0d8H
	DB	0ccH
	DB	0c0H
	DB	0ffH
	DB	0d0H
	DB	0c8H
	DB	0b8H
	DB	0ffH
	DB	0d0H
	DB	0c8H
	DB	0b8H
	DB	0ffH
	DB	0d0H
	DB	0c8H
	DB	0b8H
	DB	0ffH
	DB	0d0H
	DB	0c4H
	DB	0b8H
	DB	0ffH
	DB	0d8H
	DB	0c4H
	DB	0b0H
	DB	0ffH
	DB	0d0H
	DB	0c4H
	DB	0b0H
	DB	0ffH
	DB	0d0H
	DB	0c4H
	DB	0b0H
	DB	0ffH
	DB	0d0H
	DB	0c4H
	DB	0b8H
	DB	0ffH
	DB	0d0H
	DB	0c8H
	DB	0b8H
	DB	0ffH
	DB	0d0H
	DB	0c8H
	DB	0c0H
	DB	0ffH
	DB	0d0H
	DB	0ccH
	DB	0c0H
	DB	0ffH
	DB	0d8H
	DB	0ccH
	DB	0c0H
	DB	0ffH
	DB	0d0H
	DB	0ccH
	DB	0c0H
	DB	0ffH
	DB	0d0H
	DB	0c8H
	DB	0b8H
	DB	0ffH
	DB	0d0H
	DB	0c8H
	DB	0c0H
	DB	0ffH
	DB	0d0H
	DB	0ccH
	DB	0c0H
	DB	0ffH
	DB	0d8H
	DB	0d0H
	DB	0c0H
	DB	0ffH
	DB	0d8H
	DB	0d0H
	DB	0d0H
	DB	0ffH
	DB	0d8H
	DB	0d8H
	DB	0d8H
	DB	0ffH
	DB	0e0H
	DB	0e0H
	DB	0e0H
	DB	0ffH
	DB	0e8H
	DB	0e4H
	DB	0e8H
	DB	0ffH
	DB	0e8H
	DB	0e8H
	DB	0f0H
	DB	0ffH
	DB	0f0H
	DB	0f0H
	DB	0f0H
	DB	0ffH
	DB	0f0H
	DB	0f0H
	DB	0f0H
	DB	0ffH
	DB	0f0H
	DB	0f0H
	DB	0f0H
	DB	0ffH
	DB	0f0H
	DB	0f0H
	DB	0f8H
	DB	0ffH
	DB	0e8H
	DB	0f0H
	DB	0f0H
	DB	0ffH
	DB	0e8H
	DB	0f0H
	DB	0f0H
	DB	0ffH
	DB	0f0H
	DB	0f0H
	DB	0f0H
	DB	0ffH
	DB	0e8H
	DB	0f0H
	DB	0f0H
	DB	0ffH
	DB	0e8H
	DB	0ecH
	DB	0f0H
	DB	0ffH
	DB	0f0H
	DB	0ecH
	DB	0f0H
	DB	0ffH
	DB	0e8H
	DB	0ecH
	DB	0f0H
	DB	0ffH
	DB	0e8H
	DB	0ecH
	DB	0f0H
	DB	0ffH
	DB	0e8H
	DB	0ecH
	DB	0f0H
	DB	0ffH
	DB	0e8H
	DB	0ecH
	DB	0e8H
	DB	0ffH
	DB	0e8H
	DB	0ecH
	DB	0e8H
	DB	0ffH
	DB	0e8H
	DB	0e8H
	DB	0f0H
	DB	0ffH
	DB	0e8H
	DB	0e8H
	DB	0e8H
	DB	0ffH
	DB	0e8H
	DB	0e8H
	DB	0e8H
	DB	0ffH
	DB	0e0H
	DB	0e8H
	DB	0e8H
	DB	0ffH
	DB	0e8H
	DB	0e8H
	DB	0e8H
	DB	0ffH
	DB	0e8H
	DB	0e8H
	DB	0e8H
	DB	0ffH
	DB	0e0H
	DB	0e4H
	DB	0e8H
	DB	0ffH
	DB	0e0H
	DB	0e4H
	DB	0e8H
	DB	0ffH
	DB	0e0H
	DB	0e4H
	DB	0e8H
	DB	0ffH
	DB	0e0H
	DB	0e4H
	DB	0e0H
	DB	0ffH
	DB	0e0H
	DB	0e0H
	DB	0e0H
	DB	0ffH
	DB	0e0H
	DB	0e0H
	DB	0e0H
	DB	0ffH
	DB	0e0H
	DB	0e0H
	DB	0e8H
	DB	0ffH
	DB	0f8H
	DB	0fcH
	DB	0f8H
	DB	0ffH
	DB	0f8H
	DB	0fcH
	DB	0f8H
	DB	0ffH
	DB	0f8H
	DB	0fcH
	DB	0f8H
	DB	0ffH
	DB	0f8H
	DB	0fcH
	DB	0f8H
	DB	0ffH
	DB	0f8H
	DB	0fcH
	DB	0f8H
	DB	0ffH
	DB	0f8H
	DB	0fcH
	DB	0f8H
	DB	0ffH
	DB	0f8H
	DB	0fcH
	DB	0f8H
	DB	0ffH
	DB	0f8H
	DB	0fcH
	DB	0f8H
	DB	0ffH
	DB	0f8H
	DB	0fcH
	DB	0f8H
	DB	0ffH
	DB	0f8H
	DB	0fcH
	DB	0f8H
	DB	0ffH
	DB	0f8H
	DB	0fcH
	DB	0f8H
	DB	0ffH
	DB	0f8H
	DB	0fcH
	DB	0f8H
	DB	0ffH
	DB	0f8H
	DB	0fcH
	DB	0f8H
	DB	0ffH
	DB	0f8H
	DB	0fcH
	DB	0f8H
	DB	0ffH
	DB	0f8H
	DB	0fcH
	DB	0f8H
	DB	0ffH
	DB	0f8H
	DB	0fcH
	DB	0f8H
	DB	0ffH
	DB	0f8H
	DB	0fcH
	DB	0f8H
	DB	0ffH
	DB	0f8H
	DB	0fcH
	DB	0f8H
	DB	0ffH
	DB	0f8H
	DB	0fcH
	DB	0f8H
	DB	0ffH
	DB	0f8H
	DB	0fcH
	DB	0f8H
	DB	0ffH
	DB	0f8H
	DB	0fcH
	DB	0f8H
	DB	0ffH
	DB	0f8H
	DB	0fcH
	DB	0f8H
	DB	0ffH
	DB	0f8H
	DB	0fcH
	DB	0f8H
	DB	0ffH
	DB	0f8H
	DB	0fcH
	DB	0f8H
	DB	0ffH
	DB	0f8H
	DB	0fcH
	DB	0f8H
	DB	0ffH
	DB	0f8H
	DB	0fcH
	DB	0f8H
	DB	0ffH
	DB	0f8H
	DB	0fcH
	DB	0f8H
	DB	0ffH
	DB	0f8H
	DB	0fcH
	DB	0f8H
	DB	0ffH
	DB	0f8H
	DB	0fcH
	DB	0f8H
	DB	0ffH
	DB	0f8H
	DB	0fcH
	DB	0f8H
	DB	0ffH
	DB	0f8H
	DB	0fcH
	DB	0f8H
	DB	0ffH
	DB	0f8H
	DB	0fcH
	DB	0f8H
	DB	0ffH
	DB	0f8H
	DB	0fcH
	DB	0f8H
	DB	0ffH
	DB	0f8H
	DB	0fcH
	DB	0f8H
	DB	0ffH
	DB	0f8H
	DB	0fcH
	DB	0f8H
	DB	0ffH
	DB	0f8H
	DB	0fcH
	DB	0f8H
	DB	0ffH
	DB	0f8H
	DB	0fcH
	DB	0f8H
	DB	0ffH
	DB	0f8H
	DB	0fcH
	DB	0f8H
	DB	0ffH
	DB	0f8H
	DB	0fcH
	DB	0f8H
	DB	0ffH
	DB	0f8H
	DB	0fcH
	DB	0f8H
	DB	0ffH
	DB	0f8H
	DB	0fcH
	DB	0f8H
	DB	0ffH
	DB	0f8H
	DB	0fcH
	DB	0f8H
	DB	0ffH
	DB	0f8H
	DB	0fcH
	DB	0f8H
	DB	0ffH
	DB	0f8H
	DB	0fcH
	DB	0f8H
	DB	0ffH
	DB	0f8H
	DB	0fcH
	DB	0f8H
	DB	0ffH
	DB	0f8H
	DB	0fcH
	DB	0f8H
	DB	0ffH
	DB	0f8H
	DB	0fcH
	DB	0f8H
	DB	0ffH
	DB	0f8H
	DB	0fcH
	DB	0f8H
	DB	0ffH
	DB	0f8H
	DB	0fcH
	DB	0f8H
	DB	0ffH
	DB	0f8H
	DB	0fcH
	DB	0f8H
	DB	0ffH
	DB	0f8H
	DB	0f8H
	DB	0f8H
	DB	0ffH
	DB	0f8H
	DB	0fcH
	DB	0f8H
	DB	0ffH
	DB	0f8H
	DB	0fcH
	DB	0f8H
	DB	0ffH
	DB	0f8H
	DB	0f8H
	DB	0f8H
	DB	0ffH
	DB	0f8H
	DB	0fcH
	DB	0f8H
	DB	0ffH
	DB	0f8H
	DB	0fcH
	DB	0f8H
	DB	0ffH
	DB	0f8H
	DB	0f8H
	DB	0f8H
	DB	0ffH
	DB	0f8H
	DB	0fcH
	DB	0f8H
	DB	0ffH
	DB	0f8H
	DB	0fcH
	DB	0f8H
	DB	0ffH
	DB	0f8H
	DB	0fcH
	DB	0f8H
	DB	0ffH
	DB	0f8H
	DB	0fcH
	DB	0f8H
	DB	0ffH
	DB	0f8H
	DB	0fcH
	DB	0f8H
	DB	0ffH
	DB	0f8H
	DB	0fcH
	DB	0f8H
	DB	0ffH
	DB	0f8H
	DB	0fcH
	DB	0f8H
	DB	0ffH
	DB	0f8H
	DB	0f8H
	DB	0f8H
	DB	0ffH
	DB	0f8H
	DB	0fcH
	DB	0f8H
	DB	0ffH
	DB	0f8H
	DB	0fcH
	DB	0f8H
	DB	0ffH
	DB	0f8H
	DB	0f8H
	DB	0f8H
	DB	0ffH
	DB	0f8H
	DB	0f8H
	DB	0f8H
	DB	0ffH
	DB	0f8H
	DB	0f8H
	DB	0f8H
	DB	0ffH
	DB	0f8H
	DB	0f8H
	DB	0f8H
	DB	0ffH
	DB	0f8H
	DB	0fcH
	DB	0f8H
	DB	0ffH
	DB	0f8H
	DB	0fcH
	DB	0f8H
	DB	0ffH
	DB	0f8H
	DB	0f8H
	DB	0f8H
	DB	0ffH
	DB	0f8H
	DB	0fcH
	DB	0f8H
	DB	0ffH
	DB	0f8H
	DB	0fcH
	DB	0f8H
	DB	0ffH
	DB	0f8H
	DB	0fcH
	DB	0f8H
	DB	0ffH
	DB	0f8H
	DB	0fcH
	DB	0f8H
	DB	0ffH
	DB	0f8H
	DB	0fcH
	DB	0f8H
	DB	0ffH
	DB	0f8H
	DB	0fcH
	DB	0f8H
	DB	0ffH
	DB	0f8H
	DB	0fcH
	DB	0f8H
	DB	0ffH
	DB	0f8H
	DB	0fcH
	DB	0f8H
	DB	0ffH
	DB	0f8H
	DB	0fcH
	DB	0f8H
	DB	0ffH
	DB	0f8H
	DB	0fcH
	DB	0f8H
	DB	0ffH
	DB	0f8H
	DB	0fcH
	DB	0f8H
	DB	0ffH
	DB	0f8H
	DB	0fcH
	DB	0f8H
	DB	0ffH
	DB	0f8H
	DB	0fcH
	DB	0f8H
	DB	0ffH
	DB	0f8H
	DB	0fcH
	DB	0f8H
	DB	0ffH
	DB	0f8H
	DB	0fcH
	DB	0f8H
	DB	0ffH
	DB	0f8H
	DB	0fcH
	DB	0f8H
	DB	0ffH
	DB	0f8H
	DB	0fcH
	DB	0f8H
	DB	0ffH
	DB	0f8H
	DB	0fcH
	DB	0f8H
	DB	0ffH
	DB	0f8H
	DB	0fcH
	DB	0f8H
	DB	0ffH
	DB	0f8H
	DB	0fcH
	DB	0f8H
	DB	0ffH
	DB	0f8H
	DB	0fcH
	DB	0f8H
	DB	0ffH
	DB	0f8H
	DB	0fcH
	DB	0f8H
	DB	0ffH
	DB	0f8H
	DB	0f8H
	DB	0f8H
	DB	0ffH
	DB	0f8H
	DB	0f8H
	DB	0f8H
	DB	0ffH
	DB	0f0H
	DB	0f8H
	DB	0f8H
	DB	0ffH
	DB	0f8H
	DB	0f8H
	DB	0f8H
	DB	0ffH
	DB	0f8H
	DB	0f4H
	DB	0f8H
	DB	0ffH
	DB	0f0H
	DB	0f4H
	DB	0f8H
	DB	0ffH
	DB	0f0H
	DB	0f4H
	DB	0f0H
	DB	0ffH
	DB	0f0H
	DB	0f4H
	DB	0f8H
	DB	0ffH
	DB	0f0H
	DB	0f0H
	DB	0f0H
	DB	0ffH
	DB	0f0H
	DB	0f0H
	DB	0f0H
	DB	0ffH
	DB	0f0H
	DB	0f0H
	DB	0f0H
	DB	0ffH
	DB	0f0H
	DB	0f0H
	DB	0f0H
	DB	0ffH
	DB	0f0H
	DB	0ecH
	DB	0f0H
	DB	0ffH
	DB	0e8H
	DB	0ecH
	DB	0e8H
	DB	0ffH
	DB	0f0H
	DB	0ecH
	DB	0f0H
	DB	0ffH
	DB	0f0H
	DB	0ecH
	DB	0f0H
	DB	0ffH
	DB	0e8H
	DB	0ecH
	DB	0e8H
	DB	0ffH
	DB	0f0H
	DB	0ecH
	DB	0f0H
	DB	0ffH
	DB	0e8H
	DB	0ecH
	DB	0e8H
	DB	0ffH
	DB	0f0H
	DB	0ecH
	DB	0f0H
	DB	0ffH
	DB	0f0H
	DB	0ecH
	DB	0f0H
	DB	0ffH
	DB	0e8H
	DB	0ecH
	DB	0e8H
	DB	0ffH
	DB	0f0H
	DB	0ecH
	DB	0f0H
	DB	0ffH
	DB	0f0H
	DB	0ecH
	DB	0f0H
	DB	0ffH
	DB	0e8H
	DB	0ecH
	DB	0e8H
	DB	0ffH
	DB	0e8H
	DB	0ecH
	DB	0e8H
	DB	0ffH
	DB	0f0H
	DB	0ecH
	DB	0f0H
	DB	0ffH
	DB	0f0H
	DB	0ecH
	DB	0f0H
	DB	0ffH
	DB	0f0H
	DB	0ecH
	DB	0f0H
	DB	0ffH
	DB	0f0H
	DB	0f0H
	DB	0e8H
	DB	0ffH
	DB	0f0H
	DB	0f0H
	DB	0f0H
	DB	0ffH
	DB	0e8H
	DB	0f0H
	DB	0f0H
	DB	0ffH
	DB	0e8H
	DB	0f0H
	DB	0f0H
	DB	0ffH
	DB	0f0H
	DB	0f0H
	DB	0f0H
	DB	0ffH
	DB	0f0H
	DB	0f0H
	DB	0f0H
	DB	0ffH
	DB	0f0H
	DB	0f0H
	DB	0f0H
	DB	0ffH
	DB	0f0H
	DB	0f0H
	DB	0f0H
	DB	0ffH
	DB	0f0H
	DB	0f0H
	DB	0f0H
	DB	0ffH
	DB	0f0H
	DB	0f0H
	DB	0f0H
	DB	0ffH
	DB	0f0H
	DB	0f0H
	DB	0f0H
	DB	0ffH
	DB	0f0H
	DB	0f0H
	DB	0f0H
	DB	0ffH
	DB	0f0H
	DB	0f0H
	DB	0f0H
	DB	0ffH
	DB	0f0H
	DB	0f0H
	DB	0f0H
	DB	0ffH
	DB	0f0H
	DB	0f4H
	DB	0f8H
	DB	0ffH
	DB	0f0H
	DB	0f4H
	DB	0f8H
	DB	0ffH
	DB	0f0H
	DB	0f0H
	DB	0f0H
	DB	0ffH
	DB	0f0H
	DB	0f4H
	DB	0f8H
	DB	0ffH
	DB	0f0H
	DB	0f4H
	DB	0f8H
	DB	0ffH
	DB	0f0H
	DB	0f0H
	DB	0f0H
	DB	0ffH
	DB	0f0H
	DB	0f0H
	DB	0f0H
	DB	0ffH
	DB	0f0H
	DB	0f0H
	DB	0f0H
	DB	0ffH
	DB	0f0H
	DB	0f0H
	DB	0f0H
	DB	0ffH
	DB	0e8H
	DB	0f0H
	DB	0f0H
	DB	0ffH
	DB	0f0H
	DB	0f0H
	DB	0f0H
	DB	0ffH
	DB	0f0H
	DB	0ecH
	DB	0f0H
	DB	0ffH
	DB	0e8H
	DB	0ecH
	DB	0f0H
	DB	0ffH
	DB	0f0H
	DB	0ecH
	DB	0e8H
	DB	0ffH
	DB	0e8H
	DB	0ecH
	DB	0e8H
	DB	0ffH
	DB	0e8H
	DB	0ecH
	DB	0e8H
	DB	0ffH
	DB	0e8H
	DB	0e8H
	DB	0e8H
	DB	0ffH
	DB	0e8H
	DB	0ecH
	DB	0e8H
	DB	0ffH
	DB	0e8H
	DB	0e8H
	DB	0e8H
	DB	0ffH
	DB	0e8H
	DB	0e8H
	DB	0e8H
	DB	0ffH
	DB	0e8H
	DB	0e8H
	DB	0e8H
	DB	0ffH
	DB	0e8H
	DB	0e8H
	DB	0e8H
	DB	0ffH
	DB	0e8H
	DB	0e8H
	DB	0e8H
	DB	0ffH
	DB	0e8H
	DB	0e8H
	DB	0e8H
	DB	0ffH
	DB	0e8H
	DB	0e8H
	DB	0e8H
	DB	0ffH
	DB	0e8H
	DB	0e8H
	DB	0e8H
	DB	0ffH
	DB	0e8H
	DB	0e8H
	DB	0e8H
	DB	0ffH
	DB	0e8H
	DB	0e4H
	DB	0e8H
	DB	0ffH
	DB	0e8H
	DB	0e8H
	DB	0e8H
	DB	0ffH
	DB	0e8H
	DB	0e8H
	DB	0e8H
	DB	0ffH
	DB	0e8H
	DB	0e8H
	DB	0e8H
	DB	0ffH
	DB	0e8H
	DB	0e8H
	DB	0e8H
	DB	0ffH
	DB	0e8H
	DB	0e8H
	DB	0e8H
	DB	0ffH
	DB	0e8H
	DB	0e8H
	DB	0e8H
	DB	0ffH
	DB	0e8H
	DB	0e8H
	DB	0e8H
	DB	0ffH
	DB	0e8H
	DB	0e8H
	DB	0e8H
	DB	0ffH
	DB	0e8H
	DB	0e8H
	DB	0e8H
	DB	0ffH
	DB	0e8H
	DB	0e8H
	DB	0e8H
	DB	0ffH
	DB	0e8H
	DB	0e8H
	DB	0e8H
	DB	0ffH
	DB	0e8H
	DB	0e8H
	DB	0e8H
	DB	0ffH
	DB	0e8H
	DB	0e8H
	DB	0e8H
	DB	0ffH
	DB	0e8H
	DB	0e8H
	DB	0e8H
	DB	0ffH
	DB	0e8H
	DB	0e8H
	DB	0e8H
	DB	0ffH
	DB	0e8H
	DB	0e8H
	DB	0e8H
	DB	0ffH
	DB	0e8H
	DB	0e4H
	DB	0e0H
	DB	0ffH
	DB	0e8H
	DB	0e4H
	DB	0e0H
	DB	0ffH
	DB	0e8H
	DB	0e4H
	DB	0e8H
	DB	0ffH
	DB	0e8H
	DB	0e8H
	DB	0e8H
	DB	0ffH
	DB	0e8H
	DB	0e8H
	DB	0e8H
	DB	0ffH
	DB	0e8H
	DB	0e4H
	DB	0e0H
	DB	0ffH
	DB	0e8H
	DB	0e4H
	DB	0e0H
	DB	0ffH
	DB	0e8H
	DB	0e4H
	DB	0e8H
	DB	0ffH
	DB	0e0H
	DB	0e4H
	DB	0e0H
	DB	0ffH
	DB	0e0H
	DB	0e0H
	DB	0e0H
	DB	0ffH
	DB	0e0H
	DB	0e0H
	DB	0e0H
	DB	0ffH
	DB	0e0H
	DB	0e0H
	DB	0e0H
	DB	0ffH
	DB	0e0H
	DB	0dcH
	DB	0e0H
	DB	0ffH
	DB	0e0H
	DB	0e0H
	DB	0e0H
	DB	0ffH
	DB	0e0H
	DB	0e4H
	DB	0e0H
	DB	0ffH
	DB	0e8H
	DB	0e4H
	DB	0e0H
	DB	0ffH
	DB	0e0H
	DB	0e0H
	DB	0e0H
	DB	0ffH
	DB	0e8H
	DB	0e4H
	DB	0e8H
	DB	0ffH
	DB	0e8H
	DB	0ecH
	DB	0e8H
	DB	0ffH
	DB	0e8H
	DB	0e8H
	DB	0e8H
	DB	0ffH
	DB	0e8H
	DB	0e8H
	DB	0e8H
	DB	0ffH
	DB	0e8H
	DB	0e4H
	DB	0e8H
	DB	0ffH
	DB	0e0H
	DB	0e0H
	DB	0e0H
	DB	0ffH
	DB	0e0H
	DB	0e0H
	DB	0e0H
	DB	0ffH
	DB	0e8H
	DB	0e4H
	DB	0e0H
	DB	0ffH
	DB	0e8H
	DB	0e4H
	DB	0e0H
	DB	0ffH
	DB	0e8H
	DB	0e4H
	DB	0e8H
	DB	0ffH
	DB	0e8H
	DB	0e4H
	DB	0e8H
	DB	0ffH
	DB	0e0H
	DB	0e0H
	DB	0e0H
	DB	0ffH
	DB	0d8H
	DB	0d8H
	DB	0d0H
	DB	0ffH
	DB	0e0H
	DB	0d4H
	DB	0d0H
	DB	0ffH
	DB	0d8H
	DB	0d4H
	DB	0c8H
	DB	0ffH
	DB	0d8H
	DB	0d0H
	DB	0c8H
	DB	0ffH
	DB	0d8H
	DB	0d0H
	DB	0c8H
	DB	0ffH
	DB	0d8H
	DB	0d4H
	DB	0c8H
	DB	0ffH
	DB	0d8H
	DB	0d4H
	DB	0d0H
	DB	0ffH
	DB	0d8H
	DB	0d4H
	DB	0d0H
	DB	0ffH
	DB	0e0H
	DB	0d8H
	DB	0d0H
	DB	0ffH
	DB	0e0H
	DB	0dcH
	DB	0d8H
	DB	0ffH
	DB	0e8H
	DB	0dcH
	DB	0d8H
	DB	0ffH
	DB	0e0H
	DB	0dcH
	DB	0d8H
	DB	0ffH
	DB	0e0H
	DB	0dcH
	DB	0d8H
	DB	0ffH
	DB	0e0H
	DB	0d8H
	DB	0d8H
	DB	0ffH
	DB	0e0H
	DB	0d8H
	DB	0d8H
	DB	0ffH
	DB	0d8H
	DB	0d4H
	DB	0d0H
	DB	0ffH
	DB	0e0H
	DB	0d4H
	DB	0d0H
	DB	0ffH
	DB	0d8H
	DB	0d4H
	DB	0c8H
	DB	0ffH
	DB	0d8H
	DB	0d4H
	DB	0c8H
	DB	0ffH
	DB	0d8H
	DB	0d0H
	DB	0c8H
	DB	0ffH
	DB	0e0H
	DB	0d4H
	DB	0c8H
	DB	0ffH
	DB	0d8H
	DB	0d4H
	DB	0c8H
	DB	0ffH
	DB	0d8H
	DB	0d0H
	DB	0c8H
	DB	0ffH
	DB	0e0H
	DB	0d4H
	DB	0c8H
	DB	0ffH
	DB	0d8H
	DB	0d4H
	DB	0c8H
	DB	0ffH
	DB	0d8H
	DB	0d4H
	DB	0c8H
	DB	0ffH
	DB	0d8H
	DB	0d0H
	DB	0c0H
	DB	0ffH
	DB	0d8H
	DB	0d0H
	DB	0c0H
	DB	0ffH
	DB	0d8H
	DB	0d0H
	DB	0c0H
	DB	0ffH
	DB	0d8H
	DB	0d0H
	DB	0c0H
	DB	0ffH
	DB	0d8H
	DB	0d0H
	DB	0c0H
	DB	0ffH
	DB	0d8H
	DB	0d0H
	DB	0c0H
	DB	0ffH
	DB	0d8H
	DB	0d0H
	DB	0c8H
	DB	0ffH
	DB	0e0H
	DB	0d0H
	DB	0c8H
	DB	0ffH
	DB	0e0H
	DB	0d4H
	DB	0d0H
	DB	0ffH
	DB	0e8H
	DB	0e0H
	DB	0e0H
	DB	0ffH
	DB	0f0H
	DB	0ecH
	DB	0e8H
	DB	0ffH
	DB	0f0H
	DB	0e8H
	DB	0e8H
	DB	0ffH
	DB	0e8H
	DB	0e4H
	DB	0e8H
	DB	0ffH
	DB	0e8H
	DB	0e4H
	DB	0e0H
	DB	0ffH
	DB	0e0H
	DB	0e4H
	DB	0e0H
	DB	0ffH
	DB	0e0H
	DB	0e4H
	DB	0e0H
	DB	0ffH
	DB	0e8H
	DB	0e4H
	DB	0e8H
	DB	0ffH
	DB	0e8H
	DB	0e8H
	DB	0e8H
	DB	0ffH
	DB	0e8H
	DB	0e8H
	DB	0e8H
	DB	0ffH
	DB	0e8H
	DB	0e4H
	DB	0e0H
	DB	0ffH
	DB	0e8H
	DB	0e4H
	DB	0e8H
	DB	0ffH
	DB	0e8H
	DB	0e8H
	DB	0e8H
	DB	0ffH
	DB	0e8H
	DB	0e4H
	DB	0e8H
	DB	0ffH
	DB	0e8H
	DB	0e4H
	DB	0e8H
	DB	0ffH
	DB	0e8H
	DB	0e4H
	DB	0e8H
	DB	0ffH
	DB	0e0H
	DB	0e0H
	DB	0e0H
	DB	0ffH
	DB	0e0H
	DB	0e0H
	DB	0e0H
	DB	0ffH
	DB	0e0H
	DB	0e0H
	DB	0e0H
	DB	0ffH
	DB	0e0H
	DB	0e0H
	DB	0e0H
	DB	0ffH
	DB	0e0H
	DB	0e0H
	DB	0e0H
	DB	0ffH
	DB	0e0H
	DB	0e0H
	DB	0e0H
	DB	0ffH
	DB	0e8H
	DB	0e0H
	DB	0e0H
	DB	0ffH
	DB	0e0H
	DB	0e0H
	DB	0e0H
	DB	0ffH
	DB	0e0H
	DB	0e0H
	DB	0d8H
	DB	0ffH
	DB	0e0H
	DB	0dcH
	DB	0d8H
	DB	0ffH
	DB	0e0H
	DB	0e0H
	DB	0e0H
	DB	0ffH
	DB	0e8H
	DB	0e4H
	DB	0e0H
	DB	0ffH
	DB	0e8H
	DB	0e4H
	DB	0e8H
	DB	0ffH
	DB	0e8H
	DB	0ecH
	DB	0e8H
	DB	0ffH
	DB	0e8H
	DB	0f0H
	DB	0f0H
	DB	0ffH
	DB	0f0H
	DB	0f0H
	DB	0f0H
	DB	0ffH
	DB	0f0H
	DB	0f0H
	DB	0f0H
	DB	0ffH
	DB	0f0H
	DB	0f0H
	DB	0f0H
	DB	0ffH
	DB	0e8H
	DB	0ecH
	DB	0f0H
	DB	0ffH
	DB	0e8H
	DB	0ecH
	DB	0f0H
	DB	0ffH
	DB	0e8H
	DB	0ecH
	DB	0f0H
	DB	0ffH
	DB	0e8H
	DB	0ecH
	DB	0e8H
	DB	0ffH
	DB	0e8H
	DB	0e8H
	DB	0e8H
	DB	0ffH
	DB	0e8H
	DB	0ecH
	DB	0f0H
	DB	0ffH
	DB	0e8H
	DB	0e8H
	DB	0e8H
	DB	0ffH
	DB	0e8H
	DB	0e8H
	DB	0e8H
	DB	0ffH
	DB	0e0H
	DB	0e4H
	DB	0e8H
	DB	0ffH
	DB	0e0H
	DB	0e4H
	DB	0e0H
	DB	0ffH
	DB	0e0H
	DB	0e0H
	DB	0e0H
	DB	0ffH
	DB	0e0H
	DB	0e0H
	DB	0e0H
	DB	0ffH
	DB	0e0H
	DB	0dcH
	DB	0d8H
	DB	0ffH
	DB	0d8H
	DB	0d8H
	DB	0d8H
	DB	0ffH
	DB	0e0H
	DB	0d8H
	DB	0d8H
	DB	0ffH
	DB	0d8H
	DB	0d8H
	DB	0d8H
	DB	0ffH
	DB	0d8H
	DB	0d8H
	DB	0d8H
	DB	0ffH
	DB	0d8H
	DB	0d8H
	DB	0d8H
	DB	0ffH
	DB	0e0H
	DB	0dcH
	DB	0d8H
	DB	0ffH
	DB	0d8H
	DB	0d8H
	DB	0d8H
	DB	0ffH
	DB	0d8H
	DB	0d4H
	DB	0d0H
	DB	0ffH
	DB	0d8H
	DB	0d8H
	DB	0d8H
	DB	0ffH
	DB	0d8H
	DB	0dcH
	DB	0d8H
	DB	0ffH
	DB	0e0H
	DB	0d8H
	DB	0d8H
	DB	0ffH
	DB	0e0H
	DB	0dcH
	DB	0d8H
	DB	0ffH
	DB	0e0H
	DB	0e0H
	DB	0d8H
	DB	0ffH
	DB	0e0H
	DB	0e0H
	DB	0e0H
	DB	0ffH
	DB	0e0H
	DB	0e0H
	DB	0e0H
	DB	0ffH
	DB	0e0H
	DB	0dcH
	DB	0e0H
	DB	0ffH
	DB	0e0H
	DB	0dcH
	DB	0e0H
	DB	0ffH
	DB	0e0H
	DB	0dcH
	DB	0d8H
	DB	0ffH
	DB	0e0H
	DB	0dcH
	DB	0e0H
	DB	0ffH
	DB	0e0H
	DB	0e0H
	DB	0e0H
	DB	0ffH
	DB	0e0H
	DB	0e0H
	DB	0e0H
	DB	0ffH
	DB	0e8H
	DB	0e4H
	DB	0e0H
	DB	0ffH
	DB	0e8H
	DB	0e4H
	DB	0e8H
	DB	0ffH
	DB	0e8H
	DB	0e4H
	DB	0e0H
	DB	0ffH
	DB	0e0H
	DB	0e4H
	DB	0e8H
	DB	0ffH
	DB	0e8H
	DB	0e8H
	DB	0e8H
	DB	0ffH
	DB	0e8H
	DB	0ecH
	DB	0f0H
	DB	0ffH
	DB	0f0H
	DB	0f0H
	DB	0f0H
	DB	0ffH
	DB	0e8H
	DB	0ecH
	DB	0e8H
	DB	0ffH
	DB	0f0H
	DB	0f0H
	DB	0f0H
	DB	0ffH
	DB	0f0H
	DB	0f0H
	DB	0f0H
	DB	0ffH
	DB	0f0H
	DB	0f0H
	DB	0f0H
	DB	0ffH
	DB	0f0H
	DB	0f0H
	DB	0f0H
	DB	0ffH
	DB	0f0H
	DB	0f0H
	DB	0f0H
	DB	0ffH
	DB	0f0H
	DB	0f0H
	DB	0f0H
	DB	0ffH
	DB	0f0H
	DB	0f0H
	DB	0f0H
	DB	0ffH
	DB	0f0H
	DB	0f0H
	DB	0f0H
	DB	0ffH
	DB	0f0H
	DB	0f0H
	DB	0f0H
	DB	0ffH
	DB	0f0H
	DB	0f0H
	DB	0f0H
	DB	0ffH
	DB	0f0H
	DB	0f0H
	DB	0f0H
	DB	0ffH
	DB	0e8H
	DB	0f0H
	DB	0f0H
	DB	0ffH
	DB	0e8H
	DB	0f0H
	DB	0f0H
	DB	0ffH
	DB	0f0H
	DB	0ecH
	DB	0f0H
	DB	0ffH
	DB	0e8H
	DB	0ecH
	DB	0f0H
	DB	0ffH
	DB	0e8H
	DB	0ecH
	DB	0f0H
	DB	0ffH
	DB	0e8H
	DB	0ecH
	DB	0e8H
	DB	0ffH
	DB	0e8H
	DB	0ecH
	DB	0f0H
	DB	0ffH
	DB	0e8H
	DB	0e8H
	DB	0e8H
	DB	0ffH
	DB	0e8H
	DB	0e8H
	DB	0e8H
	DB	0ffH
	DB	0e8H
	DB	0e8H
	DB	0e8H
	DB	0ffH
	DB	0e8H
	DB	0e8H
	DB	0e8H
	DB	0ffH
	DB	0e0H
	DB	0e4H
	DB	0e0H
	DB	0ffH
	DB	0e0H
	DB	0e0H
	DB	0e0H
	DB	0ffH
	DB	0e0H
	DB	0dcH
	DB	0d8H
	DB	0ffH
	DB	0d8H
	DB	0d8H
	DB	0d8H
	DB	0ffH
	DB	0e0H
	DB	0dcH
	DB	0e0H
	DB	0ffH
	DB	0e0H
	DB	0dcH
	DB	0e0H
	DB	0ffH
	DB	0d8H
	DB	0d8H
	DB	0d0H
	DB	0ffH
	DB	0d8H
	DB	0d0H
	DB	0c8H
	DB	0ffH
	DB	0d8H
	DB	0d0H
	DB	0c8H
	DB	0ffH
	DB	0d8H
	DB	0d0H
	DB	0c0H
	DB	0ffH
	DB	0d8H
	DB	0d0H
	DB	0c0H
	DB	0ffH
	DB	0d8H
	DB	0ccH
	DB	0c0H
	DB	0ffH
	DB	0d0H
	DB	0ccH
	DB	0c0H
	DB	0ffH
	DB	0d0H
	DB	0c8H
	DB	0b8H
	DB	0ffH
	DB	0d8H
	DB	0c8H
	DB	0b8H
	DB	0ffH
	DB	0d8H
	DB	0ccH
	DB	0b8H
	DB	0ffH
	DB	0d8H
	DB	0ccH
	DB	0b8H
	DB	0ffH
	DB	0d8H
	DB	0ccH
	DB	0b8H
	DB	0ffH
	DB	0d0H
	DB	0c8H
	DB	0b8H
	DB	0ffH
	DB	0d0H
	DB	0c8H
	DB	0b8H
	DB	0ffH
	DB	0d0H
	DB	0c8H
	DB	0b0H
	DB	0ffH
	DB	0d0H
	DB	0c8H
	DB	0b0H
	DB	0ffH
	DB	0d8H
	DB	0c8H
	DB	0b8H
	DB	0ffH
	DB	0d8H
	DB	0c8H
	DB	0b0H
	DB	0ffH
	DB	0d0H
	DB	0c8H
	DB	0b0H
	DB	0ffH
	DB	0d0H
	DB	0c4H
	DB	0b0H
	DB	0ffH
	DB	0d8H
	DB	0c8H
	DB	0b0H
	DB	0ffH
	DB	0d0H
	DB	0c8H
	DB	0b0H
	DB	0ffH
	DB	0d0H
	DB	0c8H
	DB	0b0H
	DB	0ffH
	DB	0d0H
	DB	0c8H
	DB	0b0H
	DB	0ffH
	DB	0d8H
	DB	0c4H
	DB	0b8H
	DB	0ffH
	DB	0d8H
	DB	0c4H
	DB	0b8H
	DB	0ffH
	DB	0d8H
	DB	0c8H
	DB	0b8H
	DB	0ffH
	DB	0d8H
	DB	0c8H
	DB	0b8H
	DB	0ffH
	DB	0d8H
	DB	0c8H
	DB	0b8H
	DB	0ffH
	DB	0d8H
	DB	0c8H
	DB	0b8H
	DB	0ffH
	DB	0d8H
	DB	0c8H
	DB	0b8H
	DB	0ffH
	DB	0d8H
	DB	0c8H
	DB	0b8H
	DB	0ffH
	DB	0d0H
	DB	0c8H
	DB	0b8H
	DB	0ffH
	DB	0d0H
	DB	0ccH
	DB	0b8H
	DB	0ffH
	DB	0d8H
	DB	0ccH
	DB	0b8H
	DB	0ffH
	DB	0d0H
	DB	0c8H
	DB	0b8H
	DB	0ffH
	DB	0d8H
	DB	0ccH
	DB	0b8H
	DB	0ffH
	DB	0d0H
	DB	0c8H
	DB	0b8H
	DB	0ffH
	DB	0d0H
	DB	0c8H
	DB	0b8H
	DB	0ffH
	DB	0d0H
	DB	0ccH
	DB	0b8H
	DB	0ffH
	DB	0d8H
	DB	0ccH
	DB	0b8H
	DB	0ffH
	DB	0d0H
	DB	0c8H
	DB	0b0H
	DB	0ffH
	DB	0d0H
	DB	0c8H
	DB	0b8H
	DB	0ffH
	DB	0d0H
	DB	0c8H
	DB	0b8H
	DB	0ffH
	DB	0d0H
	DB	0ccH
	DB	0b8H
	DB	0ffH
	DB	0d8H
	DB	0ccH
	DB	0c0H
	DB	0ffH
	DB	0d8H
	DB	0ccH
	DB	0c0H
	DB	0ffH
	DB	0d0H
	DB	0d0H
	DB	0c0H
	DB	0ffH
	DB	0d8H
	DB	0d0H
	DB	0c8H
	DB	0ffH
	DB	0d8H
	DB	0d0H
	DB	0c8H
	DB	0ffH
	DB	0d8H
	DB	0d0H
	DB	0c8H
	DB	0ffH
	DB	0d8H
	DB	0d0H
	DB	0d0H
	DB	0ffH
	DB	0d0H
	DB	0ccH
	DB	0c8H
	DB	0ffH
	DB	0d0H
	DB	0ccH
	DB	0c8H
	DB	0ffH
	DB	0d8H
	DB	0d0H
	DB	0d0H
	DB	0ffH
	DB	0e0H
	DB	0d8H
	DB	0d0H
	DB	0ffH
	DB	0e0H
	DB	0dcH
	DB	0d8H
	DB	0ffH
	DB	0e0H
	DB	0e0H
	DB	0e0H
	DB	0ffH
	DB	0e8H
	DB	0e4H
	DB	0e8H
	DB	0ffH
	DB	0e8H
	DB	0e4H
	DB	0e8H
	DB	0ffH
	DB	0e0H
	DB	0e0H
	DB	0e0H
	DB	0ffH
	DB	0e0H
	DB	0e0H
	DB	0e0H
	DB	0ffH
	DB	0e8H
	DB	0e0H
	DB	0e8H
	DB	0ffH
	DB	0e8H
	DB	0e4H
	DB	0e8H
	DB	0ffH
	DB	0e0H
	DB	0e4H
	DB	0e0H
	DB	0ffH
	DB	0e0H
	DB	0e0H
	DB	0e0H
	DB	0ffH
	DB	0e0H
	DB	0e0H
	DB	0e0H
	DB	0ffH
	DB	0e0H
	DB	0e4H
	DB	0e0H
	DB	0ffH
	DB	0e0H
	DB	0e4H
	DB	0e0H
	DB	0ffH
	DB	0e0H
	DB	0e0H
	DB	0e0H
	DB	0ffH
	DB	0e0H
	DB	0e0H
	DB	0e0H
	DB	0ffH
	DB	0d8H
	DB	0dcH
	DB	0d8H
	DB	0ffH
	DB	0e0H
	DB	0dcH
	DB	0e0H
	DB	0ffH
	DB	0e0H
	DB	0d8H
	DB	0d8H
	DB	0ffH
	DB	0e0H
	DB	0d8H
	DB	0d8H
	DB	0ffH
	DB	0d8H
	DB	0d4H
	DB	0d8H
	DB	0ffH
	DB	0e0H
	DB	0d8H
	DB	0d0H
	DB	0ffH
	DB	0d8H
	DB	0d4H
	DB	0d0H
	DB	0ffH
	DB	0d8H
	DB	0d0H
	DB	0d0H
	DB	0ffH
	DB	0d8H
	DB	0ccH
	DB	0c8H
	DB	0ffH
	DB	0d0H
	DB	0c4H
	DB	0b8H
	DB	0ffH
	DB	0d0H
	DB	0c4H
	DB	0b8H
	DB	0ffH
	DB	0d0H
	DB	0c4H
	DB	0b8H
	DB	0ffH
	DB	0d0H
	DB	0c4H
	DB	0b8H
	DB	0ffH
	DB	0d8H
	DB	0c8H
	DB	0b8H
	DB	0ffH
	DB	0d0H
	DB	0c0H
	DB	0b0H
	DB	0ffH
	DB	0d0H
	DB	0c4H
	DB	0b8H
	DB	0ffH
	DB	0d8H
	DB	0ccH
	DB	0c8H
	DB	0ffH
	DB	0d0H
	DB	0d0H
	DB	0c8H
	DB	0ffH
	DB	0d0H
	DB	0ccH
	DB	0c8H
	DB	0ffH
	DB	0d0H
	DB	0d0H
	DB	0c8H
	DB	0ffH
	DB	0d8H
	DB	0d4H
	DB	0c8H
	DB	0ffH
	DB	0d8H
	DB	0d4H
	DB	0d0H
	DB	0ffH
	DB	0d8H
	DB	0d0H
	DB	0c8H
	DB	0ffH
	DB	0d8H
	DB	0d4H
	DB	0c8H
	DB	0ffH
	DB	0d8H
	DB	0d4H
	DB	0d0H
	DB	0ffH
	DB	0d8H
	DB	0d0H
	DB	0c8H
	DB	0ffH
	DB	0d8H
	DB	0d8H
	DB	0d8H
	DB	0ffH
	DB	0e0H
	DB	0e0H
	DB	0e0H
	DB	0ffH
	DB	0e8H
	DB	0e8H
	DB	0f0H
	DB	0ffH
	DB	0e8H
	DB	0ecH
	DB	0f0H
	DB	0ffH
	DB	0e8H
	DB	0ecH
	DB	0f0H
	DB	0ffH
	DB	0f0H
	DB	0f0H
	DB	0f0H
	DB	0ffH
	DB	0e8H
	DB	0f0H
	DB	0f0H
	DB	0ffH
	DB	0e8H
	DB	0f0H
	DB	0f0H
	DB	0ffH
	DB	0f0H
	DB	0f0H
	DB	0f0H
	DB	0ffH
	DB	0e8H
	DB	0f0H
	DB	0f0H
	DB	0ffH
	DB	0e8H
	DB	0ecH
	DB	0f0H
	DB	0ffH
	DB	0e8H
	DB	0ecH
	DB	0f0H
	DB	0ffH
	DB	0e8H
	DB	0f0H
	DB	0f0H
	DB	0ffH
	DB	0e8H
	DB	0ecH
	DB	0f0H
	DB	0ffH
	DB	0e8H
	DB	0ecH
	DB	0f0H
	DB	0ffH
	DB	0e8H
	DB	0ecH
	DB	0f0H
	DB	0ffH
	DB	0e8H
	DB	0ecH
	DB	0e8H
	DB	0ffH
	DB	0e8H
	DB	0e8H
	DB	0e8H
	DB	0ffH
	DB	0e8H
	DB	0ecH
	DB	0f0H
	DB	0ffH
	DB	0e8H
	DB	0e8H
	DB	0e8H
	DB	0ffH
	DB	0e8H
	DB	0ecH
	DB	0f0H
	DB	0ffH
	DB	0e0H
	DB	0e8H
	DB	0e8H
	DB	0ffH
	DB	0e0H
	DB	0e8H
	DB	0e8H
	DB	0ffH
	DB	0e8H
	DB	0e8H
	DB	0e8H
	DB	0ffH
	DB	0e8H
	DB	0e8H
	DB	0e8H
	DB	0ffH
	DB	0e0H
	DB	0e4H
	DB	0e8H
	DB	0ffH
	DB	0e0H
	DB	0e4H
	DB	0e0H
	DB	0ffH
	DB	0e8H
	DB	0e4H
	DB	0e8H
	DB	0ffH
	DB	0e0H
	DB	0e0H
	DB	0e0H
	DB	0ffH
	DB	0e0H
	DB	0e0H
	DB	0e0H
	DB	0ffH
	DB	0e0H
	DB	0e0H
	DB	0e0H
	DB	0ffH
	DB	0e0H
	DB	0e0H
	DB	0e0H
	DB	0ffH
	DB	0f8H
	DB	0fcH
	DB	0f8H
	DB	0ffH
	DB	0f8H
	DB	0fcH
	DB	0f8H
	DB	0ffH
	DB	0f8H
	DB	0fcH
	DB	0f8H
	DB	0ffH
	DB	0f8H
	DB	0fcH
	DB	0f8H
	DB	0ffH
	DB	0f8H
	DB	0fcH
	DB	0f8H
	DB	0ffH
	DB	0f8H
	DB	0fcH
	DB	0f8H
	DB	0ffH
	DB	0f8H
	DB	0fcH
	DB	0f8H
	DB	0ffH
	DB	0f8H
	DB	0fcH
	DB	0f8H
	DB	0ffH
	DB	0f8H
	DB	0fcH
	DB	0f8H
	DB	0ffH
	DB	0f8H
	DB	0fcH
	DB	0f8H
	DB	0ffH
	DB	0f8H
	DB	0fcH
	DB	0f8H
	DB	0ffH
	DB	0f8H
	DB	0fcH
	DB	0f8H
	DB	0ffH
	DB	0f8H
	DB	0fcH
	DB	0f8H
	DB	0ffH
	DB	0f8H
	DB	0fcH
	DB	0f8H
	DB	0ffH
	DB	0f8H
	DB	0fcH
	DB	0f8H
	DB	0ffH
	DB	0f8H
	DB	0fcH
	DB	0f8H
	DB	0ffH
	DB	0f8H
	DB	0fcH
	DB	0f8H
	DB	0ffH
	DB	0f8H
	DB	0fcH
	DB	0f8H
	DB	0ffH
	DB	0f8H
	DB	0fcH
	DB	0f8H
	DB	0ffH
	DB	0f8H
	DB	0fcH
	DB	0f8H
	DB	0ffH
	DB	0f8H
	DB	0fcH
	DB	0f8H
	DB	0ffH
	DB	0f8H
	DB	0fcH
	DB	0f8H
	DB	0ffH
	DB	0f8H
	DB	0fcH
	DB	0f8H
	DB	0ffH
	DB	0f8H
	DB	0fcH
	DB	0f8H
	DB	0ffH
	DB	0f8H
	DB	0fcH
	DB	0f8H
	DB	0ffH
	DB	0f8H
	DB	0fcH
	DB	0f8H
	DB	0ffH
	DB	0f8H
	DB	0fcH
	DB	0f8H
	DB	0ffH
	DB	0f8H
	DB	0fcH
	DB	0f8H
	DB	0ffH
	DB	0f8H
	DB	0fcH
	DB	0f8H
	DB	0ffH
	DB	0f8H
	DB	0fcH
	DB	0f8H
	DB	0ffH
	DB	0f8H
	DB	0fcH
	DB	0f8H
	DB	0ffH
	DB	0f8H
	DB	0fcH
	DB	0f8H
	DB	0ffH
	DB	0f8H
	DB	0fcH
	DB	0f8H
	DB	0ffH
	DB	0f8H
	DB	0fcH
	DB	0f8H
	DB	0ffH
	DB	0f8H
	DB	0fcH
	DB	0f8H
	DB	0ffH
	DB	0f8H
	DB	0fcH
	DB	0f8H
	DB	0ffH
	DB	0f8H
	DB	0fcH
	DB	0f8H
	DB	0ffH
	DB	0f8H
	DB	0fcH
	DB	0f8H
	DB	0ffH
	DB	0f8H
	DB	0fcH
	DB	0f8H
	DB	0ffH
	DB	0f8H
	DB	0fcH
	DB	0f8H
	DB	0ffH
	DB	0f8H
	DB	0fcH
	DB	0f8H
	DB	0ffH
	DB	0f8H
	DB	0fcH
	DB	0f8H
	DB	0ffH
	DB	0f8H
	DB	0fcH
	DB	0f8H
	DB	0ffH
	DB	0f8H
	DB	0fcH
	DB	0f8H
	DB	0ffH
	DB	0f8H
	DB	0fcH
	DB	0f8H
	DB	0ffH
	DB	0f8H
	DB	0fcH
	DB	0f8H
	DB	0ffH
	DB	0f8H
	DB	0fcH
	DB	0f8H
	DB	0ffH
	DB	0f8H
	DB	0fcH
	DB	0f8H
	DB	0ffH
	DB	0f8H
	DB	0fcH
	DB	0f8H
	DB	0ffH
	DB	0f8H
	DB	0fcH
	DB	0f8H
	DB	0ffH
	DB	0f8H
	DB	0fcH
	DB	0f8H
	DB	0ffH
	DB	0f8H
	DB	0fcH
	DB	0f8H
	DB	0ffH
	DB	0f8H
	DB	0fcH
	DB	0f8H
	DB	0ffH
	DB	0f8H
	DB	0fcH
	DB	0f8H
	DB	0ffH
	DB	0f8H
	DB	0fcH
	DB	0f8H
	DB	0ffH
	DB	0f8H
	DB	0fcH
	DB	0f8H
	DB	0ffH
	DB	0f8H
	DB	0f8H
	DB	0f8H
	DB	0ffH
	DB	0f8H
	DB	0fcH
	DB	0f8H
	DB	0ffH
	DB	0f8H
	DB	0fcH
	DB	0f8H
	DB	0ffH
	DB	0f8H
	DB	0fcH
	DB	0f8H
	DB	0ffH
	DB	0f8H
	DB	0fcH
	DB	0f8H
	DB	0ffH
	DB	0f8H
	DB	0fcH
	DB	0f8H
	DB	0ffH
	DB	0f8H
	DB	0fcH
	DB	0f8H
	DB	0ffH
	DB	0f8H
	DB	0fcH
	DB	0f8H
	DB	0ffH
	DB	0f8H
	DB	0fcH
	DB	0f8H
	DB	0ffH
	DB	0f8H
	DB	0fcH
	DB	0f8H
	DB	0ffH
	DB	0f8H
	DB	0fcH
	DB	0f8H
	DB	0ffH
	DB	0f8H
	DB	0f8H
	DB	0f8H
	DB	0ffH
	DB	0f0H
	DB	0f8H
	DB	0f8H
	DB	0ffH
	DB	0f8H
	DB	0fcH
	DB	0f8H
	DB	0ffH
	DB	0f8H
	DB	0fcH
	DB	0f8H
	DB	0ffH
	DB	0f8H
	DB	0fcH
	DB	0f8H
	DB	0ffH
	DB	0f8H
	DB	0fcH
	DB	0f8H
	DB	0ffH
	DB	0f8H
	DB	0fcH
	DB	0f8H
	DB	0ffH
	DB	0f8H
	DB	0fcH
	DB	0f8H
	DB	0ffH
	DB	0f8H
	DB	0fcH
	DB	0f8H
	DB	0ffH
	DB	0f8H
	DB	0fcH
	DB	0f8H
	DB	0ffH
	DB	0f8H
	DB	0fcH
	DB	0f8H
	DB	0ffH
	DB	0f8H
	DB	0fcH
	DB	0f8H
	DB	0ffH
	DB	0f8H
	DB	0fcH
	DB	0f8H
	DB	0ffH
	DB	0f8H
	DB	0fcH
	DB	0f8H
	DB	0ffH
	DB	0f8H
	DB	0fcH
	DB	0f8H
	DB	0ffH
	DB	0f8H
	DB	0fcH
	DB	0f8H
	DB	0ffH
	DB	0f8H
	DB	0fcH
	DB	0f8H
	DB	0ffH
	DB	0f8H
	DB	0fcH
	DB	0f8H
	DB	0ffH
	DB	0f8H
	DB	0fcH
	DB	0f8H
	DB	0ffH
	DB	0f8H
	DB	0fcH
	DB	0f8H
	DB	0ffH
	DB	0f8H
	DB	0fcH
	DB	0f8H
	DB	0ffH
	DB	0f8H
	DB	0fcH
	DB	0f8H
	DB	0ffH
	DB	0f8H
	DB	0fcH
	DB	0f8H
	DB	0ffH
	DB	0f8H
	DB	0fcH
	DB	0f8H
	DB	0ffH
	DB	0f8H
	DB	0fcH
	DB	0f8H
	DB	0ffH
	DB	0f8H
	DB	0fcH
	DB	0f8H
	DB	0ffH
	DB	0f8H
	DB	0fcH
	DB	0f8H
	DB	0ffH
	DB	0f8H
	DB	0fcH
	DB	0f8H
	DB	0ffH
	DB	0f8H
	DB	0fcH
	DB	0f8H
	DB	0ffH
	DB	0f8H
	DB	0fcH
	DB	0f8H
	DB	0ffH
	DB	0f8H
	DB	0f8H
	DB	0f8H
	DB	0ffH
	DB	0f0H
	DB	0f8H
	DB	0f8H
	DB	0ffH
	DB	0f0H
	DB	0f4H
	DB	0f0H
	DB	0ffH
	DB	0f0H
	DB	0f4H
	DB	0f8H
	DB	0ffH
	DB	0f0H
	DB	0f4H
	DB	0f0H
	DB	0ffH
	DB	0f0H
	DB	0f4H
	DB	0f0H
	DB	0ffH
	DB	0f8H
	DB	0f4H
	DB	0f8H
	DB	0ffH
	DB	0f0H
	DB	0f0H
	DB	0f0H
	DB	0ffH
	DB	0f0H
	DB	0f0H
	DB	0f0H
	DB	0ffH
	DB	0f0H
	DB	0f0H
	DB	0f0H
	DB	0ffH
	DB	0f0H
	DB	0ecH
	DB	0f0H
	DB	0ffH
	DB	0f0H
	DB	0ecH
	DB	0f0H
	DB	0ffH
	DB	0e8H
	DB	0ecH
	DB	0e8H
	DB	0ffH
	DB	0e8H
	DB	0ecH
	DB	0e8H
	DB	0ffH
	DB	0f0H
	DB	0ecH
	DB	0f0H
	DB	0ffH
	DB	0e8H
	DB	0ecH
	DB	0e8H
	DB	0ffH
	DB	0f0H
	DB	0ecH
	DB	0f0H
	DB	0ffH
	DB	0e8H
	DB	0ecH
	DB	0e8H
	DB	0ffH
	DB	0f0H
	DB	0ecH
	DB	0f0H
	DB	0ffH
	DB	0f0H
	DB	0ecH
	DB	0f0H
	DB	0ffH
	DB	0e8H
	DB	0ecH
	DB	0e8H
	DB	0ffH
	DB	0f0H
	DB	0ecH
	DB	0f0H
	DB	0ffH
	DB	0f0H
	DB	0ecH
	DB	0f0H
	DB	0ffH
	DB	0e8H
	DB	0ecH
	DB	0e8H
	DB	0ffH
	DB	0e8H
	DB	0ecH
	DB	0e8H
	DB	0ffH
	DB	0e8H
	DB	0ecH
	DB	0e8H
	DB	0ffH
	DB	0f0H
	DB	0ecH
	DB	0f0H
	DB	0ffH
	DB	0f0H
	DB	0f0H
	DB	0f0H
	DB	0ffH
	DB	0f0H
	DB	0f0H
	DB	0f0H
	DB	0ffH
	DB	0f0H
	DB	0f0H
	DB	0f0H
	DB	0ffH
	DB	0f0H
	DB	0f0H
	DB	0f0H
	DB	0ffH
	DB	0f0H
	DB	0f0H
	DB	0f0H
	DB	0ffH
	DB	0f0H
	DB	0f0H
	DB	0f0H
	DB	0ffH
	DB	0e8H
	DB	0f0H
	DB	0f0H
	DB	0ffH
	DB	0f0H
	DB	0f0H
	DB	0f0H
	DB	0ffH
	DB	0f0H
	DB	0f0H
	DB	0f0H
	DB	0ffH
	DB	0e8H
	DB	0f0H
	DB	0f0H
	DB	0ffH
	DB	0f0H
	DB	0f0H
	DB	0f0H
	DB	0ffH
	DB	0f0H
	DB	0f0H
	DB	0f0H
	DB	0ffH
	DB	0f0H
	DB	0f0H
	DB	0f0H
	DB	0ffH
	DB	0f0H
	DB	0f0H
	DB	0f0H
	DB	0ffH
	DB	0f0H
	DB	0f0H
	DB	0f0H
	DB	0ffH
	DB	0f0H
	DB	0f4H
	DB	0f8H
	DB	0ffH
	DB	0f0H
	DB	0f4H
	DB	0f8H
	DB	0ffH
	DB	0f0H
	DB	0f4H
	DB	0f8H
	DB	0ffH
	DB	0f0H
	DB	0f4H
	DB	0f8H
	DB	0ffH
	DB	0f0H
	DB	0f4H
	DB	0f8H
	DB	0ffH
	DB	0f0H
	DB	0f4H
	DB	0f8H
	DB	0ffH
	DB	0f0H
	DB	0f4H
	DB	0f0H
	DB	0ffH
	DB	0f0H
	DB	0f0H
	DB	0f0H
	DB	0ffH
	DB	0f0H
	DB	0f0H
	DB	0f0H
	DB	0ffH
	DB	0f0H
	DB	0f0H
	DB	0f0H
	DB	0ffH
	DB	0f0H
	DB	0f0H
	DB	0f0H
	DB	0ffH
	DB	0f0H
	DB	0f0H
	DB	0f0H
	DB	0ffH
	DB	0f0H
	DB	0ecH
	DB	0f0H
	DB	0ffH
	DB	0f0H
	DB	0ecH
	DB	0f0H
	DB	0ffH
	DB	0e8H
	DB	0ecH
	DB	0f0H
	DB	0ffH
	DB	0f0H
	DB	0ecH
	DB	0e8H
	DB	0ffH
	DB	0f0H
	DB	0ecH
	DB	0f0H
	DB	0ffH
	DB	0e8H
	DB	0e8H
	DB	0e8H
	DB	0ffH
	DB	0e8H
	DB	0e8H
	DB	0e8H
	DB	0ffH
	DB	0e8H
	DB	0e8H
	DB	0e8H
	DB	0ffH
	DB	0e8H
	DB	0e8H
	DB	0e8H
	DB	0ffH
	DB	0e8H
	DB	0e8H
	DB	0e8H
	DB	0ffH
	DB	0e8H
	DB	0e8H
	DB	0e8H
	DB	0ffH
	DB	0e8H
	DB	0e8H
	DB	0e8H
	DB	0ffH
	DB	0e8H
	DB	0e4H
	DB	0e0H
	DB	0ffH
	DB	0e8H
	DB	0e8H
	DB	0e8H
	DB	0ffH
	DB	0e8H
	DB	0e8H
	DB	0e8H
	DB	0ffH
	DB	0e8H
	DB	0e8H
	DB	0e8H
	DB	0ffH
	DB	0e8H
	DB	0e8H
	DB	0e8H
	DB	0ffH
	DB	0e8H
	DB	0e8H
	DB	0e8H
	DB	0ffH
	DB	0e8H
	DB	0e8H
	DB	0e8H
	DB	0ffH
	DB	0e8H
	DB	0e8H
	DB	0e8H
	DB	0ffH
	DB	0e8H
	DB	0e8H
	DB	0e8H
	DB	0ffH
	DB	0e8H
	DB	0e8H
	DB	0e8H
	DB	0ffH
	DB	0e8H
	DB	0e8H
	DB	0e8H
	DB	0ffH
	DB	0e8H
	DB	0e8H
	DB	0e8H
	DB	0ffH
	DB	0e8H
	DB	0e8H
	DB	0e8H
	DB	0ffH
	DB	0e8H
	DB	0e8H
	DB	0e8H
	DB	0ffH
	DB	0e8H
	DB	0e8H
	DB	0e8H
	DB	0ffH
	DB	0e8H
	DB	0e8H
	DB	0e8H
	DB	0ffH
	DB	0e8H
	DB	0e8H
	DB	0e8H
	DB	0ffH
	DB	0e8H
	DB	0e4H
	DB	0e8H
	DB	0ffH
	DB	0e0H
	DB	0e4H
	DB	0e0H
	DB	0ffH
	DB	0e8H
	DB	0e4H
	DB	0e0H
	DB	0ffH
	DB	0e8H
	DB	0e4H
	DB	0e8H
	DB	0ffH
	DB	0e8H
	DB	0e4H
	DB	0e8H
	DB	0ffH
	DB	0e8H
	DB	0e4H
	DB	0e0H
	DB	0ffH
	DB	0e8H
	DB	0e4H
	DB	0e0H
	DB	0ffH
	DB	0e8H
	DB	0e4H
	DB	0e0H
	DB	0ffH
	DB	0e0H
	DB	0e4H
	DB	0e8H
	DB	0ffH
	DB	0e0H
	DB	0e4H
	DB	0e0H
	DB	0ffH
	DB	0e0H
	DB	0e4H
	DB	0e0H
	DB	0ffH
	DB	0e0H
	DB	0e0H
	DB	0e0H
	DB	0ffH
	DB	0e8H
	DB	0e0H
	DB	0e0H
	DB	0ffH
	DB	0e0H
	DB	0e0H
	DB	0e0H
	DB	0ffH
	DB	0e0H
	DB	0e0H
	DB	0e0H
	DB	0ffH
	DB	0e0H
	DB	0dcH
	DB	0e0H
	DB	0ffH
	DB	0e0H
	DB	0e0H
	DB	0e0H
	DB	0ffH
	DB	0e8H
	DB	0e4H
	DB	0e8H
	DB	0ffH
	DB	0e8H
	DB	0e4H
	DB	0e8H
	DB	0ffH
	DB	0e8H
	DB	0e4H
	DB	0e8H
	DB	0ffH
	DB	0e8H
	DB	0e8H
	DB	0e8H
	DB	0ffH
	DB	0e8H
	DB	0ecH
	DB	0e8H
	DB	0ffH
	DB	0f0H
	DB	0ecH
	DB	0e8H
	DB	0ffH
	DB	0f0H
	DB	0ecH
	DB	0e8H
	DB	0ffH
	DB	0e8H
	DB	0e8H
	DB	0e8H
	DB	0ffH
	DB	0e8H
	DB	0e8H
	DB	0e8H
	DB	0ffH
	DB	0e8H
	DB	0e8H
	DB	0e8H
	DB	0ffH
	DB	0e0H
	DB	0e4H
	DB	0e0H
	DB	0ffH
	DB	0e8H
	DB	0e4H
	DB	0e0H
	DB	0ffH
	DB	0e8H
	DB	0e4H
	DB	0e8H
	DB	0ffH
	DB	0e8H
	DB	0e8H
	DB	0e8H
	DB	0ffH
	DB	0e8H
	DB	0e8H
	DB	0e8H
	DB	0ffH
	DB	0e0H
	DB	0dcH
	DB	0d8H
	DB	0ffH
	DB	0e0H
	DB	0d8H
	DB	0d0H
	DB	0ffH
	DB	0d8H
	DB	0d4H
	DB	0d0H
	DB	0ffH
	DB	0d8H
	DB	0d0H
	DB	0c8H
	DB	0ffH
	DB	0d8H
	DB	0d0H
	DB	0c8H
	DB	0ffH
	DB	0d8H
	DB	0d4H
	DB	0c8H
	DB	0ffH
	DB	0e0H
	DB	0d4H
	DB	0c8H
	DB	0ffH
	DB	0d8H
	DB	0d4H
	DB	0c8H
	DB	0ffH
	DB	0e0H
	DB	0d8H
	DB	0d0H
	DB	0ffH
	DB	0e8H
	DB	0dcH
	DB	0d8H
	DB	0ffH
	DB	0e8H
	DB	0e0H
	DB	0d8H
	DB	0ffH
	DB	0e0H
	DB	0e0H
	DB	0e0H
	DB	0ffH
	DB	0e0H
	DB	0dcH
	DB	0d8H
	DB	0ffH
	DB	0e0H
	DB	0d8H
	DB	0d8H
	DB	0ffH
	DB	0e0H
	DB	0d8H
	DB	0d0H
	DB	0ffH
	DB	0d8H
	DB	0d0H
	DB	0c8H
	DB	0ffH
	DB	0d8H
	DB	0d0H
	DB	0c8H
	DB	0ffH
	DB	0d8H
	DB	0d0H
	DB	0c0H
	DB	0ffH
	DB	0d8H
	DB	0d0H
	DB	0c0H
	DB	0ffH
	DB	0d8H
	DB	0d0H
	DB	0c0H
	DB	0ffH
	DB	0d8H
	DB	0d0H
	DB	0c0H
	DB	0ffH
	DB	0e0H
	DB	0d0H
	DB	0c0H
	DB	0ffH
	DB	0d8H
	DB	0d0H
	DB	0c0H
	DB	0ffH
	DB	0e0H
	DB	0d4H
	DB	0c8H
	DB	0ffH
	DB	0e0H
	DB	0d4H
	DB	0c8H
	DB	0ffH
	DB	0d8H
	DB	0d0H
	DB	0c0H
	DB	0ffH
	DB	0d8H
	DB	0ccH
	DB	0c0H
	DB	0ffH
	DB	0d8H
	DB	0d0H
	DB	0c0H
	DB	0ffH
	DB	0d8H
	DB	0d0H
	DB	0c0H
	DB	0ffH
	DB	0d8H
	DB	0d0H
	DB	0c0H
	DB	0ffH
	DB	0d8H
	DB	0d0H
	DB	0c0H
	DB	0ffH
	DB	0d8H
	DB	0d0H
	DB	0c8H
	DB	0ffH
	DB	0d8H
	DB	0d0H
	DB	0c8H
	DB	0ffH
	DB	0e0H
	DB	0d8H
	DB	0d8H
	DB	0ffH
	DB	0e8H
	DB	0dcH
	DB	0e0H
	DB	0ffH
	DB	0f0H
	DB	0e8H
	DB	0e8H
	DB	0ffH
	DB	0f0H
	DB	0f0H
	DB	0f0H
	DB	0ffH
	DB	0f0H
	DB	0ecH
	DB	0e8H
	DB	0ffH
	DB	0e8H
	DB	0e8H
	DB	0e8H
	DB	0ffH
	DB	0e0H
	DB	0e4H
	DB	0e0H
	DB	0ffH
	DB	0e0H
	DB	0e0H
	DB	0e8H
	DB	0ffH
	DB	0e0H
	DB	0e0H
	DB	0e8H
	DB	0ffH
	DB	0e0H
	DB	0e4H
	DB	0e0H
	DB	0ffH
	DB	0e8H
	DB	0e8H
	DB	0e8H
	DB	0ffH
	DB	0e8H
	DB	0ecH
	DB	0e8H
	DB	0ffH
	DB	0e8H
	DB	0e8H
	DB	0e8H
	DB	0ffH
	DB	0e8H
	DB	0e4H
	DB	0e8H
	DB	0ffH
	DB	0e8H
	DB	0e8H
	DB	0e8H
	DB	0ffH
	DB	0e8H
	DB	0e8H
	DB	0e8H
	DB	0ffH
	DB	0e8H
	DB	0e4H
	DB	0e0H
	DB	0ffH
	DB	0e0H
	DB	0e4H
	DB	0e0H
	DB	0ffH
	DB	0e0H
	DB	0dcH
	DB	0d8H
	DB	0ffH
	DB	0e0H
	DB	0d8H
	DB	0d8H
	DB	0ffH
	DB	0e0H
	DB	0d8H
	DB	0d8H
	DB	0ffH
	DB	0e0H
	DB	0dcH
	DB	0d8H
	DB	0ffH
	DB	0e0H
	DB	0d8H
	DB	0d8H
	DB	0ffH
	DB	0e0H
	DB	0dcH
	DB	0d8H
	DB	0ffH
	DB	0e0H
	DB	0d8H
	DB	0d8H
	DB	0ffH
	DB	0d8H
	DB	0d8H
	DB	0d0H
	DB	0ffH
	DB	0d8H
	DB	0d4H
	DB	0d0H
	DB	0ffH
	DB	0e0H
	DB	0dcH
	DB	0d8H
	DB	0ffH
	DB	0e0H
	DB	0e0H
	DB	0e0H
	DB	0ffH
	DB	0e8H
	DB	0e0H
	DB	0e0H
	DB	0ffH
	DB	0e8H
	DB	0e8H
	DB	0e8H
	DB	0ffH
	DB	0e8H
	DB	0ecH
	DB	0f0H
	DB	0ffH
	DB	0e8H
	DB	0ecH
	DB	0f0H
	DB	0ffH
	DB	0e8H
	DB	0ecH
	DB	0f0H
	DB	0ffH
	DB	0e8H
	DB	0ecH
	DB	0f0H
	DB	0ffH
	DB	0f0H
	DB	0f0H
	DB	0f0H
	DB	0ffH
	DB	0e8H
	DB	0ecH
	DB	0e8H
	DB	0ffH
	DB	0e8H
	DB	0ecH
	DB	0f0H
	DB	0ffH
	DB	0e8H
	DB	0ecH
	DB	0e8H
	DB	0ffH
	DB	0e8H
	DB	0ecH
	DB	0e8H
	DB	0ffH
	DB	0e8H
	DB	0e8H
	DB	0e8H
	DB	0ffH
	DB	0e8H
	DB	0e8H
	DB	0e8H
	DB	0ffH
	DB	0e8H
	DB	0e8H
	DB	0e8H
	DB	0ffH
	DB	0e0H
	DB	0e4H
	DB	0e8H
	DB	0ffH
	DB	0e8H
	DB	0e4H
	DB	0e8H
	DB	0ffH
	DB	0e8H
	DB	0e4H
	DB	0e0H
	DB	0ffH
	DB	0e0H
	DB	0e0H
	DB	0e0H
	DB	0ffH
	DB	0e0H
	DB	0e0H
	DB	0e0H
	DB	0ffH
	DB	0e0H
	DB	0e0H
	DB	0e0H
	DB	0ffH
	DB	0e0H
	DB	0dcH
	DB	0d8H
	DB	0ffH
	DB	0e0H
	DB	0dcH
	DB	0e0H
	DB	0ffH
	DB	0e0H
	DB	0dcH
	DB	0d8H
	DB	0ffH
	DB	0e0H
	DB	0d8H
	DB	0d8H
	DB	0ffH
	DB	0d8H
	DB	0d8H
	DB	0d8H
	DB	0ffH
	DB	0d8H
	DB	0d4H
	DB	0d0H
	DB	0ffH
	DB	0d8H
	DB	0d4H
	DB	0d0H
	DB	0ffH
	DB	0d8H
	DB	0d4H
	DB	0d0H
	DB	0ffH
	DB	0d8H
	DB	0d8H
	DB	0d8H
	DB	0ffH
	DB	0d8H
	DB	0d8H
	DB	0d8H
	DB	0ffH
	DB	0d8H
	DB	0d8H
	DB	0d8H
	DB	0ffH
	DB	0d8H
	DB	0d8H
	DB	0d8H
	DB	0ffH
	DB	0e0H
	DB	0dcH
	DB	0d8H
	DB	0ffH
	DB	0e0H
	DB	0dcH
	DB	0e0H
	DB	0ffH
	DB	0e0H
	DB	0dcH
	DB	0e0H
	DB	0ffH
	DB	0e0H
	DB	0dcH
	DB	0d8H
	DB	0ffH
	DB	0e0H
	DB	0dcH
	DB	0e0H
	DB	0ffH
	DB	0d8H
	DB	0dcH
	DB	0d8H
	DB	0ffH
	DB	0e0H
	DB	0e0H
	DB	0e0H
	DB	0ffH
	DB	0e0H
	DB	0e0H
	DB	0e0H
	DB	0ffH
	DB	0e0H
	DB	0e4H
	DB	0e0H
	DB	0ffH
	DB	0e8H
	DB	0e4H
	DB	0e8H
	DB	0ffH
	DB	0e8H
	DB	0e4H
	DB	0e8H
	DB	0ffH
	DB	0e0H
	DB	0e4H
	DB	0e8H
	DB	0ffH
	DB	0e8H
	DB	0e8H
	DB	0e8H
	DB	0ffH
	DB	0e8H
	DB	0e8H
	DB	0e8H
	DB	0ffH
	DB	0e8H
	DB	0ecH
	DB	0f0H
	DB	0ffH
	DB	0e8H
	DB	0f0H
	DB	0f0H
	DB	0ffH
	DB	0f0H
	DB	0f0H
	DB	0f0H
	DB	0ffH
	DB	0f0H
	DB	0f0H
	DB	0f0H
	DB	0ffH
	DB	0f0H
	DB	0f0H
	DB	0f0H
	DB	0ffH
	DB	0f0H
	DB	0f0H
	DB	0f0H
	DB	0ffH
	DB	0f0H
	DB	0f4H
	DB	0f0H
	DB	0ffH
	DB	0f0H
	DB	0f4H
	DB	0f8H
	DB	0ffH
	DB	0f0H
	DB	0f4H
	DB	0f0H
	DB	0ffH
	DB	0f0H
	DB	0f4H
	DB	0f8H
	DB	0ffH
	DB	0f0H
	DB	0f4H
	DB	0f8H
	DB	0ffH
	DB	0f0H
	DB	0f0H
	DB	0f0H
	DB	0ffH
	DB	0f0H
	DB	0f0H
	DB	0f0H
	DB	0ffH
	DB	0f0H
	DB	0f0H
	DB	0f0H
	DB	0ffH
	DB	0f0H
	DB	0f0H
	DB	0f0H
	DB	0ffH
	DB	0e8H
	DB	0f0H
	DB	0f0H
	DB	0ffH
	DB	0f0H
	DB	0ecH
	DB	0f0H
	DB	0ffH
	DB	0e8H
	DB	0ecH
	DB	0e8H
	DB	0ffH
	DB	0e8H
	DB	0ecH
	DB	0e8H
	DB	0ffH
	DB	0e8H
	DB	0e8H
	DB	0f0H
	DB	0ffH
	DB	0e8H
	DB	0e8H
	DB	0e8H
	DB	0ffH
	DB	0e0H
	DB	0e8H
	DB	0e8H
	DB	0ffH
	DB	0e0H
	DB	0e4H
	DB	0e8H
	DB	0ffH
	DB	0e8H
	DB	0e8H
	DB	0e8H
	DB	0ffH
	DB	0e8H
	DB	0e8H
	DB	0e8H
	DB	0ffH
	DB	0e0H
	DB	0e4H
	DB	0e0H
	DB	0ffH
	DB	0e0H
	DB	0e0H
	DB	0e0H
	DB	0ffH
	DB	0d8H
	DB	0d8H
	DB	0d8H
	DB	0ffH
	DB	0d8H
	DB	0d8H
	DB	0d8H
	DB	0ffH
	DB	0e0H
	DB	0dcH
	DB	0e0H
	DB	0ffH
	DB	0e0H
	DB	0dcH
	DB	0d8H
	DB	0ffH
	DB	0e0H
	DB	0d8H
	DB	0d8H
	DB	0ffH
	DB	0d8H
	DB	0d4H
	DB	0d8H
	DB	0ffH
	DB	0d8H
	DB	0d0H
	DB	0d0H
	DB	0ffH
	DB	0d8H
	DB	0d0H
	DB	0c8H
	DB	0ffH
	DB	0d8H
	DB	0ccH
	DB	0c0H
	DB	0ffH
	DB	0d8H
	DB	0ccH
	DB	0c0H
	DB	0ffH
	DB	0d8H
	DB	0ccH
	DB	0c0H
	DB	0ffH
	DB	0d0H
	DB	0c8H
	DB	0c0H
	DB	0ffH
	DB	0d8H
	DB	0c8H
	DB	0b8H
	DB	0ffH
	DB	0d8H
	DB	0c8H
	DB	0b8H
	DB	0ffH
	DB	0d0H
	DB	0c8H
	DB	0b8H
	DB	0ffH
	DB	0d8H
	DB	0c8H
	DB	0b8H
	DB	0ffH
	DB	0d0H
	DB	0c8H
	DB	0b8H
	DB	0ffH
	DB	0d8H
	DB	0c8H
	DB	0b8H
	DB	0ffH
	DB	0d0H
	DB	0c8H
	DB	0b0H
	DB	0ffH
	DB	0d0H
	DB	0c8H
	DB	0b8H
	DB	0ffH
	DB	0d8H
	DB	0c8H
	DB	0b8H
	DB	0ffH
	DB	0d8H
	DB	0c8H
	DB	0b0H
	DB	0ffH
	DB	0d8H
	DB	0c4H
	DB	0b8H
	DB	0ffH
	DB	0d0H
	DB	0c4H
	DB	0b0H
	DB	0ffH
	DB	0d0H
	DB	0c4H
	DB	0b0H
	DB	0ffH
	DB	0d8H
	DB	0c8H
	DB	0b0H
	DB	0ffH
	DB	0d8H
	DB	0c8H
	DB	0b0H
	DB	0ffH
	DB	0d0H
	DB	0c8H
	DB	0b0H
	DB	0ffH
	DB	0d8H
	DB	0c4H
	DB	0b0H
	DB	0ffH
	DB	0d0H
	DB	0c4H
	DB	0b0H
	DB	0ffH
	DB	0d8H
	DB	0c8H
	DB	0b0H
	DB	0ffH
	DB	0d8H
	DB	0c8H
	DB	0b0H
	DB	0ffH
	DB	0d0H
	DB	0c8H
	DB	0b0H
	DB	0ffH
	DB	0d8H
	DB	0c8H
	DB	0b0H
	DB	0ffH
	DB	0d8H
	DB	0c8H
	DB	0b0H
	DB	0ffH
	DB	0d0H
	DB	0c8H
	DB	0b0H
	DB	0ffH
	DB	0d0H
	DB	0c8H
	DB	0b8H
	DB	0ffH
	DB	0d0H
	DB	0c8H
	DB	0b8H
	DB	0ffH
	DB	0d0H
	DB	0c8H
	DB	0b8H
	DB	0ffH
	DB	0d0H
	DB	0c8H
	DB	0b8H
	DB	0ffH
	DB	0d8H
	DB	0ccH
	DB	0b8H
	DB	0ffH
	DB	0d0H
	DB	0c8H
	DB	0b8H
	DB	0ffH
	DB	0d0H
	DB	0c8H
	DB	0b8H
	DB	0ffH
	DB	0d0H
	DB	0c8H
	DB	0b8H
	DB	0ffH
	DB	0d8H
	DB	0c8H
	DB	0b8H
	DB	0ffH
	DB	0d0H
	DB	0c8H
	DB	0b0H
	DB	0ffH
	DB	0d8H
	DB	0c8H
	DB	0b8H
	DB	0ffH
	DB	0d8H
	DB	0c8H
	DB	0b8H
	DB	0ffH
	DB	0d0H
	DB	0ccH
	DB	0b8H
	DB	0ffH
	DB	0d0H
	DB	0ccH
	DB	0c0H
	DB	0ffH
	DB	0d8H
	DB	0ccH
	DB	0c0H
	DB	0ffH
	DB	0d8H
	DB	0d0H
	DB	0c0H
	DB	0ffH
	DB	0d8H
	DB	0d0H
	DB	0c0H
	DB	0ffH
	DB	0d8H
	DB	0d4H
	DB	0c8H
	DB	0ffH
	DB	0d8H
	DB	0d0H
	DB	0c8H
	DB	0ffH
	DB	0d8H
	DB	0ccH
	DB	0d0H
	DB	0ffH
	DB	0d8H
	DB	0d4H
	DB	0d8H
	DB	0ffH
	DB	0e0H
	DB	0d8H
	DB	0d8H
	DB	0ffH
	DB	0e0H
	DB	0dcH
	DB	0d8H
	DB	0ffH
	DB	0e0H
	DB	0e0H
	DB	0e0H
	DB	0ffH
	DB	0e0H
	DB	0e0H
	DB	0e0H
	DB	0ffH
	DB	0e0H
	DB	0e0H
	DB	0e0H
	DB	0ffH
	DB	0e8H
	DB	0e4H
	DB	0e0H
	DB	0ffH
	DB	0e0H
	DB	0e0H
	DB	0e0H
	DB	0ffH
	DB	0e0H
	DB	0e0H
	DB	0e0H
	DB	0ffH
	DB	0e0H
	DB	0e0H
	DB	0e0H
	DB	0ffH
	DB	0e0H
	DB	0e4H
	DB	0e0H
	DB	0ffH
	DB	0e0H
	DB	0e4H
	DB	0e0H
	DB	0ffH
	DB	0e0H
	DB	0e4H
	DB	0e0H
	DB	0ffH
	DB	0e0H
	DB	0e0H
	DB	0e0H
	DB	0ffH
	DB	0d8H
	DB	0e0H
	DB	0e0H
	DB	0ffH
	DB	0e0H
	DB	0e0H
	DB	0e0H
	DB	0ffH
	DB	0e0H
	DB	0e0H
	DB	0e0H
	DB	0ffH
	DB	0e0H
	DB	0e4H
	DB	0e0H
	DB	0ffH
	DB	0e0H
	DB	0e4H
	DB	0e8H
	DB	0ffH
	DB	0e0H
	DB	0e4H
	DB	0e0H
	DB	0ffH
	DB	0e0H
	DB	0dcH
	DB	0e0H
	DB	0ffH
	DB	0e0H
	DB	0dcH
	DB	0e0H
	DB	0ffH
	DB	0e0H
	DB	0dcH
	DB	0d8H
	DB	0ffH
	DB	0d8H
	DB	0d8H
	DB	0d8H
	DB	0ffH
	DB	0d8H
	DB	0d4H
	DB	0d8H
	DB	0ffH
	DB	0e0H
	DB	0d8H
	DB	0d8H
	DB	0ffH
	DB	0d8H
	DB	0d4H
	DB	0d8H
	DB	0ffH
	DB	0d8H
	DB	0d0H
	DB	0d0H
	DB	0ffH
	DB	0d8H
	DB	0ccH
	DB	0c8H
	DB	0ffH
	DB	0d8H
	DB	0ccH
	DB	0c0H
	DB	0ffH
	DB	0d8H
	DB	0ccH
	DB	0c0H
	DB	0ffH
	DB	0d8H
	DB	0ccH
	DB	0c0H
	DB	0ffH
	DB	0d0H
	DB	0c8H
	DB	0c0H
	DB	0ffH
	DB	0d0H
	DB	0c8H
	DB	0c0H
	DB	0ffH
	DB	0d0H
	DB	0ccH
	DB	0c0H
	DB	0ffH
	DB	0d8H
	DB	0d4H
	DB	0c8H
	DB	0ffH
	DB	0d8H
	DB	0d4H
	DB	0d0H
	DB	0ffH
	DB	0d0H
	DB	0d0H
	DB	0d0H
	DB	0ffH
	DB	0d8H
	DB	0d4H
	DB	0d0H
	DB	0ffH
	DB	0e0H
	DB	0dcH
	DB	0d8H
	DB	0ffH
	DB	0e0H
	DB	0dcH
	DB	0d8H
	DB	0ffH
	DB	0e0H
	DB	0d8H
	DB	0d8H
	DB	0ffH
	DB	0d8H
	DB	0d4H
	DB	0d0H
	DB	0ffH
	DB	0d8H
	DB	0d4H
	DB	0d0H
	DB	0ffH
	DB	0d0H
	DB	0d0H
	DB	0d0H
	DB	0ffH
	DB	0d8H
	DB	0d8H
	DB	0d8H
	DB	0ffH
	DB	0e0H
	DB	0e0H
	DB	0e0H
	DB	0ffH
	DB	0e8H
	DB	0e8H
	DB	0f0H
	DB	0ffH
	DB	0e8H
	DB	0ecH
	DB	0f0H
	DB	0ffH
	DB	0e8H
	DB	0ecH
	DB	0f0H
	DB	0ffH
	DB	0e8H
	DB	0f0H
	DB	0f0H
	DB	0ffH
	DB	0e8H
	DB	0f0H
	DB	0f0H
	DB	0ffH
	DB	0f0H
	DB	0f0H
	DB	0f0H
	DB	0ffH
	DB	0e8H
	DB	0f0H
	DB	0f0H
	DB	0ffH
	DB	0e8H
	DB	0ecH
	DB	0f0H
	DB	0ffH
	DB	0e8H
	DB	0ecH
	DB	0f0H
	DB	0ffH
	DB	0f0H
	DB	0f0H
	DB	0f0H
	DB	0ffH
	DB	0e8H
	DB	0ecH
	DB	0f0H
	DB	0ffH
	DB	0e8H
	DB	0ecH
	DB	0f0H
	DB	0ffH
	DB	0e8H
	DB	0ecH
	DB	0e8H
	DB	0ffH
	DB	0e8H
	DB	0ecH
	DB	0f0H
	DB	0ffH
	DB	0e8H
	DB	0ecH
	DB	0f0H
	DB	0ffH
	DB	0e8H
	DB	0ecH
	DB	0e8H
	DB	0ffH
	DB	0e8H
	DB	0e8H
	DB	0e8H
	DB	0ffH
	DB	0e0H
	DB	0e8H
	DB	0e8H
	DB	0ffH
	DB	0e0H
	DB	0e8H
	DB	0e8H
	DB	0ffH
	DB	0e0H
	DB	0e8H
	DB	0e8H
	DB	0ffH
	DB	0e0H
	DB	0e8H
	DB	0e8H
	DB	0ffH
	DB	0e8H
	DB	0e8H
	DB	0e8H
	DB	0ffH
	DB	0e0H
	DB	0e4H
	DB	0e8H
	DB	0ffH
	DB	0e0H
	DB	0e4H
	DB	0e8H
	DB	0ffH
	DB	0e0H
	DB	0e4H
	DB	0e0H
	DB	0ffH
	DB	0e0H
	DB	0e4H
	DB	0e0H
	DB	0ffH
	DB	0e0H
	DB	0e0H
	DB	0e8H
	DB	0ffH
	DB	0e0H
	DB	0e0H
	DB	0e0H
	DB	0ffH
	DB	0d8H
	DB	0e0H
	DB	0e0H
	DB	0ffH
	DB	0e0H
	DB	0e0H
	DB	0e0H
	DB	0ffH
	DB	0f8H
	DB	0fcH
	DB	0f8H
	DB	0ffH
	DB	0f8H
	DB	0fcH
	DB	0f8H
	DB	0ffH
	DB	0f8H
	DB	0fcH
	DB	0f8H
	DB	0ffH
	DB	0f8H
	DB	0fcH
	DB	0f8H
	DB	0ffH
	DB	0f8H
	DB	0fcH
	DB	0f8H
	DB	0ffH
	DB	0f8H
	DB	0fcH
	DB	0f8H
	DB	0ffH
	DB	0f8H
	DB	0fcH
	DB	0f8H
	DB	0ffH
	DB	0f8H
	DB	0fcH
	DB	0f8H
	DB	0ffH
	DB	0f8H
	DB	0fcH
	DB	0f8H
	DB	0ffH
	DB	0f8H
	DB	0fcH
	DB	0f8H
	DB	0ffH
	DB	0f8H
	DB	0fcH
	DB	0f8H
	DB	0ffH
	DB	0f8H
	DB	0fcH
	DB	0f8H
	DB	0ffH
	DB	0f8H
	DB	0fcH
	DB	0f8H
	DB	0ffH
	DB	0f8H
	DB	0fcH
	DB	0f8H
	DB	0ffH
	DB	0f8H
	DB	0fcH
	DB	0f8H
	DB	0ffH
	DB	0f8H
	DB	0fcH
	DB	0f8H
	DB	0ffH
	DB	0f8H
	DB	0fcH
	DB	0f8H
	DB	0ffH
	DB	0f8H
	DB	0fcH
	DB	0f8H
	DB	0ffH
	DB	0f8H
	DB	0fcH
	DB	0f8H
	DB	0ffH
	DB	0f8H
	DB	0fcH
	DB	0f8H
	DB	0ffH
	DB	0f8H
	DB	0fcH
	DB	0f8H
	DB	0ffH
	DB	0f8H
	DB	0fcH
	DB	0f8H
	DB	0ffH
	DB	0f8H
	DB	0fcH
	DB	0f8H
	DB	0ffH
	DB	0f8H
	DB	0fcH
	DB	0f8H
	DB	0ffH
	DB	0f8H
	DB	0fcH
	DB	0f8H
	DB	0ffH
	DB	0f8H
	DB	0fcH
	DB	0f8H
	DB	0ffH
	DB	0f8H
	DB	0fcH
	DB	0f8H
	DB	0ffH
	DB	0f8H
	DB	0fcH
	DB	0f8H
	DB	0ffH
	DB	0f8H
	DB	0fcH
	DB	0f8H
	DB	0ffH
	DB	0f8H
	DB	0fcH
	DB	0f8H
	DB	0ffH
	DB	0f8H
	DB	0fcH
	DB	0f8H
	DB	0ffH
	DB	0f8H
	DB	0fcH
	DB	0f8H
	DB	0ffH
	DB	0f8H
	DB	0f8H
	DB	0f8H
	DB	0ffH
	DB	0f8H
	DB	0f8H
	DB	0f8H
	DB	0ffH
	DB	0f8H
	DB	0fcH
	DB	0f8H
	DB	0ffH
	DB	0f8H
	DB	0fcH
	DB	0f8H
	DB	0ffH
	DB	0f8H
	DB	0fcH
	DB	0f8H
	DB	0ffH
	DB	0f8H
	DB	0fcH
	DB	0f8H
	DB	0ffH
	DB	0f8H
	DB	0fcH
	DB	0f8H
	DB	0ffH
	DB	0f8H
	DB	0fcH
	DB	0f8H
	DB	0ffH
	DB	0f8H
	DB	0fcH
	DB	0f8H
	DB	0ffH
	DB	0f8H
	DB	0fcH
	DB	0f8H
	DB	0ffH
	DB	0f8H
	DB	0fcH
	DB	0f8H
	DB	0ffH
	DB	0f8H
	DB	0fcH
	DB	0f8H
	DB	0ffH
	DB	0f8H
	DB	0fcH
	DB	0f8H
	DB	0ffH
	DB	0f8H
	DB	0fcH
	DB	0f8H
	DB	0ffH
	DB	0f8H
	DB	0fcH
	DB	0f8H
	DB	0ffH
	DB	0f8H
	DB	0fcH
	DB	0f8H
	DB	0ffH
	DB	0f8H
	DB	0fcH
	DB	0f8H
	DB	0ffH
	DB	0f8H
	DB	0fcH
	DB	0f8H
	DB	0ffH
	DB	0f8H
	DB	0fcH
	DB	0f8H
	DB	0ffH
	DB	0f8H
	DB	0fcH
	DB	0f8H
	DB	0ffH
	DB	0f8H
	DB	0fcH
	DB	0f8H
	DB	0ffH
	DB	0f8H
	DB	0fcH
	DB	0f8H
	DB	0ffH
	DB	0f8H
	DB	0fcH
	DB	0f8H
	DB	0ffH
	DB	0f8H
	DB	0f8H
	DB	0f8H
	DB	0ffH
	DB	0f8H
	DB	0fcH
	DB	0f8H
	DB	0ffH
	DB	0f8H
	DB	0fcH
	DB	0f8H
	DB	0ffH
	DB	0f8H
	DB	0f8H
	DB	0f8H
	DB	0ffH
	DB	0f8H
	DB	0fcH
	DB	0f8H
	DB	0ffH
	DB	0f8H
	DB	0fcH
	DB	0f8H
	DB	0ffH
	DB	0f8H
	DB	0fcH
	DB	0f8H
	DB	0ffH
	DB	0f8H
	DB	0fcH
	DB	0f8H
	DB	0ffH
	DB	0f8H
	DB	0f8H
	DB	0f8H
	DB	0ffH
	DB	0f8H
	DB	0fcH
	DB	0f8H
	DB	0ffH
	DB	0f8H
	DB	0fcH
	DB	0f8H
	DB	0ffH
	DB	0f8H
	DB	0fcH
	DB	0f8H
	DB	0ffH
	DB	0f8H
	DB	0f8H
	DB	0f8H
	DB	0ffH
	DB	0f8H
	DB	0fcH
	DB	0f8H
	DB	0ffH
	DB	0f8H
	DB	0fcH
	DB	0f8H
	DB	0ffH
	DB	0f8H
	DB	0fcH
	DB	0f8H
	DB	0ffH
	DB	0f8H
	DB	0fcH
	DB	0f8H
	DB	0ffH
	DB	0f8H
	DB	0fcH
	DB	0f8H
	DB	0ffH
	DB	0f8H
	DB	0fcH
	DB	0f8H
	DB	0ffH
	DB	0f8H
	DB	0fcH
	DB	0f8H
	DB	0ffH
	DB	0f8H
	DB	0fcH
	DB	0f8H
	DB	0ffH
	DB	0f8H
	DB	0fcH
	DB	0f8H
	DB	0ffH
	DB	0f8H
	DB	0fcH
	DB	0f8H
	DB	0ffH
	DB	0f8H
	DB	0fcH
	DB	0f8H
	DB	0ffH
	DB	0f8H
	DB	0fcH
	DB	0f8H
	DB	0ffH
	DB	0f8H
	DB	0fcH
	DB	0f8H
	DB	0ffH
	DB	0f8H
	DB	0fcH
	DB	0f8H
	DB	0ffH
	DB	0f8H
	DB	0fcH
	DB	0f8H
	DB	0ffH
	DB	0f8H
	DB	0fcH
	DB	0f8H
	DB	0ffH
	DB	0f8H
	DB	0fcH
	DB	0f8H
	DB	0ffH
	DB	0f8H
	DB	0fcH
	DB	0f8H
	DB	0ffH
	DB	0f8H
	DB	0fcH
	DB	0f8H
	DB	0ffH
	DB	0f8H
	DB	0fcH
	DB	0f8H
	DB	0ffH
	DB	0f8H
	DB	0fcH
	DB	0f8H
	DB	0ffH
	DB	0f8H
	DB	0fcH
	DB	0f8H
	DB	0ffH
	DB	0f8H
	DB	0fcH
	DB	0f8H
	DB	0ffH
	DB	0f8H
	DB	0fcH
	DB	0f8H
	DB	0ffH
	DB	0f8H
	DB	0fcH
	DB	0f8H
	DB	0ffH
	DB	0f8H
	DB	0fcH
	DB	0f8H
	DB	0ffH
	DB	0f8H
	DB	0fcH
	DB	0f8H
	DB	0ffH
	DB	0f8H
	DB	0fcH
	DB	0f8H
	DB	0ffH
	DB	0f8H
	DB	0f8H
	DB	0f8H
	DB	0ffH
	DB	0f8H
	DB	0f8H
	DB	0f8H
	DB	0ffH
	DB	0f8H
	DB	0f8H
	DB	0f8H
	DB	0ffH
	DB	0f0H
	DB	0f4H
	DB	0f0H
	DB	0ffH
	DB	0f0H
	DB	0f4H
	DB	0f0H
	DB	0ffH
	DB	0f8H
	DB	0f4H
	DB	0f8H
	DB	0ffH
	DB	0f0H
	DB	0f4H
	DB	0f0H
	DB	0ffH
	DB	0f8H
	DB	0f4H
	DB	0f0H
	DB	0ffH
	DB	0f0H
	DB	0f0H
	DB	0f0H
	DB	0ffH
	DB	0f0H
	DB	0f0H
	DB	0f0H
	DB	0ffH
	DB	0f0H
	DB	0f0H
	DB	0f0H
	DB	0ffH
	DB	0f0H
	DB	0f0H
	DB	0f0H
	DB	0ffH
	DB	0f0H
	DB	0f0H
	DB	0f0H
	DB	0ffH
	DB	0f0H
	DB	0ecH
	DB	0f0H
	DB	0ffH
	DB	0e8H
	DB	0ecH
	DB	0e8H
	DB	0ffH
	DB	0f0H
	DB	0ecH
	DB	0f0H
	DB	0ffH
	DB	0e8H
	DB	0ecH
	DB	0e8H
	DB	0ffH
	DB	0e8H
	DB	0ecH
	DB	0e8H
	DB	0ffH
	DB	0f0H
	DB	0ecH
	DB	0f0H
	DB	0ffH
	DB	0f0H
	DB	0ecH
	DB	0f0H
	DB	0ffH
	DB	0e8H
	DB	0ecH
	DB	0e8H
	DB	0ffH
	DB	0f0H
	DB	0ecH
	DB	0f0H
	DB	0ffH
	DB	0f0H
	DB	0ecH
	DB	0f0H
	DB	0ffH
	DB	0e8H
	DB	0ecH
	DB	0e8H
	DB	0ffH
	DB	0f0H
	DB	0ecH
	DB	0f0H
	DB	0ffH
	DB	0f0H
	DB	0ecH
	DB	0f0H
	DB	0ffH
	DB	0e8H
	DB	0ecH
	DB	0e8H
	DB	0ffH
	DB	0f0H
	DB	0ecH
	DB	0f0H
	DB	0ffH
	DB	0f0H
	DB	0f0H
	DB	0f0H
	DB	0ffH
	DB	0f0H
	DB	0f0H
	DB	0f0H
	DB	0ffH
	DB	0f0H
	DB	0f0H
	DB	0f0H
	DB	0ffH
	DB	0f0H
	DB	0f4H
	DB	0f0H
	DB	0ffH
	DB	0f0H
	DB	0f4H
	DB	0f0H
	DB	0ffH
	DB	0f0H
	DB	0f0H
	DB	0f0H
	DB	0ffH
	DB	0f0H
	DB	0f0H
	DB	0f0H
	DB	0ffH
	DB	0f0H
	DB	0f4H
	DB	0f0H
	DB	0ffH
	DB	0f0H
	DB	0f0H
	DB	0f0H
	DB	0ffH
	DB	0f0H
	DB	0f0H
	DB	0f0H
	DB	0ffH
	DB	0e8H
	DB	0f0H
	DB	0f0H
	DB	0ffH
	DB	0f0H
	DB	0f0H
	DB	0f0H
	DB	0ffH
	DB	0f0H
	DB	0f0H
	DB	0f8H
	DB	0ffH
	DB	0e8H
	DB	0f0H
	DB	0f0H
	DB	0ffH
	DB	0f0H
	DB	0f0H
	DB	0f0H
	DB	0ffH
	DB	0f0H
	DB	0f4H
	DB	0f8H
	DB	0ffH
	DB	0f0H
	DB	0f4H
	DB	0f0H
	DB	0ffH
	DB	0f0H
	DB	0f4H
	DB	0f8H
	DB	0ffH
	DB	0f8H
	DB	0f8H
	DB	0f8H
	DB	0ffH
	DB	0f8H
	DB	0f8H
	DB	0f8H
	DB	0ffH
	DB	0f0H
	DB	0f4H
	DB	0f8H
	DB	0ffH
	DB	0f0H
	DB	0f4H
	DB	0f0H
	DB	0ffH
	DB	0f0H
	DB	0f0H
	DB	0f0H
	DB	0ffH
	DB	0f0H
	DB	0f4H
	DB	0f8H
	DB	0ffH
	DB	0f0H
	DB	0f0H
	DB	0f0H
	DB	0ffH
	DB	0e8H
	DB	0f0H
	DB	0f0H
	DB	0ffH
	DB	0f0H
	DB	0f0H
	DB	0f0H
	DB	0ffH
	DB	0f0H
	DB	0f0H
	DB	0f0H
	DB	0ffH
	DB	0f0H
	DB	0f0H
	DB	0f0H
	DB	0ffH
	DB	0e8H
	DB	0ecH
	DB	0e8H
	DB	0ffH
	DB	0e8H
	DB	0ecH
	DB	0e8H
	DB	0ffH
	DB	0f0H
	DB	0ecH
	DB	0f0H
	DB	0ffH
	DB	0e8H
	DB	0ecH
	DB	0e8H
	DB	0ffH
	DB	0e8H
	DB	0ecH
	DB	0e8H
	DB	0ffH
	DB	0e8H
	DB	0e8H
	DB	0e8H
	DB	0ffH
	DB	0e8H
	DB	0e8H
	DB	0e8H
	DB	0ffH
	DB	0e8H
	DB	0e8H
	DB	0e8H
	DB	0ffH
	DB	0e8H
	DB	0e8H
	DB	0e8H
	DB	0ffH
	DB	0e8H
	DB	0e8H
	DB	0e8H
	DB	0ffH
	DB	0e8H
	DB	0e8H
	DB	0e8H
	DB	0ffH
	DB	0e8H
	DB	0e4H
	DB	0e8H
	DB	0ffH
	DB	0e8H
	DB	0e8H
	DB	0e8H
	DB	0ffH
	DB	0e8H
	DB	0e8H
	DB	0e0H
	DB	0ffH
	DB	0e8H
	DB	0e8H
	DB	0e8H
	DB	0ffH
	DB	0e8H
	DB	0e8H
	DB	0e8H
	DB	0ffH
	DB	0e8H
	DB	0e8H
	DB	0e8H
	DB	0ffH
	DB	0e8H
	DB	0e8H
	DB	0e8H
	DB	0ffH
	DB	0e8H
	DB	0e8H
	DB	0e8H
	DB	0ffH
	DB	0e8H
	DB	0ecH
	DB	0e8H
	DB	0ffH
	DB	0e8H
	DB	0ecH
	DB	0e8H
	DB	0ffH
	DB	0e8H
	DB	0ecH
	DB	0e8H
	DB	0ffH
	DB	0e8H
	DB	0ecH
	DB	0e8H
	DB	0ffH
	DB	0f0H
	DB	0ecH
	DB	0e8H
	DB	0ffH
	DB	0e8H
	DB	0ecH
	DB	0e8H
	DB	0ffH
	DB	0e8H
	DB	0e8H
	DB	0e8H
	DB	0ffH
	DB	0e8H
	DB	0e8H
	DB	0e8H
	DB	0ffH
	DB	0e0H
	DB	0e4H
	DB	0e0H
	DB	0ffH
	DB	0e0H
	DB	0e0H
	DB	0e0H
	DB	0ffH
	DB	0e0H
	DB	0e4H
	DB	0e0H
	DB	0ffH
	DB	0e8H
	DB	0e8H
	DB	0e8H
	DB	0ffH
	DB	0e8H
	DB	0e4H
	DB	0e8H
	DB	0ffH
	DB	0e0H
	DB	0e4H
	DB	0e0H
	DB	0ffH
	DB	0e0H
	DB	0e0H
	DB	0e0H
	DB	0ffH
	DB	0e8H
	DB	0e4H
	DB	0e0H
	DB	0ffH
	DB	0e8H
	DB	0e4H
	DB	0e8H
	DB	0ffH
	DB	0e0H
	DB	0e0H
	DB	0e0H
	DB	0ffH
	DB	0e0H
	DB	0e0H
	DB	0e0H
	DB	0ffH
	DB	0e0H
	DB	0e0H
	DB	0e0H
	DB	0ffH
	DB	0e8H
	DB	0e4H
	DB	0e8H
	DB	0ffH
	DB	0e8H
	DB	0e4H
	DB	0e8H
	DB	0ffH
	DB	0e0H
	DB	0e4H
	DB	0e8H
	DB	0ffH
	DB	0e8H
	DB	0e4H
	DB	0e0H
	DB	0ffH
	DB	0e0H
	DB	0e4H
	DB	0e0H
	DB	0ffH
	DB	0e8H
	DB	0e4H
	DB	0e8H
	DB	0ffH
	DB	0e8H
	DB	0e4H
	DB	0e8H
	DB	0ffH
	DB	0e8H
	DB	0e8H
	DB	0e8H
	DB	0ffH
	DB	0e8H
	DB	0e8H
	DB	0e8H
	DB	0ffH
	DB	0e8H
	DB	0e8H
	DB	0e8H
	DB	0ffH
	DB	0e8H
	DB	0ecH
	DB	0f0H
	DB	0ffH
	DB	0e8H
	DB	0ecH
	DB	0e8H
	DB	0ffH
	DB	0e8H
	DB	0ecH
	DB	0f0H
	DB	0ffH
	DB	0e8H
	DB	0ecH
	DB	0e8H
	DB	0ffH
	DB	0e8H
	DB	0e8H
	DB	0e8H
	DB	0ffH
	DB	0e8H
	DB	0e4H
	DB	0e8H
	DB	0ffH
	DB	0e0H
	DB	0e8H
	DB	0e8H
	DB	0ffH
	DB	0e8H
	DB	0e8H
	DB	0e8H
	DB	0ffH
	DB	0e8H
	DB	0e8H
	DB	0e8H
	DB	0ffH
	DB	0e8H
	DB	0e8H
	DB	0e8H
	DB	0ffH
	DB	0e0H
	DB	0e0H
	DB	0e0H
	DB	0ffH
	DB	0e8H
	DB	0dcH
	DB	0d8H
	DB	0ffH
	DB	0e0H
	DB	0d4H
	DB	0d0H
	DB	0ffH
	DB	0e0H
	DB	0d4H
	DB	0d0H
	DB	0ffH
	DB	0e0H
	DB	0d0H
	DB	0c8H
	DB	0ffH
	DB	0d8H
	DB	0d0H
	DB	0c8H
	DB	0ffH
	DB	0e0H
	DB	0d4H
	DB	0c8H
	DB	0ffH
	DB	0d8H
	DB	0d4H
	DB	0c8H
	DB	0ffH
	DB	0d8H
	DB	0d4H
	DB	0c8H
	DB	0ffH
	DB	0e0H
	DB	0d4H
	DB	0d0H
	DB	0ffH
	DB	0e0H
	DB	0d8H
	DB	0d8H
	DB	0ffH
	DB	0e0H
	DB	0dcH
	DB	0d8H
	DB	0ffH
	DB	0e0H
	DB	0dcH
	DB	0d8H
	DB	0ffH
	DB	0e0H
	DB	0d8H
	DB	0d0H
	DB	0ffH
	DB	0d8H
	DB	0d4H
	DB	0c8H
	DB	0ffH
	DB	0d8H
	DB	0d4H
	DB	0c8H
	DB	0ffH
	DB	0d8H
	DB	0d0H
	DB	0c8H
	DB	0ffH
	DB	0d8H
	DB	0d0H
	DB	0c0H
	DB	0ffH
	DB	0d8H
	DB	0d0H
	DB	0c0H
	DB	0ffH
	DB	0d8H
	DB	0d0H
	DB	0c0H
	DB	0ffH
	DB	0d8H
	DB	0d0H
	DB	0c0H
	DB	0ffH
	DB	0d8H
	DB	0d0H
	DB	0c0H
	DB	0ffH
	DB	0d8H
	DB	0d0H
	DB	0c0H
	DB	0ffH
	DB	0d8H
	DB	0d0H
	DB	0c8H
	DB	0ffH
	DB	0d8H
	DB	0d0H
	DB	0c8H
	DB	0ffH
	DB	0d8H
	DB	0d0H
	DB	0c8H
	DB	0ffH
	DB	0d8H
	DB	0d0H
	DB	0c8H
	DB	0ffH
	DB	0d8H
	DB	0d4H
	DB	0c8H
	DB	0ffH
	DB	0d8H
	DB	0d4H
	DB	0c8H
	DB	0ffH
	DB	0e0H
	DB	0d4H
	DB	0c8H
	DB	0ffH
	DB	0e0H
	DB	0d8H
	DB	0d0H
	DB	0ffH
	DB	0e0H
	DB	0d8H
	DB	0d0H
	DB	0ffH
	DB	0d8H
	DB	0d4H
	DB	0d0H
	DB	0ffH
	DB	0e0H
	DB	0dcH
	DB	0d8H
	DB	0ffH
	DB	0e8H
	DB	0e4H
	DB	0e8H
	DB	0ffH
	DB	0f0H
	DB	0ecH
	DB	0f0H
	DB	0ffH
	DB	0f0H
	DB	0ecH
	DB	0f0H
	DB	0ffH
	DB	0f0H
	DB	0ecH
	DB	0e8H
	DB	0ffH
	DB	0e8H
	DB	0e8H
	DB	0e8H
	DB	0ffH
	DB	0e8H
	DB	0e4H
	DB	0e8H
	DB	0ffH
	DB	0e8H
	DB	0e4H
	DB	0e8H
	DB	0ffH
	DB	0e8H
	DB	0e8H
	DB	0e8H
	DB	0ffH
	DB	0e8H
	DB	0e8H
	DB	0e8H
	DB	0ffH
	DB	0e8H
	DB	0ecH
	DB	0f0H
	DB	0ffH
	DB	0e8H
	DB	0f0H
	DB	0f0H
	DB	0ffH
	DB	0e8H
	DB	0f0H
	DB	0f0H
	DB	0ffH
	DB	0e8H
	DB	0ecH
	DB	0e8H
	DB	0ffH
	DB	0e8H
	DB	0ecH
	DB	0f0H
	DB	0ffH
	DB	0e8H
	DB	0ecH
	DB	0e8H
	DB	0ffH
	DB	0e8H
	DB	0e4H
	DB	0e0H
	DB	0ffH
	DB	0e0H
	DB	0dcH
	DB	0d8H
	DB	0ffH
	DB	0e0H
	DB	0d8H
	DB	0d8H
	DB	0ffH
	DB	0d8H
	DB	0d4H
	DB	0d0H
	DB	0ffH
	DB	0d8H
	DB	0d4H
	DB	0d0H
	DB	0ffH
	DB	0d8H
	DB	0d8H
	DB	0d0H
	DB	0ffH
	DB	0e0H
	DB	0d8H
	DB	0d0H
	DB	0ffH
	DB	0e0H
	DB	0d8H
	DB	0d0H
	DB	0ffH
	DB	0d8H
	DB	0d4H
	DB	0d0H
	DB	0ffH
	DB	0d8H
	DB	0d0H
	DB	0d0H
	DB	0ffH
	DB	0d8H
	DB	0d4H
	DB	0d0H
	DB	0ffH
	DB	0e0H
	DB	0d8H
	DB	0d0H
	DB	0ffH
	DB	0e0H
	DB	0dcH
	DB	0d8H
	DB	0ffH
	DB	0e0H
	DB	0e0H
	DB	0e0H
	DB	0ffH
	DB	0e8H
	DB	0e8H
	DB	0e8H
	DB	0ffH
	DB	0e8H
	DB	0e8H
	DB	0e8H
	DB	0ffH
	DB	0e8H
	DB	0e8H
	DB	0e8H
	DB	0ffH
	DB	0e0H
	DB	0e4H
	DB	0e8H
	DB	0ffH
	DB	0e8H
	DB	0ecH
	DB	0f0H
	DB	0ffH
	DB	0e8H
	DB	0ecH
	DB	0f0H
	DB	0ffH
	DB	0f0H
	DB	0ecH
	DB	0f0H
	DB	0ffH
	DB	0f0H
	DB	0ecH
	DB	0f0H
	DB	0ffH
	DB	0e8H
	DB	0ecH
	DB	0e8H
	DB	0ffH
	DB	0e8H
	DB	0ecH
	DB	0f0H
	DB	0ffH
	DB	0e8H
	DB	0e8H
	DB	0f0H
	DB	0ffH
	DB	0e8H
	DB	0e8H
	DB	0e8H
	DB	0ffH
	DB	0e8H
	DB	0e8H
	DB	0e8H
	DB	0ffH
	DB	0e0H
	DB	0e8H
	DB	0e8H
	DB	0ffH
	DB	0e8H
	DB	0e8H
	DB	0e8H
	DB	0ffH
	DB	0e8H
	DB	0e4H
	DB	0e8H
	DB	0ffH
	DB	0e8H
	DB	0e4H
	DB	0e8H
	DB	0ffH
	DB	0e8H
	DB	0e4H
	DB	0e0H
	DB	0ffH
	DB	0e8H
	DB	0e4H
	DB	0e0H
	DB	0ffH
	DB	0e0H
	DB	0e0H
	DB	0e0H
	DB	0ffH
	DB	0e0H
	DB	0e0H
	DB	0e0H
	DB	0ffH
	DB	0e0H
	DB	0e0H
	DB	0e0H
	DB	0ffH
	DB	0e0H
	DB	0d8H
	DB	0d8H
	DB	0ffH
	DB	0d8H
	DB	0d4H
	DB	0d8H
	DB	0ffH
	DB	0d8H
	DB	0d4H
	DB	0d0H
	DB	0ffH
	DB	0d8H
	DB	0d4H
	DB	0d0H
	DB	0ffH
	DB	0d8H
	DB	0d8H
	DB	0d8H
	DB	0ffH
	DB	0e0H
	DB	0d8H
	DB	0d8H
	DB	0ffH
	DB	0d8H
	DB	0d8H
	DB	0d8H
	DB	0ffH
	DB	0d8H
	DB	0d8H
	DB	0d8H
	DB	0ffH
	DB	0d8H
	DB	0dcH
	DB	0e0H
	DB	0ffH
	DB	0e0H
	DB	0dcH
	DB	0e0H
	DB	0ffH
	DB	0e0H
	DB	0e0H
	DB	0e0H
	DB	0ffH
	DB	0d8H
	DB	0e0H
	DB	0e0H
	DB	0ffH
	DB	0e0H
	DB	0e0H
	DB	0e0H
	DB	0ffH
	DB	0e0H
	DB	0e0H
	DB	0e0H
	DB	0ffH
	DB	0e0H
	DB	0e0H
	DB	0e0H
	DB	0ffH
	DB	0e0H
	DB	0e0H
	DB	0e0H
	DB	0ffH
	DB	0e0H
	DB	0e4H
	DB	0e0H
	DB	0ffH
	DB	0e0H
	DB	0e4H
	DB	0e0H
	DB	0ffH
	DB	0e8H
	DB	0e4H
	DB	0e8H
	DB	0ffH
	DB	0e0H
	DB	0e4H
	DB	0e0H
	DB	0ffH
	DB	0e8H
	DB	0e4H
	DB	0e0H
	DB	0ffH
	DB	0e8H
	DB	0e8H
	DB	0e8H
	DB	0ffH
	DB	0e8H
	DB	0e8H
	DB	0e8H
	DB	0ffH
	DB	0e8H
	DB	0ecH
	DB	0e8H
	DB	0ffH
	DB	0f0H
	DB	0ecH
	DB	0f0H
	DB	0ffH
	DB	0f0H
	DB	0f0H
	DB	0f0H
	DB	0ffH
	DB	0f0H
	DB	0f0H
	DB	0f0H
	DB	0ffH
	DB	0e8H
	DB	0f0H
	DB	0f0H
	DB	0ffH
	DB	0f0H
	DB	0f0H
	DB	0f0H
	DB	0ffH
	DB	0f0H
	DB	0f4H
	DB	0f8H
	DB	0ffH
	DB	0f0H
	DB	0f0H
	DB	0f0H
	DB	0ffH
	DB	0f0H
	DB	0f0H
	DB	0f0H
	DB	0ffH
	DB	0f0H
	DB	0f0H
	DB	0f0H
	DB	0ffH
	DB	0f0H
	DB	0f0H
	DB	0f0H
	DB	0ffH
	DB	0f0H
	DB	0f0H
	DB	0f8H
	DB	0ffH
	DB	0f0H
	DB	0f0H
	DB	0f0H
	DB	0ffH
	DB	0e8H
	DB	0f0H
	DB	0f0H
	DB	0ffH
	DB	0f0H
	DB	0f0H
	DB	0f0H
	DB	0ffH
	DB	0f0H
	DB	0ecH
	DB	0f0H
	DB	0ffH
	DB	0e8H
	DB	0ecH
	DB	0f0H
	DB	0ffH
	DB	0e8H
	DB	0ecH
	DB	0e8H
	DB	0ffH
	DB	0e8H
	DB	0ecH
	DB	0e8H
	DB	0ffH
	DB	0e8H
	DB	0e8H
	DB	0e8H
	DB	0ffH
	DB	0e8H
	DB	0e8H
	DB	0e8H
	DB	0ffH
	DB	0e8H
	DB	0e8H
	DB	0e8H
	DB	0ffH
	DB	0e0H
	DB	0e4H
	DB	0e8H
	DB	0ffH
	DB	0e8H
	DB	0e4H
	DB	0e8H
	DB	0ffH
	DB	0e8H
	DB	0e4H
	DB	0e8H
	DB	0ffH
	DB	0e0H
	DB	0e4H
	DB	0e0H
	DB	0ffH
	DB	0e0H
	DB	0dcH
	DB	0e0H
	DB	0ffH
	DB	0d8H
	DB	0d8H
	DB	0d8H
	DB	0ffH
	DB	0e0H
	DB	0dcH
	DB	0d8H
	DB	0ffH
	DB	0e0H
	DB	0dcH
	DB	0e0H
	DB	0ffH
	DB	0e0H
	DB	0d8H
	DB	0d8H
	DB	0ffH
	DB	0e0H
	DB	0dcH
	DB	0e0H
	DB	0ffH
	DB	0e0H
	DB	0d8H
	DB	0d8H
	DB	0ffH
	DB	0d8H
	DB	0d4H
	DB	0d0H
	DB	0ffH
	DB	0d8H
	DB	0d0H
	DB	0c8H
	DB	0ffH
	DB	0d8H
	DB	0ccH
	DB	0c0H
	DB	0ffH
	DB	0d8H
	DB	0d0H
	DB	0c0H
	DB	0ffH
	DB	0d8H
	DB	0d0H
	DB	0c0H
	DB	0ffH
	DB	0d8H
	DB	0ccH
	DB	0c0H
	DB	0ffH
	DB	0d8H
	DB	0ccH
	DB	0b8H
	DB	0ffH
	DB	0d0H
	DB	0c8H
	DB	0b8H
	DB	0ffH
	DB	0d0H
	DB	0c8H
	DB	0b8H
	DB	0ffH
	DB	0d0H
	DB	0c8H
	DB	0b0H
	DB	0ffH
	DB	0d8H
	DB	0c8H
	DB	0b8H
	DB	0ffH
	DB	0d8H
	DB	0c8H
	DB	0b8H
	DB	0ffH
	DB	0d8H
	DB	0c8H
	DB	0b8H
	DB	0ffH
	DB	0d0H
	DB	0c8H
	DB	0b8H
	DB	0ffH
	DB	0d8H
	DB	0c8H
	DB	0b0H
	DB	0ffH
	DB	0d8H
	DB	0c8H
	DB	0b8H
	DB	0ffH
	DB	0d8H
	DB	0c8H
	DB	0b8H
	DB	0ffH
	DB	0d0H
	DB	0c8H
	DB	0b0H
	DB	0ffH
	DB	0d0H
	DB	0c4H
	DB	0b0H
	DB	0ffH
	DB	0d8H
	DB	0c4H
	DB	0b0H
	DB	0ffH
	DB	0d0H
	DB	0c8H
	DB	0b0H
	DB	0ffH
	DB	0d0H
	DB	0c8H
	DB	0b0H
	DB	0ffH
	DB	0d8H
	DB	0c4H
	DB	0b0H
	DB	0ffH
	DB	0d0H
	DB	0c8H
	DB	0b0H
	DB	0ffH
	DB	0d0H
	DB	0c8H
	DB	0b0H
	DB	0ffH
	DB	0d8H
	DB	0c8H
	DB	0b0H
	DB	0ffH
	DB	0d0H
	DB	0c4H
	DB	0b0H
	DB	0ffH
	DB	0d0H
	DB	0c8H
	DB	0b0H
	DB	0ffH
	DB	0d0H
	DB	0c8H
	DB	0b0H
	DB	0ffH
	DB	0d0H
	DB	0c8H
	DB	0b0H
	DB	0ffH
	DB	0d8H
	DB	0c8H
	DB	0b8H
	DB	0ffH
	DB	0d0H
	DB	0c8H
	DB	0b8H
	DB	0ffH
	DB	0d0H
	DB	0c4H
	DB	0b8H
	DB	0ffH
	DB	0d0H
	DB	0c8H
	DB	0b8H
	DB	0ffH
	DB	0d0H
	DB	0c8H
	DB	0b8H
	DB	0ffH
	DB	0d8H
	DB	0ccH
	DB	0b8H
	DB	0ffH
	DB	0d8H
	DB	0ccH
	DB	0b8H
	DB	0ffH
	DB	0d8H
	DB	0c8H
	DB	0b8H
	DB	0ffH
	DB	0d0H
	DB	0c4H
	DB	0b0H
	DB	0ffH
	DB	0d8H
	DB	0c8H
	DB	0b8H
	DB	0ffH
	DB	0d8H
	DB	0c8H
	DB	0b8H
	DB	0ffH
	DB	0d0H
	DB	0c8H
	DB	0b8H
	DB	0ffH
	DB	0d8H
	DB	0ccH
	DB	0b8H
	DB	0ffH
	DB	0d0H
	DB	0c8H
	DB	0b8H
	DB	0ffH
	DB	0d0H
	DB	0ccH
	DB	0c0H
	DB	0ffH
	DB	0d0H
	DB	0ccH
	DB	0c0H
	DB	0ffH
	DB	0d0H
	DB	0ccH
	DB	0c0H
	DB	0ffH
	DB	0d8H
	DB	0ccH
	DB	0c0H
	DB	0ffH
	DB	0d8H
	DB	0d0H
	DB	0c8H
	DB	0ffH
	DB	0d8H
	DB	0d0H
	DB	0d0H
	DB	0ffH
	DB	0d8H
	DB	0d8H
	DB	0d8H
	DB	0ffH
	DB	0e0H
	DB	0dcH
	DB	0d8H
	DB	0ffH
	DB	0e0H
	DB	0dcH
	DB	0d8H
	DB	0ffH
	DB	0e0H
	DB	0e0H
	DB	0e0H
	DB	0ffH
	DB	0e0H
	DB	0e4H
	DB	0e0H
	DB	0ffH
	DB	0e0H
	DB	0e4H
	DB	0e0H
	DB	0ffH
	DB	0e0H
	DB	0e4H
	DB	0e0H
	DB	0ffH
	DB	0e0H
	DB	0e0H
	DB	0e0H
	DB	0ffH
	DB	0e0H
	DB	0e0H
	DB	0e0H
	DB	0ffH
	DB	0e0H
	DB	0e0H
	DB	0e0H
	DB	0ffH
	DB	0e0H
	DB	0e0H
	DB	0e0H
	DB	0ffH
	DB	0e0H
	DB	0e4H
	DB	0e0H
	DB	0ffH
	DB	0e0H
	DB	0e0H
	DB	0e0H
	DB	0ffH
	DB	0e0H
	DB	0dcH
	DB	0e0H
	DB	0ffH
	DB	0e0H
	DB	0e0H
	DB	0e0H
	DB	0ffH
	DB	0e0H
	DB	0e0H
	DB	0e0H
	DB	0ffH
	DB	0e0H
	DB	0e4H
	DB	0e8H
	DB	0ffH
	DB	0e0H
	DB	0e4H
	DB	0e8H
	DB	0ffH
	DB	0e0H
	DB	0e4H
	DB	0e8H
	DB	0ffH
	DB	0e0H
	DB	0e4H
	DB	0e8H
	DB	0ffH
	DB	0e0H
	DB	0e0H
	DB	0e0H
	DB	0ffH
	DB	0e0H
	DB	0e0H
	DB	0e0H
	DB	0ffH
	DB	0e0H
	DB	0dcH
	DB	0e0H
	DB	0ffH
	DB	0d8H
	DB	0d8H
	DB	0d8H
	DB	0ffH
	DB	0d8H
	DB	0d8H
	DB	0d8H
	DB	0ffH
	DB	0e0H
	DB	0dcH
	DB	0e0H
	DB	0ffH
	DB	0e0H
	DB	0e0H
	DB	0e0H
	DB	0ffH
	DB	0e0H
	DB	0dcH
	DB	0e0H
	DB	0ffH
	DB	0d8H
	DB	0d8H
	DB	0d8H
	DB	0ffH
	DB	0d8H
	DB	0d4H
	DB	0d0H
	DB	0ffH
	DB	0d8H
	DB	0d4H
	DB	0d0H
	DB	0ffH
	DB	0d8H
	DB	0d4H
	DB	0c8H
	DB	0ffH
	DB	0d0H
	DB	0d0H
	DB	0c8H
	DB	0ffH
	DB	0d8H
	DB	0d0H
	DB	0c8H
	DB	0ffH
	DB	0d8H
	DB	0d4H
	DB	0d0H
	DB	0ffH
	DB	0d8H
	DB	0d8H
	DB	0d8H
	DB	0ffH
	DB	0d8H
	DB	0dcH
	DB	0e0H
	DB	0ffH
	DB	0d8H
	DB	0dcH
	DB	0d8H
	DB	0ffH
	DB	0e0H
	DB	0e0H
	DB	0e0H
	DB	0ffH
	DB	0e0H
	DB	0e0H
	DB	0e0H
	DB	0ffH
	DB	0e0H
	DB	0e4H
	DB	0e0H
	DB	0ffH
	DB	0e0H
	DB	0dcH
	DB	0e0H
	DB	0ffH
	DB	0d8H
	DB	0d0H
	DB	0d0H
	DB	0ffH
	DB	0d0H
	DB	0ccH
	DB	0c8H
	DB	0ffH
	DB	0d0H
	DB	0d0H
	DB	0d0H
	DB	0ffH
	DB	0d8H
	DB	0d8H
	DB	0d0H
	DB	0ffH
	DB	0e0H
	DB	0e0H
	DB	0e0H
	DB	0ffH
	DB	0e8H
	DB	0e8H
	DB	0e8H
	DB	0ffH
	DB	0e8H
	DB	0ecH
	DB	0f0H
	DB	0ffH
	DB	0e8H
	DB	0ecH
	DB	0f0H
	DB	0ffH
	DB	0e8H
	DB	0f0H
	DB	0f0H
	DB	0ffH
	DB	0f0H
	DB	0f0H
	DB	0f0H
	DB	0ffH
	DB	0e8H
	DB	0ecH
	DB	0f0H
	DB	0ffH
	DB	0e8H
	DB	0ecH
	DB	0f0H
	DB	0ffH
	DB	0e8H
	DB	0ecH
	DB	0f0H
	DB	0ffH
	DB	0e8H
	DB	0ecH
	DB	0f0H
	DB	0ffH
	DB	0e8H
	DB	0ecH
	DB	0f0H
	DB	0ffH
	DB	0e8H
	DB	0ecH
	DB	0f0H
	DB	0ffH
	DB	0e8H
	DB	0ecH
	DB	0e8H
	DB	0ffH
	DB	0e8H
	DB	0ecH
	DB	0f0H
	DB	0ffH
	DB	0e8H
	DB	0ecH
	DB	0e8H
	DB	0ffH
	DB	0e8H
	DB	0ecH
	DB	0f0H
	DB	0ffH
	DB	0e8H
	DB	0ecH
	DB	0e8H
	DB	0ffH
	DB	0e8H
	DB	0ecH
	DB	0f0H
	DB	0ffH
	DB	0e0H
	DB	0e8H
	DB	0e8H
	DB	0ffH
	DB	0e0H
	DB	0e8H
	DB	0e8H
	DB	0ffH
	DB	0e8H
	DB	0e8H
	DB	0e8H
	DB	0ffH
	DB	0e0H
	DB	0e4H
	DB	0e8H
	DB	0ffH
	DB	0e8H
	DB	0e8H
	DB	0e8H
	DB	0ffH
	DB	0e0H
	DB	0e4H
	DB	0e8H
	DB	0ffH
	DB	0e0H
	DB	0e4H
	DB	0e8H
	DB	0ffH
	DB	0e8H
	DB	0e4H
	DB	0e8H
	DB	0ffH
	DB	0e0H
	DB	0e0H
	DB	0e0H
	DB	0ffH
	DB	0e0H
	DB	0e0H
	DB	0e0H
	DB	0ffH
	DB	0e0H
	DB	0e0H
	DB	0e0H
	DB	0ffH
	DB	0d8H
	DB	0e0H
	DB	0e0H
	DB	0ffH
	DB	0e0H
	DB	0e0H
	DB	0e0H
	DB	0ffH
	DB	0f8H
	DB	0fcH
	DB	0f8H
	DB	0ffH
	DB	0f8H
	DB	0fcH
	DB	0f8H
	DB	0ffH
	DB	0f8H
	DB	0fcH
	DB	0f8H
	DB	0ffH
	DB	0f8H
	DB	0fcH
	DB	0f8H
	DB	0ffH
	DB	0f8H
	DB	0fcH
	DB	0f8H
	DB	0ffH
	DB	0f8H
	DB	0fcH
	DB	0f8H
	DB	0ffH
	DB	0f8H
	DB	0fcH
	DB	0f8H
	DB	0ffH
	DB	0f8H
	DB	0fcH
	DB	0f8H
	DB	0ffH
	DB	0f8H
	DB	0fcH
	DB	0f8H
	DB	0ffH
	DB	0f8H
	DB	0fcH
	DB	0f8H
	DB	0ffH
	DB	0f8H
	DB	0fcH
	DB	0f8H
	DB	0ffH
	DB	0f8H
	DB	0fcH
	DB	0f8H
	DB	0ffH
	DB	0f8H
	DB	0fcH
	DB	0f8H
	DB	0ffH
	DB	0f8H
	DB	0fcH
	DB	0f8H
	DB	0ffH
	DB	0f8H
	DB	0fcH
	DB	0f8H
	DB	0ffH
	DB	0f8H
	DB	0fcH
	DB	0f8H
	DB	0ffH
	DB	0f8H
	DB	0fcH
	DB	0f8H
	DB	0ffH
	DB	0f8H
	DB	0fcH
	DB	0f8H
	DB	0ffH
	DB	0f8H
	DB	0fcH
	DB	0f8H
	DB	0ffH
	DB	0f8H
	DB	0fcH
	DB	0f8H
	DB	0ffH
	DB	0f8H
	DB	0fcH
	DB	0f8H
	DB	0ffH
	DB	0f8H
	DB	0fcH
	DB	0f8H
	DB	0ffH
	DB	0f8H
	DB	0fcH
	DB	0f8H
	DB	0ffH
	DB	0f8H
	DB	0fcH
	DB	0f8H
	DB	0ffH
	DB	0f8H
	DB	0fcH
	DB	0f8H
	DB	0ffH
	DB	0f8H
	DB	0fcH
	DB	0f8H
	DB	0ffH
	DB	0f8H
	DB	0fcH
	DB	0f8H
	DB	0ffH
	DB	0f8H
	DB	0fcH
	DB	0f8H
	DB	0ffH
	DB	0f8H
	DB	0fcH
	DB	0f8H
	DB	0ffH
	DB	0f8H
	DB	0fcH
	DB	0f8H
	DB	0ffH
	DB	0f8H
	DB	0fcH
	DB	0f8H
	DB	0ffH
	DB	0f8H
	DB	0fcH
	DB	0f8H
	DB	0ffH
	DB	0f8H
	DB	0f8H
	DB	0f8H
	DB	0ffH
	DB	0f8H
	DB	0fcH
	DB	0f8H
	DB	0ffH
	DB	0f8H
	DB	0fcH
	DB	0f8H
	DB	0ffH
	DB	0f8H
	DB	0fcH
	DB	0f8H
	DB	0ffH
	DB	0f8H
	DB	0fcH
	DB	0f8H
	DB	0ffH
	DB	0f8H
	DB	0fcH
	DB	0f8H
	DB	0ffH
	DB	0f8H
	DB	0fcH
	DB	0f8H
	DB	0ffH
	DB	0f8H
	DB	0fcH
	DB	0f8H
	DB	0ffH
	DB	0f8H
	DB	0fcH
	DB	0f8H
	DB	0ffH
	DB	0f8H
	DB	0fcH
	DB	0f8H
	DB	0ffH
	DB	0f8H
	DB	0fcH
	DB	0f8H
	DB	0ffH
	DB	0f8H
	DB	0fcH
	DB	0f8H
	DB	0ffH
	DB	0f8H
	DB	0fcH
	DB	0f8H
	DB	0ffH
	DB	0f8H
	DB	0fcH
	DB	0f8H
	DB	0ffH
	DB	0f8H
	DB	0fcH
	DB	0f8H
	DB	0ffH
	DB	0f8H
	DB	0fcH
	DB	0f8H
	DB	0ffH
	DB	0f8H
	DB	0fcH
	DB	0f8H
	DB	0ffH
	DB	0f8H
	DB	0fcH
	DB	0f8H
	DB	0ffH
	DB	0f8H
	DB	0fcH
	DB	0f8H
	DB	0ffH
	DB	0f8H
	DB	0fcH
	DB	0f8H
	DB	0ffH
	DB	0f8H
	DB	0fcH
	DB	0f8H
	DB	0ffH
	DB	0f8H
	DB	0fcH
	DB	0f8H
	DB	0ffH
	DB	0f8H
	DB	0f8H
	DB	0f8H
	DB	0ffH
	DB	0f8H
	DB	0fcH
	DB	0f8H
	DB	0ffH
	DB	0f8H
	DB	0fcH
	DB	0f8H
	DB	0ffH
	DB	0f8H
	DB	0fcH
	DB	0f8H
	DB	0ffH
	DB	0f8H
	DB	0fcH
	DB	0f8H
	DB	0ffH
	DB	0f8H
	DB	0fcH
	DB	0f8H
	DB	0ffH
	DB	0f8H
	DB	0fcH
	DB	0f8H
	DB	0ffH
	DB	0f8H
	DB	0fcH
	DB	0f8H
	DB	0ffH
	DB	0f8H
	DB	0fcH
	DB	0f8H
	DB	0ffH
	DB	0f8H
	DB	0fcH
	DB	0f8H
	DB	0ffH
	DB	0f8H
	DB	0f8H
	DB	0f8H
	DB	0ffH
	DB	0f8H
	DB	0fcH
	DB	0f8H
	DB	0ffH
	DB	0f8H
	DB	0fcH
	DB	0f8H
	DB	0ffH
	DB	0f8H
	DB	0f8H
	DB	0f8H
	DB	0ffH
	DB	0f8H
	DB	0fcH
	DB	0f8H
	DB	0ffH
	DB	0f8H
	DB	0fcH
	DB	0f8H
	DB	0ffH
	DB	0f8H
	DB	0fcH
	DB	0f8H
	DB	0ffH
	DB	0f8H
	DB	0fcH
	DB	0f8H
	DB	0ffH
	DB	0f8H
	DB	0fcH
	DB	0f8H
	DB	0ffH
	DB	0f8H
	DB	0fcH
	DB	0f8H
	DB	0ffH
	DB	0f8H
	DB	0fcH
	DB	0f8H
	DB	0ffH
	DB	0f8H
	DB	0fcH
	DB	0f8H
	DB	0ffH
	DB	0f8H
	DB	0fcH
	DB	0f8H
	DB	0ffH
	DB	0f8H
	DB	0fcH
	DB	0f8H
	DB	0ffH
	DB	0f8H
	DB	0fcH
	DB	0f8H
	DB	0ffH
	DB	0f8H
	DB	0fcH
	DB	0f8H
	DB	0ffH
	DB	0f8H
	DB	0fcH
	DB	0f8H
	DB	0ffH
	DB	0f8H
	DB	0fcH
	DB	0f8H
	DB	0ffH
	DB	0f8H
	DB	0fcH
	DB	0f8H
	DB	0ffH
	DB	0f8H
	DB	0f8H
	DB	0f8H
	DB	0ffH
	DB	0f8H
	DB	0fcH
	DB	0f8H
	DB	0ffH
	DB	0f8H
	DB	0fcH
	DB	0f8H
	DB	0ffH
	DB	0f8H
	DB	0fcH
	DB	0f8H
	DB	0ffH
	DB	0f8H
	DB	0fcH
	DB	0f8H
	DB	0ffH
	DB	0f8H
	DB	0fcH
	DB	0f8H
	DB	0ffH
	DB	0f8H
	DB	0fcH
	DB	0f8H
	DB	0ffH
	DB	0f8H
	DB	0fcH
	DB	0f8H
	DB	0ffH
	DB	0f8H
	DB	0fcH
	DB	0f8H
	DB	0ffH
	DB	0f8H
	DB	0fcH
	DB	0f8H
	DB	0ffH
	DB	0f8H
	DB	0fcH
	DB	0f8H
	DB	0ffH
	DB	0f8H
	DB	0fcH
	DB	0f8H
	DB	0ffH
	DB	0f8H
	DB	0fcH
	DB	0f8H
	DB	0ffH
	DB	0f8H
	DB	0f8H
	DB	0f8H
	DB	0ffH
	DB	0f8H
	DB	0f8H
	DB	0f8H
	DB	0ffH
	DB	0f8H
	DB	0f8H
	DB	0f8H
	DB	0ffH
	DB	0f0H
	DB	0f4H
	DB	0f8H
	DB	0ffH
	DB	0f0H
	DB	0f4H
	DB	0f8H
	DB	0ffH
	DB	0f0H
	DB	0f4H
	DB	0f8H
	DB	0ffH
	DB	0f0H
	DB	0f4H
	DB	0f0H
	DB	0ffH
	DB	0f0H
	DB	0f4H
	DB	0f8H
	DB	0ffH
	DB	0f0H
	DB	0f0H
	DB	0f0H
	DB	0ffH
	DB	0f0H
	DB	0f0H
	DB	0f0H
	DB	0ffH
	DB	0f0H
	DB	0f0H
	DB	0f0H
	DB	0ffH
	DB	0f0H
	DB	0f0H
	DB	0f0H
	DB	0ffH
	DB	0f0H
	DB	0ecH
	DB	0f0H
	DB	0ffH
	DB	0f0H
	DB	0f0H
	DB	0f0H
	DB	0ffH
	DB	0f0H
	DB	0ecH
	DB	0f0H
	DB	0ffH
	DB	0e8H
	DB	0ecH
	DB	0e8H
	DB	0ffH
	DB	0f0H
	DB	0ecH
	DB	0f0H
	DB	0ffH
	DB	0e8H
	DB	0ecH
	DB	0e8H
	DB	0ffH
	DB	0f0H
	DB	0ecH
	DB	0f0H
	DB	0ffH
	DB	0f0H
	DB	0ecH
	DB	0f0H
	DB	0ffH
	DB	0e8H
	DB	0ecH
	DB	0e8H
	DB	0ffH
	DB	0f0H
	DB	0ecH
	DB	0f0H
	DB	0ffH
	DB	0e8H
	DB	0ecH
	DB	0e8H
	DB	0ffH
	DB	0f0H
	DB	0f0H
	DB	0f0H
	DB	0ffH
	DB	0f0H
	DB	0ecH
	DB	0f0H
	DB	0ffH
	DB	0f0H
	DB	0f0H
	DB	0f0H
	DB	0ffH
	DB	0f0H
	DB	0ecH
	DB	0f0H
	DB	0ffH
	DB	0e8H
	DB	0ecH
	DB	0e8H
	DB	0ffH
	DB	0f0H
	DB	0f0H
	DB	0f0H
	DB	0ffH
	DB	0f0H
	DB	0f0H
	DB	0f0H
	DB	0ffH
	DB	0f0H
	DB	0f0H
	DB	0f0H
	DB	0ffH
	DB	0f0H
	DB	0f4H
	DB	0f8H
	DB	0ffH
	DB	0f0H
	DB	0f4H
	DB	0f8H
	DB	0ffH
	DB	0f0H
	DB	0f4H
	DB	0f8H
	DB	0ffH
	DB	0f0H
	DB	0f4H
	DB	0f0H
	DB	0ffH
	DB	0f0H
	DB	0f4H
	DB	0f0H
	DB	0ffH
	DB	0f0H
	DB	0f4H
	DB	0f0H
	DB	0ffH
	DB	0f0H
	DB	0f0H
	DB	0f0H
	DB	0ffH
	DB	0f0H
	DB	0f0H
	DB	0f0H
	DB	0ffH
	DB	0f0H
	DB	0f4H
	DB	0f0H
	DB	0ffH
	DB	0f0H
	DB	0f4H
	DB	0f8H
	DB	0ffH
	DB	0f0H
	DB	0f0H
	DB	0f0H
	DB	0ffH
	DB	0f0H
	DB	0f0H
	DB	0f0H
	DB	0ffH
	DB	0f0H
	DB	0f4H
	DB	0f8H
	DB	0ffH
	DB	0f0H
	DB	0f4H
	DB	0f8H
	DB	0ffH
	DB	0f0H
	DB	0f4H
	DB	0f0H
	DB	0ffH
	DB	0f0H
	DB	0f4H
	DB	0f8H
	DB	0ffH
	DB	0f8H
	DB	0f8H
	DB	0f8H
	DB	0ffH
	DB	0f0H
	DB	0f4H
	DB	0f8H
	DB	0ffH
	DB	0f0H
	DB	0f4H
	DB	0f8H
	DB	0ffH
	DB	0f0H
	DB	0f4H
	DB	0f8H
	DB	0ffH
	DB	0f0H
	DB	0f4H
	DB	0f0H
	DB	0ffH
	DB	0f0H
	DB	0f4H
	DB	0f8H
	DB	0ffH
	DB	0f0H
	DB	0f0H
	DB	0f0H
	DB	0ffH
	DB	0f0H
	DB	0f0H
	DB	0f0H
	DB	0ffH
	DB	0f0H
	DB	0f0H
	DB	0f0H
	DB	0ffH
	DB	0f0H
	DB	0f0H
	DB	0f0H
	DB	0ffH
	DB	0f0H
	DB	0ecH
	DB	0f0H
	DB	0ffH
	DB	0e8H
	DB	0ecH
	DB	0e8H
	DB	0ffH
	DB	0f0H
	DB	0ecH
	DB	0f0H
	DB	0ffH
	DB	0e8H
	DB	0ecH
	DB	0f0H
	DB	0ffH
	DB	0e8H
	DB	0ecH
	DB	0e8H
	DB	0ffH
	DB	0f0H
	DB	0ecH
	DB	0e8H
	DB	0ffH
	DB	0e8H
	DB	0ecH
	DB	0e8H
	DB	0ffH
	DB	0e8H
	DB	0e8H
	DB	0e8H
	DB	0ffH
	DB	0e8H
	DB	0e8H
	DB	0e8H
	DB	0ffH
	DB	0e8H
	DB	0e8H
	DB	0e8H
	DB	0ffH
	DB	0e8H
	DB	0e8H
	DB	0e8H
	DB	0ffH
	DB	0e8H
	DB	0e8H
	DB	0e8H
	DB	0ffH
	DB	0e8H
	DB	0e8H
	DB	0e8H
	DB	0ffH
	DB	0e8H
	DB	0e8H
	DB	0e8H
	DB	0ffH
	DB	0e8H
	DB	0e8H
	DB	0e8H
	DB	0ffH
	DB	0e8H
	DB	0e8H
	DB	0e8H
	DB	0ffH
	DB	0e8H
	DB	0ecH
	DB	0e8H
	DB	0ffH
	DB	0e8H
	DB	0ecH
	DB	0e8H
	DB	0ffH
	DB	0e8H
	DB	0e8H
	DB	0e8H
	DB	0ffH
	DB	0e8H
	DB	0ecH
	DB	0e8H
	DB	0ffH
	DB	0f0H
	DB	0ecH
	DB	0f0H
	DB	0ffH
	DB	0f0H
	DB	0ecH
	DB	0f0H
	DB	0ffH
	DB	0f0H
	DB	0ecH
	DB	0f0H
	DB	0ffH
	DB	0f0H
	DB	0ecH
	DB	0f0H
	DB	0ffH
	DB	0e8H
	DB	0ecH
	DB	0f0H
	DB	0ffH
	DB	0e8H
	DB	0ecH
	DB	0e8H
	DB	0ffH
	DB	0e8H
	DB	0e8H
	DB	0e8H
	DB	0ffH
	DB	0e0H
	DB	0e4H
	DB	0e0H
	DB	0ffH
	DB	0e0H
	DB	0e0H
	DB	0e0H
	DB	0ffH
	DB	0e0H
	DB	0e4H
	DB	0e8H
	DB	0ffH
	DB	0e8H
	DB	0e4H
	DB	0e8H
	DB	0ffH
	DB	0e8H
	DB	0e4H
	DB	0e0H
	DB	0ffH
	DB	0e8H
	DB	0e8H
	DB	0e8H
	DB	0ffH
	DB	0e8H
	DB	0e4H
	DB	0e8H
	DB	0ffH
	DB	0e8H
	DB	0e4H
	DB	0e0H
	DB	0ffH
	DB	0e8H
	DB	0e4H
	DB	0e8H
	DB	0ffH
	DB	0e8H
	DB	0e4H
	DB	0e8H
	DB	0ffH
	DB	0e8H
	DB	0e4H
	DB	0e8H
	DB	0ffH
	DB	0e8H
	DB	0e8H
	DB	0e8H
	DB	0ffH
	DB	0e8H
	DB	0e8H
	DB	0e8H
	DB	0ffH
	DB	0e8H
	DB	0ecH
	DB	0e8H
	DB	0ffH
	DB	0e8H
	DB	0e8H
	DB	0e8H
	DB	0ffH
	DB	0e8H
	DB	0ecH
	DB	0e8H
	DB	0ffH
	DB	0e8H
	DB	0ecH
	DB	0e8H
	DB	0ffH
	DB	0e8H
	DB	0e8H
	DB	0e8H
	DB	0ffH
	DB	0e8H
	DB	0ecH
	DB	0e8H
	DB	0ffH
	DB	0e8H
	DB	0e8H
	DB	0e8H
	DB	0ffH
	DB	0e8H
	DB	0e8H
	DB	0e8H
	DB	0ffH
	DB	0e8H
	DB	0e8H
	DB	0e8H
	DB	0ffH
	DB	0f0H
	DB	0ecH
	DB	0f0H
	DB	0ffH
	DB	0f0H
	DB	0ecH
	DB	0f0H
	DB	0ffH
	DB	0f0H
	DB	0ecH
	DB	0f0H
	DB	0ffH
	DB	0e8H
	DB	0ecH
	DB	0f0H
	DB	0ffH
	DB	0e8H
	DB	0ecH
	DB	0e8H
	DB	0ffH
	DB	0f0H
	DB	0ecH
	DB	0e8H
	DB	0ffH
	DB	0e8H
	DB	0e8H
	DB	0e8H
	DB	0ffH
	DB	0e8H
	DB	0e8H
	DB	0e8H
	DB	0ffH
	DB	0e8H
	DB	0e8H
	DB	0e8H
	DB	0ffH
	DB	0e8H
	DB	0e4H
	DB	0e8H
	DB	0ffH
	DB	0e8H
	DB	0e4H
	DB	0e0H
	DB	0ffH
	DB	0e8H
	DB	0e0H
	DB	0e0H
	DB	0ffH
	DB	0e0H
	DB	0d8H
	DB	0d8H
	DB	0ffH
	DB	0e0H
	DB	0d4H
	DB	0c8H
	DB	0ffH
	DB	0e0H
	DB	0d4H
	DB	0c8H
	DB	0ffH
	DB	0d8H
	DB	0d0H
	DB	0c8H
	DB	0ffH
	DB	0d8H
	DB	0d4H
	DB	0c8H
	DB	0ffH
	DB	0d8H
	DB	0d0H
	DB	0c8H
	DB	0ffH
	DB	0d8H
	DB	0d0H
	DB	0c8H
	DB	0ffH
	DB	0e0H
	DB	0d4H
	DB	0d0H
	DB	0ffH
	DB	0e0H
	DB	0d4H
	DB	0d0H
	DB	0ffH
	DB	0e0H
	DB	0d8H
	DB	0d0H
	DB	0ffH
	DB	0e0H
	DB	0dcH
	DB	0d0H
	DB	0ffH
	DB	0e0H
	DB	0d8H
	DB	0d0H
	DB	0ffH
	DB	0d8H
	DB	0d4H
	DB	0c8H
	DB	0ffH
	DB	0d8H
	DB	0d0H
	DB	0c0H
	DB	0ffH
	DB	0d8H
	DB	0d0H
	DB	0c0H
	DB	0ffH
	DB	0d8H
	DB	0d4H
	DB	0c0H
	DB	0ffH
	DB	0d8H
	DB	0d4H
	DB	0c0H
	DB	0ffH
	DB	0d8H
	DB	0d0H
	DB	0c0H
	DB	0ffH
	DB	0e0H
	DB	0d0H
	DB	0c0H
	DB	0ffH
	DB	0d8H
	DB	0d0H
	DB	0c0H
	DB	0ffH
	DB	0d8H
	DB	0d0H
	DB	0c8H
	DB	0ffH
	DB	0d8H
	DB	0d0H
	DB	0c8H
	DB	0ffH
	DB	0e0H
	DB	0d8H
	DB	0d8H
	DB	0ffH
	DB	0e0H
	DB	0e0H
	DB	0e0H
	DB	0ffH
	DB	0e8H
	DB	0e0H
	DB	0e0H
	DB	0ffH
	DB	0e8H
	DB	0e0H
	DB	0e0H
	DB	0ffH
	DB	0e8H
	DB	0e0H
	DB	0e0H
	DB	0ffH
	DB	0e8H
	DB	0e0H
	DB	0e0H
	DB	0ffH
	DB	0e8H
	DB	0e4H
	DB	0e0H
	DB	0ffH
	DB	0e8H
	DB	0e4H
	DB	0e0H
	DB	0ffH
	DB	0e8H
	DB	0e4H
	DB	0e0H
	DB	0ffH
	DB	0e8H
	DB	0e4H
	DB	0e8H
	DB	0ffH
	DB	0f0H
	DB	0ecH
	DB	0f0H
	DB	0ffH
	DB	0f0H
	DB	0ecH
	DB	0e8H
	DB	0ffH
	DB	0f0H
	DB	0ecH
	DB	0e8H
	DB	0ffH
	DB	0e8H
	DB	0ecH
	DB	0e8H
	DB	0ffH
	DB	0e8H
	DB	0e8H
	DB	0e8H
	DB	0ffH
	DB	0e8H
	DB	0ecH
	DB	0f0H
	DB	0ffH
	DB	0e8H
	DB	0ecH
	DB	0f0H
	DB	0ffH
	DB	0f0H
	DB	0ecH
	DB	0f0H
	DB	0ffH
	DB	0f0H
	DB	0ecH
	DB	0f0H
	DB	0ffH
	DB	0e8H
	DB	0f0H
	DB	0f8H
	DB	0ffH
	DB	0f0H
	DB	0f0H
	DB	0f8H
	DB	0ffH
	DB	0f0H
	DB	0f0H
	DB	0f0H
	DB	0ffH
	DB	0f0H
	DB	0f0H
	DB	0f0H
	DB	0ffH
	DB	0f0H
	DB	0ecH
	DB	0e8H
	DB	0ffH
	DB	0e8H
	DB	0e8H
	DB	0e8H
	DB	0ffH
	DB	0e0H
	DB	0dcH
	DB	0d8H
	DB	0ffH
	DB	0d8H
	DB	0d4H
	DB	0d0H
	DB	0ffH
	DB	0d8H
	DB	0d4H
	DB	0d0H
	DB	0ffH
	DB	0d8H
	DB	0d4H
	DB	0c8H
	DB	0ffH
	DB	0d8H
	DB	0d4H
	DB	0c8H
	DB	0ffH
	DB	0d8H
	DB	0d4H
	DB	0c8H
	DB	0ffH
	DB	0d8H
	DB	0d4H
	DB	0d0H
	DB	0ffH
	DB	0e0H
	DB	0d8H
	DB	0d0H
	DB	0ffH
	DB	0d8H
	DB	0d8H
	DB	0c8H
	DB	0ffH
	DB	0d8H
	DB	0d4H
	DB	0c8H
	DB	0ffH
	DB	0e0H
	DB	0d4H
	DB	0c8H
	DB	0ffH
	DB	0e0H
	DB	0d4H
	DB	0d0H
	DB	0ffH
	DB	0e0H
	DB	0dcH
	DB	0d0H
	DB	0ffH
	DB	0e0H
	DB	0e0H
	DB	0e0H
	DB	0ffH
	DB	0e8H
	DB	0e4H
	DB	0e0H
	DB	0ffH
	DB	0e8H
	DB	0e8H
	DB	0e8H
	DB	0ffH
	DB	0e0H
	DB	0e4H
	DB	0e8H
	DB	0ffH
	DB	0e0H
	DB	0e4H
	DB	0e8H
	DB	0ffH
	DB	0e8H
	DB	0ecH
	DB	0e8H
	DB	0ffH
	DB	0e8H
	DB	0ecH
	DB	0e8H
	DB	0ffH
	DB	0e8H
	DB	0ecH
	DB	0e8H
	DB	0ffH
	DB	0e8H
	DB	0ecH
	DB	0f0H
	DB	0ffH
	DB	0e8H
	DB	0ecH
	DB	0f0H
	DB	0ffH
	DB	0e8H
	DB	0ecH
	DB	0e8H
	DB	0ffH
	DB	0e8H
	DB	0ecH
	DB	0e8H
	DB	0ffH
	DB	0e8H
	DB	0e8H
	DB	0e8H
	DB	0ffH
	DB	0e8H
	DB	0ecH
	DB	0e8H
	DB	0ffH
	DB	0e8H
	DB	0e8H
	DB	0e8H
	DB	0ffH
	DB	0e8H
	DB	0e8H
	DB	0e8H
	DB	0ffH
	DB	0e8H
	DB	0e8H
	DB	0e8H
	DB	0ffH
	DB	0e8H
	DB	0e8H
	DB	0e8H
	DB	0ffH
	DB	0e8H
	DB	0e8H
	DB	0e8H
	DB	0ffH
	DB	0e8H
	DB	0e8H
	DB	0e8H
	DB	0ffH
	DB	0e8H
	DB	0e4H
	DB	0e8H
	DB	0ffH
	DB	0e8H
	DB	0e4H
	DB	0e0H
	DB	0ffH
	DB	0e0H
	DB	0e4H
	DB	0e0H
	DB	0ffH
	DB	0e0H
	DB	0e0H
	DB	0e0H
	DB	0ffH
	DB	0e0H
	DB	0dcH
	DB	0e0H
	DB	0ffH
	DB	0e0H
	DB	0dcH
	DB	0d8H
	DB	0ffH
	DB	0d8H
	DB	0d8H
	DB	0d8H
	DB	0ffH
	DB	0e0H
	DB	0dcH
	DB	0d8H
	DB	0ffH
	DB	0e0H
	DB	0dcH
	DB	0e0H
	DB	0ffH
	DB	0e0H
	DB	0e0H
	DB	0e0H
	DB	0ffH
	DB	0e0H
	DB	0e0H
	DB	0e0H
	DB	0ffH
	DB	0e0H
	DB	0e0H
	DB	0e0H
	DB	0ffH
	DB	0e0H
	DB	0e0H
	DB	0e0H
	DB	0ffH
	DB	0e0H
	DB	0e0H
	DB	0e0H
	DB	0ffH
	DB	0e0H
	DB	0e0H
	DB	0e0H
	DB	0ffH
	DB	0e0H
	DB	0e0H
	DB	0e0H
	DB	0ffH
	DB	0e0H
	DB	0e0H
	DB	0e0H
	DB	0ffH
	DB	0e0H
	DB	0e0H
	DB	0e0H
	DB	0ffH
	DB	0e0H
	DB	0e4H
	DB	0e0H
	DB	0ffH
	DB	0e8H
	DB	0e4H
	DB	0e8H
	DB	0ffH
	DB	0e8H
	DB	0e4H
	DB	0e8H
	DB	0ffH
	DB	0e8H
	DB	0e8H
	DB	0e8H
	DB	0ffH
	DB	0e8H
	DB	0e8H
	DB	0e8H
	DB	0ffH
	DB	0e8H
	DB	0e8H
	DB	0e8H
	DB	0ffH
	DB	0e8H
	DB	0e8H
	DB	0e8H
	DB	0ffH
	DB	0e8H
	DB	0ecH
	DB	0e8H
	DB	0ffH
	DB	0e8H
	DB	0ecH
	DB	0e8H
	DB	0ffH
	DB	0e8H
	DB	0ecH
	DB	0f0H
	DB	0ffH
	DB	0e8H
	DB	0ecH
	DB	0f0H
	DB	0ffH
	DB	0f0H
	DB	0f0H
	DB	0f0H
	DB	0ffH
	DB	0e8H
	DB	0f0H
	DB	0f0H
	DB	0ffH
	DB	0f0H
	DB	0f0H
	DB	0f0H
	DB	0ffH
	DB	0f0H
	DB	0f0H
	DB	0f0H
	DB	0ffH
	DB	0f0H
	DB	0f0H
	DB	0f0H
	DB	0ffH
	DB	0e8H
	DB	0f0H
	DB	0f0H
	DB	0ffH
	DB	0f0H
	DB	0f0H
	DB	0f0H
	DB	0ffH
	DB	0f0H
	DB	0f0H
	DB	0f0H
	DB	0ffH
	DB	0e8H
	DB	0f0H
	DB	0f0H
	DB	0ffH
	DB	0f0H
	DB	0f0H
	DB	0f0H
	DB	0ffH
	DB	0e8H
	DB	0f0H
	DB	0f0H
	DB	0ffH
	DB	0e8H
	DB	0f0H
	DB	0f0H
	DB	0ffH
	DB	0f0H
	DB	0f0H
	DB	0f0H
	DB	0ffH
	DB	0e8H
	DB	0ecH
	DB	0f0H
	DB	0ffH
	DB	0e8H
	DB	0ecH
	DB	0f0H
	DB	0ffH
	DB	0e8H
	DB	0ecH
	DB	0f0H
	DB	0ffH
	DB	0e8H
	DB	0ecH
	DB	0f0H
	DB	0ffH
	DB	0e8H
	DB	0e8H
	DB	0e8H
	DB	0ffH
	DB	0e8H
	DB	0e8H
	DB	0e8H
	DB	0ffH
	DB	0e8H
	DB	0e8H
	DB	0e8H
	DB	0ffH
	DB	0e0H
	DB	0e4H
	DB	0e0H
	DB	0ffH
	DB	0e8H
	DB	0e4H
	DB	0e0H
	DB	0ffH
	DB	0e0H
	DB	0e0H
	DB	0e0H
	DB	0ffH
	DB	0e0H
	DB	0dcH
	DB	0e0H
	DB	0ffH
	DB	0e0H
	DB	0dcH
	DB	0e0H
	DB	0ffH
	DB	0e0H
	DB	0dcH
	DB	0e0H
	DB	0ffH
	DB	0e0H
	DB	0dcH
	DB	0e0H
	DB	0ffH
	DB	0e0H
	DB	0dcH
	DB	0d8H
	DB	0ffH
	DB	0e0H
	DB	0dcH
	DB	0d8H
	DB	0ffH
	DB	0e0H
	DB	0d8H
	DB	0d8H
	DB	0ffH
	DB	0d8H
	DB	0d4H
	DB	0d0H
	DB	0ffH
	DB	0d8H
	DB	0d0H
	DB	0c8H
	DB	0ffH
	DB	0d8H
	DB	0d0H
	DB	0c0H
	DB	0ffH
	DB	0d8H
	DB	0d0H
	DB	0c0H
	DB	0ffH
	DB	0d0H
	DB	0ccH
	DB	0c0H
	DB	0ffH
	DB	0d8H
	DB	0ccH
	DB	0c0H
	DB	0ffH
	DB	0d8H
	DB	0ccH
	DB	0b8H
	DB	0ffH
	DB	0d8H
	DB	0c8H
	DB	0b8H
	DB	0ffH
	DB	0d0H
	DB	0c8H
	DB	0b8H
	DB	0ffH
	DB	0d8H
	DB	0c8H
	DB	0b0H
	DB	0ffH
	DB	0d0H
	DB	0c8H
	DB	0b8H
	DB	0ffH
	DB	0d0H
	DB	0c8H
	DB	0b8H
	DB	0ffH
	DB	0d8H
	DB	0c8H
	DB	0b0H
	DB	0ffH
	DB	0d0H
	DB	0c8H
	DB	0b8H
	DB	0ffH
	DB	0d8H
	DB	0c8H
	DB	0b8H
	DB	0ffH
	DB	0d0H
	DB	0c8H
	DB	0b0H
	DB	0ffH
	DB	0d8H
	DB	0c8H
	DB	0b0H
	DB	0ffH
	DB	0d8H
	DB	0c8H
	DB	0b0H
	DB	0ffH
	DB	0d0H
	DB	0c8H
	DB	0b0H
	DB	0ffH
	DB	0d0H
	DB	0c4H
	DB	0b0H
	DB	0ffH
	DB	0d0H
	DB	0c8H
	DB	0b0H
	DB	0ffH
	DB	0d8H
	DB	0c8H
	DB	0b0H
	DB	0ffH
	DB	0d8H
	DB	0c8H
	DB	0b0H
	DB	0ffH
	DB	0d0H
	DB	0c8H
	DB	0b0H
	DB	0ffH
	DB	0d0H
	DB	0c8H
	DB	0b0H
	DB	0ffH
	DB	0d8H
	DB	0c8H
	DB	0b0H
	DB	0ffH
	DB	0d0H
	DB	0c4H
	DB	0b0H
	DB	0ffH
	DB	0d0H
	DB	0c4H
	DB	0b0H
	DB	0ffH
	DB	0d0H
	DB	0c8H
	DB	0b8H
	DB	0ffH
	DB	0d8H
	DB	0c8H
	DB	0b8H
	DB	0ffH
	DB	0d8H
	DB	0ccH
	DB	0b8H
	DB	0ffH
	DB	0d0H
	DB	0c8H
	DB	0b8H
	DB	0ffH
	DB	0d0H
	DB	0c8H
	DB	0b8H
	DB	0ffH
	DB	0d8H
	DB	0c8H
	DB	0b8H
	DB	0ffH
	DB	0d0H
	DB	0c8H
	DB	0b8H
	DB	0ffH
	DB	0d8H
	DB	0ccH
	DB	0b8H
	DB	0ffH
	DB	0d8H
	DB	0c8H
	DB	0b8H
	DB	0ffH
	DB	0d0H
	DB	0c8H
	DB	0b8H
	DB	0ffH
	DB	0d0H
	DB	0c8H
	DB	0b0H
	DB	0ffH
	DB	0d8H
	DB	0c8H
	DB	0b0H
	DB	0ffH
	DB	0d0H
	DB	0c8H
	DB	0b0H
	DB	0ffH
	DB	0d0H
	DB	0c8H
	DB	0b8H
	DB	0ffH
	DB	0d8H
	DB	0ccH
	DB	0b8H
	DB	0ffH
	DB	0d8H
	DB	0ccH
	DB	0c0H
	DB	0ffH
	DB	0d8H
	DB	0ccH
	DB	0c0H
	DB	0ffH
	DB	0d0H
	DB	0ccH
	DB	0c0H
	DB	0ffH
	DB	0d0H
	DB	0c8H
	DB	0b8H
	DB	0ffH
	DB	0d0H
	DB	0c8H
	DB	0b8H
	DB	0ffH
	DB	0d8H
	DB	0ccH
	DB	0c8H
	DB	0ffH
	DB	0d8H
	DB	0d4H
	DB	0d0H
	DB	0ffH
	DB	0d8H
	DB	0d4H
	DB	0d0H
	DB	0ffH
	DB	0e0H
	DB	0d8H
	DB	0d8H
	DB	0ffH
	DB	0d8H
	DB	0dcH
	DB	0d8H
	DB	0ffH
	DB	0e0H
	DB	0e0H
	DB	0e0H
	DB	0ffH
	DB	0e0H
	DB	0e0H
	DB	0e0H
	DB	0ffH
	DB	0e0H
	DB	0e0H
	DB	0e0H
	DB	0ffH
	DB	0e0H
	DB	0e0H
	DB	0e0H
	DB	0ffH
	DB	0e0H
	DB	0e0H
	DB	0e0H
	DB	0ffH
	DB	0e0H
	DB	0e0H
	DB	0e0H
	DB	0ffH
	DB	0e0H
	DB	0e0H
	DB	0e0H
	DB	0ffH
	DB	0e0H
	DB	0e0H
	DB	0e0H
	DB	0ffH
	DB	0e0H
	DB	0e0H
	DB	0e0H
	DB	0ffH
	DB	0e0H
	DB	0e0H
	DB	0e0H
	DB	0ffH
	DB	0e0H
	DB	0dcH
	DB	0e0H
	DB	0ffH
	DB	0e0H
	DB	0dcH
	DB	0e0H
	DB	0ffH
	DB	0e0H
	DB	0e0H
	DB	0e0H
	DB	0ffH
	DB	0e0H
	DB	0e4H
	DB	0e8H
	DB	0ffH
	DB	0e0H
	DB	0e4H
	DB	0e0H
	DB	0ffH
	DB	0e0H
	DB	0e4H
	DB	0e0H
	DB	0ffH
	DB	0e0H
	DB	0e4H
	DB	0e8H
	DB	0ffH
	DB	0e0H
	DB	0e4H
	DB	0e0H
	DB	0ffH
	DB	0e8H
	DB	0e4H
	DB	0e8H
	DB	0ffH
	DB	0e0H
	DB	0e4H
	DB	0e8H
	DB	0ffH
	DB	0e0H
	DB	0e0H
	DB	0e0H
	DB	0ffH
	DB	0e0H
	DB	0e0H
	DB	0e0H
	DB	0ffH
	DB	0e0H
	DB	0e0H
	DB	0e0H
	DB	0ffH
	DB	0e8H
	DB	0e4H
	DB	0e8H
	DB	0ffH
	DB	0e8H
	DB	0e8H
	DB	0e8H
	DB	0ffH
	DB	0e8H
	DB	0e8H
	DB	0e8H
	DB	0ffH
	DB	0e0H
	DB	0e4H
	DB	0e8H
	DB	0ffH
	DB	0e0H
	DB	0e0H
	DB	0e0H
	DB	0ffH
	DB	0e0H
	DB	0e0H
	DB	0e0H
	DB	0ffH
	DB	0e0H
	DB	0e0H
	DB	0e0H
	DB	0ffH
	DB	0e0H
	DB	0e0H
	DB	0e0H
	DB	0ffH
	DB	0e0H
	DB	0e0H
	DB	0e0H
	DB	0ffH
	DB	0e0H
	DB	0e4H
	DB	0e8H
	DB	0ffH
	DB	0e0H
	DB	0e8H
	DB	0e8H
	DB	0ffH
	DB	0e0H
	DB	0e8H
	DB	0e8H
	DB	0ffH
	DB	0e0H
	DB	0e4H
	DB	0e8H
	DB	0ffH
	DB	0e0H
	DB	0e0H
	DB	0e0H
	DB	0ffH
	DB	0d8H
	DB	0d8H
	DB	0d8H
	DB	0ffH
	DB	0d8H
	DB	0d8H
	DB	0d8H
	DB	0ffH
	DB	0d8H
	DB	0d4H
	DB	0d8H
	DB	0ffH
	DB	0d8H
	DB	0d0H
	DB	0d0H
	DB	0ffH
	DB	0d8H
	DB	0d4H
	DB	0d0H
	DB	0ffH
	DB	0e0H
	DB	0d8H
	DB	0d8H
	DB	0ffH
	DB	0e0H
	DB	0e0H
	DB	0e8H
	DB	0ffH
	DB	0e0H
	DB	0e8H
	DB	0e8H
	DB	0ffH
	DB	0e8H
	DB	0e8H
	DB	0f0H
	DB	0ffH
	DB	0e8H
	DB	0ecH
	DB	0f0H
	DB	0ffH
	DB	0e8H
	DB	0f0H
	DB	0f0H
	DB	0ffH
	DB	0e8H
	DB	0ecH
	DB	0f0H
	DB	0ffH
	DB	0f0H
	DB	0f0H
	DB	0f0H
	DB	0ffH
	DB	0e8H
	DB	0ecH
	DB	0f0H
	DB	0ffH
	DB	0e8H
	DB	0ecH
	DB	0f0H
	DB	0ffH
	DB	0e8H
	DB	0ecH
	DB	0e8H
	DB	0ffH
	DB	0e8H
	DB	0ecH
	DB	0e8H
	DB	0ffH
	DB	0e8H
	DB	0ecH
	DB	0e8H
	DB	0ffH
	DB	0e8H
	DB	0ecH
	DB	0f0H
	DB	0ffH
	DB	0e8H
	DB	0ecH
	DB	0e8H
	DB	0ffH
	DB	0e8H
	DB	0e8H
	DB	0e8H
	DB	0ffH
	DB	0e0H
	DB	0e8H
	DB	0e8H
	DB	0ffH
	DB	0e0H
	DB	0e8H
	DB	0e8H
	DB	0ffH
	DB	0e0H
	DB	0e8H
	DB	0e8H
	DB	0ffH
	DB	0e8H
	DB	0e8H
	DB	0e8H
	DB	0ffH
	DB	0e8H
	DB	0e8H
	DB	0e8H
	DB	0ffH
	DB	0e0H
	DB	0e8H
	DB	0e8H
	DB	0ffH
	DB	0e0H
	DB	0e4H
	DB	0e8H
	DB	0ffH
	DB	0e8H
	DB	0e4H
	DB	0e8H
	DB	0ffH
	DB	0e0H
	DB	0e4H
	DB	0e8H
	DB	0ffH
	DB	0e0H
	DB	0e4H
	DB	0e8H
	DB	0ffH
	DB	0e0H
	DB	0e4H
	DB	0e8H
	DB	0ffH
	DB	0e0H
	DB	0e4H
	DB	0e0H
	DB	0ffH
	DB	0e0H
	DB	0e0H
	DB	0e0H
	DB	0ffH
	DB	0e0H
	DB	0e0H
	DB	0e0H
	DB	0ffH
	DB	0e0H
	DB	0e0H
	DB	0e0H
	DB	0ffH
	DB	0d8H
	DB	0e0H
	DB	0e0H
	DB	0ffH
	DB	0f8H
	DB	0fcH
	DB	0f8H
	DB	0ffH
	DB	0f8H
	DB	0fcH
	DB	0f8H
	DB	0ffH
	DB	0f8H
	DB	0fcH
	DB	0f8H
	DB	0ffH
	DB	0f8H
	DB	0fcH
	DB	0f8H
	DB	0ffH
	DB	0f8H
	DB	0fcH
	DB	0f8H
	DB	0ffH
	DB	0f8H
	DB	0fcH
	DB	0f8H
	DB	0ffH
	DB	0f8H
	DB	0fcH
	DB	0f8H
	DB	0ffH
	DB	0f8H
	DB	0fcH
	DB	0f8H
	DB	0ffH
	DB	0f8H
	DB	0fcH
	DB	0f8H
	DB	0ffH
	DB	0f8H
	DB	0fcH
	DB	0f8H
	DB	0ffH
	DB	0f8H
	DB	0fcH
	DB	0f8H
	DB	0ffH
	DB	0f8H
	DB	0fcH
	DB	0f8H
	DB	0ffH
	DB	0f8H
	DB	0fcH
	DB	0f8H
	DB	0ffH
	DB	0f8H
	DB	0fcH
	DB	0f8H
	DB	0ffH
	DB	0f8H
	DB	0fcH
	DB	0f8H
	DB	0ffH
	DB	0f8H
	DB	0fcH
	DB	0f8H
	DB	0ffH
	DB	0f8H
	DB	0fcH
	DB	0f8H
	DB	0ffH
	DB	0f8H
	DB	0fcH
	DB	0f8H
	DB	0ffH
	DB	0f8H
	DB	0fcH
	DB	0f8H
	DB	0ffH
	DB	0f8H
	DB	0fcH
	DB	0f8H
	DB	0ffH
	DB	0f8H
	DB	0fcH
	DB	0f8H
	DB	0ffH
	DB	0f8H
	DB	0fcH
	DB	0f8H
	DB	0ffH
	DB	0f8H
	DB	0fcH
	DB	0f8H
	DB	0ffH
	DB	0f8H
	DB	0fcH
	DB	0f8H
	DB	0ffH
	DB	0f8H
	DB	0fcH
	DB	0f8H
	DB	0ffH
	DB	0f8H
	DB	0fcH
	DB	0f8H
	DB	0ffH
	DB	0f8H
	DB	0fcH
	DB	0f8H
	DB	0ffH
	DB	0f8H
	DB	0fcH
	DB	0f8H
	DB	0ffH
	DB	0f8H
	DB	0fcH
	DB	0f8H
	DB	0ffH
	DB	0f8H
	DB	0fcH
	DB	0f8H
	DB	0ffH
	DB	0f8H
	DB	0fcH
	DB	0f8H
	DB	0ffH
	DB	0f8H
	DB	0f8H
	DB	0f8H
	DB	0ffH
	DB	0f8H
	DB	0f8H
	DB	0f8H
	DB	0ffH
	DB	0f8H
	DB	0f8H
	DB	0f8H
	DB	0ffH
	DB	0f8H
	DB	0fcH
	DB	0f8H
	DB	0ffH
	DB	0f8H
	DB	0f8H
	DB	0f8H
	DB	0ffH
	DB	0f8H
	DB	0fcH
	DB	0f8H
	DB	0ffH
	DB	0f8H
	DB	0fcH
	DB	0f8H
	DB	0ffH
	DB	0f8H
	DB	0fcH
	DB	0f8H
	DB	0ffH
	DB	0f8H
	DB	0fcH
	DB	0f8H
	DB	0ffH
	DB	0f8H
	DB	0fcH
	DB	0f8H
	DB	0ffH
	DB	0f8H
	DB	0fcH
	DB	0f8H
	DB	0ffH
	DB	0f8H
	DB	0fcH
	DB	0f8H
	DB	0ffH
	DB	0f8H
	DB	0fcH
	DB	0f8H
	DB	0ffH
	DB	0f8H
	DB	0fcH
	DB	0f8H
	DB	0ffH
	DB	0f8H
	DB	0fcH
	DB	0f8H
	DB	0ffH
	DB	0f8H
	DB	0fcH
	DB	0f8H
	DB	0ffH
	DB	0f8H
	DB	0fcH
	DB	0f8H
	DB	0ffH
	DB	0f8H
	DB	0fcH
	DB	0f8H
	DB	0ffH
	DB	0f8H
	DB	0fcH
	DB	0f8H
	DB	0ffH
	DB	0f8H
	DB	0fcH
	DB	0f8H
	DB	0ffH
	DB	0f8H
	DB	0fcH
	DB	0f8H
	DB	0ffH
	DB	0f8H
	DB	0fcH
	DB	0f8H
	DB	0ffH
	DB	0f8H
	DB	0fcH
	DB	0f8H
	DB	0ffH
	DB	0f8H
	DB	0fcH
	DB	0f8H
	DB	0ffH
	DB	0f8H
	DB	0fcH
	DB	0f8H
	DB	0ffH
	DB	0f8H
	DB	0f8H
	DB	0f8H
	DB	0ffH
	DB	0f8H
	DB	0fcH
	DB	0f8H
	DB	0ffH
	DB	0f8H
	DB	0fcH
	DB	0f8H
	DB	0ffH
	DB	0f8H
	DB	0fcH
	DB	0f8H
	DB	0ffH
	DB	0f8H
	DB	0fcH
	DB	0f8H
	DB	0ffH
	DB	0f8H
	DB	0fcH
	DB	0f8H
	DB	0ffH
	DB	0f8H
	DB	0fcH
	DB	0f8H
	DB	0ffH
	DB	0f8H
	DB	0fcH
	DB	0f8H
	DB	0ffH
	DB	0f8H
	DB	0fcH
	DB	0f8H
	DB	0ffH
	DB	0f8H
	DB	0fcH
	DB	0f8H
	DB	0ffH
	DB	0f8H
	DB	0f8H
	DB	0f8H
	DB	0ffH
	DB	0f8H
	DB	0fcH
	DB	0f8H
	DB	0ffH
	DB	0f8H
	DB	0fcH
	DB	0f8H
	DB	0ffH
	DB	0f8H
	DB	0fcH
	DB	0f8H
	DB	0ffH
	DB	0f8H
	DB	0fcH
	DB	0f8H
	DB	0ffH
	DB	0f8H
	DB	0fcH
	DB	0f8H
	DB	0ffH
	DB	0f8H
	DB	0fcH
	DB	0f8H
	DB	0ffH
	DB	0f8H
	DB	0fcH
	DB	0f8H
	DB	0ffH
	DB	0f8H
	DB	0fcH
	DB	0f8H
	DB	0ffH
	DB	0f8H
	DB	0fcH
	DB	0f8H
	DB	0ffH
	DB	0f8H
	DB	0fcH
	DB	0f8H
	DB	0ffH
	DB	0f8H
	DB	0fcH
	DB	0f8H
	DB	0ffH
	DB	0f8H
	DB	0fcH
	DB	0f8H
	DB	0ffH
	DB	0f8H
	DB	0fcH
	DB	0f8H
	DB	0ffH
	DB	0f8H
	DB	0fcH
	DB	0f8H
	DB	0ffH
	DB	0f8H
	DB	0fcH
	DB	0f8H
	DB	0ffH
	DB	0f8H
	DB	0fcH
	DB	0f8H
	DB	0ffH
	DB	0f0H
	DB	0f8H
	DB	0f8H
	DB	0ffH
	DB	0f0H
	DB	0f4H
	DB	0f0H
	DB	0ffH
	DB	0f8H
	DB	0f8H
	DB	0f8H
	DB	0ffH
	DB	0f8H
	DB	0fcH
	DB	0f8H
	DB	0ffH
	DB	0f8H
	DB	0fcH
	DB	0f8H
	DB	0ffH
	DB	0f8H
	DB	0fcH
	DB	0f8H
	DB	0ffH
	DB	0f8H
	DB	0fcH
	DB	0f8H
	DB	0ffH
	DB	0f8H
	DB	0fcH
	DB	0f8H
	DB	0ffH
	DB	0f8H
	DB	0fcH
	DB	0f8H
	DB	0ffH
	DB	0f8H
	DB	0fcH
	DB	0f8H
	DB	0ffH
	DB	0f8H
	DB	0fcH
	DB	0f8H
	DB	0ffH
	DB	0f8H
	DB	0fcH
	DB	0f8H
	DB	0ffH
	DB	0f8H
	DB	0fcH
	DB	0f8H
	DB	0ffH
	DB	0f8H
	DB	0fcH
	DB	0f8H
	DB	0ffH
	DB	0f8H
	DB	0f8H
	DB	0f8H
	DB	0ffH
	DB	0f0H
	DB	0f8H
	DB	0f8H
	DB	0ffH
	DB	0f8H
	DB	0f4H
	DB	0f0H
	DB	0ffH
	DB	0f0H
	DB	0f4H
	DB	0f0H
	DB	0ffH
	DB	0f0H
	DB	0f4H
	DB	0f0H
	DB	0ffH
	DB	0f0H
	DB	0f4H
	DB	0f0H
	DB	0ffH
	DB	0f8H
	DB	0f4H
	DB	0f8H
	DB	0ffH
	DB	0f0H
	DB	0f0H
	DB	0f0H
	DB	0ffH
	DB	0f0H
	DB	0f0H
	DB	0f0H
	DB	0ffH
	DB	0f0H
	DB	0f0H
	DB	0f0H
	DB	0ffH
	DB	0f0H
	DB	0f0H
	DB	0f0H
	DB	0ffH
	DB	0f0H
	DB	0f0H
	DB	0f0H
	DB	0ffH
	DB	0f0H
	DB	0ecH
	DB	0e8H
	DB	0ffH
	DB	0f0H
	DB	0f0H
	DB	0f0H
	DB	0ffH
	DB	0e8H
	DB	0ecH
	DB	0e8H
	DB	0ffH
	DB	0e8H
	DB	0ecH
	DB	0e8H
	DB	0ffH
	DB	0f0H
	DB	0ecH
	DB	0f0H
	DB	0ffH
	DB	0e8H
	DB	0ecH
	DB	0e8H
	DB	0ffH
	DB	0f0H
	DB	0ecH
	DB	0f0H
	DB	0ffH
	DB	0f0H
	DB	0f0H
	DB	0f0H
	DB	0ffH
	DB	0e8H
	DB	0ecH
	DB	0e8H
	DB	0ffH
	DB	0f0H
	DB	0ecH
	DB	0f0H
	DB	0ffH
	DB	0f0H
	DB	0f0H
	DB	0f0H
	DB	0ffH
	DB	0e8H
	DB	0f0H
	DB	0f0H
	DB	0ffH
	DB	0f0H
	DB	0ecH
	DB	0e8H
	DB	0ffH
	DB	0f0H
	DB	0f0H
	DB	0f0H
	DB	0ffH
	DB	0e8H
	DB	0ecH
	DB	0e8H
	DB	0ffH
	DB	0e8H
	DB	0ecH
	DB	0f0H
	DB	0ffH
	DB	0f0H
	DB	0f0H
	DB	0f0H
	DB	0ffH
	DB	0f0H
	DB	0f0H
	DB	0f0H
	DB	0ffH
	DB	0f0H
	DB	0f4H
	DB	0f0H
	DB	0ffH
	DB	0f0H
	DB	0f4H
	DB	0f0H
	DB	0ffH
	DB	0f8H
	DB	0f8H
	DB	0f8H
	DB	0ffH
	DB	0f0H
	DB	0f4H
	DB	0f8H
	DB	0ffH
	DB	0f0H
	DB	0f4H
	DB	0f0H
	DB	0ffH
	DB	0f0H
	DB	0f4H
	DB	0f8H
	DB	0ffH
	DB	0f0H
	DB	0f4H
	DB	0f0H
	DB	0ffH
	DB	0f0H
	DB	0f0H
	DB	0f0H
	DB	0ffH
	DB	0f0H
	DB	0f0H
	DB	0f0H
	DB	0ffH
	DB	0f0H
	DB	0f0H
	DB	0f0H
	DB	0ffH
	DB	0f0H
	DB	0f0H
	DB	0f0H
	DB	0ffH
	DB	0f0H
	DB	0f0H
	DB	0f0H
	DB	0ffH
	DB	0f0H
	DB	0f4H
	DB	0f8H
	DB	0ffH
	DB	0f0H
	DB	0f4H
	DB	0f8H
	DB	0ffH
	DB	0f8H
	DB	0f4H
	DB	0f0H
	DB	0ffH
	DB	0f8H
	DB	0f8H
	DB	0f8H
	DB	0ffH
	DB	0f0H
	DB	0f4H
	DB	0f8H
	DB	0ffH
	DB	0f0H
	DB	0f4H
	DB	0f0H
	DB	0ffH
	DB	0f8H
	DB	0f8H
	DB	0f8H
	DB	0ffH
	DB	0f8H
	DB	0f8H
	DB	0f8H
	DB	0ffH
	DB	0f0H
	DB	0f4H
	DB	0f8H
	DB	0ffH
	DB	0f0H
	DB	0f4H
	DB	0f8H
	DB	0ffH
	DB	0f0H
	DB	0f4H
	DB	0f8H
	DB	0ffH
	DB	0f0H
	DB	0f4H
	DB	0f0H
	DB	0ffH
	DB	0f0H
	DB	0f0H
	DB	0f0H
	DB	0ffH
	DB	0f0H
	DB	0f0H
	DB	0f0H
	DB	0ffH
	DB	0f0H
	DB	0ecH
	DB	0f0H
	DB	0ffH
	DB	0f0H
	DB	0ecH
	DB	0f0H
	DB	0ffH
	DB	0f0H
	DB	0ecH
	DB	0e8H
	DB	0ffH
	DB	0e8H
	DB	0ecH
	DB	0f0H
	DB	0ffH
	DB	0f0H
	DB	0ecH
	DB	0e8H
	DB	0ffH
	DB	0e8H
	DB	0ecH
	DB	0f0H
	DB	0ffH
	DB	0e8H
	DB	0ecH
	DB	0f0H
	DB	0ffH
	DB	0e8H
	DB	0ecH
	DB	0e8H
	DB	0ffH
	DB	0e8H
	DB	0e8H
	DB	0e8H
	DB	0ffH
	DB	0e8H
	DB	0e8H
	DB	0e8H
	DB	0ffH
	DB	0e8H
	DB	0e8H
	DB	0e8H
	DB	0ffH
	DB	0e8H
	DB	0e8H
	DB	0e8H
	DB	0ffH
	DB	0e8H
	DB	0e8H
	DB	0e8H
	DB	0ffH
	DB	0e8H
	DB	0e8H
	DB	0e8H
	DB	0ffH
	DB	0e8H
	DB	0e8H
	DB	0e8H
	DB	0ffH
	DB	0e8H
	DB	0ecH
	DB	0e8H
	DB	0ffH
	DB	0e8H
	DB	0ecH
	DB	0e8H
	DB	0ffH
	DB	0f0H
	DB	0ecH
	DB	0f0H
	DB	0ffH
	DB	0f0H
	DB	0ecH
	DB	0f0H
	DB	0ffH
	DB	0f0H
	DB	0ecH
	DB	0e8H
	DB	0ffH
	DB	0f0H
	DB	0ecH
	DB	0f0H
	DB	0ffH
	DB	0f0H
	DB	0ecH
	DB	0f0H
	DB	0ffH
	DB	0f0H
	DB	0f0H
	DB	0f0H
	DB	0ffH
	DB	0f0H
	DB	0f0H
	DB	0f0H
	DB	0ffH
	DB	0f0H
	DB	0ecH
	DB	0f0H
	DB	0ffH
	DB	0f0H
	DB	0ecH
	DB	0e8H
	DB	0ffH
	DB	0e8H
	DB	0e8H
	DB	0e8H
	DB	0ffH
	DB	0e8H
	DB	0e8H
	DB	0e8H
	DB	0ffH
	DB	0e8H
	DB	0e4H
	DB	0e8H
	DB	0ffH
	DB	0e8H
	DB	0e4H
	DB	0e8H
	DB	0ffH
	DB	0e8H
	DB	0e4H
	DB	0e0H
	DB	0ffH
	DB	0e8H
	DB	0e4H
	DB	0e8H
	DB	0ffH
	DB	0e8H
	DB	0e8H
	DB	0e8H
	DB	0ffH
	DB	0e8H
	DB	0e8H
	DB	0e8H
	DB	0ffH
	DB	0e8H
	DB	0e4H
	DB	0e8H
	DB	0ffH
	DB	0e8H
	DB	0e8H
	DB	0e8H
	DB	0ffH
	DB	0f0H
	DB	0ecH
	DB	0e8H
	DB	0ffH
	DB	0f0H
	DB	0ecH
	DB	0e8H
	DB	0ffH
	DB	0f0H
	DB	0ecH
	DB	0f0H
	DB	0ffH
	DB	0f0H
	DB	0f0H
	DB	0f0H
	DB	0ffH
	DB	0f0H
	DB	0f0H
	DB	0f0H
	DB	0ffH
	DB	0f0H
	DB	0f0H
	DB	0f0H
	DB	0ffH
	DB	0f0H
	DB	0ecH
	DB	0f0H
	DB	0ffH
	DB	0f0H
	DB	0ecH
	DB	0f0H
	DB	0ffH
	DB	0f0H
	DB	0ecH
	DB	0e8H
	DB	0ffH
	DB	0e8H
	DB	0ecH
	DB	0e8H
	DB	0ffH
	DB	0e8H
	DB	0e8H
	DB	0e8H
	DB	0ffH
	DB	0e8H
	DB	0e8H
	DB	0e8H
	DB	0ffH
	DB	0e8H
	DB	0ecH
	DB	0e8H
	DB	0ffH
	DB	0f0H
	DB	0ecH
	DB	0f0H
	DB	0ffH
	DB	0f0H
	DB	0ecH
	DB	0e8H
	DB	0ffH
	DB	0e8H
	DB	0ecH
	DB	0e8H
	DB	0ffH
	DB	0f0H
	DB	0ecH
	DB	0e8H
	DB	0ffH
	DB	0e8H
	DB	0ecH
	DB	0f0H
	DB	0ffH
	DB	0f0H
	DB	0ecH
	DB	0f0H
	DB	0ffH
	DB	0e8H
	DB	0ecH
	DB	0e8H
	DB	0ffH
	DB	0e0H
	DB	0e4H
	DB	0e8H
	DB	0ffH
	DB	0e0H
	DB	0e4H
	DB	0e0H
	DB	0ffH
	DB	0e0H
	DB	0e0H
	DB	0e8H
	DB	0ffH
	DB	0e8H
	DB	0e4H
	DB	0e8H
	DB	0ffH
	DB	0e8H
	DB	0e8H
	DB	0e8H
	DB	0ffH
	DB	0e0H
	DB	0dcH
	DB	0d8H
	DB	0ffH
	DB	0e8H
	DB	0d8H
	DB	0d0H
	DB	0ffH
	DB	0e0H
	DB	0d4H
	DB	0c8H
	DB	0ffH
	DB	0d8H
	DB	0d0H
	DB	0c0H
	DB	0ffH
	DB	0d8H
	DB	0d0H
	DB	0c0H
	DB	0ffH
	DB	0e0H
	DB	0d4H
	DB	0c8H
	DB	0ffH
	DB	0e0H
	DB	0d4H
	DB	0c8H
	DB	0ffH
	DB	0e0H
	DB	0d4H
	DB	0c8H
	DB	0ffH
	DB	0e0H
	DB	0d4H
	DB	0d0H
	DB	0ffH
	DB	0e0H
	DB	0d8H
	DB	0d0H
	DB	0ffH
	DB	0e0H
	DB	0d8H
	DB	0c8H
	DB	0ffH
	DB	0e0H
	DB	0d4H
	DB	0c8H
	DB	0ffH
	DB	0d8H
	DB	0d0H
	DB	0c0H
	DB	0ffH
	DB	0d8H
	DB	0d0H
	DB	0c0H
	DB	0ffH
	DB	0d8H
	DB	0d0H
	DB	0c0H
	DB	0ffH
	DB	0e0H
	DB	0d4H
	DB	0c0H
	DB	0ffH
	DB	0e0H
	DB	0d4H
	DB	0c0H
	DB	0ffH
	DB	0d8H
	DB	0d0H
	DB	0c0H
	DB	0ffH
	DB	0d8H
	DB	0d0H
	DB	0b8H
	DB	0ffH
	DB	0d8H
	DB	0ccH
	DB	0c0H
	DB	0ffH
	DB	0d8H
	DB	0ccH
	DB	0c0H
	DB	0ffH
	DB	0d8H
	DB	0d0H
	DB	0c8H
	DB	0ffH
	DB	0e8H
	DB	0e0H
	DB	0e0H
	DB	0ffH
	DB	0f0H
	DB	0e8H
	DB	0e8H
	DB	0ffH
	DB	0f0H
	DB	0e8H
	DB	0f0H
	DB	0ffH
	DB	0f0H
	DB	0ecH
	DB	0f8H
	DB	0ffH
	DB	0f0H
	DB	0ecH
	DB	0f0H
	DB	0ffH
	DB	0f0H
	DB	0ecH
	DB	0e8H
	DB	0ffH
	DB	0e8H
	DB	0e8H
	DB	0e8H
	DB	0ffH
	DB	0e8H
	DB	0e8H
	DB	0e8H
	DB	0ffH
	DB	0e0H
	DB	0e4H
	DB	0e0H
	DB	0ffH
	DB	0e0H
	DB	0e4H
	DB	0e0H
	DB	0ffH
	DB	0e8H
	DB	0e8H
	DB	0e8H
	DB	0ffH
	DB	0f0H
	DB	0ecH
	DB	0f0H
	DB	0ffH
	DB	0e8H
	DB	0e8H
	DB	0e8H
	DB	0ffH
	DB	0e8H
	DB	0e8H
	DB	0e8H
	DB	0ffH
	DB	0f0H
	DB	0ecH
	DB	0f0H
	DB	0ffH
	DB	0f0H
	DB	0ecH
	DB	0f0H
	DB	0ffH
	DB	0e8H
	DB	0ecH
	DB	0f0H
	DB	0ffH
	DB	0e8H
	DB	0ecH
	DB	0f0H
	DB	0ffH
	DB	0e8H
	DB	0ecH
	DB	0f0H
	DB	0ffH
	DB	0e8H
	DB	0ecH
	DB	0f0H
	DB	0ffH
	DB	0e8H
	DB	0ecH
	DB	0f0H
	DB	0ffH
	DB	0e8H
	DB	0f0H
	DB	0f8H
	DB	0ffH
	DB	0f0H
	DB	0f0H
	DB	0f0H
	DB	0ffH
	DB	0f0H
	DB	0e8H
	DB	0e8H
	DB	0ffH
	DB	0e8H
	DB	0e8H
	DB	0e0H
	DB	0ffH
	DB	0e0H
	DB	0dcH
	DB	0d8H
	DB	0ffH
	DB	0d8H
	DB	0d4H
	DB	0d0H
	DB	0ffH
	DB	0e0H
	DB	0d4H
	DB	0c8H
	DB	0ffH
	DB	0d8H
	DB	0d4H
	DB	0c0H
	DB	0ffH
	DB	0d8H
	DB	0d0H
	DB	0c0H
	DB	0ffH
	DB	0d8H
	DB	0d4H
	DB	0c8H
	DB	0ffH
	DB	0d8H
	DB	0d4H
	DB	0c8H
	DB	0ffH
	DB	0e0H
	DB	0d4H
	DB	0c8H
	DB	0ffH
	DB	0e0H
	DB	0d4H
	DB	0c8H
	DB	0ffH
	DB	0d8H
	DB	0d4H
	DB	0c8H
	DB	0ffH
	DB	0d8H
	DB	0d4H
	DB	0c8H
	DB	0ffH
	DB	0d8H
	DB	0d0H
	DB	0c8H
	DB	0ffH
	DB	0d8H
	DB	0d8H
	DB	0d0H
	DB	0ffH
	DB	0e0H
	DB	0dcH
	DB	0d8H
	DB	0ffH
	DB	0e0H
	DB	0e0H
	DB	0e0H
	DB	0ffH
	DB	0e0H
	DB	0e0H
	DB	0e8H
	DB	0ffH
	DB	0e0H
	DB	0e8H
	DB	0f0H
	DB	0ffH
	DB	0e8H
	DB	0e8H
	DB	0f0H
	DB	0ffH
	DB	0e8H
	DB	0ecH
	DB	0f0H
	DB	0ffH
	DB	0f0H
	DB	0f0H
	DB	0f0H
	DB	0ffH
	DB	0f0H
	DB	0f0H
	DB	0f0H
	DB	0ffH
	DB	0f0H
	DB	0f0H
	DB	0f0H
	DB	0ffH
	DB	0e8H
	DB	0ecH
	DB	0f0H
	DB	0ffH
	DB	0e8H
	DB	0ecH
	DB	0f0H
	DB	0ffH
	DB	0e8H
	DB	0ecH
	DB	0f0H
	DB	0ffH
	DB	0e8H
	DB	0e8H
	DB	0e8H
	DB	0ffH
	DB	0e8H
	DB	0ecH
	DB	0e8H
	DB	0ffH
	DB	0e8H
	DB	0ecH
	DB	0e8H
	DB	0ffH
	DB	0e8H
	DB	0e8H
	DB	0e8H
	DB	0ffH
	DB	0e8H
	DB	0e8H
	DB	0e8H
	DB	0ffH
	DB	0e8H
	DB	0ecH
	DB	0e8H
	DB	0ffH
	DB	0e8H
	DB	0e8H
	DB	0e8H
	DB	0ffH
	DB	0e8H
	DB	0e8H
	DB	0e8H
	DB	0ffH
	DB	0e8H
	DB	0e4H
	DB	0e8H
	DB	0ffH
	DB	0e8H
	DB	0e4H
	DB	0e0H
	DB	0ffH
	DB	0e8H
	DB	0e4H
	DB	0e0H
	DB	0ffH
	DB	0e0H
	DB	0e0H
	DB	0e0H
	DB	0ffH
	DB	0e0H
	DB	0e0H
	DB	0e0H
	DB	0ffH
	DB	0e0H
	DB	0e0H
	DB	0e0H
	DB	0ffH
	DB	0e0H
	DB	0dcH
	DB	0e0H
	DB	0ffH
	DB	0e0H
	DB	0e0H
	DB	0e0H
	DB	0ffH
	DB	0e8H
	DB	0e4H
	DB	0e0H
	DB	0ffH
	DB	0e8H
	DB	0e4H
	DB	0e8H
	DB	0ffH
	DB	0e8H
	DB	0e4H
	DB	0e0H
	DB	0ffH
	DB	0e0H
	DB	0e4H
	DB	0e0H
	DB	0ffH
	DB	0e0H
	DB	0e4H
	DB	0e0H
	DB	0ffH
	DB	0e0H
	DB	0e0H
	DB	0e0H
	DB	0ffH
	DB	0e0H
	DB	0e0H
	DB	0e0H
	DB	0ffH
	DB	0e0H
	DB	0e4H
	DB	0e0H
	DB	0ffH
	DB	0e0H
	DB	0e0H
	DB	0e0H
	DB	0ffH
	DB	0e8H
	DB	0e4H
	DB	0e8H
	DB	0ffH
	DB	0e8H
	DB	0e8H
	DB	0e8H
	DB	0ffH
	DB	0e8H
	DB	0e8H
	DB	0e8H
	DB	0ffH
	DB	0e8H
	DB	0ecH
	DB	0e8H
	DB	0ffH
	DB	0e8H
	DB	0e8H
	DB	0e8H
	DB	0ffH
	DB	0e8H
	DB	0e8H
	DB	0e8H
	DB	0ffH
	DB	0e8H
	DB	0e8H
	DB	0e8H
	DB	0ffH
	DB	0e8H
	DB	0ecH
	DB	0e8H
	DB	0ffH
	DB	0e8H
	DB	0ecH
	DB	0f0H
	DB	0ffH
	DB	0e8H
	DB	0ecH
	DB	0f0H
	DB	0ffH
	DB	0e8H
	DB	0ecH
	DB	0e8H
	DB	0ffH
	DB	0e8H
	DB	0ecH
	DB	0f0H
	DB	0ffH
	DB	0f0H
	DB	0f0H
	DB	0f0H
	DB	0ffH
	DB	0f0H
	DB	0f0H
	DB	0f0H
	DB	0ffH
	DB	0e8H
	DB	0f0H
	DB	0f0H
	DB	0ffH
	DB	0f0H
	DB	0f0H
	DB	0f0H
	DB	0ffH
	DB	0f0H
	DB	0f0H
	DB	0f0H
	DB	0ffH
	DB	0e8H
	DB	0f0H
	DB	0f0H
	DB	0ffH
	DB	0f0H
	DB	0f0H
	DB	0f0H
	DB	0ffH
	DB	0f0H
	DB	0f0H
	DB	0f0H
	DB	0ffH
	DB	0f0H
	DB	0f0H
	DB	0f0H
	DB	0ffH
	DB	0e8H
	DB	0f0H
	DB	0f0H
	DB	0ffH
	DB	0f0H
	DB	0f0H
	DB	0f0H
	DB	0ffH
	DB	0f0H
	DB	0ecH
	DB	0f0H
	DB	0ffH
	DB	0e8H
	DB	0ecH
	DB	0f0H
	DB	0ffH
	DB	0e8H
	DB	0ecH
	DB	0e8H
	DB	0ffH
	DB	0e8H
	DB	0ecH
	DB	0e8H
	DB	0ffH
	DB	0e8H
	DB	0e8H
	DB	0e8H
	DB	0ffH
	DB	0e8H
	DB	0e8H
	DB	0e8H
	DB	0ffH
	DB	0e8H
	DB	0e8H
	DB	0e8H
	DB	0ffH
	DB	0e0H
	DB	0e8H
	DB	0e8H
	DB	0ffH
	DB	0e0H
	DB	0e4H
	DB	0e8H
	DB	0ffH
	DB	0e0H
	DB	0e0H
	DB	0e0H
	DB	0ffH
	DB	0e0H
	DB	0e0H
	DB	0e0H
	DB	0ffH
	DB	0e0H
	DB	0e0H
	DB	0e0H
	DB	0ffH
	DB	0e0H
	DB	0e0H
	DB	0e0H
	DB	0ffH
	DB	0e0H
	DB	0e0H
	DB	0e0H
	DB	0ffH
	DB	0e0H
	DB	0e0H
	DB	0e0H
	DB	0ffH
	DB	0e8H
	DB	0e0H
	DB	0e0H
	DB	0ffH
	DB	0e0H
	DB	0dcH
	DB	0e0H
	DB	0ffH
	DB	0e0H
	DB	0d8H
	DB	0d8H
	DB	0ffH
	DB	0e0H
	DB	0d8H
	DB	0d8H
	DB	0ffH
	DB	0d8H
	DB	0d0H
	DB	0c8H
	DB	0ffH
	DB	0d8H
	DB	0ccH
	DB	0c0H
	DB	0ffH
	DB	0d8H
	DB	0ccH
	DB	0c0H
	DB	0ffH
	DB	0d8H
	DB	0ccH
	DB	0c0H
	DB	0ffH
	DB	0d8H
	DB	0ccH
	DB	0c0H
	DB	0ffH
	DB	0d0H
	DB	0ccH
	DB	0c0H
	DB	0ffH
	DB	0d8H
	DB	0c8H
	DB	0b8H
	DB	0ffH
	DB	0d8H
	DB	0c8H
	DB	0b8H
	DB	0ffH
	DB	0d8H
	DB	0c8H
	DB	0b8H
	DB	0ffH
	DB	0d0H
	DB	0c8H
	DB	0b8H
	DB	0ffH
	DB	0d8H
	DB	0c8H
	DB	0b8H
	DB	0ffH
	DB	0d0H
	DB	0c8H
	DB	0b0H
	DB	0ffH
	DB	0d0H
	DB	0c8H
	DB	0b8H
	DB	0ffH
	DB	0d8H
	DB	0c8H
	DB	0b8H
	DB	0ffH
	DB	0d8H
	DB	0c8H
	DB	0b0H
	DB	0ffH
	DB	0d0H
	DB	0c4H
	DB	0b0H
	DB	0ffH
	DB	0d0H
	DB	0c4H
	DB	0b8H
	DB	0ffH
	DB	0d8H
	DB	0c8H
	DB	0b0H
	DB	0ffH
	DB	0d0H
	DB	0c4H
	DB	0b0H
	DB	0ffH
	DB	0d0H
	DB	0c4H
	DB	0b0H
	DB	0ffH
	DB	0d8H
	DB	0c8H
	DB	0b0H
	DB	0ffH
	DB	0d8H
	DB	0c8H
	DB	0b0H
	DB	0ffH
	DB	0d0H
	DB	0c4H
	DB	0a8H
	DB	0ffH
	DB	0d0H
	DB	0c4H
	DB	0b0H
	DB	0ffH
	DB	0d0H
	DB	0c4H
	DB	0b0H
	DB	0ffH
	DB	0d0H
	DB	0c4H
	DB	0b0H
	DB	0ffH
	DB	0d8H
	DB	0c8H
	DB	0b8H
	DB	0ffH
	DB	0d8H
	DB	0ccH
	DB	0c0H
	DB	0ffH
	DB	0d8H
	DB	0ccH
	DB	0c8H
	DB	0ffH
	DB	0e0H
	DB	0d0H
	DB	0c8H
	DB	0ffH
	DB	0d8H
	DB	0d0H
	DB	0c0H
	DB	0ffH
	DB	0d8H
	DB	0ccH
	DB	0b8H
	DB	0ffH
	DB	0d0H
	DB	0c8H
	DB	0b8H
	DB	0ffH
	DB	0d0H
	DB	0c8H
	DB	0b8H
	DB	0ffH
	DB	0d0H
	DB	0c8H
	DB	0b8H
	DB	0ffH
	DB	0d0H
	DB	0c8H
	DB	0b8H
	DB	0ffH
	DB	0d0H
	DB	0c8H
	DB	0b8H
	DB	0ffH
	DB	0d0H
	DB	0c8H
	DB	0b8H
	DB	0ffH
	DB	0d8H
	DB	0c4H
	DB	0b0H
	DB	0ffH
	DB	0d8H
	DB	0c4H
	DB	0b0H
	DB	0ffH
	DB	0d8H
	DB	0c8H
	DB	0b8H
	DB	0ffH
	DB	0d0H
	DB	0c8H
	DB	0b8H
	DB	0ffH
	DB	0d0H
	DB	0c8H
	DB	0b8H
	DB	0ffH
	DB	0d8H
	DB	0d0H
	DB	0c0H
	DB	0ffH
	DB	0d8H
	DB	0d0H
	DB	0c0H
	DB	0ffH
	DB	0d0H
	DB	0ccH
	DB	0b8H
	DB	0ffH
	DB	0d8H
	DB	0ccH
	DB	0b8H
	DB	0ffH
	DB	0d8H
	DB	0ccH
	DB	0c0H
	DB	0ffH
	DB	0d8H
	DB	0d0H
	DB	0c8H
	DB	0ffH
	DB	0d8H
	DB	0d0H
	DB	0c8H
	DB	0ffH
	DB	0d8H
	DB	0d4H
	DB	0d8H
	DB	0ffH
	DB	0d8H
	DB	0d8H
	DB	0d8H
	DB	0ffH
	DB	0d8H
	DB	0d4H
	DB	0d8H
	DB	0ffH
	DB	0d8H
	DB	0dcH
	DB	0d8H
	DB	0ffH
	DB	0e0H
	DB	0e0H
	DB	0e0H
	DB	0ffH
	DB	0e0H
	DB	0e0H
	DB	0e8H
	DB	0ffH
	DB	0e8H
	DB	0e4H
	DB	0e0H
	DB	0ffH
	DB	0e0H
	DB	0e0H
	DB	0e0H
	DB	0ffH
	DB	0e0H
	DB	0dcH
	DB	0e0H
	DB	0ffH
	DB	0e0H
	DB	0dcH
	DB	0e0H
	DB	0ffH
	DB	0e0H
	DB	0e0H
	DB	0e0H
	DB	0ffH
	DB	0e0H
	DB	0e0H
	DB	0e0H
	DB	0ffH
	DB	0e0H
	DB	0e0H
	DB	0e0H
	DB	0ffH
	DB	0e0H
	DB	0dcH
	DB	0e0H
	DB	0ffH
	DB	0e0H
	DB	0dcH
	DB	0e0H
	DB	0ffH
	DB	0e0H
	DB	0e0H
	DB	0e0H
	DB	0ffH
	DB	0e0H
	DB	0e4H
	DB	0e0H
	DB	0ffH
	DB	0e0H
	DB	0e0H
	DB	0e0H
	DB	0ffH
	DB	0e0H
	DB	0e0H
	DB	0e0H
	DB	0ffH
	DB	0d8H
	DB	0e0H
	DB	0e0H
	DB	0ffH
	DB	0e0H
	DB	0e4H
	DB	0e0H
	DB	0ffH
	DB	0e8H
	DB	0e8H
	DB	0e8H
	DB	0ffH
	DB	0e8H
	DB	0ecH
	DB	0e8H
	DB	0ffH
	DB	0e8H
	DB	0ecH
	DB	0f0H
	DB	0ffH
	DB	0e8H
	DB	0e8H
	DB	0e8H
	DB	0ffH
	DB	0e0H
	DB	0e4H
	DB	0e8H
	DB	0ffH
	DB	0e0H
	DB	0e4H
	DB	0e8H
	DB	0ffH
	DB	0e8H
	DB	0ecH
	DB	0f0H
	DB	0ffH
	DB	0e8H
	DB	0f0H
	DB	0f0H
	DB	0ffH
	DB	0e8H
	DB	0ecH
	DB	0f0H
	DB	0ffH
	DB	0e8H
	DB	0ecH
	DB	0e8H
	DB	0ffH
	DB	0e8H
	DB	0f0H
	DB	0f0H
	DB	0ffH
	DB	0e8H
	DB	0ecH
	DB	0e8H
	DB	0ffH
	DB	0e8H
	DB	0e8H
	DB	0e8H
	DB	0ffH
	DB	0e8H
	DB	0ecH
	DB	0f0H
	DB	0ffH
	DB	0e8H
	DB	0f0H
	DB	0f0H
	DB	0ffH
	DB	0e8H
	DB	0f0H
	DB	0f0H
	DB	0ffH
	DB	0e8H
	DB	0ecH
	DB	0e8H
	DB	0ffH
	DB	0e0H
	DB	0e8H
	DB	0e8H
	DB	0ffH
	DB	0d8H
	DB	0dcH
	DB	0d8H
	DB	0ffH
	DB	0d8H
	DB	0d4H
	DB	0d0H
	DB	0ffH
	DB	0d8H
	DB	0d4H
	DB	0d8H
	DB	0ffH
	DB	0e0H
	DB	0d4H
	DB	0d8H
	DB	0ffH
	DB	0e0H
	DB	0d8H
	DB	0d8H
	DB	0ffH
	DB	0e0H
	DB	0dcH
	DB	0d8H
	DB	0ffH
	DB	0e0H
	DB	0e0H
	DB	0d8H
	DB	0ffH
	DB	0e0H
	DB	0e4H
	DB	0e8H
	DB	0ffH
	DB	0e8H
	DB	0e8H
	DB	0f0H
	DB	0ffH
	DB	0e8H
	DB	0e8H
	DB	0f0H
	DB	0ffH
	DB	0e8H
	DB	0ecH
	DB	0f0H
	DB	0ffH
	DB	0e8H
	DB	0f0H
	DB	0f0H
	DB	0ffH
	DB	0e8H
	DB	0ecH
	DB	0f0H
	DB	0ffH
	DB	0e8H
	DB	0ecH
	DB	0f0H
	DB	0ffH
	DB	0e8H
	DB	0ecH
	DB	0f0H
	DB	0ffH
	DB	0e8H
	DB	0ecH
	DB	0e8H
	DB	0ffH
	DB	0e8H
	DB	0ecH
	DB	0e8H
	DB	0ffH
	DB	0e8H
	DB	0ecH
	DB	0f0H
	DB	0ffH
	DB	0e8H
	DB	0ecH
	DB	0f0H
	DB	0ffH
	DB	0e8H
	DB	0ecH
	DB	0e8H
	DB	0ffH
	DB	0e8H
	DB	0ecH
	DB	0f0H
	DB	0ffH
	DB	0e8H
	DB	0e8H
	DB	0e8H
	DB	0ffH
	DB	0e8H
	DB	0e8H
	DB	0e8H
	DB	0ffH
	DB	0e8H
	DB	0e8H
	DB	0e8H
	DB	0ffH
	DB	0e0H
	DB	0e8H
	DB	0e8H
	DB	0ffH
	DB	0e8H
	DB	0e8H
	DB	0e8H
	DB	0ffH
	DB	0e8H
	DB	0e8H
	DB	0e8H
	DB	0ffH
	DB	0e0H
	DB	0e8H
	DB	0e8H
	DB	0ffH
	DB	0e0H
	DB	0e8H
	DB	0e8H
	DB	0ffH
	DB	0e8H
	DB	0e8H
	DB	0e8H
	DB	0ffH
	DB	0e8H
	DB	0e4H
	DB	0e8H
	DB	0ffH
	DB	0e0H
	DB	0e4H
	DB	0e0H
	DB	0ffH
	DB	0e0H
	DB	0e4H
	DB	0e8H
	DB	0ffH
	DB	0e0H
	DB	0e4H
	DB	0e8H
	DB	0ffH
	DB	0e0H
	DB	0e0H
	DB	0e0H
	DB	0ffH
	DB	0e0H
	DB	0e0H
	DB	0e0H
	DB	0ffH
	DB	0e0H
	DB	0e0H
	DB	0e0H
	DB	0ffH
	DB	0e0H
	DB	0e0H
	DB	0e0H
	DB	0ffH
	DB	0f8H
	DB	0fcH
	DB	0f8H
	DB	0ffH
	DB	0f8H
	DB	0fcH
	DB	0f8H
	DB	0ffH
	DB	0f8H
	DB	0fcH
	DB	0f8H
	DB	0ffH
	DB	0f8H
	DB	0fcH
	DB	0f8H
	DB	0ffH
	DB	0f8H
	DB	0fcH
	DB	0f8H
	DB	0ffH
	DB	0f8H
	DB	0fcH
	DB	0f8H
	DB	0ffH
	DB	0f8H
	DB	0fcH
	DB	0f8H
	DB	0ffH
	DB	0f8H
	DB	0fcH
	DB	0f8H
	DB	0ffH
	DB	0f8H
	DB	0fcH
	DB	0f8H
	DB	0ffH
	DB	0f8H
	DB	0fcH
	DB	0f8H
	DB	0ffH
	DB	0f8H
	DB	0fcH
	DB	0f8H
	DB	0ffH
	DB	0f8H
	DB	0fcH
	DB	0f8H
	DB	0ffH
	DB	0f8H
	DB	0fcH
	DB	0f8H
	DB	0ffH
	DB	0f8H
	DB	0fcH
	DB	0f8H
	DB	0ffH
	DB	0f8H
	DB	0fcH
	DB	0f8H
	DB	0ffH
	DB	0f8H
	DB	0fcH
	DB	0f8H
	DB	0ffH
	DB	0f8H
	DB	0fcH
	DB	0f8H
	DB	0ffH
	DB	0f8H
	DB	0fcH
	DB	0f8H
	DB	0ffH
	DB	0f8H
	DB	0fcH
	DB	0f8H
	DB	0ffH
	DB	0f8H
	DB	0fcH
	DB	0f8H
	DB	0ffH
	DB	0f8H
	DB	0fcH
	DB	0f8H
	DB	0ffH
	DB	0f8H
	DB	0fcH
	DB	0f8H
	DB	0ffH
	DB	0f8H
	DB	0fcH
	DB	0f8H
	DB	0ffH
	DB	0f8H
	DB	0fcH
	DB	0f8H
	DB	0ffH
	DB	0f8H
	DB	0fcH
	DB	0f8H
	DB	0ffH
	DB	0f8H
	DB	0fcH
	DB	0f8H
	DB	0ffH
	DB	0f8H
	DB	0fcH
	DB	0f8H
	DB	0ffH
	DB	0f8H
	DB	0fcH
	DB	0f8H
	DB	0ffH
	DB	0f8H
	DB	0fcH
	DB	0f8H
	DB	0ffH
	DB	0f8H
	DB	0fcH
	DB	0f8H
	DB	0ffH
	DB	0f8H
	DB	0fcH
	DB	0f8H
	DB	0ffH
	DB	0f8H
	DB	0fcH
	DB	0f8H
	DB	0ffH
	DB	0f8H
	DB	0f8H
	DB	0f8H
	DB	0ffH
	DB	0f0H
	DB	0f8H
	DB	0f8H
	DB	0ffH
	DB	0f8H
	DB	0f8H
	DB	0f8H
	DB	0ffH
	DB	0f8H
	DB	0fcH
	DB	0f8H
	DB	0ffH
	DB	0f8H
	DB	0fcH
	DB	0f8H
	DB	0ffH
	DB	0f8H
	DB	0fcH
	DB	0f8H
	DB	0ffH
	DB	0f8H
	DB	0fcH
	DB	0f8H
	DB	0ffH
	DB	0f8H
	DB	0fcH
	DB	0f8H
	DB	0ffH
	DB	0f8H
	DB	0fcH
	DB	0f8H
	DB	0ffH
	DB	0f8H
	DB	0fcH
	DB	0f8H
	DB	0ffH
	DB	0f8H
	DB	0fcH
	DB	0f8H
	DB	0ffH
	DB	0f8H
	DB	0fcH
	DB	0f8H
	DB	0ffH
	DB	0f8H
	DB	0fcH
	DB	0f8H
	DB	0ffH
	DB	0f8H
	DB	0fcH
	DB	0f8H
	DB	0ffH
	DB	0f8H
	DB	0fcH
	DB	0f8H
	DB	0ffH
	DB	0f8H
	DB	0fcH
	DB	0f8H
	DB	0ffH
	DB	0f8H
	DB	0fcH
	DB	0f8H
	DB	0ffH
	DB	0f8H
	DB	0fcH
	DB	0f8H
	DB	0ffH
	DB	0f8H
	DB	0fcH
	DB	0f8H
	DB	0ffH
	DB	0f8H
	DB	0fcH
	DB	0f8H
	DB	0ffH
	DB	0f8H
	DB	0fcH
	DB	0f8H
	DB	0ffH
	DB	0f8H
	DB	0f8H
	DB	0f8H
	DB	0ffH
	DB	0f8H
	DB	0fcH
	DB	0f8H
	DB	0ffH
	DB	0f8H
	DB	0fcH
	DB	0f8H
	DB	0ffH
	DB	0f8H
	DB	0fcH
	DB	0f8H
	DB	0ffH
	DB	0f8H
	DB	0f8H
	DB	0f8H
	DB	0ffH
	DB	0f8H
	DB	0fcH
	DB	0f8H
	DB	0ffH
	DB	0f8H
	DB	0f8H
	DB	0f8H
	DB	0ffH
	DB	0f8H
	DB	0fcH
	DB	0f8H
	DB	0ffH
	DB	0f8H
	DB	0fcH
	DB	0f8H
	DB	0ffH
	DB	0f8H
	DB	0f8H
	DB	0f8H
	DB	0ffH
	DB	0f8H
	DB	0fcH
	DB	0f8H
	DB	0ffH
	DB	0f8H
	DB	0fcH
	DB	0f8H
	DB	0ffH
	DB	0f8H
	DB	0f8H
	DB	0f8H
	DB	0ffH
	DB	0f8H
	DB	0fcH
	DB	0f8H
	DB	0ffH
	DB	0f8H
	DB	0fcH
	DB	0f8H
	DB	0ffH
	DB	0f8H
	DB	0fcH
	DB	0f8H
	DB	0ffH
	DB	0f8H
	DB	0fcH
	DB	0f8H
	DB	0ffH
	DB	0f8H
	DB	0fcH
	DB	0f8H
	DB	0ffH
	DB	0f8H
	DB	0fcH
	DB	0f8H
	DB	0ffH
	DB	0f8H
	DB	0fcH
	DB	0f8H
	DB	0ffH
	DB	0f8H
	DB	0fcH
	DB	0f8H
	DB	0ffH
	DB	0f8H
	DB	0fcH
	DB	0f8H
	DB	0ffH
	DB	0f8H
	DB	0fcH
	DB	0f8H
	DB	0ffH
	DB	0f8H
	DB	0fcH
	DB	0f8H
	DB	0ffH
	DB	0f8H
	DB	0fcH
	DB	0f8H
	DB	0ffH
	DB	0f8H
	DB	0fcH
	DB	0f8H
	DB	0ffH
	DB	0f8H
	DB	0fcH
	DB	0f8H
	DB	0ffH
	DB	0f8H
	DB	0fcH
	DB	0f8H
	DB	0ffH
	DB	0f8H
	DB	0fcH
	DB	0f8H
	DB	0ffH
	DB	0f8H
	DB	0fcH
	DB	0f8H
	DB	0ffH
	DB	0f8H
	DB	0fcH
	DB	0f8H
	DB	0ffH
	DB	0f8H
	DB	0f8H
	DB	0f8H
	DB	0ffH
	DB	0f8H
	DB	0f8H
	DB	0f8H
	DB	0ffH
	DB	0f8H
	DB	0fcH
	DB	0f8H
	DB	0ffH
	DB	0f8H
	DB	0fcH
	DB	0f8H
	DB	0ffH
	DB	0f8H
	DB	0fcH
	DB	0f8H
	DB	0ffH
	DB	0f8H
	DB	0fcH
	DB	0f8H
	DB	0ffH
	DB	0f8H
	DB	0fcH
	DB	0f8H
	DB	0ffH
	DB	0f8H
	DB	0fcH
	DB	0f8H
	DB	0ffH
	DB	0f8H
	DB	0fcH
	DB	0f8H
	DB	0ffH
	DB	0f8H
	DB	0fcH
	DB	0f8H
	DB	0ffH
	DB	0f8H
	DB	0fcH
	DB	0f8H
	DB	0ffH
	DB	0f8H
	DB	0fcH
	DB	0f8H
	DB	0ffH
	DB	0f8H
	DB	0fcH
	DB	0f8H
	DB	0ffH
	DB	0f8H
	DB	0f8H
	DB	0f8H
	DB	0ffH
	DB	0f8H
	DB	0f8H
	DB	0f8H
	DB	0ffH
	DB	0f0H
	DB	0f4H
	DB	0f8H
	DB	0ffH
	DB	0f8H
	DB	0f4H
	DB	0f8H
	DB	0ffH
	DB	0f0H
	DB	0f4H
	DB	0f8H
	DB	0ffH
	DB	0f0H
	DB	0f4H
	DB	0f0H
	DB	0ffH
	DB	0f0H
	DB	0f0H
	DB	0f0H
	DB	0ffH
	DB	0f0H
	DB	0f4H
	DB	0f0H
	DB	0ffH
	DB	0f0H
	DB	0f0H
	DB	0f0H
	DB	0ffH
	DB	0f0H
	DB	0f0H
	DB	0f0H
	DB	0ffH
	DB	0f0H
	DB	0f0H
	DB	0f0H
	DB	0ffH
	DB	0f0H
	DB	0f0H
	DB	0f0H
	DB	0ffH
	DB	0e8H
	DB	0ecH
	DB	0f0H
	DB	0ffH
	DB	0e8H
	DB	0ecH
	DB	0f0H
	DB	0ffH
	DB	0f0H
	DB	0ecH
	DB	0f0H
	DB	0ffH
	DB	0f0H
	DB	0ecH
	DB	0f0H
	DB	0ffH
	DB	0f0H
	DB	0ecH
	DB	0f0H
	DB	0ffH
	DB	0e8H
	DB	0ecH
	DB	0e8H
	DB	0ffH
	DB	0e8H
	DB	0ecH
	DB	0e8H
	DB	0ffH
	DB	0f0H
	DB	0ecH
	DB	0f0H
	DB	0ffH
	DB	0f0H
	DB	0f0H
	DB	0f0H
	DB	0ffH
	DB	0e8H
	DB	0ecH
	DB	0e8H
	DB	0ffH
	DB	0f0H
	DB	0f0H
	DB	0f0H
	DB	0ffH
	DB	0e8H
	DB	0ecH
	DB	0f0H
	DB	0ffH
	DB	0f0H
	DB	0f0H
	DB	0f0H
	DB	0ffH
	DB	0f0H
	DB	0ecH
	DB	0f0H
	DB	0ffH
	DB	0e8H
	DB	0ecH
	DB	0f0H
	DB	0ffH
	DB	0f0H
	DB	0ecH
	DB	0e8H
	DB	0ffH
	DB	0e8H
	DB	0ecH
	DB	0f0H
	DB	0ffH
	DB	0f0H
	DB	0f0H
	DB	0f0H
	DB	0ffH
	DB	0f0H
	DB	0f0H
	DB	0f0H
	DB	0ffH
	DB	0f0H
	DB	0f0H
	DB	0f0H
	DB	0ffH
	DB	0f0H
	DB	0f4H
	DB	0f8H
	DB	0ffH
	DB	0f0H
	DB	0f4H
	DB	0f8H
	DB	0ffH
	DB	0f0H
	DB	0f4H
	DB	0f0H
	DB	0ffH
	DB	0f0H
	DB	0f4H
	DB	0f8H
	DB	0ffH
	DB	0f0H
	DB	0f4H
	DB	0f8H
	DB	0ffH
	DB	0f0H
	DB	0f4H
	DB	0f0H
	DB	0ffH
	DB	0f0H
	DB	0f4H
	DB	0f8H
	DB	0ffH
	DB	0f0H
	DB	0f4H
	DB	0f8H
	DB	0ffH
	DB	0f0H
	DB	0f0H
	DB	0f0H
	DB	0ffH
	DB	0f0H
	DB	0f0H
	DB	0f0H
	DB	0ffH
	DB	0f0H
	DB	0f4H
	DB	0f0H
	DB	0ffH
	DB	0f0H
	DB	0f4H
	DB	0f0H
	DB	0ffH
	DB	0f0H
	DB	0f4H
	DB	0f8H
	DB	0ffH
	DB	0f0H
	DB	0f4H
	DB	0f0H
	DB	0ffH
	DB	0f0H
	DB	0f4H
	DB	0f8H
	DB	0ffH
	DB	0f8H
	DB	0f8H
	DB	0f8H
	DB	0ffH
	DB	0f8H
	DB	0f8H
	DB	0f8H
	DB	0ffH
	DB	0f8H
	DB	0f8H
	DB	0f8H
	DB	0ffH
	DB	0f0H
	DB	0f4H
	DB	0f8H
	DB	0ffH
	DB	0f0H
	DB	0f4H
	DB	0f8H
	DB	0ffH
	DB	0f0H
	DB	0f4H
	DB	0f8H
	DB	0ffH
	DB	0f0H
	DB	0f4H
	DB	0f8H
	DB	0ffH
	DB	0f0H
	DB	0f4H
	DB	0f0H
	DB	0ffH
	DB	0f0H
	DB	0f0H
	DB	0f0H
	DB	0ffH
	DB	0e8H
	DB	0f0H
	DB	0f0H
	DB	0ffH
	DB	0e8H
	DB	0ecH
	DB	0f0H
	DB	0ffH
	DB	0f0H
	DB	0ecH
	DB	0f0H
	DB	0ffH
	DB	0e8H
	DB	0ecH
	DB	0e8H
	DB	0ffH
	DB	0e8H
	DB	0ecH
	DB	0f0H
	DB	0ffH
	DB	0f0H
	DB	0e8H
	DB	0e8H
	DB	0ffH
	DB	0f0H
	DB	0ecH
	DB	0e8H
	DB	0ffH
	DB	0e8H
	DB	0e8H
	DB	0e8H
	DB	0ffH
	DB	0e8H
	DB	0ecH
	DB	0e8H
	DB	0ffH
	DB	0e8H
	DB	0e8H
	DB	0e8H
	DB	0ffH
	DB	0e8H
	DB	0ecH
	DB	0e8H
	DB	0ffH
	DB	0e8H
	DB	0ecH
	DB	0e8H
	DB	0ffH
	DB	0e8H
	DB	0e8H
	DB	0e8H
	DB	0ffH
	DB	0e8H
	DB	0ecH
	DB	0e8H
	DB	0ffH
	DB	0e8H
	DB	0ecH
	DB	0f0H
	DB	0ffH
	DB	0e8H
	DB	0ecH
	DB	0f0H
	DB	0ffH
	DB	0e8H
	DB	0ecH
	DB	0e8H
	DB	0ffH
	DB	0e8H
	DB	0ecH
	DB	0f0H
	DB	0ffH
	DB	0f0H
	DB	0ecH
	DB	0f0H
	DB	0ffH
	DB	0e8H
	DB	0f0H
	DB	0f0H
	DB	0ffH
	DB	0f0H
	DB	0f0H
	DB	0f0H
	DB	0ffH
	DB	0f0H
	DB	0f0H
	DB	0f0H
	DB	0ffH
	DB	0f0H
	DB	0f0H
	DB	0f0H
	DB	0ffH
	DB	0f0H
	DB	0f0H
	DB	0f0H
	DB	0ffH
	DB	0f0H
	DB	0f0H
	DB	0f0H
	DB	0ffH
	DB	0f0H
	DB	0ecH
	DB	0f0H
	DB	0ffH
	DB	0e8H
	DB	0ecH
	DB	0f0H
	DB	0ffH
	DB	0e8H
	DB	0ecH
	DB	0e8H
	DB	0ffH
	DB	0e8H
	DB	0e8H
	DB	0e8H
	DB	0ffH
	DB	0e8H
	DB	0e8H
	DB	0e8H
	DB	0ffH
	DB	0e8H
	DB	0e4H
	DB	0e8H
	DB	0ffH
	DB	0e8H
	DB	0e8H
	DB	0e8H
	DB	0ffH
	DB	0e8H
	DB	0e8H
	DB	0e8H
	DB	0ffH
	DB	0e8H
	DB	0e8H
	DB	0e8H
	DB	0ffH
	DB	0e8H
	DB	0e8H
	DB	0e8H
	DB	0ffH
	DB	0e8H
	DB	0ecH
	DB	0e8H
	DB	0ffH
	DB	0f0H
	DB	0f0H
	DB	0f0H
	DB	0ffH
	DB	0f0H
	DB	0f0H
	DB	0f0H
	DB	0ffH
	DB	0f0H
	DB	0f0H
	DB	0f0H
	DB	0ffH
	DB	0f0H
	DB	0f4H
	DB	0f0H
	DB	0ffH
	DB	0f0H
	DB	0f4H
	DB	0f8H
	DB	0ffH
	DB	0f0H
	DB	0f4H
	DB	0f0H
	DB	0ffH
	DB	0f0H
	DB	0f0H
	DB	0f0H
	DB	0ffH
	DB	0f0H
	DB	0ecH
	DB	0f0H
	DB	0ffH
	DB	0e8H
	DB	0ecH
	DB	0f0H
	DB	0ffH
	DB	0e8H
	DB	0e8H
	DB	0f0H
	DB	0ffH
	DB	0e8H
	DB	0ecH
	DB	0e8H
	DB	0ffH
	DB	0f0H
	DB	0ecH
	DB	0e8H
	DB	0ffH
	DB	0f0H
	DB	0ecH
	DB	0f0H
	DB	0ffH
	DB	0e8H
	DB	0ecH
	DB	0f0H
	DB	0ffH
	DB	0e8H
	DB	0ecH
	DB	0e8H
	DB	0ffH
	DB	0e8H
	DB	0ecH
	DB	0e8H
	DB	0ffH
	DB	0f0H
	DB	0ecH
	DB	0e8H
	DB	0ffH
	DB	0e8H
	DB	0ecH
	DB	0e8H
	DB	0ffH
	DB	0f0H
	DB	0ecH
	DB	0f0H
	DB	0ffH
	DB	0e8H
	DB	0e8H
	DB	0e8H
	DB	0ffH
	DB	0e0H
	DB	0e4H
	DB	0e8H
	DB	0ffH
	DB	0e0H
	DB	0e0H
	DB	0e0H
	DB	0ffH
	DB	0e0H
	DB	0e0H
	DB	0e0H
	DB	0ffH
	DB	0e8H
	DB	0e0H
	DB	0e0H
	DB	0ffH
	DB	0e8H
	DB	0e4H
	DB	0e0H
	DB	0ffH
	DB	0e0H
	DB	0d8H
	DB	0d8H
	DB	0ffH
	DB	0e0H
	DB	0d8H
	DB	0c8H
	DB	0ffH
	DB	0e0H
	DB	0d4H
	DB	0c8H
	DB	0ffH
	DB	0e0H
	DB	0d0H
	DB	0c0H
	DB	0ffH
	DB	0d8H
	DB	0d0H
	DB	0c0H
	DB	0ffH
	DB	0d8H
	DB	0d4H
	DB	0c0H
	DB	0ffH
	DB	0d8H
	DB	0d0H
	DB	0c8H
	DB	0ffH
	DB	0d8H
	DB	0d4H
	DB	0c8H
	DB	0ffH
	DB	0e0H
	DB	0d4H
	DB	0c8H
	DB	0ffH
	DB	0e0H
	DB	0d4H
	DB	0c8H
	DB	0ffH
	DB	0e0H
	DB	0d4H
	DB	0d0H
	DB	0ffH
	DB	0d8H
	DB	0d4H
	DB	0c8H
	DB	0ffH
	DB	0d8H
	DB	0d0H
	DB	0c0H
	DB	0ffH
	DB	0d8H
	DB	0d0H
	DB	0c0H
	DB	0ffH
	DB	0d8H
	DB	0d0H
	DB	0c0H
	DB	0ffH
	DB	0d8H
	DB	0d4H
	DB	0c8H
	DB	0ffH
	DB	0e0H
	DB	0d4H
	DB	0c8H
	DB	0ffH
	DB	0d8H
	DB	0d0H
	DB	0c0H
	DB	0ffH
	DB	0d8H
	DB	0d4H
	DB	0c8H
	DB	0ffH
	DB	0d8H
	DB	0d8H
	DB	0c8H
	DB	0ffH
	DB	0d8H
	DB	0d4H
	DB	0d0H
	DB	0ffH
	DB	0e0H
	DB	0dcH
	DB	0d8H
	DB	0ffH
	DB	0e8H
	DB	0e8H
	DB	0e0H
	DB	0ffH
	DB	0f0H
	DB	0e8H
	DB	0e8H
	DB	0ffH
	DB	0e8H
	DB	0ecH
	DB	0e8H
	DB	0ffH
	DB	0e8H
	DB	0e8H
	DB	0f0H
	DB	0ffH
	DB	0e8H
	DB	0e8H
	DB	0e8H
	DB	0ffH
	DB	0e8H
	DB	0e8H
	DB	0e8H
	DB	0ffH
	DB	0e8H
	DB	0e8H
	DB	0e8H
	DB	0ffH
	DB	0e0H
	DB	0e4H
	DB	0e0H
	DB	0ffH
	DB	0e0H
	DB	0e0H
	DB	0e0H
	DB	0ffH
	DB	0e0H
	DB	0dcH
	DB	0e0H
	DB	0ffH
	DB	0e0H
	DB	0e0H
	DB	0e0H
	DB	0ffH
	DB	0e8H
	DB	0e8H
	DB	0e8H
	DB	0ffH
	DB	0e0H
	DB	0e4H
	DB	0e8H
	DB	0ffH
	DB	0e8H
	DB	0e8H
	DB	0e8H
	DB	0ffH
	DB	0e8H
	DB	0e8H
	DB	0e8H
	DB	0ffH
	DB	0e8H
	DB	0ecH
	DB	0e8H
	DB	0ffH
	DB	0f0H
	DB	0ecH
	DB	0f0H
	DB	0ffH
	DB	0f0H
	DB	0f0H
	DB	0f0H
	DB	0ffH
	DB	0e8H
	DB	0ecH
	DB	0f0H
	DB	0ffH
	DB	0e8H
	DB	0e8H
	DB	0e8H
	DB	0ffH
	DB	0e8H
	DB	0ecH
	DB	0f0H
	DB	0ffH
	DB	0e8H
	DB	0ecH
	DB	0f0H
	DB	0ffH
	DB	0e8H
	DB	0ecH
	DB	0f0H
	DB	0ffH
	DB	0e8H
	DB	0e8H
	DB	0e8H
	DB	0ffH
	DB	0e8H
	DB	0e4H
	DB	0e0H
	DB	0ffH
	DB	0e0H
	DB	0e0H
	DB	0e0H
	DB	0ffH
	DB	0e0H
	DB	0d8H
	DB	0d8H
	DB	0ffH
	DB	0d8H
	DB	0d4H
	DB	0c8H
	DB	0ffH
	DB	0d8H
	DB	0d0H
	DB	0c8H
	DB	0ffH
	DB	0d8H
	DB	0d4H
	DB	0c8H
	DB	0ffH
	DB	0d8H
	DB	0d0H
	DB	0c8H
	DB	0ffH
	DB	0d8H
	DB	0d0H
	DB	0c8H
	DB	0ffH
	DB	0d8H
	DB	0d4H
	DB	0c8H
	DB	0ffH
	DB	0e0H
	DB	0d4H
	DB	0c8H
	DB	0ffH
	DB	0e0H
	DB	0d4H
	DB	0c8H
	DB	0ffH
	DB	0e0H
	DB	0d4H
	DB	0d0H
	DB	0ffH
	DB	0d8H
	DB	0d4H
	DB	0c8H
	DB	0ffH
	DB	0e0H
	DB	0d4H
	DB	0d0H
	DB	0ffH
	DB	0e0H
	DB	0dcH
	DB	0d8H
	DB	0ffH
	DB	0e0H
	DB	0dcH
	DB	0d8H
	DB	0ffH
	DB	0e0H
	DB	0e0H
	DB	0e0H
	DB	0ffH
	DB	0e8H
	DB	0ecH
	DB	0e8H
	DB	0ffH
	DB	0f0H
	DB	0f0H
	DB	0f0H
	DB	0ffH
	DB	0f0H
	DB	0f0H
	DB	0f0H
	DB	0ffH
	DB	0f0H
	DB	0f0H
	DB	0f0H
	DB	0ffH
	DB	0f0H
	DB	0f0H
	DB	0f0H
	DB	0ffH
	DB	0f0H
	DB	0f0H
	DB	0f0H
	DB	0ffH
	DB	0e8H
	DB	0ecH
	DB	0e8H
	DB	0ffH
	DB	0e8H
	DB	0ecH
	DB	0f0H
	DB	0ffH
	DB	0e8H
	DB	0ecH
	DB	0f0H
	DB	0ffH
	DB	0e8H
	DB	0ecH
	DB	0f0H
	DB	0ffH
	DB	0e8H
	DB	0ecH
	DB	0f0H
	DB	0ffH
	DB	0e8H
	DB	0ecH
	DB	0f0H
	DB	0ffH
	DB	0e8H
	DB	0ecH
	DB	0e8H
	DB	0ffH
	DB	0e8H
	DB	0ecH
	DB	0e8H
	DB	0ffH
	DB	0e8H
	DB	0e8H
	DB	0e8H
	DB	0ffH
	DB	0e8H
	DB	0e8H
	DB	0e8H
	DB	0ffH
	DB	0e8H
	DB	0e8H
	DB	0e8H
	DB	0ffH
	DB	0e8H
	DB	0e4H
	DB	0e8H
	DB	0ffH
	DB	0e0H
	DB	0e4H
	DB	0e8H
	DB	0ffH
	DB	0e0H
	DB	0e0H
	DB	0e0H
	DB	0ffH
	DB	0e0H
	DB	0e0H
	DB	0e0H
	DB	0ffH
	DB	0e0H
	DB	0e0H
	DB	0e0H
	DB	0ffH
	DB	0e0H
	DB	0e0H
	DB	0e0H
	DB	0ffH
	DB	0e0H
	DB	0e0H
	DB	0e0H
	DB	0ffH
	DB	0e8H
	DB	0e4H
	DB	0e8H
	DB	0ffH
	DB	0e8H
	DB	0e4H
	DB	0e8H
	DB	0ffH
	DB	0e8H
	DB	0e8H
	DB	0e8H
	DB	0ffH
	DB	0e8H
	DB	0e8H
	DB	0e8H
	DB	0ffH
	DB	0e8H
	DB	0e8H
	DB	0e8H
	DB	0ffH
	DB	0e8H
	DB	0e8H
	DB	0e8H
	DB	0ffH
	DB	0e8H
	DB	0e4H
	DB	0e8H
	DB	0ffH
	DB	0e0H
	DB	0e4H
	DB	0e8H
	DB	0ffH
	DB	0e0H
	DB	0e4H
	DB	0e0H
	DB	0ffH
	DB	0e8H
	DB	0e4H
	DB	0e8H
	DB	0ffH
	DB	0e8H
	DB	0e8H
	DB	0e8H
	DB	0ffH
	DB	0e8H
	DB	0e8H
	DB	0e8H
	DB	0ffH
	DB	0e8H
	DB	0e8H
	DB	0e8H
	DB	0ffH
	DB	0e8H
	DB	0e8H
	DB	0e8H
	DB	0ffH
	DB	0e8H
	DB	0e8H
	DB	0e8H
	DB	0ffH
	DB	0e8H
	DB	0e8H
	DB	0e8H
	DB	0ffH
	DB	0e8H
	DB	0e8H
	DB	0e8H
	DB	0ffH
	DB	0e8H
	DB	0ecH
	DB	0e8H
	DB	0ffH
	DB	0e8H
	DB	0ecH
	DB	0f0H
	DB	0ffH
	DB	0e8H
	DB	0ecH
	DB	0f0H
	DB	0ffH
	DB	0e8H
	DB	0ecH
	DB	0f0H
	DB	0ffH
	DB	0e8H
	DB	0ecH
	DB	0f0H
	DB	0ffH
	DB	0e8H
	DB	0ecH
	DB	0f0H
	DB	0ffH
	DB	0e8H
	DB	0ecH
	DB	0f0H
	DB	0ffH
	DB	0e8H
	DB	0ecH
	DB	0f0H
	DB	0ffH
	DB	0f0H
	DB	0f0H
	DB	0f0H
	DB	0ffH
	DB	0e8H
	DB	0f0H
	DB	0f0H
	DB	0ffH
	DB	0e8H
	DB	0f0H
	DB	0f8H
	DB	0ffH
	DB	0e8H
	DB	0f0H
	DB	0f0H
	DB	0ffH
	DB	0e8H
	DB	0f0H
	DB	0f0H
	DB	0ffH
	DB	0f0H
	DB	0f0H
	DB	0f8H
	DB	0ffH
	DB	0e8H
	DB	0f0H
	DB	0f0H
	DB	0ffH
	DB	0e8H
	DB	0ecH
	DB	0f0H
	DB	0ffH
	DB	0e8H
	DB	0ecH
	DB	0f0H
	DB	0ffH
	DB	0e8H
	DB	0ecH
	DB	0e8H
	DB	0ffH
	DB	0e8H
	DB	0ecH
	DB	0e8H
	DB	0ffH
	DB	0e8H
	DB	0e8H
	DB	0e8H
	DB	0ffH
	DB	0e8H
	DB	0e8H
	DB	0e8H
	DB	0ffH
	DB	0e8H
	DB	0e4H
	DB	0e8H
	DB	0ffH
	DB	0e0H
	DB	0e4H
	DB	0e8H
	DB	0ffH
	DB	0e0H
	DB	0e4H
	DB	0e8H
	DB	0ffH
	DB	0e0H
	DB	0e4H
	DB	0e0H
	DB	0ffH
	DB	0e0H
	DB	0e0H
	DB	0e0H
	DB	0ffH
	DB	0e0H
	DB	0e0H
	DB	0e0H
	DB	0ffH
	DB	0e0H
	DB	0e0H
	DB	0e0H
	DB	0ffH
	DB	0e0H
	DB	0e0H
	DB	0e0H
	DB	0ffH
	DB	0e8H
	DB	0e4H
	DB	0e0H
	DB	0ffH
	DB	0e8H
	DB	0e4H
	DB	0e0H
	DB	0ffH
	DB	0e0H
	DB	0e0H
	DB	0e0H
	DB	0ffH
	DB	0e0H
	DB	0dcH
	DB	0e0H
	DB	0ffH
	DB	0e0H
	DB	0d8H
	DB	0d0H
	DB	0ffH
	DB	0d8H
	DB	0d4H
	DB	0d0H
	DB	0ffH
	DB	0d8H
	DB	0d0H
	DB	0c8H
	DB	0ffH
	DB	0d8H
	DB	0ccH
	DB	0c0H
	DB	0ffH
	DB	0d8H
	DB	0c8H
	DB	0c0H
	DB	0ffH
	DB	0d8H
	DB	0c8H
	DB	0c0H
	DB	0ffH
	DB	0d0H
	DB	0c8H
	DB	0b8H
	DB	0ffH
	DB	0d0H
	DB	0c8H
	DB	0b8H
	DB	0ffH
	DB	0d8H
	DB	0c8H
	DB	0b8H
	DB	0ffH
	DB	0d0H
	DB	0ccH
	DB	0b8H
	DB	0ffH
	DB	0d0H
	DB	0c8H
	DB	0b0H
	DB	0ffH
	DB	0d8H
	DB	0c8H
	DB	0b8H
	DB	0ffH
	DB	0d8H
	DB	0c8H
	DB	0b8H
	DB	0ffH
	DB	0d8H
	DB	0c8H
	DB	0b8H
	DB	0ffH
	DB	0d0H
	DB	0c8H
	DB	0b8H
	DB	0ffH
	DB	0d8H
	DB	0c8H
	DB	0b8H
	DB	0ffH
	DB	0d8H
	DB	0c8H
	DB	0b8H
	DB	0ffH
	DB	0d8H
	DB	0c8H
	DB	0b8H
	DB	0ffH
	DB	0d8H
	DB	0c8H
	DB	0b0H
	DB	0ffH
	DB	0d8H
	DB	0c8H
	DB	0b0H
	DB	0ffH
	DB	0d8H
	DB	0c8H
	DB	0b0H
	DB	0ffH
	DB	0d8H
	DB	0c8H
	DB	0b8H
	DB	0ffH
	DB	0d0H
	DB	0c8H
	DB	0b0H
	DB	0ffH
	DB	0d0H
	DB	0c4H
	DB	0a8H
	DB	0ffH
	DB	0d0H
	DB	0c8H
	DB	0b0H
	DB	0ffH
	DB	0d0H
	DB	0c8H
	DB	0b0H
	DB	0ffH
	DB	0d0H
	DB	0c8H
	DB	0b8H
	DB	0ffH
	DB	0d0H
	DB	0c8H
	DB	0c0H
	DB	0ffH
	DB	0d8H
	DB	0d0H
	DB	0c8H
	DB	0ffH
	DB	0d8H
	DB	0d4H
	DB	0c8H
	DB	0ffH
	DB	0e0H
	DB	0d4H
	DB	0d0H
	DB	0ffH
	DB	0e0H
	DB	0d4H
	DB	0d0H
	DB	0ffH
	DB	0d8H
	DB	0d0H
	DB	0c0H
	DB	0ffH
	DB	0d8H
	DB	0ccH
	DB	0b8H
	DB	0ffH
	DB	0d0H
	DB	0c8H
	DB	0b8H
	DB	0ffH
	DB	0d0H
	DB	0c8H
	DB	0b0H
	DB	0ffH
	DB	0d0H
	DB	0c4H
	DB	0b0H
	DB	0ffH
	DB	0d8H
	DB	0c8H
	DB	0b8H
	DB	0ffH
	DB	0d0H
	DB	0c8H
	DB	0b8H
	DB	0ffH
	DB	0d0H
	DB	0c8H
	DB	0b8H
	DB	0ffH
	DB	0d0H
	DB	0c8H
	DB	0b0H
	DB	0ffH
	DB	0d0H
	DB	0c4H
	DB	0b0H
	DB	0ffH
	DB	0d0H
	DB	0c4H
	DB	0b0H
	DB	0ffH
	DB	0d0H
	DB	0c4H
	DB	0b0H
	DB	0ffH
	DB	0d0H
	DB	0c4H
	DB	0b0H
	DB	0ffH
	DB	0d8H
	DB	0ccH
	DB	0b8H
	DB	0ffH
	DB	0d8H
	DB	0ccH
	DB	0c0H
	DB	0ffH
	DB	0d0H
	DB	0c8H
	DB	0b8H
	DB	0ffH
	DB	0d0H
	DB	0c8H
	DB	0b8H
	DB	0ffH
	DB	0d8H
	DB	0ccH
	DB	0c8H
	DB	0ffH
	DB	0d8H
	DB	0d0H
	DB	0c8H
	DB	0ffH
	DB	0d8H
	DB	0ccH
	DB	0c0H
	DB	0ffH
	DB	0d8H
	DB	0d0H
	DB	0d0H
	DB	0ffH
	DB	0e0H
	DB	0d8H
	DB	0d8H
	DB	0ffH
	DB	0e0H
	DB	0dcH
	DB	0e0H
	DB	0ffH
	DB	0e0H
	DB	0dcH
	DB	0e0H
	DB	0ffH
	DB	0e0H
	DB	0e0H
	DB	0e0H
	DB	0ffH
	DB	0e0H
	DB	0e0H
	DB	0e0H
	DB	0ffH
	DB	0e0H
	DB	0e0H
	DB	0e0H
	DB	0ffH
	DB	0e0H
	DB	0e0H
	DB	0e0H
	DB	0ffH
	DB	0e0H
	DB	0e0H
	DB	0e0H
	DB	0ffH
	DB	0e0H
	DB	0e0H
	DB	0e0H
	DB	0ffH
	DB	0e0H
	DB	0e0H
	DB	0e0H
	DB	0ffH
	DB	0e0H
	DB	0e0H
	DB	0e0H
	DB	0ffH
	DB	0e8H
	DB	0e0H
	DB	0e0H
	DB	0ffH
	DB	0e0H
	DB	0dcH
	DB	0e0H
	DB	0ffH
	DB	0e0H
	DB	0e0H
	DB	0e0H
	DB	0ffH
	DB	0e0H
	DB	0e0H
	DB	0e0H
	DB	0ffH
	DB	0e0H
	DB	0e0H
	DB	0e0H
	DB	0ffH
	DB	0e0H
	DB	0e0H
	DB	0e8H
	DB	0ffH
	DB	0e0H
	DB	0e4H
	DB	0e8H
	DB	0ffH
	DB	0e0H
	DB	0e4H
	DB	0e8H
	DB	0ffH
	DB	0e8H
	DB	0e4H
	DB	0e8H
	DB	0ffH
	DB	0e8H
	DB	0e8H
	DB	0e8H
	DB	0ffH
	DB	0e8H
	DB	0ecH
	DB	0e8H
	DB	0ffH
	DB	0e8H
	DB	0ecH
	DB	0f0H
	DB	0ffH
	DB	0e8H
	DB	0ecH
	DB	0f0H
	DB	0ffH
	DB	0e8H
	DB	0e8H
	DB	0e8H
	DB	0ffH
	DB	0e8H
	DB	0e8H
	DB	0e8H
	DB	0ffH
	DB	0e8H
	DB	0ecH
	DB	0f0H
	DB	0ffH
	DB	0e8H
	DB	0ecH
	DB	0f0H
	DB	0ffH
	DB	0e8H
	DB	0ecH
	DB	0f0H
	DB	0ffH
	DB	0e8H
	DB	0ecH
	DB	0f0H
	DB	0ffH
	DB	0e8H
	DB	0f0H
	DB	0f0H
	DB	0ffH
	DB	0e8H
	DB	0ecH
	DB	0e8H
	DB	0ffH
	DB	0e8H
	DB	0e8H
	DB	0e8H
	DB	0ffH
	DB	0e8H
	DB	0ecH
	DB	0f0H
	DB	0ffH
	DB	0e8H
	DB	0ecH
	DB	0f0H
	DB	0ffH
	DB	0e8H
	DB	0ecH
	DB	0e8H
	DB	0ffH
	DB	0e8H
	DB	0e8H
	DB	0e8H
	DB	0ffH
	DB	0e0H
	DB	0e4H
	DB	0e0H
	DB	0ffH
	DB	0d8H
	DB	0dcH
	DB	0e0H
	DB	0ffH
	DB	0e0H
	DB	0d8H
	DB	0d8H
	DB	0ffH
	DB	0e0H
	DB	0d8H
	DB	0d8H
	DB	0ffH
	DB	0d8H
	DB	0d4H
	DB	0d8H
	DB	0ffH
	DB	0d8H
	DB	0d8H
	DB	0d8H
	DB	0ffH
	DB	0e0H
	DB	0dcH
	DB	0d8H
	DB	0ffH
	DB	0e0H
	DB	0e0H
	DB	0e0H
	DB	0ffH
	DB	0e8H
	DB	0e8H
	DB	0e8H
	DB	0ffH
	DB	0e8H
	DB	0ecH
	DB	0f0H
	DB	0ffH
	DB	0e8H
	DB	0ecH
	DB	0f0H
	DB	0ffH
	DB	0e8H
	DB	0ecH
	DB	0f0H
	DB	0ffH
	DB	0e8H
	DB	0ecH
	DB	0f0H
	DB	0ffH
	DB	0e8H
	DB	0ecH
	DB	0f0H
	DB	0ffH
	DB	0e8H
	DB	0ecH
	DB	0f0H
	DB	0ffH
	DB	0e8H
	DB	0ecH
	DB	0e8H
	DB	0ffH
	DB	0e8H
	DB	0ecH
	DB	0f0H
	DB	0ffH
	DB	0e8H
	DB	0ecH
	DB	0f0H
	DB	0ffH
	DB	0e8H
	DB	0e8H
	DB	0e8H
	DB	0ffH
	DB	0e8H
	DB	0e8H
	DB	0e8H
	DB	0ffH
	DB	0e8H
	DB	0ecH
	DB	0e8H
	DB	0ffH
	DB	0e8H
	DB	0e8H
	DB	0f0H
	DB	0ffH
	DB	0e8H
	DB	0ecH
	DB	0f0H
	DB	0ffH
	DB	0e8H
	DB	0ecH
	DB	0e8H
	DB	0ffH
	DB	0e8H
	DB	0e8H
	DB	0f0H
	DB	0ffH
	DB	0e8H
	DB	0e8H
	DB	0e8H
	DB	0ffH
	DB	0e0H
	DB	0e8H
	DB	0e8H
	DB	0ffH
	DB	0e0H
	DB	0e8H
	DB	0e8H
	DB	0ffH
	DB	0e0H
	DB	0e8H
	DB	0e8H
	DB	0ffH
	DB	0e0H
	DB	0e4H
	DB	0e8H
	DB	0ffH
	DB	0e0H
	DB	0e4H
	DB	0e8H
	DB	0ffH
	DB	0e0H
	DB	0e4H
	DB	0e0H
	DB	0ffH
	DB	0e0H
	DB	0e4H
	DB	0e0H
	DB	0ffH
	DB	0e0H
	DB	0e4H
	DB	0e8H
	DB	0ffH
	DB	0e0H
	DB	0e4H
	DB	0e0H
	DB	0ffH
	DB	0e0H
	DB	0e4H
	DB	0e8H
	DB	0ffH
	DB	0e0H
	DB	0e4H
	DB	0e8H
	DB	0ffH
	DB	0e0H
	DB	0e0H
	DB	0e8H
	DB	0ffH
	DB	0e0H
	DB	0e0H
	DB	0e0H
	DB	0ffH
	DB	0f8H
	DB	0fcH
	DB	0f8H
	DB	0ffH
	DB	0f8H
	DB	0fcH
	DB	0f8H
	DB	0ffH
	DB	0f8H
	DB	0fcH
	DB	0f8H
	DB	0ffH
	DB	0f8H
	DB	0fcH
	DB	0f8H
	DB	0ffH
	DB	0f8H
	DB	0fcH
	DB	0f8H
	DB	0ffH
	DB	0f8H
	DB	0fcH
	DB	0f8H
	DB	0ffH
	DB	0f8H
	DB	0fcH
	DB	0f8H
	DB	0ffH
	DB	0f8H
	DB	0fcH
	DB	0f8H
	DB	0ffH
	DB	0f8H
	DB	0fcH
	DB	0f8H
	DB	0ffH
	DB	0f8H
	DB	0fcH
	DB	0f8H
	DB	0ffH
	DB	0f8H
	DB	0f8H
	DB	0f8H
	DB	0ffH
	DB	0f8H
	DB	0f8H
	DB	0f8H
	DB	0ffH
	DB	0f8H
	DB	0fcH
	DB	0f8H
	DB	0ffH
	DB	0f8H
	DB	0fcH
	DB	0f8H
	DB	0ffH
	DB	0f8H
	DB	0fcH
	DB	0f8H
	DB	0ffH
	DB	0f8H
	DB	0fcH
	DB	0f8H
	DB	0ffH
	DB	0f8H
	DB	0fcH
	DB	0f8H
	DB	0ffH
	DB	0f8H
	DB	0fcH
	DB	0f8H
	DB	0ffH
	DB	0f8H
	DB	0fcH
	DB	0f8H
	DB	0ffH
	DB	0f8H
	DB	0fcH
	DB	0f8H
	DB	0ffH
	DB	0f8H
	DB	0fcH
	DB	0f8H
	DB	0ffH
	DB	0f8H
	DB	0fcH
	DB	0f8H
	DB	0ffH
	DB	0f8H
	DB	0fcH
	DB	0f8H
	DB	0ffH
	DB	0f8H
	DB	0fcH
	DB	0f8H
	DB	0ffH
	DB	0f8H
	DB	0fcH
	DB	0f8H
	DB	0ffH
	DB	0f8H
	DB	0fcH
	DB	0f8H
	DB	0ffH
	DB	0f8H
	DB	0fcH
	DB	0f8H
	DB	0ffH
	DB	0f8H
	DB	0fcH
	DB	0f8H
	DB	0ffH
	DB	0f8H
	DB	0fcH
	DB	0f8H
	DB	0ffH
	DB	0f8H
	DB	0fcH
	DB	0f8H
	DB	0ffH
	DB	0f8H
	DB	0fcH
	DB	0f8H
	DB	0ffH
	DB	0f8H
	DB	0f8H
	DB	0f8H
	DB	0ffH
	DB	0f8H
	DB	0f8H
	DB	0f8H
	DB	0ffH
	DB	0f0H
	DB	0f4H
	DB	0f8H
	DB	0ffH
	DB	0f8H
	DB	0f8H
	DB	0f8H
	DB	0ffH
	DB	0f8H
	DB	0fcH
	DB	0f8H
	DB	0ffH
	DB	0f8H
	DB	0fcH
	DB	0f8H
	DB	0ffH
	DB	0f8H
	DB	0fcH
	DB	0f8H
	DB	0ffH
	DB	0f8H
	DB	0fcH
	DB	0f8H
	DB	0ffH
	DB	0f8H
	DB	0fcH
	DB	0f8H
	DB	0ffH
	DB	0f8H
	DB	0fcH
	DB	0f8H
	DB	0ffH
	DB	0f8H
	DB	0fcH
	DB	0f8H
	DB	0ffH
	DB	0f8H
	DB	0fcH
	DB	0f8H
	DB	0ffH
	DB	0f8H
	DB	0fcH
	DB	0f8H
	DB	0ffH
	DB	0f8H
	DB	0fcH
	DB	0f8H
	DB	0ffH
	DB	0f8H
	DB	0fcH
	DB	0f8H
	DB	0ffH
	DB	0f8H
	DB	0fcH
	DB	0f8H
	DB	0ffH
	DB	0f8H
	DB	0fcH
	DB	0f8H
	DB	0ffH
	DB	0f8H
	DB	0fcH
	DB	0f8H
	DB	0ffH
	DB	0f8H
	DB	0fcH
	DB	0f8H
	DB	0ffH
	DB	0f8H
	DB	0fcH
	DB	0f8H
	DB	0ffH
	DB	0f8H
	DB	0fcH
	DB	0f8H
	DB	0ffH
	DB	0f8H
	DB	0fcH
	DB	0f8H
	DB	0ffH
	DB	0f8H
	DB	0fcH
	DB	0f8H
	DB	0ffH
	DB	0f8H
	DB	0fcH
	DB	0f8H
	DB	0ffH
	DB	0f8H
	DB	0fcH
	DB	0f8H
	DB	0ffH
	DB	0f8H
	DB	0fcH
	DB	0f8H
	DB	0ffH
	DB	0f8H
	DB	0fcH
	DB	0f8H
	DB	0ffH
	DB	0f8H
	DB	0fcH
	DB	0f8H
	DB	0ffH
	DB	0f8H
	DB	0fcH
	DB	0f8H
	DB	0ffH
	DB	0f8H
	DB	0fcH
	DB	0f8H
	DB	0ffH
	DB	0f8H
	DB	0fcH
	DB	0f8H
	DB	0ffH
	DB	0f8H
	DB	0fcH
	DB	0f8H
	DB	0ffH
	DB	0f8H
	DB	0fcH
	DB	0f8H
	DB	0ffH
	DB	0f8H
	DB	0f8H
	DB	0f8H
	DB	0ffH
	DB	0f8H
	DB	0fcH
	DB	0f8H
	DB	0ffH
	DB	0f8H
	DB	0fcH
	DB	0f8H
	DB	0ffH
	DB	0f8H
	DB	0fcH
	DB	0f8H
	DB	0ffH
	DB	0f8H
	DB	0fcH
	DB	0f8H
	DB	0ffH
	DB	0f8H
	DB	0fcH
	DB	0f8H
	DB	0ffH
	DB	0f8H
	DB	0fcH
	DB	0f8H
	DB	0ffH
	DB	0f8H
	DB	0fcH
	DB	0f8H
	DB	0ffH
	DB	0f8H
	DB	0fcH
	DB	0f8H
	DB	0ffH
	DB	0f8H
	DB	0fcH
	DB	0f8H
	DB	0ffH
	DB	0f8H
	DB	0fcH
	DB	0f8H
	DB	0ffH
	DB	0f8H
	DB	0fcH
	DB	0f8H
	DB	0ffH
	DB	0f8H
	DB	0fcH
	DB	0f8H
	DB	0ffH
	DB	0f8H
	DB	0fcH
	DB	0f8H
	DB	0ffH
	DB	0f8H
	DB	0fcH
	DB	0f8H
	DB	0ffH
	DB	0f8H
	DB	0fcH
	DB	0f8H
	DB	0ffH
	DB	0f8H
	DB	0fcH
	DB	0f8H
	DB	0ffH
	DB	0f8H
	DB	0fcH
	DB	0f8H
	DB	0ffH
	DB	0f8H
	DB	0fcH
	DB	0f8H
	DB	0ffH
	DB	0f8H
	DB	0fcH
	DB	0f8H
	DB	0ffH
	DB	0f8H
	DB	0fcH
	DB	0f8H
	DB	0ffH
	DB	0f8H
	DB	0fcH
	DB	0f8H
	DB	0ffH
	DB	0f8H
	DB	0fcH
	DB	0f8H
	DB	0ffH
	DB	0f8H
	DB	0fcH
	DB	0f8H
	DB	0ffH
	DB	0f8H
	DB	0fcH
	DB	0f8H
	DB	0ffH
	DB	0f8H
	DB	0fcH
	DB	0f8H
	DB	0ffH
	DB	0f8H
	DB	0fcH
	DB	0f8H
	DB	0ffH
	DB	0f8H
	DB	0fcH
	DB	0f8H
	DB	0ffH
	DB	0f8H
	DB	0fcH
	DB	0f8H
	DB	0ffH
	DB	0f8H
	DB	0fcH
	DB	0f8H
	DB	0ffH
	DB	0f8H
	DB	0fcH
	DB	0f8H
	DB	0ffH
	DB	0f8H
	DB	0fcH
	DB	0f8H
	DB	0ffH
	DB	0f8H
	DB	0fcH
	DB	0f8H
	DB	0ffH
	DB	0f8H
	DB	0f8H
	DB	0f8H
	DB	0ffH
	DB	0f0H
	DB	0f8H
	DB	0f8H
	DB	0ffH
	DB	0f8H
	DB	0f8H
	DB	0f8H
	DB	0ffH
	DB	0f0H
	DB	0f4H
	DB	0f8H
	DB	0ffH
	DB	0f8H
	DB	0f4H
	DB	0f8H
	DB	0ffH
	DB	0f0H
	DB	0f4H
	DB	0f8H
	DB	0ffH
	DB	0f0H
	DB	0f4H
	DB	0f0H
	DB	0ffH
	DB	0f0H
	DB	0f0H
	DB	0f0H
	DB	0ffH
	DB	0f0H
	DB	0f0H
	DB	0f0H
	DB	0ffH
	DB	0f0H
	DB	0f0H
	DB	0f0H
	DB	0ffH
	DB	0f0H
	DB	0f0H
	DB	0f0H
	DB	0ffH
	DB	0e8H
	DB	0f0H
	DB	0f0H
	DB	0ffH
	DB	0e8H
	DB	0f0H
	DB	0f0H
	DB	0ffH
	DB	0f0H
	DB	0f0H
	DB	0e8H
	DB	0ffH
	DB	0f0H
	DB	0f0H
	DB	0f0H
	DB	0ffH
	DB	0f0H
	DB	0ecH
	DB	0f0H
	DB	0ffH
	DB	0f0H
	DB	0f0H
	DB	0f0H
	DB	0ffH
	DB	0f0H
	DB	0f0H
	DB	0f0H
	DB	0ffH
	DB	0e8H
	DB	0ecH
	DB	0e8H
	DB	0ffH
	DB	0f0H
	DB	0ecH
	DB	0f0H
	DB	0ffH
	DB	0f0H
	DB	0f0H
	DB	0f0H
	DB	0ffH
	DB	0f0H
	DB	0f0H
	DB	0f0H
	DB	0ffH
	DB	0e8H
	DB	0f0H
	DB	0f0H
	DB	0ffH
	DB	0f0H
	DB	0f0H
	DB	0f0H
	DB	0ffH
	DB	0f0H
	DB	0f0H
	DB	0f0H
	DB	0ffH
	DB	0e8H
	DB	0f0H
	DB	0f0H
	DB	0ffH
	DB	0f0H
	DB	0f0H
	DB	0f0H
	DB	0ffH
	DB	0e8H
	DB	0f0H
	DB	0f0H
	DB	0ffH
	DB	0e8H
	DB	0ecH
	DB	0e8H
	DB	0ffH
	DB	0e8H
	DB	0ecH
	DB	0e8H
	DB	0ffH
	DB	0f0H
	DB	0ecH
	DB	0f0H
	DB	0ffH
	DB	0f0H
	DB	0f0H
	DB	0f0H
	DB	0ffH
	DB	0f0H
	DB	0f4H
	DB	0f0H
	DB	0ffH
	DB	0f8H
	DB	0f4H
	DB	0f8H
	DB	0ffH
	DB	0f0H
	DB	0f4H
	DB	0f8H
	DB	0ffH
	DB	0f0H
	DB	0f4H
	DB	0f8H
	DB	0ffH
	DB	0f0H
	DB	0f4H
	DB	0f8H
	DB	0ffH
	DB	0f0H
	DB	0f4H
	DB	0f8H
	DB	0ffH
	DB	0f0H
	DB	0f4H
	DB	0f0H
	DB	0ffH
	DB	0f0H
	DB	0f4H
	DB	0f8H
	DB	0ffH
	DB	0f0H
	DB	0f4H
	DB	0f8H
	DB	0ffH
	DB	0f0H
	DB	0f0H
	DB	0f0H
	DB	0ffH
	DB	0f0H
	DB	0f0H
	DB	0f0H
	DB	0ffH
	DB	0f0H
	DB	0f4H
	DB	0f8H
	DB	0ffH
	DB	0f0H
	DB	0f4H
	DB	0f0H
	DB	0ffH
	DB	0f0H
	DB	0f4H
	DB	0f0H
	DB	0ffH
	DB	0f8H
	DB	0f4H
	DB	0f8H
	DB	0ffH
	DB	0f0H
	DB	0f4H
	DB	0f8H
	DB	0ffH
	DB	0f0H
	DB	0f4H
	DB	0f8H
	DB	0ffH
	DB	0f8H
	DB	0f8H
	DB	0f8H
	DB	0ffH
	DB	0f0H
	DB	0f4H
	DB	0f0H
	DB	0ffH
	DB	0f8H
	DB	0f4H
	DB	0f8H
	DB	0ffH
	DB	0f8H
	DB	0f4H
	DB	0f8H
	DB	0ffH
	DB	0f0H
	DB	0f4H
	DB	0f8H
	DB	0ffH
	DB	0f0H
	DB	0f4H
	DB	0f0H
	DB	0ffH
	DB	0e8H
	DB	0f0H
	DB	0f0H
	DB	0ffH
	DB	0f0H
	DB	0f0H
	DB	0f0H
	DB	0ffH
	DB	0e8H
	DB	0f0H
	DB	0f0H
	DB	0ffH
	DB	0f0H
	DB	0ecH
	DB	0f0H
	DB	0ffH
	DB	0f0H
	DB	0ecH
	DB	0f0H
	DB	0ffH
	DB	0e8H
	DB	0e8H
	DB	0f0H
	DB	0ffH
	DB	0e8H
	DB	0e8H
	DB	0e8H
	DB	0ffH
	DB	0e8H
	DB	0e8H
	DB	0e8H
	DB	0ffH
	DB	0f0H
	DB	0ecH
	DB	0f0H
	DB	0ffH
	DB	0e8H
	DB	0e8H
	DB	0e8H
	DB	0ffH
	DB	0e8H
	DB	0ecH
	DB	0f0H
	DB	0ffH
	DB	0f0H
	DB	0ecH
	DB	0f0H
	DB	0ffH
	DB	0f0H
	DB	0ecH
	DB	0e8H
	DB	0ffH
	DB	0e8H
	DB	0ecH
	DB	0f0H
	DB	0ffH
	DB	0e8H
	DB	0ecH
	DB	0e8H
	DB	0ffH
	DB	0f0H
	DB	0ecH
	DB	0f0H
	DB	0ffH
	DB	0e8H
	DB	0ecH
	DB	0f0H
	DB	0ffH
	DB	0e8H
	DB	0ecH
	DB	0e8H
	DB	0ffH
	DB	0e8H
	DB	0ecH
	DB	0f0H
	DB	0ffH
	DB	0e8H
	DB	0ecH
	DB	0f0H
	DB	0ffH
	DB	0e8H
	DB	0ecH
	DB	0f0H
	DB	0ffH
	DB	0f0H
	DB	0f4H
	DB	0f0H
	DB	0ffH
	DB	0f0H
	DB	0f4H
	DB	0f0H
	DB	0ffH
	DB	0f0H
	DB	0f0H
	DB	0f0H
	DB	0ffH
	DB	0f0H
	DB	0f0H
	DB	0f0H
	DB	0ffH
	DB	0e8H
	DB	0f0H
	DB	0f0H
	DB	0ffH
	DB	0f0H
	DB	0f0H
	DB	0f0H
	DB	0ffH
	DB	0e8H
	DB	0f0H
	DB	0f0H
	DB	0ffH
	DB	0e8H
	DB	0ecH
	DB	0f0H
	DB	0ffH
	DB	0e8H
	DB	0e8H
	DB	0e8H
	DB	0ffH
	DB	0e8H
	DB	0e8H
	DB	0e8H
	DB	0ffH
	DB	0e0H
	DB	0e8H
	DB	0e8H
	DB	0ffH
	DB	0e8H
	DB	0e8H
	DB	0e8H
	DB	0ffH
	DB	0e8H
	DB	0ecH
	DB	0f0H
	DB	0ffH
	DB	0e8H
	DB	0f0H
	DB	0f0H
	DB	0ffH
	DB	0e8H
	DB	0ecH
	DB	0f0H
	DB	0ffH
	DB	0e8H
	DB	0ecH
	DB	0f0H
	DB	0ffH
	DB	0f0H
	DB	0f0H
	DB	0f0H
	DB	0ffH
	DB	0f0H
	DB	0f0H
	DB	0f0H
	DB	0ffH
	DB	0f0H
	DB	0f0H
	DB	0f8H
	DB	0ffH
	DB	0f0H
	DB	0f4H
	DB	0f8H
	DB	0ffH
	DB	0f0H
	DB	0f4H
	DB	0f8H
	DB	0ffH
	DB	0f0H
	DB	0f4H
	DB	0f8H
	DB	0ffH
	DB	0e8H
	DB	0f0H
	DB	0f8H
	DB	0ffH
	DB	0e8H
	DB	0ecH
	DB	0f0H
	DB	0ffH
	DB	0e8H
	DB	0ecH
	DB	0f0H
	DB	0ffH
	DB	0e8H
	DB	0ecH
	DB	0f0H
	DB	0ffH
	DB	0e8H
	DB	0ecH
	DB	0f0H
	DB	0ffH
	DB	0f0H
	DB	0ecH
	DB	0e8H
	DB	0ffH
	DB	0e8H
	DB	0ecH
	DB	0e8H
	DB	0ffH
	DB	0e8H
	DB	0ecH
	DB	0e8H
	DB	0ffH
	DB	0f0H
	DB	0ecH
	DB	0f0H
	DB	0ffH
	DB	0e8H
	DB	0ecH
	DB	0f0H
	DB	0ffH
	DB	0f0H
	DB	0ecH
	DB	0e8H
	DB	0ffH
	DB	0e8H
	DB	0ecH
	DB	0f0H
	DB	0ffH
	DB	0e8H
	DB	0ecH
	DB	0f0H
	DB	0ffH
	DB	0e8H
	DB	0e8H
	DB	0e8H
	DB	0ffH
	DB	0e8H
	DB	0e8H
	DB	0e0H
	DB	0ffH
	DB	0e0H
	DB	0e0H
	DB	0e0H
	DB	0ffH
	DB	0e0H
	DB	0dcH
	DB	0d8H
	DB	0ffH
	DB	0e8H
	DB	0dcH
	DB	0d8H
	DB	0ffH
	DB	0e0H
	DB	0dcH
	DB	0d8H
	DB	0ffH
	DB	0e0H
	DB	0d4H
	DB	0d0H
	DB	0ffH
	DB	0e0H
	DB	0d8H
	DB	0c8H
	DB	0ffH
	DB	0d8H
	DB	0d4H
	DB	0c8H
	DB	0ffH
	DB	0d8H
	DB	0d4H
	DB	0c0H
	DB	0ffH
	DB	0e0H
	DB	0d4H
	DB	0c0H
	DB	0ffH
	DB	0d8H
	DB	0d0H
	DB	0c0H
	DB	0ffH
	DB	0d8H
	DB	0d0H
	DB	0c0H
	DB	0ffH
	DB	0d8H
	DB	0d4H
	DB	0c0H
	DB	0ffH
	DB	0e0H
	DB	0d4H
	DB	0c8H
	DB	0ffH
	DB	0e0H
	DB	0d4H
	DB	0c8H
	DB	0ffH
	DB	0e0H
	DB	0d4H
	DB	0d0H
	DB	0ffH
	DB	0e0H
	DB	0d4H
	DB	0c8H
	DB	0ffH
	DB	0d8H
	DB	0d0H
	DB	0c8H
	DB	0ffH
	DB	0d8H
	DB	0d0H
	DB	0c8H
	DB	0ffH
	DB	0d8H
	DB	0d0H
	DB	0c0H
	DB	0ffH
	DB	0d8H
	DB	0d4H
	DB	0c0H
	DB	0ffH
	DB	0d8H
	DB	0d4H
	DB	0c8H
	DB	0ffH
	DB	0d8H
	DB	0d8H
	DB	0d8H
	DB	0ffH
	DB	0e0H
	DB	0e0H
	DB	0e0H
	DB	0ffH
	DB	0e8H
	DB	0e8H
	DB	0e8H
	DB	0ffH
	DB	0e8H
	DB	0e8H
	DB	0e8H
	DB	0ffH
	DB	0f0H
	DB	0ecH
	DB	0e8H
	DB	0ffH
	DB	0f0H
	DB	0ecH
	DB	0e8H
	DB	0ffH
	DB	0e8H
	DB	0ecH
	DB	0e8H
	DB	0ffH
	DB	0e8H
	DB	0e8H
	DB	0e8H
	DB	0ffH
	DB	0e0H
	DB	0e8H
	DB	0e8H
	DB	0ffH
	DB	0e0H
	DB	0e8H
	DB	0e8H
	DB	0ffH
	DB	0e0H
	DB	0e8H
	DB	0e8H
	DB	0ffH
	DB	0e8H
	DB	0e8H
	DB	0e8H
	DB	0ffH
	DB	0e0H
	DB	0e4H
	DB	0e0H
	DB	0ffH
	DB	0e0H
	DB	0dcH
	DB	0e0H
	DB	0ffH
	DB	0e0H
	DB	0dcH
	DB	0e0H
	DB	0ffH
	DB	0e8H
	DB	0e0H
	DB	0e0H
	DB	0ffH
	DB	0e0H
	DB	0e0H
	DB	0e0H
	DB	0ffH
	DB	0e0H
	DB	0e4H
	DB	0e0H
	DB	0ffH
	DB	0e8H
	DB	0e4H
	DB	0e8H
	DB	0ffH
	DB	0e8H
	DB	0e4H
	DB	0e8H
	DB	0ffH
	DB	0e0H
	DB	0e4H
	DB	0e8H
	DB	0ffH
	DB	0f0H
	DB	0ecH
	DB	0e8H
	DB	0ffH
	DB	0f0H
	DB	0f0H
	DB	0f0H
	DB	0ffH
	DB	0e8H
	DB	0e8H
	DB	0e8H
	DB	0ffH
	DB	0e8H
	DB	0e8H
	DB	0e8H
	DB	0ffH
	DB	0e8H
	DB	0ecH
	DB	0f0H
	DB	0ffH
	DB	0e8H
	DB	0e8H
	DB	0e8H
	DB	0ffH
	DB	0e8H
	DB	0e8H
	DB	0e8H
	DB	0ffH
	DB	0e8H
	DB	0e8H
	DB	0e8H
	DB	0ffH
	DB	0e8H
	DB	0e4H
	DB	0e0H
	DB	0ffH
	DB	0e0H
	DB	0dcH
	DB	0e0H
	DB	0ffH
	DB	0d8H
	DB	0d8H
	DB	0d8H
	DB	0ffH
	DB	0d8H
	DB	0d4H
	DB	0d0H
	DB	0ffH
	DB	0e0H
	DB	0d8H
	DB	0d8H
	DB	0ffH
	DB	0e0H
	DB	0d8H
	DB	0d8H
	DB	0ffH
	DB	0e0H
	DB	0d8H
	DB	0d0H
	DB	0ffH
	DB	0d8H
	DB	0d0H
	DB	0c8H
	DB	0ffH
	DB	0d8H
	DB	0d4H
	DB	0c8H
	DB	0ffH
	DB	0e0H
	DB	0d4H
	DB	0c8H
	DB	0ffH
	DB	0e0H
	DB	0d4H
	DB	0d0H
	DB	0ffH
	DB	0e0H
	DB	0d4H
	DB	0d0H
	DB	0ffH
	DB	0e0H
	DB	0d8H
	DB	0d0H
	DB	0ffH
	DB	0d8H
	DB	0d4H
	DB	0d0H
	DB	0ffH
	DB	0e0H
	DB	0d8H
	DB	0d8H
	DB	0ffH
	DB	0e0H
	DB	0dcH
	DB	0d8H
	DB	0ffH
	DB	0e0H
	DB	0e0H
	DB	0e0H
	DB	0ffH
	DB	0e8H
	DB	0ecH
	DB	0e8H
	DB	0ffH
	DB	0f0H
	DB	0f0H
	DB	0f0H
	DB	0ffH
	DB	0f0H
	DB	0f4H
	DB	0f8H
	DB	0ffH
	DB	0e8H
	DB	0ecH
	DB	0f0H
	DB	0ffH
	DB	0e8H
	DB	0ecH
	DB	0f0H
	DB	0ffH
	DB	0e8H
	DB	0ecH
	DB	0e8H
	DB	0ffH
	DB	0e8H
	DB	0e8H
	DB	0e8H
	DB	0ffH
	DB	0e8H
	DB	0ecH
	DB	0e8H
	DB	0ffH
	DB	0f0H
	DB	0ecH
	DB	0f0H
	DB	0ffH
	DB	0f0H
	DB	0ecH
	DB	0f0H
	DB	0ffH
	DB	0e8H
	DB	0ecH
	DB	0f0H
	DB	0ffH
	DB	0e8H
	DB	0ecH
	DB	0e8H
	DB	0ffH
	DB	0e8H
	DB	0e8H
	DB	0f0H
	DB	0ffH
	DB	0e8H
	DB	0e8H
	DB	0f0H
	DB	0ffH
	DB	0e8H
	DB	0e8H
	DB	0e8H
	DB	0ffH
	DB	0e8H
	DB	0e8H
	DB	0e8H
	DB	0ffH
	DB	0e0H
	DB	0e8H
	DB	0e8H
	DB	0ffH
	DB	0e8H
	DB	0e4H
	DB	0e8H
	DB	0ffH
	DB	0e8H
	DB	0e4H
	DB	0e8H
	DB	0ffH
	DB	0e0H
	DB	0e0H
	DB	0e0H
	DB	0ffH
	DB	0e0H
	DB	0e0H
	DB	0e0H
	DB	0ffH
	DB	0e8H
	DB	0e0H
	DB	0e8H
	DB	0ffH
	DB	0e0H
	DB	0e0H
	DB	0e0H
	DB	0ffH
	DB	0e0H
	DB	0e4H
	DB	0e8H
	DB	0ffH
	DB	0e8H
	DB	0e4H
	DB	0e8H
	DB	0ffH
	DB	0e0H
	DB	0e4H
	DB	0e8H
	DB	0ffH
	DB	0e0H
	DB	0e8H
	DB	0e8H
	DB	0ffH
	DB	0e8H
	DB	0ecH
	DB	0e8H
	DB	0ffH
	DB	0e8H
	DB	0ecH
	DB	0f0H
	DB	0ffH
	DB	0e8H
	DB	0e8H
	DB	0e8H
	DB	0ffH
	DB	0e8H
	DB	0e8H
	DB	0e8H
	DB	0ffH
	DB	0e8H
	DB	0e8H
	DB	0e8H
	DB	0ffH
	DB	0e8H
	DB	0e8H
	DB	0e8H
	DB	0ffH
	DB	0e0H
	DB	0e8H
	DB	0e8H
	DB	0ffH
	DB	0e8H
	DB	0e4H
	DB	0e8H
	DB	0ffH
	DB	0e8H
	DB	0e4H
	DB	0e8H
	DB	0ffH
	DB	0e8H
	DB	0e4H
	DB	0e8H
	DB	0ffH
	DB	0e8H
	DB	0e4H
	DB	0e8H
	DB	0ffH
	DB	0e8H
	DB	0e8H
	DB	0e8H
	DB	0ffH
	DB	0e8H
	DB	0e8H
	DB	0e8H
	DB	0ffH
	DB	0e8H
	DB	0e8H
	DB	0f0H
	DB	0ffH
	DB	0f0H
	DB	0e8H
	DB	0f0H
	DB	0ffH
	DB	0e8H
	DB	0ecH
	DB	0f0H
	DB	0ffH
	DB	0e8H
	DB	0ecH
	DB	0f0H
	DB	0ffH
	DB	0e8H
	DB	0ecH
	DB	0f0H
	DB	0ffH
	DB	0f0H
	DB	0ecH
	DB	0f0H
	DB	0ffH
	DB	0e8H
	DB	0ecH
	DB	0f0H
	DB	0ffH
	DB	0e8H
	DB	0ecH
	DB	0f0H
	DB	0ffH
	DB	0e8H
	DB	0ecH
	DB	0f0H
	DB	0ffH
	DB	0e8H
	DB	0ecH
	DB	0f0H
	DB	0ffH
	DB	0e8H
	DB	0ecH
	DB	0f8H
	DB	0ffH
	DB	0e8H
	DB	0ecH
	DB	0f0H
	DB	0ffH
	DB	0e8H
	DB	0ecH
	DB	0f0H
	DB	0ffH
	DB	0e8H
	DB	0ecH
	DB	0f8H
	DB	0ffH
	DB	0f0H
	DB	0f0H
	DB	0f0H
	DB	0ffH
	DB	0e8H
	DB	0ecH
	DB	0f0H
	DB	0ffH
	DB	0e8H
	DB	0ecH
	DB	0f0H
	DB	0ffH
	DB	0e8H
	DB	0e8H
	DB	0f0H
	DB	0ffH
	DB	0e8H
	DB	0e8H
	DB	0e8H
	DB	0ffH
	DB	0e8H
	DB	0e8H
	DB	0e8H
	DB	0ffH
	DB	0e8H
	DB	0e8H
	DB	0e8H
	DB	0ffH
	DB	0e0H
	DB	0e4H
	DB	0e8H
	DB	0ffH
	DB	0e0H
	DB	0e4H
	DB	0e8H
	DB	0ffH
	DB	0e8H
	DB	0e4H
	DB	0e0H
	DB	0ffH
	DB	0e0H
	DB	0e4H
	DB	0e0H
	DB	0ffH
	DB	0e0H
	DB	0e4H
	DB	0e0H
	DB	0ffH
	DB	0e0H
	DB	0e4H
	DB	0e0H
	DB	0ffH
	DB	0e0H
	DB	0e0H
	DB	0e0H
	DB	0ffH
	DB	0e0H
	DB	0e4H
	DB	0e0H
	DB	0ffH
	DB	0e8H
	DB	0e4H
	DB	0e0H
	DB	0ffH
	DB	0e0H
	DB	0e4H
	DB	0e0H
	DB	0ffH
	DB	0e0H
	DB	0e4H
	DB	0e0H
	DB	0ffH
	DB	0e0H
	DB	0e0H
	DB	0e0H
	DB	0ffH
	DB	0e0H
	DB	0dcH
	DB	0e0H
	DB	0ffH
	DB	0e0H
	DB	0d8H
	DB	0d0H
	DB	0ffH
	DB	0d8H
	DB	0d0H
	DB	0c8H
	DB	0ffH
	DB	0d0H
	DB	0ccH
	DB	0c0H
	DB	0ffH
	DB	0d0H
	DB	0ccH
	DB	0c0H
	DB	0ffH
	DB	0d0H
	DB	0ccH
	DB	0c0H
	DB	0ffH
	DB	0d8H
	DB	0ccH
	DB	0b8H
	DB	0ffH
	DB	0d0H
	DB	0ccH
	DB	0b8H
	DB	0ffH
	DB	0d8H
	DB	0c8H
	DB	0b8H
	DB	0ffH
	DB	0d8H
	DB	0c8H
	DB	0b8H
	DB	0ffH
	DB	0d0H
	DB	0c8H
	DB	0b8H
	DB	0ffH
	DB	0d0H
	DB	0c8H
	DB	0b8H
	DB	0ffH
	DB	0d8H
	DB	0c8H
	DB	0b0H
	DB	0ffH
	DB	0d0H
	DB	0c8H
	DB	0b8H
	DB	0ffH
	DB	0d0H
	DB	0c8H
	DB	0b8H
	DB	0ffH
	DB	0d8H
	DB	0c8H
	DB	0b0H
	DB	0ffH
	DB	0d0H
	DB	0c8H
	DB	0b8H
	DB	0ffH
	DB	0d8H
	DB	0c8H
	DB	0b0H
	DB	0ffH
	DB	0d8H
	DB	0c8H
	DB	0b0H
	DB	0ffH
	DB	0d8H
	DB	0c8H
	DB	0b8H
	DB	0ffH
	DB	0d8H
	DB	0c8H
	DB	0b0H
	DB	0ffH
	DB	0d0H
	DB	0c8H
	DB	0b0H
	DB	0ffH
	DB	0d0H
	DB	0c8H
	DB	0b0H
	DB	0ffH
	DB	0d0H
	DB	0c4H
	DB	0b0H
	DB	0ffH
	DB	0d0H
	DB	0c8H
	DB	0b0H
	DB	0ffH
	DB	0d0H
	DB	0ccH
	DB	0b8H
	DB	0ffH
	DB	0d0H
	DB	0ccH
	DB	0c0H
	DB	0ffH
	DB	0d8H
	DB	0d0H
	DB	0c8H
	DB	0ffH
	DB	0d8H
	DB	0d8H
	DB	0d0H
	DB	0ffH
	DB	0d8H
	DB	0d8H
	DB	0d0H
	DB	0ffH
	DB	0d8H
	DB	0d8H
	DB	0d0H
	DB	0ffH
	DB	0e0H
	DB	0d4H
	DB	0c8H
	DB	0ffH
	DB	0d8H
	DB	0d0H
	DB	0c8H
	DB	0ffH
	DB	0d0H
	DB	0ccH
	DB	0c0H
	DB	0ffH
	DB	0d0H
	DB	0ccH
	DB	0c0H
	DB	0ffH
	DB	0d0H
	DB	0ccH
	DB	0b8H
	DB	0ffH
	DB	0d8H
	DB	0c8H
	DB	0b8H
	DB	0ffH
	DB	0d0H
	DB	0c8H
	DB	0b0H
	DB	0ffH
	DB	0d8H
	DB	0c8H
	DB	0b8H
	DB	0ffH
	DB	0d8H
	DB	0c8H
	DB	0b8H
	DB	0ffH
	DB	0d0H
	DB	0c4H
	DB	0b0H
	DB	0ffH
	DB	0c8H
	DB	0c8H
	DB	0b8H
	DB	0ffH
	DB	0d0H
	DB	0c8H
	DB	0b8H
	DB	0ffH
	DB	0d0H
	DB	0c8H
	DB	0b8H
	DB	0ffH
	DB	0d0H
	DB	0c8H
	DB	0b8H
	DB	0ffH
	DB	0d0H
	DB	0c8H
	DB	0b8H
	DB	0ffH
	DB	0d0H
	DB	0c8H
	DB	0b8H
	DB	0ffH
	DB	0d8H
	DB	0c8H
	DB	0b8H
	DB	0ffH
	DB	0d0H
	DB	0c8H
	DB	0b8H
	DB	0ffH
	DB	0d0H
	DB	0c4H
	DB	0c0H
	DB	0ffH
	DB	0d8H
	DB	0ccH
	DB	0c8H
	DB	0ffH
	DB	0d8H
	DB	0ccH
	DB	0c0H
	DB	0ffH
	DB	0d8H
	DB	0ccH
	DB	0c0H
	DB	0ffH
	DB	0d8H
	DB	0d0H
	DB	0c8H
	DB	0ffH
	DB	0e0H
	DB	0d8H
	DB	0d8H
	DB	0ffH
	DB	0e0H
	DB	0e0H
	DB	0e0H
	DB	0ffH
	DB	0e8H
	DB	0e0H
	DB	0e0H
	DB	0ffH
	DB	0e0H
	DB	0dcH
	DB	0e0H
	DB	0ffH
	DB	0e0H
	DB	0d8H
	DB	0e0H
	DB	0ffH
	DB	0e0H
	DB	0dcH
	DB	0d8H
	DB	0ffH
	DB	0e0H
	DB	0dcH
	DB	0e0H
	DB	0ffH
	DB	0e0H
	DB	0e0H
	DB	0e0H
	DB	0ffH
	DB	0e0H
	DB	0e4H
	DB	0e0H
	DB	0ffH
	DB	0e0H
	DB	0e4H
	DB	0e0H
	DB	0ffH
	DB	0e0H
	DB	0e0H
	DB	0e0H
	DB	0ffH
	DB	0e0H
	DB	0e0H
	DB	0e0H
	DB	0ffH
	DB	0e0H
	DB	0e0H
	DB	0e0H
	DB	0ffH
	DB	0e0H
	DB	0e0H
	DB	0e0H
	DB	0ffH
	DB	0e0H
	DB	0e0H
	DB	0e0H
	DB	0ffH
	DB	0e0H
	DB	0e0H
	DB	0e0H
	DB	0ffH
	DB	0e0H
	DB	0e0H
	DB	0e0H
	DB	0ffH
	DB	0e8H
	DB	0e8H
	DB	0e8H
	DB	0ffH
	DB	0e8H
	DB	0e8H
	DB	0e8H
	DB	0ffH
	DB	0e8H
	DB	0e8H
	DB	0e8H
	DB	0ffH
	DB	0e8H
	DB	0e8H
	DB	0e8H
	DB	0ffH
	DB	0e8H
	DB	0ecH
	DB	0f0H
	DB	0ffH
	DB	0e8H
	DB	0ecH
	DB	0f0H
	DB	0ffH
	DB	0e8H
	DB	0ecH
	DB	0f0H
	DB	0ffH
	DB	0e8H
	DB	0ecH
	DB	0f0H
	DB	0ffH
	DB	0e8H
	DB	0ecH
	DB	0e8H
	DB	0ffH
	DB	0e8H
	DB	0ecH
	DB	0e8H
	DB	0ffH
	DB	0e8H
	DB	0ecH
	DB	0f0H
	DB	0ffH
	DB	0e8H
	DB	0ecH
	DB	0e8H
	DB	0ffH
	DB	0e8H
	DB	0ecH
	DB	0f0H
	DB	0ffH
	DB	0e8H
	DB	0ecH
	DB	0e8H
	DB	0ffH
	DB	0e8H
	DB	0e8H
	DB	0e8H
	DB	0ffH
	DB	0e8H
	DB	0ecH
	DB	0f0H
	DB	0ffH
	DB	0e8H
	DB	0e8H
	DB	0e8H
	DB	0ffH
	DB	0e8H
	DB	0e8H
	DB	0e8H
	DB	0ffH
	DB	0e0H
	DB	0e4H
	DB	0e8H
	DB	0ffH
	DB	0e0H
	DB	0e4H
	DB	0e8H
	DB	0ffH
	DB	0e0H
	DB	0e0H
	DB	0e0H
	DB	0ffH
	DB	0e0H
	DB	0e0H
	DB	0e0H
	DB	0ffH
	DB	0e0H
	DB	0dcH
	DB	0d8H
	DB	0ffH
	DB	0d8H
	DB	0d8H
	DB	0d8H
	DB	0ffH
	DB	0d8H
	DB	0d8H
	DB	0d8H
	DB	0ffH
	DB	0d8H
	DB	0d8H
	DB	0d8H
	DB	0ffH
	DB	0d8H
	DB	0d8H
	DB	0d8H
	DB	0ffH
	DB	0d8H
	DB	0e0H
	DB	0e0H
	DB	0ffH
	DB	0e0H
	DB	0e8H
	DB	0e8H
	DB	0ffH
	DB	0e8H
	DB	0ecH
	DB	0e8H
	DB	0ffH
	DB	0e8H
	DB	0ecH
	DB	0f0H
	DB	0ffH
	DB	0e8H
	DB	0ecH
	DB	0e8H
	DB	0ffH
	DB	0e8H
	DB	0ecH
	DB	0e8H
	DB	0ffH
	DB	0e8H
	DB	0ecH
	DB	0f0H
	DB	0ffH
	DB	0e8H
	DB	0ecH
	DB	0e8H
	DB	0ffH
	DB	0e8H
	DB	0ecH
	DB	0f0H
	DB	0ffH
	DB	0e8H
	DB	0ecH
	DB	0f0H
	DB	0ffH
	DB	0e8H
	DB	0ecH
	DB	0f0H
	DB	0ffH
	DB	0e0H
	DB	0e8H
	DB	0e8H
	DB	0ffH
	DB	0e0H
	DB	0e8H
	DB	0e8H
	DB	0ffH
	DB	0e8H
	DB	0e8H
	DB	0e8H
	DB	0ffH
	DB	0e8H
	DB	0ecH
	DB	0e8H
	DB	0ffH
	DB	0e0H
	DB	0ecH
	DB	0f0H
	DB	0ffH
	DB	0e8H
	DB	0e8H
	DB	0e8H
	DB	0ffH
	DB	0e8H
	DB	0ecH
	DB	0f0H
	DB	0ffH
	DB	0e8H
	DB	0e8H
	DB	0f0H
	DB	0ffH
	DB	0e8H
	DB	0e8H
	DB	0e8H
	DB	0ffH
	DB	0e0H
	DB	0e8H
	DB	0e8H
	DB	0ffH
	DB	0e8H
	DB	0e8H
	DB	0e8H
	DB	0ffH
	DB	0e0H
	DB	0e4H
	DB	0e8H
	DB	0ffH
	DB	0e0H
	DB	0e4H
	DB	0e8H
	DB	0ffH
	DB	0e0H
	DB	0e4H
	DB	0e8H
	DB	0ffH
	DB	0e0H
	DB	0e4H
	DB	0e8H
	DB	0ffH
	DB	0e0H
	DB	0e4H
	DB	0e8H
	DB	0ffH
	DB	0e0H
	DB	0e4H
	DB	0e0H
	DB	0ffH
	DB	0e0H
	DB	0e4H
	DB	0e0H
	DB	0ffH
	DB	0e0H
	DB	0e4H
	DB	0e8H
	DB	0ffH
	DB	0e0H
	DB	0e4H
	DB	0e8H
	DB	0ffH
	DB	0e0H
	DB	0e4H
	DB	0e0H
	DB	0ffH
	DB	0f8H
	DB	0fcH
	DB	0f8H
	DB	0ffH
	DB	0f8H
	DB	0fcH
	DB	0f8H
	DB	0ffH
	DB	0f8H
	DB	0fcH
	DB	0f8H
	DB	0ffH
	DB	0f8H
	DB	0fcH
	DB	0f8H
	DB	0ffH
	DB	0f8H
	DB	0fcH
	DB	0f8H
	DB	0ffH
	DB	0f8H
	DB	0fcH
	DB	0f8H
	DB	0ffH
	DB	0f8H
	DB	0fcH
	DB	0f8H
	DB	0ffH
	DB	0f8H
	DB	0fcH
	DB	0f8H
	DB	0ffH
	DB	0f8H
	DB	0fcH
	DB	0f8H
	DB	0ffH
	DB	0f8H
	DB	0fcH
	DB	0f8H
	DB	0ffH
	DB	0f8H
	DB	0fcH
	DB	0f8H
	DB	0ffH
	DB	0f8H
	DB	0fcH
	DB	0f8H
	DB	0ffH
	DB	0f8H
	DB	0f8H
	DB	0f8H
	DB	0ffH
	DB	0f8H
	DB	0fcH
	DB	0f8H
	DB	0ffH
	DB	0f8H
	DB	0fcH
	DB	0f8H
	DB	0ffH
	DB	0f8H
	DB	0fcH
	DB	0f8H
	DB	0ffH
	DB	0f8H
	DB	0fcH
	DB	0f8H
	DB	0ffH
	DB	0f8H
	DB	0fcH
	DB	0f8H
	DB	0ffH
	DB	0f8H
	DB	0fcH
	DB	0f8H
	DB	0ffH
	DB	0f8H
	DB	0fcH
	DB	0f8H
	DB	0ffH
	DB	0f8H
	DB	0fcH
	DB	0f8H
	DB	0ffH
	DB	0f8H
	DB	0fcH
	DB	0f8H
	DB	0ffH
	DB	0f8H
	DB	0fcH
	DB	0f8H
	DB	0ffH
	DB	0f8H
	DB	0fcH
	DB	0f8H
	DB	0ffH
	DB	0f8H
	DB	0fcH
	DB	0f8H
	DB	0ffH
	DB	0f8H
	DB	0fcH
	DB	0f8H
	DB	0ffH
	DB	0f8H
	DB	0fcH
	DB	0f8H
	DB	0ffH
	DB	0f8H
	DB	0fcH
	DB	0f8H
	DB	0ffH
	DB	0f8H
	DB	0fcH
	DB	0f8H
	DB	0ffH
	DB	0f8H
	DB	0fcH
	DB	0f8H
	DB	0ffH
	DB	0f8H
	DB	0f8H
	DB	0f8H
	DB	0ffH
	DB	0f8H
	DB	0f8H
	DB	0f8H
	DB	0ffH
	DB	0f0H
	DB	0f8H
	DB	0f8H
	DB	0ffH
	DB	0f0H
	DB	0f4H
	DB	0f8H
	DB	0ffH
	DB	0f8H
	DB	0f8H
	DB	0f8H
	DB	0ffH
	DB	0f8H
	DB	0fcH
	DB	0f8H
	DB	0ffH
	DB	0f8H
	DB	0fcH
	DB	0f8H
	DB	0ffH
	DB	0f8H
	DB	0fcH
	DB	0f8H
	DB	0ffH
	DB	0f8H
	DB	0fcH
	DB	0f8H
	DB	0ffH
	DB	0f8H
	DB	0fcH
	DB	0f8H
	DB	0ffH
	DB	0f8H
	DB	0fcH
	DB	0f8H
	DB	0ffH
	DB	0f8H
	DB	0fcH
	DB	0f8H
	DB	0ffH
	DB	0f8H
	DB	0fcH
	DB	0f8H
	DB	0ffH
	DB	0f8H
	DB	0fcH
	DB	0f8H
	DB	0ffH
	DB	0f8H
	DB	0fcH
	DB	0f8H
	DB	0ffH
	DB	0f8H
	DB	0fcH
	DB	0f8H
	DB	0ffH
	DB	0f8H
	DB	0fcH
	DB	0f8H
	DB	0ffH
	DB	0f8H
	DB	0fcH
	DB	0f8H
	DB	0ffH
	DB	0f8H
	DB	0fcH
	DB	0f8H
	DB	0ffH
	DB	0f8H
	DB	0fcH
	DB	0f8H
	DB	0ffH
	DB	0f8H
	DB	0fcH
	DB	0f8H
	DB	0ffH
	DB	0f8H
	DB	0fcH
	DB	0f8H
	DB	0ffH
	DB	0f8H
	DB	0fcH
	DB	0f8H
	DB	0ffH
	DB	0f8H
	DB	0fcH
	DB	0f8H
	DB	0ffH
	DB	0f8H
	DB	0fcH
	DB	0f8H
	DB	0ffH
	DB	0f8H
	DB	0fcH
	DB	0f8H
	DB	0ffH
	DB	0f8H
	DB	0fcH
	DB	0f8H
	DB	0ffH
	DB	0f8H
	DB	0fcH
	DB	0f8H
	DB	0ffH
	DB	0f8H
	DB	0fcH
	DB	0f8H
	DB	0ffH
	DB	0f8H
	DB	0fcH
	DB	0f8H
	DB	0ffH
	DB	0f8H
	DB	0f8H
	DB	0f8H
	DB	0ffH
	DB	0f8H
	DB	0fcH
	DB	0f8H
	DB	0ffH
	DB	0f8H
	DB	0fcH
	DB	0f8H
	DB	0ffH
	DB	0f8H
	DB	0f8H
	DB	0f8H
	DB	0ffH
	DB	0f8H
	DB	0fcH
	DB	0f8H
	DB	0ffH
	DB	0f8H
	DB	0fcH
	DB	0f8H
	DB	0ffH
	DB	0f8H
	DB	0fcH
	DB	0f8H
	DB	0ffH
	DB	0f8H
	DB	0fcH
	DB	0f8H
	DB	0ffH
	DB	0f8H
	DB	0f8H
	DB	0f8H
	DB	0ffH
	DB	0f8H
	DB	0fcH
	DB	0f8H
	DB	0ffH
	DB	0f8H
	DB	0fcH
	DB	0f8H
	DB	0ffH
	DB	0f8H
	DB	0f8H
	DB	0f8H
	DB	0ffH
	DB	0f8H
	DB	0fcH
	DB	0f8H
	DB	0ffH
	DB	0f8H
	DB	0fcH
	DB	0f8H
	DB	0ffH
	DB	0f8H
	DB	0fcH
	DB	0f8H
	DB	0ffH
	DB	0f8H
	DB	0fcH
	DB	0f8H
	DB	0ffH
	DB	0f8H
	DB	0fcH
	DB	0f8H
	DB	0ffH
	DB	0f8H
	DB	0fcH
	DB	0f8H
	DB	0ffH
	DB	0f8H
	DB	0fcH
	DB	0f8H
	DB	0ffH
	DB	0f8H
	DB	0fcH
	DB	0f8H
	DB	0ffH
	DB	0f8H
	DB	0fcH
	DB	0f8H
	DB	0ffH
	DB	0f8H
	DB	0fcH
	DB	0f8H
	DB	0ffH
	DB	0f8H
	DB	0fcH
	DB	0f8H
	DB	0ffH
	DB	0f8H
	DB	0fcH
	DB	0f8H
	DB	0ffH
	DB	0f8H
	DB	0fcH
	DB	0f8H
	DB	0ffH
	DB	0f8H
	DB	0fcH
	DB	0f8H
	DB	0ffH
	DB	0f8H
	DB	0fcH
	DB	0f8H
	DB	0ffH
	DB	0f8H
	DB	0fcH
	DB	0f8H
	DB	0ffH
	DB	0f8H
	DB	0fcH
	DB	0f8H
	DB	0ffH
	DB	0f8H
	DB	0fcH
	DB	0f8H
	DB	0ffH
	DB	0f8H
	DB	0fcH
	DB	0f8H
	DB	0ffH
	DB	0f8H
	DB	0fcH
	DB	0f8H
	DB	0ffH
	DB	0f8H
	DB	0fcH
	DB	0f8H
	DB	0ffH
	DB	0f8H
	DB	0fcH
	DB	0f8H
	DB	0ffH
	DB	0f8H
	DB	0fcH
	DB	0f8H
	DB	0ffH
	DB	0f8H
	DB	0fcH
	DB	0f8H
	DB	0ffH
	DB	0f8H
	DB	0fcH
	DB	0f8H
	DB	0ffH
	DB	0f8H
	DB	0f8H
	DB	0f8H
	DB	0ffH
	DB	0f8H
	DB	0f8H
	DB	0f8H
	DB	0ffH
	DB	0f0H
	DB	0f8H
	DB	0f8H
	DB	0ffH
	DB	0f0H
	DB	0f4H
	DB	0f0H
	DB	0ffH
	DB	0f8H
	DB	0f4H
	DB	0f8H
	DB	0ffH
	DB	0f0H
	DB	0f4H
	DB	0f8H
	DB	0ffH
	DB	0f0H
	DB	0f4H
	DB	0f0H
	DB	0ffH
	DB	0f0H
	DB	0f0H
	DB	0f0H
	DB	0ffH
	DB	0f0H
	DB	0f0H
	DB	0f0H
	DB	0ffH
	DB	0f0H
	DB	0f0H
	DB	0f0H
	DB	0ffH
	DB	0f0H
	DB	0f0H
	DB	0f0H
	DB	0ffH
	DB	0f0H
	DB	0f0H
	DB	0f0H
	DB	0ffH
	DB	0f0H
	DB	0f0H
	DB	0f0H
	DB	0ffH
	DB	0f0H
	DB	0f0H
	DB	0f0H
	DB	0ffH
	DB	0e8H
	DB	0ecH
	DB	0e8H
	DB	0ffH
	DB	0f0H
	DB	0f0H
	DB	0f0H
	DB	0ffH
	DB	0f0H
	DB	0ecH
	DB	0f0H
	DB	0ffH
	DB	0f0H
	DB	0f0H
	DB	0f0H
	DB	0ffH
	DB	0f0H
	DB	0f0H
	DB	0f0H
	DB	0ffH
	DB	0f0H
	DB	0f0H
	DB	0f0H
	DB	0ffH
	DB	0f0H
	DB	0f0H
	DB	0f0H
	DB	0ffH
	DB	0f0H
	DB	0f0H
	DB	0f0H
	DB	0ffH
	DB	0f0H
	DB	0f0H
	DB	0f0H
	DB	0ffH
	DB	0f0H
	DB	0f0H
	DB	0f0H
	DB	0ffH
	DB	0f0H
	DB	0f0H
	DB	0f0H
	DB	0ffH
	DB	0f0H
	DB	0f0H
	DB	0f0H
	DB	0ffH
	DB	0f0H
	DB	0f0H
	DB	0f0H
	DB	0ffH
	DB	0e8H
	DB	0ecH
	DB	0f0H
	DB	0ffH
	DB	0e8H
	DB	0ecH
	DB	0e8H
	DB	0ffH
	DB	0f0H
	DB	0ecH
	DB	0f0H
	DB	0ffH
	DB	0f0H
	DB	0f0H
	DB	0f0H
	DB	0ffH
	DB	0f0H
	DB	0f0H
	DB	0f0H
	DB	0ffH
	DB	0f0H
	DB	0f0H
	DB	0f0H
	DB	0ffH
	DB	0f0H
	DB	0f4H
	DB	0f8H
	DB	0ffH
	DB	0f8H
	DB	0f4H
	DB	0f8H
	DB	0ffH
	DB	0f0H
	DB	0f8H
	DB	0f8H
	DB	0ffH
	DB	0f8H
	DB	0f8H
	DB	0f8H
	DB	0ffH
	DB	0f0H
	DB	0f4H
	DB	0f8H
	DB	0ffH
	DB	0f0H
	DB	0f4H
	DB	0f0H
	DB	0ffH
	DB	0f0H
	DB	0f4H
	DB	0f0H
	DB	0ffH
	DB	0f0H
	DB	0f4H
	DB	0f8H
	DB	0ffH
	DB	0f0H
	DB	0f0H
	DB	0f0H
	DB	0ffH
	DB	0f0H
	DB	0f0H
	DB	0f0H
	DB	0ffH
	DB	0f0H
	DB	0f0H
	DB	0f8H
	DB	0ffH
	DB	0f0H
	DB	0f4H
	DB	0f8H
	DB	0ffH
	DB	0f0H
	DB	0f4H
	DB	0f0H
	DB	0ffH
	DB	0f0H
	DB	0f4H
	DB	0f8H
	DB	0ffH
	DB	0f0H
	DB	0f4H
	DB	0f0H
	DB	0ffH
	DB	0f0H
	DB	0f4H
	DB	0f8H
	DB	0ffH
	DB	0f8H
	DB	0f8H
	DB	0f8H
	DB	0ffH
	DB	0f0H
	DB	0f4H
	DB	0f8H
	DB	0ffH
	DB	0f0H
	DB	0f4H
	DB	0f0H
	DB	0ffH
	DB	0f8H
	DB	0f8H
	DB	0f8H
	DB	0ffH
	DB	0f0H
	DB	0f4H
	DB	0f8H
	DB	0ffH
	DB	0f0H
	DB	0f4H
	DB	0f0H
	DB	0ffH
	DB	0f0H
	DB	0f4H
	DB	0f0H
	DB	0ffH
	DB	0f0H
	DB	0f0H
	DB	0f0H
	DB	0ffH
	DB	0f0H
	DB	0f0H
	DB	0f0H
	DB	0ffH
	DB	0f0H
	DB	0ecH
	DB	0f0H
	DB	0ffH
	DB	0f0H
	DB	0ecH
	DB	0f0H
	DB	0ffH
	DB	0f0H
	DB	0ecH
	DB	0e8H
	DB	0ffH
	DB	0e8H
	DB	0ecH
	DB	0f0H
	DB	0ffH
	DB	0e8H
	DB	0ecH
	DB	0f0H
	DB	0ffH
	DB	0f0H
	DB	0ecH
	DB	0e8H
	DB	0ffH
	DB	0f0H
	DB	0ecH
	DB	0e8H
	DB	0ffH
	DB	0e8H
	DB	0ecH
	DB	0f0H
	DB	0ffH
	DB	0e8H
	DB	0ecH
	DB	0e8H
	DB	0ffH
	DB	0f0H
	DB	0ecH
	DB	0f0H
	DB	0ffH
	DB	0f0H
	DB	0ecH
	DB	0e8H
	DB	0ffH
	DB	0e8H
	DB	0ecH
	DB	0e8H
	DB	0ffH
	DB	0e8H
	DB	0ecH
	DB	0f0H
	DB	0ffH
	DB	0f0H
	DB	0ecH
	DB	0f0H
	DB	0ffH
	DB	0e8H
	DB	0ecH
	DB	0e8H
	DB	0ffH
	DB	0f0H
	DB	0ecH
	DB	0e8H
	DB	0ffH
	DB	0f0H
	DB	0ecH
	DB	0f0H
	DB	0ffH
	DB	0e8H
	DB	0ecH
	DB	0f0H
	DB	0ffH
	DB	0f0H
	DB	0f0H
	DB	0f0H
	DB	0ffH
	DB	0f0H
	DB	0f4H
	DB	0f8H
	DB	0ffH
	DB	0f0H
	DB	0f4H
	DB	0f0H
	DB	0ffH
	DB	0f0H
	DB	0f4H
	DB	0f0H
	DB	0ffH
	DB	0f0H
	DB	0f0H
	DB	0f0H
	DB	0ffH
	DB	0f0H
	DB	0f0H
	DB	0f0H
	DB	0ffH
	DB	0f0H
	DB	0f0H
	DB	0f0H
	DB	0ffH
	DB	0e8H
	DB	0ecH
	DB	0f0H
	DB	0ffH
	DB	0e8H
	DB	0ecH
	DB	0e8H
	DB	0ffH
	DB	0e8H
	DB	0e8H
	DB	0e8H
	DB	0ffH
	DB	0e8H
	DB	0e8H
	DB	0e8H
	DB	0ffH
	DB	0e8H
	DB	0e8H
	DB	0e8H
	DB	0ffH
	DB	0e8H
	DB	0ecH
	DB	0f0H
	DB	0ffH
	DB	0f0H
	DB	0f0H
	DB	0f0H
	DB	0ffH
	DB	0f0H
	DB	0f0H
	DB	0f0H
	DB	0ffH
	DB	0f0H
	DB	0f0H
	DB	0f0H
	DB	0ffH
	DB	0f0H
	DB	0f4H
	DB	0f0H
	DB	0ffH
	DB	0f0H
	DB	0f4H
	DB	0f8H
	DB	0ffH
	DB	0f0H
	DB	0f4H
	DB	0f8H
	DB	0ffH
	DB	0f0H
	DB	0f4H
	DB	0f8H
	DB	0ffH
	DB	0f0H
	DB	0f4H
	DB	0f8H
	DB	0ffH
	DB	0f0H
	DB	0f0H
	DB	0f0H
	DB	0ffH
	DB	0f0H
	DB	0f0H
	DB	0f0H
	DB	0ffH
	DB	0f0H
	DB	0f0H
	DB	0f0H
	DB	0ffH
	DB	0e8H
	DB	0f0H
	DB	0f0H
	DB	0ffH
	DB	0e8H
	DB	0ecH
	DB	0f0H
	DB	0ffH
	DB	0e8H
	DB	0e8H
	DB	0e8H
	DB	0ffH
	DB	0e8H
	DB	0e8H
	DB	0e8H
	DB	0ffH
	DB	0e8H
	DB	0e8H
	DB	0e8H
	DB	0ffH
	DB	0e8H
	DB	0e8H
	DB	0e8H
	DB	0ffH
	DB	0e8H
	DB	0e8H
	DB	0e8H
	DB	0ffH
	DB	0e8H
	DB	0e8H
	DB	0e8H
	DB	0ffH
	DB	0e8H
	DB	0e8H
	DB	0e8H
	DB	0ffH
	DB	0e8H
	DB	0e8H
	DB	0e8H
	DB	0ffH
	DB	0e8H
	DB	0e8H
	DB	0e8H
	DB	0ffH
	DB	0e8H
	DB	0e8H
	DB	0e8H
	DB	0ffH
	DB	0e0H
	DB	0e4H
	DB	0e0H
	DB	0ffH
	DB	0e0H
	DB	0e0H
	DB	0e0H
	DB	0ffH
	DB	0e0H
	DB	0dcH
	DB	0d8H
	DB	0ffH
	DB	0e0H
	DB	0dcH
	DB	0d8H
	DB	0ffH
	DB	0e0H
	DB	0d8H
	DB	0d0H
	DB	0ffH
	DB	0e0H
	DB	0d4H
