; Listing generated by Microsoft (R) Optimizing Compiler Version 19.27.29112.0 

	TITLE	D:\hackTuesProject\project\TouchGFX\generated\images\src\image_Sketch001.cpp
	.686P
	.XMM
	include listing.inc
	.model	flat

INCLUDELIB MSVCRTD
INCLUDELIB OLDNAMES

PUBLIC	?image_sketch001@@3QBEB				; image_sketch001
CONST	SEGMENT
?image_sketch001@@3QBEB DB 08H				; image_sketch001
	DB	042H
	DB	08H
	DB	042H
	DB	08H
	DB	042H
	DB	08H
	DB	042H
	DB	08H
	DB	042H
	DB	08H
	DB	042H
	DB	08H
	DB	042H
	DB	08H
	DB	042H
	DB	08H
	DB	042H
	DB	08H
	DB	042H
	DB	08H
	DB	042H
	DB	08H
	DB	042H
	DB	08H
	DB	042H
	DB	08H
	DB	042H
	DB	08H
	DB	042H
	DB	08H
	DB	042H
	DB	08H
	DB	042H
	DB	08H
	DB	042H
	DB	08H
	DB	042H
	DB	08H
	DB	042H
	DB	08H
	DB	042H
	DB	08H
	DB	042H
	DB	08H
	DB	042H
	DB	08H
	DB	042H
	DB	08H
	DB	042H
	DB	08H
	DB	042H
	DB	08H
	DB	042H
	DB	08H
	DB	042H
	DB	08H
	DB	042H
	DB	08H
	DB	042H
	DB	08H
	DB	042H
	DB	08H
	DB	042H
	DB	08H
	DB	042H
	DB	08H
	DB	042H
	DB	08H
	DB	042H
	DB	08H
	DB	042H
	DB	08H
	DB	042H
	DB	08H
	DB	042H
	DB	08H
	DB	042H
	DB	08H
	DB	042H
	DB	08H
	DB	042H
	DB	08H
	DB	042H
	DB	08H
	DB	042H
	DB	08H
	DB	042H
	DB	08H
	DB	042H
	DB	08H
	DB	042H
	DB	08H
	DB	042H
	DB	08H
	DB	042H
	DB	08H
	DB	042H
	DB	08H
	DB	042H
	DB	08H
	DB	042H
	DB	08H
	DB	042H
	DB	08H
	DB	042H
	DB	08H
	DB	042H
	DB	08H
	DB	042H
	DB	08H
	DB	042H
	DB	08H
	DB	042H
	DB	08H
	DB	042H
	DB	08H
	DB	042H
	DB	08H
	DB	042H
	DB	08H
	DB	042H
	DB	08H
	DB	042H
	DB	08H
	DB	042H
	DB	08H
	DB	042H
	DB	08H
	DB	042H
	DB	08H
	DB	042H
	DB	08H
	DB	042H
	DB	08H
	DB	042H
	DB	08H
	DB	042H
	DB	08H
	DB	042H
	DB	08H
	DB	042H
	DB	08H
	DB	042H
	DB	08H
	DB	042H
	DB	08H
	DB	042H
	DB	08H
	DB	042H
	DB	08H
	DB	042H
	DB	08H
	DB	042H
	DB	08H
	DB	042H
	DB	08H
	DB	042H
	DB	08H
	DB	042H
	DB	08H
	DB	042H
	DB	08H
	DB	042H
	DB	08H
	DB	042H
	DB	08H
	DB	042H
	DB	028H
	DB	042H
	DB	08H
	DB	042H
	DB	08H
	DB	042H
	DB	028H
	DB	042H
	DB	08H
	DB	042H
	DB	08H
	DB	042H
	DB	028H
	DB	042H
	DB	08H
	DB	042H
	DB	08H
	DB	042H
	DB	028H
	DB	042H
	DB	08H
	DB	042H
	DB	08H
	DB	042H
	DB	028H
	DB	042H
	DB	08H
	DB	042H
	DB	08H
	DB	042H
	DB	028H
	DB	042H
	DB	08H
	DB	042H
	DB	08H
	DB	042H
	DB	028H
	DB	042H
	DB	08H
	DB	042H
	DB	08H
	DB	042H
	DB	028H
	DB	042H
	DB	08H
	DB	042H
	DB	08H
	DB	042H
	DB	08H
	DB	042H
	DB	08H
	DB	042H
	DB	08H
	DB	042H
	DB	08H
	DB	042H
	DB	08H
	DB	042H
	DB	08H
	DB	042H
	DB	08H
	DB	042H
	DB	08H
	DB	042H
	DB	08H
	DB	042H
	DB	028H
	DB	042H
	DB	08H
	DB	042H
	DB	08H
	DB	042H
	DB	08H
	DB	042H
	DB	08H
	DB	042H
	DB	028H
	DB	042H
	DB	08H
	DB	042H
	DB	08H
	DB	042H
	DB	028H
	DB	042H
	DB	08H
	DB	042H
	DB	08H
	DB	042H
	DB	028H
	DB	042H
	DB	08H
	DB	042H
	DB	08H
	DB	042H
	DB	028H
	DB	042H
	DB	08H
	DB	042H
	DB	08H
	DB	042H
	DB	028H
	DB	042H
	DB	08H
	DB	042H
	DB	08H
	DB	042H
	DB	028H
	DB	042H
	DB	08H
	DB	042H
	DB	08H
	DB	042H
	DB	028H
	DB	042H
	DB	08H
	DB	042H
	DB	08H
	DB	042H
	DB	028H
	DB	042H
	DB	08H
	DB	042H
	DB	08H
	DB	042H
	DB	028H
	DB	042H
	DB	08H
	DB	042H
	DB	08H
	DB	042H
	DB	028H
	DB	042H
	DB	08H
	DB	042H
	DB	08H
	DB	042H
	DB	028H
	DB	042H
	DB	08H
	DB	042H
	DB	08H
	DB	042H
	DB	028H
	DB	042H
	DB	08H
	DB	042H
	DB	08H
	DB	042H
	DB	028H
	DB	042H
	DB	08H
	DB	042H
	DB	08H
	DB	042H
	DB	028H
	DB	042H
	DB	08H
	DB	042H
	DB	08H
	DB	042H
	DB	028H
	DB	042H
	DB	08H
	DB	042H
	DB	08H
	DB	042H
	DB	028H
	DB	042H
	DB	08H
	DB	042H
	DB	08H
	DB	042H
	DB	028H
	DB	042H
	DB	028H
	DB	042H
	DB	028H
	DB	042H
	DB	028H
	DB	042H
	DB	028H
	DB	042H
	DB	028H
	DB	042H
	DB	028H
	DB	042H
	DB	028H
	DB	042H
	DB	028H
	DB	042H
	DB	028H
	DB	042H
	DB	028H
	DB	042H
	DB	028H
	DB	042H
	DB	028H
	DB	042H
	DB	028H
	DB	042H
	DB	028H
	DB	042H
	DB	028H
	DB	042H
	DB	028H
	DB	042H
	DB	028H
	DB	042H
	DB	028H
	DB	042H
	DB	028H
	DB	042H
	DB	028H
	DB	042H
	DB	028H
	DB	042H
	DB	028H
	DB	042H
	DB	028H
	DB	042H
	DB	028H
	DB	042H
	DB	028H
	DB	042H
	DB	028H
	DB	042H
	DB	028H
	DB	042H
	DB	028H
	DB	042H
	DB	028H
	DB	042H
	DB	028H
	DB	042H
	DB	028H
	DB	042H
	DB	028H
	DB	042H
	DB	028H
	DB	042H
	DB	028H
	DB	042H
	DB	028H
	DB	042H
	DB	028H
	DB	042H
	DB	028H
	DB	042H
	DB	028H
	DB	042H
	DB	028H
	DB	042H
	DB	028H
	DB	042H
	DB	028H
	DB	042H
	DB	028H
	DB	042H
	DB	028H
	DB	042H
	DB	028H
	DB	042H
	DB	028H
	DB	042H
	DB	028H
	DB	042H
	DB	028H
	DB	042H
	DB	028H
	DB	042H
	DB	028H
	DB	042H
	DB	028H
	DB	042H
	DB	028H
	DB	042H
	DB	028H
	DB	042H
	DB	028H
	DB	042H
	DB	028H
	DB	042H
	DB	028H
	DB	042H
	DB	028H
	DB	042H
	DB	028H
	DB	042H
	DB	028H
	DB	042H
	DB	028H
	DB	042H
	DB	028H
	DB	042H
	DB	028H
	DB	042H
	DB	028H
	DB	042H
	DB	028H
	DB	042H
	DB	028H
	DB	042H
	DB	028H
	DB	042H
	DB	028H
	DB	042H
	DB	028H
	DB	042H
	DB	028H
	DB	042H
	DB	028H
	DB	042H
	DB	028H
	DB	042H
	DB	028H
	DB	042H
	DB	028H
	DB	042H
	DB	028H
	DB	042H
	DB	028H
	DB	042H
	DB	028H
	DB	042H
	DB	028H
	DB	042H
	DB	028H
	DB	042H
	DB	028H
	DB	042H
	DB	028H
	DB	042H
	DB	028H
	DB	042H
	DB	028H
	DB	042H
	DB	028H
	DB	042H
	DB	028H
	DB	042H
	DB	028H
	DB	04aH
	DB	028H
	DB	042H
	DB	028H
	DB	042H
	DB	028H
	DB	042H
	DB	028H
	DB	042H
	DB	028H
	DB	042H
	DB	028H
	DB	042H
	DB	028H
	DB	042H
	DB	028H
	DB	042H
	DB	028H
	DB	042H
	DB	028H
	DB	042H
	DB	028H
	DB	042H
	DB	028H
	DB	042H
	DB	028H
	DB	042H
	DB	028H
	DB	04aH
	DB	028H
	DB	042H
	DB	028H
	DB	042H
	DB	028H
	DB	04aH
	DB	028H
	DB	042H
	DB	028H
	DB	042H
	DB	028H
	DB	042H
	DB	028H
	DB	042H
	DB	028H
	DB	042H
	DB	028H
	DB	042H
	DB	028H
	DB	042H
	DB	028H
	DB	042H
	DB	028H
	DB	04aH
	DB	028H
	DB	042H
	DB	028H
	DB	042H
	DB	028H
	DB	042H
	DB	028H
	DB	042H
	DB	028H
	DB	042H
	DB	028H
	DB	042H
	DB	028H
	DB	042H
	DB	028H
	DB	042H
	DB	028H
	DB	042H
	DB	028H
	DB	042H
	DB	028H
	DB	042H
	DB	028H
	DB	042H
	DB	028H
	DB	042H
	DB	028H
	DB	042H
	DB	028H
	DB	042H
	DB	028H
	DB	042H
	DB	028H
	DB	042H
	DB	028H
	DB	042H
	DB	028H
	DB	042H
	DB	028H
	DB	042H
	DB	028H
	DB	042H
	DB	028H
	DB	042H
	DB	028H
	DB	042H
	DB	028H
	DB	04aH
	DB	028H
	DB	042H
	DB	028H
	DB	042H
	DB	028H
	DB	042H
	DB	028H
	DB	042H
	DB	028H
	DB	042H
	DB	028H
	DB	042H
	DB	028H
	DB	042H
	DB	028H
	DB	042H
	DB	028H
	DB	042H
	DB	028H
	DB	042H
	DB	028H
	DB	042H
	DB	028H
	DB	042H
	DB	028H
	DB	042H
	DB	028H
	DB	042H
	DB	028H
	DB	042H
	DB	028H
	DB	042H
	DB	028H
	DB	042H
	DB	028H
	DB	042H
	DB	028H
	DB	042H
	DB	028H
	DB	042H
	DB	028H
	DB	042H
	DB	028H
	DB	042H
	DB	028H
	DB	042H
	DB	028H
	DB	042H
	DB	028H
	DB	042H
	DB	028H
	DB	042H
	DB	028H
	DB	042H
	DB	028H
	DB	042H
	DB	028H
	DB	042H
	DB	028H
	DB	042H
	DB	028H
	DB	042H
	DB	028H
	DB	042H
	DB	028H
	DB	042H
	DB	028H
	DB	042H
	DB	028H
	DB	042H
	DB	028H
	DB	042H
	DB	028H
	DB	042H
	DB	028H
	DB	042H
	DB	028H
	DB	042H
	DB	028H
	DB	042H
	DB	028H
	DB	042H
	DB	028H
	DB	042H
	DB	028H
	DB	04aH
	DB	028H
	DB	04aH
	DB	028H
	DB	042H
	DB	028H
	DB	042H
	DB	028H
	DB	042H
	DB	028H
	DB	042H
	DB	028H
	DB	042H
	DB	028H
	DB	042H
	DB	028H
	DB	042H
	DB	028H
	DB	042H
	DB	028H
	DB	042H
	DB	028H
	DB	042H
	DB	028H
	DB	042H
	DB	028H
	DB	042H
	DB	028H
	DB	042H
	DB	028H
	DB	042H
	DB	028H
	DB	042H
	DB	028H
	DB	042H
	DB	028H
	DB	042H
	DB	028H
	DB	042H
	DB	028H
	DB	042H
	DB	028H
	DB	042H
	DB	028H
	DB	042H
	DB	028H
	DB	042H
	DB	028H
	DB	042H
	DB	028H
	DB	042H
	DB	028H
	DB	042H
	DB	028H
	DB	042H
	DB	028H
	DB	042H
	DB	028H
	DB	042H
	DB	028H
	DB	042H
	DB	028H
	DB	042H
	DB	028H
	DB	042H
	DB	028H
	DB	042H
	DB	028H
	DB	042H
	DB	028H
	DB	042H
	DB	028H
	DB	042H
	DB	028H
	DB	042H
	DB	028H
	DB	042H
	DB	028H
	DB	042H
	DB	028H
	DB	042H
	DB	028H
	DB	042H
	DB	028H
	DB	042H
	DB	028H
	DB	042H
	DB	028H
	DB	042H
	DB	028H
	DB	042H
	DB	028H
	DB	042H
	DB	028H
	DB	042H
	DB	028H
	DB	042H
	DB	028H
	DB	042H
	DB	028H
	DB	042H
	DB	028H
	DB	042H
	DB	028H
	DB	042H
	DB	028H
	DB	042H
	DB	028H
	DB	042H
	DB	028H
	DB	042H
	DB	028H
	DB	042H
	DB	028H
	DB	042H
	DB	028H
	DB	042H
	DB	028H
	DB	042H
	DB	028H
	DB	042H
	DB	028H
	DB	042H
	DB	028H
	DB	042H
	DB	028H
	DB	042H
	DB	028H
	DB	042H
	DB	028H
	DB	042H
	DB	028H
	DB	042H
	DB	028H
	DB	042H
	DB	028H
	DB	042H
	DB	028H
	DB	042H
	DB	028H
	DB	042H
	DB	028H
	DB	042H
	DB	028H
	DB	042H
	DB	028H
	DB	042H
	DB	028H
	DB	042H
	DB	028H
	DB	042H
	DB	028H
	DB	042H
	DB	028H
	DB	042H
	DB	028H
	DB	042H
	DB	028H
	DB	042H
	DB	028H
	DB	04aH
	DB	065H
	DB	029H
	DB	029H
	DB	042H
	DB	028H
	DB	042H
	DB	028H
	DB	042H
	DB	028H
	DB	042H
	DB	028H
	DB	042H
	DB	028H
	DB	042H
	DB	028H
	DB	042H
	DB	028H
	DB	042H
	DB	028H
	DB	042H
	DB	028H
	DB	042H
	DB	028H
	DB	042H
	DB	028H
	DB	042H
	DB	028H
	DB	042H
	DB	08H
	DB	042H
	DB	08H
	DB	042H
	DB	028H
	DB	042H
	DB	028H
	DB	042H
	DB	028H
	DB	042H
	DB	028H
	DB	042H
	DB	028H
	DB	042H
	DB	028H
	DB	042H
	DB	08H
	DB	042H
	DB	08H
	DB	042H
	DB	028H
	DB	042H
	DB	028H
	DB	042H
	DB	028H
	DB	042H
	DB	028H
	DB	042H
	DB	08H
	DB	042H
	DB	08H
	DB	042H
	DB	08H
	DB	042H
	DB	028H
	DB	042H
	DB	028H
	DB	042H
	DB	028H
	DB	042H
	DB	028H
	DB	042H
	DB	028H
	DB	042H
	DB	08H
	DB	042H
	DB	08H
	DB	042H
	DB	08H
	DB	042H
	DB	028H
	DB	042H
	DB	08H
	DB	042H
	DB	08H
	DB	042H
	DB	028H
	DB	042H
	DB	08H
	DB	042H
	DB	08H
	DB	042H
	DB	028H
	DB	042H
	DB	08H
	DB	042H
	DB	08H
	DB	042H
	DB	028H
	DB	042H
	DB	08H
	DB	042H
	DB	08H
	DB	042H
	DB	028H
	DB	042H
	DB	08H
	DB	042H
	DB	08H
	DB	042H
	DB	028H
	DB	042H
	DB	08H
	DB	042H
	DB	08H
	DB	042H
	DB	028H
	DB	042H
	DB	08H
	DB	042H
	DB	08H
	DB	042H
	DB	028H
	DB	042H
	DB	028H
	DB	042H
	DB	028H
	DB	042H
	DB	028H
	DB	042H
	DB	028H
	DB	042H
	DB	028H
	DB	042H
	DB	028H
	DB	042H
	DB	028H
	DB	042H
	DB	028H
	DB	042H
	DB	028H
	DB	042H
	DB	028H
	DB	042H
	DB	028H
	DB	042H
	DB	028H
	DB	042H
	DB	028H
	DB	042H
	DB	028H
	DB	042H
	DB	028H
	DB	042H
	DB	08H
	DB	042H
	DB	08H
	DB	042H
	DB	08H
	DB	042H
	DB	028H
	DB	042H
	DB	028H
	DB	042H
	DB	08H
	DB	042H
	DB	08H
	DB	042H
	DB	08H
	DB	042H
	DB	08H
	DB	042H
	DB	08H
	DB	042H
	DB	08H
	DB	042H
	DB	08H
	DB	042H
	DB	08H
	DB	042H
	DB	08H
	DB	042H
	DB	08H
	DB	042H
	DB	08H
	DB	042H
	DB	08H
	DB	042H
	DB	08H
	DB	042H
	DB	08H
	DB	042H
	DB	08H
	DB	042H
	DB	08H
	DB	042H
	DB	08H
	DB	042H
	DB	08H
	DB	042H
	DB	08H
	DB	042H
	DB	08H
	DB	042H
	DB	08H
	DB	042H
	DB	08H
	DB	042H
	DB	08H
	DB	042H
	DB	08H
	DB	042H
	DB	08H
	DB	042H
	DB	08H
	DB	042H
	DB	08H
	DB	042H
	DB	08H
	DB	042H
	DB	08H
	DB	042H
	DB	08H
	DB	042H
	DB	08H
	DB	042H
	DB	08H
	DB	042H
	DB	08H
	DB	042H
	DB	08H
	DB	042H
	DB	08H
	DB	042H
	DB	08H
	DB	042H
	DB	08H
	DB	042H
	DB	08H
	DB	042H
	DB	08H
	DB	042H
	DB	08H
	DB	042H
	DB	08H
	DB	042H
	DB	08H
	DB	042H
	DB	08H
	DB	042H
	DB	08H
	DB	042H
	DB	08H
	DB	042H
	DB	08H
	DB	042H
	DB	08H
	DB	042H
	DB	08H
	DB	042H
	DB	08H
	DB	042H
	DB	08H
	DB	042H
	DB	08H
	DB	042H
	DB	08H
	DB	042H
	DB	08H
	DB	042H
	DB	08H
	DB	042H
	DB	08H
	DB	042H
	DB	08H
	DB	042H
	DB	08H
	DB	042H
	DB	08H
	DB	042H
	DB	08H
	DB	042H
	DB	08H
	DB	042H
	DB	08H
	DB	042H
	DB	08H
	DB	042H
	DB	08H
	DB	042H
	DB	08H
	DB	042H
	DB	08H
	DB	042H
	DB	028H
	DB	042H
	DB	028H
	DB	042H
	DB	08H
	DB	042H
	DB	028H
	DB	042H
	DB	028H
	DB	042H
	DB	08H
	DB	042H
	DB	028H
	DB	042H
	DB	028H
	DB	042H
	DB	08H
	DB	042H
	DB	028H
	DB	042H
	DB	028H
	DB	042H
	DB	08H
	DB	042H
	DB	028H
	DB	042H
	DB	028H
	DB	042H
	DB	08H
	DB	042H
	DB	028H
	DB	042H
	DB	028H
	DB	042H
	DB	08H
	DB	042H
	DB	028H
	DB	042H
	DB	028H
	DB	042H
	DB	08H
	DB	042H
	DB	028H
	DB	042H
	DB	08H
	DB	042H
	DB	028H
	DB	042H
	DB	08H
	DB	042H
	DB	028H
	DB	042H
	DB	08H
	DB	042H
	DB	028H
	DB	042H
	DB	028H
	DB	042H
	DB	08H
	DB	042H
	DB	028H
	DB	042H
	DB	08H
	DB	042H
	DB	028H
	DB	042H
	DB	08H
	DB	042H
	DB	028H
	DB	042H
	DB	08H
	DB	042H
	DB	028H
	DB	042H
	DB	028H
	DB	042H
	DB	08H
	DB	042H
	DB	08H
	DB	042H
	DB	028H
	DB	042H
	DB	08H
	DB	042H
	DB	028H
	DB	042H
	DB	028H
	DB	042H
	DB	08H
	DB	042H
	DB	028H
	DB	042H
	DB	028H
	DB	042H
	DB	08H
	DB	042H
	DB	028H
	DB	042H
	DB	028H
	DB	042H
	DB	08H
	DB	042H
	DB	028H
	DB	042H
	DB	028H
	DB	042H
	DB	08H
	DB	042H
	DB	028H
	DB	042H
	DB	028H
	DB	042H
	DB	08H
	DB	042H
	DB	028H
	DB	042H
	DB	08H
	DB	042H
	DB	028H
	DB	042H
	DB	028H
	DB	042H
	DB	08H
	DB	042H
	DB	028H
	DB	042H
	DB	08H
	DB	042H
	DB	028H
	DB	042H
	DB	08H
	DB	042H
	DB	028H
	DB	042H
	DB	08H
	DB	042H
	DB	028H
	DB	042H
	DB	028H
	DB	042H
	DB	08H
	DB	042H
	DB	028H
	DB	042H
	DB	08H
	DB	042H
	DB	028H
	DB	042H
	DB	08H
	DB	042H
	DB	028H
	DB	042H
	DB	08H
	DB	042H
	DB	028H
	DB	042H
	DB	028H
	DB	042H
	DB	08H
	DB	042H
	DB	028H
	DB	042H
	DB	08H
	DB	042H
	DB	028H
	DB	042H
	DB	08H
	DB	042H
	DB	028H
	DB	042H
	DB	08H
	DB	042H
	DB	028H
	DB	042H
	DB	028H
	DB	042H
	DB	08H
	DB	042H
	DB	028H
	DB	042H
	DB	08H
	DB	042H
	DB	028H
	DB	042H
	DB	08H
	DB	042H
	DB	028H
	DB	042H
	DB	08H
	DB	042H
	DB	028H
	DB	042H
	DB	028H
	DB	042H
	DB	028H
	DB	042H
	DB	028H
	DB	042H
	DB	028H
	DB	042H
	DB	028H
	DB	042H
	DB	028H
	DB	042H
	DB	028H
	DB	042H
	DB	028H
	DB	042H
	DB	028H
	DB	042H
	DB	028H
	DB	042H
	DB	08H
	DB	042H
	DB	028H
	DB	042H
	DB	08H
	DB	042H
	DB	028H
	DB	042H
	DB	08H
	DB	042H
	DB	028H
	DB	042H
	DB	08H
	DB	042H
	DB	028H
	DB	042H
	DB	08H
	DB	042H
	DB	028H
	DB	042H
	DB	08H
	DB	042H
	DB	028H
	DB	04aH
	DB	08H
	DB	042H
	DB	028H
	DB	042H
	DB	08H
	DB	042H
	DB	028H
	DB	042H
	DB	08H
	DB	042H
	DB	028H
	DB	042H
	DB	08H
	DB	04aH
	DB	028H
	DB	042H
	DB	08H
	DB	04aH
	DB	028H
	DB	042H
	DB	08H
	DB	04aH
	DB	028H
	DB	042H
	DB	08H
	DB	04aH
	DB	028H
	DB	042H
	DB	08H
	DB	04aH
	DB	028H
	DB	042H
	DB	08H
	DB	04aH
	DB	029H
	DB	042H
	DB	028H
	DB	04aH
	DB	029H
	DB	042H
	DB	028H
	DB	04aH
	DB	029H
	DB	042H
	DB	028H
	DB	04aH
	DB	029H
	DB	042H
	DB	028H
	DB	04aH
	DB	028H
	DB	04aH
	DB	028H
	DB	042H
	DB	028H
	DB	04aH
	DB	028H
	DB	04aH
	DB	028H
	DB	042H
	DB	028H
	DB	04aH
	DB	028H
	DB	04aH
	DB	028H
	DB	042H
	DB	029H
	DB	04aH
	DB	028H
	DB	04aH
	DB	029H
	DB	042H
	DB	028H
	DB	04aH
	DB	029H
	DB	04aH
	DB	028H
	DB	042H
	DB	029H
	DB	04aH
	DB	028H
	DB	04aH
	DB	029H
	DB	042H
	DB	029H
	DB	04aH
	DB	028H
	DB	04aH
	DB	029H
	DB	042H
	DB	029H
	DB	04aH
	DB	028H
	DB	04aH
	DB	029H
	DB	042H
	DB	029H
	DB	04aH
	DB	028H
	DB	04aH
	DB	028H
	DB	042H
	DB	028H
	DB	04aH
	DB	028H
	DB	04aH
	DB	028H
	DB	042H
	DB	028H
	DB	04aH
	DB	028H
	DB	04aH
	DB	028H
	DB	042H
	DB	028H
	DB	04aH
	DB	029H
	DB	04aH
	DB	029H
	DB	04aH
	DB	028H
	DB	04aH
	DB	029H
	DB	04aH
	DB	029H
	DB	04aH
	DB	028H
	DB	04aH
	DB	029H
	DB	04aH
	DB	029H
	DB	04aH
	DB	028H
	DB	04aH
	DB	029H
	DB	04aH
	DB	029H
	DB	04aH
	DB	028H
	DB	04aH
	DB	029H
	DB	042H
	DB	029H
	DB	04aH
	DB	028H
	DB	04aH
	DB	029H
	DB	04aH
	DB	029H
	DB	04aH
	DB	028H
	DB	04aH
	DB	029H
	DB	04aH
	DB	029H
	DB	04aH
	DB	028H
	DB	04aH
	DB	029H
	DB	04aH
	DB	029H
	DB	04aH
	DB	028H
	DB	04aH
	DB	029H
	DB	04aH
	DB	028H
	DB	04aH
	DB	029H
	DB	042H
	DB	029H
	DB	04aH
	DB	028H
	DB	04aH
	DB	029H
	DB	042H
	DB	029H
	DB	04aH
	DB	028H
	DB	042H
	DB	029H
	DB	042H
	DB	029H
	DB	04aH
	DB	028H
	DB	04aH
	DB	029H
	DB	042H
	DB	029H
	DB	04aH
	DB	028H
	DB	04aH
	DB	029H
	DB	042H
	DB	029H
	DB	04aH
	DB	028H
	DB	04aH
	DB	029H
	DB	04aH
	DB	029H
	DB	042H
	DB	028H
	DB	04aH
	DB	029H
	DB	04aH
	DB	029H
	DB	042H
	DB	028H
	DB	04aH
	DB	029H
	DB	04aH
	DB	029H
	DB	042H
	DB	028H
	DB	04aH
	DB	029H
	DB	04aH
	DB	029H
	DB	042H
	DB	028H
	DB	04aH
	DB	029H
	DB	04aH
	DB	029H
	DB	042H
	DB	028H
	DB	04aH
	DB	029H
	DB	04aH
	DB	029H
	DB	042H
	DB	028H
	DB	04aH
	DB	029H
	DB	04aH
	DB	029H
	DB	042H
	DB	028H
	DB	04aH
	DB	029H
	DB	042H
	DB	029H
	DB	04aH
	DB	028H
	DB	04aH
	DB	029H
	DB	04aH
	DB	029H
	DB	042H
	DB	028H
	DB	04aH
	DB	029H
	DB	04aH
	DB	029H
	DB	042H
	DB	028H
	DB	04aH
	DB	029H
	DB	04aH
	DB	029H
	DB	042H
	DB	028H
	DB	04aH
	DB	029H
	DB	04aH
	DB	029H
	DB	042H
	DB	028H
	DB	04aH
	DB	029H
	DB	04aH
	DB	028H
	DB	042H
	DB	029H
	DB	04aH
	DB	028H
	DB	04aH
	DB	029H
	DB	042H
	DB	028H
	DB	04aH
	DB	029H
	DB	04aH
	DB	028H
	DB	042H
	DB	029H
	DB	04aH
	DB	028H
	DB	04aH
	DB	029H
	DB	042H
	DB	028H
	DB	04aH
	DB	028H
	DB	04aH
	DB	028H
	DB	042H
	DB	029H
	DB	04aH
	DB	028H
	DB	04aH
	DB	028H
	DB	042H
	DB	028H
	DB	04aH
	DB	028H
	DB	042H
	DB	028H
	DB	04aH
	DB	028H
	DB	042H
	DB	028H
	DB	04aH
	DB	028H
	DB	042H
	DB	028H
	DB	04aH
	DB	028H
	DB	042H
	DB	028H
	DB	04aH
	DB	028H
	DB	04aH
	DB	029H
	DB	042H
	DB	028H
	DB	042H
	DB	029H
	DB	04aH
	DB	048H
	DB	04aH
	DB	028H
	DB	042H
	DB	028H
	DB	042H
	DB	028H
	DB	042H
	DB	08H
	DB	042H
	DB	028H
	DB	042H
	DB	08H
	DB	042H
	DB	028H
	DB	042H
	DB	08H
	DB	042H
	DB	028H
	DB	042H
	DB	08H
	DB	042H
	DB	028H
	DB	042H
	DB	08H
	DB	042H
	DB	028H
	DB	042H
	DB	08H
	DB	042H
	DB	028H
	DB	042H
	DB	08H
	DB	042H
	DB	028H
	DB	042H
	DB	08H
	DB	042H
	DB	028H
	DB	042H
	DB	08H
	DB	042H
	DB	028H
	DB	042H
	DB	08H
	DB	042H
	DB	028H
	DB	042H
	DB	08H
	DB	042H
	DB	028H
	DB	042H
	DB	08H
	DB	042H
	DB	028H
	DB	042H
	DB	08H
	DB	042H
	DB	028H
	DB	042H
	DB	08H
	DB	042H
	DB	028H
	DB	042H
	DB	08H
	DB	042H
	DB	028H
	DB	042H
	DB	08H
	DB	042H
	DB	028H
	DB	042H
	DB	08H
	DB	042H
	DB	028H
	DB	042H
	DB	08H
	DB	042H
	DB	028H
	DB	042H
	DB	08H
	DB	042H
	DB	028H
	DB	042H
	DB	08H
	DB	042H
	DB	028H
	DB	042H
	DB	08H
	DB	042H
	DB	028H
	DB	042H
	DB	08H
	DB	042H
	DB	028H
	DB	042H
	DB	08H
	DB	042H
	DB	028H
	DB	042H
	DB	08H
	DB	042H
	DB	028H
	DB	042H
	DB	08H
	DB	042H
	DB	028H
	DB	042H
	DB	08H
	DB	042H
	DB	028H
	DB	042H
	DB	08H
	DB	042H
	DB	028H
	DB	042H
	DB	08H
	DB	042H
	DB	028H
	DB	042H
	DB	08H
	DB	042H
	DB	028H
	DB	042H
	DB	08H
	DB	042H
	DB	028H
	DB	042H
	DB	08H
	DB	042H
	DB	028H
	DB	042H
	DB	08H
	DB	042H
	DB	028H
	DB	042H
	DB	08H
	DB	042H
	DB	028H
	DB	042H
	DB	08H
	DB	042H
	DB	028H
	DB	042H
	DB	08H
	DB	042H
	DB	028H
	DB	042H
	DB	08H
	DB	042H
	DB	028H
	DB	042H
	DB	08H
	DB	042H
	DB	028H
	DB	042H
	DB	028H
	DB	042H
	DB	029H
	DB	04aH
	DB	065H
	DB	029H
	DB	028H
	DB	04aH
	DB	028H
	DB	042H
	DB	028H
	DB	042H
	DB	08H
	DB	042H
	DB	028H
	DB	042H
	DB	08H
	DB	042H
	DB	028H
	DB	042H
	DB	08H
	DB	042H
	DB	028H
	DB	042H
	DB	08H
	DB	042H
	DB	028H
	DB	042H
	DB	028H
	DB	042H
	DB	028H
	DB	042H
	DB	028H
	DB	042H
	DB	028H
	DB	042H
	DB	028H
	DB	042H
	DB	08H
	DB	042H
	DB	028H
	DB	042H
	DB	08H
	DB	042H
	DB	028H
	DB	042H
	DB	028H
	DB	042H
	DB	028H
	DB	042H
	DB	028H
	DB	042H
	DB	028H
	DB	042H
	DB	08H
	DB	042H
	DB	028H
	DB	042H
	DB	028H
	DB	042H
	DB	08H
	DB	042H
	DB	028H
	DB	042H
	DB	028H
	DB	042H
	DB	028H
	DB	042H
	DB	08H
	DB	042H
	DB	028H
	DB	042H
	DB	028H
	DB	042H
	DB	028H
	DB	042H
	DB	08H
	DB	042H
	DB	028H
	DB	042H
	DB	028H
	DB	042H
	DB	08H
	DB	042H
	DB	028H
	DB	042H
	DB	08H
	DB	042H
	DB	028H
	DB	042H
	DB	08H
	DB	042H
	DB	028H
	DB	042H
	DB	028H
	DB	042H
	DB	08H
	DB	042H
	DB	028H
	DB	042H
	DB	08H
	DB	042H
	DB	028H
	DB	042H
	DB	08H
	DB	042H
	DB	028H
	DB	042H
	DB	08H
	DB	042H
	DB	028H
	DB	042H
	DB	028H
	DB	042H
	DB	08H
	DB	042H
	DB	028H
	DB	042H
	DB	08H
	DB	042H
	DB	028H
	DB	042H
	DB	08H
	DB	042H
	DB	028H
	DB	042H
	DB	028H
	DB	042H
	DB	08H
	DB	042H
	DB	028H
	DB	042H
	DB	08H
	DB	042H
	DB	028H
	DB	042H
	DB	08H
	DB	042H
	DB	028H
	DB	042H
	DB	08H
	DB	042H
	DB	028H
	DB	042H
	DB	08H
	DB	042H
	DB	028H
	DB	042H
	DB	08H
	DB	042H
	DB	028H
	DB	042H
	DB	028H
	DB	042H
	DB	028H
	DB	042H
	DB	08H
	DB	042H
	DB	028H
	DB	042H
	DB	028H
	DB	042H
	DB	08H
	DB	042H
	DB	028H
	DB	042H
	DB	08H
	DB	042H
	DB	08H
	DB	042H
	DB	08H
	DB	042H
	DB	08H
	DB	042H
	DB	08H
	DB	042H
	DB	08H
	DB	042H
	DB	028H
	DB	042H
	DB	08H
	DB	042H
	DB	08H
	DB	042H
	DB	08H
	DB	042H
	DB	08H
	DB	042H
	DB	028H
	DB	042H
	DB	08H
	DB	042H
	DB	08H
	DB	042H
	DB	028H
	DB	042H
	DB	08H
	DB	042H
	DB	028H
	DB	042H
	DB	08H
	DB	042H
	DB	028H
	DB	042H
	DB	08H
	DB	042H
	DB	028H
	DB	042H
	DB	08H
	DB	042H
	DB	028H
	DB	042H
	DB	08H
	DB	042H
	DB	08H
	DB	042H
	DB	08H
	DB	042H
	DB	08H
	DB	042H
	DB	08H
	DB	042H
	DB	08H
	DB	042H
	DB	08H
	DB	042H
	DB	08H
	DB	042H
	DB	08H
	DB	042H
	DB	028H
	DB	042H
	DB	028H
	DB	042H
	DB	028H
	DB	042H
	DB	028H
	DB	042H
	DB	028H
	DB	042H
	DB	028H
	DB	042H
	DB	028H
	DB	042H
	DB	028H
	DB	042H
	DB	028H
	DB	042H
	DB	028H
	DB	042H
	DB	028H
	DB	042H
	DB	028H
	DB	042H
	DB	028H
	DB	042H
	DB	028H
	DB	042H
	DB	028H
	DB	042H
	DB	028H
	DB	042H
	DB	08H
	DB	042H
	DB	028H
	DB	042H
	DB	08H
	DB	042H
	DB	028H
	DB	042H
	DB	08H
	DB	042H
	DB	028H
	DB	042H
	DB	08H
	DB	042H
	DB	028H
	DB	042H
	DB	028H
	DB	042H
	DB	028H
	DB	042H
	DB	028H
	DB	042H
	DB	028H
	DB	042H
	DB	028H
	DB	042H
	DB	028H
	DB	042H
	DB	028H
	DB	042H
	DB	028H
	DB	042H
	DB	028H
	DB	042H
	DB	08H
	DB	042H
	DB	028H
	DB	042H
	DB	08H
	DB	042H
	DB	028H
	DB	042H
	DB	08H
	DB	042H
	DB	08H
	DB	042H
	DB	028H
	DB	042H
	DB	08H
	DB	042H
	DB	028H
	DB	042H
	DB	08H
	DB	042H
	DB	028H
	DB	042H
	DB	08H
	DB	042H
	DB	028H
	DB	04aH
	DB	08H
	DB	042H
	DB	028H
	DB	042H
	DB	08H
	DB	042H
	DB	028H
	DB	042H
	DB	028H
	DB	042H
	DB	08H
	DB	04aH
	DB	08H
	DB	042H
	DB	028H
	DB	042H
	DB	08H
	DB	042H
	DB	028H
	DB	042H
	DB	08H
	DB	042H
	DB	028H
	DB	04aH
	DB	08H
	DB	042H
	DB	028H
	DB	042H
	DB	08H
	DB	042H
	DB	08H
	DB	042H
	DB	028H
	DB	042H
	DB	08H
	DB	04aH
	DB	028H
	DB	042H
	DB	08H
	DB	042H
	DB	028H
	DB	042H
	DB	08H
	DB	042H
	DB	028H
	DB	04aH
	DB	08H
	DB	042H
	DB	028H
	DB	042H
	DB	029H
	DB	04aH
	DB	08H
	DB	042H
	DB	028H
	DB	042H
	DB	08H
	DB	04aH
	DB	08H
	DB	042H
	DB	028H
	DB	042H
	DB	08H
	DB	04aH
	DB	029H
	DB	042H
	DB	08H
	DB	042H
	DB	028H
	DB	04aH
	DB	08H
	DB	042H
	DB	028H
	DB	04aH
	DB	028H
	DB	042H
	DB	09H
	DB	04aH
	DB	08H
	DB	04aH
	DB	028H
	DB	042H
	DB	028H
	DB	04aH
	DB	08H
	DB	04aH
	DB	028H
	DB	042H
	DB	09H
	DB	04aH
	DB	028H
	DB	04aH
	DB	08H
	DB	042H
	DB	08H
	DB	04aH
	DB	028H
	DB	04aH
	DB	08H
	DB	042H
	DB	029H
	DB	04aH
	DB	08H
	DB	04aH
	DB	028H
	DB	042H
	DB	08H
	DB	04aH
	DB	028H
	DB	04aH
	DB	08H
	DB	042H
	DB	09H
	DB	04aH
	DB	028H
	DB	04aH
	DB	08H
	DB	042H
	DB	028H
	DB	04aH
	DB	08H
	DB	04aH
	DB	028H
	DB	042H
	DB	09H
	DB	04aH
	DB	028H
	DB	04aH
	DB	08H
	DB	042H
	DB	08H
	DB	04aH
	DB	029H
	DB	04aH
	DB	028H
	DB	042H
	DB	028H
	DB	04aH
	DB	029H
	DB	04aH
	DB	028H
	DB	042H
	DB	028H
	DB	04aH
	DB	029H
	DB	04aH
	DB	028H
	DB	042H
	DB	08H
	DB	04aH
	DB	09H
	DB	04aH
	DB	028H
	DB	042H
	DB	028H
	DB	04aH
	DB	029H
	DB	04aH
	DB	028H
	DB	04aH
	DB	028H
	DB	04aH
	DB	029H
	DB	04aH
	DB	028H
	DB	042H
	DB	028H
	DB	04aH
	DB	029H
	DB	04aH
	DB	028H
	DB	042H
	DB	029H
	DB	04aH
	DB	029H
	DB	04aH
	DB	028H
	DB	04aH
	DB	09H
	DB	04aH
	DB	029H
	DB	04aH
	DB	028H
	DB	04aH
	DB	029H
	DB	04aH
	DB	029H
	DB	04aH
	DB	08H
	DB	04aH
	DB	029H
	DB	04aH
	DB	029H
	DB	04aH
	DB	028H
	DB	04aH
	DB	029H
	DB	04aH
	DB	029H
	DB	04aH
	DB	029H
	DB	04aH
	DB	029H
	DB	04aH
	DB	029H
	DB	04aH
	DB	029H
	DB	042H
	DB	029H
	DB	04aH
	DB	029H
	DB	04aH
	DB	029H
	DB	04aH
	DB	029H
	DB	04aH
	DB	029H
	DB	04aH
	DB	029H
	DB	04aH
	DB	029H
	DB	042H
	DB	029H
	DB	04aH
	DB	029H
	DB	042H
	DB	029H
	DB	042H
	DB	029H
	DB	04aH
	DB	029H
	DB	042H
	DB	029H
	DB	042H
	DB	029H
	DB	04aH
	DB	029H
	DB	042H
	DB	029H
	DB	042H
	DB	029H
	DB	04aH
	DB	028H
	DB	042H
	DB	029H
	DB	042H
	DB	028H
	DB	04aH
	DB	028H
	DB	042H
	DB	029H
	DB	042H
	DB	028H
	DB	04aH
	DB	028H
	DB	042H
	DB	029H
	DB	042H
	DB	029H
	DB	042H
	DB	028H
	DB	04aH
	DB	029H
	DB	042H
	DB	029H
	DB	042H
	DB	029H
	DB	04aH
	DB	029H
	DB	042H
	DB	029H
	DB	042H
	DB	029H
	DB	04aH
	DB	028H
	DB	042H
	DB	029H
	DB	042H
	DB	028H
	DB	04aH
	DB	028H
	DB	042H
	DB	029H
	DB	042H
	DB	028H
	DB	04aH
	DB	028H
	DB	042H
	DB	029H
	DB	042H
	DB	028H
	DB	04aH
	DB	028H
	DB	04aH
	DB	029H
	DB	042H
	DB	028H
	DB	04aH
	DB	028H
	DB	04aH
	DB	029H
	DB	042H
	DB	028H
	DB	04aH
	DB	028H
	DB	04aH
	DB	029H
	DB	042H
	DB	028H
	DB	04aH
	DB	029H
	DB	04aH
	DB	029H
	DB	042H
	DB	029H
	DB	04aH
	DB	029H
	DB	04aH
	DB	029H
	DB	042H
	DB	029H
	DB	04aH
	DB	029H
	DB	04aH
	DB	028H
	DB	042H
	DB	028H
	DB	042H
	DB	029H
	DB	04aH
	DB	028H
	DB	042H
	DB	029H
	DB	042H
	DB	029H
	DB	04aH
	DB	028H
	DB	042H
	DB	028H
	DB	042H
	DB	029H
	DB	04aH
	DB	028H
	DB	042H
	DB	028H
	DB	042H
	DB	029H
	DB	04aH
	DB	028H
	DB	042H
	DB	028H
	DB	04aH
	DB	029H
	DB	042H
	DB	029H
	DB	042H
	DB	028H
	DB	042H
	DB	029H
	DB	04aH
	DB	029H
	DB	042H
	DB	028H
	DB	042H
	DB	029H
	DB	04aH
	DB	029H
	DB	042H
	DB	028H
	DB	042H
	DB	029H
	DB	04aH
	DB	028H
	DB	042H
	DB	028H
	DB	042H
	DB	029H
	DB	04aH
	DB	028H
	DB	042H
	DB	028H
	DB	042H
	DB	028H
	DB	04aH
	DB	029H
	DB	04aH
	DB	028H
	DB	042H
	DB	028H
	DB	04aH
	DB	049H
	DB	04aH
	DB	028H
	DB	04aH
	DB	028H
	DB	042H
	DB	048H
	DB	04aH
	DB	029H
	DB	04aH
	DB	028H
	DB	042H
	DB	048H
	DB	042H
	DB	029H
	DB	04aH
	DB	028H
	DB	042H
	DB	048H
	DB	042H
	DB	029H
	DB	04aH
	DB	048H
	DB	04aH
	DB	028H
	DB	042H
	DB	049H
	DB	04aH
	DB	028H
	DB	04aH
	DB	048H
	DB	042H
	DB	029H
	DB	04aH
	DB	048H
	DB	04aH
	DB	028H
	DB	042H
	DB	049H
	DB	04aH
	DB	028H
	DB	04aH
	DB	048H
	DB	042H
	DB	029H
	DB	04aH
	DB	028H
	DB	04aH
	DB	048H
	DB	042H
	DB	028H
	DB	04aH
	DB	029H
	DB	04aH
	DB	048H
	DB	042H
	DB	028H
	DB	04aH
	DB	029H
	DB	04aH
	DB	048H
	DB	042H
	DB	028H
	DB	042H
	DB	029H
	DB	04aH
	DB	028H
	DB	042H
	DB	028H
	DB	04aH
	DB	049H
	DB	04aH
	DB	028H
	DB	042H
	DB	048H
	DB	042H
	DB	029H
	DB	04aH
	DB	048H
	DB	04aH
	DB	028H
	DB	042H
	DB	049H
	DB	04aH
	DB	028H
	DB	04aH
	DB	028H
	DB	042H
	DB	029H
	DB	04aH
	DB	028H
	DB	04aH
	DB	028H
	DB	042H
	DB	029H
	DB	04aH
	DB	028H
	DB	04aH
	DB	028H
	DB	042H
	DB	029H
	DB	04aH
	DB	028H
	DB	04aH
	DB	028H
	DB	042H
	DB	029H
	DB	04aH
	DB	028H
	DB	04aH
	DB	028H
	DB	042H
	DB	029H
	DB	04aH
	DB	029H
	DB	04aH
	DB	028H
	DB	042H
	DB	029H
	DB	04aH
	DB	029H
	DB	042H
	DB	028H
	DB	04aH
	DB	029H
	DB	04aH
	DB	029H
	DB	042H
	DB	029H
	DB	04aH
	DB	029H
	DB	04aH
	DB	029H
	DB	042H
	DB	029H
	DB	04aH
	DB	029H
	DB	04aH
	DB	029H
	DB	042H
	DB	029H
	DB	04aH
	DB	028H
	DB	04aH
	DB	029H
	DB	042H
	DB	028H
	DB	04aH
	DB	029H
	DB	04aH
	DB	049H
	DB	042H
	DB	028H
	DB	042H
	DB	08H
	DB	042H
	DB	029H
	DB	04aH
	DB	028H
	DB	042H
	DB	029H
	DB	04aH
	DB	029H
	DB	04aH
	DB	08H
	DB	042H
	DB	029H
	DB	04aH
	DB	029H
	DB	04aH
	DB	028H
	DB	042H
	DB	09H
	DB	04aH
	DB	029H
	DB	04aH
	DB	028H
	DB	042H
	DB	029H
	DB	04aH
	DB	09H
	DB	04aH
	DB	028H
	DB	042H
	DB	029H
	DB	04aH
	DB	029H
	DB	04aH
	DB	08H
	DB	042H
	DB	029H
	DB	04aH
	DB	029H
	DB	04aH
	DB	028H
	DB	042H
	DB	09H
	DB	04aH
	DB	029H
	DB	04aH
	DB	028H
	DB	042H
	DB	029H
	DB	04aH
	DB	09H
	DB	04aH
	DB	028H
	DB	042H
	DB	029H
	DB	04aH
	DB	029H
	DB	04aH
	DB	08H
	DB	042H
	DB	029H
	DB	04aH
	DB	029H
	DB	04aH
	DB	028H
	DB	042H
	DB	09H
	DB	04aH
	DB	029H
	DB	04aH
	DB	028H
	DB	042H
	DB	029H
	DB	04aH
	DB	09H
	DB	04aH
	DB	028H
	DB	042H
	DB	029H
	DB	04aH
	DB	029H
	DB	04aH
	DB	08H
	DB	042H
	DB	029H
	DB	04aH
	DB	029H
	DB	04aH
	DB	028H
	DB	042H
	DB	09H
	DB	04aH
	DB	029H
	DB	04aH
	DB	028H
	DB	042H
	DB	029H
	DB	04aH
	DB	09H
	DB	04aH
	DB	028H
	DB	042H
	DB	029H
	DB	04aH
	DB	029H
	DB	04aH
	DB	08H
	DB	042H
	DB	029H
	DB	04aH
	DB	029H
	DB	04aH
	DB	028H
	DB	042H
	DB	09H
	DB	04aH
	DB	029H
	DB	04aH
	DB	028H
	DB	042H
	DB	029H
	DB	04aH
	DB	09H
	DB	04aH
	DB	028H
	DB	042H
	DB	029H
	DB	04aH
	DB	029H
	DB	04aH
	DB	08H
	DB	042H
	DB	028H
	DB	04aH
	DB	028H
	DB	04aH
	DB	028H
	DB	042H
	DB	08H
	DB	04aH
	DB	028H
	DB	04aH
	DB	028H
	DB	042H
	DB	028H
	DB	04aH
	DB	08H
	DB	04aH
	DB	028H
	DB	042H
	DB	028H
	DB	042H
	DB	028H
	DB	04aH
	DB	029H
	DB	04aH
	DB	065H
	DB	029H
	DB	049H
	DB	04aH
	DB	028H
	DB	042H
	DB	08H
	DB	042H
	DB	028H
	DB	04aH
	DB	028H
	DB	04aH
	DB	028H
	DB	042H
	DB	08H
	DB	04aH
	DB	028H
	DB	04aH
	DB	028H
	DB	042H
	DB	028H
	DB	04aH
	DB	08H
	DB	04aH
	DB	08H
	DB	042H
	DB	028H
	DB	04aH
	DB	08H
	DB	04aH
	DB	028H
	DB	042H
	DB	028H
	DB	04aH
	DB	028H
	DB	04aH
	DB	028H
	DB	042H
	DB	028H
	DB	042H
	DB	08H
	DB	04aH
	DB	028H
	DB	04aH
	DB	028H
	DB	042H
	DB	028H
	DB	04aH
	DB	028H
	DB	04aH
	DB	08H
	DB	042H
	DB	028H
	DB	042H
	DB	028H
	DB	04aH
	DB	028H
	DB	042H
	DB	028H
	DB	04aH
	DB	028H
	DB	04aH
	DB	028H
	DB	042H
	DB	08H
	DB	04aH
	DB	028H
	DB	04aH
	DB	028H
	DB	042H
	DB	08H
	DB	04aH
	DB	08H
	DB	04aH
	DB	028H
	DB	042H
	DB	08H
	DB	04aH
	DB	028H
	DB	04aH
	DB	08H
	DB	042H
	DB	028H
	DB	04aH
	DB	08H
	DB	04aH
	DB	028H
	DB	042H
	DB	08H
	DB	04aH
	DB	08H
	DB	04aH
	DB	028H
	DB	042H
	DB	08H
	DB	04aH
	DB	028H
	DB	04aH
	DB	08H
	DB	042H
	DB	028H
	DB	04aH
	DB	08H
	DB	04aH
	DB	028H
	DB	042H
	DB	08H
	DB	04aH
	DB	08H
	DB	04aH
	DB	028H
	DB	042H
	DB	08H
	DB	04aH
	DB	028H
	DB	04aH
	DB	028H
	DB	042H
	DB	08H
	DB	04aH
	DB	08H
	DB	042H
	DB	08H
	DB	042H
	DB	08H
	DB	04aH
	DB	08H
	DB	042H
	DB	028H
	DB	042H
	DB	08H
	DB	042H
	DB	08H
	DB	042H
	DB	08H
	DB	04aH
	DB	028H
	DB	042H
	DB	08H
	DB	042H
	DB	08H
	DB	042H
	DB	08H
	DB	042H
	DB	08H
	DB	042H
	DB	08H
	DB	04aH
	DB	08H
	DB	042H
	DB	08H
	DB	042H
	DB	028H
	DB	04aH
	DB	08H
	DB	042H
	DB	08H
	DB	04aH
	DB	08H
	DB	042H
	DB	028H
	DB	042H
	DB	08H
	DB	042H
	DB	08H
	DB	042H
	DB	028H
	DB	042H
	DB	08H
	DB	042H
	DB	08H
	DB	042H
	DB	028H
	DB	042H
	DB	08H
	DB	042H
	DB	08H
	DB	042H
	DB	028H
	DB	042H
	DB	028H
	DB	042H
	DB	028H
	DB	042H
	DB	028H
	DB	042H
	DB	028H
	DB	042H
	DB	028H
	DB	042H
	DB	028H
	DB	042H
	DB	028H
	DB	042H
	DB	08H
	DB	042H
	DB	028H
	DB	042H
	DB	028H
	DB	042H
	DB	028H
	DB	042H
	DB	08H
	DB	042H
	DB	028H
	DB	042H
	DB	028H
	DB	042H
	DB	028H
	DB	042H
	DB	028H
	DB	042H
	DB	028H
	DB	042H
	DB	028H
	DB	042H
	DB	028H
	DB	042H
	DB	028H
	DB	042H
	DB	028H
	DB	042H
	DB	028H
	DB	042H
	DB	028H
	DB	042H
	DB	08H
	DB	042H
	DB	028H
	DB	042H
	DB	08H
	DB	042H
	DB	08H
	DB	042H
	DB	028H
	DB	042H
	DB	08H
	DB	042H
	DB	08H
	DB	042H
	DB	028H
	DB	042H
	DB	08H
	DB	042H
	DB	08H
	DB	042H
	DB	028H
	DB	042H
	DB	08H
	DB	042H
	DB	08H
	DB	042H
	DB	028H
	DB	042H
	DB	08H
	DB	042H
	DB	028H
	DB	042H
	DB	028H
	DB	042H
	DB	08H
	DB	042H
	DB	028H
	DB	042H
	DB	028H
	DB	042H
	DB	028H
	DB	042H
	DB	08H
	DB	042H
	DB	028H
	DB	042H
	DB	028H
	DB	042H
	DB	08H
	DB	042H
	DB	08H
	DB	042H
	DB	028H
	DB	042H
	DB	08H
	DB	04aH
	DB	08H
	DB	042H
	DB	028H
	DB	042H
	DB	08H
	DB	04aH
	DB	08H
	DB	042H
	DB	028H
	DB	042H
	DB	08H
	DB	04aH
	DB	08H
	DB	042H
	DB	028H
	DB	042H
	DB	08H
	DB	04aH
	DB	028H
	DB	042H
	DB	028H
	DB	042H
	DB	08H
	DB	04aH
	DB	028H
	DB	042H
	DB	08H
	DB	04aH
	DB	08H
	DB	042H
	DB	028H
	DB	042H
	DB	08H
	DB	04aH
	DB	08H
	DB	042H
	DB	028H
	DB	042H
	DB	08H
	DB	04aH
	DB	09H
	DB	042H
	DB	028H
	DB	042H
	DB	08H
	DB	04aH
	DB	09H
	DB	042H
	DB	028H
	DB	042H
	DB	028H
	DB	04aH
	DB	09H
	DB	042H
	DB	028H
	DB	042H
	DB	028H
	DB	04aH
	DB	09H
	DB	042H
	DB	028H
	DB	042H
	DB	08H
	DB	04aH
	DB	029H
	DB	042H
	DB	028H
	DB	042H
	DB	08H
	DB	04aH
	DB	029H
	DB	042H
	DB	08H
	DB	042H
	DB	028H
	DB	04aH
	DB	09H
	DB	042H
	DB	028H
	DB	042H
	DB	09H
	DB	042H
	DB	08H
	DB	042H
	DB	08H
	DB	042H
	DB	028H
	DB	04aH
	DB	028H
	DB	042H
	DB	09H
	DB	042H
	DB	028H
	DB	042H
	DB	029H
	DB	042H
	DB	028H
	DB	04aH
	DB	028H
	DB	042H
	DB	028H
	DB	042H
	DB	029H
	DB	04aH
	DB	028H
	DB	042H
	DB	029H
	DB	042H
	DB	028H
	DB	042H
	DB	028H
	DB	042H
	DB	028H
	DB	042H
	DB	029H
	DB	042H
	DB	028H
	DB	042H
	DB	029H
	DB	042H
	DB	08H
	DB	042H
	DB	08H
	DB	042H
	DB	028H
	DB	042H
	DB	029H
	DB	042H
	DB	08H
	DB	042H
	DB	029H
	DB	042H
	DB	08H
	DB	042H
	DB	028H
	DB	042H
	DB	08H
	DB	042H
	DB	029H
	DB	042H
	DB	08H
	DB	042H
	DB	029H
	DB	042H
	DB	028H
	DB	042H
	DB	08H
	DB	042H
	DB	028H
	DB	042H
	DB	09H
	DB	042H
	DB	028H
	DB	042H
	DB	09H
	DB	042H
	DB	028H
	DB	042H
	DB	08H
	DB	042H
	DB	028H
	DB	042H
	DB	029H
	DB	042H
	DB	028H
	DB	04aH
	DB	028H
	DB	042H
	DB	029H
	DB	042H
	DB	028H
	DB	042H
	DB	028H
	DB	042H
	DB	09H
	DB	042H
	DB	028H
	DB	042H
	DB	028H
	DB	042H
	DB	029H
	DB	042H
	DB	028H
	DB	042H
	DB	028H
	DB	04aH
	DB	029H
	DB	042H
	DB	028H
	DB	042H
	DB	028H
	DB	04aH
	DB	09H
	DB	042H
	DB	028H
	DB	042H
	DB	028H
	DB	042H
	DB	029H
	DB	042H
	DB	08H
	DB	04aH
	DB	028H
	DB	042H
	DB	09H
	DB	042H
	DB	08H
	DB	04aH
	DB	028H
	DB	042H
	DB	08H
	DB	042H
	DB	028H
	DB	042H
	DB	028H
	DB	042H
	DB	029H
	DB	042H
	DB	028H
	DB	042H
	DB	028H
	DB	042H
	DB	029H
	DB	042H
	DB	028H
	DB	042H
	DB	028H
	DB	042H
	DB	029H
	DB	042H
	DB	028H
	DB	042H
	DB	028H
	DB	042H
	DB	028H
	DB	042H
	DB	028H
	DB	042H
	DB	028H
	DB	042H
	DB	028H
	DB	042H
	DB	028H
	DB	042H
	DB	028H
	DB	042H
	DB	028H
	DB	042H
	DB	028H
	DB	042H
	DB	028H
	DB	042H
	DB	028H
	DB	042H
	DB	028H
	DB	042H
	DB	028H
	DB	04aH
	DB	028H
	DB	042H
	DB	028H
	DB	042H
	DB	028H
	DB	04aH
	DB	028H
	DB	042H
	DB	028H
	DB	042H
	DB	028H
	DB	04aH
	DB	028H
	DB	042H
	DB	028H
	DB	042H
	DB	028H
	DB	04aH
	DB	028H
	DB	042H
	DB	029H
	DB	042H
	DB	028H
	DB	04aH
	DB	028H
	DB	042H
	DB	028H
	DB	042H
	DB	028H
	DB	04aH
	DB	028H
	DB	042H
	DB	028H
	DB	04aH
	DB	028H
	DB	04aH
	DB	029H
	DB	042H
	DB	028H
	DB	04aH
	DB	028H
	DB	042H
	DB	028H
	DB	04aH
	DB	028H
	DB	04aH
	DB	028H
	DB	042H
	DB	028H
	DB	04aH
	DB	028H
	DB	04aH
	DB	029H
	DB	042H
	DB	028H
	DB	04aH
	DB	028H
	DB	04aH
	DB	029H
	DB	042H
	DB	028H
	DB	04aH
	DB	028H
	DB	04aH
	DB	029H
	DB	042H
	DB	028H
	DB	042H
	DB	028H
	DB	04aH
	DB	028H
	DB	042H
	DB	029H
	DB	042H
	DB	029H
	DB	042H
	DB	028H
	DB	04aH
	DB	029H
	DB	042H
	DB	029H
	DB	042H
	DB	028H
	DB	04aH
	DB	028H
	DB	042H
	DB	029H
	DB	042H
	DB	028H
	DB	04aH
	DB	029H
	DB	042H
	DB	028H
	DB	042H
	DB	028H
	DB	04aH
	DB	029H
	DB	042H
	DB	028H
	DB	042H
	DB	029H
	DB	04aH
	DB	028H
	DB	042H
	DB	028H
	DB	042H
	DB	029H
	DB	04aH
	DB	028H
	DB	042H
	DB	028H
	DB	042H
	DB	029H
	DB	04aH
	DB	028H
	DB	042H
	DB	029H
	DB	042H
	DB	028H
	DB	04aH
	DB	029H
	DB	042H
	DB	028H
	DB	042H
	DB	029H
	DB	04aH
	DB	029H
	DB	042H
	DB	028H
	DB	04aH
	DB	028H
	DB	04aH
	DB	029H
	DB	042H
	DB	028H
	DB	042H
	DB	028H
	DB	04aH
	DB	029H
	DB	042H
	DB	028H
	DB	042H
	DB	028H
	DB	04aH
	DB	029H
	DB	042H
	DB	028H
	DB	042H
	DB	028H
	DB	04aH
	DB	029H
	DB	042H
	DB	048H
	DB	042H
	DB	028H
	DB	04aH
	DB	029H
	DB	04aH
	DB	048H
	DB	042H
	DB	028H
	DB	042H
	DB	049H
	DB	04aH
	DB	028H
	DB	042H
	DB	029H
	DB	04aH
	DB	048H
	DB	042H
	DB	028H
	DB	042H
	DB	029H
	DB	042H
	DB	049H
	DB	04aH
	DB	028H
	DB	04aH
	DB	029H
	DB	042H
	DB	028H
	DB	04aH
	DB	029H
	DB	04aH
	DB	048H
	DB	04aH
	DB	029H
	DB	042H
	DB	029H
	DB	04aH
	DB	028H
	DB	04aH
	DB	029H
	DB	042H
	DB	029H
	DB	04aH
	DB	048H
	DB	042H
	DB	029H
	DB	04aH
	DB	029H
	DB	04aH
	DB	028H
	DB	042H
	DB	049H
	DB	04aH
	DB	029H
	DB	04aH
	DB	028H
	DB	042H
	DB	029H
	DB	04aH
	DB	048H
	DB	04aH
	DB	029H
	DB	042H
	DB	029H
	DB	04aH
	DB	048H
	DB	04aH
	DB	029H
	DB	042H
	DB	028H
	DB	04aH
	DB	049H
	DB	04aH
	DB	029H
	DB	042H
	DB	028H
	DB	04aH
	DB	028H
	DB	04aH
	DB	049H
	DB	042H
	DB	028H
	DB	042H
	DB	028H
	DB	042H
	DB	029H
	DB	04aH
	DB	048H
	DB	042H
	DB	028H
	DB	042H
	DB	029H
	DB	04aH
	DB	028H
	DB	042H
	DB	028H
	DB	042H
	DB	029H
	DB	042H
	DB	048H
	DB	04aH
	DB	028H
	DB	042H
	DB	049H
	DB	042H
	DB	048H
	DB	042H
	DB	028H
	DB	04aH
	DB	049H
	DB	042H
	DB	028H
	DB	042H
	DB	048H
	DB	042H
	DB	029H
	DB	04aH
	DB	048H
	DB	042H
	DB	028H
	DB	042H
	DB	049H
	DB	042H
	DB	028H
	DB	04aH
	DB	048H
	DB	042H
	DB	029H
	DB	042H
	DB	028H
	DB	042H
	DB	048H
	DB	04aH
	DB	028H
	DB	042H
	DB	028H
	DB	042H
	DB	029H
	DB	04aH
	DB	028H
	DB	042H
	DB	029H
	DB	042H
	DB	028H
	DB	04aH
	DB	028H
	DB	042H
	DB	029H
	DB	042H
	DB	028H
	DB	04aH
	DB	028H
	DB	042H
	DB	029H
	DB	042H
	DB	028H
	DB	042H
	DB	028H
	DB	04aH
	DB	028H
	DB	042H
	DB	028H
	DB	042H
	DB	029H
	DB	04aH
	DB	028H
	DB	04aH
	DB	028H
	DB	042H
	DB	028H
	DB	042H
	DB	08H
	DB	042H
	DB	028H
	DB	042H
	DB	028H
	DB	042H
	DB	028H
	DB	042H
	DB	028H
	DB	042H
	DB	028H
	DB	042H
	DB	028H
	DB	042H
	DB	028H
	DB	042H
	DB	028H
	DB	042H
	DB	028H
	DB	042H
	DB	028H
	DB	042H
	DB	028H
	DB	042H
	DB	028H
	DB	042H
	DB	028H
	DB	042H
	DB	028H
	DB	042H
	DB	028H
	DB	042H
	DB	028H
	DB	042H
	DB	028H
	DB	042H
	DB	028H
	DB	042H
	DB	028H
	DB	042H
	DB	028H
	DB	042H
	DB	028H
	DB	042H
	DB	028H
	DB	042H
	DB	028H
	DB	042H
	DB	028H
	DB	042H
	DB	028H
	DB	042H
	DB	028H
	DB	042H
	DB	028H
	DB	042H
	DB	028H
	DB	042H
	DB	028H
	DB	042H
	DB	028H
	DB	042H
	DB	028H
	DB	042H
	DB	028H
	DB	042H
	DB	028H
	DB	042H
	DB	028H
	DB	042H
	DB	028H
	DB	042H
	DB	028H
	DB	042H
	DB	028H
	DB	042H
	DB	028H
	DB	042H
	DB	028H
	DB	042H
	DB	028H
	DB	042H
	DB	028H
	DB	042H
	DB	028H
	DB	042H
	DB	028H
	DB	042H
	DB	028H
	DB	042H
	DB	028H
	DB	042H
	DB	028H
	DB	042H
	DB	028H
	DB	042H
	DB	028H
	DB	042H
	DB	028H
	DB	042H
	DB	028H
	DB	042H
	DB	028H
	DB	042H
	DB	028H
	DB	042H
	DB	028H
	DB	042H
	DB	028H
	DB	042H
	DB	028H
	DB	042H
	DB	028H
	DB	042H
	DB	028H
	DB	042H
	DB	028H
	DB	042H
	DB	028H
	DB	042H
	DB	028H
	DB	042H
	DB	028H
	DB	042H
	DB	028H
	DB	042H
	DB	028H
	DB	042H
	DB	029H
	DB	042H
	DB	028H
	DB	042H
	DB	028H
	DB	042H
	DB	028H
	DB	042H
	DB	028H
	DB	042H
	DB	028H
	DB	042H
	DB	028H
	DB	042H
	DB	028H
	DB	042H
	DB	028H
	DB	042H
	DB	028H
	DB	042H
	DB	08H
	DB	042H
	DB	028H
	DB	042H
	DB	029H
	DB	04aH
	DB	065H
	DB	029H
	DB	029H
	DB	04aH
	DB	028H
	DB	042H
	DB	028H
	DB	042H
	DB	028H
	DB	042H
	DB	028H
	DB	042H
	DB	028H
	DB	042H
	DB	028H
	DB	042H
	DB	028H
	DB	042H
	DB	028H
	DB	042H
	DB	028H
	DB	042H
	DB	028H
	DB	042H
	DB	028H
	DB	042H
	DB	08H
	DB	042H
	DB	08H
	DB	042H
	DB	08H
	DB	042H
	DB	028H
	DB	042H
	DB	028H
	DB	042H
	DB	08H
	DB	042H
	DB	028H
	DB	042H
	DB	08H
	DB	042H
	DB	028H
	DB	042H
	DB	08H
	DB	042H
	DB	028H
	DB	042H
	DB	08H
	DB	042H
	DB	08H
	DB	042H
	DB	028H
	DB	04aH
	DB	028H
	DB	042H
	DB	08H
	DB	042H
	DB	028H
	DB	042H
	DB	028H
	DB	042H
	DB	08H
	DB	042H
	DB	028H
	DB	042H
	DB	028H
	DB	042H
	DB	028H
	DB	042H
	DB	028H
	DB	042H
	DB	028H
	DB	042H
	DB	028H
	DB	042H
	DB	028H
	DB	042H
	DB	028H
	DB	042H
	DB	028H
	DB	042H
	DB	028H
	DB	042H
	DB	028H
	DB	042H
	DB	028H
	DB	042H
	DB	08H
	DB	042H
	DB	028H
	DB	042H
	DB	08H
	DB	042H
	DB	028H
	DB	042H
	DB	08H
	DB	042H
	DB	028H
	DB	042H
	DB	08H
	DB	042H
	DB	028H
	DB	042H
	DB	028H
	DB	042H
	DB	08H
	DB	042H
	DB	028H
	DB	042H
	DB	08H
	DB	042H
	DB	08H
	DB	042H
	DB	028H
	DB	042H
	DB	08H
	DB	042H
	DB	028H
	DB	042H
	DB	028H
	DB	04aH
	DB	028H
	DB	042H
	DB	028H
	DB	042H
	DB	028H
	DB	04aH
	DB	08H
	DB	042H
	DB	028H
	DB	042H
	DB	028H
	DB	04aH
	DB	08H
	DB	042H
	DB	028H
	DB	042H
	DB	028H
	DB	04aH
	DB	028H
	DB	042H
	DB	028H
	DB	042H
	DB	028H
	DB	04aH
	DB	028H
	DB	042H
	DB	08H
	DB	042H
	DB	028H
	DB	042H
	DB	028H
	DB	042H
	DB	08H
	DB	04aH
	DB	028H
	DB	042H
	DB	028H
	DB	042H
	DB	08H
	DB	042H
	DB	028H
	DB	042H
	DB	028H
	DB	042H
	DB	028H
	DB	042H
	DB	028H
	DB	042H
	DB	028H
	DB	042H
	DB	028H
	DB	042H
	DB	08H
	DB	042H
	DB	028H
	DB	042H
	DB	028H
	DB	042H
	DB	08H
	DB	042H
	DB	08H
	DB	042H
	DB	08H
	DB	042H
	DB	08H
	DB	042H
	DB	08H
	DB	042H
	DB	08H
	DB	042H
	DB	028H
	DB	042H
	DB	08H
	DB	042H
	DB	08H
	DB	042H
	DB	028H
	DB	042H
	DB	08H
	DB	042H
	DB	08H
	DB	042H
	DB	028H
	DB	042H
	DB	08H
	DB	042H
	DB	08H
	DB	042H
	DB	028H
	DB	042H
	DB	08H
	DB	042H
	DB	08H
	DB	042H
	DB	028H
	DB	042H
	DB	08H
	DB	042H
	DB	08H
	DB	042H
	DB	028H
	DB	042H
	DB	08H
	DB	042H
	DB	028H
	DB	042H
	DB	08H
	DB	042H
	DB	08H
	DB	042H
	DB	028H
	DB	042H
	DB	08H
	DB	042H
	DB	028H
	DB	042H
	DB	08H
	DB	042H
	DB	028H
	DB	042H
	DB	08H
	DB	042H
	DB	028H
	DB	04aH
	DB	08H
	DB	042H
	DB	028H
	DB	042H
	DB	08H
	DB	04aH
	DB	08H
	DB	042H
	DB	028H
	DB	042H
	DB	08H
	DB	04aH
	DB	08H
	DB	04aH
	DB	028H
	DB	042H
	DB	08H
	DB	04aH
	DB	08H
	DB	04aH
	DB	028H
	DB	042H
	DB	08H
	DB	04aH
	DB	08H
	DB	04aH
	DB	028H
	DB	042H
	DB	08H
	DB	04aH
	DB	08H
	DB	042H
	DB	028H
	DB	042H
	DB	08H
	DB	04aH
	DB	028H
	DB	042H
	DB	08H
	DB	042H
	DB	08H
	DB	04aH
	DB	028H
	DB	042H
	DB	029H
	DB	042H
	DB	08H
	DB	04aH
	DB	028H
	DB	042H
	DB	029H
	DB	042H
	DB	08H
	DB	04aH
	DB	028H
	DB	042H
	DB	09H
	DB	042H
	DB	08H
	DB	042H
	DB	028H
	DB	042H
	DB	029H
	DB	04aH
	DB	08H
	DB	042H
	DB	028H
	DB	042H
	DB	029H
	DB	04aH
	DB	08H
	DB	042H
	DB	028H
	DB	042H
	DB	029H
	DB	04aH
	DB	08H
	DB	042H
	DB	028H
	DB	042H
	DB	028H
	DB	04aH
	DB	08H
	DB	042H
	DB	028H
	DB	042H
	DB	08H
	DB	04aH
	DB	08H
	DB	042H
	DB	028H
	DB	042H
	DB	028H
	DB	04aH
	DB	028H
	DB	042H
	DB	028H
	DB	042H
	DB	028H
	DB	04aH
	DB	028H
	DB	042H
	DB	028H
	DB	042H
	DB	028H
	DB	04aH
	DB	028H
	DB	042H
	DB	028H
	DB	042H
	DB	028H
	DB	042H
	DB	028H
	DB	04aH
	DB	028H
	DB	042H
	DB	028H
	DB	04aH
	DB	028H
	DB	042H
	DB	028H
	DB	042H
	DB	028H
	DB	042H
	DB	028H
	DB	042H
	DB	028H
	DB	04aH
	DB	028H
	DB	042H
	DB	028H
	DB	042H
	DB	029H
	DB	042H
	DB	028H
	DB	042H
	DB	08H
	DB	042H
	DB	028H
	DB	042H
	DB	028H
	DB	042H
	DB	09H
	DB	04aH
	DB	028H
	DB	042H
	DB	08H
	DB	042H
	DB	029H
	DB	04aH
	DB	028H
	DB	042H
	DB	08H
	DB	042H
	DB	028H
	DB	042H
	DB	029H
	DB	042H
	DB	028H
	DB	04aH
	DB	028H
	DB	042H
	DB	028H
	DB	042H
	DB	028H
	DB	04aH
	DB	029H
	DB	042H
	DB	028H
	DB	042H
	DB	028H
	DB	04aH
	DB	029H
	DB	042H
	DB	028H
	DB	042H
	DB	028H
	DB	04aH
	DB	028H
	DB	042H
	DB	029H
	DB	042H
	DB	028H
	DB	04aH
	DB	028H
	DB	042H
	DB	028H
	DB	042H
	DB	028H
	DB	04aH
	DB	029H
	DB	042H
	DB	028H
	DB	042H
	DB	028H
	DB	04aH
	DB	029H
	DB	042H
	DB	028H
	DB	042H
	DB	028H
	DB	04aH
	DB	08H
	DB	042H
	DB	028H
	DB	042H
	DB	028H
	DB	04aH
	DB	08H
	DB	04aH
	DB	028H
	DB	042H
	DB	028H
	DB	04aH
	DB	08H
	DB	04aH
	DB	08H
	DB	042H
	DB	029H
	DB	042H
	DB	028H
	DB	04aH
	DB	028H
	DB	042H
	DB	029H
	DB	042H
	DB	028H
	DB	042H
	DB	029H
	DB	042H
	DB	028H
	DB	04aH
	DB	029H
	DB	042H
	DB	028H
	DB	042H
	DB	028H
	DB	04aH
	DB	029H
	DB	042H
	DB	028H
	DB	042H
	DB	028H
	DB	04aH
	DB	029H
	DB	042H
	DB	028H
	DB	042H
	DB	028H
	DB	04aH
	DB	029H
	DB	042H
	DB	028H
	DB	042H
	DB	028H
	DB	04aH
	DB	028H
	DB	042H
	DB	029H
	DB	042H
	DB	028H
	DB	04aH
	DB	028H
	DB	042H
	DB	028H
	DB	042H
	DB	029H
	DB	04aH
	DB	028H
	DB	042H
	DB	028H
	DB	042H
	DB	028H
	DB	042H
	DB	028H
	DB	04aH
	DB	028H
	DB	042H
	DB	028H
	DB	04aH
	DB	028H
	DB	042H
	DB	028H
	DB	042H
	DB	029H
	DB	04aH
	DB	028H
	DB	042H
	DB	028H
	DB	042H
	DB	029H
	DB	04aH
	DB	028H
	DB	04aH
	DB	028H
	DB	042H
	DB	029H
	DB	04aH
	DB	028H
	DB	04aH
	DB	028H
	DB	042H
	DB	029H
	DB	04aH
	DB	028H
	DB	04aH
	DB	028H
	DB	042H
	DB	029H
	DB	04aH
	DB	028H
	DB	04aH
	DB	028H
	DB	042H
	DB	029H
	DB	04aH
	DB	028H
	DB	04aH
	DB	029H
	DB	042H
	DB	029H
	DB	04aH
	DB	028H
	DB	04aH
	DB	029H
	DB	042H
	DB	029H
	DB	04aH
	DB	028H
	DB	042H
	DB	028H
	DB	04aH
	DB	029H
	DB	042H
	DB	029H
	DB	04aH
	DB	029H
	DB	042H
	DB	028H
	DB	042H
	DB	029H
	DB	04aH
	DB	029H
	DB	042H
	DB	028H
	DB	042H
	DB	029H
	DB	04aH
	DB	029H
	DB	042H
	DB	029H
	DB	042H
	DB	029H
	DB	04aH
	DB	028H
	DB	042H
	DB	029H
	DB	04aH
	DB	029H
	DB	04aH
	DB	029H
	DB	042H
	DB	029H
	DB	04aH
	DB	028H
	DB	04aH
	DB	029H
	DB	042H
	DB	028H
	DB	04aH
	DB	028H
	DB	04aH
	DB	029H
	DB	042H
	DB	028H
	DB	042H
	DB	029H
	DB	04aH
	DB	029H
	DB	04aH
	DB	028H
	DB	042H
	DB	029H
	DB	04aH
	DB	028H
	DB	042H
	DB	028H
	DB	04aH
	DB	029H
	DB	042H
	DB	028H
	DB	04aH
	DB	028H
	DB	042H
	DB	029H
	DB	04aH
	DB	028H
	DB	04aH
	DB	028H
	DB	04aH
	DB	029H
	DB	042H
	DB	029H
	DB	04aH
	DB	048H
	DB	04aH
	DB	028H
	DB	04aH
	DB	029H
	DB	042H
	DB	029H
	DB	04aH
	DB	028H
	DB	04aH
	DB	029H
	DB	04aH
	DB	028H
	DB	042H
	DB	028H
	DB	04aH
	DB	029H
	DB	042H
	DB	029H
	DB	042H
	DB	048H
	DB	04aH
	DB	029H
	DB	04aH
	DB	028H
	DB	04aH
	DB	049H
	DB	042H
	DB	028H
	DB	04aH
	DB	049H
	DB	04aH
	DB	028H
	DB	04aH
	DB	049H
	DB	042H
	DB	029H
	DB	04aH
	DB	028H
	DB	04aH
	DB	049H
	DB	04aH
	DB	029H
	DB	04aH
	DB	028H
	DB	04aH
	DB	049H
	DB	04aH
	DB	029H
	DB	04aH
	DB	029H
	DB	04aH
	DB	048H
	DB	042H
	DB	029H
	DB	04aH
	DB	029H
	DB	04aH
	DB	028H
	DB	04aH
	DB	028H
	DB	042H
	DB	029H
	DB	04aH
	DB	028H
	DB	04aH
	DB	029H
	DB	042H
	DB	048H
	DB	04aH
	DB	029H
	DB	04aH
	DB	048H
	DB	042H
	DB	049H
	DB	04aH
	DB	048H
	DB	04aH
	DB	048H
	DB	042H
	DB	049H
	DB	04aH
	DB	048H
	DB	04aH
	DB	028H
	DB	042H
	DB	049H
	DB	04aH
	DB	028H
	DB	04aH
	DB	028H
	DB	042H
	DB	029H
	DB	042H
	DB	048H
	DB	04aH
	DB	048H
	DB	042H
	DB	029H
	DB	04aH
	DB	028H
	DB	042H
	DB	029H
	DB	04aH
	DB	048H
	DB	042H
	DB	049H
	DB	04aH
	DB	049H
	DB	042H
	DB	028H
	DB	042H
	DB	029H
	DB	04aH
	DB	028H
	DB	04aH
	DB	049H
	DB	042H
	DB	029H
	DB	04aH
	DB	028H
	DB	04aH
	DB	049H
	DB	04aH
	DB	029H
	DB	04aH
	DB	028H
	DB	04aH
	DB	029H
	DB	04aH
	DB	029H
	DB	04aH
	DB	028H
	DB	04aH
	DB	049H
	DB	04aH
	DB	029H
	DB	04aH
	DB	028H
	DB	04aH
	DB	029H
	DB	04aH
	DB	029H
	DB	04aH
	DB	028H
	DB	04aH
	DB	029H
	DB	04aH
	DB	029H
	DB	04aH
	DB	028H
	DB	04aH
	DB	029H
	DB	04aH
	DB	049H
	DB	04aH
	DB	029H
	DB	04aH
	DB	028H
	DB	04aH
	DB	029H
	DB	04aH
	DB	049H
	DB	04aH
	DB	029H
	DB	04aH
	DB	029H
	DB	04aH
	DB	028H
	DB	04aH
	DB	048H
	DB	042H
	DB	029H
	DB	04aH
	DB	028H
	DB	04aH
	DB	049H
	DB	042H
	DB	028H
	DB	04aH
	DB	048H
	DB	04aH
	DB	028H
	DB	042H
	DB	029H
	DB	04aH
	DB	028H
	DB	04aH
	DB	028H
	DB	042H
	DB	029H
	DB	04aH
	DB	028H
	DB	04aH
	DB	028H
	DB	042H
	DB	029H
	DB	04aH
	DB	029H
	DB	04aH
	DB	029H
	DB	042H
	DB	029H
	DB	04aH
	DB	028H
	DB	042H
	DB	029H
	DB	04aH
	DB	028H
	DB	04aH
	DB	028H
	DB	042H
	DB	028H
	DB	042H
	DB	029H
	DB	04aH
	DB	08H
	DB	042H
	DB	028H
	DB	042H
	DB	09H
	DB	042H
	DB	028H
	DB	04aH
	DB	08H
	DB	042H
	DB	09H
	DB	042H
	DB	028H
	DB	04aH
	DB	028H
	DB	042H
	DB	09H
	DB	042H
	DB	08H
	DB	04aH
	DB	028H
	DB	042H
	DB	029H
	DB	042H
	DB	08H
	DB	04aH
	DB	08H
	DB	042H
	DB	029H
	DB	042H
	DB	028H
	DB	04aH
	DB	08H
	DB	042H
	DB	09H
	DB	042H
	DB	028H
	DB	04aH
	DB	028H
	DB	042H
	DB	09H
	DB	042H
	DB	08H
	DB	04aH
	DB	028H
	DB	042H
	DB	029H
	DB	042H
	DB	08H
	DB	04aH
	DB	08H
	DB	042H
	DB	029H
	DB	042H
	DB	028H
	DB	04aH
	DB	08H
	DB	042H
	DB	09H
	DB	042H
	DB	028H
	DB	04aH
	DB	028H
	DB	042H
	DB	09H
	DB	042H
	DB	08H
	DB	04aH
	DB	028H
	DB	042H
	DB	029H
	DB	042H
	DB	08H
	DB	04aH
	DB	08H
	DB	042H
	DB	029H
	DB	042H
	DB	028H
	DB	04aH
	DB	08H
	DB	042H
	DB	09H
	DB	042H
	DB	028H
	DB	04aH
	DB	028H
	DB	042H
	DB	09H
	DB	042H
	DB	08H
	DB	04aH
	DB	028H
	DB	042H
	DB	029H
	DB	042H
	DB	08H
	DB	04aH
	DB	08H
	DB	042H
	DB	029H
	DB	042H
	DB	028H
	DB	04aH
	DB	08H
	DB	042H
	DB	09H
	DB	042H
	DB	028H
	DB	04aH
	DB	028H
	DB	042H
	DB	09H
	DB	042H
	DB	08H
	DB	04aH
	DB	028H
	DB	042H
	DB	029H
	DB	042H
	DB	08H
	DB	04aH
	DB	08H
	DB	042H
	DB	028H
	DB	042H
	DB	028H
	DB	04aH
	DB	09H
	DB	042H
	DB	08H
	DB	042H
	DB	029H
	DB	04aH
	DB	028H
	DB	042H
	DB	08H
	DB	042H
	DB	09H
	DB	04aH
	DB	028H
	DB	042H
	DB	028H
	DB	042H
	DB	09H
	DB	04aH
	DB	028H
	DB	042H
	DB	028H
	DB	042H
	DB	029H
	DB	04aH
	DB	065H
	DB	031H
	DB	049H
	DB	042H
	DB	028H
	DB	042H
	DB	028H
	DB	04aH
	DB	08H
	DB	042H
	DB	09H
	DB	042H
	DB	028H
	DB	04aH
	DB	028H
	DB	042H
	DB	09H
	DB	042H
	DB	08H
	DB	04aH
	DB	028H
	DB	042H
	DB	029H
	DB	042H
	DB	028H
	DB	04aH
	DB	028H
	DB	042H
	DB	029H
	DB	042H
	DB	028H
	DB	04aH
	DB	028H
	DB	042H
	DB	09H
	DB	042H
	DB	028H
	DB	04aH
	DB	028H
	DB	042H
	DB	09H
	DB	042H
	DB	028H
	DB	04aH
	DB	028H
	DB	042H
	DB	029H
	DB	042H
	DB	028H
	DB	042H
	DB	08H
	DB	042H
	DB	029H
	DB	042H
	DB	028H
	DB	042H
	DB	028H
	DB	042H
	DB	09H
	DB	042H
	DB	028H
	DB	04aH
	DB	028H
	DB	042H
	DB	029H
	DB	042H
	DB	08H
	DB	042H
	DB	028H
	DB	04aH
	DB	029H
	DB	042H
	DB	028H
	DB	042H
	DB	08H
	DB	042H
	DB	029H
	DB	042H
	DB	028H
	DB	042H
	DB	028H
	DB	042H
	DB	09H
	DB	042H
	DB	028H
	DB	042H
	DB	028H
	DB	042H
	DB	09H
	DB	042H
	DB	028H
	DB	042H
	DB	028H
	DB	04aH
	DB	09H
	DB	042H
	DB	028H
	DB	042H
	DB	08H
	DB	04aH
	DB	029H
	DB	042H
	DB	08H
	DB	042H
	DB	08H
	DB	04aH
	DB	029H
	DB	042H
	DB	028H
	DB	042H
	DB	08H
	DB	04aH
	DB	029H
	DB	042H
	DB	08H
	DB	042H
	DB	08H
	DB	042H
	DB	029H
	DB	042H
	DB	08H
	DB	042H
	DB	08H
	DB	042H
	DB	029H
	DB	042H
	DB	08H
	DB	042H
	DB	08H
	DB	04aH
	DB	029H
	DB	042H
	DB	028H
	DB	042H
	DB	08H
	DB	042H
	DB	09H
	DB	042H
	DB	08H
	DB	04aH
	DB	08H
	DB	042H
	DB	029H
	DB	042H
	DB	08H
	DB	04aH
	DB	08H
	DB	042H
	DB	029H
	DB	042H
	DB	08H
	DB	04aH
	DB	08H
	DB	042H
	DB	029H
	DB	042H
	DB	028H
	DB	042H
	DB	08H
	DB	04aH
	DB	08H
	DB	042H
	DB	08H
	DB	042H
	DB	08H
	DB	042H
	DB	08H
	DB	042H
	DB	08H
	DB	042H
	DB	028H
	DB	042H
	DB	08H
	DB	042H
	DB	08H
	DB	042H
	DB	028H
	DB	042H
	DB	08H
	DB	042H
	DB	028H
	DB	042H
	DB	028H
	DB	042H
	DB	08H
	DB	04aH
	DB	028H
	DB	042H
	DB	028H
	DB	042H
	DB	08H
	DB	042H
	DB	028H
	DB	042H
	DB	028H
	DB	04aH
	DB	08H
	DB	042H
	DB	028H
	DB	042H
	DB	08H
	DB	04aH
	DB	028H
	DB	042H
	DB	028H
	DB	042H
	DB	08H
	DB	04aH
	DB	08H
	DB	042H
	DB	028H
	DB	04aH
	DB	08H
	DB	04aH
	DB	028H
	DB	042H
	DB	08H
	DB	04aH
	DB	028H
	DB	04aH
	DB	08H
	DB	042H
	DB	08H
	DB	04aH
	DB	028H
	DB	04aH
	DB	028H
	DB	042H
	DB	08H
	DB	04aH
	DB	028H
	DB	04aH
	DB	028H
	DB	042H
	DB	08H
	DB	04aH
	DB	028H
	DB	04aH
	DB	028H
	DB	042H
	DB	08H
	DB	04aH
	DB	028H
	DB	042H
	DB	08H
	DB	042H
	DB	028H
	DB	04aH
	DB	028H
	DB	042H
	DB	028H
	DB	042H
	DB	08H
	DB	04aH
	DB	028H
	DB	042H
	DB	028H
	DB	042H
	DB	09H
	DB	042H
	DB	028H
	DB	042H
	DB	08H
	DB	042H
	DB	029H
	DB	042H
	DB	08H
	DB	042H
	DB	028H
	DB	042H
	DB	029H
	DB	042H
	DB	08H
	DB	042H
	DB	028H
	DB	04aH
	DB	029H
	DB	042H
	DB	08H
	DB	042H
	DB	029H
	DB	042H
	DB	028H
	DB	042H
	DB	029H
	DB	042H
	DB	08H
	DB	042H
	DB	028H
	DB	042H
	DB	08H
	DB	042H
	DB	028H
	DB	042H
	DB	029H
	DB	042H
	DB	028H
	DB	042H
	DB	028H
	DB	042H
	DB	029H
	DB	04aH
	DB	028H
	DB	042H
	DB	028H
	DB	042H
	DB	029H
	DB	04aH
	DB	028H
	DB	042H
	DB	028H
	DB	042H
	DB	029H
	DB	042H
	DB	028H
	DB	042H
	DB	028H
	DB	042H
	DB	029H
	DB	042H
	DB	028H
	DB	042H
	DB	028H
	DB	042H
	DB	028H
	DB	042H
	DB	028H
	DB	042H
	DB	028H
	DB	042H
	DB	028H
	DB	042H
	DB	028H
	DB	042H
	DB	028H
	DB	042H
	DB	028H
	DB	042H
	DB	09H
	DB	042H
	DB	028H
	DB	042H
	DB	029H
	DB	042H
	DB	08H
	DB	042H
	DB	029H
	DB	042H
	DB	028H
	DB	042H
	DB	09H
	DB	042H
	DB	028H
	DB	042H
	DB	029H
	DB	04aH
	DB	08H
	DB	042H
	DB	028H
	DB	042H
	DB	029H
	DB	042H
	DB	028H
	DB	04aH
	DB	029H
	DB	042H
	DB	029H
	DB	042H
	DB	028H
	DB	04aH
	DB	08H
	DB	042H
	DB	029H
	DB	042H
	DB	028H
	DB	04aH
	DB	08H
	DB	042H
	DB	028H
	DB	04aH
	DB	029H
	DB	042H
	DB	08H
	DB	04aH
	DB	028H
	DB	042H
	DB	028H
	DB	04aH
	DB	028H
	DB	04aH
	DB	08H
	DB	042H
	DB	029H
	DB	04aH
	DB	028H
	DB	04aH
	DB	028H
	DB	042H
	DB	08H
	DB	04aH
	DB	028H
	DB	04aH
	DB	029H
	DB	04aH
	DB	028H
	DB	042H
	DB	08H
	DB	04aH
	DB	029H
	DB	04aH
	DB	028H
	DB	042H
	DB	08H
	DB	04aH
	DB	028H
	DB	042H
	DB	028H
	DB	04aH
	DB	028H
	DB	04aH
	DB	08H
	DB	042H
	DB	028H
	DB	04aH
	DB	028H
	DB	04aH
	DB	09H
	DB	042H
	DB	028H
	DB	04aH
	DB	028H
	DB	04aH
	DB	029H
	DB	042H
	DB	08H
	DB	04aH
	DB	028H
	DB	04aH
	DB	028H
	DB	042H
	DB	08H
	DB	04aH
	DB	028H
	DB	042H
	DB	029H
	DB	042H
	DB	029H
	DB	04aH
	DB	029H
	DB	042H
	DB	028H
	DB	042H
	DB	029H
	DB	04aH
	DB	029H
	DB	042H
	DB	029H
	DB	042H
	DB	029H
	DB	04aH
	DB	028H
	DB	042H
	DB	029H
	DB	042H
	DB	028H
	DB	04aH
	DB	029H
	DB	042H
	DB	028H
	DB	04aH
	DB	028H
	DB	04aH
	DB	029H
	DB	042H
	DB	028H
	DB	04aH
	DB	028H
	DB	04aH
	DB	029H
	DB	042H
	DB	028H
	DB	04aH
	DB	029H
	DB	042H
	DB	028H
	DB	042H
	DB	028H
	DB	04aH
	DB	029H
	DB	042H
	DB	029H
	DB	042H
	DB	028H
	DB	04aH
	DB	029H
	DB	04aH
	DB	028H
	DB	042H
	DB	029H
	DB	04aH
	DB	028H
	DB	04aH
	DB	029H
	DB	042H
	DB	028H
	DB	04aH
	DB	029H
	DB	04aH
	DB	028H
	DB	042H
	DB	029H
	DB	04aH
	DB	028H
	DB	04aH
	DB	029H
	DB	04aH
	DB	029H
	DB	04aH
	DB	029H
	DB	04aH
	DB	029H
	DB	042H
	DB	028H
	DB	04aH
	DB	029H
	DB	04aH
	DB	029H
	DB	04aH
	DB	028H
	DB	04aH
	DB	029H
	DB	04aH
	DB	029H
	DB	04aH
	DB	028H
	DB	042H
	DB	029H
	DB	04aH
	DB	029H
	DB	042H
	DB	028H
	DB	04aH
	DB	029H
	DB	042H
	DB	029H
	DB	042H
	DB	028H
	DB	04aH
	DB	029H
	DB	042H
	DB	029H
	DB	04aH
	DB	028H
	DB	042H
	DB	029H
	DB	04aH
	DB	029H
	DB	042H
	DB	029H
	DB	04aH
	DB	028H
	DB	042H
	DB	029H
	DB	04aH
	DB	028H
	DB	042H
	DB	029H
	DB	04aH
	DB	029H
	DB	042H
	DB	028H
	DB	042H
	DB	029H
	DB	04aH
	DB	029H
	DB	042H
	DB	028H
	DB	042H
	DB	029H
	DB	04aH
	DB	028H
	DB	04aH
	DB	029H
	DB	042H
	DB	029H
	DB	04aH
	DB	028H
	DB	04aH
	DB	029H
	DB	042H
	DB	028H
	DB	04aH
	DB	028H
	DB	04aH
	DB	028H
	DB	042H
	DB	028H
	DB	04aH
	DB	029H
	DB	042H
	DB	028H
	DB	042H
	DB	028H
	DB	042H
	DB	029H
	DB	04aH
	DB	028H
	DB	042H
	DB	028H
	DB	042H
	DB	029H
	DB	04aH
	DB	029H
	DB	042H
	DB	028H
	DB	04aH
	DB	049H
	DB	042H
	DB	028H
	DB	04aH
	DB	028H
	DB	04aH
	DB	049H
	DB	042H
	DB	028H
	DB	042H
	DB	049H
	DB	04aH
	DB	029H
	DB	042H
	DB	048H
	DB	04aH
	DB	029H
	DB	042H
	DB	049H
	DB	04aH
	DB	028H
	DB	042H
	DB	049H
	DB	04aH
	DB	029H
	DB	042H
	DB	049H
	DB	04aH
	DB	028H
	DB	04aH
	DB	029H
	DB	042H
	DB	049H
	DB	04aH
	DB	028H
	DB	04aH
	DB	029H
	DB	042H
	DB	048H
	DB	04aH
	DB	048H
	DB	04aH
	DB	029H
	DB	042H
	DB	049H
	DB	04aH
	DB	028H
	DB	04aH
	DB	048H
	DB	04aH
	DB	029H
	DB	04aH
	DB	028H
	DB	042H
	DB	049H
	DB	04aH
	DB	028H
	DB	04aH
	DB	029H
	DB	042H
	DB	048H
	DB	04aH
	DB	029H
	DB	04aH
	DB	028H
	DB	042H
	DB	029H
	DB	04aH
	DB	048H
	DB	04aH
	DB	028H
	DB	042H
	DB	029H
	DB	04aH
	DB	049H
	DB	042H
	DB	049H
	DB	042H
	DB	048H
	DB	04aH
	DB	049H
	DB	042H
	DB	029H
	DB	04aH
	DB	048H
	DB	04aH
	DB	049H
	DB	042H
	DB	049H
	DB	04aH
	DB	048H
	DB	04aH
	DB	049H
	DB	042H
	DB	049H
	DB	04aH
	DB	048H
	DB	04aH
	DB	048H
	DB	042H
	DB	049H
	DB	04aH
	DB	048H
	DB	04aH
	DB	028H
	DB	042H
	DB	029H
	DB	042H
	DB	029H
	DB	04aH
	DB	028H
	DB	04aH
	DB	029H
	DB	042H
	DB	049H
	DB	04aH
	DB	028H
	DB	04aH
	DB	049H
	DB	042H
	DB	049H
	DB	04aH
	DB	048H
	DB	04aH
	DB	049H
	DB	042H
	DB	029H
	DB	04aH
	DB	048H
	DB	04aH
	DB	029H
	DB	04aH
	DB	048H
	DB	042H
	DB	049H
	DB	04aH
	DB	028H
	DB	04aH
	DB	048H
	DB	042H
	DB	028H
	DB	04aH
	DB	029H
	DB	04aH
	DB	048H
	DB	04aH
	DB	048H
	DB	042H
	DB	049H
	DB	04aH
	DB	048H
	DB	04aH
	DB	048H
	DB	042H
	DB	029H
	DB	042H
	DB	048H
	DB	042H
	DB	048H
	DB	042H
	DB	049H
	DB	04aH
	DB	048H
	DB	042H
	DB	049H
	DB	042H
	DB	048H
	DB	04aH
	DB	048H
	DB	042H
	DB	049H
	DB	042H
	DB	049H
	DB	04aH
	DB	048H
	DB	042H
	DB	049H
	DB	042H
	DB	049H
	DB	04aH
	DB	048H
	DB	042H
	DB	049H
	DB	04aH
	DB	049H
	DB	042H
	DB	028H
	DB	042H
	DB	028H
	DB	04aH
	DB	029H
	DB	042H
	DB	028H
	DB	042H
	DB	028H
	DB	04aH
	DB	029H
	DB	042H
	DB	028H
	DB	04aH
	DB	028H
	DB	042H
	DB	029H
	DB	04aH
	DB	029H
	DB	04aH
	DB	028H
	DB	04aH
	DB	029H
	DB	042H
	DB	029H
	DB	04aH
	DB	029H
	DB	04aH
	DB	029H
	DB	042H
	DB	048H
	DB	042H
	DB	029H
	DB	04aH
	DB	049H
	DB	04aH
	DB	049H
	DB	042H
	DB	028H
	DB	04aH
	DB	049H
	DB	04aH
	DB	029H
	DB	042H
	DB	048H
	DB	04aH
	DB	028H
	DB	04aH
	DB	049H
	DB	042H
	DB	049H
	DB	04aH
	DB	028H
	DB	04aH
	DB	029H
	DB	042H
	DB	028H
	DB	042H
	DB	028H
	DB	042H
	DB	028H
	DB	042H
	DB	029H
	DB	04aH
	DB	028H
	DB	042H
	DB	028H
	DB	042H
	DB	029H
	DB	04aH
	DB	028H
	DB	042H
	DB	028H
	DB	042H
	DB	029H
	DB	04aH
	DB	028H
	DB	042H
	DB	08H
	DB	042H
	DB	029H
	DB	04aH
	DB	028H
	DB	042H
	DB	028H
	DB	042H
	DB	029H
	DB	04aH
	DB	028H
	DB	042H
	DB	028H
	DB	042H
	DB	09H
	DB	04aH
	DB	028H
	DB	042H
	DB	028H
	DB	042H
	DB	029H
	DB	04aH
	DB	028H
	DB	042H
	DB	08H
	DB	042H
	DB	029H
	DB	04aH
	DB	028H
	DB	042H
	DB	028H
	DB	042H
	DB	029H
	DB	04aH
	DB	028H
	DB	042H
	DB	028H
	DB	042H
	DB	09H
	DB	04aH
	DB	028H
	DB	042H
	DB	028H
	DB	042H
	DB	029H
	DB	04aH
	DB	028H
	DB	042H
	DB	08H
	DB	042H
	DB	029H
	DB	04aH
	DB	028H
	DB	042H
	DB	028H
	DB	042H
	DB	029H
	DB	04aH
	DB	028H
	DB	042H
	DB	028H
	DB	042H
	DB	09H
	DB	04aH
	DB	028H
	DB	042H
	DB	028H
	DB	042H
	DB	029H
	DB	04aH
	DB	028H
	DB	042H
	DB	08H
	DB	042H
	DB	029H
	DB	04aH
	DB	028H
	DB	042H
	DB	028H
	DB	042H
	DB	029H
	DB	04aH
	DB	028H
	DB	042H
	DB	028H
	DB	042H
	DB	09H
	DB	04aH
	DB	028H
	DB	042H
	DB	028H
	DB	042H
	DB	029H
	DB	04aH
	DB	028H
	DB	042H
	DB	08H
	DB	042H
	DB	029H
	DB	04aH
	DB	028H
	DB	042H
	DB	028H
	DB	042H
	DB	029H
	DB	04aH
	DB	028H
	DB	042H
	DB	028H
	DB	042H
	DB	09H
	DB	04aH
	DB	028H
	DB	042H
	DB	028H
	DB	042H
	DB	028H
	DB	04aH
	DB	029H
	DB	042H
	DB	08H
	DB	042H
	DB	028H
	DB	04aH
	DB	028H
	DB	042H
	DB	028H
	DB	042H
	DB	08H
	DB	04aH
	DB	028H
	DB	042H
	DB	028H
	DB	042H
	DB	028H
	DB	042H
	DB	028H
	DB	04aH
	DB	066H
	DB	031H
	DB	028H
	DB	042H
	DB	028H
	DB	042H
	DB	028H
	DB	042H
	DB	028H
	DB	04aH
	DB	028H
	DB	042H
	DB	028H
	DB	042H
	DB	08H
	DB	042H
	DB	028H
	DB	04aH
	DB	028H
	DB	042H
	DB	08H
	DB	042H
	DB	028H
	DB	04aH
	DB	028H
	DB	042H
	DB	08H
	DB	042H
	DB	028H
	DB	04aH
	DB	028H
	DB	042H
	DB	028H
	DB	042H
	DB	028H
	DB	04aH
	DB	028H
	DB	042H
	DB	028H
	DB	042H
	DB	08H
	DB	04aH
	DB	028H
	DB	042H
	DB	028H
	DB	042H
	DB	028H
	DB	04aH
	DB	028H
	DB	04aH
	DB	028H
	DB	042H
	DB	028H
	DB	04aH
	DB	028H
	DB	042H
	DB	028H
	DB	04aH
	DB	028H
	DB	042H
	DB	08H
	DB	042H
	DB	028H
	DB	04aH
	DB	028H
	DB	042H
	DB	08H
	DB	042H
	DB	028H
	DB	04aH
	DB	028H
	DB	042H
	DB	08H
	DB	042H
	DB	028H
	DB	04aH
	DB	028H
	DB	042H
	DB	08H
	DB	042H
	DB	08H
	DB	04aH
	DB	08H
	DB	042H
	DB	08H
	DB	042H
	DB	028H
	DB	04aH
	DB	08H
	DB	042H
	DB	08H
	DB	042H
	DB	028H
	DB	04aH
	DB	08H
	DB	042H
	DB	08H
	DB	042H
	DB	028H
	DB	04aH
	DB	028H
	DB	042H
	DB	08H
	DB	042H
	DB	08H
	DB	04aH
	DB	028H
	DB	042H
	DB	08H
	DB	042H
	DB	028H
	DB	04aH
	DB	028H
	DB	042H
	DB	08H
	DB	04aH
	DB	028H
	DB	04aH
	DB	028H
	DB	042H
	DB	08H
	DB	04aH
	DB	08H
	DB	042H
	DB	028H
	DB	042H
	DB	08H
	DB	042H
	DB	028H
	DB	042H
	DB	08H
	DB	04aH
	DB	08H
	DB	042H
	DB	028H
	DB	042H
	DB	028H
	DB	04aH
	DB	08H
	DB	042H
	DB	028H
	DB	042H
	DB	08H
	DB	042H
	DB	08H
	DB	042H
	DB	028H
	DB	042H
	DB	028H
	DB	042H
	DB	08H
	DB	04aH
	DB	08H
	DB	042H
	DB	028H
	DB	042H
	DB	08H
	DB	042H
	DB	028H
	DB	042H
	DB	028H
	DB	042H
	DB	08H
	DB	042H
	DB	028H
	DB	042H
	DB	028H
	DB	04aH
	DB	08H
	DB	042H
	DB	08H
	DB	042H
	DB	028H
	DB	04aH
	DB	028H
	DB	042H
	DB	08H
	DB	04aH
	DB	08H
	DB	04aH
	DB	028H
	DB	042H
	DB	028H
	DB	042H
	DB	08H
	DB	04aH
	DB	028H
	DB	042H
	DB	028H
	DB	04aH
	DB	08H
	DB	042H
	DB	08H
	DB	042H
	DB	028H
	DB	04aH
	DB	08H
	DB	042H
	DB	08H
	DB	042H
	DB	028H
	DB	04aH
	DB	08H
	DB	042H
	DB	028H
	DB	042H
	DB	028H
	DB	042H
	DB	08H
	DB	042H
	DB	029H
	DB	042H
	DB	028H
	DB	042H
	DB	08H
	DB	042H
	DB	029H
	DB	042H
	DB	028H
	DB	042H
	DB	028H
	DB	042H
	DB	09H
	DB	042H
	DB	028H
	DB	042H
	DB	09H
	DB	042H
	DB	09H
	DB	042H
	DB	028H
	DB	042H
	DB	09H
	DB	042H
	DB	09H
	DB	042H
	DB	028H
	DB	042H
	DB	09H
	DB	042H
	DB	09H
	DB	04aH
	DB	028H
	DB	042H
	DB	09H
	DB	042H
	DB	09H
	DB	042H
	DB	028H
	DB	042H
	DB	09H
	DB	042H
	DB	09H
	DB	042H
	DB	028H
	DB	042H
	DB	08H
	DB	042H
	DB	029H
	DB	04aH
	DB	028H
	DB	042H
	DB	028H
	DB	042H
	DB	09H
	DB	042H
	DB	028H
	DB	04aH
	DB	08H
	DB	042H
	DB	029H
	DB	042H
	DB	028H
	DB	042H
	DB	028H
	DB	042H
	DB	028H
	DB	04aH
	DB	029H
	DB	042H
	DB	028H
	DB	04aH
	DB	028H
	DB	042H
	DB	028H
	DB	04aH
	DB	029H
	DB	042H
	DB	028H
	DB	04aH
	DB	028H
	DB	04aH
	DB	029H
	DB	042H
	DB	028H
	DB	04aH
	DB	08H
	DB	042H
	DB	028H
	DB	042H
	DB	028H
	DB	04aH
	DB	028H
	DB	042H
	DB	028H
	DB	042H
	DB	08H
	DB	042H
	DB	028H
	DB	042H
	DB	028H
	DB	04aH
	DB	08H
	DB	042H
	DB	028H
	DB	042H
	DB	028H
	DB	04aH
	DB	08H
	DB	042H
	DB	028H
	DB	042H
	DB	028H
	DB	04aH
	DB	09H
	DB	042H
	DB	028H
	DB	04aH
	DB	029H
	DB	042H
	DB	09H
	DB	042H
	DB	028H
	DB	04aH
	DB	029H
	DB	042H
	DB	028H
	DB	04aH
	DB	08H
	DB	042H
	DB	029H
	DB	042H
	DB	028H
	DB	04aH
	DB	08H
	DB	042H
	DB	028H
	DB	04aH
	DB	028H
	DB	042H
	DB	08H
	DB	042H
	DB	028H
	DB	04aH
	DB	029H
	DB	042H
	DB	028H
	DB	042H
	DB	028H
	DB	042H
	DB	028H
	DB	042H
	DB	028H
	DB	042H
	DB	028H
	DB	042H
	DB	028H
	DB	04aH
	DB	028H
	DB	042H
	DB	029H
	DB	042H
	DB	028H
	DB	042H
	DB	028H
	DB	042H
	DB	029H
	DB	042H
	DB	028H
	DB	042H
	DB	028H
	DB	04aH
	DB	029H
	DB	042H
	DB	08H
	DB	042H
	DB	029H
	DB	042H
	DB	029H
	DB	042H
	DB	028H
	DB	042H
	DB	028H
	DB	042H
	DB	029H
	DB	042H
	DB	029H
	DB	042H
	DB	028H
	DB	042H
	DB	029H
	DB	04aH
	DB	028H
	DB	042H
	DB	029H
	DB	042H
	DB	029H
	DB	042H
	DB	028H
	DB	042H
	DB	029H
	DB	042H
	DB	029H
	DB	042H
	DB	029H
	DB	042H
	DB	029H
	DB	042H
	DB	028H
	DB	042H
	DB	029H
	DB	042H
	DB	029H
	DB	042H
	DB	028H
	DB	042H
	DB	029H
	DB	042H
	DB	028H
	DB	042H
	DB	029H
	DB	042H
	DB	029H
	DB	042H
	DB	028H
	DB	042H
	DB	029H
	DB	042H
	DB	029H
	DB	042H
	DB	028H
	DB	04aH
	DB	029H
	DB	042H
	DB	028H
	DB	04aH
	DB	028H
	DB	042H
	DB	028H
	DB	04aH
	DB	029H
	DB	042H
	DB	028H
	DB	042H
	DB	028H
	DB	04aH
	DB	028H
	DB	042H
	DB	028H
	DB	042H
	DB	029H
	DB	042H
	DB	028H
	DB	04aH
	DB	028H
	DB	042H
	DB	028H
	DB	042H
	DB	028H
	DB	042H
	DB	028H
	DB	04aH
	DB	028H
	DB	042H
	DB	028H
	DB	042H
	DB	028H
	DB	042H
	DB	028H
	DB	042H
	DB	028H
	DB	04aH
	DB	029H
	DB	04aH
	DB	028H
	DB	042H
	DB	028H
	DB	04aH
	DB	029H
	DB	04aH
	DB	028H
	DB	042H
	DB	028H
	DB	04aH
	DB	028H
	DB	042H
	DB	029H
	DB	042H
	DB	028H
	DB	04aH
	DB	028H
	DB	042H
	DB	029H
	DB	042H
	DB	028H
	DB	04aH
	DB	028H
	DB	042H
	DB	029H
	DB	042H
	DB	028H
	DB	04aH
	DB	028H
	DB	042H
	DB	029H
	DB	042H
	DB	028H
	DB	04aH
	DB	028H
	DB	042H
	DB	029H
	DB	042H
	DB	029H
	DB	04aH
	DB	028H
	DB	042H
	DB	029H
	DB	042H
	DB	028H
	DB	042H
	DB	028H
	DB	042H
	DB	029H
	DB	04aH
	DB	028H
	DB	042H
	DB	028H
	DB	042H
	DB	029H
	DB	04aH
	DB	028H
	DB	04aH
	DB	028H
	DB	042H
	DB	029H
	DB	04aH
	DB	028H
	DB	042H
	DB	028H
	DB	04aH
	DB	029H
	DB	042H
	DB	028H
	DB	04aH
	DB	028H
	DB	042H
	DB	029H
	DB	04aH
	DB	028H
	DB	042H
	DB	029H
	DB	04aH
	DB	028H
	DB	042H
	DB	028H
	DB	04aH
	DB	029H
	DB	042H
	DB	028H
	DB	04aH
	DB	028H
	DB	04aH
	DB	029H
	DB	042H
	DB	028H
	DB	04aH
	DB	029H
	DB	04aH
	DB	028H
	DB	042H
	DB	028H
	DB	042H
	DB	028H
	DB	04aH
	DB	029H
	DB	042H
	DB	028H
	DB	042H
	DB	029H
	DB	04aH
	DB	029H
	DB	042H
	DB	028H
	DB	042H
	DB	029H
	DB	04aH
	DB	029H
	DB	04aH
	DB	028H
	DB	04aH
	DB	029H
	DB	042H
	DB	028H
	DB	04aH
	DB	029H
	DB	04aH
	DB	028H
	DB	042H
	DB	028H
	DB	04aH
	DB	049H
	DB	042H
	DB	028H
	DB	04aH
	DB	029H
	DB	042H
	DB	049H
	DB	042H
	DB	028H
	DB	04aH
	DB	029H
	DB	04aH
	DB	048H
	DB	04aH
	DB	028H
	DB	04aH
	DB	029H
	DB	04aH
	DB	028H
	DB	04aH
	DB	028H
	DB	042H
	DB	049H
	DB	04aH
	DB	028H
	DB	04aH
	DB	029H
	DB	04aH
	DB	028H
	DB	042H
	DB	028H
	DB	04aH
	DB	049H
	DB	042H
	DB	028H
	DB	04aH
	DB	028H
	DB	04aH
	DB	049H
	DB	042H
	DB	028H
	DB	04aH
	DB	029H
	DB	042H
	DB	029H
	DB	04aH
	DB	048H
	DB	04aH
	DB	049H
	DB	042H
	DB	029H
	DB	042H
	DB	049H
	DB	04aH
	DB	049H
	DB	042H
	DB	049H
	DB	04aH
	DB	049H
	DB	04aH
	DB	028H
	DB	042H
	DB	049H
	DB	04aH
	DB	049H
	DB	042H
	DB	029H
	DB	04aH
	DB	049H
	DB	042H
	DB	049H
	DB	04aH
	DB	049H
	DB	042H
	DB	029H
	DB	04aH
	DB	048H
	DB	04aH
	DB	049H
	DB	042H
	DB	028H
	DB	04aH
	DB	028H
	DB	04aH
	DB	029H
	DB	042H
	DB	049H
	DB	042H
	DB	028H
	DB	04aH
	DB	028H
	DB	042H
	DB	029H
	DB	04aH
	DB	028H
	DB	042H
	DB	049H
	DB	04aH
	DB	029H
	DB	042H
	DB	029H
	DB	04aH
	DB	049H
	DB	04aH
	DB	029H
	DB	042H
	DB	029H
	DB	04aH
	DB	049H
	DB	04aH
	DB	049H
	DB	042H
	DB	048H
	DB	04aH
	DB	048H
	DB	04aH
	DB	029H
	DB	042H
	DB	048H
	DB	04aH
	DB	028H
	DB	042H
	DB	029H
	DB	04aH
	DB	028H
	DB	042H
	DB	028H
	DB	04aH
	DB	029H
	DB	042H
	DB	048H
	DB	04aH
	DB	048H
	DB	04aH
	DB	029H
	DB	042H
	DB	029H
	DB	04aH
	DB	048H
	DB	04aH
	DB	049H
	DB	042H
	DB	029H
	DB	042H
	DB	049H
	DB	04aH
	DB	029H
	DB	04aH
	DB	049H
	DB	042H
	DB	029H
	DB	04aH
	DB	029H
	DB	04aH
	DB	029H
	DB	042H
	DB	029H
	DB	04aH
	DB	049H
	DB	04aH
	DB	029H
	DB	04aH
	DB	029H
	DB	04aH
	DB	049H
	DB	04aH
	DB	029H
	DB	042H
	DB	028H
	DB	04aH
	DB	049H
	DB	04aH
	DB	029H
	DB	04aH
	DB	029H
	DB	042H
	DB	029H
	DB	04aH
	DB	048H
	DB	04aH
	DB	029H
	DB	042H
	DB	029H
	DB	04aH
	DB	048H
	DB	04aH
	DB	029H
	DB	042H
	DB	029H
	DB	04aH
	DB	048H
	DB	04aH
	DB	049H
	DB	042H
	DB	049H
	DB	04aH
	DB	049H
	DB	04aH
	DB	049H
	DB	042H
	DB	049H
	DB	04aH
	DB	048H
	DB	04aH
	DB	049H
	DB	042H
	DB	049H
	DB	04aH
	DB	049H
	DB	042H
	DB	049H
	DB	04aH
	DB	048H
	DB	042H
	DB	049H
	DB	04aH
	DB	048H
	DB	04aH
	DB	049H
	DB	042H
	DB	049H
	DB	04aH
	DB	028H
	DB	04aH
	DB	049H
	DB	042H
	DB	049H
	DB	04aH
	DB	028H
	DB	04aH
	DB	049H
	DB	042H
	DB	028H
	DB	04aH
	DB	029H
	DB	04aH
	DB	028H
	DB	042H
	DB	028H
	DB	04aH
	DB	028H
	DB	042H
	DB	049H
	DB	04aH
	DB	028H
	DB	042H
	DB	049H
	DB	04aH
	DB	029H
	DB	04aH
	DB	028H
	DB	042H
	DB	028H
	DB	042H
	DB	08H
	DB	042H
	DB	028H
	DB	042H
	DB	08H
	DB	04aH
	DB	028H
	DB	042H
	DB	028H
	DB	042H
	DB	08H
	DB	042H
	DB	028H
	DB	042H
	DB	028H
	DB	042H
	DB	028H
	DB	042H
	DB	028H
	DB	042H
	DB	028H
	DB	042H
	DB	08H
	DB	042H
	DB	028H
	DB	042H
	DB	028H
	DB	042H
	DB	028H
	DB	042H
	DB	028H
	DB	042H
	DB	028H
	DB	042H
	DB	028H
	DB	042H
	DB	028H
	DB	042H
	DB	08H
	DB	042H
	DB	028H
	DB	042H
	DB	028H
	DB	042H
	DB	028H
	DB	042H
	DB	08H
	DB	042H
	DB	028H
	DB	042H
	DB	028H
	DB	042H
	DB	028H
	DB	042H
	DB	028H
	DB	042H
	DB	028H
	DB	042H
	DB	028H
	DB	042H
	DB	028H
	DB	042H
	DB	08H
	DB	042H
	DB	028H
	DB	042H
	DB	028H
	DB	042H
	DB	028H
	DB	042H
	DB	08H
	DB	042H
	DB	028H
	DB	042H
	DB	028H
	DB	042H
	DB	028H
	DB	042H
	DB	028H
	DB	042H
	DB	028H
	DB	042H
	DB	028H
	DB	042H
	DB	028H
	DB	042H
	DB	08H
	DB	042H
	DB	028H
	DB	042H
	DB	028H
	DB	042H
	DB	028H
	DB	042H
	DB	08H
	DB	042H
	DB	028H
	DB	042H
	DB	028H
	DB	042H
	DB	028H
	DB	042H
	DB	028H
	DB	042H
	DB	028H
	DB	042H
	DB	028H
	DB	042H
	DB	028H
	DB	042H
	DB	08H
	DB	042H
	DB	028H
	DB	042H
	DB	028H
	DB	042H
	DB	028H
	DB	042H
	DB	08H
	DB	042H
	DB	028H
	DB	042H
	DB	028H
	DB	042H
	DB	029H
	DB	042H
	DB	028H
	DB	042H
	DB	028H
	DB	042H
	DB	028H
	DB	042H
	DB	028H
	DB	042H
	DB	08H
	DB	042H
	DB	029H
	DB	042H
	DB	028H
	DB	042H
	DB	028H
	DB	042H
	DB	028H
	DB	042H
	DB	028H
	DB	042H
	DB	028H
	DB	04aH
	DB	028H
	DB	042H
	DB	028H
	DB	042H
	DB	029H
	DB	04aH
	DB	086H
	DB	031H
	DB	028H
	DB	042H
	DB	028H
	DB	042H
	DB	028H
	DB	042H
	DB	08H
	DB	042H
	DB	028H
	DB	04aH
	DB	028H
	DB	042H
	DB	028H
	DB	042H
	DB	028H
	DB	042H
	DB	028H
	DB	042H
	DB	028H
	DB	042H
	DB	028H
	DB	042H
	DB	08H
	DB	042H
	DB	08H
	DB	042H
	DB	08H
	DB	042H
	DB	028H
	DB	042H
	DB	08H
	DB	042H
	DB	028H
	DB	042H
	DB	08H
	DB	042H
	DB	028H
	DB	042H
	DB	028H
	DB	042H
	DB	08H
	DB	042H
	DB	028H
	DB	042H
	DB	08H
	DB	042H
	DB	028H
	DB	042H
	DB	08H
	DB	042H
	DB	028H
	DB	042H
	DB	08H
	DB	04aH
	DB	028H
	DB	042H
	DB	028H
	DB	042H
	DB	028H
	DB	042H
	DB	028H
	DB	042H
	DB	028H
	DB	04aH
	DB	028H
	DB	042H
	DB	028H
	DB	042H
	DB	08H
	DB	042H
	DB	028H
	DB	042H
	DB	028H
	DB	04aH
	DB	028H
	DB	042H
	DB	08H
	DB	042H
	DB	028H
	DB	04aH
	DB	028H
	DB	042H
	DB	08H
	DB	042H
	DB	028H
	DB	04aH
	DB	028H
	DB	042H
	DB	08H
	DB	042H
	DB	028H
	DB	042H
	DB	028H
	DB	042H
	DB	08H
	DB	042H
	DB	028H
	DB	042H
	DB	08H
	DB	042H
	DB	028H
	DB	042H
	DB	028H
	DB	042H
	DB	08H
	DB	042H
	DB	08H
	DB	042H
	DB	028H
	DB	042H
	DB	08H
	DB	042H
	DB	028H
	DB	042H
	DB	08H
	DB	042H
	DB	028H
	DB	042H
	DB	028H
	DB	04aH
	DB	08H
	DB	042H
	DB	028H
	DB	04aH
	DB	028H
	DB	042H
	DB	08H
	DB	042H
	DB	028H
	DB	042H
	DB	08H
	DB	04aH
	DB	028H
	DB	042H
	DB	028H
	DB	042H
	DB	08H
	DB	042H
	DB	028H
	DB	04aH
	DB	028H
	DB	042H
	DB	08H
	DB	042H
	DB	028H
	DB	04aH
	DB	028H
	DB	042H
	DB	08H
	DB	042H
	DB	028H
	DB	042H
	DB	08H
	DB	04aH
	DB	09H
	DB	04aH
	DB	028H
	DB	042H
	DB	08H
	DB	042H
	DB	028H
	DB	042H
	DB	08H
	DB	042H
	DB	028H
	DB	042H
	DB	028H
	DB	04aH
	DB	08H
	DB	042H
	DB	028H
	DB	042H
	DB	028H
	DB	042H
	DB	08H
	DB	042H
	DB	028H
	DB	042H
	DB	08H
	DB	042H
	DB	09H
	DB	042H
	DB	028H
	DB	042H
	DB	09H
	DB	042H
	DB	09H
	DB	042H
	DB	028H
	DB	04aH
	DB	09H
	DB	042H
	DB	029H
	DB	042H
	DB	028H
	DB	042H
	DB	09H
	DB	042H
	DB	029H
	DB	042H
	DB	08H
	DB	04aH
	DB	09H
	DB	042H
	DB	028H
	DB	04aH
	DB	08H
	DB	042H
	DB	09H
	DB	042H
	DB	028H
	DB	042H
	DB	08H
	DB	04aH
	DB	029H
	DB	042H
	DB	028H
	DB	042H
	DB	028H
	DB	04aH
	DB	028H
	DB	042H
	DB	028H
	DB	042H
	DB	028H
	DB	04aH
	DB	028H
	DB	042H
	DB	028H
	DB	042H
	DB	028H
	DB	04aH
	DB	028H
	DB	042H
	DB	028H
	DB	042H
	DB	028H
	DB	042H
	DB	028H
	DB	042H
	DB	028H
	DB	042H
	DB	028H
	DB	04aH
	DB	028H
	DB	042H
	DB	028H
	DB	04aH
	DB	028H
	DB	042H
	DB	028H
	DB	04aH
	DB	028H
	DB	042H
	DB	028H
	DB	042H
	DB	028H
	DB	04aH
	DB	028H
	DB	042H
	DB	028H
	DB	042H
	DB	028H
	DB	04aH
	DB	028H
	DB	042H
	DB	028H
	DB	042H
	DB	028H
	DB	04aH
	DB	029H
	DB	042H
	DB	08H
	DB	042H
	DB	028H
	DB	042H
	DB	028H
	DB	042H
	DB	08H
	DB	042H
	DB	08H
	DB	04aH
	DB	028H
	DB	042H
	DB	029H
	DB	042H
	DB	08H
	DB	042H
	DB	028H
	DB	042H
	DB	028H
	DB	042H
	DB	08H
	DB	042H
	DB	029H
	DB	04aH
	DB	028H
	DB	042H
	DB	08H
	DB	042H
	DB	09H
	DB	042H
	DB	029H
	DB	04aH
	DB	028H
	DB	042H
	DB	09H
	DB	042H
	DB	028H
	DB	04aH
	DB	029H
	DB	042H
	DB	09H
	DB	042H
	DB	028H
	DB	04aH
	DB	028H
	DB	042H
	DB	09H
	DB	042H
	DB	028H
	DB	04aH
	DB	028H
	DB	042H
	DB	028H
	DB	042H
	DB	028H
	DB	04aH
	DB	028H
	DB	042H
	DB	028H
	DB	042H
	DB	028H
	DB	04aH
	DB	029H
	DB	042H
	DB	028H
	DB	042H
	DB	028H
	DB	04aH
	DB	028H
	DB	042H
	DB	028H
	DB	042H
	DB	029H
	DB	04aH
	DB	028H
	DB	042H
	DB	028H
	DB	042H
	DB	028H
	DB	04aH
	DB	028H
	DB	042H
	DB	029H
	DB	042H
	DB	028H
	DB	04aH
	DB	028H
	DB	04aH
	DB	029H
	DB	042H
	DB	028H
	DB	042H
	DB	028H
	DB	042H
	DB	028H
	DB	04aH
	DB	028H
	DB	042H
	DB	028H
	DB	04aH
	DB	028H
	DB	042H
	DB	028H
	DB	042H
	DB	028H
	DB	042H
	DB	029H
	DB	04aH
	DB	028H
	DB	042H
	DB	028H
	DB	04aH
	DB	029H
	DB	04aH
	DB	028H
	DB	042H
	DB	028H
	DB	04aH
	DB	029H
	DB	04aH
	DB	028H
	DB	042H
	DB	028H
	DB	04aH
	DB	029H
	DB	042H
	DB	028H
	DB	042H
	DB	028H
	DB	042H
	DB	028H
	DB	04aH
	DB	028H
	DB	042H
	DB	028H
	DB	04aH
	DB	028H
	DB	04aH
	DB	028H
	DB	042H
	DB	028H
	DB	04aH
	DB	028H
	DB	04aH
	DB	029H
	DB	042H
	DB	028H
	DB	04aH
	DB	028H
	DB	04aH
	DB	029H
	DB	042H
	DB	028H
	DB	04aH
	DB	028H
	DB	04aH
	DB	028H
	DB	042H
	DB	028H
	DB	04aH
	DB	028H
	DB	04aH
	DB	029H
	DB	042H
	DB	028H
	DB	042H
	DB	028H
	DB	04aH
	DB	029H
	DB	042H
	DB	028H
	DB	042H
	DB	028H
	DB	04aH
	DB	029H
	DB	04aH
	DB	028H
	DB	042H
	DB	028H
	DB	042H
	DB	029H
	DB	04aH
	DB	028H
	DB	04aH
	DB	028H
	DB	042H
	DB	029H
	DB	04aH
	DB	028H
	DB	04aH
	DB	029H
	DB	04aH
	DB	028H
	DB	042H
	DB	029H
	DB	04aH
	DB	029H
	DB	042H
	DB	029H
	DB	04aH
	DB	029H
	DB	04aH
	DB	028H
	DB	042H
	DB	029H
	DB	04aH
	DB	028H
	DB	042H
	DB	028H
	DB	04aH
	DB	029H
	DB	042H
	DB	028H
	DB	04aH
	DB	028H
	DB	042H
	DB	029H
	DB	04aH
	DB	028H
	DB	042H
	DB	028H
	DB	04aH
	DB	029H
	DB	04aH
	DB	029H
	DB	042H
	DB	028H
	DB	04aH
	DB	029H
	DB	04aH
	DB	029H
	DB	042H
	DB	028H
	DB	04aH
	DB	029H
	DB	04aH
	DB	029H
	DB	042H
	DB	028H
	DB	042H
	DB	029H
	DB	04aH
	DB	028H
	DB	042H
	DB	028H
	DB	04aH
	DB	028H
	DB	04aH
	DB	028H
	DB	042H
	DB	029H
	DB	04aH
	DB	028H
	DB	042H
	DB	029H
	DB	04aH
	DB	028H
	DB	04aH
	DB	029H
	DB	042H
	DB	029H
	DB	04aH
	DB	028H
	DB	04aH
	DB	029H
	DB	042H
	DB	029H
	DB	042H
	DB	028H
	DB	04aH
	DB	029H
	DB	04aH
	DB	029H
	DB	042H
	DB	028H
	DB	042H
	DB	029H
	DB	04aH
	DB	029H
	DB	042H
	DB	048H
	DB	04aH
	DB	028H
	DB	042H
	DB	029H
	DB	04aH
	DB	048H
	DB	042H
	DB	029H
	DB	04aH
	DB	029H
	DB	042H
	DB	048H
	DB	042H
	DB	029H
	DB	04aH
	DB	028H
	DB	042H
	DB	028H
	DB	042H
	DB	029H
	DB	04aH
	DB	028H
	DB	04aH
	DB	029H
	DB	042H
	DB	049H
	DB	04aH
	DB	028H
	DB	04aH
	DB	028H
	DB	042H
	DB	049H
	DB	04aH
	DB	028H
	DB	04aH
	DB	049H
	DB	042H
	DB	029H
	DB	042H
	DB	048H
	DB	04aH
	DB	029H
	DB	04aH
	DB	048H
	DB	042H
	DB	029H
	DB	04aH
	DB	049H
	DB	04aH
	DB	048H
	DB	04aH
	DB	029H
	DB	04aH
	DB	029H
	DB	04aH
	DB	048H
	DB	04aH
	DB	028H
	DB	04aH
	DB	029H
	DB	04aH
	DB	028H
	DB	04aH
	DB	029H
	DB	042H
	DB	029H
	DB	042H
	DB	028H
	DB	04aH
	DB	029H
	DB	042H
	DB	049H
	DB	042H
	DB	028H
	DB	04aH
	DB	029H
	DB	04aH
	DB	028H
	DB	042H
	DB	049H
	DB	04aH
	DB	049H
	DB	04aH
	DB	049H
	DB	042H
	DB	048H
	DB	04aH
	DB	029H
	DB	04aH
	DB	049H
	DB	042H
	DB	049H
	DB	04aH
	DB	028H
	DB	04aH
	DB	049H
	DB	042H
	DB	049H
	DB	04aH
	DB	029H
	DB	042H
	DB	028H
	DB	04aH
	DB	049H
	DB	04aH
	DB	028H
	DB	04aH
	DB	028H
	DB	042H
	DB	029H
	DB	04aH
	DB	048H
	DB	042H
	DB	029H
	DB	04aH
	DB	029H
	DB	04aH
	DB	048H
	DB	042H
	DB	029H
	DB	04aH
	DB	028H
	DB	04aH
	DB	048H
	DB	04aH
	DB	029H
	DB	042H
	DB	028H
	DB	04aH
	DB	049H
	DB	04aH
	DB	029H
	DB	042H
	DB	049H
	DB	04aH
	DB	049H
	DB	04aH
	DB	028H
	DB	04aH
	DB	049H
	DB	04aH
	DB	029H
	DB	04aH
	DB	048H
	DB	042H
	DB	049H
	DB	04aH
	DB	029H
	DB	04aH
	DB	048H
	DB	04aH
	DB	028H
	DB	042H
	DB	029H
	DB	04aH
	DB	048H
	DB	04aH
	DB	028H
	DB	042H
	DB	029H
	DB	04aH
	DB	048H
	DB	042H
	DB	029H
	DB	04aH
	DB	029H
	DB	04aH
	DB	048H
	DB	04aH
	DB	029H
	DB	042H
	DB	049H
	DB	04aH
	DB	049H
	DB	04aH
	DB	049H
	DB	04aH
	DB	049H
	DB	04aH
	DB	049H
	DB	04aH
	DB	029H
	DB	04aH
	DB	028H
	DB	042H
	DB	049H
	DB	04aH
	DB	028H
	DB	042H
	DB	048H
	DB	042H
	DB	029H
	DB	04aH
	DB	028H
	DB	04aH
	DB	048H
	DB	042H
	DB	029H
	DB	04aH
	DB	028H
	DB	04aH
	DB	049H
	DB	042H
	DB	048H
	DB	04aH
	DB	048H
	DB	042H
	DB	029H
	DB	04aH
	DB	048H
	DB	042H
	DB	048H
	DB	042H
	DB	029H
	DB	04aH
	DB	048H
	DB	042H
	DB	028H
	DB	04aH
	DB	049H
	DB	04aH
	DB	029H
	DB	042H
	DB	028H
	DB	04aH
	DB	049H
	DB	04aH
	DB	029H
	DB	042H
	DB	028H
	DB	04aH
	DB	049H
	DB	04aH
	DB	028H
	DB	04aH
	DB	049H
	DB	04aH
	DB	029H
	DB	04aH
	DB	048H
	DB	042H
	DB	029H
	DB	04aH
	DB	028H
	DB	04aH
	DB	029H
	DB	042H
	DB	029H
	DB	04aH
	DB	028H
	DB	04aH
	DB	048H
	DB	04aH
	DB	029H
	DB	04aH
	DB	029H
	DB	042H
	DB	048H
	DB	04aH
	DB	029H
	DB	04aH
	DB	028H
	DB	042H
	DB	048H
	DB	04aH
	DB	029H
	DB	042H
	DB	029H
	DB	04aH
	DB	048H
	DB	042H
	DB	029H
	DB	04aH
	DB	028H
	DB	04aH
	DB	048H
	DB	042H
	DB	029H
	DB	04aH
	DB	028H
	DB	04aH
	DB	029H
	DB	042H
	DB	049H
	DB	04aH
	DB	028H
	DB	042H
	DB	049H
	DB	04aH
	DB	049H
	DB	04aH
	DB	029H
	DB	042H
	DB	029H
	DB	04aH
	DB	028H
	DB	04aH
	DB	049H
	DB	042H
	DB	028H
	DB	04aH
	DB	028H
	DB	04aH
	DB	028H
	DB	042H
	DB	028H
	DB	042H
	DB	029H
	DB	04aH
	DB	028H
	DB	042H
	DB	029H
	DB	042H
	DB	028H
	DB	042H
	DB	09H
	DB	042H
	DB	028H
	DB	04aH
	DB	029H
	DB	042H
	DB	08H
	DB	042H
	DB	029H
	DB	04aH
	DB	028H
	DB	042H
	DB	08H
	DB	04aH
	DB	029H
	DB	042H
	DB	028H
	DB	04aH
	DB	09H
	DB	042H
	DB	08H
	DB	04aH
	DB	029H
	DB	042H
	DB	08H
	DB	042H
	DB	09H
	DB	04aH
	DB	028H
	DB	042H
	DB	028H
	DB	04aH
	DB	029H
	DB	042H
	DB	028H
	DB	04aH
	DB	029H
	DB	042H
	DB	08H
	DB	04aH
	DB	029H
	DB	042H
	DB	08H
	DB	042H
	DB	09H
	DB	04aH
	DB	028H
	DB	042H
	DB	08H
	DB	04aH
	DB	09H
	DB	042H
	DB	028H
	DB	04aH
	DB	029H
	DB	042H
	DB	028H
	DB	04aH
	DB	029H
	DB	042H
	DB	028H
	DB	042H
	DB	09H
	DB	04aH
	DB	028H
	DB	042H
	DB	08H
	DB	04aH
	DB	09H
	DB	042H
	DB	028H
	DB	04aH
	DB	09H
	DB	042H
	DB	08H
	DB	04aH
	DB	029H
	DB	042H
	DB	028H
	DB	042H
	DB	029H
	DB	04aH
	DB	028H
	DB	042H
	DB	028H
	DB	04aH
	DB	09H
	DB	042H
	DB	028H
	DB	04aH
	DB	09H
	DB	042H
	DB	08H
	DB	04aH
	DB	029H
	DB	042H
	DB	08H
	DB	042H
	DB	09H
	DB	04aH
	DB	028H
	DB	042H
	DB	028H
	DB	04aH
	DB	029H
	DB	042H
	DB	028H
	DB	04aH
	DB	029H
	DB	042H
	DB	08H
	DB	04aH
	DB	029H
	DB	042H
	DB	08H
	DB	042H
	DB	08H
	DB	04aH
	DB	028H
	DB	042H
	DB	08H
	DB	04aH
	DB	09H
	DB	042H
	DB	029H
	DB	04aH
	DB	028H
	DB	042H
	DB	028H
	DB	04aH
	DB	028H
	DB	042H
	DB	09H
	DB	042H
	DB	028H
	DB	04aH
	DB	08H
	DB	042H
	DB	029H
	DB	042H
	DB	08H
	DB	042H
	DB	028H
	DB	04aH
	DB	028H
	DB	042H
	DB	029H
	DB	042H
	DB	065H
	DB	031H
	DB	049H
	DB	04aH
	DB	028H
	DB	042H
	DB	028H
	DB	042H
	DB	09H
	DB	042H
	DB	028H
	DB	042H
	DB	028H
	DB	04aH
	DB	09H
	DB	042H
	DB	028H
	DB	042H
	DB	028H
	DB	04aH
	DB	09H
	DB	042H
	DB	028H
	DB	042H
	DB	028H
	DB	04aH
	DB	029H
	DB	042H
	DB	028H
	DB	042H
	DB	028H
	DB	04aH
	DB	029H
	DB	042H
	DB	08H
	DB	04aH
	DB	029H
	DB	042H
	DB	028H
	DB	042H
	DB	028H
	DB	04aH
	DB	029H
	DB	042H
	DB	08H
	DB	04aH
	DB	028H
	DB	042H
	DB	029H
	DB	042H
	DB	028H
	DB	04aH
	DB	08H
	DB	042H
	DB	029H
	DB	042H
	DB	028H
	DB	042H
	DB	08H
	DB	04aH
	DB	029H
	DB	042H
	DB	08H
	DB	042H
	DB	028H
	DB	042H
	DB	029H
	DB	04aH
	DB	08H
	DB	042H
	DB	028H
	DB	042H
	DB	029H
	DB	04aH
	DB	028H
	DB	042H
	DB	08H
	DB	042H
	DB	029H
	DB	042H
	DB	08H
	DB	042H
	DB	028H
	DB	042H
	DB	09H
	DB	042H
	DB	08H
	DB	042H
	DB	028H
	DB	04aH
	DB	09H
	DB	042H
	DB	08H
	DB	042H
	DB	028H
	DB	04aH
	DB	09H
	DB	042H
	DB	08H
	DB	04aH
	DB	028H
	DB	042H
	DB	09H
	DB	04aH
	DB	028H
	DB	042H
	DB	028H
	DB	04aH
	DB	09H
	DB	042H
	DB	08H
	DB	042H
	DB	028H
	DB	04aH
	DB	09H
	DB	042H
	DB	08H
	DB	042H
	DB	028H
	DB	042H
	DB	09H
	DB	042H
	DB	08H
	DB	042H
	DB	028H
	DB	042H
	DB	09H
	DB	04aH
	DB	028H
	DB	042H
	DB	028H
	DB	042H
	DB	09H
	DB	042H
	DB	08H
	DB	042H
	DB	028H
	DB	042H
	DB	09H
	DB	04aH
	DB	08H
	DB	042H
	DB	028H
	DB	042H
	DB	09H
	DB	04aH
	DB	08H
	DB	042H
	DB	028H
	DB	042H
	DB	09H
	DB	042H
	DB	028H
	DB	042H
	DB	028H
	DB	042H
	DB	08H
	DB	042H
	DB	028H
	DB	042H
	DB	08H
	DB	04aH
	DB	08H
	DB	042H
	DB	08H
	DB	042H
	DB	029H
	DB	042H
	DB	08H
	DB	042H
	DB	09H
	DB	04aH
	DB	028H
	DB	042H
	DB	09H
	DB	042H
	DB	08H
	DB	04aH
	DB	029H
	DB	042H
	DB	028H
	DB	042H
	DB	08H
	DB	04aH
	DB	028H
	DB	042H
	DB	028H
	DB	042H
	DB	028H
	DB	042H
	DB	028H
	DB	042H
	DB	028H
	DB	04aH
	DB	028H
	DB	042H
	DB	028H
	DB	04aH
	DB	028H
	DB	042H
	DB	028H
	DB	042H
	DB	028H
	DB	042H
	DB	029H
	DB	042H
	DB	028H
	DB	04aH
	DB	028H
	DB	042H
	DB	028H
	DB	042H
	DB	028H
	DB	04aH
	DB	028H
	DB	042H
	DB	028H
	DB	042H
	DB	09H
	DB	042H
	DB	028H
	DB	04aH
	DB	029H
	DB	042H
	DB	08H
	DB	042H
	DB	028H
	DB	04aH
	DB	028H
	DB	042H
	DB	029H
	DB	042H
	DB	028H
	DB	04aH
	DB	028H
	DB	042H
	DB	028H
	DB	042H
	DB	028H
	DB	04aH
	DB	028H
	DB	042H
	DB	029H
	DB	042H
	DB	028H
	DB	042H
	DB	028H
	DB	04aH
	DB	029H
	DB	042H
	DB	028H
	DB	042H
	DB	028H
	DB	042H
	DB	09H
	DB	04aH
	DB	029H
	DB	042H
	DB	028H
	DB	042H
	DB	09H
	DB	042H
	DB	028H
	DB	04aH
	DB	029H
	DB	042H
	DB	09H
	DB	042H
	DB	028H
	DB	042H
	DB	028H
	DB	04aH
	DB	08H
	DB	042H
	DB	029H
	DB	042H
	DB	028H
	DB	04aH
	DB	028H
	DB	042H
	DB	029H
	DB	042H
	DB	028H
	DB	04aH
	DB	028H
	DB	042H
	DB	028H
	DB	042H
	DB	029H
	DB	042H
	DB	028H
	DB	042H
	DB	08H
	DB	04aH
	DB	029H
	DB	042H
	DB	028H
	DB	042H
	DB	028H
	DB	042H
	DB	028H
	DB	042H
	DB	028H
	DB	04aH
	DB	028H
	DB	042H
	DB	028H
	DB	042H
	DB	028H
	DB	042H
	DB	028H
	DB	042H
	DB	028H
	DB	042H
	DB	028H
	DB	042H
	DB	028H
	DB	042H
	DB	029H
	DB	042H
	DB	028H
	DB	042H
	DB	028H
	DB	042H
	DB	029H
	DB	042H
	DB	028H
	DB	042H
	DB	028H
	DB	042H
	DB	029H
	DB	042H
	DB	028H
	DB	042H
	DB	028H
	DB	042H
	DB	028H
	DB	042H
	DB	028H
	DB	042H
	DB	028H
	DB	042H
	DB	029H
	DB	042H
	DB	028H
	DB	042H
	DB	028H
	DB	042H
	DB	029H
	DB	042H
	DB	029H
	DB	042H
	DB	028H
	DB	042H
	DB	028H
	DB	042H
	DB	028H
	DB	042H
	DB	029H
	DB	042H
	DB	028H
	DB	042H
	DB	028H
	DB	04aH
	DB	029H
	DB	042H
	DB	028H
	DB	042H
	DB	029H
	DB	042H
	DB	028H
	DB	042H
	DB	029H
	DB	042H
	DB	028H
	DB	04aH
	DB	028H
	DB	042H
	DB	029H
	DB	042H
	DB	028H
	DB	042H
	DB	028H
	DB	042H
	DB	028H
	DB	042H
	DB	029H
	DB	04aH
	DB	028H
	DB	042H
	DB	028H
	DB	042H
	DB	029H
	DB	04aH
	DB	028H
	DB	042H
	DB	028H
	DB	04aH
	DB	029H
	DB	04aH
	DB	028H
	DB	042H
	DB	029H
	DB	04aH
	DB	028H
	DB	042H
	DB	029H
	DB	042H
	DB	029H
	DB	04aH
	DB	028H
	DB	042H
	DB	028H
	DB	042H
	DB	029H
	DB	04aH
	DB	028H
	DB	042H
	DB	028H
	DB	042H
	DB	029H
	DB	04aH
	DB	028H
	DB	042H
	DB	028H
	DB	042H
	DB	029H
	DB	04aH
	DB	028H
	DB	042H
	DB	029H
	DB	042H
	DB	028H
	DB	04aH
	DB	028H
	DB	042H
	DB	029H
	DB	042H
	DB	028H
	DB	04aH
	DB	028H
	DB	042H
	DB	029H
	DB	04aH
	DB	028H
	DB	042H
	DB	029H
	DB	04aH
	DB	028H
	DB	042H
	DB	028H
	DB	04aH
	DB	029H
	DB	04aH
	DB	029H
	DB	042H
	DB	028H
	DB	042H
	DB	029H
	DB	04aH
	DB	028H
	DB	042H
	DB	028H
	DB	042H
	DB	029H
	DB	04aH
	DB	028H
	DB	04aH
	DB	028H
	DB	042H
	DB	028H
	DB	04aH
	DB	028H
	DB	042H
	DB	028H
	DB	04aH
	DB	029H
	DB	04aH
	DB	029H
	DB	042H
	DB	029H
	DB	04aH
	DB	028H
	DB	042H
	DB	029H
	DB	04aH
	DB	029H
	DB	042H
	DB	028H
	DB	04aH
	DB	029H
	DB	042H
	DB	029H
	DB	04aH
	DB	028H
	DB	042H
	DB	029H
	DB	04aH
	DB	028H
	DB	042H
	DB	028H
	DB	042H
	DB	029H
	DB	04aH
	DB	028H
	DB	042H
	DB	028H
	DB	04aH
	DB	029H
	DB	04aH
	DB	028H
	DB	042H
	DB	029H
	DB	04aH
	DB	029H
	DB	04aH
	DB	029H
	DB	042H
	DB	029H
	DB	042H
	DB	048H
	DB	04aH
	DB	029H
	DB	042H
	DB	028H
	DB	04aH
	DB	049H
	DB	04aH
	DB	029H
	DB	042H
	DB	048H
	DB	04aH
	DB	028H
	DB	042H
	DB	049H
	DB	042H
	DB	028H
	DB	04aH
	DB	048H
	DB	042H
	DB	029H
	DB	042H
	DB	048H
	DB	04aH
	DB	028H
	DB	042H
	DB	049H
	DB	04aH
	DB	028H
	DB	04aH
	DB	029H
	DB	042H
	DB	049H
	DB	04aH
	DB	028H
	DB	042H
	DB	029H
	DB	04aH
	DB	049H
	DB	042H
	DB	028H
	DB	04aH
	DB	028H
	DB	04aH
	DB	049H
	DB	042H
	DB	028H
	DB	04aH
	DB	029H
	DB	04aH
	DB	049H
	DB	04aH
	DB	048H
	DB	04aH
	DB	029H
	DB	042H
	DB	028H
	DB	04aH
	DB	049H
	DB	04aH
	DB	029H
	DB	042H
	DB	028H
	DB	04aH
	DB	049H
	DB	04aH
	DB	029H
	DB	042H
	DB	028H
	DB	04aH
	DB	028H
	DB	04aH
	DB	048H
	DB	04aH
	DB	029H
	DB	042H
	DB	028H
	DB	04aH
	DB	028H
	DB	042H
	DB	029H
	DB	04aH
	DB	028H
	DB	042H
	DB	028H
	DB	042H
	DB	029H
	DB	042H
	DB	049H
	DB	04aH
	DB	049H
	DB	042H
	DB	049H
	DB	042H
	DB	048H
	DB	04aH
	DB	049H
	DB	04aH
	DB	049H
	DB	04aH
	DB	048H
	DB	042H
	DB	049H
	DB	04aH
	DB	049H
	DB	04aH
	DB	048H
	DB	042H
	DB	049H
	DB	04aH
	DB	049H
	DB	04aH
	DB	029H
	DB	042H
	DB	048H
	DB	04aH
	DB	029H
	DB	042H
	DB	029H
	DB	04aH
	DB	048H
	DB	04aH
	DB	029H
	DB	042H
	DB	049H
	DB	042H
	DB	028H
	DB	04aH
	DB	029H
	DB	04aH
	DB	048H
	DB	042H
	DB	049H
	DB	04aH
	DB	028H
	DB	04aH
	DB	049H
	DB	042H
	DB	049H
	DB	04aH
	DB	029H
	DB	04aH
	DB	048H
	DB	04aH
	DB	049H
	DB	042H
	DB	029H
	DB	04aH
	DB	048H
	DB	04aH
	DB	049H
	DB	042H
	DB	029H
	DB	04aH
	DB	048H
	DB	04aH
	DB	049H
	DB	042H
	DB	029H
	DB	04aH
	DB	048H
	DB	04aH
	DB	028H
	DB	042H
	DB	049H
	DB	04aH
	DB	028H
	DB	042H
	DB	028H
	DB	04aH
	DB	049H
	DB	042H
	DB	049H
	DB	042H
	DB	028H
	DB	04aH
	DB	049H
	DB	04aH
	DB	029H
	DB	04aH
	DB	049H
	DB	04aH
	DB	049H
	DB	04aH
	DB	029H
	DB	04aH
	DB	049H
	DB	04aH
	DB	048H
	DB	04aH
	DB	049H
	DB	04aH
	DB	029H
	DB	04aH
	DB	048H
	DB	04aH
	DB	049H
	DB	04aH
	DB	028H
	DB	042H
	DB	029H
	DB	04aH
	DB	049H
	DB	04aH
	DB	028H
	DB	04aH
	DB	028H
	DB	04aH
	DB	029H
	DB	042H
	DB	028H
	DB	04aH
	DB	048H
	DB	04aH
	DB	049H
	DB	042H
	DB	029H
	DB	04aH
	DB	049H
	DB	04aH
	DB	029H
	DB	04aH
	DB	049H
	DB	04aH
	DB	049H
	DB	04aH
	DB	049H
	DB	042H
	DB	049H
	DB	04aH
	DB	049H
	DB	04aH
	DB	048H
	DB	04aH
	DB	049H
	DB	042H
	DB	049H
	DB	04aH
	DB	048H
	DB	04aH
	DB	049H
	DB	042H
	DB	049H
	DB	04aH
	DB	048H
	DB	04aH
	DB	049H
	DB	04aH
	DB	049H
	DB	042H
	DB	048H
	DB	04aH
	DB	049H
	DB	042H
	DB	048H
	DB	04aH
	DB	049H
	DB	04aH
	DB	049H
	DB	042H
	DB	048H
	DB	04aH
	DB	048H
	DB	042H
	DB	049H
	DB	04aH
	DB	048H
	DB	042H
	DB	028H
	DB	042H
	DB	048H
	DB	04aH
	DB	048H
	DB	042H
	DB	029H
	DB	04aH
	DB	048H
	DB	04aH
	DB	048H
	DB	042H
	DB	049H
	DB	04aH
	DB	029H
	DB	042H
	DB	048H
	DB	042H
	DB	029H
	DB	04aH
	DB	028H
	DB	042H
	DB	049H
	DB	04aH
	DB	029H
	DB	042H
	DB	048H
	DB	04aH
	DB	029H
	DB	04aH
	DB	049H
	DB	042H
	DB	028H
	DB	04aH
	DB	049H
	DB	04aH
	DB	029H
	DB	042H
	DB	029H
	DB	04aH
	DB	049H
	DB	04aH
	DB	029H
	DB	042H
	DB	049H
	DB	04aH
	DB	048H
	DB	04aH
	DB	029H
	DB	042H
	DB	049H
	DB	04aH
	DB	028H
	DB	04aH
	DB	049H
	DB	042H
	DB	048H
	DB	042H
	DB	049H
	DB	04aH
	DB	049H
	DB	04aH
	DB	049H
	DB	042H
	DB	048H
	DB	04aH
	DB	029H
	DB	04aH
	DB	028H
	DB	042H
	DB	029H
	DB	04aH
	DB	028H
	DB	042H
	DB	028H
	DB	042H
	DB	028H
	DB	04aH
	DB	08H
	DB	042H
	DB	028H
	DB	042H
	DB	028H
	DB	04aH
	DB	029H
	DB	042H
	DB	028H
	DB	042H
	DB	028H
	DB	04aH
	DB	08H
	DB	042H
	DB	029H
	DB	042H
	DB	028H
	DB	042H
	DB	08H
	DB	042H
	DB	028H
	DB	042H
	DB	028H
	DB	04aH
	DB	029H
	DB	042H
	DB	028H
	DB	042H
	DB	028H
	DB	04aH
	DB	028H
	DB	042H
	DB	09H
	DB	042H
	DB	028H
	DB	042H
	DB	08H
	DB	042H
	DB	029H
	DB	042H
	DB	028H
	DB	04aH
	DB	028H
	DB	042H
	DB	028H
	DB	042H
	DB	028H
	DB	04aH
	DB	029H
	DB	042H
	DB	028H
	DB	042H
	DB	028H
	DB	042H
	DB	029H
	DB	042H
	DB	08H
	DB	042H
	DB	028H
	DB	04aH
	DB	08H
	DB	042H
	DB	028H
	DB	042H
	DB	029H
	DB	04aH
	DB	028H
	DB	042H
	DB	028H
	DB	042H
	DB	029H
	DB	042H
	DB	028H
	DB	042H
	DB	028H
	DB	042H
	DB	028H
	DB	04aH
	DB	028H
	DB	042H
	DB	08H
	DB	042H
	DB	029H
	DB	04aH
	DB	08H
	DB	042H
	DB	028H
	DB	042H
	DB	029H
	DB	042H
	DB	028H
	DB	042H
	DB	028H
	DB	042H
	DB	028H
	DB	04aH
	DB	028H
	DB	042H
	DB	028H
	DB	042H
	DB	029H
	DB	04aH
	DB	028H
	DB	042H
	DB	08H
	DB	042H
	DB	029H
	DB	042H
	DB	08H
	DB	042H
	DB	028H
	DB	042H
	DB	028H
	DB	04aH
	DB	028H
	DB	042H
	DB	029H
	DB	042H
	DB	028H
	DB	04aH
	DB	028H
	DB	042H
	DB	029H
	DB	042H
	DB	028H
	DB	042H
	DB	028H
	DB	042H
	DB	08H
	DB	042H
	DB	029H
	DB	04aH
	DB	028H
	DB	042H
	DB	08H
	DB	042H
	DB	028H
	DB	04aH
	DB	028H
	DB	042H
	DB	028H
	DB	04aH
	DB	08H
	DB	042H
	DB	029H
	DB	042H
	DB	028H
	DB	042H
	DB	028H
	DB	042H
	DB	029H
	DB	04aH
	DB	066H
	DB	031H
	DB	028H
	DB	04aH
	DB	028H
	DB	042H
	DB	028H
	DB	04aH
	DB	028H
	DB	042H
	DB	028H
	DB	042H
	DB	08H
	DB	042H
	DB	028H
	DB	04aH
	DB	028H
	DB	042H
	DB	08H
	DB	042H
	DB	028H
	DB	04aH
	DB	028H
	DB	042H
	DB	028H
	DB	042H
	DB	028H
	DB	04aH
	DB	028H
	DB	042H
	DB	028H
	DB	042H
	DB	028H
	DB	04aH
	DB	028H
	DB	042H
	DB	08H
	DB	042H
	DB	08H
	DB	04aH
	DB	028H
	DB	042H
	DB	028H
	DB	042H
	DB	028H
	DB	042H
	DB	028H
	DB	04aH
	DB	028H
	DB	042H
	DB	028H
	DB	042H
	DB	028H
	DB	042H
	DB	028H
	DB	042H
	DB	028H
	DB	04aH
	DB	08H
	DB	042H
	DB	08H
	DB	042H
	DB	08H
	DB	04aH
	DB	028H
	DB	042H
	DB	028H
	DB	042H
	DB	028H
	DB	042H
	DB	08H
	DB	04aH
	DB	028H
	DB	042H
	DB	028H
	DB	042H
	DB	028H
	DB	04aH
	DB	028H
	DB	042H
	DB	028H
	DB	042H
	DB	028H
	DB	04aH
	DB	028H
	DB	042H
	DB	028H
	DB	042H
	DB	028H
	DB	042H
	DB	08H
	DB	04aH
	DB	028H
	DB	042H
	DB	028H
	DB	042H
	DB	08H
	DB	04aH
	DB	028H
	DB	042H
	DB	028H
	DB	042H
	DB	028H
	DB	042H
	DB	028H
	DB	042H
	DB	08H
	DB	042H
	DB	028H
	DB	04aH
	DB	028H
	DB	042H
	DB	08H
	DB	042H
	DB	028H
	DB	04aH
	DB	028H
	DB	042H
	DB	028H
	DB	042H
	DB	08H
	DB	04aH
	DB	028H
	DB	042H
	DB	08H
	DB	042H
	DB	08H
	DB	042H
	DB	028H
	DB	04aH
	DB	08H
	DB	042H
	DB	028H
	DB	04aH
	DB	08H
	DB	042H
	DB	028H
	DB	042H
	DB	028H
	DB	042H
	DB	08H
	DB	042H
	DB	028H
	DB	042H
	DB	028H
	DB	042H
	DB	08H
	DB	04aH
	DB	028H
	DB	042H
	DB	08H
	DB	04aH
	DB	08H
	DB	042H
	DB	028H
	DB	042H
	DB	028H
	DB	042H
	DB	08H
	DB	042H
	DB	028H
	DB	042H
	DB	08H
	DB	042H
	DB	028H
	DB	04aH
	DB	028H
	DB	042H
	DB	028H
	DB	042H
	DB	08H
	DB	042H
	DB	028H
	DB	04aH
	DB	08H
	DB	042H
	DB	029H
	DB	042H
	DB	028H
	DB	04aH
	DB	028H
	DB	042H
	DB	029H
	DB	042H
	DB	028H
	DB	04aH
	DB	028H
	DB	04aH
	DB	028H
	DB	042H
	DB	029H
	DB	042H
	DB	08H
	DB	042H
	DB	028H
	DB	042H
	DB	028H
	DB	042H
	DB	09H
	DB	04aH
	DB	028H
	DB	042H
	DB	028H
	DB	042H
	DB	028H
	DB	042H
	DB	029H
	DB	042H
	DB	028H
	DB	042H
	DB	029H
	DB	04aH
	DB	08H
	DB	042H
	DB	028H
	DB	042H
	DB	029H
	DB	042H
	DB	08H
	DB	04aH
	DB	028H
	DB	042H
	DB	028H
	DB	042H
	DB	09H
	DB	042H
	DB	028H
	DB	042H
	DB	028H
	DB	042H
	DB	09H
	DB	042H
	DB	08H
	DB	042H
	DB	028H
	DB	042H
	DB	09H
	DB	04aH
	DB	08H
	DB	042H
	DB	028H
	DB	042H
	DB	09H
	DB	04aH
	DB	08H
	DB	042H
	DB	028H
	DB	042H
	DB	09H
	DB	042H
	DB	028H
	DB	042H
	DB	028H
	DB	042H
	DB	08H
	DB	042H
	DB	028H
	DB	04aH
	DB	028H
	DB	042H
	DB	08H
	DB	042H
	DB	028H
	DB	042H
	DB	028H
	DB	042H
	DB	08H
	DB	042H
	DB	029H
	DB	04aH
	DB	028H
	DB	042H
	DB	08H
	DB	042H
	DB	028H
	DB	04aH
	DB	029H
	DB	04aH
	DB	08H
	DB	042H
	DB	028H
	DB	042H
	DB	029H
	DB	042H
	DB	028H
	DB	042H
	DB	028H
	DB	04aH
	DB	028H
	DB	042H
	DB	029H
	DB	04aH
	DB	028H
	DB	042H
	DB	028H
	DB	042H
	DB	028H
	DB	04aH
	DB	029H
	DB	042H
	DB	029H
	DB	042H
	DB	028H
	DB	042H
	DB	028H
	DB	04aH
	DB	029H
	DB	042H
	DB	028H
	DB	04aH
	DB	028H
	DB	042H
	DB	029H
	DB	04aH
	DB	028H
	DB	04aH
	DB	028H
	DB	042H
	DB	028H
	DB	04aH
	DB	028H
	DB	042H
	DB	028H
	DB	04aH
	DB	029H
	DB	042H
	DB	028H
	DB	04aH
	DB	028H
	DB	042H
	DB	029H
	DB	04aH
	DB	028H
	DB	042H
	DB	028H
	DB	04aH
	DB	029H
	DB	042H
	DB	028H
	DB	04aH
	DB	028H
	DB	042H
	DB	029H
	DB	04aH
	DB	028H
	DB	042H
	DB	028H
	DB	042H
	DB	028H
	DB	04aH
	DB	028H
	DB	042H
	DB	029H
	DB	04aH
	DB	028H
	DB	042H
	DB	028H
	DB	04aH
	DB	028H
	DB	042H
	DB	028H
	DB	042H
	DB	028H
	DB	04aH
	DB	028H
	DB	04aH
	DB	029H
	DB	042H
	DB	028H
	DB	04aH
	DB	028H
	DB	042H
	DB	029H
	DB	042H
	DB	028H
	DB	04aH
	DB	028H
	DB	042H
	DB	029H
	DB	04aH
	DB	028H
	DB	04aH
	DB	028H
	DB	042H
	DB	028H
	DB	042H
	DB	029H
	DB	04aH
	DB	028H
	DB	042H
	DB	029H
	DB	042H
	DB	028H
	DB	042H
	DB	028H
	DB	042H
	DB	029H
	DB	042H
	DB	028H
	DB	042H
	DB	028H
	DB	04aH
	DB	029H
	DB	04aH
	DB	028H
	DB	042H
	DB	028H
	DB	04aH
	DB	029H
	DB	04aH
	DB	028H
	DB	042H
	DB	029H
	DB	04aH
	DB	029H
	DB	04aH
	DB	028H
	DB	042H
	DB	028H
	DB	04aH
	DB	029H
	DB	04aH
	DB	028H
	DB	042H
	DB	028H
	DB	04aH
	DB	029H
	DB	042H
	DB	028H
	DB	04aH
	DB	029H
	DB	042H
	DB	029H
	DB	04aH
	DB	028H
	DB	04aH
	DB	028H
	DB	042H
	DB	029H
	DB	04aH
	DB	028H
	DB	04aH
	DB	028H
	DB	042H
	DB	029H
	DB	04aH
	DB	028H
	DB	042H
	DB	028H
	DB	042H
	DB	029H
	DB	04aH
	DB	028H
	DB	04aH
	DB	028H
	DB	042H
	DB	028H
	DB	04aH
	DB	029H
	DB	04aH
	DB	029H
	DB	042H
	DB	028H
	DB	042H
	DB	029H
	DB	04aH
	DB	029H
	DB	042H
	DB	028H
	DB	042H
	DB	029H
	DB	04aH
	DB	028H
	DB	042H
	DB	028H
	DB	042H
	DB	029H
	DB	04aH
	DB	028H
	DB	042H
	DB	028H
	DB	042H
	DB	029H
	DB	04aH
	DB	028H
	DB	042H
	DB	029H
	DB	04aH
	DB	028H
	DB	042H
	DB	029H
	DB	04aH
	DB	028H
	DB	042H
	DB	029H
	DB	042H
	DB	029H
	DB	04aH
	DB	028H
	DB	04aH
	DB	029H
	DB	042H
	DB	049H
	DB	042H
	DB	028H
	DB	04aH
	DB	029H
	DB	042H
	DB	048H
	DB	042H
	DB	028H
	DB	04aH
	DB	048H
	DB	042H
	DB	028H
	DB	042H
	DB	028H
	DB	04aH
	DB	049H
	DB	042H
	DB	029H
	DB	042H
	DB	028H
	DB	04aH
	DB	049H
	DB	042H
	DB	028H
	DB	042H
	DB	028H
	DB	04aH
	DB	029H
	DB	042H
	DB	049H
	DB	04aH
	DB	028H
	DB	04aH
	DB	029H
	DB	042H
	DB	029H
	DB	04aH
	DB	048H
	DB	04aH
	DB	029H
	DB	042H
	DB	029H
	DB	042H
	DB	028H
	DB	04aH
	DB	048H
	DB	042H
	DB	028H
	DB	04aH
	DB	029H
	DB	04aH
	DB	028H
	DB	04aH
	DB	029H
	DB	042H
	DB	028H
	DB	04aH
	DB	029H
	DB	04aH
	DB	029H
	DB	042H
	DB	028H
	DB	04aH
	DB	028H
	DB	04aH
	DB	029H
	DB	042H
	DB	028H
	DB	04aH
	DB	029H
	DB	04aH
	DB	028H
	DB	042H
	DB	049H
	DB	04aH
	DB	028H
	DB	042H
	DB	028H
	DB	04aH
	DB	029H
	DB	042H
	DB	028H
	DB	04aH
	DB	029H
	DB	042H
	DB	029H
	DB	04aH
	DB	028H
	DB	04aH
	DB	029H
	DB	042H
	DB	049H
	DB	04aH
	DB	049H
	DB	04aH
	DB	049H
	DB	04aH
	DB	049H
	DB	042H
	DB	049H
	DB	04aH
	DB	048H
	DB	04aH
	DB	029H
	DB	04aH
	DB	048H
	DB	042H
	DB	029H
	DB	04aH
	DB	029H
	DB	042H
	DB	028H
	DB	042H
	DB	049H
	DB	04aH
	DB	029H
	DB	04aH
	DB	028H
	DB	042H
	DB	049H
	DB	04aH
	DB	029H
	DB	04aH
	DB	028H
	DB	042H
	DB	029H
	DB	04aH
	DB	049H
	DB	042H
	DB	048H
	DB	04aH
	DB	029H
	DB	04aH
	DB	028H
	DB	042H
	DB	049H
	DB	04aH
	DB	028H
	DB	04aH
	DB	049H
	DB	042H
	DB	028H
	DB	04aH
	DB	049H
	DB	04aH
	DB	029H
	DB	042H
	DB	028H
	DB	04aH
	DB	049H
	DB	04aH
	DB	029H
	DB	042H
	DB	048H
	DB	042H
	DB	029H
	DB	04aH
	DB	049H
	DB	04aH
	DB	028H
	DB	04aH
	DB	049H
	DB	04aH
	DB	029H
	DB	04aH
	DB	028H
	DB	04aH
	DB	048H
	DB	04aH
	DB	029H
	DB	04aH
	DB	049H
	DB	042H
	DB	028H
	DB	04aH
	DB	049H
	DB	04aH
	DB	049H
	DB	04aH
	DB	029H
	DB	04aH
	DB	049H
	DB	04aH
	DB	049H
	DB	04aH
	DB	028H
	DB	04aH
	DB	029H
	DB	04aH
	DB	049H
	DB	04aH
	DB	028H
	DB	04aH
	DB	028H
	DB	042H
	DB	049H
	DB	04aH
	DB	028H
	DB	042H
	DB	028H
	DB	042H
	DB	049H
	DB	04aH
	DB	029H
	DB	042H
	DB	028H
	DB	04aH
	DB	049H
	DB	042H
	DB	029H
	DB	04aH
	DB	049H
	DB	04aH
	DB	028H
	DB	04aH
	DB	049H
	DB	04aH
	DB	048H
	DB	042H
	DB	029H
	DB	04aH
	DB	049H
	DB	04aH
	DB	048H
	DB	042H
	DB	029H
	DB	04aH
	DB	029H
	DB	04aH
	DB	028H
	DB	042H
	DB	048H
	DB	04aH
	DB	029H
	DB	04aH
	DB	048H
	DB	04aH
	DB	048H
	DB	042H
	DB	049H
	DB	04aH
	DB	048H
	DB	04aH
	DB	048H
	DB	042H
	DB	049H
	DB	042H
	DB	049H
	DB	04aH
	DB	048H
	DB	042H
	DB	049H
	DB	04aH
	DB	029H
	DB	04aH
	DB	048H
	DB	042H
	DB	029H
	DB	04aH
	DB	049H
	DB	04aH
	DB	048H
	DB	042H
	DB	029H
	DB	04aH
	DB	049H
	DB	04aH
	DB	049H
	DB	042H
	DB	049H
	DB	04aH
	DB	048H
	DB	04aH
	DB	049H
	DB	042H
	DB	049H
	DB	04aH
	DB	048H
	DB	04aH
	DB	049H
	DB	04aH
	DB	049H
	DB	042H
	DB	049H
	DB	04aH
	DB	049H
	DB	04aH
	DB	049H
	DB	042H
	DB	049H
	DB	04aH
	DB	029H
	DB	04aH
	DB	029H
	DB	04aH
	DB	049H
	DB	04aH
	DB	048H
	DB	04aH
	DB	029H
	DB	04aH
	DB	049H
	DB	04aH
	DB	049H
	DB	042H
	DB	048H
	DB	04aH
	DB	029H
	DB	04aH
	DB	049H
	DB	042H
	DB	048H
	DB	04aH
	DB	029H
	DB	04aH
	DB	049H
	DB	042H
	DB	048H
	DB	04aH
	DB	028H
	DB	04aH
	DB	049H
	DB	042H
	DB	048H
	DB	04aH
	DB	048H
	DB	042H
	DB	029H
	DB	04aH
	DB	049H
	DB	042H
	DB	028H
	DB	04aH
	DB	049H
	DB	04aH
	DB	028H
	DB	042H
	DB	029H
	DB	04aH
	DB	029H
	DB	04aH
	DB	028H
	DB	042H
	DB	028H
	DB	04aH
	DB	029H
	DB	04aH
	DB	048H
	DB	042H
	DB	029H
	DB	04aH
	DB	049H
	DB	04aH
	DB	028H
	DB	042H
	DB	028H
	DB	04aH
	DB	028H
	DB	042H
	DB	028H
	DB	042H
	DB	09H
	DB	042H
	DB	028H
	DB	04aH
	DB	028H
	DB	042H
	DB	08H
	DB	042H
	DB	028H
	DB	042H
	DB	028H
	DB	042H
	DB	08H
	DB	042H
	DB	028H
	DB	04aH
	DB	028H
	DB	042H
	DB	028H
	DB	042H
	DB	029H
	DB	04aH
	DB	028H
	DB	042H
	DB	028H
	DB	042H
	DB	028H
	DB	042H
	DB	08H
	DB	042H
	DB	028H
	DB	042H
	DB	028H
	DB	042H
	DB	028H
	DB	04aH
	DB	028H
	DB	042H
	DB	08H
	DB	042H
	DB	028H
	DB	042H
	DB	028H
	DB	042H
	DB	08H
	DB	042H
	DB	028H
	DB	042H
	DB	028H
	DB	042H
	DB	028H
	DB	042H
	DB	028H
	DB	04aH
	DB	028H
	DB	042H
	DB	028H
	DB	042H
	DB	028H
	DB	042H
	DB	028H
	DB	042H
	DB	09H
	DB	042H
	DB	028H
	DB	042H
	DB	028H
	DB	042H
	DB	08H
	DB	042H
	DB	028H
	DB	04aH
	DB	028H
	DB	042H
	DB	028H
	DB	042H
	DB	029H
	DB	042H
	DB	028H
	DB	042H
	DB	028H
	DB	042H
	DB	028H
	DB	042H
	DB	028H
	DB	042H
	DB	08H
	DB	042H
	DB	028H
	DB	04aH
	DB	028H
	DB	042H
	DB	08H
	DB	042H
	DB	029H
	DB	042H
	DB	028H
	DB	042H
	DB	028H
	DB	042H
	DB	028H
	DB	042H
	DB	028H
	DB	042H
	DB	028H
	DB	042H
	DB	028H
	DB	04aH
	DB	028H
	DB	042H
	DB	08H
	DB	042H
	DB	029H
	DB	042H
	DB	028H
	DB	042H
	DB	08H
	DB	042H
	DB	028H
	DB	042H
	DB	028H
	DB	042H
	DB	029H
	DB	042H
	DB	028H
	DB	04aH
	DB	028H
	DB	042H
	DB	028H
	DB	042H
	DB	028H
	DB	042H
	DB	08H
	DB	042H
	DB	029H
	DB	042H
	DB	028H
	DB	042H
	DB	028H
	DB	042H
	DB	028H
	DB	042H
	DB	028H
	DB	042H
	DB	028H
	DB	04aH
	DB	028H
	DB	042H
	DB	08H
	DB	042H
	DB	028H
	DB	042H
	DB	029H
	DB	04aH
	DB	086H
	DB	031H
	DB	028H
	DB	042H
	DB	028H
	DB	042H
	DB	028H
	DB	042H
	DB	08H
	DB	04aH
	DB	028H
	DB	042H
	DB	029H
	DB	042H
	DB	028H
	DB	042H
	DB	028H
	DB	042H
	DB	028H
	DB	042H
	DB	028H
	DB	04aH
	DB	09H
	DB	042H
	DB	028H
	DB	042H
	DB	08H
	DB	042H
	DB	08H
	DB	042H
	DB	029H
	DB	042H
	DB	028H
	DB	042H
	DB	028H
	DB	042H
	DB	028H
	DB	042H
	DB	08H
	DB	042H
	DB	029H
	DB	042H
	DB	08H
	DB	042H
	DB	028H
	DB	042H
	DB	08H
	DB	042H
	DB	08H
	DB	04aH
	DB	029H
	DB	042H
	DB	08H
	DB	042H
	DB	028H
	DB	04aH
	DB	028H
	DB	042H
	DB	029H
	DB	042H
	DB	08H
	DB	042H
	DB	028H
	DB	042H
	DB	028H
	DB	04aH
	DB	028H
	DB	042H
	DB	09H
	DB	042H
	DB	08H
	DB	042H
	DB	028H
	DB	042H
	DB	028H
	DB	042H
	DB	09H
	DB	04aH
	DB	028H
	DB	042H
	DB	028H
	DB	042H
	DB	028H
	DB	04aH
	DB	028H
	DB	042H
	DB	029H
	DB	042H
	DB	028H
	DB	042H
	DB	08H
	DB	042H
	DB	028H
	DB	042H
	DB	09H
	DB	042H
	DB	08H
	DB	042H
	DB	028H
	DB	042H
	DB	08H
	DB	042H
	DB	028H
	DB	042H
	DB	029H
	DB	042H
	DB	08H
	DB	042H
	DB	08H
	DB	042H
	DB	028H
	DB	042H
	DB	09H
	DB	042H
	DB	08H
	DB	042H
	DB	028H
	DB	04aH
	DB	028H
	DB	042H
	DB	08H
	DB	042H
	DB	029H
	DB	04aH
	DB	028H
	DB	042H
	DB	08H
	DB	042H
	DB	08H
	DB	042H
	DB	029H
	DB	042H
	DB	08H
	DB	04aH
	DB	028H
	DB	042H
	DB	08H
	DB	042H
	DB	08H
	DB	04aH
	DB	029H
	DB	04aH
	DB	08H
	DB	042H
	DB	08H
	DB	042H
	DB	028H
	DB	042H
	DB	029H
	DB	042H
	DB	08H
	DB	04aH
	DB	028H
	DB	042H
	DB	09H
	DB	04aH
	DB	08H
	DB	04aH
	DB	028H
	DB	042H
	DB	08H
	DB	042H
	DB	028H
	DB	042H
	DB	028H
	DB	042H
	DB	028H
	DB	04aH
	DB	028H
	DB	042H
	DB	028H
	DB	042H
	DB	028H
	DB	042H
	DB	028H
	DB	042H
	DB	028H
	DB	042H
	DB	028H
	DB	042H
	DB	08H
	DB	042H
	DB	028H
	DB	042H
	DB	08H
	DB	042H
	DB	08H
	DB	042H
	DB	028H
	DB	04aH
	DB	029H
	DB	042H
	DB	08H
	DB	042H
	DB	028H
	DB	04aH
	DB	029H
	DB	042H
	DB	028H
	DB	042H
	DB	08H
	DB	04aH
	DB	028H
	DB	042H
	DB	08H
	DB	04aH
	DB	08H
	DB	042H
	DB	028H
	DB	042H
	DB	029H
	DB	042H
	DB	08H
	DB	04aH
	DB	028H
	DB	042H
	DB	028H
	DB	042H
	DB	028H
	DB	042H
	DB	028H
	DB	042H
	DB	028H
	DB	04aH
	DB	029H
	DB	042H
	DB	028H
	DB	042H
	DB	028H
	DB	04aH
	DB	028H
	DB	042H
	DB	028H
	DB	042H
	DB	028H
	DB	04aH
	DB	029H
	DB	042H
	DB	028H
	DB	042H
	DB	028H
	DB	042H
	DB	028H
	DB	04aH
	DB	028H
	DB	042H
	DB	028H
	DB	042H
	DB	028H
	DB	04aH
	DB	028H
	DB	04aH
	DB	029H
	DB	042H
	DB	028H
	DB	042H
	DB	028H
	DB	042H
	DB	029H
	DB	04aH
	DB	028H
	DB	04aH
	DB	028H
	DB	042H
	DB	028H
	DB	04aH
	DB	028H
	DB	04aH
	DB	028H
	DB	042H
	DB	029H
	DB	042H
	DB	028H
	DB	04aH
	DB	028H
	DB	042H
	DB	08H
	DB	042H
	DB	028H
	DB	04aH
	DB	028H
	DB	04aH
	DB	029H
	DB	042H
	DB	028H
	DB	042H
	DB	028H
	DB	042H
	DB	029H
	DB	042H
	DB	028H
	DB	042H
	DB	028H
	DB	042H
	DB	028H
	DB	042H
	DB	028H
	DB	04aH
	DB	028H
	DB	042H
	DB	028H
	DB	042H
	DB	028H
	DB	042H
	DB	029H
	DB	042H
	DB	028H
	DB	042H
	DB	028H
	DB	042H
	DB	029H
	DB	042H
	DB	028H
	DB	042H
	DB	028H
	DB	042H
	DB	029H
	DB	042H
	DB	028H
	DB	042H
	DB	028H
	DB	04aH
	DB	029H
	DB	042H
	DB	028H
	DB	042H
	DB	028H
	DB	042H
	DB	028H
	DB	04aH
	DB	028H
	DB	042H
	DB	028H
	DB	04aH
	DB	029H
	DB	042H
	DB	028H
	DB	04aH
	DB	028H
	DB	042H
	DB	028H
	DB	04aH
	DB	028H
	DB	04aH
	DB	029H
	DB	042H
	DB	028H
	DB	04aH
	DB	028H
	DB	04aH
	DB	028H
	DB	042H
	DB	028H
	DB	042H
	DB	029H
	DB	04aH
	DB	028H
	DB	04aH
	DB	028H
	DB	042H
	DB	029H
	DB	042H
	DB	028H
	DB	042H
	DB	028H
	DB	042H
	DB	028H
	DB	04aH
	DB	028H
	DB	04aH
	DB	028H
	DB	042H
	DB	028H
	DB	04aH
	DB	028H
	DB	042H
	DB	028H
	DB	042H
	DB	028H
	DB	04aH
	DB	029H
	DB	042H
	DB	028H
	DB	04aH
	DB	028H
	DB	042H
	DB	029H
	DB	04aH
	DB	028H
	DB	04aH
	DB	028H
	DB	04aH
	DB	029H
	DB	04aH
	DB	028H
	DB	04aH
	DB	029H
	DB	042H
	DB	028H
	DB	04aH
	DB	028H
	DB	042H
	DB	029H
	DB	042H
	DB	028H
	DB	04aH
	DB	028H
	DB	042H
	DB	028H
	DB	042H
	DB	028H
	DB	04aH
	DB	028H
	DB	042H
	DB	028H
	DB	042H
	DB	029H
	DB	04aH
	DB	028H
	DB	042H
	DB	029H
	DB	042H
	DB	028H
	DB	04aH
	DB	029H
	DB	042H
	DB	028H
	DB	04aH
	DB	028H
	DB	042H
	DB	028H
	DB	04aH
	DB	029H
	DB	042H
	DB	028H
	DB	042H
	DB	028H
	DB	04aH
	DB	029H
	DB	042H
	DB	029H
	DB	042H
	DB	028H
	DB	04aH
	DB	029H
	DB	04aH
	DB	029H
	DB	042H
	DB	029H
	DB	04aH
	DB	028H
	DB	042H
	DB	029H
	DB	042H
	DB	029H
	DB	04aH
	DB	028H
	DB	042H
	DB	029H
	DB	04aH
	DB	028H
	DB	04aH
	DB	029H
	DB	042H
	DB	028H
	DB	04aH
	DB	029H
	DB	042H
	DB	029H
	DB	04aH
	DB	029H
	DB	04aH
	DB	029H
	DB	042H
	DB	028H
	DB	04aH
	DB	029H
	DB	04aH
	DB	028H
	DB	042H
	DB	029H
	DB	04aH
	DB	049H
	DB	04aH
	DB	028H
	DB	042H
	DB	048H
	DB	042H
	DB	029H
	DB	04aH
	DB	048H
	DB	04aH
	DB	028H
	DB	042H
	DB	049H
	DB	04aH
	DB	048H
	DB	042H
	DB	028H
	DB	04aH
	DB	029H
	DB	04aH
	DB	048H
	DB	042H
	DB	029H
	DB	04aH
	DB	029H
	DB	042H
	DB	029H
	DB	04aH
	DB	029H
	DB	04aH
	DB	049H
	DB	042H
	DB	028H
	DB	04aH
	DB	028H
	DB	04aH
	DB	029H
	DB	04aH
	DB	028H
	DB	042H
	DB	028H
	DB	04aH
	DB	029H
	DB	042H
	DB	029H
	DB	04aH
	DB	028H
	DB	04aH
	DB	029H
	DB	042H
	DB	028H
	DB	04aH
	DB	028H
	DB	04aH
	DB	029H
	DB	042H
	DB	028H
	DB	04aH
	DB	028H
	DB	04aH
	DB	029H
	DB	04aH
	DB	029H
	DB	04aH
	DB	028H
	DB	04aH
	DB	049H
	DB	042H
	DB	029H
	DB	04aH
	DB	028H
	DB	042H
	DB	049H
	DB	04aH
	DB	028H
	DB	04aH
	DB	048H
	DB	042H
	DB	029H
	DB	04aH
	DB	049H
	DB	042H
	DB	028H
	DB	04aH
	DB	049H
	DB	042H
	DB	028H
	DB	042H
	DB	029H
	DB	04aH
	DB	028H
	DB	042H
	DB	049H
	DB	04aH
	DB	049H
	DB	04aH
	DB	049H
	DB	042H
	DB	049H
	DB	04aH
	DB	049H
	DB	04aH
	DB	048H
	DB	042H
	DB	049H
	DB	04aH
	DB	049H
	DB	04aH
	DB	048H
	DB	042H
	DB	049H
	DB	04aH
	DB	028H
	DB	042H
	DB	028H
	DB	04aH
	DB	049H
	DB	04aH
	DB	028H
	DB	042H
	DB	029H
	DB	04aH
	DB	049H
	DB	04aH
	DB	048H
	DB	042H
	DB	029H
	DB	04aH
	DB	048H
	DB	04aH
	DB	029H
	DB	04aH
	DB	048H
	DB	04aH
	DB	029H
	DB	042H
	DB	028H
	DB	04aH
	DB	049H
	DB	04aH
	DB	028H
	DB	042H
	DB	029H
	DB	04aH
	DB	049H
	DB	04aH
	DB	028H
	DB	042H
	DB	028H
	DB	04aH
	DB	049H
	DB	04aH
	DB	029H
	DB	042H
	DB	048H
	DB	04aH
	DB	049H
	DB	042H
	DB	029H
	DB	04aH
	DB	028H
	DB	04aH
	DB	049H
	DB	04aH
	DB	049H
	DB	04aH
	DB	048H
	DB	04aH
	DB	029H
	DB	04aH
	DB	049H
	DB	04aH
	DB	028H
	DB	04aH
	DB	028H
	DB	04aH
	DB	049H
	DB	04aH
	DB	028H
	DB	042H
	DB	029H
	DB	042H
	DB	049H
	DB	04aH
	DB	048H
	DB	042H
	DB	029H
	DB	04aH
	DB	029H
	DB	04aH
	DB	048H
	DB	042H
	DB	029H
	DB	04aH
	DB	029H
	DB	04aH
	DB	048H
	DB	042H
	DB	029H
	DB	04aH
	DB	028H
	DB	04aH
	DB	049H
	DB	042H
	DB	029H
	DB	04aH
	DB	048H
	DB	04aH
	DB	049H
	DB	042H
	DB	029H
	DB	04aH
	DB	049H
	DB	04aH
	DB	049H
	DB	04aH
	DB	028H
	DB	04aH
	DB	049H
	DB	04aH
	DB	028H
	DB	04aH
	DB	049H
	DB	04aH
	DB	049H
	DB	04aH
	DB	049H
	DB	042H
	DB	048H
	DB	04aH
	DB	049H
	DB	04aH
	DB	049H
	DB	042H
	DB	049H
	DB	04aH
	DB	049H
	DB	04aH
	DB	049H
	DB	04aH
	DB	049H
	DB	042H
	DB	049H
	DB	042H
	DB	049H
	DB	04aH
	DB	049H
	DB	04aH
	DB	049H
	DB	042H
	DB	049H
	DB	04aH
	DB	049H
	DB	042H
	DB	048H
	DB	04aH
	DB	049H
	DB	04aH
	DB	049H
	DB	042H
	DB	028H
	DB	042H
	DB	049H
	DB	04aH
	DB	029H
	DB	04aH
	DB	028H
	DB	04aH
	DB	048H
	DB	042H
	DB	029H
	DB	04aH
	DB	049H
	DB	04aH
	DB	048H
	DB	042H
	DB	049H
	DB	04aH
	DB	049H
	DB	04aH
	DB	028H
	DB	042H
	DB	049H
	DB	042H
	DB	048H
	DB	04aH
	DB	028H
	DB	04aH
	DB	049H
	DB	042H
	DB	028H
	DB	04aH
	DB	029H
	DB	042H
	DB	048H
	DB	04aH
	DB	029H
	DB	042H
	DB	049H
	DB	04aH
	DB	028H
	DB	042H
	DB	049H
	DB	04aH
	DB	049H
	DB	04aH
	DB	028H
	DB	042H
	DB	049H
	DB	04aH
	DB	048H
	DB	042H
	DB	028H
	DB	04aH
	DB	029H
	DB	042H
	DB	049H
	DB	04aH
	DB	028H
	DB	04aH
	DB	028H
	DB	04aH
	DB	049H
	DB	04aH
	DB	028H
	DB	04aH
	DB	029H
	DB	04aH
	DB	048H
	DB	04aH
	DB	029H
	DB	04aH
	DB	029H
	DB	04aH
	DB	048H
	DB	04aH
	DB	029H
	DB	04aH
	DB	029H
	DB	04aH
	DB	049H
	DB	04aH
	DB	029H
	DB	04aH
	DB	028H
	DB	04aH
	DB	049H
	DB	04aH
	DB	028H
	DB	04aH
	DB	029H
	DB	04aH
	DB	049H
	DB	04aH
	DB	048H
	DB	04aH
	DB	049H
	DB	042H
	DB	049H
	DB	04aH
	DB	048H
	DB	04aH
	DB	049H
	DB	042H
	DB	029H
	DB	04aH
	DB	048H
	DB	04aH
	DB	029H
	DB	042H
	DB	029H
	DB	04aH
	DB	048H
	DB	042H
	DB	028H
	DB	042H
	DB	029H
	DB	04aH
	DB	028H
	DB	042H
	DB	028H
	DB	042H
	DB	029H
	DB	042H
	DB	028H
	DB	042H
	DB	029H
	DB	04aH
	DB	08H
	DB	042H
	DB	028H
	DB	04aH
	DB	028H
	DB	042H
	DB	028H
	DB	042H
	DB	028H
	DB	042H
	DB	08H
	DB	04aH
	DB	028H
	DB	042H
	DB	028H
	DB	042H
	DB	09H
	DB	04aH
	DB	028H
	DB	042H
	DB	028H
	DB	042H
	DB	09H
	DB	04aH
	DB	029H
	DB	042H
	DB	028H
	DB	042H
	DB	029H
	DB	04aH
	DB	028H
	DB	042H
	DB	029H
	DB	04aH
	DB	028H
	DB	04aH
	DB	09H
	DB	042H
	DB	029H
	DB	042H
	DB	028H
	DB	04aH
	DB	09H
	DB	042H
	DB	08H
	DB	042H
	DB	029H
	DB	04aH
	DB	09H
	DB	042H
	DB	08H
	DB	04aH
	DB	028H
	DB	04aH
	DB	029H
	DB	042H
	DB	028H
	DB	042H
	DB	028H
	DB	04aH
	DB	08H
	DB	042H
	DB	029H
	DB	042H
	DB	028H
	DB	04aH
	DB	08H
	DB	042H
	DB	09H
	DB	04aH
	DB	028H
	DB	04aH
	DB	09H
	DB	042H
	DB	08H
	DB	042H
	DB	029H
	DB	04aH
	DB	028H
	DB	042H
	DB	029H
	DB	042H
	DB	028H
	DB	04aH
	DB	08H
	DB	042H
	DB	029H
	DB	04aH
	DB	028H
	DB	04aH
	DB	09H
	DB	042H
	DB	08H
	DB	042H
	DB	029H
	DB	04aH
	DB	08H
	DB	042H
	DB	09H
	DB	042H
	DB	028H
	DB	04aH
	DB	028H
	DB	042H
	DB	029H
	DB	04aH
	DB	028H
	DB	04aH
	DB	08H
	DB	042H
	DB	029H
	DB	042H
	DB	028H
	DB	04aH
	DB	08H
	DB	042H
	DB	08H
	DB	042H
	DB	028H
	DB	04aH
	DB	09H
	DB	042H
	DB	029H
	DB	04aH
	DB	028H
	DB	04aH
	DB	028H
	DB	042H
	DB	08H
	DB	042H
	DB	029H
	DB	04aH
	DB	08H
	DB	042H
	DB	028H
	DB	042H
	DB	09H
	DB	042H
	DB	028H
	DB	042H
	DB	028H
	DB	04aH
	DB	029H
	DB	042H
	DB	028H
	DB	042H
	DB	028H
	DB	04aH
	DB	066H
	DB	031H
	DB	049H
	DB	042H
	DB	028H
	DB	042H
	DB	028H
	DB	042H
	DB	08H
	DB	042H
	DB	028H
	DB	04aH
	DB	028H
	DB	042H
	DB	08H
	DB	04aH
	DB	029H
	DB	042H
	DB	028H
	DB	042H
	DB	08H
	DB	042H
	DB	028H
	DB	04aH
	DB	028H
	DB	042H
	DB	028H
	DB	042H
	DB	028H
	DB	04aH
	DB	08H
	DB	04aH
	DB	028H
	DB	042H
	DB	08H
	DB	042H
	DB	028H
	DB	04aH
	DB	028H
	DB	042H
	DB	028H
	DB	04aH
	DB	028H
	DB	04aH
	DB	029H
	DB	042H
	DB	028H
	DB	042H
	DB	028H
	DB	042H
	DB	028H
	DB	04aH
	DB	028H
	DB	042H
	DB	08H
	DB	042H
	DB	08H
	DB	042H
	DB	028H
	DB	04aH
	DB	028H
	DB	042H
	DB	09H
	DB	042H
	DB	08H
	DB	042H
	DB	08H
	DB	04aH
	DB	08H
	DB	042H
	DB	028H
	DB	042H
	DB	028H
	DB	04aH
	DB	08H
	DB	042H
	DB	028H
	DB	042H
	DB	028H
	DB	042H
	DB	09H
	DB	042H
	DB	08H
	DB	042H
	DB	08H
	DB	04aH
	DB	08H
	DB	042H
	DB	028H
	DB	042H
	DB	08H
	DB	04aH
	DB	028H
	DB	042H
	DB	08H
	DB	04aH
	DB	028H
	DB	042H
	DB	09H
	DB	04aH
	DB	08H
	DB	04aH
	DB	028H
	DB	042H
	DB	028H
	DB	042H
	DB	08H
	DB	04aH
	DB	028H
	DB	042H
	DB	028H
	DB	04aH
	DB	08H
	DB	042H
	DB	08H
	DB	042H
	DB	029H
	DB	042H
	DB	028H
	DB	042H
	DB	08H
	DB	042H
	DB	08H
	DB	042H
	DB	028H
	DB	04aH
	DB	028H
	DB	042H
	DB	08H
	DB	042H
	DB	028H
	DB	042H
	DB	028H
	DB	042H
	DB	09H
	DB	04aH
	DB	028H
	DB	042H
	DB	08H
	DB	042H
	DB	028H
	DB	042H
	DB	028H
	DB	04aH
	DB	08H
	DB	042H
	DB	08H
	DB	042H
	DB	028H
	DB	042H
	DB	028H
	DB	042H
	DB	08H
	DB	042H
	DB	028H
	DB	042H
	DB	08H
	DB	042H
	DB	028H
	DB	042H
	DB	08H
	DB	04aH
	DB	028H
	DB	042H
	DB	08H
	DB	042H
	DB	029H
	DB	042H
	DB	08H
	DB	04aH
	DB	028H
	DB	042H
	DB	029H
	DB	04aH
	DB	08H
	DB	042H
	DB	028H
	DB	04aH
	DB	028H
	DB	042H
	DB	029H
	DB	04aH
	DB	028H
	DB	042H
	DB	029H
	DB	042H
	DB	028H
	DB	042H
	DB	028H
	DB	042H
	DB	028H
	DB	04aH
	DB	028H
	DB	042H
	DB	09H
	DB	042H
	DB	028H
	DB	042H
	DB	028H
	DB	042H
	DB	029H
	DB	042H
	DB	029H
	DB	04aH
	DB	028H
	DB	042H
	DB	028H
	DB	042H
	DB	028H
	DB	04aH
	DB	028H
	DB	042H
	DB	029H
	DB	042H
	DB	028H
	DB	04aH
	DB	029H
	DB	042H
	DB	028H
	DB	042H
	DB	029H
	DB	04aH
	DB	028H
	DB	042H
	DB	028H
	DB	042H
	DB	028H
	DB	04aH
	DB	029H
	DB	042H
	DB	028H
	DB	042H
	DB	028H
	DB	04aH
	DB	029H
	DB	042H
	DB	028H
	DB	042H
	DB	028H
	DB	042H
	DB	029H
	DB	04aH
	DB	028H
	DB	042H
	DB	029H
	DB	042H
	DB	028H
	DB	042H
	DB	028H
	DB	042H
	DB	029H
	DB	042H
	DB	028H
	DB	04aH
	DB	028H
	DB	042H
	DB	029H
	DB	042H
	DB	08H
	DB	04aH
	DB	029H
	DB	042H
	DB	09H
	DB	042H
	DB	08H
	DB	04aH
	DB	028H
	DB	042H
	DB	09H
	DB	042H
	DB	028H
	DB	04aH
	DB	028H
	DB	042H
	DB	029H
	DB	042H
	DB	028H
	DB	042H
	DB	028H
	DB	042H
	DB	029H
	DB	042H
	DB	028H
	DB	04aH
	DB	028H
	DB	042H
	DB	028H
	DB	042H
	DB	028H
	DB	04aH
	DB	028H
	DB	042H
	DB	029H
	DB	042H
	DB	029H
	DB	04aH
	DB	028H
	DB	042H
	DB	028H
	DB	042H
	DB	028H
	DB	04aH
	DB	029H
	DB	04aH
	DB	028H
	DB	042H
	DB	028H
	DB	042H
	DB	028H
	DB	04aH
	DB	028H
	DB	042H
	DB	028H
	DB	04aH
	DB	028H
	DB	04aH
	DB	029H
	DB	042H
	DB	028H
	DB	042H
	DB	028H
	DB	04aH
	DB	028H
	DB	042H
	DB	028H
	DB	042H
	DB	029H
	DB	04aH
	DB	028H
	DB	042H
	DB	028H
	DB	042H
	DB	029H
	DB	042H
	DB	028H
	DB	04aH
	DB	028H
	DB	042H
	DB	029H
	DB	042H
	DB	028H
	DB	042H
	DB	028H
	DB	042H
	DB	028H
	DB	042H
	DB	029H
	DB	042H
	DB	028H
	DB	04aH
	DB	028H
	DB	042H
	DB	028H
	DB	042H
	DB	028H
	DB	042H
	DB	029H
	DB	042H
	DB	028H
	DB	04aH
	DB	028H
	DB	04aH
	DB	029H
	DB	042H
	DB	028H
	DB	042H
	DB	028H
	DB	042H
	DB	029H
	DB	042H
	DB	029H
	DB	042H
	DB	029H
	DB	04aH
	DB	029H
	DB	042H
	DB	028H
	DB	042H
	DB	029H
	DB	042H
	DB	028H
	DB	042H
	DB	029H
	DB	04aH
	DB	028H
	DB	042H
	DB	028H
	DB	042H
	DB	029H
	DB	04aH
	DB	028H
	DB	042H
	DB	028H
	DB	042H
	DB	029H
	DB	04aH
	DB	028H
	DB	04aH
	DB	028H
	DB	042H
	DB	029H
	DB	04aH
	DB	028H
	DB	04aH
	DB	029H
	DB	042H
	DB	029H
	DB	04aH
	DB	028H
	DB	04aH
	DB	029H
	DB	042H
	DB	028H
	DB	04aH
	DB	029H
	DB	04aH
	DB	028H
	DB	042H
	DB	029H
	DB	04aH
	DB	028H
	DB	04aH
	DB	029H
	DB	042H
	DB	029H
	DB	04aH
	DB	029H
	DB	042H
	DB	028H
	DB	04aH
	DB	029H
	DB	04aH
	DB	029H
	DB	042H
	DB	028H
	DB	04aH
	DB	029H
	DB	04aH
	DB	029H
	DB	042H
	DB	028H
	DB	042H
	DB	028H
	DB	04aH
	DB	029H
	DB	042H
	DB	028H
	DB	04aH
	DB	028H
	DB	04aH
	DB	029H
	DB	042H
	DB	028H
	DB	042H
	DB	029H
	DB	04aH
	DB	028H
	DB	042H
	DB	048H
	DB	042H
	DB	029H
	DB	04aH
	DB	028H
	DB	042H
	DB	048H
	DB	04aH
	DB	028H
	DB	04aH
	DB	028H
	DB	042H
	DB	028H
	DB	042H
	DB	029H
	DB	04aH
	DB	028H
	DB	042H
	DB	049H
	DB	042H
	DB	028H
	DB	04aH
	DB	028H
	DB	042H
	DB	029H
	DB	04aH
	DB	029H
	DB	042H
	DB	028H
	DB	04aH
	DB	049H
	DB	042H
	DB	029H
	DB	042H
	DB	028H
	DB	04aH
	DB	029H
	DB	042H
	DB	029H
	DB	042H
	DB	028H
	DB	04aH
	DB	028H
	DB	042H
	DB	029H
	DB	04aH
	DB	048H
	DB	042H
	DB	028H
	DB	04aH
	DB	028H
	DB	042H
	DB	029H
	DB	042H
	DB	029H
	DB	04aH
	DB	048H
	DB	042H
	DB	029H
	DB	042H
	DB	049H
	DB	04aH
	DB	028H
	DB	04aH
	DB	049H
	DB	04aH
	DB	028H
	DB	04aH
	DB	048H
	DB	042H
	DB	049H
	DB	04aH
	DB	028H
	DB	04aH
	DB	029H
	DB	042H
	DB	049H
	DB	04aH
	DB	048H
	DB	04aH
	DB	029H
	DB	042H
	DB	028H
	DB	042H
	DB	048H
	DB	04aH
	DB	029H
	DB	04aH
	DB	049H
	DB	042H
	DB	049H
	DB	04aH
	DB	049H
	DB	04aH
	DB	048H
	DB	042H
	DB	049H
	DB	04aH
	DB	029H
	DB	042H
	DB	028H
	DB	04aH
	DB	028H
	DB	04aH
	DB	049H
	DB	04aH
	DB	049H
	DB	042H
	DB	049H
	DB	04aH
	DB	049H
	DB	04aH
	DB	049H
	DB	04aH
	DB	048H
	DB	042H
	DB	029H
	DB	04aH
	DB	028H
	DB	04aH
	DB	028H
	DB	042H
	DB	049H
	DB	04aH
	DB	028H
	DB	04aH
	DB	029H
	DB	042H
	DB	048H
	DB	04aH
	DB	029H
	DB	042H
	DB	049H
	DB	04aH
	DB	028H
	DB	04aH
	DB	029H
	DB	042H
	DB	049H
	DB	042H
	DB	028H
	DB	04aH
	DB	029H
	DB	04aH
	DB	048H
	DB	042H
	DB	029H
	DB	04aH
	DB	029H
	DB	042H
	DB	048H
	DB	04aH
	DB	029H
	DB	04aH
	DB	049H
	DB	042H
	DB	049H
	DB	04aH
	DB	028H
	DB	04aH
	DB	049H
	DB	04aH
	DB	049H
	DB	04aH
	DB	028H
	DB	04aH
	DB	049H
	DB	04aH
	DB	049H
	DB	04aH
	DB	048H
	DB	04aH
	DB	029H
	DB	04aH
	DB	049H
	DB	04aH
	DB	028H
	DB	04aH
	DB	049H
	DB	04aH
	DB	029H
	DB	04aH
	DB	048H
	DB	04aH
	DB	049H
	DB	042H
	DB	029H
	DB	04aH
	DB	028H
	DB	042H
	DB	049H
	DB	04aH
	DB	029H
	DB	042H
	DB	048H
	DB	04aH
	DB	049H
	DB	04aH
	DB	029H
	DB	04aH
	DB	049H
	DB	04aH
	DB	048H
	DB	04aH
	DB	029H
	DB	04aH
	DB	048H
	DB	04aH
	DB	049H
	DB	042H
	DB	029H
	DB	04aH
	DB	048H
	DB	04aH
	DB	049H
	DB	042H
	DB	049H
	DB	04aH
	DB	049H
	DB	04aH
	DB	049H
	DB	042H
	DB	049H
	DB	04aH
	DB	048H
	DB	04aH
	DB	049H
	DB	042H
	DB	049H
	DB	04aH
	DB	049H
	DB	04aH
	DB	048H
	DB	042H
	DB	049H
	DB	04aH
	DB	049H
	DB	04aH
	DB	049H
	DB	042H
	DB	049H
	DB	04aH
	DB	049H
	DB	04aH
	DB	049H
	DB	04aH
	DB	049H
	DB	04aH
	DB	048H
	DB	042H
	DB	049H
	DB	04aH
	DB	028H
	DB	04aH
	DB	048H
	DB	042H
	DB	049H
	DB	042H
	DB	028H
	DB	042H
	DB	048H
	DB	04aH
	DB	049H
	DB	04aH
	DB	028H
	DB	042H
	DB	049H
	DB	04aH
	DB	049H
	DB	04aH
	DB	048H
	DB	042H
	DB	048H
	DB	04aH
	DB	049H
	DB	04aH
	DB	049H
	DB	042H
	DB	028H
	DB	04aH
	DB	049H
	DB	04aH
	DB	049H
	DB	04aH
	DB	028H
	DB	04aH
	DB	049H
	DB	042H
	DB	049H
	DB	04aH
	DB	049H
	DB	04aH
	DB	048H
	DB	042H
	DB	049H
	DB	04aH
	DB	029H
	DB	042H
	DB	048H
	DB	04aH
	DB	049H
	DB	042H
	DB	048H
	DB	04aH
	DB	049H
	DB	04aH
	DB	049H
	DB	04aH
	DB	049H
	DB	042H
	DB	049H
	DB	04aH
	DB	048H
	DB	04aH
	DB	049H
	DB	042H
	DB	049H
	DB	04aH
	DB	048H
	DB	04aH
	DB	049H
	DB	042H
	DB	049H
	DB	04aH
	DB	048H
	DB	04aH
	DB	028H
	DB	042H
	DB	049H
	DB	04aH
	DB	048H
	DB	04aH
	DB	029H
	DB	042H
	DB	049H
	DB	04aH
	DB	048H
	DB	04aH
	DB	049H
	DB	04aH
	DB	029H
	DB	042H
	DB	048H
	DB	04aH
	DB	049H
	DB	042H
	DB	029H
	DB	04aH
	DB	028H
	DB	04aH
	DB	049H
	DB	042H
	DB	049H
	DB	04aH
	DB	028H
	DB	04aH
	DB	049H
	DB	042H
	DB	048H
	DB	04aH
	DB	029H
	DB	04aH
	DB	048H
	DB	042H
	DB	049H
	DB	04aH
	DB	049H
	DB	042H
	DB	049H
	DB	042H
	DB	029H
	DB	04aH
	DB	048H
	DB	04aH
	DB	029H
	DB	042H
	DB	029H
	DB	04aH
	DB	028H
	DB	04aH
	DB	029H
	DB	04aH
	DB	028H
	DB	04aH
	DB	049H
	DB	04aH
	DB	029H
	DB	04aH
	DB	049H
	DB	04aH
	DB	048H
	DB	04aH
	DB	029H
	DB	042H
	DB	049H
	DB	04aH
	DB	048H
	DB	04aH
	DB	028H
	DB	042H
	DB	029H
	DB	04aH
	DB	028H
	DB	042H
	DB	028H
	DB	042H
	DB	08H
	DB	04aH
	DB	028H
	DB	042H
	DB	028H
	DB	042H
	DB	029H
	DB	042H
	DB	08H
	DB	042H
	DB	029H
	DB	04aH
	DB	028H
	DB	042H
	DB	09H
	DB	042H
	DB	029H
	DB	042H
	DB	028H
	DB	042H
	DB	08H
	DB	042H
	DB	028H
	DB	042H
	DB	029H
	DB	042H
	DB	08H
	DB	04aH
	DB	028H
	DB	042H
	DB	028H
	DB	042H
	DB	08H
	DB	042H
	DB	08H
	DB	042H
	DB	029H
	DB	042H
	DB	028H
	DB	042H
	DB	08H
	DB	042H
	DB	028H
	DB	042H
	DB	028H
	DB	04aH
	DB	028H
	DB	042H
	DB	028H
	DB	042H
	DB	028H
	DB	04aH
	DB	028H
	DB	042H
	DB	028H
	DB	042H
	DB	028H
	DB	042H
	DB	029H
	DB	042H
	DB	08H
	DB	042H
	DB	028H
	DB	04aH
	DB	028H
	DB	042H
	DB	029H
	DB	042H
	DB	028H
	DB	04aH
	DB	028H
	DB	042H
	DB	029H
	DB	042H
	DB	028H
	DB	042H
	DB	028H
	DB	042H
	DB	028H
	DB	042H
	DB	028H
	DB	04aH
	DB	028H
	DB	042H
	DB	09H
	DB	042H
	DB	028H
	DB	04aH
	DB	028H
	DB	042H
	DB	029H
	DB	042H
	DB	028H
	DB	042H
	DB	028H
	DB	042H
	DB	028H
	DB	042H
	DB	028H
	DB	04aH
	DB	028H
	DB	042H
	DB	029H
	DB	042H
	DB	028H
	DB	04aH
	DB	028H
	DB	042H
	DB	09H
	DB	042H
	DB	028H
	DB	042H
	DB	028H
	DB	042H
	DB	028H
	DB	042H
	DB	029H
	DB	04aH
	DB	028H
	DB	042H
	DB	028H
	DB	042H
	DB	029H
	DB	04aH
	DB	028H
	DB	042H
	DB	08H
	DB	042H
	DB	028H
	DB	042H
	DB	028H
	DB	042H
	DB	028H
	DB	042H
	DB	028H
	DB	04aH
	DB	029H
	DB	042H
	DB	028H
	DB	04aH
	DB	08H
	DB	042H
	DB	028H
	DB	042H
	DB	028H
	DB	04aH
	DB	08H
	DB	042H
	DB	028H
	DB	042H
	DB	028H
	DB	042H
	DB	029H
	DB	04aH
	DB	066H
	DB	031H
	DB	048H
	DB	04aH
	DB	028H
	DB	042H
	DB	028H
	DB	042H
	DB	029H
	DB	042H
	DB	028H
	DB	042H
	DB	08H
	DB	042H
	DB	028H
	DB	04aH
	DB	028H
	DB	042H
	DB	08H
	DB	042H
	DB	028H
	DB	042H
	DB	028H
	DB	042H
	DB	029H
	DB	04aH
	DB	028H
	DB	042H
	DB	028H
	DB	042H
	DB	028H
	DB	042H
	DB	029H
	DB	042H
	DB	028H
	DB	04aH
	DB	08H
	DB	042H
	DB	029H
	DB	042H
	DB	028H
	DB	042H
	DB	08H
	DB	042H
	DB	028H
	DB	04aH
	DB	028H
	DB	042H
	DB	08H
	DB	042H
	DB	028H
	DB	042H
	DB	029H
	DB	04aH
	DB	028H
	DB	042H
	DB	028H
	DB	042H
	DB	028H
	DB	042H
	DB	028H
	DB	04aH
	DB	028H
	DB	042H
	DB	028H
	DB	042H
	DB	028H
	DB	042H
	DB	028H
	DB	042H
	DB	029H
	DB	04aH
	DB	028H
	DB	042H
	DB	028H
	DB	042H
	DB	028H
	DB	042H
	DB	028H
	DB	042H
	DB	028H
	DB	042H
	DB	028H
	DB	042H
	DB	028H
	DB	042H
	DB	028H
	DB	042H
	DB	029H
	DB	042H
	DB	08H
	DB	042H
	DB	028H
	DB	04aH
	DB	028H
	DB	042H
	DB	08H
	DB	042H
	DB	028H
	DB	042H
	DB	08H
	DB	042H
	DB	028H
	DB	042H
	DB	028H
	DB	042H
	DB	09H
	DB	042H
	DB	08H
	DB	04aH
	DB	028H
	DB	042H
	DB	028H
	DB	042H
	DB	08H
	DB	04aH
	DB	08H
	DB	042H
	DB	028H
	DB	042H
	DB	028H
	DB	04aH
	DB	08H
	DB	042H
	DB	09H
	DB	042H
	DB	028H
	DB	04aH
	DB	08H
	DB	042H
	DB	08H
	DB	042H
	DB	028H
	DB	04aH
	DB	08H
	DB	042H
	DB	028H
	DB	042H
	DB	028H
	DB	042H
	DB	08H
	DB	042H
	DB	029H
	DB	042H
	DB	028H
	DB	04aH
	DB	08H
	DB	042H
	DB	08H
	DB	04aH
	DB	028H
	DB	042H
	DB	08H
	DB	042H
	DB	028H
	DB	04aH
	DB	028H
	DB	042H
	DB	09H
	DB	042H
	DB	028H
	DB	042H
	DB	028H
	DB	042H
	DB	028H
	DB	042H
	DB	028H
	DB	042H
	DB	029H
	DB	042H
	DB	08H
	DB	042H
	DB	028H
	DB	042H
	DB	029H
	DB	04aH
	DB	08H
	DB	042H
	DB	028H
	DB	042H
	DB	08H
	DB	042H
	DB	028H
	DB	04aH
	DB	028H
	DB	042H
	DB	09H
	DB	042H
	DB	028H
	DB	04aH
	DB	028H
	DB	042H
	DB	09H
	DB	042H
	DB	028H
	DB	04aH
	DB	028H
	DB	042H
	DB	028H
	DB	042H
	DB	028H
	DB	042H
	DB	028H
	DB	042H
	DB	029H
	DB	042H
	DB	028H
	DB	042H
	DB	028H
	DB	04aH
	DB	029H
	DB	042H
	DB	028H
	DB	042H
	DB	028H
	DB	042H
	DB	028H
	DB	042H
	DB	029H
	DB	04aH
	DB	028H
	DB	042H
	DB	028H
	DB	042H
	DB	028H
	DB	042H
	DB	029H
	DB	042H
	DB	028H
	DB	042H
	DB	028H
	DB	042H
	DB	029H
	DB	042H
	DB	028H
	DB	042H
	DB	028H
	DB	04aH
	DB	028H
	DB	042H
	DB	028H
	DB	042H
	DB	028H
	DB	042H
	DB	029H
	DB	04aH
	DB	028H
	DB	042H
	DB	028H
	DB	042H
	DB	028H
	DB	042H
	DB	028H
	DB	042H
	DB	028H
	DB	042H
	DB	028H
	DB	042H
	DB	028H
	DB	042H
	DB	028H
	DB	042H
	DB	028H
	DB	042H
	DB	028H
	DB	042H
	DB	029H
	DB	042H
	DB	028H
	DB	042H
	DB	028H
	DB	042H
	DB	028H
	DB	042H
	DB	029H
	DB	04aH
	DB	028H
	DB	042H
	DB	028H
	DB	042H
	DB	029H
	DB	042H
	DB	028H
	DB	042H
	DB	028H
	DB	04aH
	DB	029H
	DB	042H
	DB	028H
	DB	042H
	DB	028H
	DB	04aH
	DB	028H
	DB	04aH
	DB	028H
	DB	042H
	DB	029H
	DB	042H
	DB	028H
	DB	04aH
	DB	028H
	DB	042H
	DB	029H
	DB	042H
	DB	028H
	DB	04aH
	DB	028H
	DB	042H
	DB	029H
	DB	04aH
	DB	028H
	DB	042H
	DB	028H
	DB	042H
	DB	029H
	DB	04aH
	DB	028H
	DB	042H
	DB	029H
	DB	04aH
	DB	029H
	DB	042H
	DB	028H
	DB	04aH
	DB	028H
	DB	042H
	DB	029H
	DB	04aH
	DB	028H
	DB	04aH
	DB	028H
	DB	042H
	DB	028H
	DB	042H
	DB	028H
	DB	04aH
	DB	028H
	DB	042H
	DB	029H
	DB	042H
	DB	029H
	DB	04aH
	DB	028H
	DB	04aH
	DB	028H
	DB	042H
	DB	028H
	DB	042H
	DB	029H
	DB	04aH
	DB	028H
	DB	042H
	DB	028H
	DB	04aH
	DB	029H
	DB	04aH
	DB	028H
	DB	042H
	DB	029H
	DB	042H
	DB	028H
	DB	04aH
	DB	029H
	DB	04aH
	DB	029H
	DB	042H
	DB	028H
	DB	04aH
	DB	028H
	DB	042H
	DB	028H
	DB	04aH
	DB	028H
	DB	04aH
	DB	028H
	DB	04aH
	DB	029H
	DB	04aH
	DB	028H
	DB	04aH
	DB	028H
	DB	04aH
	DB	029H
	DB	042H
	DB	028H
	DB	04aH
	DB	028H
	DB	042H
	DB	029H
	DB	04aH
	DB	028H
	DB	042H
	DB	028H
	DB	042H
	DB	029H
	DB	04aH
	DB	028H
	DB	042H
	DB	029H
	DB	042H
	DB	028H
	DB	04aH
	DB	029H
	DB	042H
	DB	028H
	DB	042H
	DB	029H
	DB	04aH
	DB	029H
	DB	042H
	DB	029H
	DB	042H
	DB	029H
	DB	04aH
	DB	028H
	DB	042H
	DB	029H
	DB	042H
	DB	028H
	DB	04aH
	DB	028H
	DB	042H
	DB	029H
	DB	04aH
	DB	028H
	DB	042H
	DB	028H
	DB	042H
	DB	029H
	DB	04aH
	DB	028H
	DB	042H
	DB	028H
	DB	042H
	DB	029H
	DB	04aH
	DB	028H
	DB	04aH
	DB	028H
	DB	042H
	DB	029H
	DB	04aH
	DB	029H
	DB	042H
	DB	048H
	DB	042H
	DB	028H
	DB	04aH
	DB	029H
	DB	042H
	DB	048H
	DB	04aH
	DB	029H
	DB	04aH
	DB	028H
	DB	042H
	DB	049H
	DB	04aH
	DB	029H
	DB	042H
	DB	028H
	DB	042H
	DB	049H
	DB	04aH
	DB	029H
	DB	042H
	DB	029H
	DB	042H
	DB	048H
	DB	04aH
	DB	049H
	DB	042H
	DB	028H
	DB	04aH
	DB	029H
	DB	04aH
	DB	029H
	DB	042H
	DB	048H
	DB	04aH
	DB	028H
	DB	042H
	DB	029H
	DB	04aH
	DB	048H
	DB	04aH
	DB	029H
	DB	04aH
	DB	028H
	DB	042H
	DB	029H
	DB	04aH
	DB	028H
	DB	04aH
	DB	028H
	DB	042H
	DB	049H
	DB	04aH
	DB	029H
	DB	042H
	DB	028H
	DB	04aH
	DB	029H
	DB	04aH
	DB	029H
	DB	04aH
	DB	048H
	DB	04aH
	DB	028H
	DB	04aH
	DB	028H
	DB	04aH
	DB	049H
	DB	04aH
	DB	028H
	DB	04aH
	DB	029H
	DB	042H
	DB	028H
	DB	04aH
	DB	029H
	DB	042H
	DB	029H
	DB	042H
	DB	028H
	DB	04aH
	DB	029H
	DB	042H
	DB	029H
	DB	04aH
	DB	028H
	DB	04aH
	DB	048H
	DB	042H
	DB	029H
	DB	04aH
	DB	049H
	DB	04aH
	DB	049H
	DB	042H
	DB	049H
	DB	04aH
	DB	049H
	DB	04aH
	DB	048H
	DB	042H
	DB	028H
	DB	042H
	DB	029H
	DB	04aH
	DB	028H
	DB	04aH
	DB	029H
	DB	042H
	DB	049H
	DB	04aH
	DB	049H
	DB	04aH
	DB	029H
	DB	042H
	DB	028H
	DB	04aH
	DB	049H
	DB	042H
	DB	028H
	DB	04aH
	DB	028H
	DB	04aH
	DB	029H
	DB	042H
	DB	048H
	DB	04aH
	DB	049H
	DB	04aH
	DB	029H
	DB	042H
	DB	049H
	DB	04aH
	DB	028H
	DB	042H
	DB	029H
	DB	04aH
	DB	049H
	DB	04aH
	DB	028H
	DB	042H
	DB	029H
	DB	04aH
	DB	049H
	DB	04aH
	DB	028H
	DB	042H
	DB	049H
	DB	04aH
	DB	049H
	DB	04aH
	DB	049H
	DB	042H
	DB	029H
	DB	04aH
	DB	048H
	DB	04aH
	DB	049H
	DB	042H
	DB	029H
	DB	04aH
	DB	048H
	DB	04aH
	DB	029H
	DB	04aH
	DB	029H
	DB	042H
	DB	048H
	DB	04aH
	DB	029H
	DB	04aH
	DB	049H
	DB	042H
	DB	028H
	DB	042H
	DB	049H
	DB	04aH
	DB	029H
	DB	042H
	DB	028H
	DB	04aH
	DB	049H
	DB	042H
	DB	029H
	DB	04aH
	DB	048H
	DB	042H
	DB	029H
	DB	04aH
	DB	049H
	DB	04aH
	DB	028H
	DB	042H
	DB	029H
	DB	04aH
	DB	048H
	DB	04aH
	DB	049H
	DB	04aH
	DB	028H
	DB	04aH
	DB	049H
	DB	04aH
	DB	049H
	DB	042H
	DB	049H
	DB	04aH
	DB	049H
	DB	04aH
	DB	049H
	DB	042H
	DB	049H
	DB	042H
	DB	049H
	DB	04aH
	DB	049H
	DB	04aH
	DB	049H
	DB	04aH
	DB	049H
	DB	04aH
	DB	049H
	DB	04aH
	DB	049H
	DB	04aH
	DB	049H
	DB	04aH
	DB	049H
	DB	04aH
	DB	048H
	DB	04aH
	DB	049H
	DB	04aH
	DB	049H
	DB	04aH
	DB	048H
	DB	04aH
	DB	049H
	DB	04aH
	DB	029H
	DB	04aH
	DB	049H
	DB	04aH
	DB	028H
	DB	04aH
	DB	049H
	DB	04aH
	DB	049H
	DB	04aH
	DB	028H
	DB	042H
	DB	049H
	DB	04aH
	DB	049H
	DB	042H
	DB	028H
	DB	04aH
	DB	049H
	DB	042H
	DB	049H
	DB	04aH
	DB	028H
	DB	042H
	DB	049H
	DB	04aH
	DB	049H
	DB	04aH
	DB	029H
	DB	04aH
	DB	049H
	DB	04aH
	DB	048H
	DB	04aH
	DB	029H
	DB	042H
	DB	049H
	DB	04aH
	DB	049H
	DB	04aH
	DB	028H
	DB	042H
	DB	049H
	DB	04aH
	DB	029H
	DB	042H
	DB	048H
	DB	04aH
	DB	049H
	DB	04aH
	DB	028H
	DB	042H
	DB	049H
	DB	042H
	DB	049H
	DB	04aH
	DB	048H
	DB	04aH
	DB	049H
	DB	042H
	DB	048H
	DB	04aH
	DB	049H
	DB	042H
	DB	049H
	DB	04aH
	DB	048H
	DB	04aH
	DB	049H
	DB	042H
	DB	028H
	DB	04aH
	DB	049H
	DB	04aH
	DB	029H
	DB	042H
	DB	028H
	DB	042H
	DB	049H
	DB	04aH
	DB	028H
	DB	04aH
	DB	049H
	DB	042H
	DB	049H
	DB	04aH
	DB	028H
	DB	04aH
	DB	049H
	DB	042H
	DB	049H
	DB	04aH
	DB	028H
	DB	04aH
	DB	049H
	DB	042H
	DB	049H
	DB	04aH
	DB	048H
	DB	04aH
	DB	029H
	DB	042H
	DB	049H
	DB	04aH
	DB	049H
	DB	04aH
	DB	048H
	DB	042H
	DB	049H
	DB	04aH
	DB	049H
	DB	04aH
	DB	048H
	DB	04aH
	DB	049H
	DB	04aH
	DB	049H
	DB	042H
	DB	049H
	DB	04aH
	DB	048H
	DB	04aH
	DB	049H
	DB	042H
	DB	049H
	DB	04aH
	DB	048H
	DB	04aH
	DB	049H
	DB	042H
	DB	049H
	DB	04aH
	DB	049H
	DB	04aH
	DB	048H
	DB	042H
	DB	049H
	DB	04aH
	DB	048H
	DB	04aH
	DB	048H
	DB	042H
	DB	049H
	DB	04aH
	DB	048H
	DB	04aH
	DB	029H
	DB	042H
	DB	048H
	DB	04aH
	DB	049H
	DB	04aH
	DB	049H
	DB	042H
	DB	028H
	DB	04aH
	DB	049H
	DB	042H
	DB	028H
	DB	04aH
	DB	029H
	DB	042H
	DB	048H
	DB	04aH
	DB	029H
	DB	04aH
	DB	028H
	DB	042H
	DB	049H
	DB	04aH
	DB	049H
	DB	04aH
	DB	028H
	DB	04aH
	DB	029H
	DB	04aH
	DB	028H
	DB	042H
	DB	028H
	DB	042H
	DB	029H
	DB	04aH
	DB	08H
	DB	042H
	DB	028H
	DB	042H
	DB	028H
	DB	042H
	DB	028H
	DB	042H
	DB	08H
	DB	04aH
	DB	028H
	DB	042H
	DB	028H
	DB	042H
	DB	028H
	DB	04aH
	DB	028H
	DB	042H
	DB	09H
	DB	04aH
	DB	028H
	DB	042H
	DB	028H
	DB	042H
	DB	028H
	DB	042H
	DB	028H
	DB	04aH
	DB	029H
	DB	042H
	DB	028H
	DB	04aH
	DB	028H
	DB	042H
	DB	028H
	DB	042H
	DB	08H
	DB	04aH
	DB	028H
	DB	042H
	DB	028H
	DB	042H
	DB	09H
	DB	042H
	DB	028H
	DB	042H
	DB	028H
	DB	042H
	DB	09H
	DB	042H
	DB	028H
	DB	042H
	DB	028H
	DB	042H
	DB	028H
	DB	042H
	DB	08H
	DB	042H
	DB	029H
	DB	04aH
	DB	028H
	DB	042H
	DB	08H
	DB	042H
	DB	029H
	DB	042H
	DB	08H
	DB	042H
	DB	028H
	DB	042H
	DB	028H
	DB	042H
	DB	08H
	DB	042H
	DB	028H
	DB	042H
	DB	029H
	DB	04aH
	DB	028H
	DB	042H
	DB	08H
	DB	042H
	DB	028H
	DB	042H
	DB	028H
	DB	042H
	DB	08H
	DB	042H
	DB	028H
	DB	042H
	DB	08H
	DB	042H
	DB	028H
	DB	042H
	DB	029H
	DB	04aH
	DB	08H
	DB	042H
	DB	028H
	DB	042H
	DB	028H
	DB	042H
	DB	028H
	DB	042H
	DB	08H
	DB	042H
	DB	028H
	DB	042H
	DB	028H
	DB	042H
	DB	08H
	DB	042H
	DB	029H
	DB	04aH
	DB	08H
	DB	042H
	DB	028H
	DB	042H
	DB	029H
	DB	042H
	DB	028H
	DB	042H
	DB	028H
	DB	042H
	DB	028H
	DB	042H
	DB	09H
	DB	042H
	DB	028H
	DB	042H
	DB	09H
	DB	04aH
	DB	028H
	DB	042H
	DB	028H
	DB	042H
	DB	028H
	DB	042H
	DB	029H
	DB	04aH
	DB	028H
	DB	042H
	DB	028H
	DB	042H
	DB	08H
	DB	042H
	DB	028H
	DB	042H
	DB	028H
	DB	042H
	DB	029H
	DB	04aH
	DB	066H
	DB	031H
	DB	028H
	DB	042H
	DB	028H
	DB	042H
	DB	08H
	DB	04aH
	DB	028H
	DB	04aH
	DB	028H
	DB	042H
	DB	028H
	DB	042H
	DB	028H
	DB	042H
	DB	028H
	DB	04aH
	DB	028H
	DB	042H
	DB	028H
	DB	042H
	DB	08H
	DB	04aH
	DB	08H
	DB	042H
	DB	028H
	DB	042H
	DB	08H
	DB	042H
	DB	028H
	DB	042H
	DB	028H
	DB	04aH
	DB	028H
	DB	042H
	DB	028H
	DB	042H
	DB	08H
	DB	042H
	DB	028H
	DB	042H
	DB	028H
	DB	042H
	DB	08H
	DB	042H
	DB	028H
	DB	04aH
	DB	028H
	DB	042H
	DB	08H
	DB	042H
	DB	028H
	DB	042H
	DB	028H
	DB	04aH
	DB	028H
	DB	042H
	DB	09H
	DB	042H
	DB	028H
	DB	042H
	DB	028H
	DB	04aH
	DB	028H
	DB	042H
	DB	028H
	DB	042H
	DB	028H
	DB	042H
	DB	08H
	DB	042H
	DB	028H
	DB	042H
	DB	028H
	DB	04aH
	DB	09H
	DB	042H
	DB	08H
	DB	042H
	DB	028H
	DB	04aH
	DB	028H
	DB	042H
	DB	08H
	DB	042H
	DB	028H
	DB	042H
	DB	028H
	DB	042H
	DB	08H
	DB	042H
	DB	08H
	DB	042H
	DB	029H
	DB	042H
	DB	08H
	DB	042H
	DB	028H
	DB	042H
	DB	028H
	DB	042H
	DB	028H
	DB	042H
	DB	028H
	DB	042H
	DB	08H
	DB	042H
	DB	08H
	DB	042H
	DB	028H
	DB	042H
	DB	029H
	DB	042H
	DB	08H
	DB	04aH
	DB	028H
	DB	042H
	DB	028H
	DB	042H
	DB	08H
	DB	042H
	DB	028H
	DB	042H
	DB	028H
	DB	042H
	DB	08H
	DB	04aH
	DB	028H
	DB	042H
	DB	029H
	DB	042H
	DB	08H
	DB	042H
	DB	08H
	DB	042H
	DB	028H
	DB	04aH
	DB	08H
	DB	042H
	DB	08H
	DB	042H
	DB	08H
	DB	04aH
	DB	028H
	DB	042H
	DB	029H
	DB	042H
	DB	08H
	DB	042H
	DB	08H
	DB	04aH
	DB	029H
	DB	042H
	DB	08H
	DB	042H
	DB	08H
	DB	04aH
	DB	028H
	DB	042H
	DB	08H
	DB	042H
	DB	028H
	DB	042H
	DB	08H
	DB	04aH
	DB	028H
	DB	04aH
	DB	028H
	DB	042H
	DB	028H
	DB	042H
	DB	028H
	DB	042H
	DB	028H
	DB	042H
	DB	029H
	DB	042H
	DB	028H
	DB	042H
	DB	08H
	DB	042H
	DB	029H
	DB	04aH
	DB	028H
	DB	042H
	DB	028H
	DB	042H
	DB	029H
	DB	042H
	DB	028H
	DB	042H
	DB	028H
	DB	042H
	DB	028H
	DB	04aH
	DB	029H
	DB	042H
	DB	028H
	DB	04aH
	DB	028H
	DB	04aH
	DB	028H
	DB	042H
	DB	028H
	DB	042H
	DB	029H
	DB	04aH
	DB	028H
	DB	042H
	DB	028H
	DB	042H
	DB	028H
	DB	042H
	DB	028H
	DB	04aH
	DB	028H
	DB	042H
	DB	028H
	DB	042H
	DB	028H
	DB	042H
	DB	029H
	DB	04aH
	DB	028H
	DB	042H
	DB	028H
	DB	04aH
	DB	028H
	DB	042H
	DB	028H
	DB	04aH
	DB	028H
	DB	042H
	DB	028H
	DB	042H
	DB	029H
	DB	04aH
	DB	028H
	DB	042H
	DB	028H
	DB	042H
	DB	028H
	DB	042H
	DB	028H
	DB	04aH
	DB	029H
	DB	042H
	DB	028H
	DB	042H
	DB	029H
	DB	04aH
	DB	028H
	DB	042H
	DB	029H
	DB	04aH
	DB	028H
	DB	042H
	DB	028H
	DB	042H
	DB	028H
	DB	04aH
	DB	028H
	DB	042H
	DB	028H
	DB	042H
	DB	028H
	DB	04aH
	DB	028H
	DB	042H
	DB	028H
	DB	042H
	DB	029H
	DB	04aH
	DB	028H
	DB	04aH
	DB	028H
	DB	04aH
	DB	028H
	DB	04aH
	DB	028H
	DB	042H
	DB	028H
	DB	04aH
	DB	029H
	DB	042H
	DB	028H
	DB	04aH
	DB	028H
	DB	042H
	DB	029H
	DB	042H
	DB	028H
	DB	04aH
	DB	028H
	DB	042H
	DB	028H
	DB	042H
	DB	029H
	DB	04aH
	DB	028H
	DB	042H
	DB	028H
	DB	042H
	DB	028H
	DB	04aH
	DB	028H
	DB	042H
	DB	029H
	DB	042H
	DB	028H
	DB	04aH
	DB	029H
	DB	042H
	DB	028H
	DB	042H
	DB	028H
	DB	04aH
	DB	028H
	DB	042H
	DB	029H
	DB	042H
	DB	028H
	DB	042H
	DB	028H
	DB	04aH
	DB	028H
	DB	042H
	DB	029H
	DB	042H
	DB	029H
	DB	04aH
	DB	028H
	DB	042H
	DB	029H
	DB	042H
	DB	028H
	DB	04aH
	DB	028H
	DB	042H
	DB	029H
	DB	04aH
	DB	029H
	DB	042H
	DB	028H
	DB	042H
	DB	029H
	DB	04aH
	DB	029H
	DB	042H
	DB	028H
	DB	042H
	DB	029H
	DB	04aH
	DB	028H
	DB	042H
	DB	028H
	DB	042H
	DB	028H
	DB	042H
	DB	029H
	DB	042H
	DB	028H
	DB	042H
	DB	028H
	DB	04aH
	DB	029H
	DB	042H
	DB	028H
	DB	042H
	DB	029H
	DB	04aH
	DB	028H
	DB	042H
	DB	028H
	DB	042H
	DB	029H
	DB	042H
	DB	028H
	DB	04aH
	DB	029H
	DB	042H
	DB	029H
	DB	04aH
	DB	029H
	DB	042H
	DB	029H
	DB	04aH
	DB	029H
	DB	04aH
	DB	029H
	DB	042H
	DB	029H
	DB	04aH
	DB	028H
	DB	04aH
	DB	029H
	DB	042H
	DB	029H
	DB	04aH
	DB	028H
	DB	04aH
	DB	028H
	DB	042H
	DB	029H
	DB	04aH
	DB	028H
	DB	04aH
	DB	028H
	DB	042H
	DB	028H
	DB	04aH
	DB	028H
	DB	04aH
	DB	029H
	DB	042H
	DB	029H
	DB	04aH
	DB	028H
	DB	042H
	DB	029H
	DB	042H
	DB	049H
	DB	04aH
	DB	028H
	DB	04aH
	DB	028H
	DB	042H
	DB	049H
	DB	04aH
	DB	029H
	DB	042H
	DB	028H
	DB	042H
	DB	049H
	DB	04aH
	DB	029H
	DB	042H
	DB	028H
	DB	04aH
	DB	049H
	DB	04aH
	DB	029H
	DB	042H
	DB	028H
	DB	04aH
	DB	029H
	DB	042H
	DB	049H
	DB	042H
	DB	028H
	DB	04aH
	DB	029H
	DB	042H
	DB	028H
	DB	04aH
	DB	029H
	DB	04aH
	DB	028H
	DB	04aH
	DB	028H
	DB	042H
	DB	029H
	DB	04aH
	DB	029H
	DB	04aH
	DB	028H
	DB	042H
	DB	029H
	DB	04aH
	DB	029H
	DB	04aH
	DB	048H
	DB	042H
	DB	028H
	DB	042H
	DB	029H
	DB	04aH
	DB	029H
	DB	042H
	DB	049H
	DB	04aH
	DB	028H
	DB	042H
	DB	028H
	DB	04aH
	DB	029H
	DB	04aH
	DB	028H
	DB	042H
	DB	049H
	DB	04aH
	DB	029H
	DB	04aH
	DB	048H
	DB	04aH
	DB	028H
	DB	04aH
	DB	049H
	DB	04aH
	DB	028H
	DB	042H
	DB	048H
	DB	042H
	DB	029H
	DB	04aH
	DB	029H
	DB	042H
	DB	049H
	DB	042H
	DB	028H
	DB	04aH
	DB	028H
	DB	042H
	DB	029H
	DB	04aH
	DB	028H
	DB	04aH
	DB	049H
	DB	042H
	DB	049H
	DB	04aH
	DB	048H
	DB	04aH
	DB	049H
	DB	04aH
	DB	049H
	DB	042H
	DB	049H
	DB	04aH
	DB	049H
	DB	042H
	DB	028H
	DB	04aH
	DB	029H
	DB	042H
	DB	028H
	DB	04aH
	DB	028H
	DB	04aH
	DB	029H
	DB	042H
	DB	029H
	DB	04aH
	DB	048H
	DB	04aH
	DB	029H
	DB	042H
	DB	049H
	DB	04aH
	DB	048H
	DB	04aH
	DB	028H
	DB	042H
	DB	029H
	DB	04aH
	DB	048H
	DB	04aH
	DB	049H
	DB	042H
	DB	029H
	DB	04aH
	DB	048H
	DB	04aH
	DB	049H
	DB	042H
	DB	029H
	DB	04aH
	DB	028H
	DB	042H
	DB	049H
	DB	04aH
	DB	029H
	DB	042H
	DB	048H
	DB	04aH
	DB	049H
	DB	04aH
	DB	049H
	DB	042H
	DB	028H
	DB	04aH
	DB	049H
	DB	04aH
	DB	049H
	DB	042H
	DB	028H
	DB	04aH
	DB	049H
	DB	04aH
	DB	028H
	DB	042H
	DB	029H
	DB	04aH
	DB	048H
	DB	04aH
	DB	028H
	DB	04aH
	DB	049H
	DB	04aH
	DB	029H
	DB	04aH
	DB	028H
	DB	04aH
	DB	049H
	DB	042H
	DB	048H
	DB	04aH
	DB	029H
	DB	04aH
	DB	048H
	DB	04aH
	DB	028H
	DB	04aH
	DB	049H
	DB	04aH
	DB	029H
	DB	04aH
	DB	048H
	DB	04aH
	DB	029H
	DB	04aH
	DB	048H
	DB	04aH
	DB	048H
	DB	042H
	DB	029H
	DB	04aH
	DB	029H
	DB	04aH
	DB	048H
	DB	04aH
	DB	029H
	DB	042H
	DB	049H
	DB	04aH
	DB	048H
	DB	04aH
	DB	029H
	DB	042H
	DB	029H
	DB	04aH
	DB	049H
	DB	04aH
	DB	049H
	DB	042H
	DB	049H
	DB	04aH
	DB	048H
	DB	04aH
	DB	029H
	DB	04aH
	DB	048H
	DB	04aH
	DB	048H
	DB	04aH
	DB	029H
	DB	04aH
	DB	048H
	DB	042H
	DB	029H
	DB	042H
	DB	049H
	DB	04aH
	DB	028H
	DB	042H
	DB	049H
	DB	04aH
	DB	028H
	DB	042H
	DB	049H
	DB	04aH
	DB	029H
	DB	04aH
	DB	028H
	DB	042H
	DB	049H
	DB	04aH
	DB	029H
	DB	042H
	DB	049H
	DB	04aH
	DB	029H
	DB	042H
	DB	048H
	DB	04aH
	DB	049H
	DB	042H
	DB	049H
	DB	042H
	DB	029H
	DB	04aH
	DB	049H
	DB	04aH
	DB	048H
	DB	04aH
	DB	029H
	DB	04aH
	DB	049H
	DB	04aH
	DB	048H
	DB	04aH
	DB	029H
	DB	04aH
	DB	049H
	DB	04aH
	DB	049H
	DB	04aH
	DB	049H
	DB	042H
	DB	049H
	DB	04aH
	DB	049H
	DB	04aH
	DB	049H
	DB	04aH
	DB	049H
	DB	04aH
	DB	049H
	DB	04aH
	DB	049H
	DB	04aH
	DB	049H
	DB	042H
	DB	049H
	DB	04aH
	DB	049H
	DB	04aH
	DB	029H
	DB	042H
	DB	049H
	DB	04aH
	DB	048H
	DB	04aH
	DB	049H
	DB	042H
	DB	029H
	DB	04aH
	DB	048H
	DB	04aH
	DB	029H
	DB	04aH
	DB	049H
	DB	042H
	DB	028H
	DB	04aH
	DB	029H
	DB	04aH
	DB	048H
	DB	042H
	DB	029H
	DB	04aH
	DB	049H
	DB	04aH
	DB	048H
	DB	04aH
	DB	049H
	DB	04aH
	DB	049H
	DB	04aH
	DB	048H
	DB	04aH
	DB	049H
	DB	04aH
	DB	028H
	DB	04aH
	DB	048H
	DB	04aH
	DB	049H
	DB	04aH
	DB	029H
	DB	042H
	DB	048H
	DB	04aH
	DB	049H
	DB	042H
	DB	028H
	DB	04aH
	DB	049H
	DB	042H
	DB	049H
	DB	04aH
	DB	028H
	DB	042H
	DB	049H
	DB	04aH
	DB	049H
	DB	042H
	DB	028H
	DB	04aH
	DB	049H
	DB	042H
	DB	029H
	DB	042H
	DB	028H
	DB	04aH
	DB	049H
	DB	04aH
	DB	048H
	DB	04aH
	DB	029H
	DB	04aH
	DB	049H
	DB	04aH
	DB	049H
	DB	04aH
	DB	049H
	DB	04aH
	DB	029H
	DB	04aH
	DB	049H
	DB	04aH
	DB	048H
	DB	042H
	DB	029H
	DB	04aH
	DB	049H
	DB	04aH
	DB	029H
	DB	04aH
	DB	029H
	DB	04aH
	DB	049H
	DB	042H
	DB	029H
	DB	04aH
	DB	049H
	DB	04aH
	DB	049H
	DB	042H
	DB	049H
	DB	04aH
	DB	049H
	DB	04aH
	DB	049H
	DB	04aH
	DB	049H
	DB	04aH
	DB	049H
	DB	042H
	DB	049H
	DB	04aH
	DB	049H
	DB	04aH
	DB	049H
	DB	04aH
	DB	049H
	DB	042H
	DB	049H
	DB	04aH
	DB	028H
	DB	04aH
	DB	029H
	DB	04aH
	DB	048H
	DB	042H
	DB	028H
	DB	042H
	DB	029H
	DB	04aH
	DB	028H
	DB	042H
	DB	028H
	DB	042H
	DB	028H
	DB	042H
	DB	029H
	DB	04aH
	DB	08H
	DB	042H
	DB	028H
	DB	04aH
	DB	029H
	DB	042H
	DB	028H
	DB	042H
	DB	08H
	DB	042H
	DB	029H
	DB	04aH
	DB	028H
	DB	042H
	DB	08H
	DB	042H
	DB	028H
	DB	042H
	DB	029H
	DB	04aH
	DB	08H
	DB	042H
	DB	028H
	DB	042H
	DB	029H
	DB	042H
	DB	08H
	DB	042H
	DB	028H
	DB	04aH
	DB	029H
	DB	042H
	DB	028H
	DB	042H
	DB	029H
	DB	04aH
	DB	028H
	DB	042H
	DB	028H
	DB	042H
	DB	09H
	DB	04aH
	DB	028H
	DB	04aH
	DB	028H
	DB	042H
	DB	09H
	DB	042H
	DB	028H
	DB	04aH
	DB	029H
	DB	04aH
	DB	08H
	DB	042H
	DB	028H
	DB	042H
	DB	028H
	DB	042H
	DB	028H
	DB	042H
	DB	028H
	DB	04aH
	DB	08H
	DB	042H
	DB	029H
	DB	042H
	DB	028H
	DB	04aH
	DB	08H
	DB	04aH
	DB	029H
	DB	042H
	DB	028H
	DB	042H
	DB	08H
	DB	042H
	DB	029H
	DB	042H
	DB	028H
	DB	04aH
	DB	028H
	DB	042H
	DB	029H
	DB	042H
	DB	08H
	DB	04aH
	DB	029H
	DB	04aH
	DB	028H
	DB	042H
	DB	08H
	DB	042H
	DB	029H
	DB	042H
	DB	028H
	DB	042H
	DB	08H
	DB	04aH
	DB	029H
	DB	042H
	DB	028H
	DB	042H
	DB	09H
	DB	04aH
	DB	028H
	DB	04aH
	DB	028H
	DB	042H
	DB	029H
	DB	042H
	DB	08H
	DB	042H
	DB	028H
	DB	042H
	DB	08H
	DB	04aH
	DB	08H
	DB	042H
	DB	028H
	DB	042H
	DB	09H
	DB	04aH
	DB	028H
	DB	04aH
	DB	028H
	DB	042H
	DB	028H
	DB	042H
	DB	08H
	DB	042H
	DB	029H
	DB	042H
	DB	08H
	DB	042H
	DB	08H
	DB	042H
	DB	028H
	DB	042H
	DB	029H
	DB	04aH
	DB	08H
	DB	042H
	DB	028H
	DB	04aH
	DB	029H
	DB	042H
	DB	028H
	DB	042H
	DB	028H
	DB	04aH
	DB	086H
	DB	031H
	DB	049H
	DB	042H
	DB	028H
	DB	042H
	DB	028H
	DB	042H
	DB	08H
	DB	042H
	DB	028H
	DB	04aH
	DB	09H
	DB	042H
	DB	028H
	DB	042H
	DB	08H
	DB	042H
	DB	029H
	DB	04aH
	DB	028H
	DB	042H
	DB	028H
	DB	042H
	DB	028H
	DB	042H
	DB	029H
	DB	04aH
	DB	08H
	DB	042H
	DB	028H
	DB	042H
	DB	08H
	DB	04aH
	DB	028H
	DB	042H
	DB	028H
	DB	042H
	DB	028H
	DB	04aH
	DB	028H
	DB	04aH
	DB	029H
	DB	042H
	DB	028H
	DB	042H
	DB	028H
	DB	042H
	DB	09H
	DB	04aH
	DB	08H
	DB	042H
	DB	028H
	DB	042H
	DB	028H
	DB	042H
	DB	08H
	DB	042H
	DB	028H
	DB	042H
	DB	028H
	DB	042H
	DB	08H
	DB	042H
	DB	029H
	DB	042H
	DB	08H
	DB	04aH
	DB	08H
	DB	042H
	DB	028H
	DB	042H
	DB	028H
	DB	04aH
	DB	028H
	DB	042H
	DB	08H
	DB	042H
	DB	08H
	DB	04aH
	DB	08H
	DB	042H
	DB	09H
	DB	042H
	DB	08H
	DB	04aH
	DB	08H
	DB	04aH
	DB	028H
	DB	042H
	DB	028H
	DB	04aH
	DB	08H
	DB	042H
	DB	08H
	DB	04aH
	DB	028H
	DB	04aH
	DB	08H
	DB	042H
	DB	09H
	DB	04aH
	DB	028H
	DB	042H
	DB	028H
	DB	042H
	DB	08H
	DB	04aH
	DB	028H
	DB	042H
	DB	08H
	DB	042H
	DB	08H
	DB	04aH
	DB	028H
	DB	042H
	DB	08H
	DB	042H
	DB	029H
	DB	042H
	DB	08H
	DB	04aH
	DB	028H
	DB	042H
	DB	08H
	DB	042H
	DB	08H
	DB	042H
	DB	028H
	DB	04aH
	DB	028H
	DB	042H
	DB	08H
	DB	042H
	DB	028H
	DB	04aH
	DB	09H
	DB	042H
	DB	028H
	DB	042H
	DB	028H
	DB	04aH
	DB	08H
	DB	042H
	DB	08H
	DB	042H
	DB	028H
	DB	042H
	DB	028H
	DB	042H
	DB	08H
	DB	042H
	DB	028H
	DB	042H
	DB	08H
	DB	042H
	DB	028H
	DB	042H
	DB	08H
	DB	04aH
	DB	028H
	DB	042H
	DB	028H
	DB	042H
	DB	029H
	DB	042H
	DB	028H
	DB	042H
	DB	029H
	DB	04aH
	DB	028H
	DB	042H
	DB	028H
	DB	04aH
	DB	029H
	DB	042H
	DB	028H
	DB	04aH
	DB	028H
	DB	042H
	DB	029H
	DB	042H
	DB	028H
	DB	042H
	DB	028H
	DB	04aH
	DB	028H
	DB	042H
	DB	028H
	DB	04aH
	DB	029H
	DB	042H
	DB	028H
	DB	042H
	DB	028H
	DB	042H
	DB	028H
	DB	042H
	DB	029H
	DB	042H
	DB	028H
	DB	042H
	DB	028H
	DB	042H
	DB	029H
	DB	04aH
	DB	028H
	DB	042H
	DB	028H
	DB	042H
	DB	029H
	DB	042H
	DB	028H
	DB	04aH
	DB	029H
	DB	042H
	DB	028H
	DB	042H
	DB	028H
	DB	042H
	DB	029H
	DB	04aH
	DB	028H
	DB	042H
	DB	028H
	DB	042H
	DB	029H
	DB	042H
	DB	028H
	DB	04aH
	DB	029H
	DB	042H
	DB	028H
	DB	042H
	DB	028H
	DB	042H
	DB	029H
	DB	04aH
	DB	028H
	DB	04aH
	DB	029H
	DB	042H
	DB	028H
	DB	042H
	DB	028H
	DB	042H
	DB	028H
	DB	042H
	DB	028H
	DB	04aH
	DB	028H
	DB	042H
	DB	029H
	DB	042H
	DB	028H
	DB	04aH
	DB	028H
	DB	042H
	DB	029H
	DB	04aH
	DB	029H
	DB	04aH
	DB	028H
	DB	042H
	DB	029H
	DB	04aH
	DB	028H
	DB	04aH
	DB	028H
	DB	042H
	DB	029H
	DB	04aH
	DB	028H
	DB	042H
	DB	028H
	DB	042H
	DB	029H
	DB	042H
	DB	028H
	DB	042H
	DB	028H
	DB	04aH
	DB	029H
	DB	042H
	DB	028H
	DB	042H
	DB	028H
	DB	04aH
	DB	028H
	DB	042H
	DB	029H
	DB	042H
	DB	028H
	DB	04aH
	DB	028H
	DB	042H
	DB	028H
	DB	042H
	DB	028H
	DB	04aH
	DB	029H
	DB	042H
	DB	029H
	DB	04aH
	DB	028H
	DB	042H
	DB	028H
	DB	042H
	DB	029H
	DB	04aH
	DB	028H
	DB	042H
	DB	028H
	DB	042H
	DB	029H
	DB	04aH
	DB	028H
	DB	042H
	DB	048H
	DB	042H
	DB	029H
	DB	04aH
	DB	028H
	DB	042H
	DB	029H
	DB	042H
	DB	028H
	DB	042H
	DB	028H
	DB	04aH
	DB	029H
	DB	042H
	DB	028H
	DB	04aH
	DB	029H
	DB	042H
	DB	028H
	DB	042H
	DB	028H
	DB	04aH
	DB	048H
	DB	042H
	DB	028H
	DB	042H
	DB	028H
	DB	04aH
	DB	028H
	DB	042H
	DB	028H
	DB	042H
	DB	029H
	DB	04aH
	DB	028H
	DB	042H
	DB	029H
	DB	04aH
	DB	028H
	DB	04aH
	DB	028H
	DB	04aH
	DB	029H
	DB	04aH
	DB	028H
	DB	042H
	DB	049H
	DB	04aH
	DB	029H
	DB	04aH
	DB	029H
	DB	042H
	DB	029H
	DB	04aH
	DB	029H
	DB	042H
	DB	029H
	DB	042H
	DB	028H
	DB	04aH
	DB	029H
	DB	042H
	DB	028H
	DB	042H
	DB	028H
	DB	04aH
	DB	028H
	DB	042H
	DB	028H
	DB	042H
	DB	028H
	DB	04aH
	DB	028H
	DB	042H
	DB	049H
	DB	04aH
	DB	028H
	DB	042H
	DB	028H
	DB	042H
	DB	049H
	DB	04aH
	DB	029H
	DB	042H
	DB	028H
	DB	042H
	DB	049H
	DB	04aH
	DB	029H
	DB	042H
	DB	028H
	DB	042H
	DB	049H
	DB	04aH
	DB	028H
	DB	042H
	DB	029H
	DB	04aH
	DB	048H
	DB	04aH
	DB	028H
	DB	042H
	DB	029H
	DB	04aH
	DB	048H
	DB	04aH
	DB	029H
	DB	042H
	DB	029H
	DB	04aH
	DB	048H
	DB	04aH
	DB	029H
	DB	04aH
	DB	028H
	DB	042H
	DB	048H
	DB	04aH
	DB	029H
	DB	042H
	DB	028H
	DB	042H
	DB	048H
	DB	04aH
	DB	028H
	DB	04aH
	DB	029H
	DB	042H
	DB	048H
	DB	04aH
	DB	028H
	DB	04aH
	DB	029H
	DB	042H
	DB	048H
	DB	042H
	DB	029H
	DB	042H
	DB	048H
	DB	04aH
	DB	029H
	DB	04aH
	DB	048H
	DB	042H
	DB	028H
	DB	04aH
	DB	048H
	DB	04aH
	DB	028H
	DB	042H
	DB	029H
	DB	04aH
	DB	028H
	DB	04aH
	DB	028H
	DB	042H
	DB	049H
	DB	04aH
	DB	028H
	DB	04aH
	DB	028H
	DB	04aH
	DB	029H
	DB	042H
	DB	049H
	DB	04aH
	DB	028H
	DB	042H
	DB	029H
	DB	04aH
	DB	048H
	DB	04aH
	DB	049H
	DB	042H
	DB	049H
	DB	042H
	DB	028H
	DB	04aH
	DB	029H
	DB	042H
	DB	029H
	DB	04aH
	DB	028H
	DB	04aH
	DB	029H
	DB	042H
	DB	049H
	DB	04aH
	DB	048H
	DB	04aH
	DB	049H
	DB	042H
	DB	049H
	DB	04aH
	DB	049H
	DB	042H
	DB	049H
	DB	04aH
	DB	048H
	DB	04aH
	DB	049H
	DB	042H
	DB	028H
	DB	04aH
	DB	029H
	DB	04aH
	DB	048H
	DB	042H
	DB	028H
	DB	04aH
	DB	029H
	DB	04aH
	DB	048H
	DB	042H
	DB	049H
	DB	04aH
	DB	049H
	DB	04aH
	DB	049H
	DB	042H
	DB	048H
	DB	04aH
	DB	029H
	DB	042H
	DB	049H
	DB	04aH
	DB	028H
	DB	04aH
	DB	049H
	DB	042H
	DB	049H
	DB	04aH
	DB	029H
	DB	04aH
	DB	049H
	DB	042H
	DB	028H
	DB	04aH
	DB	028H
	DB	042H
	DB	049H
	DB	04aH
	DB	029H
	DB	04aH
	DB	028H
	DB	042H
	DB	049H
	DB	04aH
	DB	049H
	DB	04aH
	DB	028H
	DB	04aH
	DB	049H
	DB	042H
	DB	028H
	DB	04aH
	DB	028H
	DB	04aH
	DB	029H
	DB	042H
	DB	049H
	DB	04aH
	DB	028H
	DB	04aH
	DB	049H
	DB	04aH
	DB	029H
	DB	04aH
	DB	048H
	DB	04aH
	DB	049H
	DB	04aH
	DB	029H
	DB	04aH
	DB	048H
	DB	042H
	DB	029H
	DB	04aH
	DB	029H
	DB	04aH
	DB	048H
	DB	042H
	DB	049H
	DB	04aH
	DB	029H
	DB	04aH
	DB	048H
	DB	04aH
	DB	029H
	DB	042H
	DB	049H
	DB	04aH
	DB	049H
	DB	04aH
	DB	029H
	DB	042H
	DB	028H
	DB	04aH
	DB	049H
	DB	04aH
	DB	049H
	DB	042H
	DB	049H
	DB	04aH
	DB	049H
	DB	04aH
	DB	049H
	DB	04aH
	DB	049H
	DB	04aH
	DB	049H
	DB	04aH
	DB	049H
	DB	04aH
	DB	049H
	DB	042H
	DB	048H
	DB	04aH
	DB	049H
	DB	04aH
	DB	049H
	DB	04aH
	DB	049H
	DB	042H
	DB	048H
	DB	04aH
	DB	049H
	DB	04aH
	DB	029H
	DB	042H
	DB	049H
	DB	04aH
	DB	049H
	DB	04aH
	DB	029H
	DB	042H
	DB	049H
	DB	04aH
	DB	049H
	DB	04aH
	DB	049H
	DB	04aH
	DB	048H
	DB	04aH
	DB	049H
	DB	04aH
	DB	049H
	DB	04aH
	DB	028H
	DB	042H
	DB	049H
	DB	04aH
	DB	049H
	DB	04aH
	DB	049H
	DB	042H
	DB	049H
	DB	04aH
	DB	048H
	DB	04aH
	DB	049H
	DB	04aH
	DB	029H
	DB	042H
	DB	048H
	DB	04aH
	DB	049H
	DB	04aH
	DB	049H
	DB	04aH
	DB	048H
	DB	04aH
	DB	049H
	DB	04aH
	DB	049H
	DB	042H
	DB	049H
	DB	04aH
	DB	029H
	DB	04aH
	DB	049H
	DB	042H
	DB	049H
	DB	04aH
	DB	049H
	DB	04aH
	DB	028H
	DB	042H
	DB	049H
	DB	04aH
	DB	028H
	DB	04aH
	DB	048H
	DB	042H
	DB	029H
	DB	042H
	DB	048H
	DB	04aH
	DB	029H
	DB	042H
	DB	048H
	DB	04aH
	DB	028H
	DB	04aH
	DB	029H
	DB	042H
	DB	048H
	DB	04aH
	DB	049H
	DB	04aH
	DB	049H
	DB	04aH
	DB	028H
	DB	04aH
	DB	049H
	DB	04aH
	DB	049H
	DB	04aH
	DB	048H
	DB	04aH
	DB	048H
	DB	04aH
	DB	049H
	DB	04aH
	DB	049H
	DB	04aH
	DB	048H
	DB	04aH
	DB	049H
	DB	04aH
	DB	049H
	DB	04aH
	DB	048H
	DB	042H
	DB	029H
	DB	04aH
	DB	049H
	DB	04aH
	DB	048H
	DB	042H
	DB	049H
	DB	04aH
	DB	049H
	DB	04aH
	DB	049H
	DB	042H
	DB	049H
	DB	04aH
	DB	048H
	DB	04aH
	DB	049H
	DB	042H
	DB	049H
	DB	04aH
	DB	048H
	DB	04aH
	DB	049H
	DB	04aH
	DB	049H
	DB	04aH
	DB	048H
	DB	04aH
	DB	029H
	DB	04aH
	DB	048H
	DB	04aH
	DB	049H
	DB	04aH
	DB	048H
	DB	042H
	DB	049H
	DB	04aH
	DB	049H
	DB	04aH
	DB	048H
	DB	042H
	DB	049H
	DB	04aH
	DB	049H
	DB	042H
	DB	028H
	DB	04aH
	DB	048H
	DB	042H
	DB	049H
	DB	04aH
	DB	028H
	DB	042H
	DB	049H
	DB	04aH
	DB	049H
	DB	04aH
	DB	028H
	DB	042H
	DB	049H
	DB	04aH
	DB	049H
	DB	04aH
	DB	048H
	DB	042H
	DB	049H
	DB	04aH
	DB	049H
	DB	04aH
	DB	048H
	DB	042H
	DB	049H
	DB	04aH
	DB	029H
	DB	04aH
	DB	048H
	DB	042H
	DB	049H
	DB	04aH
	DB	029H
	DB	04aH
	DB	048H
	DB	042H
	DB	048H
	DB	042H
	DB	029H
	DB	04aH
	DB	049H
	DB	04aH
	DB	048H
	DB	042H
	DB	049H
	DB	04aH
	DB	049H
	DB	04aH
	DB	049H
	DB	042H
	DB	028H
	DB	04aH
	DB	049H
	DB	04aH
	DB	049H
	DB	042H
	DB	028H
	DB	04aH
	DB	029H
	DB	04aH
	DB	028H
	DB	042H
	DB	028H
	DB	042H
	DB	08H
	DB	042H
	DB	028H
	DB	042H
	DB	029H
	DB	042H
	DB	08H
	DB	042H
	DB	028H
	DB	04aH
	DB	029H
	DB	042H
	DB	028H
	DB	042H
	DB	08H
	DB	042H
	DB	029H
	DB	042H
	DB	028H
	DB	042H
	DB	028H
	DB	04aH
	DB	028H
	DB	042H
	DB	08H
	DB	042H
	DB	029H
	DB	04aH
	DB	028H
	DB	042H
	DB	08H
	DB	042H
	DB	028H
	DB	042H
	DB	08H
	DB	042H
	DB	08H
	DB	042H
	DB	028H
	DB	042H
	DB	029H
	DB	042H
	DB	08H
	DB	042H
	DB	028H
	DB	042H
	DB	028H
	DB	042H
	DB	028H
	DB	04aH
	DB	028H
	DB	042H
	DB	028H
	DB	042H
	DB	08H
	DB	042H
	DB	029H
	DB	04aH
	DB	028H
	DB	042H
	DB	09H
	DB	042H
	DB	028H
	DB	04aH
	DB	028H
	DB	042H
	DB	029H
	DB	042H
	DB	028H
	DB	04aH
	DB	028H
	DB	042H
	DB	029H
	DB	042H
	DB	028H
	DB	04aH
	DB	08H
	DB	042H
	DB	028H
	DB	042H
	DB	028H
	DB	04aH
	DB	09H
	DB	042H
	DB	028H
	DB	042H
	DB	028H
	DB	04aH
	DB	029H
	DB	042H
	DB	028H
	DB	042H
	DB	028H
	DB	04aH
	DB	028H
	DB	042H
	DB	028H
	DB	042H
	DB	028H
	DB	04aH
	DB	09H
	DB	042H
	DB	028H
	DB	042H
	DB	028H
	DB	04aH
	DB	029H
	DB	042H
	DB	028H
	DB	042H
	DB	028H
	DB	04aH
	DB	029H
	DB	042H
	DB	028H
	DB	042H
	DB	028H
	DB	04aH
	DB	029H
	DB	042H
	DB	028H
	DB	042H
	DB	028H
	DB	04aH
	DB	029H
	DB	042H
	DB	08H
	DB	042H
	DB	028H
	DB	04aH
	DB	029H
	DB	042H
	DB	028H
	DB	042H
	DB	028H
	DB	04aH
	DB	029H
	DB	04aH
	DB	028H
	DB	042H
	DB	028H
	DB	042H
	DB	08H
	DB	042H
	DB	029H
	DB	042H
	DB	028H
	DB	042H
	DB	028H
	DB	04aH
	DB	08H
	DB	042H
	DB	029H
	DB	04aH
	DB	086H
	DB	031H
	DB	028H
	DB	042H
	DB	028H
	DB	042H
	DB	028H
	DB	042H
	DB	028H
	DB	042H
	DB	028H
	DB	042H
	DB	028H
	DB	04aH
	DB	08H
	DB	042H
	DB	028H
	DB	042H
	DB	028H
	DB	042H
	DB	08H
	DB	04aH
	DB	028H
	DB	042H
	DB	028H
	DB	042H
	DB	028H
	DB	04aH
	DB	028H
	DB	042H
	DB	029H
	DB	042H
	DB	028H
	DB	042H
	DB	08H
	DB	042H
	DB	029H
	DB	042H
	DB	08H
	DB	042H
	DB	028H
	DB	042H
	DB	08H
	DB	04aH
	DB	028H
	DB	042H
	DB	08H
	DB	042H
	DB	08H
	DB	042H
	DB	028H
	DB	04aH
	DB	028H
	DB	042H
	DB	029H
	DB	042H
	DB	028H
	DB	04aH
	DB	028H
	DB	04aH
	DB	08H
	DB	042H
	DB	08H
	DB	042H
	DB	028H
	DB	04aH
	DB	028H
	DB	042H
	DB	09H
	DB	042H
	DB	08H
	DB	042H
	DB	028H
	DB	042H
	DB	029H
	DB	042H
	DB	08H
	DB	042H
	DB	028H
	DB	042H
	DB	028H
	DB	042H
	DB	028H
	DB	042H
	DB	028H
	DB	042H
	DB	029H
	DB	042H
	DB	028H
	DB	042H
	DB	08H
	DB	042H
	DB	029H
	DB	042H
	DB	028H
	DB	042H
	DB	08H
	DB	042H
	DB	028H
	DB	042H
	DB	08H
	DB	04aH
	DB	028H
	DB	042H
	DB	029H
	DB	042H
	DB	08H
	DB	04aH
	DB	028H
	DB	042H
	DB	029H
	DB	042H
	DB	08H
	DB	042H
	DB	028H
	DB	042H
	DB	08H
	DB	042H
	DB	028H
	DB	042H
	DB	028H
	DB	04aH
	DB	09H
	DB	042H
	DB	028H
	DB	042H
	DB	08H
	DB	042H
	DB	09H
	DB	042H
	DB	028H
	DB	04aH
	DB	08H
	DB	042H
	DB	028H
	DB	042H
	DB	08H
	DB	042H
	DB	028H
	DB	042H
	DB	029H
	DB	042H
	DB	08H
	DB	042H
	DB	08H
	DB	042H
	DB	028H
	DB	042H
	DB	08H
	DB	04aH
	DB	028H
	DB	042H
	DB	08H
	DB	04aH
	DB	029H
	DB	042H
	DB	028H
	DB	042H
	DB	08H
	DB	042H
	DB	08H
	DB	042H
	DB	028H
	DB	042H
	DB	028H
	DB	042H
	DB	028H
	DB	042H
	DB	029H
	DB	042H
	DB	028H
	DB	042H
	DB	028H
	DB	042H
	DB	028H
	DB	04aH
	DB	028H
	DB	042H
	DB	028H
	DB	042H
	DB	028H
	DB	04aH
	DB	028H
	DB	042H
	DB	029H
	DB	042H
	DB	028H
	DB	042H
	DB	028H
	DB	042H
	DB	028H
	DB	04aH
	DB	029H
	DB	042H
	DB	028H
	DB	042H
	DB	028H
	DB	04aH
	DB	028H
	DB	042H
	DB	029H
	DB	042H
	DB	028H
	DB	042H
	DB	028H
	DB	042H
	DB	028H
	DB	042H
	DB	028H
	DB	042H
	DB	028H
	DB	04aH
	DB	029H
	DB	042H
	DB	028H
	DB	042H
	DB	028H
	DB	042H
	DB	029H
	DB	04aH
	DB	028H
	DB	042H
	DB	028H
	DB	042H
	DB	028H
	DB	042H
	DB	028H
	DB	042H
	DB	028H
	DB	042H
	DB	029H
	DB	042H
	DB	028H
	DB	042H
	DB	028H
	DB	04aH
	DB	028H
	DB	042H
	DB	028H
	DB	042H
	DB	028H
	DB	04aH
	DB	029H
	DB	04aH
	DB	028H
	DB	042H
	DB	028H
	DB	04aH
	DB	029H
	DB	042H
	DB	028H
	DB	042H
	DB	028H
	DB	04aH
	DB	028H
	DB	042H
	DB	028H
	DB	042H
	DB	028H
	DB	042H
	DB	028H
	DB	042H
	DB	028H
	DB	042H
	DB	029H
	DB	042H
	DB	028H
	DB	042H
	DB	028H
	DB	04aH
	DB	029H
	DB	042H
	DB	028H
	DB	042H
	DB	028H
	DB	042H
	DB	028H
	DB	04aH
	DB	029H
	DB	042H
	DB	028H
	DB	042H
	DB	028H
	DB	04aH
	DB	028H
	DB	042H
	DB	029H
	DB	042H
	DB	029H
	DB	04aH
	DB	028H
	DB	042H
	DB	028H
	DB	04aH
	DB	029H
	DB	042H
	DB	029H
	DB	04aH
	DB	028H
	DB	042H
	DB	028H
	DB	042H
	DB	029H
	DB	04aH
	DB	028H
	DB	042H
	DB	029H
	DB	04aH
	DB	028H
	DB	042H
	DB	028H
	DB	042H
	DB	049H
	DB	04aH
	DB	029H
	DB	042H
	DB	028H
	DB	042H
	DB	029H
	DB	04aH
	DB	048H
	DB	04aH
	DB	028H
	DB	042H
	DB	029H
	DB	04aH
	DB	028H
	DB	04aH
	DB	048H
	DB	042H
	DB	028H
	DB	042H
	DB	029H
	DB	04aH
	DB	048H
	DB	042H
	DB	029H
	DB	042H
	DB	029H
	DB	04aH
	DB	028H
	DB	042H
	DB	049H
	DB	04aH
	DB	029H
	DB	042H
	DB	048H
	DB	04aH
	DB	028H
	DB	042H
	DB	048H
	DB	042H
	DB	029H
	DB	042H
	DB	029H
	DB	04aH
	DB	049H
	DB	042H
	DB	029H
	DB	042H
	DB	028H
	DB	04aH
	DB	049H
	DB	042H
	DB	028H
	DB	042H
	DB	028H
	DB	04aH
	DB	048H
	DB	04aH
	DB	028H
	DB	042H
	DB	028H
	DB	04aH
	DB	049H
	DB	04aH
	DB	028H
	DB	04aH
	DB	029H
	DB	042H
	DB	049H
	DB	04aH
	DB	048H
	DB	04aH
	DB	029H
	DB	042H
	DB	049H
	DB	04aH
	DB	028H
	DB	042H
	DB	029H
	DB	04aH
	DB	048H
	DB	042H
	DB	029H
	DB	04aH
	DB	028H
	DB	04aH
	DB	048H
	DB	042H
	DB	029H
	DB	04aH
	DB	028H
	DB	04aH
	DB	048H
	DB	042H
	DB	029H
	DB	04aH
	DB	029H
	DB	04aH
	DB	048H
	DB	042H
	DB	029H
	DB	042H
	DB	028H
	DB	04aH
	DB	049H
	DB	042H
	DB	029H
	DB	042H
	DB	028H
	DB	04aH
	DB	028H
	DB	042H
	DB	029H
	DB	042H
	DB	028H
	DB	042H
	DB	028H
	DB	04aH
	DB	029H
	DB	042H
	DB	029H
	DB	04aH
	DB	028H
	DB	042H
	DB	029H
	DB	04aH
	DB	029H
	DB	042H
	DB	028H
	DB	042H
	DB	029H
	DB	04aH
	DB	029H
	DB	042H
	DB	028H
	DB	04aH
	DB	029H
	DB	04aH
	DB	029H
	DB	04aH
	DB	028H
	DB	04aH
	DB	048H
	DB	04aH
	DB	029H
	DB	042H
	DB	029H
	DB	04aH
	DB	029H
	DB	04aH
	DB	049H
	DB	042H
	DB	029H
	DB	04aH
	DB	028H
	DB	042H
	DB	049H
	DB	04aH
	DB	029H
	DB	04aH
	DB	028H
	DB	042H
	DB	049H
	DB	04aH
	DB	049H
	DB	04aH
	DB	048H
	DB	042H
	DB	028H
	DB	04aH
	DB	029H
	DB	04aH
	DB	029H
	DB	042H
	DB	028H
	DB	04aH
	DB	049H
	DB	04aH
	DB	028H
	DB	042H
	DB	029H
	DB	04aH
	DB	049H
	DB	04aH
	DB	048H
	DB	042H
	DB	028H
	DB	04aH
	DB	029H
	DB	04aH
	DB	049H
	DB	042H
	DB	048H
	DB	04aH
	DB	029H
	DB	04aH
	DB	028H
	DB	04aH
	DB	029H
	DB	04aH
	DB	029H
	DB	042H
	DB	048H
	DB	04aH
	DB	029H
	DB	04aH
	DB	029H
	DB	042H
	DB	049H
	DB	04aH
	DB	029H
	DB	042H
	DB	029H
	DB	042H
	DB	048H
	DB	04aH
	DB	029H
	DB	04aH
	DB	029H
	DB	042H
	DB	028H
	DB	04aH
	DB	029H
	DB	04aH
	DB	049H
	DB	042H
	DB	028H
	DB	04aH
	DB	049H
	DB	04aH
	DB	049H
	DB	042H
	DB	028H
	DB	04aH
	DB	028H
	DB	04aH
	DB	029H
	DB	042H
	DB	048H
	DB	04aH
	DB	049H
	DB	04aH
	DB	029H
	DB	042H
	DB	049H
	DB	04aH
	DB	048H
	DB	042H
	DB	029H
	DB	04aH
	DB	029H
	DB	042H
	DB	048H
	DB	042H
	DB	029H
	DB	04aH
	DB	049H
	DB	042H
	DB	029H
	DB	04aH
	DB	049H
	DB	04aH
	DB	049H
	DB	04aH
	DB	028H
	DB	04aH
	DB	029H
	DB	04aH
	DB	049H
	DB	042H
	DB	028H
	DB	04aH
	DB	029H
	DB	042H
	DB	049H
	DB	042H
	DB	028H
	DB	04aH
	DB	049H
	DB	04aH
	DB	049H
	DB	04aH
	DB	029H
	DB	04aH
	DB	048H
	DB	042H
	DB	029H
	DB	04aH
	DB	048H
	DB	04aH
	DB	029H
	DB	042H
	DB	029H
	DB	04aH
	DB	048H
	DB	04aH
	DB	049H
	DB	042H
	DB	029H
	DB	04aH
	DB	049H
	DB	04aH
	DB	049H
	DB	042H
	DB	048H
	DB	04aH
	DB	049H
	DB	04aH
	DB	029H
	DB	042H
	DB	049H
	DB	04aH
	DB	049H
	DB	04aH
	DB	048H
	DB	042H
	DB	049H
	DB	04aH
	DB	029H
	DB	04aH
	DB	048H
	DB	04aH
	DB	049H
	DB	042H
	DB	029H
	DB	04aH
	DB	049H
	DB	04aH
	DB	048H
	DB	04aH
	DB	049H
	DB	04aH
	DB	029H
	DB	04aH
	DB	048H
	DB	04aH
	DB	049H
	DB	04aH
	DB	049H
	DB	042H
	DB	048H
	DB	04aH
	DB	029H
	DB	04aH
	DB	049H
	DB	042H
	DB	049H
	DB	04aH
	DB	029H
	DB	04aH
	DB	049H
	DB	04aH
	DB	049H
	DB	04aH
	DB	049H
	DB	04aH
	DB	049H
	DB	04aH
	DB	048H
	DB	04aH
	DB	029H
	DB	04aH
	DB	049H
	DB	04aH
	DB	048H
	DB	04aH
	DB	049H
	DB	04aH
	DB	049H
	DB	04aH
	DB	049H
	DB	04aH
	DB	029H
	DB	04aH
	DB	049H
	DB	042H
	DB	028H
	DB	04aH
	DB	049H
	DB	04aH
	DB	049H
	DB	042H
	DB	028H
	DB	04aH
	DB	048H
	DB	04aH
	DB	049H
	DB	042H
	DB	049H
	DB	04aH
	DB	048H
	DB	04aH
	DB	049H
	DB	042H
	DB	049H
	DB	04aH
	DB	049H
	DB	04aH
	DB	029H
	DB	04aH
	DB	049H
	DB	04aH
	DB	049H
	DB	04aH
	DB	049H
	DB	042H
	DB	049H
	DB	04aH
	DB	049H
	DB	04aH
	DB	049H
	DB	04aH
	DB	048H
	DB	04aH
	DB	029H
	DB	042H
	DB	049H
	DB	04aH
	DB	048H
	DB	042H
	DB	029H
	DB	04aH
	DB	049H
	DB	04aH
	DB	048H
	DB	042H
	DB	029H
	DB	042H
	DB	049H
	DB	04aH
	DB	048H
	DB	04aH
	DB	029H
	DB	042H
	DB	049H
	DB	04aH
	DB	048H
	DB	04aH
	DB	049H
	DB	042H
	DB	048H
	DB	04aH
	DB	029H
	DB	04aH
	DB	048H
	DB	042H
	DB	028H
	DB	04aH
	DB	029H
	DB	04aH
	DB	048H
	DB	042H
	DB	049H
	DB	04aH
	DB	029H
	DB	04aH
	DB	028H
	DB	04aH
	DB	049H
	DB	04aH
	DB	029H
	DB	04aH
	DB	048H
	DB	042H
	DB	049H
	DB	04aH
	DB	029H
	DB	04aH
	DB	048H
	DB	042H
	DB	049H
	DB	04aH
	DB	049H
	DB	04aH
	DB	028H
	DB	04aH
	DB	049H
	DB	04aH
	DB	048H
	DB	04aH
	DB	028H
	DB	04aH
	DB	049H
	DB	04aH
	DB	049H
	DB	04aH
	DB	049H
	DB	04aH
	DB	049H
	DB	04aH
	DB	049H
	DB	042H
	DB	028H
	DB	04aH
	DB	049H
	DB	04aH
	DB	049H
	DB	042H
	DB	049H
	DB	04aH
	DB	029H
	DB	04aH
	DB	049H
	DB	04aH
	DB	048H
	DB	04aH
	DB	029H
	DB	042H
	DB	049H
	DB	04aH
	DB	048H
	DB	04aH
	DB	049H
	DB	042H
	DB	029H
	DB	04aH
	DB	048H
	DB	04aH
	DB	049H
	DB	04aH
	DB	029H
	DB	04aH
	DB	049H
	DB	042H
	DB	049H
	DB	04aH
	DB	049H
	DB	04aH
	DB	028H
	DB	042H
	DB	049H
	DB	042H
	DB	029H
	DB	04aH
	DB	048H
	DB	04aH
	DB	049H
	DB	042H
	DB	049H
	DB	04aH
	DB	048H
	DB	04aH
	DB	029H
	DB	04aH
	DB	028H
	DB	04aH
	DB	029H
	DB	04aH
	DB	028H
	DB	042H
	DB	028H
	DB	042H
	DB	029H
	DB	04aH
	DB	028H
	DB	042H
	DB	028H
	DB	042H
	DB	028H
	DB	042H
	DB	08H
	DB	042H
	DB	028H
	DB	04aH
	DB	028H
	DB	042H
	DB	028H
	DB	042H
	DB	028H
	DB	04aH
	DB	09H
	DB	042H
	DB	028H
	DB	042H
	DB	028H
	DB	042H
	DB	029H
	DB	042H
	DB	028H
	DB	04aH
	DB	028H
	DB	042H
	DB	028H
	DB	042H
	DB	028H
	DB	04aH
	DB	028H
	DB	042H
	DB	028H
	DB	04aH
	DB	028H
	DB	042H
	DB	08H
	DB	04aH
	DB	028H
	DB	042H
	DB	028H
	DB	042H
	DB	08H
	DB	042H
	DB	028H
	DB	042H
	DB	029H
	DB	042H
	DB	08H
	DB	042H
	DB	028H
	DB	042H
	DB	028H
	DB	042H
	DB	028H
	DB	04aH
	DB	029H
	DB	042H
	DB	08H
	DB	042H
	DB	028H
	DB	042H
	DB	08H
	DB	042H
	DB	028H
	DB	042H
	DB	08H
	DB	042H
	DB	028H
	DB	042H
	DB	028H
	DB	042H
	DB	029H
	DB	04aH
	DB	028H
	DB	042H
	DB	028H
	DB	042H
	DB	08H
	DB	042H
	DB	028H
	DB	042H
	DB	028H
	DB	042H
	DB	08H
	DB	042H
	DB	028H
	DB	042H
	DB	09H
	DB	042H
	DB	028H
	DB	04aH
	DB	028H
	DB	042H
	DB	09H
	DB	042H
	DB	028H
	DB	042H
	DB	028H
	DB	042H
	DB	08H
	DB	042H
	DB	028H
	DB	042H
	DB	08H
	DB	042H
	DB	08H
	DB	042H
	DB	028H
	DB	04aH
	DB	028H
	DB	042H
	DB	08H
	DB	042H
	DB	029H
	DB	042H
	DB	028H
	DB	042H
	DB	028H
	DB	042H
	DB	028H
	DB	042H
	DB	028H
	DB	042H
	DB	09H
	DB	042H
	DB	028H
	DB	04aH
	DB	028H
	DB	042H
	DB	08H
	DB	042H
	DB	028H
	DB	042H
	DB	029H
	DB	04aH
	DB	028H
	DB	042H
	DB	028H
	DB	042H
	DB	028H
	DB	04aH
	DB	028H
	DB	042H
	DB	028H
	DB	042H
	DB	028H
	DB	042H
	DB	029H
	DB	04aH
	DB	066H
	DB	031H
	DB	028H
	DB	04aH
	DB	028H
	DB	042H
	DB	028H
	DB	04aH
	DB	09H
	DB	042H
	DB	028H
	DB	042H
	DB	028H
	DB	042H
	DB	028H
	DB	04aH
	DB	028H
	DB	042H
	DB	028H
	DB	042H
	DB	09H
	DB	042H
	DB	028H
	DB	042H
	DB	08H
	DB	042H
	DB	08H
	DB	042H
	DB	028H
	DB	04aH
	DB	028H
	DB	042H
	DB	028H
	DB	042H
	DB	028H
	DB	04aH
	DB	08H
	DB	042H
	DB	028H
	DB	042H
	DB	028H
	DB	042H
	DB	028H
	DB	042H
	DB	028H
	DB	04aH
	DB	08H
	DB	042H
	DB	028H
	DB	042H
	DB	08H
	DB	042H
	DB	08H
	DB	04aH
	DB	028H
	DB	042H
	DB	028H
	DB	042H
	DB	08H
	DB	042H
	DB	09H
	DB	042H
	DB	028H
	DB	04aH
	DB	028H
	DB	042H
	DB	028H
	DB	042H
	DB	08H
	DB	04aH
	DB	028H
	DB	042H
	DB	028H
	DB	04aH
	DB	028H
	DB	042H
	DB	08H
	DB	04aH
	DB	028H
	DB	042H
	DB	08H
	DB	04aH
	DB	08H
	DB	042H
	DB	028H
	DB	042H
	DB	028H
	DB	042H
	DB	028H
	DB	042H
	DB	08H
	DB	04aH
	DB	08H
	DB	042H
	DB	028H
	DB	042H
	DB	08H
	DB	042H
	DB	028H
	DB	042H
	DB	08H
	DB	042H
	DB	028H
	DB	042H
	DB	028H
	DB	042H
	DB	08H
	DB	042H
	DB	08H
	DB	04aH
	DB	028H
	DB	042H
	DB	028H
	DB	04aH
	DB	08H
	DB	042H
	DB	028H
	DB	04aH
	DB	028H
	DB	042H
	DB	08H
	DB	042H
	DB	028H
	DB	042H
	DB	028H
	DB	04aH
	DB	08H
	DB	042H
	DB	028H
	DB	042H
	DB	08H
	DB	042H
	DB	028H
	DB	04aH
	DB	08H
	DB	042H
	DB	08H
	DB	042H
	DB	08H
	DB	042H
	DB	028H
	DB	042H
	DB	028H
	DB	042H
	DB	08H
	DB	042H
	DB	029H
	DB	042H
	DB	08H
	DB	042H
	DB	08H
	DB	042H
	DB	028H
	DB	042H
	DB	08H
	DB	04aH
	DB	028H
	DB	042H
	DB	08H
	DB	042H
	DB	028H
	DB	042H
	DB	028H
	DB	042H
	DB	028H
	DB	04aH
	DB	028H
	DB	042H
	DB	028H
	DB	042H
	DB	029H
	DB	04aH
	DB	028H
	DB	042H
	DB	028H
	DB	042H
	DB	029H
	DB	042H
	DB	029H
	DB	042H
	DB	028H
	DB	04aH
	DB	028H
	DB	042H
	DB	029H
	DB	042H
	DB	028H
	DB	04aH
	DB	028H
	DB	042H
	DB	028H
	DB	042H
	DB	028H
	DB	04aH
	DB	029H
	DB	042H
	DB	028H
	DB	042H
	DB	028H
	DB	04aH
	DB	028H
	DB	042H
	DB	029H
	DB	04aH
	DB	028H
	DB	042H
	DB	028H
	DB	042H
	DB	029H
	DB	04aH
	DB	028H
	DB	042H
	DB	028H
	DB	04aH
	DB	028H
	DB	04aH
	DB	028H
	DB	042H
	DB	028H
	DB	04aH
	DB	028H
	DB	042H
	DB	029H
	DB	04aH
	DB	028H
	DB	04aH
	DB	028H
	DB	04aH
	DB	028H
	DB	042H
	DB	028H
	DB	04aH
	DB	029H
	DB	04aH
	DB	028H
	DB	042H
	DB	028H
	DB	042H
	DB	029H
	DB	042H
	DB	028H
	DB	04aH
	DB	028H
	DB	042H
	DB	029H
	DB	042H
	DB	028H
	DB	04aH
	DB	028H
	DB	042H
	DB	029H
	DB	04aH
	DB	028H
	DB	042H
	DB	028H
	DB	042H
	DB	029H
	DB	04aH
	DB	028H
	DB	04aH
	DB	028H
	DB	042H
	DB	028H
	DB	04aH
	DB	028H
	DB	042H
	DB	028H
	DB	042H
	DB	028H
	DB	04aH
	DB	028H
	DB	042H
	DB	028H
	DB	04aH
	DB	028H
	DB	04aH
	DB	029H
	DB	042H
	DB	028H
	DB	042H
	DB	029H
	DB	04aH
	DB	028H
	DB	042H
	DB	028H
	DB	042H
	DB	029H
	DB	04aH
	DB	028H
	DB	042H
	DB	028H
	DB	042H
	DB	029H
	DB	042H
	DB	028H
	DB	04aH
	DB	028H
	DB	042H
	DB	029H
	DB	042H
	DB	028H
	DB	04aH
	DB	028H
	DB	042H
	DB	049H
	DB	042H
	DB	028H
	DB	04aH
	DB	028H
	DB	042H
	DB	049H
	DB	04aH
	DB	028H
	DB	04aH
	DB	028H
	DB	042H
	DB	048H
	DB	042H
	DB	029H
	DB	04aH
	DB	028H
	DB	042H
	DB	048H
	DB	042H
	DB	029H
	DB	042H
	DB	029H
	DB	04aH
	DB	028H
	DB	042H
	DB	029H
	DB	04aH
	DB	028H
	DB	04aH
	DB	028H
	DB	04aH
	DB	029H
	DB	04aH
	DB	028H
	DB	042H
	DB	028H
	DB	042H
	DB	029H
	DB	042H
	DB	028H
	DB	04aH
	DB	029H
	DB	042H
	DB	049H
	DB	04aH
	DB	028H
	DB	042H
	DB	028H
	DB	04aH
	DB	028H
	DB	04aH
	DB	028H
	DB	042H
	DB	028H
	DB	042H
	DB	028H
	DB	04aH
	DB	028H
	DB	04aH
	DB	029H
	DB	042H
	DB	028H
	DB	042H
	DB	048H
	DB	04aH
	DB	029H
	DB	042H
	DB	028H
	DB	042H
	DB	048H
	DB	04aH
	DB	029H
	DB	042H
	DB	028H
	DB	04aH
	DB	028H
	DB	042H
	DB	029H
	DB	042H
	DB	029H
	DB	04aH
	DB	048H
	DB	04aH
	DB	028H
	DB	042H
	DB	029H
	DB	042H
	DB	029H
	DB	04aH
	DB	028H
	DB	042H
	DB	029H
	DB	04aH
	DB	029H
	DB	042H
	DB	028H
	DB	042H
	DB	029H
	DB	04aH
	DB	028H
	DB	042H
	DB	028H
	DB	042H
	DB	029H
	DB	04aH
	DB	028H
	DB	04aH
	DB	029H
	DB	042H
	DB	028H
	DB	04aH
	DB	028H
	DB	042H
	DB	049H
	DB	04aH
	DB	029H
	DB	04aH
	DB	028H
	DB	042H
	DB	049H
	DB	04aH
	DB	029H
	DB	04aH
	DB	048H
	DB	042H
	DB	029H
	DB	042H
	DB	048H
	DB	04aH
	DB	028H
	DB	04aH
	DB	049H
	DB	04aH
	DB	028H
	DB	04aH
	DB	049H
	DB	04aH
	DB	028H
	DB	042H
	DB	048H
	DB	04aH
	DB	029H
	DB	042H
	DB	048H
	DB	042H
	DB	029H
	DB	04aH
	DB	029H
	DB	04aH
	DB	028H
	DB	042H
	DB	028H
	DB	04aH
	DB	028H
	DB	042H
	DB	028H
	DB	04aH
	DB	029H
	DB	04aH
	DB	028H
	DB	042H
	DB	029H
	DB	04aH
	DB	048H
	DB	042H
	DB	029H
	DB	04aH
	DB	049H
	DB	04aH
	DB	029H
	DB	042H
	DB	049H
	DB	04aH
	DB	029H
	DB	042H
	DB	049H
	DB	04aH
	DB	048H
	DB	04aH
	DB	048H
	DB	042H
	DB	049H
	DB	04aH
	DB	028H
	DB	04aH
	DB	049H
	DB	042H
	DB	029H
	DB	04aH
	DB	048H
	DB	04aH
	DB	049H
	DB	042H
	DB	029H
	DB	04aH
	DB	049H
	DB	042H
	DB	048H
	DB	04aH
	DB	029H
	DB	042H
	DB	029H
	DB	042H
	DB	048H
	DB	04aH
	DB	029H
	DB	042H
	DB	048H
	DB	04aH
	DB	029H
	DB	042H
	DB	028H
	DB	04aH
	DB	048H
	DB	04aH
	DB	049H
	DB	042H
	DB	048H
	DB	04aH
	DB	029H
	DB	04aH
	DB	049H
	DB	04aH
	DB	048H
	DB	042H
	DB	049H
	DB	04aH
	DB	028H
	DB	04aH
	DB	049H
	DB	042H
	DB	028H
	DB	04aH
	DB	029H
	DB	04aH
	DB	048H
	DB	042H
	DB	029H
	DB	04aH
	DB	049H
	DB	04aH
	DB	049H
	DB	042H
	DB	028H
	DB	04aH
	DB	029H
	DB	042H
	DB	048H
	DB	04aH
	DB	029H
	DB	04aH
	DB	049H
	DB	04aH
	DB	048H
	DB	04aH
	DB	029H
	DB	04aH
	DB	048H
	DB	04aH
	DB	049H
	DB	04aH
	DB	028H
	DB	04aH
	DB	028H
	DB	04aH
	DB	049H
	DB	04aH
	DB	028H
	DB	042H
	DB	049H
	DB	04aH
	DB	049H
	DB	04aH
	DB	028H
	DB	042H
	DB	049H
	DB	04aH
	DB	048H
	DB	04aH
	DB	029H
	DB	04aH
	DB	048H
	DB	04aH
	DB	029H
	DB	042H
	DB	028H
	DB	04aH
	DB	049H
	DB	04aH
	DB	028H
	DB	042H
	DB	049H
	DB	04aH
	DB	049H
	DB	04aH
	DB	049H
	DB	04aH
	DB	049H
	DB	042H
	DB	049H
	DB	04aH
	DB	048H
	DB	04aH
	DB	049H
	DB	04aH
	DB	048H
	DB	04aH
	DB	049H
	DB	04aH
	DB	049H
	DB	042H
	DB	048H
	DB	04aH
	DB	029H
	DB	04aH
	DB	048H
	DB	04aH
	DB	049H
	DB	042H
	DB	028H
	DB	04aH
	DB	049H
	DB	04aH
	DB	049H
	DB	042H
	DB	028H
	DB	04aH
	DB	049H
	DB	04aH
	DB	049H
	DB	04aH
	DB	029H
	DB	042H
	DB	048H
	DB	04aH
	DB	049H
	DB	04aH
	DB	029H
	DB	042H
	DB	049H
	DB	042H
	DB	048H
	DB	04aH
	DB	029H
	DB	04aH
	DB	049H
	DB	04aH
	DB	048H
	DB	04aH
	DB	049H
	DB	04aH
	DB	028H
	DB	042H
	DB	048H
	DB	04aH
	DB	049H
	DB	042H
	DB	028H
	DB	042H
	DB	049H
	DB	04aH
	DB	049H
	DB	04aH
	DB	028H
	DB	042H
	DB	049H
	DB	042H
	DB	049H
	DB	04aH
	DB	029H
	DB	04aH
	DB	049H
	DB	042H
	DB	028H
	DB	042H
	DB	049H
	DB	04aH
	DB	049H
	DB	04aH
	DB	048H
	DB	042H
	DB	029H
	DB	04aH
	DB	049H
	DB	04aH
	DB	049H
	DB	04aH
	DB	029H
	DB	04aH
	DB	049H
	DB	04aH
	DB	049H
	DB	04aH
	DB	029H
	DB	04aH
	DB	048H
	DB	04aH
	DB	029H
	DB	04aH
	DB	049H
	DB	04aH
	DB	049H
	DB	04aH
	DB	049H
	DB	04aH
	DB	048H
	DB	042H
	DB	049H
	DB	04aH
	DB	029H
	DB	04aH
	DB	048H
	DB	04aH
	DB	049H
	DB	04aH
	DB	029H
	DB	04aH
	DB	049H
	DB	04aH
	DB	049H
	DB	04aH
	DB	049H
	DB	04aH
	DB	049H
	DB	04aH
	DB	048H
	DB	04aH
	DB	049H
	DB	04aH
	DB	029H
	DB	04aH
	DB	048H
	DB	04aH
	DB	049H
	DB	04aH
	DB	029H
	DB	04aH
	DB	049H
	DB	04aH
	DB	049H
	DB	04aH
	DB	029H
	DB	042H
	DB	049H
	DB	04aH
	DB	048H
	DB	04aH
	DB	029H
	DB	04aH
	DB	049H
	DB	04aH
	DB	049H
	DB	04aH
	DB	049H
	DB	04aH
	DB	048H
	DB	04aH
	DB	049H
	DB	04aH
	DB	028H
	DB	042H
	DB	049H
	DB	04aH
	DB	048H
	DB	042H
	DB	049H
	DB	04aH
	DB	049H
	DB	04aH
	DB	028H
	DB	042H
	DB	048H
	DB	04aH
	DB	049H
	DB	04aH
	DB	049H
	DB	042H
	DB	048H
	DB	04aH
	DB	029H
	DB	04aH
	DB	049H
	DB	042H
	DB	049H
	DB	04aH
	DB	029H
	DB	04aH
	DB	049H
	DB	042H
	DB	049H
	DB	04aH
	DB	028H
	DB	04aH
	DB	049H
	DB	042H
	DB	049H
	DB	04aH
	DB	029H
	DB	04aH
	DB	049H
	DB	04aH
	DB	048H
	DB	04aH
	DB	049H
	DB	04aH
	DB	049H
	DB	04aH
	DB	048H
	DB	042H
	DB	029H
	DB	04aH
	DB	049H
	DB	04aH
	DB	049H
	DB	04aH
	DB	029H
	DB	04aH
	DB	049H
	DB	04aH
	DB	049H
	DB	04aH
	DB	049H
	DB	042H
	DB	049H
	DB	04aH
	DB	048H
	DB	04aH
	DB	049H
	DB	042H
	DB	029H
	DB	04aH
	DB	049H
	DB	04aH
	DB	048H
	DB	04aH
	DB	049H
	DB	04aH
	DB	049H
	DB	04aH
	DB	048H
	DB	04aH
	DB	028H
	DB	04aH
	DB	049H
	DB	04aH
	DB	049H
	DB	042H
	DB	049H
	DB	04aH
	DB	028H
	DB	04aH
	DB	028H
	DB	042H
	DB	029H
	DB	042H
	DB	028H
	DB	042H
	DB	028H
	DB	042H
	DB	08H
	DB	04aH
	DB	028H
	DB	042H
	DB	028H
	DB	04aH
	DB	029H
	DB	042H
	DB	028H
	DB	042H
	DB	09H
	DB	04aH
	DB	029H
	DB	042H
	DB	028H
	DB	042H
	DB	08H
	DB	04aH
	DB	028H
	DB	042H
	DB	029H
	DB	042H
	DB	08H
	DB	04aH
	DB	028H
	DB	042H
	DB	08H
	DB	042H
	DB	029H
	DB	042H
	DB	028H
	DB	04aH
	DB	08H
	DB	042H
	DB	029H
	DB	042H
	DB	028H
	DB	042H
	DB	028H
	DB	04aH
	DB	028H
	DB	042H
	DB	028H
	DB	04aH
	DB	029H
	DB	042H
	DB	08H
	DB	04aH
	DB	028H
	DB	042H
	DB	029H
	DB	04aH
	DB	028H
	DB	04aH
	DB	028H
	DB	042H
	DB	09H
	DB	042H
	DB	028H
	DB	042H
	DB	028H
	DB	04aH
	DB	029H
	DB	042H
	DB	028H
	DB	04aH
	DB	028H
	DB	042H
	DB	09H
	DB	042H
	DB	028H
	DB	04aH
	DB	028H
	DB	042H
	DB	09H
	DB	042H
	DB	028H
	DB	042H
	DB	028H
	DB	04aH
	DB	09H
	DB	042H
	DB	028H
	DB	04aH
	DB	029H
	DB	042H
	DB	08H
	DB	042H
	DB	028H
	DB	04aH
	DB	029H
	DB	042H
	DB	08H
	DB	042H
	DB	028H
	DB	042H
	DB	029H
	DB	04aH
	DB	028H
	DB	042H
	DB	028H
	DB	04aH
	DB	028H
	DB	042H
	DB	029H
	DB	042H
	DB	028H
	DB	04aH
	DB	029H
	DB	042H
	DB	028H
	DB	042H
	DB	029H
	DB	042H
	DB	08H
	DB	04aH
	DB	028H
	DB	042H
	DB	028H
	DB	04aH
	DB	09H
	DB	042H
	DB	08H
	DB	042H
	DB	028H
	DB	04aH
	DB	028H
	DB	042H
	DB	028H
	DB	042H
	DB	08H
	DB	042H
	DB	029H
	DB	042H
	DB	028H
	DB	042H
	DB	08H
	DB	042H
	DB	028H
	DB	042H
	DB	09H
	DB	04aH
	DB	028H
	DB	042H
	DB	08H
	DB	042H
	DB	08H
	DB	042H
	DB	029H
	DB	042H
	DB	028H
	DB	042H
	DB	048H
	DB	04aH
	DB	086H
	DB	031H
	DB	029H
	DB	042H
	DB	028H
	DB	042H
	DB	028H
	DB	042H
	DB	08H
	DB	04aH
	DB	028H
	DB	042H
	DB	028H
	DB	042H
	DB	09H
	DB	042H
	DB	028H
	DB	04aH
	DB	028H
	DB	042H
	DB	028H
	DB	042H
	DB	028H
	DB	04aH
	DB	09H
	DB	042H
	DB	08H
	DB	042H
	DB	08H
	DB	042H
	DB	08H
	DB	04aH
	DB	028H
	DB	042H
	DB	028H
	DB	042H
	DB	028H
	DB	04aH
	DB	029H
	DB	04aH
	DB	08H
	DB	042H
	DB	028H
	DB	042H
	DB	029H
	DB	042H
	DB	028H
	DB	04aH
	DB	028H
	DB	042H
	DB	029H
	DB	042H
	DB	028H
	DB	042H
	DB	028H
	DB	042H
	DB	08H
	DB	042H
	DB	028H
	DB	042H
	DB	028H
	DB	042H
	DB	08H
	DB	042H
	DB	08H
	DB	042H
	DB	028H
	DB	042H
	DB	08H
	DB	042H
	DB	08H
	DB	04aH
	DB	028H
	DB	042H
	DB	028H
	DB	042H
	DB	028H
	DB	042H
	DB	029H
	DB	042H
	DB	028H
	DB	042H
	DB	028H
	DB	042H
	DB	029H
	DB	042H
	DB	08H
	DB	04aH
	DB	028H
	DB	042H
	DB	028H
	DB	042H
	DB	028H
	DB	042H
	DB	028H
	DB	042H
	DB	029H
	DB	04aH
	DB	028H
	DB	042H
	DB	028H
	DB	042H
	DB	029H
	DB	042H
	DB	08H
	DB	042H
	DB	028H
	DB	042H
	DB	08H
	DB	042H
	DB	08H
	DB	042H
	DB	028H
	DB	042H
	DB	09H
	DB	04aH
	DB	08H
	DB	042H
	DB	028H
	DB	042H
	DB	09H
	DB	042H
	DB	08H
	DB	04aH
	DB	028H
	DB	042H
	DB	028H
	DB	042H
	DB	028H
	DB	042H
	DB	08H
	DB	042H
	DB	029H
	DB	042H
	DB	028H
	DB	042H
	DB	08H
	DB	04aH
	DB	029H
	DB	042H
	DB	08H
	DB	04aH
	DB	08H
	DB	04aH
	DB	028H
	DB	042H
	DB	028H
	DB	04aH
	DB	08H
	DB	042H
	DB	029H
	DB	042H
	DB	028H
	DB	042H
	DB	08H
	DB	04aH
	DB	08H
	DB	042H
	DB	028H
	DB	04aH
	DB	08H
	DB	042H
	DB	028H
	DB	042H
	DB	029H
	DB	042H
	DB	028H
	DB	04aH
	DB	028H
	DB	042H
	DB	028H
	DB	042H
	DB	029H
	DB	04aH
	DB	028H
	DB	042H
	DB	028H
	DB	042H
	DB	028H
	DB	04aH
	DB	028H
	DB	042H
	DB	028H
	DB	042H
	DB	028H
	DB	042H
	DB	029H
	DB	04aH
	DB	028H
	DB	042H
	DB	028H
	DB	042H
	DB	029H
	DB	042H
	DB	028H
	DB	042H
	DB	028H
	DB	042H
	DB	028H
	DB	04aH
	DB	028H
	DB	042H
	DB	029H
	DB	04aH
	DB	028H
	DB	04aH
	DB	028H
	DB	042H
	DB	029H
	DB	04aH
	DB	028H
	DB	042H
	DB	028H
	DB	042H
	DB	029H
	DB	042H
	DB	028H
	DB	04aH
	DB	028H
	DB	042H
	DB	029H
	DB	042H
	DB	028H
	DB	042H
	DB	028H
	DB	04aH
	DB	029H
	DB	042H
	DB	028H
	DB	042H
	DB	028H
	DB	04aH
	DB	028H
	DB	042H
	DB	029H
	DB	042H
	DB	028H
	DB	04aH
	DB	028H
	DB	04aH
	DB	028H
	DB	042H
	DB	028H
	DB	042H
	DB	028H
	DB	04aH
	DB	028H
	DB	042H
	DB	029H
	DB	042H
	DB	028H
	DB	04aH
	DB	029H
	DB	042H
	DB	029H
	DB	042H
	DB	028H
	DB	04aH
	DB	028H
	DB	042H
	DB	029H
	DB	042H
	DB	029H
	DB	04aH
	DB	028H
	DB	04aH
	DB	029H
	DB	042H
	DB	028H
	DB	042H
	DB	029H
	DB	04aH
	DB	028H
	DB	042H
	DB	029H
	DB	042H
	DB	028H
	DB	04aH
	DB	028H
	DB	042H
	DB	029H
	DB	04aH
	DB	029H
	DB	042H
	DB	028H
	DB	04aH
	DB	028H
	DB	042H
	DB	028H
	DB	04aH
	DB	029H
	DB	042H
	DB	028H
	DB	04aH
	DB	028H
	DB	042H
	DB	028H
	DB	042H
	DB	049H
	DB	04aH
	DB	028H
	DB	042H
	DB	028H
	DB	042H
	DB	049H
	DB	04aH
	DB	028H
	DB	042H
	DB	028H
	DB	042H
	DB	029H
	DB	042H
	DB	028H
	DB	042H
	DB	028H
	DB	04aH
	DB	049H
	DB	042H
	DB	028H
	DB	042H
	DB	029H
	DB	04aH
	DB	028H
	DB	042H
	DB	048H
	DB	042H
	DB	028H
	DB	042H
	DB	029H
	DB	04aH
	DB	049H
	DB	042H
	DB	028H
	DB	042H
	DB	029H
	DB	042H
	DB	028H
	DB	04aH
	DB	048H
	DB	042H
	DB	049H
	DB	042H
	DB	028H
	DB	04aH
	DB	028H
	DB	042H
	DB	028H
	DB	042H
	DB	029H
	DB	04aH
	DB	028H
	DB	042H
	DB	048H
	DB	042H
	DB	029H
	DB	04aH
	DB	048H
	DB	04aH
	DB	028H
	DB	042H
	DB	049H
	DB	04aH
	DB	028H
	DB	04aH
	DB	029H
	DB	042H
	DB	048H
	DB	04aH
	DB	029H
	DB	04aH
	DB	029H
	DB	042H
	DB	029H
	DB	04aH
	DB	028H
	DB	042H
	DB	049H
	DB	042H
	DB	029H
	DB	04aH
	DB	028H
	DB	04aH
	DB	028H
	DB	042H
	DB	029H
	DB	04aH
	DB	028H
	DB	042H
	DB	048H
	DB	04aH
	DB	029H
	DB	04aH
	DB	028H
	DB	042H
	DB	048H
	DB	042H
	DB	049H
	DB	04aH
	DB	028H
	DB	04aH
	DB	049H
	DB	042H
	DB	029H
	DB	04aH
	DB	048H
	DB	04aH
	DB	049H
	DB	042H
	DB	028H
	DB	042H
	DB	049H
	DB	04aH
	DB	029H
	DB	042H
	DB	028H
	DB	04aH
	DB	048H
	DB	04aH
	DB	029H
	DB	042H
	DB	028H
	DB	042H
	DB	048H
	DB	04aH
	DB	029H
	DB	042H
	DB	028H
	DB	04aH
	DB	029H
	DB	042H
	DB	028H
	DB	04aH
	DB	029H
	DB	042H
	DB	049H
	DB	04aH
	DB	028H
	DB	042H
	DB	028H
	DB	04aH
	DB	029H
	DB	04aH
	DB	049H
	DB	04aH
	DB	028H
	DB	04aH
	DB	029H
	DB	04aH
	DB	028H
	DB	042H
	DB	048H
	DB	04aH
	DB	029H
	DB	042H
	DB	029H
	DB	04aH
	DB	049H
	DB	04aH
	DB	049H
	DB	042H
	DB	049H
	DB	04aH
	DB	048H
	DB	04aH
	DB	049H
	DB	042H
	DB	049H
	DB	04aH
	DB	028H
	DB	04aH
	DB	048H
	DB	042H
	DB	049H
	DB	04aH
	DB	028H
	DB	04aH
	DB	028H
	DB	042H
	DB	049H
	DB	04aH
	DB	029H
	DB	04aH
	DB	028H
	DB	042H
	DB	048H
	DB	04aH
	DB	029H
	DB	042H
	DB	048H
	DB	04aH
	DB	029H
	DB	04aH
	DB	049H
	DB	042H
	DB	028H
	DB	04aH
	DB	029H
	DB	04aH
	DB	049H
	DB	042H
	DB	028H
	DB	04aH
	DB	028H
	DB	04aH
	DB	049H
	DB	04aH
	DB	049H
	DB	04aH
	DB	028H
	DB	042H
	DB	049H
	DB	04aH
	DB	049H
	DB	04aH
	DB	029H
	DB	042H
	DB	049H
	DB	04aH
	DB	028H
	DB	04aH
	DB	029H
	DB	042H
	DB	048H
	DB	04aH
	DB	029H
	DB	04aH
	DB	029H
	DB	042H
	DB	048H
	DB	04aH
	DB	029H
	DB	042H
	DB	049H
	DB	04aH
	DB	048H
	DB	042H
	DB	029H
	DB	04aH
	DB	049H
	DB	042H
	DB	028H
	DB	04aH
	DB	029H
	DB	04aH
	DB	049H
	DB	04aH
	DB	048H
	DB	042H
	DB	029H
	DB	04aH
	DB	049H
	DB	04aH
	DB	028H
	DB	04aH
	DB	029H
	DB	04aH
	DB	028H
	DB	042H
	DB	049H
	DB	04aH
	DB	029H
	DB	04aH
	DB	048H
	DB	04aH
	DB	029H
	DB	04aH
	DB	049H
	DB	042H
	DB	048H
	DB	04aH
	DB	029H
	DB	04aH
	DB	028H
	DB	042H
	DB	049H
	DB	04aH
	DB	029H
	DB	04aH
	DB	048H
	DB	04aH
	DB	029H
	DB	04aH
	DB	049H
	DB	04aH
	DB	048H
	DB	04aH
	DB	029H
	DB	04aH
	DB	049H
	DB	04aH
	DB	028H
	DB	042H
	DB	049H
	DB	04aH
	DB	029H
	DB	04aH
	DB	049H
	DB	04aH
	DB	049H
	DB	04aH
	DB	048H
	DB	042H
	DB	049H
	DB	04aH
	DB	049H
	DB	04aH
	DB	029H
	DB	04aH
	DB	049H
	DB	042H
	DB	049H
	DB	04aH
	DB	028H
	DB	04aH
	DB	049H
	DB	04aH
	DB	049H
	DB	04aH
	DB	049H
	DB	04aH
	DB	049H
	DB	04aH
	DB	049H
	DB	04aH
	DB	029H
	DB	04aH
	DB	049H
	DB	04aH
	DB	049H
	DB	042H
	DB	049H
	DB	04aH
	DB	049H
	DB	04aH
	DB	048H
	DB	04aH
	DB	049H
	DB	04aH
	DB	049H
	DB	042H
	DB	049H
	DB	04aH
	DB	029H
	DB	04aH
	DB	048H
	DB	04aH
	DB	049H
	DB	042H
	DB	049H
	DB	04aH
	DB	029H
	DB	04aH
	DB	049H
	DB	042H
	DB	049H
	DB	04aH
	DB	049H
	DB	04aH
	DB	049H
	DB	04aH
	DB	049H
	DB	04aH
	DB	029H
	DB	04aH
	DB	048H
	DB	04aH
	DB	049H
	DB	04aH
	DB	029H
	DB	04aH
	DB	049H
	DB	04aH
	DB	048H
	DB	04aH
	DB	049H
	DB	04aH
	DB	049H
	DB	04aH
	DB	029H
	DB	04aH
	DB	048H
	DB	04aH
	DB	049H
	DB	042H
	DB	049H
	DB	04aH
	DB	048H
	DB	04aH
	DB	049H
	DB	042H
	DB	048H
	DB	04aH
	DB	049H
	DB	042H
	DB	049H
	DB	04aH
	DB	048H
	DB	042H
	DB	049H
	DB	04aH
	DB	049H
	DB	042H
	DB	029H
	DB	042H
	DB	048H
	DB	04aH
	DB	029H
	DB	04aH
	DB	029H
	DB	042H
	DB	048H
	DB	04aH
	DB	049H
	DB	04aH
	DB	029H
	DB	04aH
	DB	048H
	DB	04aH
	DB	049H
	DB	04aH
	DB	028H
	DB	04aH
	DB	049H
	DB	042H
	DB	049H
	DB	04aH
	DB	028H
	DB	04aH
	DB	049H
	DB	04aH
	DB	049H
	DB	04aH
	DB	049H
	DB	04aH
	DB	049H
	DB	04aH
	DB	049H
	DB	04aH
	DB	049H
	DB	04aH
	DB	048H
	DB	04aH
	DB	049H
	DB	04aH
	DB	048H
	DB	04aH
	DB	029H
	DB	04aH
	DB	049H
	DB	04aH
	DB	048H
	DB	042H
	DB	049H
	DB	04aH
	DB	049H
	DB	04aH
	DB	049H
	DB	04aH
	DB	029H
	DB	04aH
	DB	049H
	DB	04aH
	DB	049H
	DB	04aH
	DB	049H
	DB	04aH
	DB	049H
	DB	04aH
	DB	049H
	DB	04aH
	DB	048H
	DB	042H
	DB	049H
	DB	04aH
	DB	029H
	DB	04aH
	DB	048H
	DB	04aH
	DB	049H
	DB	04aH
	DB	029H
	DB	04aH
	DB	048H
	DB	04aH
	DB	049H
	DB	042H
	DB	049H
	DB	04aH
	DB	048H
	DB	04aH
	DB	049H
	DB	04aH
	DB	049H
	DB	042H
	DB	049H
	DB	04aH
	DB	028H
	DB	04aH
	DB	049H
	DB	042H
	DB	048H
	DB	04aH
	DB	029H
	DB	04aH
	DB	049H
	DB	042H
	DB	049H
	DB	04aH
	DB	028H
	DB	04aH
	DB	049H
	DB	042H
	DB	049H
	DB	04aH
	DB	048H
	DB	04aH
	DB	049H
	DB	042H
	DB	049H
	DB	04aH
	DB	048H
	DB	042H
	DB	029H
	DB	04aH
	DB	048H
	DB	04aH
	DB	029H
	DB	042H
	DB	049H
	DB	04aH
	DB	049H
	DB	04aH
	DB	028H
	DB	04aH
	DB	049H
	DB	04aH
	DB	049H
	DB	042H
	DB	028H
	DB	04aH
	DB	049H
	DB	04aH
	DB	049H
	DB	04aH
	DB	049H
	DB	042H
	DB	049H
	DB	04aH
	DB	028H
	DB	04aH
	DB	049H
	DB	04aH
	DB	049H
	DB	042H
	DB	049H
	DB	04aH
	DB	028H
	DB	042H
	DB	028H
	DB	04aH
	DB	028H
	DB	042H
	DB	029H
	DB	042H
	DB	08H
	DB	042H
	DB	028H
	DB	042H
	DB	09H
	DB	042H
	DB	028H
	DB	04aH
	DB	028H
	DB	042H
	DB	028H
	DB	042H
	DB	08H
	DB	042H
	DB	029H
	DB	042H
	DB	028H
	DB	042H
	DB	028H
	DB	042H
	DB	028H
	DB	04aH
	DB	029H
	DB	042H
	DB	08H
	DB	042H
	DB	028H
	DB	042H
	DB	028H
	DB	04aH
	DB	09H
	DB	042H
	DB	028H
	DB	042H
	DB	028H
	DB	042H
	DB	08H
	DB	042H
	DB	08H
	DB	042H
	DB	028H
	DB	042H
	DB	028H
	DB	042H
	DB	028H
	DB	042H
	DB	028H
	DB	042H
	DB	08H
	DB	042H
	DB	028H
	DB	042H
	DB	028H
	DB	042H
	DB	08H
	DB	04aH
	DB	029H
	DB	042H
	DB	028H
	DB	042H
	DB	08H
	DB	042H
	DB	028H
	DB	042H
	DB	029H
	DB	042H
	DB	028H
	DB	04aH
	DB	028H
	DB	042H
	DB	029H
	DB	042H
	DB	028H
	DB	04aH
	DB	08H
	DB	042H
	DB	028H
	DB	042H
	DB	028H
	DB	042H
	DB	09H
	DB	042H
	DB	028H
	DB	042H
	DB	028H
	DB	04aH
	DB	029H
	DB	042H
	DB	028H
	DB	042H
	DB	028H
	DB	04aH
	DB	028H
	DB	042H
	DB	08H
	DB	042H
	DB	028H
	DB	042H
	DB	08H
	DB	042H
	DB	029H
	DB	042H
	DB	08H
	DB	04aH
	DB	028H
	DB	042H
	DB	028H
	DB	042H
	DB	08H
	DB	04aH
	DB	029H
	DB	042H
	DB	028H
	DB	042H
	DB	028H
	DB	042H
	DB	029H
	DB	042H
	DB	028H
	DB	042H
	DB	028H
	DB	04aH
	DB	029H
	DB	042H
	DB	08H
	DB	042H
	DB	029H
	DB	04aH
	DB	028H
	DB	042H
	DB	028H
	DB	042H
	DB	029H
	DB	04aH
	DB	028H
	DB	04aH
	DB	028H
	DB	042H
	DB	028H
	DB	042H
	DB	028H
	DB	042H
	DB	029H
	DB	04aH
	DB	028H
	DB	042H
	DB	028H
	DB	042H
	DB	028H
	DB	04aH
	DB	08H
	DB	042H
	DB	029H
	DB	04aH
	DB	085H
	DB	031H
	DB	028H
	DB	04aH
	DB	028H
	DB	042H
	DB	028H
	DB	042H
	DB	028H
	DB	042H
	DB	028H
	DB	04aH
	DB	08H
	DB	042H
	DB	028H
	DB	042H
	DB	028H
	DB	042H
	DB	08H
	DB	04aH
	DB	028H
	DB	042H
	DB	028H
	DB	042H
	DB	028H
	DB	04aH
	DB	028H
	DB	042H
	DB	028H
	DB	042H
	DB	029H
	DB	042H
	DB	028H
	DB	042H
	DB	08H
	DB	042H
	DB	028H
	DB	042H
	DB	028H
	DB	042H
	DB	08H
	DB	04aH
	DB	08H
	DB	042H
	DB	028H
	DB	042H
	DB	028H
	DB	042H
	DB	08H
	DB	04aH
	DB	028H
	DB	042H
	DB	028H
	DB	042H
	DB	028H
	DB	04aH
	DB	029H
	DB	042H
	DB	028H
	DB	042H
	DB	08H
	DB	04aH
	DB	08H
	DB	042H
	DB	029H
	DB	04aH
	DB	028H
	DB	042H
	DB	08H
	DB	042H
	DB	09H
	DB	042H
	DB	028H
	DB	042H
	DB	028H
	DB	042H
	DB	08H
	DB	042H
	DB	028H
	DB	042H
	DB	028H
	DB	042H
	DB	028H
	DB	042H
	DB	08H
	DB	042H
	DB	028H
	DB	042H
	DB	028H
	DB	042H
	DB	029H
	DB	042H
	DB	028H
	DB	042H
	DB	028H
	DB	042H
	DB	08H
	DB	042H
	DB	028H
	DB	042H
	DB	028H
	DB	042H
	DB	028H
	DB	04aH
	DB	08H
	DB	04aH
	DB	028H
	DB	042H
	DB	029H
	DB	042H
	DB	08H
	DB	04aH
	DB	028H
	DB	042H
	DB	08H
	DB	042H
	DB	028H
	DB	042H
	DB	028H
	DB	042H
	DB	08H
	DB	04aH
	DB	08H
	DB	042H
	DB	08H
	DB	042H
	DB	029H
	DB	04aH
	DB	08H
	DB	042H
	DB	08H
	DB	042H
	DB	028H
	DB	042H
	DB	08H
	DB	042H
	DB	028H
	DB	042H
	DB	028H
	DB	042H
	DB	08H
	DB	042H
	DB	028H
	DB	042H
	DB	08H
	DB	042H
	DB	08H
	DB	042H
	DB	028H
	DB	04aH
	DB	08H
	DB	042H
	DB	028H
	DB	042H
	DB	08H
	DB	042H
	DB	029H
	DB	042H
	DB	028H
	DB	042H
	DB	08H
	DB	042H
	DB	028H
	DB	042H
	DB	028H
	DB	042H
	DB	029H
	DB	042H
	DB	028H
	DB	042H
	DB	028H
	DB	042H
	DB	028H
	DB	042H
	DB	028H
	DB	042H
	DB	028H
	DB	042H
	DB	029H
	DB	04aH
	DB	028H
	DB	042H
	DB	028H
	DB	04aH
	DB	029H
	DB	042H
	DB	028H
	DB	042H
	DB	028H
	DB	04aH
	DB	029H
	DB	04aH
	DB	028H
	DB	042H
	DB	028H
	DB	04aH
	DB	029H
	DB	04aH
	DB	028H
	DB	042H
	DB	028H
	DB	042H
	DB	028H
	DB	042H
	DB	028H
	DB	042H
	DB	028H
	DB	042H
	DB	028H
	DB	04aH
	DB	028H
	DB	042H
	DB	028H
	DB	042H
	DB	029H
	DB	04aH
	DB	028H
	DB	042H
	DB	028H
	DB	042H
	DB	029H
	DB	04aH
	DB	028H
	DB	042H
	DB	028H
	DB	042H
	DB	029H
	DB	042H
	DB	029H
	DB	04aH
	DB	028H
	DB	042H
	DB	029H
	DB	042H
	DB	028H
	DB	04aH
	DB	029H
	DB	042H
	DB	029H
	DB	042H
	DB	028H
	DB	042H
	DB	029H
	DB	04aH
	DB	029H
	DB	042H
	DB	028H
	DB	042H
	DB	028H
	DB	04aH
	DB	028H
	DB	042H
	DB	028H
	DB	04aH
	DB	029H
	DB	042H
	DB	028H
	DB	042H
	DB	028H
	DB	04aH
	DB	029H
	DB	042H
	DB	028H
	DB	042H
	DB	028H
	DB	04aH
	DB	029H
	DB	042H
	DB	029H
	DB	042H
	DB	028H
	DB	04aH
	DB	029H
	DB	042H
	DB	028H
	DB	042H
	DB	028H
	DB	04aH
	DB	029H
	DB	042H
	DB	028H
	DB	042H
	DB	048H
	DB	04aH
	DB	029H
	DB	042H
	DB	028H
	DB	042H
	DB	049H
	DB	04aH
	DB	028H
	DB	042H
	DB	049H
	DB	042H
	DB	028H
	DB	04aH
	DB	029H
	DB	042H
	DB	048H
	DB	04aH
	DB	028H
	DB	042H
	DB	029H
	DB	04aH
	DB	028H
	DB	042H
	DB	028H
	DB	04aH
	DB	049H
	DB	042H
	DB	028H
	DB	042H
	DB	029H
	DB	04aH
	DB	049H
	DB	042H
	DB	028H
	DB	04aH
	DB	028H
	DB	042H
	DB	029H
	DB	04aH
	DB	028H
	DB	04aH
	DB	028H
	DB	042H
	DB	049H
	DB	04aH
	DB	028H
	DB	04aH
	DB	028H
	DB	042H
	DB	049H
	DB	04aH
	DB	029H
	DB	042H
	DB	028H
	DB	04aH
	DB	028H
	DB	04aH
	DB	029H
	DB	04aH
	DB	048H
	DB	04aH
	DB	028H
	DB	042H
	DB	049H
	DB	04aH
	DB	028H
	DB	04aH
	DB	028H
	DB	042H
	DB	029H
	DB	042H
	DB	049H
	DB	04aH
	DB	029H
	DB	042H
	DB	029H
	DB	042H
	DB	049H
	DB	04aH
	DB	028H
	DB	042H
	DB	029H
	DB	042H
	DB	029H
	DB	04aH
	DB	028H
	DB	042H
	DB	048H
	DB	04aH
	DB	029H
	DB	04aH
	DB	028H
	DB	042H
	DB	028H
	DB	04aH
	DB	049H
	DB	042H
	DB	049H
	DB	04aH
	DB	028H
	DB	042H
	DB	049H
	DB	042H
	DB	028H
	DB	04aH
	DB	028H
	DB	042H
	DB	049H
	DB	04aH
	DB	029H
	DB	04aH
	DB	028H
	DB	042H
	DB	029H
	DB	04aH
	DB	028H
	DB	04aH
	DB	028H
	DB	042H
	DB	029H
	DB	04aH
	DB	029H
	DB	04aH
	DB	028H
	DB	04aH
	DB	028H
	DB	04aH
	DB	049H
	DB	04aH
	DB	028H
	DB	042H
	DB	029H
	DB	04aH
	DB	049H
	DB	042H
	DB	028H
	DB	04aH
	DB	029H
	DB	04aH
	DB	029H
	DB	04aH
	DB	028H
	DB	04aH
	DB	048H
	DB	042H
	DB	029H
	DB	04aH
	DB	028H
	DB	04aH
	DB	028H
	DB	042H
	DB	029H
	DB	04aH
	DB	029H
	DB	042H
	DB	028H
	DB	042H
	DB	029H
	DB	04aH
	DB	028H
	DB	042H
	DB	029H
	DB	042H
	DB	029H
	DB	04aH
	DB	028H
	DB	04aH
	DB	048H
	DB	042H
	DB	049H
	DB	04aH
	DB	049H
	DB	04aH
	DB	028H
	DB	042H
	DB	049H
	DB	04aH
	DB	029H
	DB	042H
	DB	028H
	DB	04aH
	DB	049H
	DB	04aH
	DB	029H
	DB	042H
	DB	029H
	DB	04aH
	DB	049H
	DB	042H
	DB	028H
	DB	04aH
	DB	049H
	DB	04aH
	DB	049H
	DB	042H
	DB	028H
	DB	04aH
	DB	049H
	DB	042H
	DB	028H
	DB	04aH
	DB	029H
	DB	04aH
	DB	049H
	DB	042H
	DB	028H
	DB	04aH
	DB	049H
	DB	042H
	DB	028H
	DB	04aH
	DB	049H
	DB	042H
	DB	028H
	DB	04aH
	DB	049H
	DB	04aH
	DB	049H
	DB	042H
	DB	028H
	DB	042H
	DB	049H
	DB	04aH
	DB	029H
	DB	04aH
	DB	028H
	DB	042H
	DB	049H
	DB	04aH
	DB	028H
	DB	04aH
	DB	048H
	DB	042H
	DB	049H
	DB	04aH
	DB	029H
	DB	042H
	DB	049H
	DB	04aH
	DB	048H
	DB	04aH
	DB	029H
	DB	042H
	DB	048H
	DB	04aH
	DB	029H
	DB	04aH
	DB	029H
	DB	04aH
	DB	048H
	DB	04aH
	DB	029H
	DB	04aH
	DB	049H
	DB	04aH
	DB	048H
	DB	04aH
	DB	029H
	DB	04aH
	DB	048H
	DB	04aH
	DB	029H
	DB	042H
	DB	028H
	DB	04aH
	DB	049H
	DB	04aH
	DB	049H
	DB	04aH
	DB	048H
	DB	042H
	DB	029H
	DB	04aH
	DB	049H
	DB	04aH
	DB	028H
	DB	042H
	DB	049H
	DB	04aH
	DB	029H
	DB	042H
	DB	028H
	DB	04aH
	DB	049H
	DB	04aH
	DB	049H
	DB	04aH
	DB	029H
	DB	04aH
	DB	048H
	DB	04aH
	DB	029H
	DB	042H
	DB	048H
	DB	04aH
	DB	049H
	DB	042H
	DB	049H
	DB	042H
	DB	049H
	DB	04aH
	DB	049H
	DB	042H
	DB	049H
	DB	04aH
	DB	049H
	DB	04aH
	DB	028H
	DB	04aH
	DB	049H
	DB	042H
	DB	048H
	DB	042H
	DB	048H
	DB	04aH
	DB	029H
	DB	042H
	DB	048H
	DB	04aH
	DB	048H
	DB	042H
	DB	029H
	DB	04aH
	DB	048H
	DB	042H
	DB	048H
	DB	042H
	DB	029H
	DB	04aH
	DB	049H
	DB	04aH
	DB	049H
	DB	042H
	DB	029H
	DB	042H
	DB	048H
	DB	04aH
	DB	049H
	DB	042H
	DB	029H
	DB	04aH
	DB	048H
	DB	04aH
	DB	048H
	DB	042H
	DB	029H
	DB	04aH
	DB	049H
	DB	04aH
	DB	028H
	DB	042H
	DB	049H
	DB	04aH
	DB	029H
	DB	04aH
	DB	048H
	DB	04aH
	DB	049H
	DB	042H
	DB	049H
	DB	04aH
	DB	049H
	DB	04aH
	DB	049H
	DB	04aH
	DB	048H
	DB	042H
	DB	049H
	DB	04aH
	DB	029H
	DB	04aH
	DB	048H
	DB	042H
	DB	049H
	DB	04aH
	DB	029H
	DB	04aH
	DB	049H
	DB	04aH
	DB	049H
	DB	042H
	DB	049H
	DB	04aH
	DB	048H
	DB	042H
	DB	049H
	DB	04aH
	DB	029H
	DB	04aH
	DB	048H
	DB	042H
	DB	049H
	DB	04aH
	DB	049H
	DB	04aH
	DB	049H
	DB	04aH
	DB	029H
	DB	042H
	DB	049H
	DB	04aH
	DB	029H
	DB	04aH
	DB	049H
	DB	04aH
	DB	029H
	DB	04aH
	DB	048H
	DB	04aH
	DB	029H
	DB	04aH
	DB	049H
	DB	04aH
	DB	028H
	DB	04aH
	DB	049H
	DB	04aH
	DB	049H
	DB	04aH
	DB	048H
	DB	04aH
	DB	049H
	DB	04aH
	DB	049H
	DB	04aH
	DB	049H
	DB	04aH
	DB	049H
	DB	04aH
	DB	049H
	DB	04aH
	DB	049H
	DB	04aH
	DB	049H
	DB	04aH
	DB	049H
	DB	04aH
	DB	049H
	DB	04aH
	DB	048H
	DB	04aH
	DB	029H
	DB	04aH
	DB	049H
	DB	04aH
	DB	028H
	DB	042H
	DB	049H
	DB	04aH
	DB	028H
	DB	04aH
	DB	049H
	DB	042H
	DB	029H
	DB	04aH
	DB	028H
	DB	04aH
	DB	049H
	DB	042H
	DB	049H
	DB	04aH
	DB	029H
	DB	04aH
	DB	048H
	DB	042H
	DB	049H
	DB	04aH
	DB	029H
	DB	04aH
	DB	048H
	DB	042H
	DB	049H
	DB	04aH
	DB	028H
	DB	04aH
	DB	048H
	DB	042H
	DB	049H
	DB	04aH
	DB	029H
	DB	04aH
	DB	048H
	DB	04aH
	DB	029H
	DB	04aH
	DB	029H
	DB	04aH
	DB	048H
	DB	04aH
	DB	049H
	DB	04aH
	DB	049H
	DB	042H
	DB	048H
	DB	04aH
	DB	029H
	DB	042H
	DB	049H
	DB	04aH
	DB	048H
	DB	04aH
	DB	029H
	DB	04aH
	DB	049H
	DB	04aH
	DB	028H
	DB	04aH
	DB	049H
	DB	04aH
	DB	049H
	DB	04aH
	DB	028H
	DB	04aH
	DB	049H
	DB	04aH
	DB	049H
	DB	04aH
	DB	049H
	DB	04aH
	DB	048H
	DB	04aH
	DB	049H
	DB	04aH
	DB	029H
	DB	04aH
	DB	049H
	DB	04aH
	DB	049H
	DB	04aH
	DB	029H
	DB	04aH
	DB	049H
	DB	04aH
	DB	028H
	DB	04aH
	DB	049H
	DB	04aH
	DB	049H
	DB	04aH
	DB	048H
	DB	042H
	DB	049H
	DB	04aH
	DB	029H
	DB	04aH
	DB	048H
	DB	04aH
	DB	049H
	DB	042H
	DB	049H
	DB	04aH
	DB	048H
	DB	04aH
	DB	049H
	DB	04aH
	DB	029H
	DB	042H
	DB	049H
	DB	04aH
	DB	028H
	DB	04aH
	DB	048H
	DB	042H
	DB	049H
	DB	04aH
	DB	049H
	DB	04aH
	DB	028H
	DB	042H
	DB	049H
	DB	04aH
	DB	049H
	DB	04aH
	DB	028H
	DB	042H
	DB	029H
	DB	04aH
	DB	028H
	DB	04aH
	DB	028H
	DB	042H
	DB	029H
	DB	042H
	DB	028H
	DB	04aH
	DB	028H
	DB	042H
	DB	08H
	DB	042H
	DB	028H
	DB	042H
	DB	028H
	DB	04aH
	DB	028H
	DB	042H
	DB	08H
	DB	04aH
	DB	029H
	DB	042H
	DB	028H
	DB	042H
	DB	08H
	DB	042H
	DB	028H
	DB	04aH
	DB	029H
	DB	042H
	DB	028H
	DB	042H
	DB	028H
	DB	042H
	DB	028H
	DB	042H
	DB	028H
	DB	04aH
	DB	028H
	DB	04aH
	DB	028H
	DB	042H
	DB	029H
	DB	042H
	DB	08H
	DB	04aH
	DB	028H
	DB	042H
	DB	028H
	DB	042H
	DB	08H
	DB	04aH
	DB	028H
	DB	042H
	DB	028H
	DB	042H
	DB	028H
	DB	042H
	DB	08H
	DB	042H
	DB	028H
	DB	04aH
	DB	028H
	DB	042H
	DB	08H
	DB	042H
	DB	028H
	DB	04aH
	DB	08H
	DB	042H
	DB	08H
	DB	042H
	DB	028H
	DB	042H
	DB	029H
	DB	042H
	DB	08H
	DB	04aH
	DB	028H
	DB	042H
	DB	029H
	DB	042H
	DB	028H
	DB	04aH
	DB	028H
	DB	042H
	DB	028H
	DB	042H
	DB	08H
	DB	042H
	DB	028H
	DB	042H
	DB	029H
	DB	042H
	DB	08H
	DB	04aH
	DB	029H
	DB	042H
	DB	028H
	DB	042H
	DB	028H
	DB	04aH
	DB	029H
	DB	042H
	DB	08H
	DB	042H
	DB	028H
	DB	042H
	DB	029H
	DB	042H
	DB	08H
	DB	042H
	DB	028H
	DB	04aH
	DB	028H
	DB	042H
	DB	08H
	DB	042H
	DB	028H
	DB	04aH
	DB	08H
	DB	042H
	DB	028H
	DB	042H
	DB	028H
	DB	042H
	DB	028H
	DB	042H
	DB	028H
	DB	042H
	DB	09H
	DB	04aH
	DB	028H
	DB	042H
	DB	028H
	DB	042H
	DB	08H
	DB	042H
	DB	029H
	DB	042H
	DB	08H
	DB	04aH
	DB	028H
	DB	042H
	DB	029H
	DB	042H
	DB	08H
	DB	042H
	DB	028H
	DB	04aH
	DB	028H
	DB	042H
	DB	028H
	DB	042H
	DB	028H
	DB	042H
	DB	029H
	DB	04aH
	DB	066H
	DB	031H
	DB	029H
	DB	042H
	DB	028H
	DB	042H
	DB	028H
	DB	042H
	DB	08H
	DB	042H
	DB	029H
	DB	04aH
	DB	028H
	DB	042H
	DB	028H
	DB	042H
	DB	028H
	DB	042H
	DB	09H
	DB	042H
	DB	028H
	DB	042H
	DB	028H
	DB	042H
	DB	028H
	DB	04aH
	DB	028H
	DB	042H
	DB	028H
	DB	042H
	DB	028H
	DB	04aH
	DB	028H
	DB	04aH
	DB	09H
	DB	042H
	DB	028H
	DB	042H
	DB	028H
	DB	042H
	DB	08H
	DB	042H
	DB	08H
	DB	04aH
	DB	028H
	DB	042H
	DB	08H
	DB	042H
	DB	029H
	DB	042H
	DB	028H
	DB	04aH
	DB	08H
	DB	042H
	DB	08H
	DB	042H
	DB	028H
	DB	042H
	DB	028H
	DB	042H
	DB	08H
	DB	04aH
	DB	028H
	DB	042H
	DB	028H
	DB	042H
	DB	08H
	DB	04aH
	DB	028H
	DB	042H
	DB	028H
	DB	042H
	DB	08H
	DB	04aH
	DB	09H
	DB	042H
	DB	08H
	DB	042H
	DB	08H
	DB	04aH
	DB	08H
	DB	04aH
	DB	08H
	DB	042H
	DB	08H
	DB	04aH
	DB	08H
	DB	042H
	DB	08H
	DB	042H
	DB	08H
	DB	04aH
	DB	08H
	DB	04aH
	DB	08H
	DB	042H
	DB	08H
	DB	042H
	DB	08H
	DB	04aH
	DB	08H
	DB	042H
	DB	08H
	DB	042H
	DB	028H
	DB	042H
	DB	08H
	DB	042H
	DB	08H
	DB	04aH
	DB	028H
	DB	042H
	DB	08H
	DB	042H
	DB	028H
	DB	042H
	DB	08H
	DB	04aH
	DB	028H
	DB	042H
	DB	028H
	DB	042H
	DB	08H
	DB	042H
	DB	028H
	DB	042H
	DB	08H
	DB	04aH
	DB	028H
	DB	042H
	DB	028H
	DB	042H
	DB	08H
	DB	042H
	DB	08H
	DB	042H
	DB	028H
	DB	042H
	DB	08H
	DB	042H
	DB	028H
	DB	042H
	DB	029H
	DB	042H
	DB	08H
	DB	042H
	DB	028H
	DB	042H
	DB	028H
	DB	042H
	DB	08H
	DB	042H
	DB	08H
	DB	04aH
	DB	028H
	DB	042H
	DB	08H
	DB	042H
	DB	028H
	DB	042H
	DB	08H
	DB	042H
	DB	028H
	DB	04aH
	DB	028H
	DB	042H
	DB	028H
	DB	04aH
	DB	029H
	DB	04aH
	DB	028H
	DB	04aH
	DB	029H
	DB	042H
	DB	028H
	DB	04aH
	DB	028H
	DB	042H
	DB	029H
	DB	042H
	DB	028H
	DB	04aH
	DB	028H
	DB	042H
	DB	028H
	DB	04aH
	DB	028H
	DB	042H
	DB	028H
	DB	042H
	DB	028H
	DB	042H
	DB	028H
	DB	04aH
	DB	028H
	DB	042H
	DB	029H
	DB	042H
	DB	028H
	DB	04aH
	DB	028H
	DB	042H
	DB	029H
	DB	04aH
	DB	028H
	DB	042H
	DB	029H
	DB	04aH
	DB	029H
	DB	042H
	DB	028H
	DB	042H
	DB	029H
	DB	04aH
	DB	028H
	DB	042H
	DB	029H
	DB	042H
	DB	028H
	DB	04aH
	DB	028H
	DB	04aH
	DB	029H
	DB	042H
	DB	028H
	DB	042H
	DB	028H
	DB	04aH
	DB	029H
	DB	042H
	DB	028H
	DB	042H
	DB	028H
	DB	04aH
	DB	028H
	DB	042H
	DB	028H
	DB	042H
	DB	029H
	DB	04aH
	DB	028H
	DB	042H
	DB	028H
	DB	04aH
	DB	029H
	DB	042H
	DB	028H
	DB	04aH
	DB	029H
	DB	042H
	DB	049H
	DB	042H
	DB	028H
	DB	04aH
	DB	028H
	DB	042H
	DB	049H
	DB	042H
	DB	028H
	DB	04aH
	DB	028H
	DB	042H
	DB	028H
	DB	042H
	DB	028H
	DB	04aH
	DB	028H
	DB	042H
	DB	028H
	DB	042H
	DB	028H
	DB	04aH
	DB	028H
	DB	042H
	DB	049H
	DB	042H
	DB	028H
	DB	04aH
	DB	028H
	DB	042H
	DB	049H
	DB	042H
	DB	028H
	DB	04aH
	DB	028H
	DB	042H
	DB	049H
	DB	042H
	DB	028H
	DB	04aH
	DB	028H
	DB	042H
	DB	029H
	DB	042H
	DB	048H
	DB	04aH
	DB	028H
	DB	042H
	DB	029H
	DB	042H
	DB	028H
	DB	04aH
	DB	049H
	DB	042H
	DB	028H
	DB	042H
	DB	029H
	DB	04aH
	DB	048H
	DB	04aH
	DB	028H
	DB	042H
	DB	028H
	DB	042H
	DB	029H
	DB	04aH
	DB	028H
	DB	042H
	DB	048H
	DB	042H
	DB	029H
	DB	04aH
	DB	028H
	DB	042H
	DB	049H
	DB	042H
	DB	028H
	DB	042H
	DB	028H
	DB	04aH
	DB	029H
	DB	04aH
	DB	028H
	DB	042H
	DB	049H
	DB	04aH
	DB	029H
	DB	042H
	DB	028H
	DB	042H
	DB	028H
	DB	042H
	DB	029H
	DB	04aH
	DB	028H
	DB	042H
	DB	049H
	DB	042H
	DB	028H
	DB	04aH
	DB	028H
	DB	04aH
	DB	028H
	DB	042H
	DB	029H
	DB	04aH
	DB	028H
	DB	04aH
	DB	028H
	DB	042H
	DB	028H
	DB	04aH
	DB	049H
	DB	042H
	DB	028H
	DB	04aH
	DB	028H
	DB	042H
	DB	049H
	DB	042H
	DB	028H
	DB	04aH
	DB	028H
	DB	042H
	DB	049H
	DB	04aH
	DB	028H
	DB	042H
	DB	028H
	DB	04aH
	DB	028H
	DB	042H
	DB	028H
	DB	04aH
	DB	029H
	DB	04aH
	DB	028H
	DB	042H
	DB	029H
	DB	04aH
	DB	028H
	DB	04aH
	DB	029H
	DB	042H
	DB	028H
	DB	04aH
	DB	049H
	DB	04aH
	DB	029H
	DB	042H
	DB	028H
	DB	04aH
	DB	048H
	DB	042H
	DB	029H
	DB	042H
	DB	028H
	DB	04aH
	DB	029H
	DB	04aH
	DB	028H
	DB	042H
	DB	028H
	DB	04aH
	DB	029H
	DB	04aH
	DB	028H
	DB	042H
	DB	028H
	DB	04aH
	DB	049H
	DB	04aH
	DB	029H
	DB	042H
	DB	028H
	DB	04aH
	DB	049H
	DB	04aH
	DB	029H
	DB	042H
	DB	048H
	DB	04aH
	DB	048H
	DB	04aH
	DB	029H
	DB	04aH
	DB	048H
	DB	04aH
	DB	029H
	DB	042H
	DB	048H
	DB	04aH
	DB	049H
	DB	04aH
	DB	049H
	DB	042H
	DB	048H
	DB	04aH
	DB	049H
	DB	04aH
	DB	029H
	DB	042H
	DB	028H
	DB	04aH
	DB	049H
	DB	042H
	DB	028H
	DB	04aH
	DB	028H
	DB	04aH
	DB	049H
	DB	042H
	DB	029H
	DB	04aH
	DB	048H
	DB	042H
	DB	048H
	DB	04aH
	DB	028H
	DB	04aH
	DB	049H
	DB	042H
	DB	028H
	DB	04aH
	DB	028H
	DB	042H
	DB	049H
	DB	04aH
	DB	028H
	DB	04aH
	DB	048H
	DB	042H
	DB	049H
	DB	04aH
	DB	028H
	DB	04aH
	DB	048H
	DB	042H
	DB	049H
	DB	04aH
	DB	029H
	DB	04aH
	DB	048H
	DB	042H
	DB	029H
	DB	04aH
	DB	049H
	DB	042H
	DB	028H
	DB	04aH
	DB	028H
	DB	04aH
	DB	049H
	DB	042H
	DB	028H
	DB	04aH
	DB	048H
	DB	042H
	DB	049H
	DB	04aH
	DB	028H
	DB	04aH
	DB	028H
	DB	042H
	DB	049H
	DB	04aH
	DB	029H
	DB	04aH
	DB	028H
	DB	042H
	DB	049H
	DB	04aH
	DB	029H
	DB	04aH
	DB	048H
	DB	042H
	DB	049H
	DB	04aH
	DB	029H
	DB	04aH
	DB	048H
	DB	042H
	DB	029H
	DB	04aH
	DB	029H
	DB	04aH
	DB	048H
	DB	042H
	DB	029H
	DB	04aH
	DB	049H
	DB	04aH
	DB	048H
	DB	042H
	DB	029H
	DB	04aH
	DB	029H
	DB	04aH
	DB	048H
	DB	04aH
	DB	029H
	DB	042H
	DB	029H
	DB	04aH
	DB	048H
	DB	04aH
	DB	049H
	DB	04aH
	DB	028H
	DB	04aH
	DB	049H
	DB	04aH
	DB	049H
	DB	04aH
	DB	028H
	DB	042H
	DB	029H
	DB	04aH
	DB	049H
	DB	042H
	DB	028H
	DB	04aH
	DB	049H
	DB	04aH
	DB	029H
	DB	04aH
	DB	028H
	DB	04aH
	DB	049H
	DB	042H
	DB	048H
	DB	04aH
	DB	028H
	DB	04aH
	DB	029H
	DB	042H
	DB	048H
	DB	042H
	DB	048H
	DB	04aH
	DB	049H
	DB	04aH
	DB	049H
	DB	042H
	DB	048H
	DB	04aH
	DB	049H
	DB	04aH
	DB	029H
	DB	042H
	DB	049H
	DB	04aH
	DB	049H
	DB	04aH
	DB	028H
	DB	042H
	DB	049H
	DB	04aH
	DB	049H
	DB	04aH
	DB	049H
	DB	04aH
	DB	048H
	DB	04aH
	DB	049H
	DB	04aH
	DB	029H
	DB	04aH
	DB	048H
	DB	04aH
	DB	049H
	DB	042H
	DB	029H
	DB	04aH
	DB	049H
	DB	04aH
	DB	049H
	DB	042H
	DB	049H
	DB	04aH
	DB	048H
	DB	04aH
	DB	049H
	DB	042H
	DB	029H
	DB	04aH
	DB	049H
	DB	04aH
	DB	048H
	DB	04aH
	DB	029H
	DB	04aH
	DB	049H
	DB	042H
	DB	028H
	DB	04aH
	DB	029H
	DB	04aH
	DB	049H
	DB	04aH
	DB	048H
	DB	04aH
	DB	049H
	DB	04aH
	DB	029H
	DB	04aH
	DB	048H
	DB	04aH
	DB	049H
	DB	04aH
	DB	028H
	DB	04aH
	DB	049H
	DB	04aH
	DB	049H
	DB	042H
	DB	029H
	DB	04aH
	DB	049H
	DB	04aH
	DB	049H
	DB	042H
	DB	029H
	DB	04aH
	DB	048H
	DB	04aH
	DB	049H
	DB	04aH
	DB	028H
	DB	04aH
	DB	049H
	DB	04aH
	DB	048H
	DB	04aH
	DB	049H
	DB	04aH
	DB	029H
	DB	04aH
	DB	049H
	DB	04aH
	DB	049H
	DB	04aH
	DB	049H
	DB	04aH
	DB	049H
	DB	04aH
	DB	029H
	DB	04aH
	DB	049H
	DB	04aH
	DB	049H
	DB	04aH
	DB	029H
	DB	04aH
	DB	049H
	DB	04aH
	DB	048H
	DB	04aH
	DB	028H
	DB	04aH
	DB	049H
	DB	04aH
	DB	048H
	DB	04aH
	DB	029H
	DB	04aH
	DB	049H
	DB	042H
	DB	028H
	DB	04aH
	DB	049H
	DB	04aH
	DB	049H
	DB	04aH
	DB	049H
	DB	04aH
	DB	049H
	DB	04aH
	DB	049H
	DB	04aH
	DB	049H
	DB	04aH
	DB	049H
	DB	04aH
	DB	048H
	DB	04aH
	DB	049H
	DB	04aH
	DB	049H
	DB	04aH
	DB	049H
	DB	04aH
	DB	029H
	DB	04aH
	DB	049H
	DB	04aH
	DB	049H
	DB	042H
	DB	049H
	DB	04aH
	DB	029H
	DB	04aH
	DB	049H
	DB	04aH
	DB	049H
	DB	042H
	DB	029H
	DB	04aH
	DB	049H
	DB	04aH
	DB	049H
	DB	042H
	DB	048H
	DB	04aH
	DB	049H
	DB	042H
	DB	049H
	DB	04aH
	DB	049H
	DB	04aH
	DB	029H
	DB	04aH
	DB	049H
	DB	04aH
	DB	049H
	DB	04aH
	DB	029H
	DB	04aH
	DB	049H
	DB	04aH
	DB	049H
	DB	04aH
	DB	048H
	DB	04aH
	DB	049H
	DB	04aH
	DB	029H
	DB	04aH
	DB	049H
	DB	04aH
	DB	049H
	DB	04aH
	DB	029H
	DB	04aH
	DB	049H
	DB	04aH
	DB	049H
	DB	04aH
	DB	029H
	DB	04aH
	DB	049H
	DB	04aH
	DB	049H
	DB	04aH
	DB	028H
	DB	04aH
	DB	049H
	DB	04aH
	DB	048H
	DB	04aH
	DB	049H
	DB	04aH
	DB	049H
	DB	04aH
	DB	028H
	DB	04aH
	DB	049H
	DB	04aH
	DB	049H
	DB	04aH
	DB	029H
	DB	04aH
	DB	049H
	DB	04aH
	DB	049H
	DB	04aH
	DB	049H
	DB	04aH
	DB	028H
	DB	042H
	DB	049H
	DB	04aH
	DB	049H
	DB	04aH
	DB	029H
	DB	042H
	DB	049H
	DB	04aH
	DB	049H
	DB	04aH
	DB	049H
	DB	042H
	DB	048H
	DB	04aH
	DB	029H
	DB	04aH
	DB	049H
	DB	04aH
	DB	048H
	DB	04aH
	DB	049H
	DB	04aH
	DB	049H
	DB	04aH
	DB	048H
	DB	04aH
	DB	029H
	DB	042H
	DB	028H
	DB	042H
	DB	028H
	DB	042H
	DB	028H
	DB	042H
	DB	028H
	DB	04aH
	DB	08H
	DB	042H
	DB	029H
	DB	042H
	DB	028H
	DB	042H
	DB	09H
	DB	04aH
	DB	029H
	DB	042H
	DB	028H
	DB	042H
	DB	028H
	DB	042H
	DB	08H
	DB	04aH
	DB	028H
	DB	042H
	DB	028H
	DB	042H
	DB	08H
	DB	042H
	DB	028H
	DB	04aH
	DB	029H
	DB	042H
	DB	08H
	DB	042H
	DB	028H
	DB	042H
	DB	09H
	DB	042H
	DB	028H
	DB	042H
	DB	028H
	DB	042H
	DB	028H
	DB	04aH
	DB	029H
	DB	042H
	DB	08H
	DB	042H
	DB	028H
	DB	04aH
	DB	029H
	DB	042H
	DB	028H
	DB	04aH
	DB	028H
	DB	042H
	DB	08H
	DB	042H
	DB	028H
	DB	042H
	DB	028H
	DB	042H
	DB	028H
	DB	04aH
	DB	028H
	DB	042H
	DB	028H
	DB	042H
	DB	028H
	DB	04aH
	DB	029H
	DB	042H
	DB	028H
	DB	042H
	DB	08H
	DB	04aH
	DB	028H
	DB	042H
	DB	029H
	DB	042H
	DB	08H
	DB	042H
	DB	028H
	DB	04aH
	DB	029H
	DB	042H
	DB	08H
	DB	042H
	DB	028H
	DB	04aH
	DB	028H
	DB	042H
	DB	08H
	DB	042H
	DB	028H
	DB	042H
	DB	029H
	DB	042H
	DB	028H
	DB	04aH
	DB	08H
	DB	042H
	DB	029H
	DB	042H
	DB	028H
	DB	04aH
	DB	028H
	DB	042H
	DB	028H
	DB	042H
	DB	029H
	DB	04aH
	DB	028H
	DB	042H
	DB	028H
	DB	042H
	DB	029H
	DB	042H
	DB	08H
	DB	04aH
	DB	029H
	DB	042H
	DB	028H
	DB	042H
	DB	09H
	DB	04aH
	DB	028H
	DB	042H
	DB	028H
	DB	042H
	DB	028H
	DB	042H
	DB	08H
	DB	04aH
	DB	028H
	DB	042H
	DB	028H
	DB	042H
	DB	09H
	DB	042H
	DB	028H
	DB	042H
	DB	028H
	DB	04aH
	DB	08H
	DB	042H
	DB	028H
	DB	042H
	DB	029H
	DB	042H
	DB	08H
	DB	042H
	DB	028H
	DB	042H
	DB	028H
	DB	042H
	DB	029H
	DB	04aH
	DB	086H
	DB	031H
	DB	028H
	DB	04aH
	DB	028H
	DB	042H
	DB	028H
	DB	042H
	DB	08H
	DB	04aH
	DB	028H
	DB	042H
	DB	028H
	DB	042H
	DB	08H
	DB	04aH
	DB	028H
	DB	04aH
	DB	028H
	DB	042H
	DB	08H
	DB	042H
	DB	028H
	DB	04aH
	DB	09H
	DB	042H
	DB	028H
	DB	042H
	DB	08H
	DB	042H
	DB	028H
	DB	042H
	DB	028H
	DB	042H
	DB	028H
	DB	04aH
	DB	028H
	DB	042H
	DB	028H
	DB	042H
	DB	029H
	DB	042H
	DB	028H
	DB	042H
	DB	028H
	DB	042H
	DB	028H
	DB	042H
	DB	028H
	DB	042H
	DB	028H
	DB	042H
	DB	028H
	DB	04aH
	DB	028H
	DB	042H
	DB	028H
	DB	042H
	DB	029H
	DB	042H
	DB	08H
	DB	042H
	DB	08H
	DB	042H
	DB	028H
	DB	042H
	DB	08H
	DB	042H
	DB	09H
	DB	04aH
	DB	028H
	DB	042H
	DB	028H
	DB	042H
	DB	028H
	DB	04aH
	DB	028H
	DB	042H
	DB	028H
	DB	042H
	DB	029H
	DB	042H
	DB	028H
	DB	042H
	DB	028H
	DB	042H
	DB	029H
	DB	04aH
	DB	028H
	DB	042H
	DB	08H
	DB	042H
	DB	028H
	DB	042H
	DB	029H
	DB	042H
	DB	028H
	DB	04aH
	DB	028H
	DB	042H
	DB	09H
	DB	042H
	DB	028H
	DB	042H
	DB	028H
	DB	042H
	DB	09H
	DB	042H
	DB	028H
	DB	042H
	DB	028H
	DB	042H
	DB	09H
	DB	04aH
	DB	08H
	DB	042H
	DB	028H
	DB	042H
	DB	09H
	DB	04aH
	DB	08H
	DB	042H
	DB	028H
	DB	042H
	DB	029H
	DB	042H
	DB	08H
	DB	042H
	DB	08H
	DB	042H
	DB	029H
	DB	042H
	DB	08H
	DB	04aH
	DB	028H
	DB	042H
	DB	029H
	DB	042H
	DB	028H
	DB	04aH
	DB	08H
	DB	042H
	DB	08H
	DB	042H
	DB	028H
	DB	04aH
	DB	09H
	DB	042H
	DB	028H
	DB	042H
	DB	08H
	DB	042H
	DB	029H
	DB	042H
	DB	028H
	DB	042H
	DB	08H
	DB	042H
	DB	08H
	DB	042H
	DB	028H
	DB	042H
	DB	028H
	DB	042H
	DB	028H
	DB	042H
	DB	028H
	DB	042H
	DB	028H
	DB	04aH
	DB	028H
	DB	042H
	DB	029H
	DB	042H
	DB	028H
	DB	04aH
	DB	028H
	DB	04aH
	DB	028H
	DB	042H
	DB	029H
	DB	042H
	DB	028H
	DB	04aH
	DB	029H
	DB	042H
	DB	028H
	DB	04aH
	DB	029H
	DB	042H
	DB	028H
	DB	042H
	DB	028H
	DB	04aH
	DB	029H
	DB	042H
	DB	028H
	DB	042H
	DB	028H
	DB	04aH
	DB	029H
	DB	042H
	DB	028H
	DB	042H
	DB	029H
	DB	04aH
	DB	028H
	DB	042H
	DB	028H
	DB	042H
	DB	029H
	DB	04aH
	DB	028H
	DB	04aH
	DB	028H
	DB	042H
	DB	029H
	DB	042H
	DB	028H
	DB	04aH
	DB	028H
	DB	042H
	DB	029H
	DB	042H
	DB	028H
	DB	04aH
	DB	028H
	DB	04aH
	DB	029H
	DB	042H
	DB	028H
	DB	042H
	DB	029H
	DB	04aH
	DB	029H
	DB	042H
	DB	048H
	DB	04aH
	DB	028H
	DB	042H
	DB	028H
	DB	042H
	DB	028H
	DB	042H
	DB	048H
	DB	04aH
	DB	029H
	DB	042H
	DB	028H
	DB	042H
	DB	048H
	DB	04aH
	DB	029H
	DB	042H
	DB	028H
	DB	04aH
	DB	028H
	DB	042H
	DB	049H
	DB	04aH
	DB	029H
	DB	042H
	DB	049H
	DB	042H
	DB	049H
	DB	04aH
	DB	028H
	DB	042H
	DB	049H
	DB	04aH
	DB	028H
	DB	042H
	DB	029H
	DB	042H
	DB	028H
	DB	04aH
	DB	049H
	DB	04aH
	DB	028H
	DB	04aH
	DB	028H
	DB	042H
	DB	029H
	DB	04aH
	DB	028H
	DB	04aH
	DB	028H
	DB	042H
	DB	029H
	DB	04aH
	DB	028H
	DB	04aH
	DB	028H
	DB	04aH
	DB	029H
	DB	04aH
	DB	048H
	DB	042H
	DB	028H
	DB	04aH
	DB	029H
	DB	04aH
	DB	048H
	DB	042H
	DB	028H
	DB	04aH
	DB	029H
	DB	042H
	DB	028H
	DB	04aH
	DB	048H
	DB	04aH
	DB	029H
	DB	042H
	DB	028H
	DB	04aH
	DB	048H
	DB	04aH
	DB	029H
	DB	042H
	DB	028H
	DB	04aH
	DB	048H
	DB	04aH
	DB	029H
	DB	042H
	DB	028H
	DB	042H
	DB	028H
	DB	04aH
	DB	049H
	DB	042H
	DB	028H
	DB	042H
	DB	028H
	DB	04aH
	DB	049H
	DB	04aH
	DB	029H
	DB	042H
	DB	048H
	DB	04aH
	DB	029H
	DB	042H
	DB	029H
	DB	04aH
	DB	028H
	DB	042H
	DB	049H
	DB	04aH
	DB	029H
	DB	042H
	DB	048H
	DB	042H
	DB	029H
	DB	04aH
	DB	048H
	DB	042H
	DB	029H
	DB	04aH
	DB	029H
	DB	042H
	DB	028H
	DB	04aH
	DB	049H
	DB	04aH
	DB	028H
	DB	042H
	DB	029H
	DB	04aH
	DB	028H
	DB	042H
	DB	028H
	DB	04aH
	DB	049H
	DB	042H
	DB	028H
	DB	04aH
	DB	029H
	DB	042H
	DB	028H
	DB	04aH
	DB	048H
	DB	042H
	DB	029H
	DB	042H
	DB	049H
	DB	04aH
	DB	028H
	DB	04aH
	DB	049H
	DB	042H
	DB	028H
	DB	04aH
	DB	028H
	DB	042H
	DB	049H
	DB	04aH
	DB	029H
	DB	04aH
	DB	028H
	DB	04aH
	DB	049H
	DB	04aH
	DB	028H
	DB	042H
	DB	029H
	DB	04aH
	DB	049H
	DB	042H
	DB	028H
	DB	042H
	DB	049H
	DB	04aH
	DB	049H
	DB	04aH
	DB	049H
	DB	042H
	DB	028H
	DB	04aH
	DB	049H
	DB	042H
	DB	049H
	DB	042H
	DB	048H
	DB	04aH
	DB	029H
	DB	04aH
	DB	049H
	DB	042H
	DB	029H
	DB	042H
	DB	029H
	DB	04aH
	DB	028H
	DB	042H
	DB	028H
	DB	04aH
	DB	049H
	DB	04aH
	DB	049H
	DB	042H
	DB	028H
	DB	04aH
	DB	029H
	DB	04aH
	DB	049H
	DB	042H
	DB	029H
	DB	04aH
	DB	029H
	DB	04aH
	DB	048H
	DB	042H
	DB	049H
	DB	04aH
	DB	029H
	DB	04aH
	DB	048H
	DB	042H
	DB	049H
	DB	04aH
	DB	029H
	DB	04aH
	DB	029H
	DB	042H
	DB	048H
	DB	04aH
	DB	028H
	DB	04aH
	DB	049H
	DB	042H
	DB	049H
	DB	04aH
	DB	028H
	DB	04aH
	DB	029H
	DB	042H
	DB	049H
	DB	04aH
	DB	028H
	DB	04aH
	DB	049H
	DB	042H
	DB	029H
	DB	04aH
	DB	028H
	DB	04aH
	DB	048H
	DB	042H
	DB	029H
	DB	04aH
	DB	029H
	DB	04aH
	DB	048H
	DB	042H
	DB	049H
	DB	04aH
	DB	028H
	DB	04aH
	DB	049H
	DB	042H
	DB	029H
	DB	04aH
	DB	048H
	DB	04aH
	DB	029H
	DB	042H
	DB	049H
	DB	04aH
	DB	048H
	DB	042H
	DB	029H
	DB	04aH
	DB	049H
	DB	04aH
	DB	048H
	DB	04aH
	DB	029H
	DB	04aH
	DB	028H
	DB	04aH
	DB	049H
	DB	04aH
	DB	029H
	DB	04aH
	DB	028H
	DB	04aH
	DB	049H
	DB	042H
	DB	048H
	DB	042H
	DB	049H
	DB	04aH
	DB	048H
	DB	042H
	DB	049H
	DB	042H
	DB	049H
	DB	04aH
	DB	048H
	DB	042H
	DB	049H
	DB	04aH
	DB	049H
	DB	042H
	DB	048H
	DB	04aH
	DB	049H
	DB	042H
	DB	048H
	DB	04aH
	DB	049H
	DB	042H
	DB	049H
	DB	042H
	DB	048H
	DB	042H
	DB	049H
	DB	04aH
	DB	048H
	DB	042H
	DB	049H
	DB	042H
	DB	048H
	DB	04aH
	DB	049H
	DB	04aH
	DB	048H
	DB	042H
	DB	048H
	DB	042H
	DB	049H
	DB	04aH
	DB	049H
	DB	042H
	DB	048H
	DB	04aH
	DB	049H
	DB	04aH
	DB	049H
	DB	04aH
	DB	048H
	DB	04aH
	DB	049H
	DB	042H
	DB	049H
	DB	04aH
	DB	028H
	DB	04aH
	DB	049H
	DB	042H
	DB	029H
	DB	04aH
	DB	049H
	DB	04aH
	DB	048H
	DB	042H
	DB	049H
	DB	04aH
	DB	048H
	DB	04aH
	DB	049H
	DB	042H
	DB	049H
	DB	04aH
	DB	048H
	DB	04aH
	DB	029H
	DB	04aH
	DB	049H
	DB	042H
	DB	048H
	DB	04aH
	DB	029H
	DB	04aH
	DB	049H
	DB	04aH
	DB	049H
	DB	04aH
	DB	048H
	DB	04aH
	DB	049H
	DB	04aH
	DB	049H
	DB	04aH
	DB	029H
	DB	04aH
	DB	048H
	DB	04aH
	DB	049H
	DB	04aH
	DB	049H
	DB	04aH
	DB	049H
	DB	042H
	DB	049H
	DB	04aH
	DB	049H
	DB	042H
	DB	049H
	DB	04aH
	DB	048H
	DB	04aH
	DB	049H
	DB	04aH
	DB	049H
	DB	04aH
	DB	029H
	DB	04aH
	DB	049H
	DB	04aH
	DB	049H
	DB	04aH
	DB	049H
	DB	04aH
	DB	049H
	DB	042H
	DB	049H
	DB	04aH
	DB	048H
	DB	04aH
	DB	029H
	DB	04aH
	DB	048H
	DB	04aH
	DB	049H
	DB	04aH
	DB	048H
	DB	04aH
	DB	049H
	DB	04aH
	DB	049H
	DB	042H
	DB	029H
	DB	04aH
	DB	048H
	DB	04aH
	DB	049H
	DB	04aH
	DB	049H
	DB	04aH
	DB	048H
	DB	04aH
	DB	049H
	DB	042H
	DB	048H
	DB	04aH
	DB	048H
	DB	04aH
	DB	029H
	DB	042H
	DB	048H
	DB	04aH
	DB	049H
	DB	04aH
	DB	048H
	DB	04aH
	DB	049H
	DB	04aH
	DB	028H
	DB	04aH
	DB	049H
	DB	04aH
	DB	049H
	DB	042H
	DB	029H
	DB	04aH
	DB	049H
	DB	04aH
	DB	049H
	DB	042H
	DB	028H
	DB	04aH
	DB	049H
	DB	04aH
	DB	049H
	DB	04aH
	DB	028H
	DB	04aH
	DB	049H
	DB	04aH
	DB	049H
	DB	042H
	DB	028H
	DB	04aH
	DB	049H
	DB	04aH
	DB	048H
	DB	04aH
	DB	029H
	DB	04aH
	DB	049H
	DB	04aH
	DB	049H
	DB	04aH
	DB	028H
	DB	04aH
	DB	049H
	DB	04aH
	DB	049H
	DB	04aH
	DB	048H
	DB	04aH
	DB	048H
	DB	04aH
	DB	049H
	DB	04aH
	DB	049H
	DB	04aH
	DB	048H
	DB	04aH
	DB	049H
	DB	04aH
	DB	049H
	DB	04aH
	DB	048H
	DB	04aH
	DB	049H
	DB	04aH
	DB	029H
	DB	04aH
	DB	049H
	DB	04aH
	DB	049H
	DB	042H
	DB	048H
	DB	04aH
	DB	049H
	DB	042H
	DB	048H
	DB	04aH
	DB	029H
	DB	04aH
	DB	048H
	DB	04aH
	DB	049H
	DB	04aH
	DB	049H
	DB	04aH
	DB	028H
	DB	04aH
	DB	049H
	DB	042H
	DB	049H
	DB	04aH
	DB	048H
	DB	04aH
	DB	049H
	DB	042H
	DB	048H
	DB	04aH
	DB	049H
	DB	04aH
	DB	049H
	DB	042H
	DB	048H
	DB	04aH
	DB	028H
	DB	04aH
	DB	049H
	DB	04aH
	DB	049H
	DB	042H
	DB	049H
	DB	04aH
	DB	049H
	DB	04aH
	DB	028H
	DB	042H
	DB	049H
	DB	04aH
	DB	049H
	DB	04aH
	DB	049H
	DB	042H
	DB	049H
	DB	04aH
	DB	048H
	DB	04aH
	DB	029H
	DB	04aH
	DB	049H
	DB	04aH
	DB	048H
	DB	04aH
	DB	049H
	DB	04aH
	DB	029H
	DB	04aH
	DB	049H
	DB	04aH
	DB	048H
	DB	04aH
	DB	028H
	DB	04aH
	DB	049H
	DB	04aH
	DB	048H
	DB	04aH
	DB	049H
	DB	04aH
	DB	049H
	DB	04aH
	DB	029H
	DB	042H
	DB	049H
	DB	04aH
	DB	049H
	DB	042H
	DB	029H
	DB	04aH
	DB	049H
	DB	04aH
	DB	048H
	DB	04aH
	DB	029H
	DB	04aH
	DB	028H
	DB	04aH
	DB	028H
	DB	042H
	DB	028H
	DB	042H
	DB	09H
	DB	042H
	DB	028H
	DB	042H
	DB	028H
	DB	042H
	DB	028H
	DB	04aH
	DB	028H
	DB	042H
	DB	08H
	DB	042H
	DB	028H
	DB	042H
	DB	029H
	DB	042H
	DB	028H
	DB	04aH
	DB	028H
	DB	042H
	DB	028H
	DB	042H
	DB	028H
	DB	042H
	DB	08H
	DB	04aH
	DB	028H
	DB	042H
	DB	028H
	DB	04aH
	DB	08H
	DB	042H
	DB	028H
	DB	042H
	DB	08H
	DB	042H
	DB	028H
	DB	04aH
	DB	028H
	DB	042H
	DB	08H
	DB	042H
	DB	029H
	DB	042H
	DB	028H
	DB	042H
	DB	08H
	DB	042H
	DB	028H
	DB	042H
	DB	028H
	DB	04aH
	DB	029H
	DB	042H
	DB	028H
	DB	04aH
	DB	08H
	DB	042H
	DB	029H
	DB	042H
	DB	028H
	DB	042H
	DB	08H
	DB	042H
	DB	028H
	DB	042H
	DB	028H
	DB	04aH
	DB	028H
	DB	042H
	DB	028H
	DB	042H
	DB	028H
	DB	042H
	DB	028H
	DB	042H
	DB	08H
	DB	04aH
	DB	028H
	DB	042H
	DB	028H
	DB	042H
	DB	029H
	DB	04aH
	DB	028H
	DB	042H
	DB	029H
	DB	04aH
	DB	028H
	DB	042H
	DB	028H
	DB	042H
	DB	08H
	DB	04aH
	DB	028H
	DB	042H
	DB	028H
	DB	042H
	DB	028H
	DB	042H
	DB	028H
	DB	04aH
	DB	08H
	DB	042H
	DB	028H
	DB	042H
	DB	09H
	DB	042H
	DB	028H
	DB	042H
	DB	028H
	DB	042H
	DB	09H
	DB	04aH
	DB	028H
	DB	042H
	DB	028H
	DB	042H
	DB	028H
	DB	04aH
	DB	08H
	DB	042H
	DB	029H
	DB	04aH
	DB	028H
	DB	042H
	DB	09H
	DB	042H
	DB	028H
	DB	042H
	DB	029H
	DB	04aH
	DB	028H
	DB	042H
	DB	028H
	DB	042H
	DB	029H
	DB	04aH
	DB	028H
	DB	042H
	DB	028H
	DB	042H
	DB	029H
	DB	04aH
	DB	028H
	DB	042H
	DB	08H
	DB	04aH
	DB	029H
	DB	042H
	DB	028H
	DB	042H
	DB	028H
	DB	04aH
	DB	086H
	DB	031H
	DB	028H
	DB	04aH
	DB	028H
	DB	042H
	DB	028H
	DB	042H
	DB	028H
	DB	042H
	DB	028H
	DB	042H
	DB	08H
	DB	042H
	DB	029H
	DB	042H
	DB	028H
	DB	042H
	DB	028H
	DB	042H
	DB	028H
	DB	04aH
	DB	028H
	DB	042H
	DB	08H
	DB	042H
	DB	08H
	DB	04aH
	DB	09H
	DB	042H
	DB	028H
	DB	042H
	DB	028H
	DB	042H
	DB	08H
	DB	042H
	DB	028H
	DB	04aH
	DB	028H
	DB	042H
	DB	08H
	DB	04aH
	DB	028H
	DB	042H
	DB	029H
	DB	042H
	DB	08H
	DB	04aH
	DB	028H
	DB	042H
	DB	08H
	DB	042H
	DB	029H
	DB	042H
	DB	028H
	DB	042H
	DB	08H
	DB	042H
	DB	028H
	DB	042H
	DB	08H
	DB	04aH
	DB	029H
	DB	042H
	DB	08H
	DB	042H
	DB	028H
	DB	042H
	DB	08H
	DB	042H
	DB	08H
	DB	042H
	DB	028H
	DB	042H
	DB	08H
	DB	042H
	DB	08H
	DB	042H
	DB	08H
	DB	042H
	DB	08H
	DB	04aH
	DB	028H
	DB	042H
	DB	08H
	DB	042H
	DB	08H
	DB	042H
	DB	028H
	DB	042H
	DB	028H
	DB	042H
	DB	08H
	DB	042H
	DB	08H
	DB	04aH
	DB	028H
	DB	042H
	DB	08H
	DB	042H
	DB	028H
	DB	04aH
	DB	08H
	DB	04aH
	DB	08H
	DB	042H
	DB	028H
	DB	04aH
	DB	08H
	DB	042H
	DB	028H
	DB	042H
	DB	08H
	DB	04aH
	DB	028H
	DB	042H
	DB	028H
	DB	042H
	DB	08H
	DB	042H
	DB	08H
	DB	04aH
	DB	028H
	DB	042H
	DB	08H
	DB	04aH
	DB	028H
	DB	042H
	DB	028H
	DB	042H
	DB	08H
	DB	042H
	DB	028H
	DB	042H
	DB	08H
	DB	042H
	DB	028H
	DB	042H
	DB	028H
	DB	042H
	DB	028H
	DB	042H
	DB	08H
	DB	042H
	DB	028H
	DB	042H
	DB	08H
	DB	042H
	DB	08H
	DB	042H
	DB	028H
	DB	042H
	DB	08H
	DB	04aH
	DB	028H
	DB	042H
	DB	08H
	DB	042H
	DB	029H
	DB	042H
	DB	08H
	DB	042H
	DB	028H
	DB	042H
	DB	029H
	DB	04aH
	DB	029H
	DB	042H
	DB	028H
	DB	042H
	DB	028H
	DB	042H
	DB	028H
	DB	042H
	DB	029H
	DB	04aH
	DB	028H
	DB	042H
	DB	028H
	DB	042H
	DB	028H
	DB	04aH
	DB	028H
	DB	042H
	DB	028H
	DB	042H
	DB	029H
	DB	04aH
	DB	028H
	DB	042H
	DB	028H
	DB	04aH
	DB	029H
	DB	042H
	DB	028H
	DB	042H
	DB	028H
	DB	04aH
	DB	028H
	DB	042H
	DB	028H
	DB	042H
	DB	029H
	DB	04aH
	DB	028H
	DB	042H
	DB	028H
	DB	042H
	DB	029H
	DB	04aH
	DB	028H
	DB	042H
	DB	028H
	DB	042H
	DB	049H
	DB	04aH
	DB	028H
	DB	042H
	DB	029H
	DB	042H
	DB	048H
	DB	04aH
	DB	029H
	DB	042H
	DB	028H
	DB	042H
	DB	048H
	DB	04aH
	DB	029H
	DB	042H
	DB	048H
	DB	04aH
	DB	028H
	DB	042H
	DB	029H
	DB	042H
	DB	048H
	DB	04aH
	DB	029H
	DB	04aH
	DB	029H
	DB	042H
	DB	048H
	DB	04aH
	DB	029H
	DB	042H
	DB	028H
	DB	042H
	DB	028H
	DB	04aH
	DB	028H
	DB	042H
	DB	049H
	DB	042H
	DB	028H
	DB	04aH
	DB	028H
	DB	042H
	DB	028H
	DB	042H
	DB	028H
	DB	04aH
	DB	028H
	DB	042H
	DB	028H
	DB	042H
	DB	029H
	DB	04aH
	DB	028H
	DB	042H
	DB	049H
	DB	04aH
	DB	028H
	DB	042H
	DB	028H
	DB	04aH
	DB	029H
	DB	042H
	DB	028H
	DB	042H
	DB	048H
	DB	04aH
	DB	029H
	DB	042H
	DB	048H
	DB	04aH
	DB	028H
	DB	042H
	DB	049H
	DB	042H
	DB	048H
	DB	04aH
	DB	028H
	DB	042H
	DB	029H
	DB	042H
	DB	029H
	DB	04aH
	DB	028H
	DB	042H
	DB	028H
	DB	042H
	DB	029H
	DB	04aH
	DB	048H
	DB	042H
	DB	028H
	DB	042H
	DB	029H
	DB	04aH
	DB	029H
	DB	042H
	DB	048H
	DB	042H
	DB	028H
	DB	04aH
	DB	029H
	DB	042H
	DB	028H
	DB	042H
	DB	028H
	DB	04aH
	DB	029H
	DB	04aH
	DB	028H
	DB	042H
	DB	029H
	DB	04aH
	DB	048H
	DB	04aH
	DB	029H
	DB	042H
	DB	029H
	DB	04aH
	DB	028H
	DB	042H
	DB	028H
	DB	04aH
	DB	029H
	DB	04aH
	DB	028H
	DB	042H
	DB	048H
	DB	04aH
	DB	029H
	DB	04aH
	DB	028H
	DB	042H
	DB	029H
	DB	04aH
	DB	029H
	DB	04aH
	DB	028H
	DB	042H
	DB	049H
	DB	04aH
	DB	028H
	DB	042H
	DB	029H
	DB	042H
	DB	028H
	DB	04aH
	DB	029H
	DB	042H
	DB	028H
	DB	042H
	DB	049H
	DB	04aH
	DB	029H
	DB	04aH
	DB	029H
	DB	04aH
	DB	048H
	DB	042H
	DB	029H
	DB	04aH
	DB	029H
	DB	04aH
	DB	029H
	DB	04aH
	DB	049H
	DB	04aH
	DB	028H
	DB	04aH
	DB	029H
	DB	042H
	DB	028H
	DB	04aH
	DB	048H
	DB	04aH
	DB	029H
	DB	042H
	DB	029H
	DB	04aH
	DB	028H
	DB	04aH
	DB	028H
	DB	042H
	DB	028H
	DB	042H
	DB	029H
	DB	04aH
	DB	028H
	DB	04aH
	DB	029H
	DB	042H
	DB	048H
	DB	04aH
	DB	028H
	DB	04aH
	DB	049H
	DB	04aH
	DB	049H
	DB	042H
	DB	029H
	DB	04aH
	DB	048H
	DB	04aH
	DB	029H
	DB	042H
	DB	029H
	DB	04aH
	DB	048H
	DB	04aH
	DB	029H
	DB	042H
	DB	028H
	DB	04aH
	DB	048H
	DB	04aH
	DB	049H
	DB	04aH
	DB	029H
	DB	042H
	DB	049H
	DB	04aH
	DB	049H
	DB	042H
	DB	029H
	DB	04aH
	DB	028H
	DB	04aH
	DB	049H
	DB	042H
	DB	028H
	DB	04aH
	DB	048H
	DB	042H
	DB	049H
	DB	04aH
	DB	028H
	DB	04aH
	DB	049H
	DB	042H
	DB	029H
	DB	04aH
	DB	029H
	DB	042H
	DB	048H
	DB	04aH
	DB	049H
	DB	04aH
	DB	028H
	DB	042H
	DB	049H
	DB	04aH
	DB	029H
	DB	042H
	DB	029H
	DB	04aH
	DB	049H
	DB	04aH
	DB	049H
	DB	042H
	DB	028H
	DB	04aH
	DB	049H
	DB	042H
	DB	049H
	DB	04aH
	DB	028H
	DB	042H
	DB	049H
	DB	042H
	DB	049H
	DB	04aH
	DB	028H
	DB	04aH
	DB	049H
	DB	042H
	DB	049H
	DB	04aH
	DB	028H
	DB	04aH
	DB	049H
	DB	042H
	DB	029H
	DB	04aH
	DB	049H
	DB	04aH
	DB	028H
	DB	04aH
	DB	049H
	DB	04aH
	DB	029H
	DB	04aH
	DB	028H
	DB	04aH
	DB	049H
	DB	04aH
	DB	029H
	DB	04aH
	DB	029H
	DB	04aH
	DB	048H
	DB	042H
	DB	049H
	DB	04aH
	DB	029H
	DB	042H
	DB	048H
	DB	04aH
	DB	049H
	DB	042H
	DB	029H
	DB	04aH
	DB	028H
	DB	04aH
	DB	049H
	DB	04aH
	DB	049H
	DB	04aH
	DB	048H
	DB	04aH
	DB	049H
	DB	04aH
	DB	048H
	DB	04aH
	DB	029H
	DB	042H
	DB	048H
	DB	04aH
	DB	049H
	DB	04aH
	DB	048H
	DB	04aH
	DB	049H
	DB	042H
	DB	049H
	DB	04aH
	DB	048H
	DB	04aH
	DB	049H
	DB	04aH
	DB	029H
	DB	04aH
	DB	048H
	DB	04aH
	DB	049H
	DB	042H
	DB	029H
	DB	04aH
	DB	049H
	DB	04aH
	DB	049H
	DB	04aH
	DB	049H
	DB	042H
	DB	029H
	DB	04aH
	DB	049H
	DB	04aH
	DB	049H
	DB	042H
	DB	049H
	DB	04aH
	DB	049H
	DB	042H
	DB	029H
	DB	04aH
	DB	049H
	DB	04aH
	DB	049H
	DB	042H
	DB	049H
	DB	04aH
	DB	029H
	DB	04aH
	DB	049H
	DB	04aH
	DB	049H
	DB	04aH
	DB	049H
	DB	04aH
	DB	028H
	DB	042H
	DB	049H
	DB	04aH
	DB	028H
	DB	04aH
	DB	049H
	DB	042H
	DB	028H
	DB	04aH
	DB	049H
	DB	04aH
	DB	048H
	DB	04aH
	DB	029H
	DB	042H
	DB	049H
	DB	04aH
	DB	049H
	DB	042H
	DB	049H
	DB	042H
	DB	049H
	DB	04aH
	DB	029H
	DB	042H
	DB	048H
	DB	04aH
	DB	049H
	DB	042H
	DB	029H
	DB	04aH
	DB	048H
	DB	042H
	DB	049H
	DB	04aH
	DB	029H
	DB	04aH
	DB	028H
	DB	04aH
	DB	049H
	DB	04aH
	DB	028H
	DB	04aH
	DB	049H
	DB	04aH
	DB	029H
	DB	042H
	DB	049H
	DB	04aH
	DB	048H
	DB	04aH
	DB	049H
	DB	042H
	DB	048H
	DB	04aH
	DB	029H
	DB	04aH
	DB	048H
	DB	042H
	DB	029H
	DB	04aH
	DB	049H
	DB	04aH
	DB	048H
	DB	04aH
	DB	029H
	DB	04aH
	DB	049H
	DB	04aH
	DB	049H
	DB	04aH
	DB	029H
	DB	04aH
	DB	048H
	DB	04aH
	DB	049H
	DB	04aH
	DB	029H
	DB	04aH
	DB	049H
	DB	04aH
	DB	049H
	DB	04aH
	DB	029H
	DB	042H
	DB	049H
	DB	04aH
	DB	029H
	DB	04aH
	DB	049H
	DB	04aH
	DB	049H
	DB	04aH
	DB	029H
	DB	04aH
	DB	049H
	DB	04aH
	DB	049H
	DB	04aH
	DB	028H
	DB	04aH
	DB	049H
	DB	042H
	DB	049H
	DB	04aH
	DB	049H
	DB	04aH
	DB	048H
	DB	04aH
	DB	049H
	DB	04aH
	DB	049H
	DB	04aH
	DB	049H
	DB	04aH
	DB	049H
	DB	04aH
	DB	049H
	DB	04aH
	DB	049H
	DB	04aH
	DB	049H
	DB	04aH
	DB	049H
	DB	04aH
	DB	049H
	DB	04aH
	DB	029H
	DB	04aH
	DB	048H
	DB	04aH
	DB	049H
	DB	04aH
	DB	029H
	DB	042H
	DB	048H
	DB	04aH
	DB	049H
	DB	04aH
	DB	029H
	DB	042H
	DB	049H
	DB	04aH
	DB	049H
	DB	04aH
	DB	029H
	DB	042H
	DB	049H
	DB	04aH
	DB	049H
	DB	04aH
	DB	049H
	DB	042H
	DB	048H
	DB	04aH
	DB	049H
	DB	042H
	DB	049H
	DB	042H
	DB	028H
	DB	04aH
	DB	049H
	DB	04aH
	DB	049H
	DB	04aH
	DB	028H
	DB	04aH
	DB	049H
	DB	04aH
	DB	029H
	DB	04aH
	DB	029H
	DB	04aH
	DB	048H
	DB	04aH
	DB	049H
	DB	04aH
	DB	049H
	DB	04aH
	DB	028H
	DB	042H
	DB	049H
	DB	04aH
	DB	049H
	DB	04aH
	DB	049H
	DB	04aH
	DB	029H
	DB	04aH
	DB	049H
	DB	04aH
	DB	049H
	DB	04aH
	DB	029H
	DB	04aH
	DB	028H
	DB	04aH
	DB	049H
	DB	04aH
	DB	049H
	DB	04aH
	DB	029H
	DB	04aH
	DB	049H
	DB	04aH
	DB	048H
	DB	04aH
	DB	029H
	DB	04aH
	DB	049H
	DB	04aH
	DB	049H
	DB	04aH
	DB	029H
	DB	04aH
	DB	048H
	DB	04aH
	DB	049H
	DB	04aH
	DB	029H
	DB	04aH
	DB	048H
	DB	04aH
	DB	049H
	DB	04aH
	DB	049H
	DB	042H
	DB	028H
	DB	04aH
	DB	049H
	DB	04aH
	DB	049H
	DB	04aH
	DB	049H
	DB	04aH
	DB	049H
	DB	04aH
	DB	049H
	DB	04aH
	DB	049H
	DB	04aH
	DB	029H
	DB	04aH
	DB	049H
	DB	04aH
	DB	028H
	DB	04aH
	DB	049H
	DB	04aH
	DB	049H
	DB	04aH
	DB	048H
	DB	04aH
	DB	029H
	DB	04aH
	DB	049H
	DB	04aH
	DB	048H
	DB	042H
	DB	049H
	DB	04aH
	DB	029H
	DB	042H
	DB	028H
	DB	04aH
	DB	028H
	DB	042H
	DB	028H
	DB	042H
	DB	028H
	DB	04aH
	DB	029H
	DB	042H
	DB	08H
	DB	042H
	DB	028H
	DB	042H
	DB	029H
	DB	042H
	DB	028H
	DB	04aH
	DB	08H
	DB	042H
	DB	029H
	DB	042H
	DB	028H
	DB	042H
	DB	08H
	DB	04aH
	DB	029H
	DB	042H
	DB	028H
	DB	042H
	DB	028H
	DB	042H
	DB	028H
	DB	042H
	DB	028H
	DB	042H
	DB	028H
	DB	04aH
	DB	028H
	DB	042H
	DB	028H
	DB	04aH
	DB	08H
	DB	042H
	DB	028H
	DB	042H
	DB	028H
	DB	04aH
	DB	028H
	DB	042H
	DB	028H
	DB	042H
	DB	08H
	DB	04aH
	DB	028H
	DB	042H
	DB	028H
	DB	042H
	DB	08H
	DB	042H
	DB	028H
	DB	042H
	DB	028H
	DB	04aH
	DB	08H
	DB	042H
	DB	028H
	DB	04aH
	DB	028H
	DB	042H
	DB	09H
	DB	042H
	DB	028H
	DB	042H
	DB	08H
	DB	042H
	DB	028H
	DB	04aH
	DB	028H
	DB	042H
	DB	08H
	DB	042H
	DB	028H
	DB	042H
	DB	028H
	DB	042H
	DB	08H
	DB	042H
	DB	028H
	DB	042H
	DB	08H
	DB	042H
	DB	029H
	DB	042H
	DB	028H
	DB	04aH
	DB	08H
	DB	042H
	DB	029H
	DB	042H
	DB	028H
	DB	042H
	DB	09H
	DB	042H
	DB	028H
	DB	04aH
	DB	029H
	DB	042H
	DB	08H
	DB	042H
	DB	028H
	DB	04aH
	DB	028H
	DB	042H
	DB	08H
	DB	042H
	DB	028H
	DB	04aH
	DB	028H
	DB	042H
	DB	028H
	DB	042H
	DB	029H
	DB	042H
	DB	08H
	DB	042H
	DB	028H
	DB	042H
	DB	028H
	DB	042H
	DB	028H
	DB	04aH
	DB	028H
	DB	042H
	DB	029H
	DB	042H
	DB	08H
	DB	042H
	DB	028H
	DB	04aH
	DB	028H
	DB	042H
	DB	08H
	DB	042H
	DB	09H
	DB	042H
	DB	028H
	DB	042H
	DB	028H
	DB	042H
	DB	08H
	DB	04aH
	DB	028H
	DB	042H
	DB	028H
	DB	042H
	DB	028H
	DB	042H
	DB	029H
	DB	04aH
	DB	066H
	DB	031H
	DB	029H
	DB	042H
	DB	028H
	DB	042H
	DB	028H
	DB	04aH
	DB	09H
	DB	042H
	DB	028H
	DB	042H
	DB	028H
	DB	04aH
	DB	028H
	DB	042H
	DB	08H
	DB	042H
	DB	028H
	DB	042H
	DB	029H
	DB	042H
	DB	028H
	DB	042H
	DB	028H
	DB	042H
	DB	028H
	DB	04aH
	DB	028H
	DB	042H
	DB	028H
	DB	04aH
	DB	028H
	DB	042H
	DB	09H
	DB	042H
	DB	08H
	DB	042H
	DB	08H
	DB	042H
	DB	028H
	DB	04aH
	DB	028H
	DB	042H
	DB	028H
	DB	042H
	DB	028H
	DB	04aH
	DB	08H
	DB	042H
	DB	08H
	DB	042H
	DB	08H
	DB	04aH
	DB	08H
	DB	042H
	DB	028H
	DB	042H
	DB	028H
	DB	042H
	DB	08H
	DB	04aH
	DB	028H
	DB	042H
	DB	028H
	DB	04aH
	DB	08H
	DB	04aH
	DB	028H
	DB	042H
	DB	028H
	DB	04aH
	DB	09H
	DB	042H
	DB	08H
	DB	042H
	DB	028H
	DB	04aH
	DB	029H
	DB	042H
	DB	08H
	DB	042H
	DB	08H
	DB	04aH
	DB	028H
	DB	042H
	DB	08H
	DB	04aH
	DB	09H
	DB	042H
	DB	028H
	DB	04aH
	DB	08H
	DB	042H
	DB	08H
	DB	042H
	DB	028H
	DB	042H
	DB	09H
	DB	042H
	DB	028H
	DB	042H
	DB	028H
	DB	042H
	DB	08H
	DB	042H
	DB	028H
	DB	04aH
	DB	08H
	DB	042H
	DB	08H
	DB	042H
	DB	028H
	DB	042H
	DB	08H
	DB	042H
	DB	028H
	DB	042H
	DB	028H
	DB	042H
	DB	08H
	DB	042H
	DB	028H
	DB	04aH
	DB	08H
	DB	042H
	DB	028H
	DB	042H
	DB	028H
	DB	042H
	DB	08H
	DB	04aH
	DB	028H
	DB	042H
	DB	08H
	DB	042H
	DB	028H
	DB	042H
	DB	029H
	DB	042H
	DB	08H
	DB	042H
	DB	028H
	DB	042H
	DB	028H
	DB	042H
	DB	08H
	DB	042H
	DB	028H
	DB	042H
	DB	028H
	DB	042H
	DB	08H
	DB	04aH
	DB	08H
	DB	042H
	DB	028H
	DB	04aH
	DB	028H
	DB	04aH
	DB	08H
	DB	042H
	DB	028H
	DB	042H
	DB	028H
	DB	04aH
	DB	028H
	DB	04aH
	DB	028H
	DB	042H
	DB	028H
	DB	04aH
	DB	028H
	DB	04aH
	DB	029H
	DB	042H
	DB	029H
	DB	042H
	DB	028H
	DB	04aH
	DB	029H
	DB	042H
	DB	029H
	DB	042H
	DB	028H
	DB	04aH
	DB	028H
	DB	042H
	DB	029H
	DB	042H
	DB	028H
	DB	04aH
	DB	028H
	DB	042H
	DB	029H
	DB	042H
	DB	029H
	DB	04aH
	DB	028H
	DB	042H
	DB	028H
	DB	04aH
	DB	029H
	DB	042H
	DB	028H
	DB	04aH
	DB	028H
	DB	042H
	DB	049H
	DB	04aH
	DB	028H
	DB	042H
	DB	029H
	DB	042H
	DB	048H
	DB	04aH
	DB	028H
	DB	042H
	DB	029H
	DB	042H
	DB	028H
	DB	04aH
	DB	028H
	DB	042H
	DB	049H
	DB	042H
	DB	028H
	DB	042H
	DB	028H
	DB	04aH
	DB	029H
	DB	042H
	DB	048H
	DB	042H
	DB	028H
	DB	04aH
	DB	028H
	DB	042H
	DB	029H
	DB	042H
	DB	028H
	DB	04aH
	DB	028H
	DB	04aH
	DB	029H
	DB	042H
	DB	029H
	DB	04aH
	DB	048H
	DB	04aH
	DB	029H
	DB	042H
	DB	028H
	DB	04aH
	DB	049H
	DB	04aH
	DB	029H
	DB	042H
	DB	028H
	DB	04aH
	DB	049H
	DB	04aH
	DB	028H
	DB	04aH
	DB	028H
	DB	042H
	DB	029H
	DB	04aH
	DB	028H
	DB	04aH
	DB	048H
	DB	042H
	DB	029H
	DB	04aH
	DB	028H
	DB	042H
	DB	048H
	DB	04aH
	DB	029H
	DB	042H
	DB	029H
	DB	04aH
	DB	028H
	DB	042H
	DB	029H
	DB	04aH
	DB	028H
	DB	04aH
	DB	029H
	DB	042H
	DB	028H
	DB	042H
	DB	048H
	DB	04aH
	DB	029H
	DB	042H
	DB	048H
	DB	04aH
	DB	028H
	DB	04aH
	DB	029H
	DB	042H
	DB	028H
	DB	04aH
	DB	029H
	DB	04aH
	DB	049H
	DB	042H
	DB	028H
	DB	04aH
	DB	029H
	DB	04aH
	DB	029H
	DB	042H
	DB	028H
	DB	04aH
	DB	049H
	DB	04aH
	DB	029H
	DB	042H
	DB	049H
	DB	042H
	DB	028H
	DB	042H
	DB	028H
	DB	04aH
	DB	049H
	DB	042H
	DB	028H
	DB	042H
	DB	028H
	DB	04aH
	DB	049H
	DB	042H
	DB	029H
	DB	042H
	DB	028H
	DB	042H
	DB	049H
	DB	04aH
	DB	029H
	DB	042H
	DB	028H
	DB	042H
	DB	049H
	DB	04aH
	DB	028H
	DB	042H
	DB	028H
	DB	042H
	DB	049H
	DB	04aH
	DB	028H
	DB	042H
	DB	028H
	DB	04aH
	DB	029H
	DB	04aH
	DB	048H
	DB	04aH
	DB	048H
	DB	04aH
	DB	029H
	DB	04aH
	DB	028H
	DB	04aH
	DB	028H
	DB	042H
	DB	049H
	DB	04aH
	DB	028H
	DB	04aH
	DB	028H
	DB	042H
	DB	029H
	DB	04aH
	DB	028H
	DB	042H
	DB	048H
	DB	042H
	DB	029H
	DB	04aH
	DB	028H
	DB	04aH
	DB	028H
	DB	042H
	DB	029H
	DB	04aH
	DB	028H
	DB	04aH
	DB	029H
	DB	042H
	DB	049H
	DB	04aH
	DB	049H
	DB	04aH
	DB	049H
	DB	042H
	DB	049H
	DB	04aH
	DB	049H
	DB	042H
	DB	028H
	DB	04aH
	DB	029H
	DB	04aH
	DB	029H
	DB	042H
	DB	049H
	DB	04aH
	DB	028H
	DB	04aH
	DB	029H
	DB	042H
	DB	048H
	DB	04aH
	DB	029H
	DB	04aH
	DB	049H
	DB	042H
	DB	028H
	DB	04aH
	DB	049H
	DB	04aH
	DB	029H
	DB	042H
	DB	049H
	DB	042H
	DB	028H
	DB	04aH
	DB	049H
	DB	04aH
	DB	048H
	DB	04aH
	DB	028H
	DB	042H
	DB	049H
	DB	04aH
	DB	028H
	DB	04aH
	DB	049H
	DB	042H
	DB	049H
	DB	04aH
	DB	029H
	DB	04aH
	DB	028H
	DB	042H
	DB	049H
	DB	04aH
	DB	029H
	DB	042H
	DB	048H
	DB	04aH
	DB	048H
	DB	04aH
	DB	029H
	DB	042H
	DB	029H
	DB	04aH
	DB	048H
	DB	042H
	DB	029H
	DB	04aH
	DB	048H
	DB	04aH
	DB	049H
	DB	042H
	DB	028H
	DB	04aH
	DB	028H
	DB	04aH
	DB	049H
	DB	042H
	DB	028H
	DB	04aH
	DB	029H
	DB	04aH
	DB	049H
	DB	04aH
	DB	028H
	DB	04aH
	DB	029H
	DB	04aH
	DB	048H
	DB	04aH
	DB	029H
	DB	04aH
	DB	029H
	DB	04aH
	DB	048H
	DB	04aH
	DB	029H
	DB	04aH
	DB	028H
	DB	04aH
	DB	049H
	DB	042H
	DB	028H
	DB	04aH
	DB	049H
	DB	04aH
	DB	048H
	DB	042H
	DB	029H
	DB	04aH
	DB	048H
	DB	04aH
	DB	048H
	DB	042H
	DB	029H
	DB	04aH
	DB	028H
	DB	04aH
	DB	049H
	DB	042H
	DB	049H
	DB	042H
	DB	048H
	DB	04aH
	DB	049H
	DB	042H
	DB	048H
	DB	04aH
	DB	049H
	DB	042H
	DB	048H
	DB	042H
	DB	049H
	DB	04aH
	DB	029H
	DB	042H
	DB	048H
	DB	042H
	DB	049H
	DB	04aH
	DB	029H
	DB	04aH
	DB	048H
	DB	042H
	DB	029H
	DB	04aH
	DB	049H
	DB	042H
	DB	028H
	DB	04aH
	DB	029H
	DB	04aH
	DB	049H
	DB	042H
	DB	028H
	DB	042H
	DB	049H
	DB	04aH
	DB	048H
	DB	04aH
	DB	029H
	DB	042H
	DB	049H
	DB	04aH
	DB	048H
	DB	04aH
	DB	029H
	DB	042H
	DB	049H
	DB	04aH
	DB	048H
	DB	04aH
	DB	029H
	DB	042H
	DB	049H
	DB	04aH
	DB	048H
	DB	04aH
	DB	029H
	DB	042H
	DB	049H
	DB	04aH
	DB	048H
	DB	04aH
	DB	029H
	DB	042H
	DB	049H
	DB	04aH
	DB	028H
	DB	04aH
	DB	049H
	DB	042H
	DB	049H
	DB	04aH
	DB	048H
	DB	04aH
	DB	049H
	DB	042H
	DB	049H
	DB	04aH
	DB	049H
	DB	04aH
	DB	049H
	DB	04aH
	DB	029H
	DB	04aH
	DB	049H
	DB	042H
	DB	049H
	DB	04aH
	DB	049H
	DB	04aH
	DB	048H
	DB	04aH
	DB	029H
	DB	04aH
	DB	049H
	DB	04aH
	DB	048H
	DB	04aH
	DB	029H
	DB	04aH
	DB	049H
	DB	04aH
	DB	049H
	DB	042H
	DB	029H
	DB	04aH
	DB	048H
	DB	04aH
	DB	049H
	DB	04aH
	DB	049H
	DB	04aH
	DB	049H
	DB	04aH
	DB	049H
	DB	042H
	DB	048H
	DB	04aH
	DB	049H
	DB	04aH
	DB	029H
	DB	04aH
	DB	048H
	DB	04aH
	DB	049H
	DB	04aH
	DB	029H
	DB	04aH
	DB	049H
	DB	04aH
	DB	049H
	DB	04aH
	DB	048H
	DB	04aH
	DB	049H
	DB	04aH
	DB	029H
	DB	04aH
	DB	048H
	DB	04aH
	DB	049H
	DB	04aH
	DB	049H
	DB	042H
	DB	049H
	DB	04aH
	DB	049H
	DB	04aH
	DB	029H
	DB	042H
	DB	049H
	DB	04aH
	DB	048H
	DB	04aH
	DB	049H
	DB	04aH
	DB	048H
	DB	04aH
	DB	049H
	DB	04aH
	DB	049H
	DB	04aH
	DB	028H
	DB	04aH
	DB	049H
	DB	04aH
	DB	049H
	DB	04aH
	DB	029H
	DB	04aH
	DB	049H
	DB	04aH
	DB	049H
	DB	04aH
	DB	049H
	DB	04aH
	DB	029H
	DB	04aH
	DB	049H
	DB	04aH
	DB	049H
	DB	04aH
	DB	029H
	DB	042H
	DB	049H
	DB	04aH
	DB	029H
	DB	04aH
	DB	049H
	DB	04aH
	DB	029H
	DB	04aH
	DB	049H
	DB	04aH
	DB	029H
	DB	04aH
	DB	049H
	DB	042H
	DB	029H
	DB	04aH
	DB	049H
	DB	04aH
	DB	049H
	DB	042H
	DB	049H
	DB	04aH
	DB	049H
	DB	04aH
	DB	049H
	DB	04aH
	DB	029H
	DB	04aH
	DB	049H
	DB	04aH
	DB	048H
	DB	04aH
	DB	049H
	DB	04aH
	DB	049H
	DB	04aH
	DB	049H
	DB	04aH
	DB	029H
	DB	04aH
	DB	048H
	DB	04aH
	DB	029H
	DB	04aH
	DB	049H
	DB	04aH
	DB	049H
	DB	04aH
	DB	049H
	DB	04aH
	DB	049H
	DB	04aH
	DB	049H
	DB	04aH
	DB	049H
	DB	04aH
	DB	049H
	DB	042H
	DB	048H
	DB	04aH
	DB	049H
	DB	04aH
	DB	049H
	DB	04aH
	DB	049H
	DB	04aH
	DB	029H
	DB	04aH
	DB	049H
	DB	04aH
	DB	049H
	DB	04aH
	DB	049H
	DB	04aH
	DB	029H
	DB	04aH
	DB	049H
	DB	04aH
	DB	049H
	DB	04aH
	DB	049H
	DB	04aH
	DB	029H
	DB	04aH
	DB	049H
	DB	04aH
	DB	049H
	DB	04aH
	DB	049H
	DB	04aH
	DB	049H
	DB	04aH
	DB	029H
	DB	04aH
	DB	049H
	DB	042H
	DB	049H
	DB	04aH
	DB	049H
	DB	04aH
	DB	049H
	DB	04aH
	DB	029H
	DB	04aH
	DB	049H
	DB	04aH
	DB	049H
	DB	04aH
	DB	049H
	DB	04aH
	DB	029H
	DB	04aH
	DB	049H
	DB	04aH
	DB	049H
	DB	04aH
	DB	029H
	DB	04aH
	DB	049H
	DB	04aH
	DB	049H
	DB	04aH
	DB	029H
	DB	042H
	DB	048H
	DB	04aH
	DB	028H
	DB	04aH
	DB	049H
	DB	042H
	DB	049H
	DB	04aH
	DB	028H
	DB	04aH
	DB	049H
	DB	042H
	DB	049H
	DB	04aH
	DB	049H
	DB	04aH
	DB	029H
	DB	04aH
	DB	048H
	DB	04aH
	DB	049H
	DB	04aH
	DB	049H
	DB	04aH
	DB	028H
	DB	04aH
	DB	049H
	DB	04aH
	DB	049H
	DB	04aH
	DB	028H
	DB	042H
	DB	029H
	DB	042H
	DB	028H
	DB	042H
	DB	028H
	DB	042H
	DB	08H
	DB	04aH
	DB	028H
	DB	042H
	DB	028H
	DB	04aH
	DB	09H
	DB	042H
	DB	028H
	DB	042H
	DB	028H
	DB	04aH
	DB	028H
	DB	042H
	DB	08H
	DB	042H
	DB	028H
	DB	042H
	DB	028H
	DB	04aH
	DB	08H
	DB	042H
	DB	028H
	DB	042H
	DB	08H
	DB	04aH
	DB	029H
	DB	042H
	DB	08H
	DB	042H
	DB	028H
	DB	042H
	DB	029H
	DB	042H
	DB	028H
	DB	042H
	DB	028H
	DB	042H
	DB	09H
	DB	042H
	DB	028H
	DB	04aH
	DB	028H
	DB	042H
	DB	028H
	DB	042H
	DB	029H
	DB	04aH
	DB	028H
	DB	042H
	DB	08H
	DB	042H
	DB	028H
	DB	04aH
	DB	028H
	DB	042H
	DB	028H
	DB	042H
	DB	028H
	DB	042H
	DB	028H
	DB	042H
	DB	028H
	DB	04aH
	DB	028H
	DB	042H
	DB	028H
	DB	042H
	DB	08H
	DB	04aH
	DB	029H
	DB	042H
	DB	028H
	DB	042H
	DB	028H
	DB	04aH
	DB	029H
	DB	042H
	DB	028H
	DB	04aH
	DB	028H
	DB	042H
	DB	08H
	DB	042H
	DB	028H
	DB	04aH
	DB	028H
	DB	042H
	DB	08H
	DB	042H
	DB	028H
	DB	042H
	DB	028H
	DB	04aH
	DB	028H
	DB	042H
	DB	08H
	DB	042H
	DB	028H
	DB	042H
	DB	029H
	DB	042H
	DB	028H
	DB	042H
	DB	028H
	DB	04aH
	DB	029H
	DB	042H
	DB	029H
	DB	042H
	DB	08H
	DB	04aH
	DB	028H
	DB	042H
	DB	029H
	DB	042H
	DB	08H
	DB	04aH
	DB	028H
	DB	042H
	DB	029H
	DB	042H
	DB	08H
	DB	042H
	DB	028H
	DB	042H
	DB	028H
	DB	04aH
	DB	08H
	DB	042H
	DB	028H
	DB	042H
	DB	029H
	DB	042H
	DB	028H
	DB	04aH
	DB	028H
	DB	042H
	DB	028H
	DB	042H
	DB	028H
	DB	04aH
	DB	09H
	DB	042H
	DB	028H
	DB	042H
	DB	028H
	DB	042H
	DB	028H
	DB	042H
	DB	028H
	DB	042H
	DB	029H
	DB	04aH
	DB	086H
	DB	031H
	DB	028H
	DB	042H
	DB	028H
	DB	042H
	DB	028H
	DB	042H
	DB	028H
	DB	04aH
	DB	08H
	DB	042H
	DB	028H
	DB	042H
	DB	028H
	DB	04aH
	DB	08H
	DB	04aH
	DB	028H
	DB	042H
	DB	08H
	DB	04aH
	DB	028H
	DB	042H
	DB	028H
	DB	042H
	DB	028H
	DB	042H
	DB	028H
	DB	042H
	DB	08H
	DB	042H
	DB	028H
	DB	04aH
	DB	08H
	DB	042H
	DB	028H
	DB	042H
	DB	09H
	DB	04aH
	DB	028H
	DB	042H
	DB	028H
	DB	042H
	DB	08H
	DB	042H
	DB	08H
	DB	042H
	DB	029H
	DB	042H
	DB	028H
	DB	042H
	DB	028H
	DB	04aH
	DB	08H
	DB	042H
	DB	029H
	DB	042H
	DB	028H
	DB	042H
	DB	08H
	DB	042H
	DB	08H
	DB	042H
	DB	028H
	DB	042H
	DB	09H
	DB	042H
	DB	08H
	DB	042H
	DB	028H
	DB	042H
	DB	028H
	DB	04aH
	DB	08H
	DB	042H
	DB	028H
	DB	042H
	DB	028H
	DB	042H
	DB	08H
	DB	042H
	DB	028H
	DB	042H
	DB	029H
	DB	042H
	DB	08H
	DB	042H
	DB	028H
	DB	04aH
	DB	028H
	DB	042H
	DB	08H
	DB	042H
	DB	029H
	DB	04aH
	DB	028H
	DB	042H
	DB	08H
	DB	042H
	DB	08H
	DB	04aH
	DB	028H
	DB	042H
	DB	09H
	DB	042H
	DB	028H
	DB	042H
	DB	028H
	DB	042H
	DB	09H
	DB	04aH
	DB	028H
	DB	042H
	DB	08H
	DB	04aH
	DB	09H
	DB	04aH
	DB	028H
	DB	042H
	DB	028H
	DB	042H
	DB	09H
	DB	042H
	DB	08H
	DB	042H
	DB	028H
	DB	04aH
	DB	09H
	DB	042H
	DB	08H
	DB	042H
	DB	028H
	DB	042H
	DB	09H
	DB	042H
	DB	08H
	DB	04aH
	DB	08H
	DB	04aH
	DB	08H
	DB	042H
	DB	028H
	DB	04aH
	DB	09H
	DB	04aH
	DB	08H
	DB	042H
	DB	028H
	DB	04aH
	DB	09H
	DB	042H
	DB	028H
	DB	042H
	DB	08H
	DB	042H
	DB	029H
	DB	042H
	DB	08H
	DB	042H
	DB	028H
	DB	042H
	DB	028H
	DB	042H
	DB	028H
	DB	042H
	DB	028H
	DB	042H
	DB	029H
	DB	042H
	DB	029H
	DB	04aH
	DB	028H
	DB	042H
	DB	028H
	DB	042H
	DB	028H
	DB	04aH
	DB	029H
	DB	042H
	DB	028H
	DB	042H
	DB	028H
	DB	04aH
	DB	029H
	DB	042H
	DB	028H
	DB	042H
	DB	029H
	DB	04aH
	DB	028H
	DB	042H
	DB	028H
	DB	04aH
	DB	029H
	DB	042H
	DB	028H
	DB	042H
	DB	028H
	DB	04aH
	DB	029H
	DB	042H
	DB	028H
	DB	042H
	DB	048H
	DB	04aH
	DB	029H
	DB	042H
	DB	028H
	DB	042H
	DB	048H
	DB	04aH
	DB	029H
	DB	042H
	DB	028H
	DB	042H
	DB	028H
	DB	04aH
	DB	049H
	DB	042H
	DB	028H
	DB	04aH
	DB	028H
	DB	04aH
	DB	029H
	DB	042H
	DB	028H
	DB	042H
	DB	028H
	DB	04aH
	DB	029H
	DB	042H
	DB	029H
	DB	042H
	DB	048H
	DB	04aH
	DB	028H
	DB	042H
	DB	029H
	DB	042H
	DB	048H
	DB	042H
	DB	028H
	DB	04aH
	DB	028H
	DB	042H
	DB	048H
	DB	04aH
	DB	029H
	DB	042H
	DB	028H
	DB	04aH
	DB	028H
	DB	042H
	DB	028H
	DB	042H
	DB	029H
	DB	04aH
	DB	048H
	DB	042H
	DB	029H
	DB	042H
	DB	029H
	DB	04aH
	DB	048H
	DB	042H
	DB	048H
	DB	042H
	DB	029H
	DB	04aH
	DB	028H
	DB	042H
	DB	028H
	DB	042H
	DB	049H
	DB	04aH
	DB	028H
	DB	04aH
	DB	028H
	DB	042H
	DB	048H
	DB	042H
	DB	028H
	DB	04aH
	DB	029H
	DB	042H
	DB	048H
	DB	04aH
	DB	028H
	DB	04aH
	DB	029H
	DB	042H
	DB	028H
	DB	04aH
	DB	028H
	DB	04aH
	DB	049H
	DB	042H
	DB	028H
	DB	042H
	DB	048H
	DB	04aH
	DB	028H
	DB	042H
	DB	028H
	DB	04aH
	DB	029H
	DB	042H
	DB	048H
	DB	042H
	DB	028H
	DB	04aH
	DB	029H
	DB	042H
	DB	048H
	DB	042H
	DB	028H
	DB	04aH
	DB	029H
	DB	04aH
	DB	028H
	DB	042H
	DB	048H
	DB	04aH
	DB	029H
	DB	04aH
	DB	028H
	DB	042H
	DB	028H
	DB	04aH
	DB	029H
	DB	04aH
	DB	048H
	DB	04aH
	DB	028H
	DB	042H
	DB	029H
	DB	04aH
	DB	048H
	DB	04aH
	DB	029H
	DB	04aH
	DB	028H
	DB	04aH
	DB	029H
	DB	04aH
	DB	049H
	DB	04aH
	DB	028H
	DB	04aH
	DB	029H
	DB	042H
	DB	049H
	DB	04aH
	DB	028H
	DB	04aH
	DB	029H
	DB	042H
	DB	029H
	DB	04aH
	DB	028H
	DB	042H
	DB	049H
	DB	04aH
	DB	029H
	DB	04aH
	DB	028H
	DB	042H
	DB	029H
	DB	042H
	DB	028H
	DB	04aH
	DB	049H
	DB	04aH
	DB	028H
	DB	042H
	DB	028H
	DB	04aH
	DB	029H
	DB	04aH
	DB	028H
	DB	042H
	DB	049H
	DB	04aH
	DB	049H
	DB	042H
	DB	048H
	DB	04aH
	DB	049H
	DB	042H
	DB	048H
	DB	04aH
	DB	028H
	DB	042H
	DB	049H
	DB	04aH
	DB	028H
	DB	04aH
	DB	049H
	DB	04aH
	DB	049H
	DB	042H
	DB	048H
	DB	04aH
	DB	049H
	DB	04aH
	DB	049H
	DB	042H
	DB	028H
	DB	042H
	DB	049H
	DB	04aH
	DB	028H
	DB	04aH
	DB	049H
	DB	042H
	DB	049H
	DB	04aH
	DB	028H
	DB	04aH
	DB	048H
	DB	042H
	DB	029H
	DB	04aH
	DB	049H
	DB	04aH
	DB	048H
	DB	042H
	DB	029H
	DB	04aH
	DB	029H
	DB	042H
	DB	049H
	DB	04aH
	DB	028H
	DB	04aH
	DB	029H
	DB	042H
	DB	049H
	DB	04aH
	DB	028H
	DB	042H
	DB	049H
	DB	04aH
	DB	029H
	DB	04aH
	DB	048H
	DB	042H
	DB	029H
	DB	04aH
	DB	029H
	DB	04aH
	DB	048H
	DB	042H
	DB	049H
	DB	04aH
	DB	029H
	DB	04aH
	DB	048H
	DB	042H
	DB	029H
	DB	04aH
	DB	029H
	DB	04aH
	DB	049H
	DB	042H
	DB	048H
	DB	04aH
	DB	029H
	DB	042H
	DB	049H
	DB	04aH
	DB	048H
	DB	042H
	DB	029H
	DB	04aH
	DB	049H
	DB	042H
	DB	048H
	DB	042H
	DB	029H
	DB	04aH
	DB	049H
	DB	04aH
	DB	028H
	DB	042H
	DB	049H
	DB	042H
	DB	048H
	DB	04aH
	DB	029H
	DB	042H
	DB	049H
	DB	04aH
	DB	048H
	DB	04aH
	DB	029H
	DB	04aH
	DB	029H
	DB	042H
	DB	048H
	DB	04aH
	DB	029H
	DB	04aH
	DB	029H
	DB	042H
	DB	049H
	DB	04aH
	DB	029H
	DB	04aH
	DB	048H
	DB	042H
	DB	049H
	DB	04aH
	DB	049H
	DB	04aH
	DB	028H
	DB	04aH
	DB	049H
	DB	04aH
	DB	049H
	DB	04aH
	DB	028H
	DB	04aH
	DB	049H
	DB	04aH
	DB	049H
	DB	042H
	DB	048H
	DB	04aH
	DB	049H
	DB	04aH
	DB	029H
	DB	042H
	DB	048H
	DB	04aH
	DB	049H
	DB	042H
	DB	049H
	DB	04aH
	DB	048H
	DB	04aH
	DB	049H
	DB	042H
	DB	049H
	DB	042H
	DB	048H
	DB	04aH
	DB	049H
	DB	04aH
	DB	049H
	DB	042H
	DB	028H
	DB	04aH
	DB	049H
	DB	042H
	DB	049H
	DB	042H
	DB	048H
	DB	04aH
	DB	048H
	DB	04aH
	DB	029H
	DB	042H
	DB	049H
	DB	042H
	DB	049H
	DB	04aH
	DB	049H
	DB	04aH
	DB	048H
	DB	042H
	DB	029H
	DB	04aH
	DB	049H
	DB	04aH
	DB	048H
	DB	042H
	DB	049H
	DB	04aH
	DB	049H
	DB	04aH
	DB	048H
	DB	04aH
	DB	049H
	DB	04aH
	DB	049H
	DB	04aH
	DB	028H
	DB	042H
	DB	029H
	DB	04aH
	DB	049H
	DB	04aH
	DB	048H
	DB	04aH
	DB	029H
	DB	042H
	DB	049H
	DB	04aH
	DB	048H
	DB	04aH
	DB	049H
	DB	04aH
	DB	029H
	DB	042H
	DB	049H
	DB	04aH
	DB	049H
	DB	04aH
	DB	048H
	DB	042H
	DB	029H
	DB	04aH
	DB	049H
	DB	04aH
	DB	048H
	DB	04aH
	DB	049H
	DB	04aH
	DB	049H
	DB	04aH
	DB	048H
	DB	04aH
	DB	049H
	DB	042H
	DB	029H
	DB	04aH
	DB	048H
	DB	04aH
	DB	049H
	DB	04aH
	DB	029H
	DB	04aH
	DB	049H
	DB	04aH
	DB	049H
	DB	04aH
	DB	049H
	DB	04aH
	DB	048H
	DB	04aH
	DB	049H
	DB	04aH
	DB	029H
	DB	04aH
	DB	049H
	DB	04aH
	DB	049H
	DB	04aH
	DB	029H
	DB	04aH
	DB	049H
	DB	04aH
	DB	049H
	DB	04aH
	DB	029H
	DB	04aH
	DB	049H
	DB	04aH
	DB	048H
	DB	04aH
	DB	028H
	DB	04aH
	DB	049H
	DB	04aH
	DB	049H
	DB	04aH
	DB	028H
	DB	04aH
	DB	049H
	DB	04aH
	DB	049H
	DB	042H
	DB	029H
	DB	04aH
	DB	049H
	DB	04aH
	DB	049H
	DB	04aH
	DB	049H
	DB	04aH
	DB	049H
	DB	042H
	DB	048H
	DB	04aH
	DB	049H
	DB	04aH
	DB	049H
	DB	042H
	DB	049H
	DB	04aH
	DB	029H
	DB	04aH
	DB	049H
	DB	042H
	DB	049H
	DB	04aH
	DB	029H
	DB	04aH
	DB	049H
	DB	04aH
	DB	049H
	DB	04aH
	DB	049H
	DB	04aH
	DB	028H
	DB	042H
	DB	049H
	DB	04aH
	DB	049H
	DB	04aH
	DB	048H
	DB	04aH
	DB	049H
	DB	04aH
	DB	029H
	DB	04aH
	DB	048H
	DB	04aH
	DB	049H
	DB	04aH
	DB	028H
	DB	04aH
	DB	049H
	DB	04aH
	DB	048H
	DB	04aH
	DB	049H
	DB	04aH
	DB	029H
	DB	042H
	DB	049H
	DB	04aH
	DB	048H
	DB	04aH
	DB	048H
	DB	04aH
	DB	049H
	DB	04aH
	DB	049H
	DB	04aH
	DB	049H
	DB	04aH
	DB	048H
	DB	04aH
	DB	049H
	DB	04aH
	DB	048H
	DB	042H
	DB	049H
	DB	04aH
	DB	048H
	DB	04aH
	DB	029H
	DB	04aH
	DB	049H
	DB	04aH
	DB	028H
	DB	04aH
	DB	049H
	DB	04aH
	DB	049H
	DB	04aH
	DB	048H
	DB	042H
	DB	049H
	DB	04aH
	DB	049H
	DB	04aH
	DB	029H
	DB	04aH
	DB	049H
	DB	04aH
	DB	049H
	DB	04aH
	DB	049H
	DB	042H
	DB	028H
	DB	04aH
	DB	049H
	DB	04aH
	DB	049H
	DB	042H
	DB	048H
	DB	04aH
	DB	029H
	DB	04aH
	DB	049H
	DB	042H
	DB	049H
	DB	04aH
	DB	049H
	DB	04aH
	DB	049H
	DB	04aH
	DB	048H
	DB	04aH
	DB	029H
	DB	04aH
	DB	049H
	DB	04aH
	DB	049H
	DB	042H
	DB	048H
	DB	04aH
	DB	049H
	DB	04aH
	DB	049H
	DB	042H
	DB	029H
	DB	04aH
	DB	049H
	DB	04aH
	DB	049H
	DB	042H
	DB	049H
	DB	04aH
	DB	028H
	DB	04aH
	DB	049H
	DB	04aH
	DB	049H
	DB	04aH
	DB	048H
	DB	04aH
	DB	049H
	DB	04aH
	DB	029H
	DB	04aH
	DB	049H
	DB	04aH
	DB	048H
	DB	04aH
	DB	049H
	DB	04aH
	DB	049H
	DB	04aH
	DB	048H
	DB	04aH
	DB	049H
	DB	04aH
	DB	049H
	DB	042H
	DB	029H
	DB	04aH
	DB	049H
	DB	04aH
	DB	049H
	DB	042H
	DB	049H
	DB	04aH
	DB	029H
	DB	04aH
	DB	048H
	DB	04aH
	DB	028H
	DB	04aH
	DB	029H
	DB	04aH
	DB	028H
	DB	042H
	DB	028H
	DB	042H
	DB	09H
	DB	042H
	DB	028H
	DB	042H
	DB	028H
	DB	042H
	DB	028H
	DB	04aH
	DB	08H
	DB	042H
	DB	028H
	DB	042H
	DB	029H
	DB	04aH
	DB	028H
	DB	042H
	DB	029H
	DB	042H
	DB	028H
	DB	042H
	DB	028H
	DB	042H
	DB	08H
	DB	04aH
	DB	028H
	DB	042H
	DB	028H
	DB	042H
	DB	028H
	DB	04aH
	DB	08H
	DB	042H
	DB	028H
	DB	04aH
	DB	028H
	DB	042H
	DB	028H
	DB	042H
	DB	028H
	DB	04aH
	DB	08H
	DB	042H
	DB	028H
	DB	042H
	DB	08H
	DB	042H
	DB	028H
	DB	042H
	DB	028H
	DB	042H
	DB	028H
	DB	042H
	DB	09H
	DB	04aH
	DB	028H
	DB	042H
	DB	028H
	DB	042H
	DB	09H
	DB	042H
	DB	028H
	DB	042H
	DB	08H
	DB	04aH
	DB	028H
	DB	042H
	DB	028H
	DB	042H
	DB	028H
	DB	042H
	DB	08H
	DB	042H
	DB	028H
	DB	042H
	DB	028H
	DB	04aH
	DB	08H
	DB	042H
	DB	028H
	DB	042H
	DB	028H
	DB	04aH
	DB	028H
	DB	042H
	DB	028H
	DB	042H
	DB	028H
	DB	04aH
	DB	028H
	DB	042H
	DB	028H
	DB	042H
	DB	028H
	DB	04aH
	DB	08H
	DB	042H
	DB	028H
	DB	042H
	DB	028H
	DB	04aH
	DB	08H
	DB	042H
	DB	029H
	DB	042H
	DB	08H
	DB	042H
	DB	028H
	DB	042H
	DB	028H
	DB	042H
	DB	028H
	DB	042H
	DB	09H
	DB	042H
	DB	028H
	DB	042H
	DB	028H
	DB	04aH
	DB	028H
	DB	042H
	DB	029H
	DB	04aH
	DB	08H
	DB	042H
	DB	029H
	DB	042H
	DB	029H
	DB	042H
	DB	08H
	DB	04aH
	DB	028H
	DB	042H
	DB	028H
	DB	042H
	DB	09H
	DB	042H
	DB	028H
	DB	04aH
	DB	028H
	DB	042H
	DB	09H
	DB	042H
	DB	028H
	DB	04aH
	DB	028H
	DB	042H
	DB	08H
	DB	04aH
	DB	029H
	DB	042H
	DB	028H
	DB	042H
	DB	028H
	DB	04aH
	DB	086H
	DB	031H
	DB	028H
	DB	04aH
	DB	028H
	DB	042H
	DB	028H
	DB	042H
	DB	028H
	DB	042H
	DB	028H
	DB	042H
	DB	029H
	DB	042H
	DB	028H
	DB	042H
	DB	028H
	DB	042H
	DB	029H
	DB	042H
	DB	028H
	DB	042H
	DB	08H
	DB	04aH
	DB	029H
	DB	042H
	DB	08H
	DB	042H
	DB	028H
	DB	04aH
	DB	029H
	DB	042H
	DB	028H
	DB	042H
	DB	028H
	DB	04aH
	DB	028H
	DB	042H
	DB	028H
	DB	042H
	DB	08H
	DB	042H
	DB	08H
	DB	04aH
	DB	029H
	DB	042H
	DB	08H
	DB	042H
	DB	08H
	DB	04aH
	DB	028H
	DB	042H
	DB	08H
	DB	042H
	DB	028H
	DB	04aH
	DB	028H
	DB	042H
	DB	028H
	DB	042H
	DB	08H
	DB	04aH
	DB	028H
	DB	042H
	DB	028H
	DB	042H
	DB	08H
	DB	042H
	DB	08H
	DB	042H
	DB	028H
	DB	042H
	DB	08H
	DB	04aH
	DB	08H
	DB	042H
	DB	028H
	DB	042H
	DB	08H
	DB	04aH
	DB	08H
	DB	04aH
	DB	028H
	DB	042H
	DB	08H
	DB	042H
	DB	08H
	DB	042H
	DB	028H
	DB	042H
	DB	08H
	DB	042H
	DB	028H
	DB	042H
	DB	08H
	DB	04aH
	DB	028H
	DB	042H
	DB	08H
	DB	042H
	DB	028H
	DB	04aH
	DB	08H
	DB	042H
	DB	08H
	DB	042H
	DB	028H
	DB	04aH
	DB	08H
	DB	042H
	DB	028H
	DB	042H
	DB	028H
	DB	042H
	DB	08H
	DB	042H
	DB	08H
	DB	042H
	DB	028H
	DB	04aH
	DB	08H
	DB	042H
	DB	028H
	DB	042H
	DB	028H
	DB	04aH
	DB	08H
	DB	042H
	DB	028H
	DB	042H
	DB	028H
	DB	042H
	DB	08H
	DB	042H
	DB	028H
	DB	042H
	DB	028H
	DB	042H
	DB	028H
	DB	042H
	DB	08H
	DB	042H
	DB	028H
	DB	042H
	DB	08H
	DB	042H
	DB	028H
	DB	042H
	DB	08H
	DB	042H
	DB	028H
	DB	04aH
	DB	08H
	DB	042H
	DB	028H
	DB	042H
	DB	08H
	DB	042H
	DB	08H
	DB	042H
	DB	028H
	DB	042H
	DB	029H
	DB	042H
	DB	029H
	DB	04aH
	DB	028H
	DB	042H
	DB	029H
	DB	042H
	DB	028H
	DB	04aH
	DB	029H
	DB	042H
	DB	028H
	DB	042H
	DB	028H
	DB	04aH
	DB	029H
	DB	042H
	DB	048H
	DB	04aH
	DB	028H
	DB	042H
	DB	029H
	DB	042H
	DB	048H
	DB	04aH
	DB	028H
	DB	042H
	DB	029H
	DB	042H
	DB	048H
	DB	04aH
	DB	028H
	DB	042H
	DB	029H
	DB	042H
	DB	048H
	DB	04aH
	DB	029H
	DB	042H
	DB	028H
	DB	042H
	DB	049H
	DB	04aH
	DB	028H
	DB	042H
	DB	028H
	DB	042H
	DB	029H
	DB	04aH
	DB	028H
	DB	042H
	DB	028H
	DB	04aH
	DB	049H
	DB	042H
	DB	028H
	DB	042H
	DB	029H
	DB	042H
	DB	048H
	DB	04aH
	DB	029H
	DB	042H
	DB	049H
	DB	04aH
	DB	048H
	DB	04aH
	DB	029H
	DB	04aH
	DB	029H
	DB	042H
	DB	028H
	DB	04aH
	DB	029H
	DB	04aH
	DB	049H
	DB	042H
	DB	029H
	DB	04aH
	DB	028H
	DB	042H
	DB	029H
	DB	042H
	DB	028H
	DB	042H
	DB	028H
	DB	042H
	DB	049H
	DB	04aH
	DB	028H
	DB	042H
	DB	028H
	DB	042H
	DB	048H
	DB	04aH
	DB	028H
	DB	04aH
	DB	028H
	DB	042H
	DB	029H
	DB	04aH
	DB	028H
	DB	04aH
	DB	029H
	DB	042H
	DB	029H
	DB	04aH
	DB	028H
	DB	04aH
	DB	049H
	DB	042H
	DB	029H
	DB	04aH
	DB	029H
	DB	042H
	DB	029H
	DB	04aH
	DB	048H
	DB	04aH
	DB	029H
	DB	042H
	DB	029H
	DB	042H
	DB	048H
	DB	04aH
	DB	029H
	DB	042H
	DB	029H
	DB	042H
	DB	049H
	DB	04aH
	DB	028H
	DB	042H
	DB	029H
	DB	042H
	DB	029H
	DB	04aH
	DB	028H
	DB	04aH
	DB	049H
	DB	042H
	DB	029H
	DB	042H
	DB	028H
	DB	04aH
	DB	029H
	DB	04aH
	DB	048H
	DB	042H
	DB	029H
	DB	04aH
	DB	029H
	DB	04aH
	DB	028H
	DB	04aH
	DB	029H
	DB	04aH
	DB	028H
	DB	04aH
	DB	049H
	DB	04aH
	DB	029H
	DB	042H
	DB	028H
	DB	04aH
	DB	049H
	DB	04aH
	DB	029H
	DB	042H
	DB	028H
	DB	04aH
	DB	029H
	DB	04aH
	DB	028H
	DB	04aH
	DB	029H
	DB	042H
	DB	028H
	DB	042H
	DB	028H
	DB	04aH
	DB	029H
	DB	042H
	DB	028H
	DB	04aH
	DB	028H
	DB	04aH
	DB	029H
	DB	042H
	DB	028H
	DB	04aH
	DB	048H
	DB	04aH
	DB	029H
	DB	042H
	DB	028H
	DB	04aH
	DB	029H
	DB	042H
	DB	028H
	DB	042H
	DB	049H
	DB	04aH
	DB	028H
	DB	04aH
	DB	029H
	DB	042H
	DB	049H
	DB	04aH
	DB	028H
	DB	04aH
	DB	049H
	DB	042H
	DB	049H
	DB	04aH
	DB	049H
	DB	04aH
	DB	049H
	DB	042H
	DB	029H
	DB	04aH
	DB	029H
	DB	04aH
	DB	049H
	DB	042H
	DB	029H
	DB	04aH
	DB	029H
	DB	04aH
	DB	048H
	DB	042H
	DB	029H
	DB	042H
	DB	028H
	DB	04aH
	DB	028H
	DB	042H
	DB	029H
	DB	04aH
	DB	028H
	DB	042H
	DB	049H
	DB	04aH
	DB	028H
	DB	04aH
	DB	049H
	DB	042H
	DB	029H
	DB	04aH
	DB	048H
	DB	04aH
	DB	029H
	DB	042H
	DB	029H
	DB	042H
	DB	048H
	DB	04aH
	DB	029H
	DB	042H
	DB	029H
	DB	04aH
	DB	048H
	DB	04aH
	DB	028H
	DB	04aH
	DB	049H
	DB	042H
	DB	029H
	DB	04aH
	DB	048H
	DB	042H
	DB	049H
	DB	04aH
	DB	029H
	DB	04aH
	DB	048H
	DB	042H
	DB	028H
	DB	04aH
	DB	029H
	DB	042H
	DB	048H
	DB	04aH
	DB	049H
	DB	04aH
	DB	028H
	DB	042H
	DB	048H
	DB	04aH
	DB	029H
	DB	042H
	DB	028H
	DB	04aH
	DB	048H
	DB	04aH
	DB	048H
	DB	042H
	DB	029H
	DB	04aH
	DB	048H
	DB	042H
	DB	049H
	DB	04aH
	DB	028H
	DB	04aH
	DB	029H
	DB	042H
	DB	048H
	DB	04aH
	DB	029H
	DB	04aH
	DB	029H
	DB	04aH
	DB	048H
	DB	04aH
	DB	028H
	DB	04aH
	DB	049H
	DB	04aH
	DB	029H
	DB	042H
	DB	048H
	DB	04aH
	DB	029H
	DB	04aH
	DB	029H
	DB	04aH
	DB	048H
	DB	042H
	DB	029H
	DB	04aH
	DB	049H
	DB	04aH
	DB	048H
	DB	042H
	DB	049H
	DB	04aH
	DB	049H
	DB	042H
	DB	048H
	DB	04aH
	DB	049H
	DB	042H
	DB	049H
	DB	04aH
	DB	048H
	DB	04aH
	DB	049H
	DB	042H
	DB	049H
	DB	04aH
	DB	048H
	DB	042H
	DB	048H
	DB	04aH
	DB	029H
	DB	042H
	DB	049H
	DB	042H
	DB	048H
	DB	04aH
	DB	029H
	DB	04aH
	DB	049H
	DB	04aH
	DB	048H
	DB	04aH
	DB	049H
	DB	04aH
	DB	049H
	DB	04aH
	DB	029H
	DB	04aH
	DB	049H
	DB	04aH
	DB	049H
	DB	04aH
	DB	029H
	DB	04aH
	DB	049H
	DB	04aH
	DB	049H
	DB	04aH
	DB	028H
	DB	04aH
	DB	049H
	DB	042H
	DB	049H
	DB	04aH
	DB	048H
	DB	04aH
	DB	049H
	DB	04aH
	DB	029H
	DB	04aH
	DB	048H
	DB	042H
	DB	049H
	DB	04aH
	DB	049H
	DB	04aH
	DB	028H
	DB	04aH
	DB	048H
	DB	04aH
	DB	049H
	DB	04aH
	DB	029H
	DB	04aH
	DB	048H
	DB	04aH
	DB	049H
	DB	04aH
	DB	028H
	DB	04aH
	DB	029H
	DB	04aH
	DB	049H
	DB	042H
	DB	049H
	DB	04aH
	DB	029H
	DB	04aH
	DB	049H
	DB	04aH
	DB	049H
	DB	04aH
	DB	049H
	DB	042H
	DB	049H
	DB	04aH
	DB	028H
	DB	04aH
	DB	049H
	DB	042H
	DB	049H
	DB	04aH
	DB	048H
	DB	04aH
	DB	029H
	DB	04aH
	DB	049H
	DB	04aH
	DB	048H
	DB	04aH
	DB	029H
	DB	04aH
	DB	049H
	DB	04aH
	DB	049H
	DB	04aH
	DB	049H
	DB	04aH
	DB	028H
	DB	042H
	DB	049H
	DB	04aH
	DB	029H
	DB	04aH
	DB	048H
	DB	04aH
	DB	049H
	DB	04aH
	DB	029H
	DB	04aH
	DB	049H
	DB	04aH
	DB	048H
	DB	04aH
	DB	029H
	DB	04aH
	DB	049H
	DB	04aH
	DB	048H
	DB	042H
	DB	029H
	DB	04aH
	DB	049H
	DB	04aH
	DB	048H
	DB	042H
	DB	049H
	DB	04aH
	DB	048H
	DB	04aH
	DB	028H
	DB	042H
	DB	049H
	DB	04aH
	DB	048H
	DB	04aH
	DB	049H
	DB	042H
	DB	049H
	DB	04aH
	DB	029H
	DB	04aH
	DB	049H
	DB	04aH
	DB	049H
	DB	04aH
	DB	049H
	DB	04aH
	DB	049H
	DB	04aH
	DB	049H
	DB	04aH
	DB	029H
	DB	04aH
	DB	049H
	DB	04aH
	DB	048H
	DB	04aH
	DB	029H
	DB	04aH
	DB	048H
	DB	042H
	DB	049H
	DB	04aH
	DB	029H
	DB	04aH
	DB	048H
	DB	04aH
	DB	029H
	DB	04aH
	DB	048H
	DB	04aH
	DB	049H
	DB	04aH
	DB	049H
	DB	04aH
	DB	048H
	DB	04aH
	DB	049H
	DB	04aH
	DB	049H
	DB	04aH
	DB	048H
	DB	04aH
	DB	049H
	DB	04aH
	DB	049H
	DB	04aH
	DB	049H
	DB	04aH
	DB	049H
	DB	04aH
	DB	029H
	DB	04aH
	DB	049H
	DB	042H
	DB	049H
	DB	04aH
	DB	049H
	DB	04aH
	DB	049H
	DB	04aH
	DB	049H
	DB	04aH
	DB	049H
	DB	04aH
	DB	049H
	DB	042H
	DB	049H
	DB	04aH
	DB	049H
	DB	04aH
	DB	049H
	DB	04aH
	DB	049H
	DB	04aH
	DB	049H
	DB	04aH
	DB	049H
	DB	042H
	DB	049H
	DB	04aH
	DB	049H
	DB	04aH
	DB	049H
	DB	042H
	DB	049H
	DB	04aH
	DB	049H
	DB	04aH
	DB	049H
	DB	04aH
	DB	048H
	DB	04aH
	DB	049H
	DB	04aH
	DB	049H
	DB	042H
	DB	048H
	DB	04aH
	DB	049H
	DB	04aH
	DB	049H
	DB	04aH
	DB	049H
	DB	04aH
	DB	048H
	DB	04aH
	DB	029H
	DB	04aH
	DB	048H
	DB	04aH
	DB	049H
	DB	042H
	DB	049H
	DB	04aH
	DB	049H
	DB	04aH
	DB	049H
	DB	04aH
	DB	049H
	DB	04aH
	DB	029H
	DB	04aH
	DB	049H
	DB	04aH
	DB	049H
	DB	04aH
	DB	049H
	DB	04aH
	DB	029H
	DB	04aH
	DB	048H
	DB	042H
	DB	029H
	DB	04aH
	DB	049H
	DB	04aH
	DB	049H
	DB	04aH
	DB	029H
	DB	04aH
	DB	049H
	DB	04aH
	DB	049H
	DB	04aH
	DB	029H
	DB	04aH
	DB	049H
	DB	04aH
	DB	049H
	DB	04aH
	DB	048H
	DB	04aH
	DB	049H
	DB	04aH
	DB	049H
	DB	04aH
	DB	029H
	DB	04aH
	DB	049H
	DB	042H
	DB	049H
	DB	04aH
	DB	029H
	DB	04aH
	DB	049H
	DB	04aH
	DB	049H
	DB	04aH
	DB	049H
	DB	04aH
	DB	029H
	DB	04aH
	DB	049H
	DB	04aH
	DB	049H
	DB	04aH
	DB	029H
	DB	04aH
	DB	029H
	DB	04aH
	DB	048H
	DB	04aH
	DB	049H
	DB	04aH
	DB	048H
	DB	04aH
	DB	029H
	DB	04aH
	DB	048H
	DB	04aH
	DB	049H
	DB	04aH
	DB	049H
	DB	042H
	DB	049H
	DB	04aH
	DB	028H
	DB	042H
	DB	029H
	DB	04aH
	DB	028H
	DB	042H
	DB	028H
	DB	04aH
	DB	029H
	DB	042H
	DB	028H
	DB	042H
	DB	028H
	DB	042H
	DB	029H
	DB	042H
	DB	028H
	DB	042H
	DB	08H
	DB	042H
	DB	028H
	DB	042H
	DB	08H
	DB	04aH
	DB	028H
	DB	042H
	DB	028H
	DB	042H
	DB	09H
	DB	04aH
	DB	028H
	DB	042H
	DB	028H
	DB	042H
	DB	028H
	DB	042H
	DB	028H
	DB	042H
	DB	09H
	DB	04aH
	DB	028H
	DB	042H
	DB	08H
	DB	042H
	DB	028H
	DB	04aH
	DB	028H
	DB	042H
	DB	029H
	DB	042H
	DB	08H
	DB	042H
	DB	028H
	DB	04aH
	DB	028H
	DB	042H
	DB	08H
	DB	042H
	DB	028H
	DB	04aH
	DB	028H
	DB	042H
	DB	08H
	DB	042H
	DB	028H
	DB	04aH
	DB	028H
	DB	042H
	DB	08H
	DB	042H
	DB	029H
	DB	042H
	DB	028H
	DB	04aH
	DB	028H
	DB	042H
	DB	029H
	DB	04aH
	DB	08H
	DB	042H
	DB	028H
	DB	042H
	DB	028H
	DB	042H
	DB	08H
	DB	042H
	DB	028H
	DB	042H
	DB	029H
	DB	042H
	DB	08H
	DB	042H
	DB	028H
	DB	042H
	DB	09H
	DB	042H
	DB	028H
	DB	042H
	DB	028H
	DB	042H
	DB	09H
	DB	042H
	DB	028H
	DB	042H
	DB	028H
	DB	04aH
	DB	029H
	DB	042H
	DB	028H
	DB	04aH
	DB	028H
	DB	042H
	DB	028H
	DB	04aH
	DB	08H
	DB	042H
	DB	028H
	DB	04aH
	DB	028H
	DB	042H
	DB	028H
	DB	042H
	DB	028H
	DB	04aH
	DB	08H
	DB	042H
	DB	029H
	DB	042H
	DB	028H
	DB	042H
	DB	028H
	DB	04aH
	DB	028H
	DB	042H
	DB	028H
	DB	042H
	DB	028H
	DB	042H
	DB	029H
	DB	04aH
	DB	08H
	DB	042H
	DB	028H
	DB	042H
	DB	029H
	DB	042H
	DB	08H
	DB	042H
	DB	028H
	DB	042H
	DB	028H
	DB	042H
	DB	028H
	DB	042H
	DB	028H
	DB	042H
	DB	09H
	DB	04aH
	DB	08H
	DB	042H
	DB	028H
	DB	04aH
	DB	086H
	DB	031H
	DB	029H
	DB	04aH
	DB	028H
	DB	042H
	DB	08H
	DB	042H
	DB	08H
	DB	042H
	DB	028H
	DB	04aH
	DB	08H
	DB	042H
	DB	028H
	DB	042H
	DB	028H
	DB	04aH
	DB	08H
	DB	042H
	DB	028H
	DB	042H
	DB	028H
	DB	042H
	DB	028H
	DB	04aH
	DB	028H
	DB	042H
	DB	08H
	DB	042H
	DB	028H
	DB	042H
	DB	028H
	DB	042H
	DB	08H
	DB	042H
	DB	08H
	DB	04aH
	DB	028H
	DB	042H
	DB	028H
	DB	042H
	DB	028H
	DB	04aH
	DB	028H
	DB	042H
	DB	028H
	DB	042H
	DB	08H
	DB	04aH
	DB	08H
	DB	042H
	DB	029H
	DB	042H
	DB	08H
	DB	042H
	DB	08H
	DB	042H
	DB	028H
	DB	04aH
	DB	09H
	DB	042H
	DB	028H
	DB	042H
	DB	028H
	DB	04aH
	DB	08H
	DB	04aH
	DB	028H
	DB	042H
	DB	029H
	DB	042H
	DB	09H
	DB	042H
	DB	028H
	DB	04aH
	DB	028H
	DB	042H
	DB	09H
	DB	042H
	DB	028H
	DB	042H
	DB	028H
	DB	04aH
	DB	08H
	DB	042H
	DB	028H
	DB	04aH
	DB	09H
	DB	042H
	DB	028H
	DB	042H
	DB	08H
	DB	04aH
	DB	028H
	DB	042H
	DB	08H
	DB	042H
	DB	029H
	DB	042H
	DB	028H
	DB	042H
	DB	08H
	DB	042H
	DB	028H
	DB	042H
	DB	08H
	DB	04aH
	DB	08H
	DB	042H
	DB	028H
	DB	042H
	DB	09H
	DB	04aH
	DB	028H
	DB	042H
	DB	028H
	DB	042H
	DB	08H
	DB	042H
	DB	09H
	DB	042H
	DB	028H
	DB	042H
	DB	08H
	DB	042H
	DB	08H
	DB	042H
	DB	028H
	DB	042H
	DB	08H
	DB	042H
	DB	08H
	DB	042H
	DB	028H
	DB	04aH
	DB	028H
	DB	042H
	DB	09H
	DB	042H
	DB	028H
	DB	04aH
	DB	08H
	DB	042H
	DB	028H
	DB	042H
	DB	029H
	DB	04aH
	DB	08H
	DB	042H
	DB	028H
	DB	042H
	DB	028H
	DB	04aH
	DB	08H
	DB	042H
	DB	028H
	DB	04aH
	DB	028H
	DB	04aH
	DB	08H
	DB	042H
	DB	028H
	DB	042H
	DB	028H
	DB	04aH
	DB	028H
	DB	04aH
	DB	028H
	DB	042H
	DB	028H
	DB	042H
	DB	029H
	DB	04aH
	DB	049H
	DB	042H
	DB	028H
	DB	042H
	DB	028H
	DB	04aH
	DB	049H
	DB	042H
	DB	028H
	DB	042H
	DB	028H
	DB	04aH
	DB	049H
	DB	04aH
	DB	028H
	DB	042H
	DB	029H
	DB	042H
	DB	048H
	DB	04aH
	DB	028H
	DB	042H
	DB	029H
	DB	04aH
	DB	048H
	DB	042H
	DB	028H
	DB	04aH
	DB	029H
	DB	042H
	DB	028H
	DB	042H
	DB	029H
	DB	04aH
	DB	048H
	DB	042H
	DB	029H
	DB	042H
	DB	028H
	DB	04aH
	DB	049H
	DB	042H
	DB	028H
	DB	04aH
	DB	028H
	DB	042H
	DB	029H
	DB	042H
	DB	028H
	DB	042H
	DB	028H
	DB	042H
	DB	028H
	DB	042H
	DB	028H
	DB	042H
	DB	048H
	DB	042H
	DB	028H
	DB	042H
	DB	028H
	DB	042H
	DB	048H
	DB	04aH
	DB	028H
	DB	042H
	DB	028H
	DB	042H
	DB	029H
	DB	04aH
	DB	048H
	DB	04aH
	DB	029H
	DB	042H
	DB	028H
	DB	042H
	DB	049H
	DB	04aH
	DB	029H
	DB	042H
	DB	028H
	DB	042H
	DB	029H
	DB	04aH
	DB	029H
	DB	042H
	DB	048H
	DB	042H
	DB	028H
	DB	04aH
	DB	028H
	DB	042H
	DB	049H
	DB	042H
	DB	028H
	DB	04aH
	DB	029H
	DB	042H
	DB	028H
	DB	04aH
	DB	028H
	DB	042H
	DB	029H
	DB	042H
	DB	028H
	DB	04aH
	DB	029H
	DB	04aH
	DB	029H
	DB	042H
	DB	028H
	DB	04aH
	DB	028H
	DB	04aH
	DB	029H
	DB	042H
	DB	048H
	DB	04aH
	DB	028H
	DB	04aH
	DB	028H
	DB	042H
	DB	028H
	DB	04aH
	DB	048H
	DB	04aH
	DB	029H
	DB	042H
	DB	029H
	DB	04aH
	DB	048H
	DB	04aH
	DB	029H
	DB	042H
	DB	028H
	DB	04aH
	DB	029H
	DB	04aH
	DB	048H
	DB	042H
	DB	028H
	DB	04aH
	DB	049H
	DB	042H
	DB	029H
	DB	042H
	DB	028H
	DB	04aH
	DB	029H
	DB	042H
	DB	028H
	DB	04aH
	DB	048H
	DB	04aH
	DB	029H
	DB	042H
	DB	028H
	DB	042H
	DB	029H
	DB	04aH
	DB	049H
	DB	04aH
	DB	028H
	DB	042H
	DB	049H
	DB	04aH
	DB	029H
	DB	04aH
	DB	048H
	DB	042H
	DB	049H
	DB	042H
	DB	028H
	DB	04aH
	DB	049H
	DB	042H
	DB	029H
	DB	04aH
	DB	028H
	DB	04aH
	DB	029H
	DB	042H
	DB	048H
	DB	04aH
	DB	029H
	DB	04aH
	DB	028H
	DB	04aH
	DB	028H
	DB	042H
	DB	029H
	DB	04aH
	DB	048H
	DB	04aH
	DB	028H
	DB	042H
	DB	029H
	DB	04aH
	DB	049H
	DB	04aH
	DB	028H
	DB	042H
	DB	049H
	DB	04aH
	DB	028H
	DB	04aH
	DB	048H
	DB	042H
	DB	028H
	DB	04aH
	DB	028H
	DB	04aH
	DB	049H
	DB	042H
	DB	028H
	DB	04aH
	DB	049H
	DB	04aH
	DB	049H
	DB	04aH
	DB	029H
	DB	04aH
	DB	049H
	DB	042H
	DB	049H
	DB	04aH
	DB	029H
	DB	04aH
	DB	049H
	DB	042H
	DB	028H
	DB	04aH
	DB	029H
	DB	04aH
	DB	049H
	DB	042H
	DB	028H
	DB	04aH
	DB	049H
	DB	04aH
	DB	028H
	DB	042H
	DB	049H
	DB	04aH
	DB	049H
	DB	04aH
	DB	028H
	DB	04aH
	DB	049H
	DB	042H
	DB	029H
	DB	04aH
	DB	049H
	DB	042H
	DB	028H
	DB	04aH
	DB	049H
	DB	04aH
	DB	028H
	DB	042H
	DB	029H
	DB	04aH
	DB	049H
	DB	04aH
	DB	048H
	DB	042H
	DB	029H
	DB	04aH
	DB	049H
	DB	04aH
	DB	049H
	DB	042H
	DB	029H
	DB	04aH
	DB	049H
	DB	04aH
	DB	048H
	DB	042H
	DB	029H
	DB	04aH
	DB	029H
	DB	04aH
	DB	049H
	DB	04aH
	DB	029H
	DB	042H
	DB	028H
	DB	04aH
	DB	048H
	DB	04aH
	DB	049H
	DB	042H
	DB	028H
	DB	04aH
	DB	048H
	DB	04aH
	DB	029H
	DB	04aH
	DB	049H
	DB	04aH
	DB	048H
	DB	042H
	DB	029H
	DB	04aH
	DB	029H
	DB	04aH
	DB	048H
	DB	042H
	DB	029H
	DB	04aH
	DB	049H
	DB	04aH
	DB	048H
	DB	04aH
	DB	029H
	DB	04aH
	DB	048H
	DB	04aH
	DB	029H
	DB	04aH
	DB	029H
	DB	042H
	DB	028H
	DB	04aH
	DB	049H
	DB	04aH
	DB	049H
	DB	04aH
	DB	048H
	DB	042H
	DB	048H
	DB	04aH
	DB	029H
	DB	04aH
	DB	048H
	DB	042H
	DB	029H
	DB	04aH
	DB	029H
	DB	04aH
	DB	048H
	DB	042H
	DB	049H
	DB	04aH
	DB	049H
	DB	04aH
	DB	048H
	DB	042H
	DB	049H
	DB	042H
	DB	048H
	DB	04aH
	DB	029H
	DB	042H
	DB	048H
	DB	04aH
	DB	028H
	DB	042H
	DB	049H
	DB	042H
	DB	048H
	DB	04aH
	DB	048H
	DB	042H
	DB	028H
	DB	042H
	DB	048H
	DB	04aH
	DB	049H
	DB	042H
	DB	028H
	DB	04aH
	DB	049H
	DB	042H
	DB	048H
	DB	04aH
	DB	028H
	DB	04aH
	DB	049H
	DB	042H
	DB	048H
	DB	04aH
	DB	029H
	DB	04aH
	DB	049H
	DB	042H
	DB	048H
	DB	04aH
	DB	049H
	DB	04aH
	DB	049H
	DB	042H
	DB	028H
	DB	04aH
	DB	049H
	DB	042H
	DB	049H
	DB	04aH
	DB	048H
	DB	042H
	DB	049H
	DB	04aH
	DB	049H
	DB	04aH
	DB	049H
	DB	042H
	DB	048H
	DB	04aH
	DB	029H
	DB	04aH
	DB	048H
	DB	042H
	DB	049H
	DB	04aH
	DB	048H
	DB	04aH
	DB	049H
	DB	04aH
	DB	049H
	DB	04aH
	DB	049H
	DB	04aH
	DB	029H
	DB	04aH
	DB	049H
	DB	042H
	DB	049H
	DB	04aH
	DB	049H
	DB	042H
	DB	048H
	DB	04aH
	DB	049H
	DB	04aH
	DB	029H
	DB	04aH
	DB	048H
	DB	04aH
	DB	049H
	DB	04aH
	DB	029H
	DB	04aH
	DB	049H
	DB	04aH
	DB	049H
	DB	04aH
	DB	049H
	DB	04aH
	DB	029H
	DB	04aH
	DB	049H
	DB	04aH
	DB	049H
	DB	04aH
	DB	049H
	DB	042H
	DB	049H
	DB	04aH
	DB	048H
	DB	04aH
	DB	049H
	DB	04aH
	DB	029H
	DB	04aH
	DB	049H
	DB	04aH
	DB	049H
	DB	04aH
	DB	029H
	DB	04aH
	DB	049H
	DB	04aH
	DB	049H
	DB	04aH
	DB	049H
	DB	04aH
	DB	049H
	DB	04aH
	DB	029H
	DB	04aH
	DB	049H
	DB	04aH
	DB	049H
	DB	04aH
	DB	049H
	DB	042H
	DB	029H
	DB	04aH
	DB	049H
	DB	04aH
	DB	029H
	DB	042H
	DB	049H
	DB	04aH
	DB	049H
	DB	04aH
	DB	049H
	DB	04aH
	DB	049H
	DB	04aH
	DB	049H
	DB	04aH
	DB	029H
	DB	04aH
	DB	049H
	DB	04aH
	DB	049H
	DB	04aH
	DB	029H
	DB	04aH
	DB	049H
	DB	04aH
	DB	049H
	DB	04aH
	DB	029H
	DB	04aH
	DB	049H
	DB	04aH
	DB	049H
	DB	04aH
	DB	049H
	DB	04aH
	DB	049H
	DB	04aH
	DB	029H
	DB	042H
	DB	049H
	DB	04aH
	DB	029H
	DB	04aH
	DB	029H
	DB	04aH
	DB	049H
	DB	04aH
	DB	049H
	DB	04aH
	DB	049H
	DB	04aH
	DB	049H
	DB	04aH
	DB	049H
	DB	04aH
	DB	049H
	DB	04aH
	DB	049H
	DB	042H
	DB	049H
	DB	04aH
	DB	049H
	DB	04aH
	DB	049H
	DB	04aH
	DB	049H
	DB	04aH
	DB	049H
	DB	04aH
	DB	049H
	DB	04aH
	DB	049H
	DB	04aH
	DB	049H
	DB	04aH
	DB	049H
	DB	04aH
	DB	048H
	DB	04aH
	DB	049H
	DB	04aH
	DB	048H
	DB	04aH
	DB	049H
	DB	04aH
	DB	049H
	DB	04aH
	DB	049H
	DB	04aH
	DB	049H
	DB	04aH
	DB	049H
	DB	04aH
	DB	049H
	DB	04aH
	DB	049H
	DB	04aH
	DB	049H
	DB	04aH
	DB	049H
	DB	042H
	DB	048H
	DB	04aH
	DB	049H
	DB	04aH
	DB	049H
	DB	04aH
	DB	049H
	DB	04aH
	DB	049H
	DB	04aH
	DB	048H
	DB	04aH
	DB	049H
	DB	04aH
	DB	049H
	DB	04aH
	DB	049H
	DB	04aH
	DB	049H
	DB	04aH
	DB	028H
	DB	04aH
	DB	049H
	DB	042H
	DB	049H
	DB	04aH
	DB	049H
	DB	04aH
	DB	049H
	DB	04aH
	DB	049H
	DB	04aH
	DB	029H
	DB	04aH
	DB	049H
	DB	042H
	DB	049H
	DB	04aH
	DB	049H
	DB	04aH
	DB	029H
	DB	04aH
	DB	049H
	DB	042H
	DB	049H
	DB	04aH
	DB	029H
	DB	04aH
	DB	049H
	DB	04aH
	DB	029H
	DB	042H
	DB	049H
	DB	04aH
	DB	048H
	DB	04aH
	DB	049H
	DB	04aH
	DB	049H
	DB	04aH
	DB	049H
	DB	04aH
	DB	029H
	DB	042H
	DB	049H
	DB	04aH
	DB	049H
	DB	04aH
	DB	049H
	DB	042H
	DB	029H
	DB	04aH
	DB	049H
	DB	04aH
	DB	049H
	DB	042H
	DB	049H
	DB	04aH
	DB	029H
	DB	04aH
	DB	049H
	DB	04aH
	DB	049H
	DB	04aH
	DB	048H
	DB	04aH
	DB	029H
	DB	04aH
	DB	049H
	DB	04aH
	DB	049H
	DB	04aH
	DB	049H
	DB	04aH
	DB	028H
	DB	042H
	DB	029H
	DB	04aH
	DB	028H
	DB	042H
	DB	028H
	DB	042H
	DB	08H
	DB	04aH
	DB	028H
	DB	042H
	DB	08H
	DB	04aH
	DB	028H
	DB	042H
	DB	029H
	DB	04aH
	DB	028H
	DB	042H
	DB	028H
	DB	042H
	DB	09H
	DB	042H
	DB	028H
	DB	04aH
	DB	028H
	DB	042H
	DB	028H
	DB	042H
	DB	028H
	DB	042H
	DB	09H
	DB	04aH
	DB	028H
	DB	042H
	DB	028H
	DB	042H
	DB	028H
	DB	042H
	DB	028H
	DB	042H
	DB	028H
	DB	042H
	DB	09H
	DB	042H
	DB	028H
	DB	042H
	DB	028H
	DB	042H
	DB	028H
	DB	04aH
	DB	028H
	DB	042H
	DB	029H
	DB	042H
	DB	08H
	DB	04aH
	DB	028H
	DB	042H
	DB	028H
	DB	042H
	DB	029H
	DB	042H
	DB	028H
	DB	04aH
	DB	028H
	DB	042H
	DB	028H
	DB	042H
	DB	028H
	DB	04aH
	DB	08H
	DB	042H
	DB	028H
	DB	042H
	DB	028H
	DB	042H
	DB	028H
	DB	04aH
	DB	028H
	DB	042H
	DB	029H
	DB	04aH
	DB	028H
	DB	042H
	DB	08H
	DB	04aH
	DB	028H
	DB	042H
	DB	028H
	DB	04aH
	DB	08H
	DB	042H
	DB	028H
	DB	042H
	DB	028H
	DB	04aH
	DB	08H
	DB	042H
	DB	028H
	DB	042H
	DB	028H
	DB	04aH
	DB	028H
	DB	042H
	DB	08H
	DB	042H
	DB	028H
	DB	042H
	DB	028H
	DB	042H
	DB	029H
	DB	042H
	DB	08H
	DB	04aH
	DB	029H
	DB	042H
	DB	028H
	DB	042H
	DB	09H
	DB	04aH
	DB	028H
	DB	042H
	DB	028H
	DB	042H
	DB	08H
	DB	042H
	DB	028H
	DB	042H
	DB	028H
	DB	042H
	DB	08H
	DB	04aH
	DB	028H
	DB	042H
	DB	029H
	DB	042H
	DB	08H
	DB	042H
	DB	028H
	DB	04aH
	DB	028H
	DB	042H
	DB	028H
	DB	042H
	DB	029H
	DB	04aH
	DB	028H
	DB	042H
	DB	09H
	DB	042H
	DB	028H
	DB	04aH
	DB	028H
	DB	042H
	DB	028H
	DB	042H
	DB	028H
	DB	042H
	DB	029H
	DB	04aH
	DB	066H
	DB	031H
	DB	048H
	DB	042H
	DB	028H
	DB	042H
	DB	028H
	DB	04aH
	DB	028H
	DB	042H
	DB	029H
	DB	042H
	DB	028H
	DB	04aH
	DB	08H
	DB	042H
	DB	028H
	DB	042H
	DB	028H
	DB	04aH
	DB	08H
	DB	042H
	DB	028H
	DB	042H
	DB	028H
	DB	042H
	DB	028H
	DB	04aH
	DB	028H
	DB	042H
	DB	08H
	DB	04aH
	DB	029H
	DB	042H
	DB	028H
	DB	042H
	DB	028H
	DB	042H
	DB	09H
	DB	042H
	DB	028H
	DB	042H
	DB	028H
	DB	042H
	DB	08H
	DB	042H
	DB	028H
	DB	042H
	DB	028H
	DB	042H
	DB	08H
	DB	042H
	DB	028H
	DB	04aH
	DB	08H
	DB	042H
	DB	028H
	DB	042H
	DB	08H
	DB	042H
	DB	08H
	DB	042H
	DB	08H
	DB	042H
	DB	029H
	DB	042H
	DB	08H
	DB	042H
	DB	028H
	DB	04aH
	DB	08H
	DB	042H
	DB	08H
	DB	042H
	DB	028H
	DB	042H
	DB	08H
	DB	042H
	DB	08H
	DB	042H
	DB	028H
	DB	042H
	DB	09H
	DB	042H
	DB	028H
	DB	042H
	DB	028H
	DB	04aH
	DB	08H
	DB	042H
	DB	08H
	DB	042H
	DB	028H
	DB	042H
	DB	08H
	DB	042H
	DB	08H
	DB	04aH
	DB	028H
	DB	042H
	DB	08H
	DB	042H
	DB	028H
	DB	04aH
	DB	029H
	DB	042H
	DB	08H
	DB	042H
	DB	028H
	DB	042H
	DB	08H
	DB	042H
	DB	08H
	DB	04aH
	DB	028H
	DB	042H
	DB	028H
	DB	042H
	DB	08H
	DB	04aH
	DB	028H
	DB	042H
	DB	028H
	DB	042H
	DB	08H
	DB	042H
	DB	029H
	DB	042H
	DB	028H
	DB	042H
	DB	08H
	DB	042H
	DB	029H
	DB	042H
	DB	08H
	DB	04aH
	DB	08H
	DB	042H
	DB	028H
	DB	042H
	DB	08H
	DB	04aH
	DB	08H
	DB	042H
	DB	028H
	DB	042H
	DB	08H
	DB	04aH
	DB	08H
	DB	042H
	DB	029H
	DB	042H
	DB	08H
	DB	042H
	DB	08H
	DB	042H
	DB	029H
	DB	042H
	DB	08H
	DB	042H
	DB	08H
	DB	042H
	DB	028H
	DB	042H
	DB	029H
	DB	042H
	DB	049H
	DB	04aH
	DB	028H
	DB	042H
	DB	028H
	DB	042H
	DB	048H
	DB	04aH
	DB	029H
	DB	042H
	DB	028H
	DB	042H
	DB	028H
	DB	04aH
	DB	029H
	DB	042H
	DB	028H
	DB	042H
	DB	028H
	DB	04aH
	DB	029H
	DB	042H
	DB	028H
	DB	042H
	DB	028H
	DB	04aH
	DB	029H
	DB	042H
	DB	028H
	DB	042H
	DB	028H
	DB	04aH
	DB	029H
	DB	042H
	DB	048H
	DB	042H
	DB	028H
	DB	04aH
	DB	029H
	DB	042H
	DB	048H
	DB	04aH
	DB	028H
	DB	042H
	DB	028H
	DB	042H
	DB	049H
	DB	04aH
	DB	028H
	DB	042H
	DB	028H
	DB	042H
	DB	049H
	DB	04aH
	DB	028H
	DB	04aH
	DB	028H
	DB	04aH
	DB	049H
	DB	042H
	DB	029H
	DB	04aH
	DB	028H
	DB	042H
	DB	029H
	DB	04aH
	DB	048H
	DB	042H
	DB	029H
	DB	042H
	DB	028H
	DB	04aH
	DB	028H
	DB	042H
	DB	029H
	DB	042H
	DB	048H
	DB	04aH
	DB	028H
	DB	04aH
	DB	028H
	DB	042H
	DB	029H
	DB	04aH
	DB	028H
	DB	04aH
	DB	048H
	DB	04aH
	DB	028H
	DB	042H
	DB	029H
	DB	04aH
	DB	048H
	DB	042H
	DB	028H
	DB	04aH
	DB	029H
	DB	04aH
	DB	048H
	DB	042H
	DB	028H
	DB	04aH
	DB	029H
	DB	042H
	DB	049H
	DB	042H
	DB	028H
	DB	04aH
	DB	048H
	DB	04aH
	DB	049H
	DB	042H
	DB	028H
	DB	042H
	DB	048H
	DB	04aH
	DB	029H
	DB	042H
	DB	048H
	DB	042H
	DB	029H
	DB	04aH
	DB	029H
	DB	042H
	DB	028H
	DB	042H
	DB	029H
	DB	04aH
	DB	029H
	DB	04aH
	DB	049H
	DB	042H
	DB	028H
	DB	04aH
	DB	028H
	DB	042H
	DB	028H
	DB	04aH
	DB	029H
	DB	04aH
	DB	048H
	DB	042H
	DB	029H
	DB	04aH
	DB	029H
	DB	04aH
	DB	028H
	DB	042H
	DB	028H
	DB	04aH
	DB	029H
	DB	04aH
	DB	048H
	DB	042H
	DB	028H
	DB	04aH
	DB	029H
	DB	042H
	DB	049H
	DB	04aH
	DB	028H
	DB	04aH
	DB	029H
	DB	042H
	DB	028H
	DB	04aH
	DB	048H
	DB	04aH
	DB	029H
	DB	042H
	DB	028H
	DB	042H
	DB	028H
	DB	04aH
	DB	029H
	DB	04aH
	DB	029H
	DB	04aH
	DB	028H
	DB	04aH
	DB	029H
	DB	042H
	DB	028H
	DB	04aH
	DB	048H
	DB	04aH
	DB	029H
	DB	042H
	DB	049H
	DB	042H
	DB	049H
	DB	04aH
	DB	049H
	DB	04aH
	DB	049H
	DB	042H
	DB	049H
	DB	04aH
	DB	049H
	DB	04aH
	DB	049H
	DB	042H
	DB	028H
	DB	04aH
	DB	049H
	DB	04aH
	DB	049H
	DB	042H
	DB	028H
	DB	04aH
	DB	029H
	DB	042H
	DB	049H
	DB	04aH
	DB	029H
	DB	04aH
	DB	049H
	DB	042H
	DB	049H
	DB	04aH
	DB	028H
	DB	04aH
	DB	048H
	DB	042H
	DB	029H
	DB	042H
	DB	028H
	DB	04aH
	DB	048H
	DB	04aH
	DB	049H
	DB	042H
	DB	028H
	DB	04aH
	DB	049H
	DB	04aH
	DB	048H
	DB	042H
	DB	029H
	DB	04aH
	DB	049H
	DB	04aH
	DB	048H
	DB	042H
	DB	029H
	DB	04aH
	DB	029H
	DB	04aH
	DB	048H
	DB	042H
	DB	029H
	DB	04aH
	DB	029H
	DB	04aH
	DB	048H
	DB	042H
	DB	048H
	DB	04aH
	DB	029H
	DB	042H
	DB	029H
	DB	04aH
	DB	048H
	DB	04aH
	DB	049H
	DB	042H
	DB	029H
	DB	04aH
	DB	028H
	DB	042H
	DB	049H
	DB	04aH
	DB	029H
	DB	04aH
	DB	028H
	DB	042H
	DB	049H
	DB	04aH
	DB	028H
	DB	042H
	DB	028H
	DB	04aH
	DB	049H
	DB	04aH
	DB	028H
	DB	042H
	DB	049H
	DB	04aH
	DB	049H
	DB	04aH
	DB	028H
	DB	04aH
	DB	049H
	DB	04aH
	DB	029H
	DB	04aH
	DB	029H
	DB	04aH
	DB	049H
	DB	042H
	DB	049H
	DB	042H
	DB	049H
	DB	04aH
	DB	049H
	DB	042H
	DB	048H
	DB	042H
	DB	049H
	DB	04aH
	DB	049H
	DB	042H
	DB	049H
	DB	04aH
	DB	048H
	DB	042H
	DB	029H
	DB	04aH
	DB	029H
	DB	04aH
	DB	048H
	DB	042H
	DB	029H
	DB	042H
	DB	049H
	DB	04aH
	DB	048H
	DB	04aH
	DB	029H
	DB	04aH
	DB	048H
	DB	04aH
	DB	029H
	DB	04aH
	DB	029H
	DB	04aH
	DB	028H
	DB	04aH
	DB	029H
	DB	04aH
	DB	029H
	DB	04aH
	DB	048H
	DB	042H
	DB	029H
	DB	04aH
	DB	049H
	DB	04aH
	DB	048H
	DB	04aH
	DB	029H
	DB	042H
	DB	049H
	DB	04aH
	DB	028H
	DB	04aH
	DB	049H
	DB	04aH
	DB	049H
	DB	042H
	DB	049H
	DB	04aH
	DB	049H
	DB	04aH
	DB	049H
	DB	042H
	DB	029H
	DB	04aH
	DB	049H
	DB	04aH
	DB	049H
	DB	042H
	DB	049H
	DB	04aH
	DB	049H
	DB	04aH
	DB	048H
	DB	042H
	DB	049H
	DB	04aH
	DB	049H
	DB	04aH
	DB	049H
	DB	042H
	DB	029H
	DB	04aH
	DB	049H
	DB	04aH
	DB	048H
	DB	042H
	DB	049H
	DB	04aH
	DB	029H
	DB	04aH
	DB	048H
	DB	04aH
	DB	049H
	DB	04aH
	DB	029H
	DB	04aH
	DB	048H
	DB	04aH
	DB	049H
	DB	04aH
	DB	048H
	DB	042H
	DB	029H
	DB	04aH
	DB	048H
	DB	04aH
	DB	049H
	DB	042H
	DB	049H
	DB	04aH
	DB	029H
	DB	04aH
	DB	048H
	DB	04aH
	DB	049H
	DB	042H
	DB	029H
	DB	04aH
	DB	029H
	DB	042H
	DB	048H
	DB	04aH
	DB	049H
	DB	042H
	DB	028H
	DB	04aH
	DB	049H
	DB	04aH
	DB	048H
	DB	04aH
	DB	029H
	DB	04aH
	DB	049H
	DB	04aH
	DB	049H
	DB	04aH
	DB	029H
	DB	04aH
	DB	049H
	DB	042H
	DB	048H
	DB	04aH
	DB	049H
	DB	04aH
	DB	049H
	DB	042H
	DB	048H
	DB	04aH
	DB	048H
	DB	04aH
	DB	049H
	DB	042H
	DB	049H
	DB	04aH
	DB	028H
	DB	04aH
	DB	048H
	DB	04aH
	DB	049H
	DB	04aH
	DB	029H
	DB	04aH
	DB	049H
	DB	042H
	DB	048H
	DB	04aH
	DB	049H
	DB	04aH
	DB	048H
	DB	04aH
	DB	049H
	DB	04aH
	DB	029H
	DB	04aH
	DB	049H
	DB	04aH
	DB	029H
	DB	04aH
	DB	049H
	DB	04aH
	DB	049H
	DB	04aH
	DB	029H
	DB	04aH
	DB	049H
	DB	04aH
	DB	048H
	DB	04aH
	DB	049H
	DB	04aH
	DB	049H
	DB	04aH
	DB	048H
	DB	04aH
	DB	049H
	DB	04aH
	DB	029H
	DB	04aH
	DB	048H
	DB	042H
	DB	029H
	DB	04aH
	DB	049H
	DB	04aH
	DB	049H
	DB	042H
	DB	049H
	DB	04aH
	DB	049H
	DB	04aH
	DB	049H
	DB	04aH
	DB	049H
	DB	042H
	DB	049H
	DB	04aH
	DB	049H
	DB	04aH
	DB	049H
	DB	042H
	DB	049H
	DB	04aH
	DB	049H
	DB	04aH
	DB	049H
	DB	042H
	DB	049H
	DB	04aH
	DB	049H
	DB	04aH
	DB	049H
	DB	04aH
	DB	049H
	DB	04aH
	DB	048H
	DB	042H
	DB	049H
	DB	04aH
	DB	049H
	DB	04aH
	DB	048H
	DB	042H
	DB	049H
	DB	04aH
	DB	049H
	DB	04aH
	DB	048H
	DB	04aH
	DB	049H
	DB	04aH
	DB	049H
	DB	04aH
	DB	048H
	DB	04aH
	DB	048H
	DB	04aH
	DB	049H
	DB	04aH
	DB	048H
	DB	042H
	DB	048H
	DB	04aH
	DB	049H
	DB	04aH
	DB	049H
	DB	042H
	DB	048H
	DB	04aH
	DB	049H
	DB	04aH
	DB	049H
	DB	04aH
	DB	048H
	DB	04aH
	DB	049H
	DB	042H
	DB	048H
	DB	04aH
	DB	048H
	DB	04aH
	DB	049H
	DB	042H
	DB	048H
	DB	04aH
	DB	049H
	DB	04aH
	DB	048H
	DB	04aH
	DB	049H
	DB	04aH
	DB	049H
	DB	04aH
	DB	049H
	DB	04aH
	DB	049H
	DB	04aH
	DB	048H
	DB	042H
	DB	049H
	DB	04aH
	DB	049H
	DB	04aH
	DB	049H
	DB	04aH
	DB	049H
	DB	042H
	DB	049H
	DB	04aH
	DB	048H
	DB	04aH
	DB	049H
	DB	042H
	DB	049H
	DB	04aH
	DB	049H
	DB	04aH
	DB	049H
	DB	04aH
	DB	049H
	DB	04aH
	DB	049H
	DB	04aH
	DB	049H
	DB	04aH
	DB	048H
	DB	04aH
	DB	049H
	DB	04aH
	DB	049H
	DB	04aH
	DB	048H
	DB	04aH
	DB	049H
	DB	04aH
	DB	049H
	DB	04aH
	DB	028H
	DB	04aH
	DB	049H
	DB	04aH
	DB	049H
	DB	04aH
	DB	049H
	DB	04aH
	DB	029H
	DB	04aH
	DB	049H
	DB	04aH
	DB	049H
	DB	04aH
	DB	029H
	DB	04aH
	DB	048H
	DB	04aH
	DB	049H
	DB	04aH
	DB	029H
	DB	04aH
	DB	049H
	DB	04aH
	DB	048H
	DB	04aH
	DB	049H
	DB	04aH
	DB	049H
	DB	04aH
	DB	049H
	DB	04aH
	DB	049H
	DB	04aH
	DB	049H
	DB	042H
	DB	028H
	DB	04aH
	DB	049H
	DB	04aH
	DB	049H
	DB	042H
	DB	049H
	DB	04aH
	DB	028H
	DB	04aH
	DB	049H
	DB	04aH
	DB	049H
	DB	04aH
	DB	028H
	DB	042H
	DB	028H
	DB	04aH
	DB	028H
	DB	042H
	DB	029H
	DB	042H
	DB	028H
	DB	042H
	DB	08H
	DB	042H
	DB	028H
	DB	042H
	DB	028H
	DB	04aH
	DB	08H
	DB	042H
	DB	028H
	DB	042H
	DB	029H
	DB	04aH
	DB	028H
	DB	042H
	DB	08H
	DB	042H
	DB	028H
	DB	04aH
	DB	028H
	DB	042H
	DB	08H
	DB	042H
	DB	028H
	DB	04aH
	DB	028H
	DB	042H
	DB	08H
	DB	042H
	DB	028H
	DB	04aH
	DB	028H
	DB	042H
	DB	08H
	DB	04aH
	DB	028H
	DB	042H
	DB	028H
	DB	042H
	DB	08H
	DB	04aH
	DB	028H
	DB	042H
	DB	028H
	DB	042H
	DB	08H
	DB	042H
	DB	028H
	DB	042H
	DB	028H
	DB	042H
	DB	028H
	DB	042H
	DB	08H
	DB	042H
	DB	028H
	DB	042H
	DB	08H
	DB	042H
	DB	028H
	DB	04aH
	DB	028H
	DB	042H
	DB	08H
	DB	042H
	DB	028H
	DB	042H
	DB	08H
	DB	042H
	DB	028H
	DB	042H
	DB	08H
	DB	042H
	DB	028H
	DB	042H
	DB	028H
	DB	04aH
	DB	028H
	DB	042H
	DB	028H
	DB	042H
	DB	028H
	DB	042H
	DB	028H
	DB	04aH
	DB	028H
	DB	042H
	DB	028H
	DB	042H
	DB	028H
	DB	04aH
	DB	028H
	DB	042H
	DB	08H
	DB	042H
	DB	028H
	DB	042H
	DB	028H
	DB	042H
	DB	08H
	DB	04aH
	DB	029H
	DB	042H
	DB	028H
	DB	042H
	DB	028H
	DB	042H
	DB	028H
	DB	042H
	DB	08H
	DB	042H
	DB	029H
	DB	042H
	DB	028H
	DB	042H
	DB	028H
	DB	04aH
	DB	029H
	DB	042H
	DB	08H
	DB	042H
	DB	029H
	DB	04aH
	DB	028H
	DB	042H
	DB	08H
	DB	042H
	DB	028H
	DB	04aH
	DB	028H
	DB	042H
	DB	029H
	DB	042H
	DB	08H
	DB	04aH
	DB	028H
	DB	042H
	DB	028H
	DB	042H
	DB	08H
	DB	04aH
	DB	028H
	DB	042H
	DB	029H
	DB	042H
	DB	08H
	DB	04aH
	DB	028H
	DB	042H
	DB	028H
	DB	042H
	DB	029H
	DB	042H
	DB	086H
	DB	031H
	DB	028H
	DB	042H
	DB	028H
	DB	042H
	DB	028H
	DB	042H
	DB	028H
	DB	042H
	DB	028H
	DB	042H
	DB	028H
	DB	042H
	DB	08H
	DB	042H
	DB	029H
	DB	042H
	DB	028H
	DB	042H
	DB	028H
	DB	04aH
	DB	09H
	DB	042H
	DB	028H
	DB	042H
	DB	028H
	DB	042H
	DB	09H
	DB	042H
	DB	028H
	DB	042H
	DB	028H
	DB	04aH
	DB	028H
	DB	042H
	DB	028H
	DB	04aH
	DB	028H
	DB	042H
	DB	028H
	DB	04aH
	DB	09H
	DB	042H
	DB	08H
	DB	04aH
	DB	08H
	DB	042H
	DB	029H
	DB	042H
	DB	028H
	DB	04aH
	DB	08H
	DB	042H
	DB	028H
	DB	042H
	DB	029H
	DB	04aH
	DB	028H
	DB	042H
	DB	08H
	DB	04aH
	DB	028H
	DB	042H
	DB	08H
	DB	042H
	DB	028H
	DB	042H
	DB	08H
	DB	042H
	DB	028H
	DB	04aH
	DB	029H
	DB	042H
	DB	08H
	DB	042H
	DB	028H
	DB	04aH
	DB	028H
	DB	04aH
	DB	08H
	DB	042H
	DB	08H
	DB	042H
	DB	028H
	DB	042H
	DB	08H
	DB	042H
	DB	028H
	DB	04aH
	DB	028H
	DB	042H
	DB	09H
	DB	042H
	DB	028H
	DB	04aH
	DB	028H
	DB	042H
	DB	08H
	DB	042H
	DB	08H
	DB	04aH
	DB	028H
	DB	042H
	DB	08H
	DB	042H
	DB	028H
	DB	04aH
	DB	029H
	DB	042H
	DB	08H
	DB	042H
	DB	028H
	DB	042H
	DB	08H
	DB	042H
	DB	09H
	DB	042H
	DB	028H
	DB	04aH
	DB	08H
	DB	042H
	DB	08H
	DB	042H
	DB	028H
	DB	042H
	DB	08H
	DB	04aH
	DB	08H
	DB	042H
	DB	028H
	DB	04aH
	DB	028H
	DB	042H
	DB	08H
	DB	042H
	DB	028H
	DB	042H
	DB	028H
	DB	042H
	DB	08H
	DB	042H
	DB	029H
	DB	042H
	DB	028H
	DB	042H
	DB	08H
	DB	042H
	DB	028H
	DB	042H
	DB	08H
	DB	042H
	DB	028H
	DB	042H
	DB	028H
	DB	042H
	DB	08H
	DB	042H
	DB	028H
	DB	042H
	DB	028H
	DB	042H
	DB	028H
	DB	042H
	DB	028H
	DB	042H
	DB	029H
	DB	04aH
	DB	049H
	DB	042H
	DB	028H
	DB	04aH
	DB	028H
	DB	042H
	DB	029H
	DB	04aH
	DB	048H
	DB	042H
	DB	028H
	DB	04aH
	DB	049H
	DB	042H
	DB	028H
	DB	042H
	DB	049H
	DB	04aH
	DB	028H
	DB	042H
	DB	048H
	DB	042H
	DB	029H
	DB	04aH
	DB	049H
	DB	042H
	DB	028H
	DB	042H
	DB	028H
	DB	04aH
	DB	049H
	DB	042H
	DB	028H
	DB	042H
	DB	028H
	DB	04aH
	DB	049H
	DB	042H
	DB	028H
	DB	042H
	DB	029H
	DB	04aH
	DB	028H
	DB	042H
	DB	028H
	DB	04aH
	DB	029H
	DB	042H
	DB	028H
	DB	042H
	DB	049H
	DB	04aH
	DB	028H
	DB	042H
	DB	028H
	DB	042H
	DB	049H
	DB	04aH
	DB	028H
	DB	042H
	DB	028H
	DB	04aH
	DB	029H
	DB	04aH
	DB	029H
	DB	042H
	DB	048H
	DB	04aH
	DB	029H
	DB	042H
	DB	029H
	DB	042H
	DB	048H
	DB	04aH
	DB	028H
	DB	042H
	DB	029H
	DB	042H
	DB	048H
	DB	04aH
	DB	028H
	DB	042H
	DB	029H
	DB	042H
	DB	028H
	DB	04aH
	DB	048H
	DB	04aH
	DB	029H
	DB	042H
	DB	028H
	DB	04aH
	DB	028H
	DB	042H
	DB	029H
	DB	042H
	DB	029H
	DB	04aH
	DB	028H
	DB	04aH
	DB	029H
	DB	042H
	DB	048H
	DB	04aH
	DB	029H
	DB	042H
	DB	029H
	DB	04aH
	DB	028H
	DB	04aH
	DB	029H
	DB	042H
	DB	028H
	DB	04aH
	DB	049H
	DB	042H
	DB	028H
	DB	04aH
	DB	028H
	DB	04aH
	DB	049H
	DB	042H
	DB	028H
	DB	04aH
	DB	029H
	DB	04aH
	DB	049H
	DB	042H
	DB	028H
	DB	04aH
	DB	029H
	DB	04aH
	DB	049H
	DB	042H
	DB	028H
	DB	04aH
	DB	029H
	DB	04aH
	DB	028H
	DB	042H
	DB	048H
	DB	04aH
	DB	029H
	DB	042H
	DB	029H
	DB	04aH
	DB	048H
	DB	04aH
	DB	029H
	DB	042H
	DB	029H
	DB	04aH
	DB	048H
	DB	04aH
	DB	029H
	DB	042H
	DB	028H
	DB	04aH
	DB	029H
	DB	04aH
	DB	029H
	DB	042H
	DB	048H
	DB	04aH
	DB	029H
	DB	04aH
	DB	029H
	DB	042H
	DB	048H
	DB	04aH
	DB	049H
	DB	04aH
	DB	049H
	DB	042H
	DB	048H
	DB	04aH
	DB	049H
	DB	04aH
	DB	049H
	DB	042H
	DB	029H
	DB	04aH
	DB	048H
	DB	04aH
	DB	049H
	DB	042H
	DB	028H
	DB	04aH
	DB	028H
	DB	04aH
	DB	029H
	DB	042H
	DB	048H
	DB	04aH
	DB	028H
	DB	04aH
	DB	029H
	DB	042H
	DB	049H
	DB	04aH
	DB	028H
	DB	04aH
	DB	029H
	DB	042H
	DB	049H
	DB	04aH
	DB	028H
	DB	04aH
	DB	049H
	DB	042H
	DB	049H
	DB	04aH
	DB	028H
	DB	042H
	DB	049H
	DB	042H
	DB	029H
	DB	04aH
	DB	049H
	DB	04aH
	DB	049H
	DB	042H
	DB	029H
	DB	04aH
	DB	028H
	DB	04aH
	DB	049H
	DB	042H
	DB	029H
	DB	04aH
	DB	028H
	DB	04aH
	DB	049H
	DB	042H
	DB	028H
	DB	04aH
	DB	029H
	DB	042H
	DB	048H
	DB	04aH
	DB	028H
	DB	042H
	DB	049H
	DB	04aH
	DB	049H
	DB	042H
	DB	028H
	DB	04aH
	DB	049H
	DB	042H
	DB	028H
	DB	04aH
	DB	049H
	DB	04aH
	DB	028H
	DB	042H
	DB	048H
	DB	04aH
	DB	028H
	DB	04aH
	DB	049H
	DB	042H
	DB	028H
	DB	04aH
	DB	049H
	DB	04aH
	DB	048H
	DB	042H
	DB	029H
	DB	04aH
	DB	049H
	DB	04aH
	DB	048H
	DB	042H
	DB	029H
	DB	04aH
	DB	049H
	DB	04aH
	DB	028H
	DB	04aH
	DB	029H
	DB	04aH
	DB	049H
	DB	042H
	DB	028H
	DB	04aH
	DB	049H
	DB	04aH
	DB	028H
	DB	042H
	DB	048H
	DB	04aH
	DB	049H
	DB	04aH
	DB	028H
	DB	04aH
	DB	048H
	DB	04aH
	DB	049H
	DB	04aH
	DB	048H
	DB	042H
	DB	029H
	DB	04aH
	DB	048H
	DB	04aH
	DB	049H
	DB	04aH
	DB	048H
	DB	04aH
	DB	048H
	DB	042H
	DB	049H
	DB	04aH
	DB	048H
	DB	04aH
	DB	049H
	DB	042H
	DB	049H
	DB	04aH
	DB	048H
	DB	04aH
	DB	049H
	DB	042H
	DB	049H
	DB	042H
	DB	048H
	DB	04aH
	DB	049H
	DB	042H
	DB	049H
	DB	042H
	DB	049H
	DB	04aH
	DB	049H
	DB	042H
	DB	049H
	DB	04aH
	DB	049H
	DB	04aH
	DB	049H
	DB	04aH
	DB	049H
	DB	04aH
	DB	049H
	DB	04aH
	DB	048H
	DB	04aH
	DB	049H
	DB	04aH
	DB	049H
	DB	04aH
	DB	028H
	DB	042H
	DB	049H
	DB	04aH
	DB	048H
	DB	04aH
	DB	028H
	DB	042H
	DB	049H
	DB	04aH
	DB	048H
	DB	04aH
	DB	048H
	DB	04aH
	DB	029H
	DB	042H
	DB	048H
	DB	04aH
	DB	049H
	DB	04aH
	DB	029H
	DB	042H
	DB	028H
	DB	04aH
	DB	049H
	DB	04aH
	DB	048H
	DB	042H
	DB	028H
	DB	042H
	DB	049H
	DB	04aH
	DB	049H
	DB	04aH
	DB	048H
	DB	04aH
	DB	049H
	DB	04aH
	DB	028H
	DB	042H
	DB	049H
	DB	04aH
	DB	048H
	DB	042H
	DB	049H
	DB	04aH
	DB	049H
	DB	04aH
	DB	028H
	DB	04aH
	DB	049H
	DB	04aH
	DB	049H
	DB	04aH
	DB	028H
	DB	04aH
	DB	048H
	DB	04aH
	DB	029H
	DB	04aH
	DB	048H
	DB	04aH
	DB	049H
	DB	042H
	DB	049H
	DB	04aH
	DB	048H
	DB	04aH
	DB	049H
	DB	04aH
	DB	049H
	DB	04aH
	DB	028H
	DB	04aH
	DB	049H
	DB	04aH
	DB	049H
	DB	04aH
	DB	049H
	DB	04aH
	DB	028H
	DB	04aH
	DB	049H
	DB	04aH
	DB	048H
	DB	04aH
	DB	049H
	DB	04aH
	DB	049H
	DB	04aH
	DB	029H
	DB	04aH
	DB	049H
	DB	04aH
	DB	049H
	DB	04aH
	DB	028H
	DB	04aH
	DB	029H
	DB	04aH
	DB	049H
	DB	04aH
	DB	049H
	DB	04aH
	DB	049H
	DB	04aH
	DB	029H
	DB	042H
	DB	048H
	DB	04aH
	DB	049H
	DB	04aH
