; Listing generated by Microsoft (R) Optimizing Compiler Version 19.27.29112.0 

	TITLE	D:\hackTuesProject\project\TouchGFX\generated\images\src\BathRoom\image_bathtub_display_on.cpp
	.686P
	.XMM
	include listing.inc
	.model	flat

INCLUDELIB MSVCRTD
INCLUDELIB OLDNAMES

PUBLIC	?image_bathtub_display_on@@3QBEB		; image_bathtub_display_on
CONST	SEGMENT
?image_bathtub_display_on@@3QBEB DB 0d8H		; image_bathtub_display_on
	DB	0eeH
	DB	097H
	DB	0eeH
	DB	019H
	DB	0f7H
	DB	05aH
	DB	0ffH
	DB	05aH
	DB	0ffH
	DB	07bH
	DB	0ffH
	DB	09cH
	DB	0ffH
	DB	0feH
	DB	0ffH
	DB	0ddH
	DB	0ffH
	DB	09cH
	DB	0ffH
	DB	05aH
	DB	0ffH
	DB	03aH
	DB	0f7H
	DB	05aH
	DB	0ffH
	DB	09cH
	DB	0ffH
	DB	07bH
	DB	0ffH
	DB	039H
	DB	0f7H
	DB	05aH
	DB	0ffH
	DB	05aH
	DB	0ffH
	DB	039H
	DB	0f7H
	DB	05aH
	DB	0ffH
	DB	05aH
	DB	0ffH
	DB	03aH
	DB	0f7H
	DB	01aH
	DB	0f7H
	DB	0b7H
	DB	0eeH
	DB	05aH
	DB	0ffH
	DB	05aH
	DB	0ffH
	DB	0b8H
	DB	0e6H
	DB	03aH
	DB	0ffH
	DB	07bH
	DB	0ffH
	DB	0bcH
	DB	0ffH
	DB	0fdH
	DB	0ffH
	DB	0feH
	DB	0ffH
	DB	0ffH
	DB	0ffH
	DB	0feH
	DB	0ffH
	DB	0feH
	DB	0ffH
	DB	0feH
	DB	0ffH
	DB	0ffH
	DB	0ffH
	DB	0feH
	DB	0ffH
	DB	0fdH
	DB	0ffH
	DB	0fdH
	DB	0ffH
	DB	0fdH
	DB	0ffH
	DB	0dcH
	DB	0ffH
	DB	0dcH
	DB	0ffH
	DB	0bbH
	DB	0ffH
	DB	03aH
	DB	0f7H
	DB	019H
	DB	0f7H
	DB	0bcH
	DB	0ffH
	DB	01aH
	DB	0efH
	DB	09cH
	DB	0ffH
	DB	07cH
	DB	0ffH
	DB	07cH
	DB	0ffH
	DB	07bH
	DB	0f7H
	DB	07bH
	DB	0f7H
	DB	07bH
	DB	0f7H
	DB	05bH
	DB	0f7H
	DB	05bH
	DB	0f7H
	DB	05bH
	DB	0f7H
	DB	05bH
	DB	0f7H
	DB	05bH
	DB	0f7H
	DB	05bH
	DB	0f7H
	DB	05bH
	DB	0f7H
	DB	05bH
	DB	0f7H
	DB	05bH
	DB	0f7H
	DB	05bH
	DB	0f7H
	DB	05bH
	DB	0f7H
	DB	07bH
	DB	0ffH
	DB	07bH
	DB	0ffH
	DB	07bH
	DB	0ffH
	DB	03aH
	DB	0f7H
	DB	0fdH
	DB	0ffH
	DB	09cH
	DB	0ffH
	DB	065H
	DB	029H
	DB	066H
	DB	029H
	DB	086H
	DB	031H
	DB	086H
	DB	031H
	DB	0a6H
	DB	039H
	DB	086H
	DB	031H
	DB	0a6H
	DB	039H
	DB	0a7H
	DB	039H
	DB	0c7H
	DB	039H
	DB	0c7H
	DB	039H
	DB	0c7H
	DB	039H
	DB	0c7H
	DB	039H
	DB	0e7H
	DB	041H
	DB	0e7H
	DB	041H
	DB	08H
	DB	042H
	DB	08H
	DB	042H
	DB	08H
	DB	042H
	DB	028H
	DB	042H
	DB	028H
	DB	04aH
	DB	09cH
	DB	0ffH
	DB	07bH
	DB	0ffH
	DB	0fdH
	DB	0ffH
	DB	09cH
	DB	0ffH
	DB	025H
	DB	021H
	DB	071H
	DB	05bH
	DB	04H
	DB	021H
	DB	0e4H
	DB	020H
	DB	066H
	DB	029H
	DB	0e3H
	DB	018H
	DB	0e4H
	DB	020H
	DB	0e4H
	DB	020H
	DB	066H
	DB	031H
	DB	04H
	DB	021H
	DB	04H
	DB	021H
	DB	0e4H
	DB	020H
	DB	0e3H
	DB	020H
	DB	02aH
	DB	01aH
	DB	0e4H
	DB	020H
	DB	04H
	DB	021H
	DB	04H
	DB	021H
	DB	086H
	DB	031H
	DB	024H
	DB	021H
	DB	09cH
	DB	0ffH
	DB	09bH
	DB	0ffH
	DB	0fcH
	DB	0ffH
	DB	09cH
	DB	0ffH
	DB	0e4H
	DB	020H
	DB	0aaH
	DB	021H
	DB	0c3H
	DB	018H
	DB	04H
	DB	021H
	DB	04H
	DB	021H
	DB	04H
	DB	021H
	DB	062H
	DB	010H
	DB	0c3H
	DB	010H
	DB	0a2H
	DB	010H
	DB	0c3H
	DB	018H
	DB	061H
	DB	08H
	DB	083H
	DB	08H
	DB	067H
	DB	01H
	DB	088H
	DB	01H
	DB	026H
	DB	09H
	DB	041H
	DB	08H
	DB	0a3H
	DB	018H
	DB	0e3H
	DB	018H
	DB	0a3H
	DB	018H
	DB	09cH
	DB	0ffH
	DB	07bH
	DB	0ffH
	DB	0fcH
	DB	0ffH
	DB	09cH
	DB	0ffH
	DB	051H
	DB	08cH
	DB	092H
	DB	094H
	DB	0b2H
	DB	094H
	DB	0d3H
	DB	09cH
	DB	0b3H
	DB	09cH
	DB	0d3H
	DB	09cH
	DB	0d3H
	DB	09cH
	DB	0d3H
	DB	09cH
	DB	0d3H
	DB	09cH
	DB	092H
	DB	094H
	DB	071H
	DB	094H
	DB	071H
	DB	094H
	DB	04dH
	DB	073H
	DB	06dH
	DB	073H
	DB	06eH
	DB	073H
	DB	0aeH
	DB	073H
	DB	08eH
	DB	073H
	DB	06dH
	DB	06bH
	DB	02dH
	DB	06bH
	DB	09cH
	DB	0ffH
	DB	07bH
	DB	0ffH
	DB	0fcH
	DB	0ffH
	DB	09cH
	DB	0ffH
	DB	096H
	DB	0b5H
	DB	059H
	DB	0ceH
	DB	0baH
	DB	0d6H
	DB	0bbH
	DB	0deH
	DB	059H
	DB	0ceH
	DB	0f8H
	DB	0c5H
	DB	059H
	DB	0ceH
	DB	0baH
	DB	0d6H
	DB	09aH
	DB	0d6H
	DB	09aH
	DB	0d6H
	DB	09aH
	DB	0d6H
	DB	09aH
	DB	0d6H
	DB	041H
	DB	08H
	DB	0a2H
	DB	018H
	DB	082H
	DB	010H
	DB	082H
	DB	010H
	DB	0a2H
	DB	010H
	DB	041H
	DB	08H
	DB	055H
	DB	0adH
	DB	09cH
	DB	0ffH
	DB	05aH
	DB	0ffH
	DB	0dcH
	DB	0ffH
	DB	09cH
	DB	0ffH
	DB	076H
	DB	0b5H
	DB	038H
	DB	0ceH
	DB	079H
	DB	0d6H
	DB	07dH
	DB	0f7H
	DB	0dbH
	DB	0deH
	DB	01cH
	DB	0e7H
	DB	09aH
	DB	0d6H
	DB	018H
	DB	0c6H
	DB	09aH
	DB	0d6H
	DB	0bbH
	DB	0d6H
	DB	0baH
	DB	0d6H
	DB	07aH
	DB	0d6H
	DB	00H
	DB	00H
	DB	046H
	DB	011H
	DB	067H
	DB	011H
	DB	00H
	DB	00H
	DB	062H
	DB	010H
	DB	020H
	DB	00H
	DB	0f4H
	DB	0a4H
	DB	09cH
	DB	0ffH
	DB	07aH
	DB	0ffH
	DB	0dcH
	DB	0ffH
	DB	09cH
	DB	0ffH
	DB	056H
	DB	095H
	DB	0f9H
	DB	09dH
	DB	07bH
	DB	0aeH
	DB	09bH
	DB	0aeH
	DB	05aH
	DB	0beH
	DB	059H
	DB	0ceH
	DB	0baH
	DB	0d6H
	DB	01cH
	DB	0e7H
	DB	09aH
	DB	0d6H
	DB	059H
	DB	0ceH
	DB	09aH
	DB	0d6H
	DB	07aH
	DB	0d6H
	DB	00H
	DB	00H
	DB	0c4H
	DB	08H
	DB	05H
	DB	01H
	DB	060H
	DB	010H
	DB	01H
	DB	00H
	DB	020H
	DB	00H
	DB	0f3H
	DB	09cH
	DB	09cH
	DB	0ffH
	DB	05aH
	DB	0ffH
	DB	0dcH
	DB	0ffH
	DB	09cH
	DB	0ffH
	DB	036H
	DB	08dH
	DB	0f9H
	DB	09dH
	DB	03aH
	DB	0a6H
	DB	05aH
	DB	0a6H
	DB	05aH
	DB	0a6H
	DB	019H
	DB	0a6H
	DB	0f3H
	DB	0a4H
	DB	09aH
	DB	0d6H
	DB	0b2H
	DB	09cH
	DB	079H
	DB	0ceH
	DB	039H
	DB	0ceH
	DB	079H
	DB	0ceH
	DB	00H
	DB	00H
	DB	00H
	DB	00H
	DB	023H
	DB	0e5H
	DB	065H
	DB	0e6H
	DB	021H
	DB	084H
	DB	00H
	DB	00H
	DB	0f3H
	DB	09cH
	DB	09cH
	DB	0ffH
	DB	05bH
	DB	0ffH
	DB	0dcH
	DB	0ffH
	DB	09cH
	DB	0ffH
	DB	0b4H
	DB	07cH
	DB	0b3H
	DB	07cH
	DB	0f9H
	DB	09dH
	DB	036H
	DB	085H
	DB	03aH
	DB	0aeH
	DB	0f9H
	DB	09dH
	DB	097H
	DB	08dH
	DB	039H
	DB	0c6H
	DB	07aH
	DB	0d6H
	DB	03dH
	DB	0efH
	DB	0dbH
	DB	0deH
	DB	038H
	DB	0c6H
	DB	00H
	DB	00H
	DB	084H
	DB	0fbH
	DB	0adH
	DB	0bcH
	DB	0b3H
	DB	0ffH
	DB	0ebH
	DB	0e7H
	DB	061H
	DB	019H
	DB	0d3H
	DB	09cH
	DB	09cH
	DB	0ffH
	DB	05bH
	DB	0ffH
	DB	0dcH
	DB	0ffH
	DB	09cH
	DB	0ffH
	DB	073H
	DB	074H
	DB	0f5H
	DB	084H
	DB	0d8H
	DB	09dH
	DB	097H
	DB	095H
	DB	0f9H
	DB	09dH
	DB	097H
	DB	08dH
	DB	0b8H
	DB	095H
	DB	0f9H
	DB	09dH
	DB	038H
	DB	0c6H
	DB	059H
	DB	0ceH
	DB	01cH
	DB	0e7H
	DB	0f8H
	DB	0c5H
	DB	0c3H
	DB	010H
	DB	04aH
	DB	0fbH
	DB	0b4H
	DB	0e5H
	DB	0fbH
	DB	0ffH
	DB	0f2H
	DB	0bfH
	DB	022H
	DB	047H
	DB	0b3H
	DB	09cH
	DB	09cH
	DB	0ffH
	DB	07aH
	DB	0ffH
	DB	0dcH
	DB	0ffH
	DB	09cH
	DB	0ffH
	DB	059H
	DB	0ceH
	DB	097H
	DB	09dH
	DB	0b8H
	DB	095H
	DB	0d9H
	DB	095H
	DB	0f9H
	DB	09dH
	DB	097H
	DB	08dH
	DB	015H
	DB	07dH
	DB	0f9H
	DB	0a5H
	DB	019H
	DB	0a6H
	DB	0dbH
	DB	0deH
	DB	03dH
	DB	0efH
	DB	0b7H
	DB	0b5H
	DB	065H
	DB	021H
	DB	0eeH
	DB	0faH
	DB	05bH
	DB	0feH
	DB	09fH
	DB	0efH
	DB	0faH
	DB	0a7H
	DB	0cbH
	DB	0fH
	DB	092H
	DB	094H
	DB	09cH
	DB	0ffH
	DB	07bH
	DB	0ffH
	DB	0bbH
	DB	0ffH
	DB	09cH
	DB	0ffH
	DB	059H
	DB	0ceH
	DB	05dH
	DB	0efH
	DB	01cH
	DB	0dfH
	DB	0bbH
	DB	0ceH
	DB	05aH
	DB	0beH
	DB	07aH
	DB	0beH
	DB	019H
	DB	0aeH
	DB	09bH
	DB	0c6H
	DB	01cH
	DB	0e7H
	DB	0fbH
	DB	0deH
	DB	034H
	DB	0a5H
	DB	075H
	DB	0adH
	DB	04H
	DB	021H
	DB	0f6H
	DB	0f9H
	DB	0dfH
	DB	0fcH
	DB	09fH
	DB	0c5H
	DB	09fH
	DB	076H
	DB	0f3H
	DB	014H
	DB	092H
	DB	094H
	DB	09cH
	DB	0ffH
	DB	05bH
	DB	0ffH
	DB	0dcH
	DB	0ffH
	DB	09cH
	DB	0ffH
	DB	0f7H
	DB	0bdH
	DB	01cH
	DB	0e7H
	DB	09eH
	DB	0f7H
	DB	09aH
	DB	0d6H
	DB	039H
	DB	0ceH
	DB	0f8H
	DB	0bdH
	DB	0d7H
	DB	0bdH
	DB	096H
	DB	0b5H
	DB	014H
	DB	0a5H
	DB	051H
	DB	08cH
	DB	051H
	DB	08cH
	DB	076H
	DB	0b5H
	DB	062H
	DB	010H
	DB	0e5H
	DB	028H
	DB	07fH
	DB	0f2H
	DB	01fH
	DB	093H
	DB	0feH
	DB	022H
	DB	065H
	DB	029H
	DB	071H
	DB	08cH
	DB	09cH
	DB	0ffH
	DB	07bH
	DB	0ffH
	DB	05aH
	DB	0ffH
	DB	01aH
	DB	0f7H
	DB	09cH
	DB	0ffH
	DB	07cH
	DB	0ffH
	DB	07cH
	DB	0f7H
	DB	03bH
	DB	0efH
	DB	0daH
	DB	0deH
	DB	078H
	DB	0d6H
	DB	017H
	DB	0c6H
	DB	075H
	DB	0b5H
	DB	0f3H
	DB	0a4H
	DB	092H
	DB	094H
	DB	051H
	DB	08cH
	DB	055H
	DB	0adH
	DB	0cH
	DB	063H
	DB	0aaH
	DB	052H
	DB	0aH
	DB	04aH
	DB	0cdH
	DB	049H
	DB	043H
	DB	031H
	DB	045H
	DB	029H
	DB	030H
	DB	084H
	DB	09cH
	DB	0ffH
	DB	07bH
	DB	0ffH
	DB	0d8H
	DB	0eeH
	DB	0f9H
	DB	0f6H
	DB	0bbH
	DB	0ffH
	DB	07aH
	DB	0ffH
	DB	039H
	DB	0ffH
	DB	0f8H
	DB	0f6H
	DB	0d8H
	DB	0eeH
	DB	0d9H
	DB	0eeH
	DB	0f9H
	DB	0eeH
	DB	01aH
	DB	0f7H
	DB	05bH
	DB	0f7H
	DB	09cH
	DB	0ffH
	DB	09cH
	DB	0ffH
	DB	09cH
	DB	0ffH
	DB	09cH
	DB	0ffH
	DB	09cH
	DB	0ffH
	DB	09cH
	DB	0ffH
	DB	09cH
	DB	0ffH
	DB	09cH
	DB	0ffH
	DB	09cH
	DB	0ffH
	DB	09cH
	DB	0ffH
	DB	07bH
	DB	0ffH
	DB	09bH
	DB	0ffH
	DB	0f9H
	DB	0f6H
	DB	077H
	DB	0e6H
	DB	097H
	DB	0eeH
	DB	01aH
	DB	0f7H
	DB	03aH
	DB	0f7H
	DB	07bH
	DB	0ffH
	DB	0ddH
	DB	0ffH
	DB	0feH
	DB	0ffH
	DB	0feH
	DB	0ffH
	DB	0feH
	DB	0ffH
	DB	0dcH
	DB	0ffH
	DB	0dbH
	DB	0ffH
	DB	0fcH
	DB	0ffH
	DB	0fcH
	DB	0ffH
	DB	0bbH
	DB	0ffH
	DB	07aH
	DB	0ffH
	DB	059H
	DB	0ffH
	DB	0f8H
	DB	0feH
	DB	096H
	DB	0eeH
	DB	015H
	DB	0deH
	DB	035H
	DB	0e6H
	DB	01aH
	DB	0f7H
	DB	07bH
	DB	0ffH
CONST	ENDS
END
