; Listing generated by Microsoft (R) Optimizing Compiler Version 19.27.29112.0 

	TITLE	D:\hackTuesProject\project\TouchGFX\generated\images\src\Bathtub\image_top_go_back.cpp
	.686P
	.XMM
	include listing.inc
	.model	flat

INCLUDELIB MSVCRTD
INCLUDELIB OLDNAMES

PUBLIC	?image_top_go_back@@3QBEB			; image_top_go_back
CONST	SEGMENT
?image_top_go_back@@3QBEB DB 00H			; image_top_go_back
	DB	00H
	DB	00H
	DB	00H
	DB	00H
	DB	00H
	DB	00H
	DB	00H
	DB	021H
	DB	08H
	DB	0c3H
	DB	018H
	DB	066H
	DB	031H
	DB	08H
	DB	042H
	DB	029H
	DB	04aH
	DB	029H
	DB	04aH
	DB	029H
	DB	04aH
	DB	049H
	DB	04aH
	DB	029H
	DB	04aH
	DB	029H
	DB	04aH
	DB	049H
	DB	04aH
	DB	029H
	DB	04aH
	DB	029H
	DB	04aH
	DB	049H
	DB	04aH
	DB	029H
	DB	04aH
	DB	029H
	DB	04aH
	DB	049H
	DB	04aH
	DB	029H
	DB	04aH
	DB	029H
	DB	04aH
	DB	049H
	DB	04aH
	DB	029H
	DB	04aH
	DB	029H
	DB	04aH
	DB	049H
	DB	04aH
	DB	029H
	DB	04aH
	DB	029H
	DB	04aH
	DB	049H
	DB	04aH
	DB	029H
	DB	04aH
	DB	029H
	DB	04aH
	DB	049H
	DB	04aH
	DB	029H
	DB	04aH
	DB	029H
	DB	04aH
	DB	049H
	DB	04aH
	DB	029H
	DB	04aH
	DB	029H
	DB	04aH
	DB	049H
	DB	04aH
	DB	029H
	DB	04aH
	DB	029H
	DB	04aH
	DB	049H
	DB	04aH
	DB	029H
	DB	04aH
	DB	029H
	DB	04aH
	DB	049H
	DB	04aH
	DB	029H
	DB	04aH
	DB	029H
	DB	04aH
	DB	049H
	DB	04aH
	DB	029H
	DB	04aH
	DB	029H
	DB	04aH
	DB	049H
	DB	04aH
	DB	029H
	DB	04aH
	DB	029H
	DB	04aH
	DB	049H
	DB	04aH
	DB	029H
	DB	04aH
	DB	029H
	DB	04aH
	DB	049H
	DB	04aH
	DB	029H
	DB	04aH
	DB	029H
	DB	04aH
	DB	049H
	DB	04aH
	DB	029H
	DB	04aH
	DB	029H
	DB	04aH
	DB	049H
	DB	04aH
	DB	029H
	DB	04aH
	DB	029H
	DB	04aH
	DB	049H
	DB	04aH
	DB	029H
	DB	04aH
	DB	029H
	DB	04aH
	DB	049H
	DB	04aH
	DB	028H
	DB	042H
	DB	00H
	DB	00H
	DB	00H
	DB	00H
	DB	00H
	DB	00H
	DB	0a3H
	DB	018H
	DB	0e7H
	DB	039H
	DB	0e7H
	DB	039H
	DB	086H
	DB	031H
	DB	024H
	DB	021H
	DB	04H
	DB	021H
	DB	04H
	DB	021H
	DB	04H
	DB	021H
	DB	04H
	DB	021H
	DB	04H
	DB	021H
	DB	04H
	DB	021H
	DB	04H
	DB	021H
	DB	04H
	DB	021H
	DB	04H
	DB	021H
	DB	04H
	DB	021H
	DB	04H
	DB	021H
	DB	04H
	DB	021H
	DB	04H
	DB	021H
	DB	04H
	DB	021H
	DB	04H
	DB	021H
	DB	04H
	DB	021H
	DB	04H
	DB	021H
	DB	04H
	DB	021H
	DB	04H
	DB	021H
	DB	04H
	DB	021H
	DB	04H
	DB	021H
	DB	04H
	DB	021H
	DB	04H
	DB	021H
	DB	04H
	DB	021H
	DB	04H
	DB	021H
	DB	04H
	DB	021H
	DB	04H
	DB	021H
	DB	04H
	DB	021H
	DB	04H
	DB	021H
	DB	04H
	DB	021H
	DB	04H
	DB	021H
	DB	04H
	DB	021H
	DB	04H
	DB	021H
	DB	04H
	DB	021H
	DB	04H
	DB	021H
	DB	04H
	DB	021H
	DB	04H
	DB	021H
	DB	04H
	DB	021H
	DB	04H
	DB	021H
	DB	04H
	DB	021H
	DB	04H
	DB	021H
	DB	04H
	DB	021H
	DB	04H
	DB	021H
	DB	04H
	DB	021H
	DB	04H
	DB	021H
	DB	04H
	DB	021H
	DB	04H
	DB	021H
	DB	04H
	DB	021H
	DB	04H
	DB	021H
	DB	04H
	DB	021H
	DB	04H
	DB	021H
	DB	04H
	DB	021H
	DB	04H
	DB	021H
	DB	04H
	DB	021H
	DB	04H
	DB	021H
	DB	04H
	DB	021H
	DB	04H
	DB	021H
	DB	04H
	DB	021H
	DB	04H
	DB	021H
	DB	04H
	DB	021H
	DB	04H
	DB	021H
	DB	04H
	DB	021H
	DB	00H
	DB	00H
	DB	00H
	DB	00H
	DB	04H
	DB	021H
	DB	08H
	DB	042H
	DB	045H
	DB	029H
	DB	04H
	DB	021H
	DB	04H
	DB	021H
	DB	04H
	DB	021H
	DB	04H
	DB	021H
	DB	04H
	DB	021H
	DB	04H
	DB	021H
	DB	04H
	DB	021H
	DB	04H
	DB	021H
	DB	04H
	DB	021H
	DB	04H
	DB	021H
	DB	04H
	DB	021H
	DB	04H
	DB	021H
	DB	04H
	DB	021H
	DB	04H
	DB	021H
	DB	04H
	DB	021H
	DB	04H
	DB	021H
	DB	04H
	DB	021H
	DB	04H
	DB	021H
	DB	04H
	DB	021H
	DB	04H
	DB	021H
	DB	04H
	DB	021H
	DB	04H
	DB	021H
	DB	04H
	DB	021H
	DB	04H
	DB	021H
	DB	04H
	DB	021H
	DB	04H
	DB	021H
	DB	04H
	DB	021H
	DB	04H
	DB	021H
	DB	04H
	DB	021H
	DB	04H
	DB	021H
	DB	04H
	DB	021H
	DB	04H
	DB	021H
	DB	04H
	DB	021H
	DB	04H
	DB	021H
	DB	04H
	DB	021H
	DB	04H
	DB	021H
	DB	04H
	DB	021H
	DB	04H
	DB	021H
	DB	04H
	DB	021H
	DB	04H
	DB	021H
	DB	04H
	DB	021H
	DB	04H
	DB	021H
	DB	04H
	DB	021H
	DB	04H
	DB	021H
	DB	04H
	DB	021H
	DB	04H
	DB	021H
	DB	04H
	DB	021H
	DB	04H
	DB	021H
	DB	04H
	DB	021H
	DB	04H
	DB	021H
	DB	04H
	DB	021H
	DB	04H
	DB	021H
	DB	04H
	DB	021H
	DB	04H
	DB	021H
	DB	04H
	DB	021H
	DB	04H
	DB	021H
	DB	04H
	DB	021H
	DB	04H
	DB	021H
	DB	04H
	DB	021H
	DB	04H
	DB	021H
	DB	04H
	DB	021H
	DB	04H
	DB	021H
	DB	04H
	DB	021H
	DB	04H
	DB	021H
	DB	04H
	DB	021H
	DB	00H
	DB	00H
	DB	0a3H
	DB	018H
	DB	0c7H
	DB	039H
	DB	04H
	DB	021H
	DB	04H
	DB	021H
	DB	04H
	DB	021H
	DB	04H
	DB	021H
	DB	04H
	DB	021H
	DB	04H
	DB	021H
	DB	04H
	DB	021H
	DB	04H
	DB	021H
	DB	04H
	DB	021H
	DB	04H
	DB	021H
	DB	04H
	DB	021H
	DB	04H
	DB	021H
	DB	04H
	DB	021H
	DB	04H
	DB	021H
	DB	04H
	DB	021H
	DB	04H
	DB	021H
	DB	04H
	DB	021H
	DB	04H
	DB	021H
	DB	04H
	DB	021H
	DB	04H
	DB	021H
	DB	04H
	DB	021H
	DB	04H
	DB	021H
	DB	04H
	DB	021H
	DB	04H
	DB	021H
	DB	04H
	DB	021H
	DB	04H
	DB	021H
	DB	04H
	DB	021H
	DB	04H
	DB	021H
	DB	04H
	DB	021H
	DB	04H
	DB	021H
	DB	04H
	DB	021H
	DB	04H
	DB	021H
	DB	04H
	DB	021H
	DB	04H
	DB	021H
	DB	04H
	DB	021H
	DB	04H
	DB	021H
	DB	04H
	DB	021H
	DB	04H
	DB	021H
	DB	04H
	DB	021H
	DB	04H
	DB	021H
	DB	04H
	DB	021H
	DB	04H
	DB	021H
	DB	04H
	DB	021H
	DB	04H
	DB	021H
	DB	04H
	DB	021H
	DB	04H
	DB	021H
	DB	04H
	DB	021H
	DB	04H
	DB	021H
	DB	04H
	DB	021H
	DB	04H
	DB	021H
	DB	04H
	DB	021H
	DB	04H
	DB	021H
	DB	04H
	DB	021H
	DB	04H
	DB	021H
	DB	04H
	DB	021H
	DB	04H
	DB	021H
	DB	04H
	DB	021H
	DB	04H
	DB	021H
	DB	04H
	DB	021H
	DB	04H
	DB	021H
	DB	04H
	DB	021H
	DB	04H
	DB	021H
	DB	04H
	DB	021H
	DB	04H
	DB	021H
	DB	04H
	DB	021H
	DB	04H
	DB	021H
	DB	0e4H
	DB	020H
	DB	021H
	DB	08H
	DB	0c7H
	DB	039H
	DB	04H
	DB	021H
	DB	04H
	DB	021H
	DB	04H
	DB	021H
	DB	04H
	DB	021H
	DB	04H
	DB	021H
	DB	04H
	DB	021H
	DB	04H
	DB	021H
	DB	04H
	DB	021H
	DB	04H
	DB	021H
	DB	04H
	DB	021H
	DB	03H
	DB	019H
	DB	04H
	DB	021H
	DB	04H
	DB	021H
	DB	03H
	DB	019H
	DB	04H
	DB	021H
	DB	0e4H
	DB	020H
	DB	03H
	DB	019H
	DB	04H
	DB	021H
	DB	04H
	DB	021H
	DB	03H
	DB	019H
	DB	0e4H
	DB	020H
	DB	04H
	DB	021H
	DB	03H
	DB	019H
	DB	04H
	DB	021H
	DB	04H
	DB	021H
	DB	0e3H
	DB	018H
	DB	04H
	DB	021H
	DB	04H
	DB	021H
	DB	03H
	DB	019H
	DB	04H
	DB	021H
	DB	0e4H
	DB	020H
	DB	03H
	DB	019H
	DB	04H
	DB	021H
	DB	04H
	DB	021H
	DB	03H
	DB	019H
	DB	0e4H
	DB	020H
	DB	04H
	DB	021H
	DB	03H
	DB	019H
	DB	04H
	DB	021H
	DB	04H
	DB	021H
	DB	0e3H
	DB	018H
	DB	04H
	DB	021H
	DB	04H
	DB	021H
	DB	03H
	DB	019H
	DB	04H
	DB	021H
	DB	0e4H
	DB	020H
	DB	03H
	DB	019H
	DB	04H
	DB	021H
	DB	04H
	DB	021H
	DB	03H
	DB	019H
	DB	0e4H
	DB	020H
	DB	04H
	DB	021H
	DB	03H
	DB	019H
	DB	04H
	DB	021H
	DB	04H
	DB	021H
	DB	0e3H
	DB	018H
	DB	04H
	DB	021H
	DB	04H
	DB	021H
	DB	03H
	DB	019H
	DB	04H
	DB	021H
	DB	0e4H
	DB	020H
	DB	03H
	DB	019H
	DB	04H
	DB	021H
	DB	04H
	DB	021H
	DB	0e3H
	DB	018H
	DB	04H
	DB	021H
	DB	04H
	DB	021H
	DB	0e3H
	DB	018H
	DB	0c3H
	DB	018H
	DB	045H
	DB	029H
	DB	04H
	DB	021H
	DB	04H
	DB	021H
	DB	04H
	DB	021H
	DB	0e4H
	DB	020H
	DB	0e4H
	DB	020H
	DB	04H
	DB	021H
	DB	0e4H
	DB	020H
	DB	0e3H
	DB	018H
	DB	04H
	DB	021H
	DB	0e4H
	DB	020H
	DB	0e4H
	DB	020H
	DB	04H
	DB	021H
	DB	0e4H
	DB	020H
	DB	04H
	DB	021H
	DB	04H
	DB	021H
	DB	0e4H
	DB	020H
	DB	04H
	DB	021H
	DB	04H
	DB	021H
	DB	0e4H
	DB	020H
	DB	04H
	DB	021H
	DB	04H
	DB	021H
	DB	0e4H
	DB	020H
	DB	04H
	DB	021H
	DB	04H
	DB	021H
	DB	0e4H
	DB	020H
	DB	04H
	DB	021H
	DB	04H
	DB	021H
	DB	0e4H
	DB	020H
	DB	04H
	DB	021H
	DB	04H
	DB	021H
	DB	0e4H
	DB	020H
	DB	04H
	DB	021H
	DB	04H
	DB	021H
	DB	0e4H
	DB	020H
	DB	04H
	DB	021H
	DB	04H
	DB	021H
	DB	0e4H
	DB	020H
	DB	04H
	DB	021H
	DB	04H
	DB	021H
	DB	0e4H
	DB	020H
	DB	04H
	DB	021H
	DB	04H
	DB	021H
	DB	0e4H
	DB	020H
	DB	04H
	DB	021H
	DB	04H
	DB	021H
	DB	0e4H
	DB	020H
	DB	04H
	DB	021H
	DB	04H
	DB	021H
	DB	0e4H
	DB	020H
	DB	04H
	DB	021H
	DB	04H
	DB	021H
	DB	0e4H
	DB	020H
	DB	04H
	DB	021H
	DB	04H
	DB	021H
	DB	0e4H
	DB	020H
	DB	04H
	DB	021H
	DB	04H
	DB	021H
	DB	0e4H
	DB	020H
	DB	04H
	DB	021H
	DB	04H
	DB	021H
	DB	0e4H
	DB	020H
	DB	04H
	DB	021H
	DB	04H
	DB	021H
	DB	0e4H
	DB	020H
	DB	04H
	DB	021H
	DB	0e3H
	DB	018H
	DB	0e4H
	DB	020H
	DB	04H
	DB	021H
	DB	024H
	DB	021H
	DB	04H
	DB	021H
	DB	04H
	DB	021H
	DB	04H
	DB	021H
	DB	04H
	DB	021H
	DB	04H
	DB	021H
	DB	03H
	DB	019H
	DB	04H
	DB	021H
	DB	04H
	DB	021H
	DB	04H
	DB	021H
	DB	04H
	DB	021H
	DB	04H
	DB	021H
	DB	04H
	DB	021H
	DB	04H
	DB	021H
	DB	0e4H
	DB	020H
	DB	04H
	DB	021H
	DB	04H
	DB	021H
	DB	04H
	DB	021H
	DB	04H
	DB	021H
	DB	0e4H
	DB	020H
	DB	04H
	DB	021H
	DB	04H
	DB	021H
	DB	04H
	DB	021H
	DB	04H
	DB	021H
	DB	0e4H
	DB	020H
	DB	04H
	DB	021H
	DB	04H
	DB	021H
	DB	04H
	DB	021H
	DB	04H
	DB	021H
	DB	0e4H
	DB	020H
	DB	04H
	DB	021H
	DB	04H
	DB	021H
	DB	04H
	DB	021H
	DB	04H
	DB	021H
	DB	0e4H
	DB	020H
	DB	04H
	DB	021H
	DB	04H
	DB	021H
	DB	04H
	DB	021H
	DB	04H
	DB	021H
	DB	0e4H
	DB	020H
	DB	04H
	DB	021H
	DB	04H
	DB	021H
	DB	04H
	DB	021H
	DB	04H
	DB	021H
	DB	0e4H
	DB	020H
	DB	04H
	DB	021H
	DB	04H
	DB	021H
	DB	04H
	DB	021H
	DB	04H
	DB	021H
	DB	0e4H
	DB	020H
	DB	04H
	DB	021H
	DB	04H
	DB	021H
	DB	04H
	DB	021H
	DB	04H
	DB	021H
	DB	0e4H
	DB	020H
	DB	04H
	DB	021H
	DB	04H
	DB	021H
	DB	04H
	DB	021H
	DB	04H
	DB	021H
	DB	0e4H
	DB	020H
	DB	04H
	DB	021H
	DB	04H
	DB	021H
	DB	04H
	DB	021H
	DB	04H
	DB	021H
	DB	04H
	DB	021H
	DB	0e3H
	DB	018H
	DB	0e4H
	DB	020H
	DB	04H
	DB	021H
	DB	0e4H
	DB	020H
	DB	0e4H
	DB	020H
	DB	045H
	DB	029H
	DB	0e4H
	DB	020H
	DB	0e3H
	DB	018H
	DB	0e4H
	DB	020H
	DB	0e3H
	DB	018H
	DB	0e4H
	DB	020H
	DB	0e4H
	DB	020H
	DB	0e3H
	DB	018H
	DB	0e4H
	DB	020H
	DB	0e4H
	DB	020H
	DB	0e3H
	DB	018H
	DB	0e3H
	DB	018H
	DB	04H
	DB	021H
	DB	0e3H
	DB	018H
	DB	0e3H
	DB	018H
	DB	0e4H
	DB	020H
	DB	0e3H
	DB	018H
	DB	0e3H
	DB	018H
	DB	0e4H
	DB	020H
	DB	0e3H
	DB	018H
	DB	0e3H
	DB	018H
	DB	0e3H
	DB	018H
	DB	0e4H
	DB	020H
	DB	0e3H
	DB	018H
	DB	0e3H
	DB	018H
	DB	0e4H
	DB	020H
	DB	0e3H
	DB	018H
	DB	0e3H
	DB	018H
	DB	0e3H
	DB	018H
	DB	04H
	DB	021H
	DB	0e3H
	DB	018H
	DB	0e3H
	DB	018H
	DB	0e4H
	DB	020H
	DB	0e3H
	DB	018H
	DB	0e3H
	DB	018H
	DB	0e3H
	DB	018H
	DB	0e4H
	DB	020H
	DB	0e3H
	DB	018H
	DB	0e3H
	DB	018H
	DB	0e4H
	DB	020H
	DB	0e3H
	DB	018H
	DB	0e3H
	DB	018H
	DB	0e3H
	DB	018H
	DB	0e4H
	DB	020H
	DB	03H
	DB	019H
	DB	0e3H
	DB	018H
	DB	0e4H
	DB	020H
	DB	0e3H
	DB	018H
	DB	0e3H
	DB	018H
	DB	0e3H
	DB	018H
	DB	0e4H
	DB	020H
	DB	0e3H
	DB	018H
	DB	0e3H
	DB	018H
	DB	0e4H
	DB	020H
	DB	0e3H
	DB	018H
	DB	0e3H
	DB	018H
	DB	0e3H
	DB	018H
	DB	0e4H
	DB	020H
	DB	0e3H
	DB	018H
	DB	03H
	DB	019H
	DB	0e4H
	DB	020H
	DB	0e3H
	DB	018H
	DB	0e3H
	DB	018H
	DB	0e4H
	DB	020H
	DB	0e3H
	DB	018H
	DB	04H
	DB	021H
	DB	04H
	DB	021H
	DB	03H
	DB	019H
	DB	0e3H
	DB	018H
	DB	0e4H
	DB	020H
	DB	024H
	DB	021H
	DB	0e4H
	DB	020H
	DB	04H
	DB	021H
	DB	04H
	DB	021H
	DB	0e4H
	DB	020H
	DB	04H
	DB	021H
	DB	04H
	DB	021H
	DB	04H
	DB	021H
	DB	04H
	DB	021H
	DB	0e4H
	DB	020H
	DB	04H
	DB	021H
	DB	04H
	DB	021H
	DB	0e4H
	DB	020H
	DB	04H
	DB	021H
	DB	04H
	DB	021H
	DB	04H
	DB	021H
	DB	04H
	DB	021H
	DB	0e4H
	DB	020H
	DB	04H
	DB	021H
	DB	04H
	DB	021H
	DB	04H
	DB	021H
	DB	04H
	DB	021H
	DB	04H
	DB	021H
	DB	04H
	DB	021H
	DB	04H
	DB	021H
	DB	04H
	DB	021H
	DB	04H
	DB	021H
	DB	0e4H
	DB	020H
	DB	04H
	DB	021H
	DB	04H
	DB	021H
	DB	0e4H
	DB	020H
	DB	04H
	DB	021H
	DB	04H
	DB	021H
	DB	04H
	DB	021H
	DB	04H
	DB	021H
	DB	04H
	DB	021H
	DB	04H
	DB	021H
	DB	0e4H
	DB	020H
	DB	04H
	DB	021H
	DB	04H
	DB	021H
	DB	04H
	DB	021H
	DB	04H
	DB	021H
	DB	0e4H
	DB	020H
	DB	04H
	DB	021H
	DB	04H
	DB	021H
	DB	0e4H
	DB	020H
	DB	04H
	DB	021H
	DB	04H
	DB	021H
	DB	04H
	DB	021H
	DB	04H
	DB	021H
	DB	04H
	DB	021H
	DB	04H
	DB	021H
	DB	0e4H
	DB	020H
	DB	04H
	DB	021H
	DB	04H
	DB	021H
	DB	04H
	DB	021H
	DB	04H
	DB	021H
	DB	0e4H
	DB	020H
	DB	04H
	DB	021H
	DB	04H
	DB	021H
	DB	0e4H
	DB	020H
	DB	04H
	DB	021H
	DB	04H
	DB	021H
	DB	0e4H
	DB	020H
	DB	04H
	DB	021H
	DB	0e4H
	DB	020H
	DB	0e4H
	DB	020H
	DB	0e3H
	DB	018H
	DB	0e4H
	DB	020H
	DB	0e4H
	DB	020H
	DB	04H
	DB	021H
	DB	0e4H
	DB	020H
	DB	04H
	DB	021H
	DB	0e3H
	DB	018H
	DB	04H
	DB	021H
	DB	0e3H
	DB	018H
	DB	0e4H
	DB	020H
	DB	03H
	DB	019H
	DB	0e3H
	DB	018H
	DB	04H
	DB	021H
	DB	04H
	DB	021H
	DB	0e3H
	DB	018H
	DB	0e4H
	DB	020H
	DB	04H
	DB	021H
	DB	0e3H
	DB	018H
	DB	0e4H
	DB	020H
	DB	04H
	DB	021H
	DB	03H
	DB	019H
	DB	0e4H
	DB	020H
	DB	04H
	DB	021H
	DB	0e4H
	DB	020H
	DB	0e4H
	DB	020H
	DB	0e3H
	DB	018H
	DB	04H
	DB	021H
	DB	0e4H
	DB	020H
	DB	0e3H
	DB	018H
	DB	04H
	DB	021H
	DB	0e4H
	DB	020H
	DB	04H
	DB	021H
	DB	0e3H
	DB	018H
	DB	0e4H
	DB	020H
	DB	04H
	DB	021H
	DB	0e3H
	DB	018H
	DB	0e4H
	DB	020H
	DB	04H
	DB	021H
	DB	0e4H
	DB	020H
	DB	03H
	DB	019H
	DB	04H
	DB	021H
	DB	0e4H
	DB	020H
	DB	03H
	DB	019H
	DB	0e4H
	DB	020H
	DB	04H
	DB	021H
	DB	0e4H
	DB	020H
	DB	03H
	DB	019H
	DB	0e4H
	DB	020H
	DB	0e4H
	DB	020H
	DB	03H
	DB	019H
	DB	0e4H
	DB	020H
	DB	0e4H
	DB	020H
	DB	04H
	DB	021H
	DB	0e3H
	DB	018H
	DB	04H
	DB	021H
	DB	04H
	DB	021H
	DB	0e3H
	DB	018H
	DB	04H
	DB	021H
	DB	0e4H
	DB	020H
	DB	04H
	DB	021H
	DB	0e3H
	DB	018H
	DB	04H
	DB	021H
	DB	0e4H
	DB	020H
	DB	0e3H
	DB	018H
	DB	04H
	DB	021H
	DB	0e4H
	DB	020H
	DB	03H
	DB	019H
	DB	04H
	DB	021H
	DB	0e3H
	DB	018H
	DB	0e4H
	DB	020H
	DB	0e4H
	DB	020H
	DB	0e3H
	DB	018H
	DB	0e4H
	DB	020H
	DB	0e4H
	DB	020H
	DB	0e3H
	DB	018H
	DB	0e3H
	DB	018H
	DB	0e4H
	DB	020H
	DB	0e3H
	DB	018H
	DB	0e4H
	DB	020H
	DB	0e4H
	DB	020H
	DB	0e3H
	DB	018H
	DB	0e4H
	DB	020H
	DB	0e3H
	DB	018H
	DB	0e3H
	DB	018H
	DB	0e4H
	DB	020H
	DB	0e3H
	DB	018H
	DB	0e3H
	DB	018H
	DB	0e4H
	DB	020H
	DB	0e3H
	DB	018H
	DB	0e3H
	DB	018H
	DB	0e4H
	DB	020H
	DB	0e3H
	DB	018H
	DB	0e3H
	DB	018H
	DB	0e3H
	DB	018H
	DB	0e4H
	DB	020H
	DB	0e3H
	DB	018H
	DB	0e3H
	DB	018H
	DB	0e4H
	DB	020H
	DB	0e3H
	DB	018H
	DB	0e3H
	DB	018H
	DB	0e4H
	DB	020H
	DB	0e3H
	DB	018H
	DB	025H
	DB	019H
	DB	047H
	DB	019H
	DB	069H
	DB	019H
	DB	0abH
	DB	019H
	DB	0abH
	DB	019H
	DB	0ccH
	DB	019H
	DB	0ccH
	DB	019H
	DB	0acH
	DB	019H
	DB	0abH
	DB	019H
	DB	069H
	DB	019H
	DB	047H
	DB	019H
	DB	05H
	DB	019H
	DB	0e3H
	DB	020H
	DB	0e3H
	DB	018H
	DB	0e4H
	DB	018H
	DB	0e3H
	DB	020H
	DB	0e3H
	DB	018H
	DB	0e4H
	DB	018H
	DB	0e3H
	DB	020H
	DB	0e3H
	DB	018H
	DB	0e4H
	DB	018H
	DB	0e3H
	DB	020H
	DB	0e3H
	DB	018H
	DB	0e4H
	DB	018H
	DB	0e3H
	DB	020H
	DB	0e3H
	DB	018H
	DB	0e4H
	DB	018H
	DB	0e3H
	DB	020H
	DB	0e3H
	DB	018H
	DB	0e4H
	DB	018H
	DB	0e3H
	DB	020H
	DB	0e3H
	DB	018H
	DB	0e4H
	DB	018H
	DB	0e3H
	DB	020H
	DB	0e3H
	DB	018H
	DB	0e4H
	DB	018H
	DB	0e3H
	DB	020H
	DB	04H
	DB	019H
	DB	04H
	DB	021H
	DB	0e3H
	DB	018H
	DB	0e3H
	DB	018H
	DB	0e4H
	DB	020H
	DB	0e4H
	DB	020H
	DB	0e4H
	DB	020H
	DB	0e4H
	DB	020H
	DB	03H
	DB	019H
	DB	0e4H
	DB	020H
	DB	0e4H
	DB	020H
	DB	04H
	DB	021H
	DB	0e4H
	DB	020H
	DB	0e4H
	DB	020H
	DB	0e4H
	DB	020H
	DB	0e4H
	DB	020H
	DB	04H
	DB	021H
	DB	0e4H
	DB	020H
	DB	0e4H
	DB	020H
	DB	04H
	DB	021H
	DB	0e4H
	DB	020H
	DB	0e4H
	DB	020H
	DB	0e4H
	DB	020H
	DB	0e4H
	DB	020H
	DB	04H
	DB	021H
	DB	0e4H
	DB	020H
	DB	0e4H
	DB	020H
	DB	04H
	DB	021H
	DB	0e4H
	DB	020H
	DB	0e4H
	DB	020H
	DB	05H
	DB	019H
	DB	068H
	DB	019H
	DB	0aaH
	DB	019H
	DB	0ccH
	DB	019H
	DB	0ccH
	DB	019H
	DB	0ccH
	DB	019H
	DB	0ccH
	DB	019H
	DB	0ccH
	DB	019H
	DB	0ccH
	DB	019H
	DB	0ccH
	DB	019H
	DB	0ccH
	DB	019H
	DB	0ccH
	DB	019H
	DB	0ccH
	DB	019H
	DB	0ccH
	DB	019H
	DB	0ccH
	DB	019H
	DB	0aaH
	DB	019H
	DB	068H
	DB	019H
	DB	05H
	DB	021H
	DB	0e4H
	DB	020H
	DB	04H
	DB	021H
	DB	0e4H
	DB	020H
	DB	0e4H
	DB	020H
	DB	03H
	DB	019H
	DB	0e4H
	DB	020H
	DB	0e4H
	DB	020H
	DB	0e4H
	DB	020H
	DB	0e4H
	DB	020H
	DB	0e4H
	DB	020H
	DB	0e4H
	DB	020H
	DB	0e4H
	DB	018H
	DB	0e4H
	DB	020H
	DB	04H
	DB	021H
	DB	0e4H
	DB	020H
	DB	0e4H
	DB	020H
	DB	04H
	DB	021H
	DB	0e4H
	DB	020H
	DB	0e4H
	DB	020H
	DB	0e4H
	DB	020H
	DB	0e4H
	DB	020H
	DB	0e3H
	DB	020H
	DB	0e4H
	DB	020H
	DB	0e3H
	DB	018H
	DB	0e3H
	DB	020H
	DB	0e4H
	DB	018H
	DB	0e3H
	DB	018H
	DB	0e4H
	DB	020H
	DB	03H
	DB	019H
	DB	0e4H
	DB	020H
	DB	0e4H
	DB	020H
	DB	03H
	DB	019H
	DB	0e3H
	DB	018H
	DB	0e3H
	DB	018H
	DB	0e4H
	DB	020H
	DB	03H
	DB	019H
	DB	0e3H
	DB	018H
	DB	0e4H
	DB	020H
	DB	03H
	DB	019H
	DB	0e3H
	DB	018H
	DB	0e4H
	DB	020H
	DB	0e3H
	DB	018H
	DB	03H
	DB	019H
	DB	0e4H
	DB	020H
	DB	0e3H
	DB	018H
	DB	03H
	DB	019H
	DB	0e4H
	DB	020H
	DB	0e3H
	DB	018H
	DB	0e3H
	DB	018H
	DB	0e3H
	DB	018H
	DB	04H
	DB	019H
	DB	069H
	DB	019H
	DB	0ccH
	DB	019H
	DB	0ccH
	DB	019H
	DB	0cdH
	DB	019H
	DB	02eH
	DB	022H
	DB	0d1H
	DB	022H
	DB	033H
	DB	023H
	DB	034H
	DB	02bH
	DB	054H
	DB	02bH
	DB	034H
	DB	023H
	DB	034H
	DB	023H
	DB	054H
	DB	02bH
	DB	034H
	DB	023H
	DB	033H
	DB	023H
	DB	0d1H
	DB	022H
	DB	02eH
	DB	01aH
	DB	0cdH
	DB	019H
	DB	0cdH
	DB	019H
	DB	0ccH
	DB	019H
	DB	069H
	DB	019H
	DB	0e4H
	DB	018H
	DB	0e3H
	DB	018H
	DB	0e4H
	DB	020H
	DB	0e4H
	DB	020H
	DB	03H
	DB	019H
	DB	0e4H
	DB	020H
	DB	0e3H
	DB	018H
	DB	03H
	DB	019H
	DB	0e4H
	DB	020H
	DB	03H
	DB	021H
	DB	0e3H
	DB	020H
	DB	0e4H
	DB	018H
	DB	03H
	DB	021H
	DB	0e3H
	DB	018H
	DB	0e4H
	DB	018H
	DB	03H
	DB	021H
	DB	0e3H
	DB	018H
	DB	0e4H
	DB	018H
	DB	04H
	DB	021H
	DB	0e3H
	DB	018H
	DB	0e4H
	DB	020H
	DB	0e3H
	DB	018H
	DB	0e4H
	DB	018H
	DB	0e4H
	DB	020H
	DB	0e3H
	DB	020H
	DB	0e3H
	DB	018H
	DB	0e3H
	DB	018H
	DB	0e3H
	DB	018H
	DB	0e3H
	DB	018H
	DB	0e4H
	DB	020H
	DB	0e3H
	DB	018H
	DB	0e4H
	DB	020H
	DB	0e3H
	DB	018H
	DB	0e3H
	DB	018H
	DB	0e4H
	DB	020H
	DB	0e3H
	DB	018H
	DB	0e3H
	DB	018H
	DB	0e4H
	DB	020H
	DB	0e3H
	DB	018H
	DB	0e3H
	DB	018H
	DB	0e4H
	DB	020H
	DB	0e3H
	DB	018H
	DB	0e3H
	DB	018H
	DB	0e4H
	DB	020H
	DB	0e3H
	DB	018H
	DB	0e3H
	DB	018H
	DB	0e4H
	DB	020H
	DB	0e3H
	DB	020H
	DB	047H
	DB	019H
	DB	0abH
	DB	019H
	DB	0ccH
	DB	019H
	DB	0ccH
	DB	019H
	DB	0b1H
	DB	022H
	DB	034H
	DB	02bH
	DB	034H
	DB	023H
	DB	0d3H
	DB	022H
	DB	0b2H
	DB	022H
	DB	091H
	DB	022H
	DB	071H
	DB	022H
	DB	071H
	DB	022H
	DB	071H
	DB	022H
	DB	071H
	DB	022H
	DB	091H
	DB	022H
	DB	0b2H
	DB	022H
	DB	0d3H
	DB	02aH
	DB	034H
	DB	02bH
	DB	034H
	DB	023H
	DB	0b0H
	DB	022H
	DB	0ccH
	DB	019H
	DB	0ccH
	DB	019H
	DB	0abH
	DB	019H
	DB	047H
	DB	019H
	DB	0e3H
	DB	018H
	DB	0e3H
	DB	020H
	DB	0e4H
	DB	018H
	DB	0e3H
	DB	018H
	DB	0e3H
	DB	020H
	DB	0e4H
	DB	018H
	DB	0e3H
	DB	018H
	DB	0e3H
	DB	018H
	DB	0e4H
	DB	018H
	DB	0e3H
	DB	020H
	DB	0e3H
	DB	018H
	DB	0e4H
	DB	018H
	DB	0e3H
	DB	020H
	DB	0e3H
	DB	018H
	DB	0e3H
	DB	018H
	DB	0e3H
	DB	020H
	DB	0e3H
	DB	018H
	DB	0e4H
	DB	018H
	DB	0e3H
	DB	020H
	DB	0e3H
	DB	018H
	DB	0e4H
	DB	020H
	DB	0e3H
	DB	018H
	DB	0e3H
	DB	018H
	DB	0e4H
	DB	020H
	DB	0e4H
	DB	020H
	DB	0e4H
	DB	020H
	DB	0e3H
	DB	018H
	DB	0e4H
	DB	020H
	DB	0e4H
	DB	020H
	DB	0e3H
	DB	018H
	DB	0e4H
	DB	020H
	DB	0e4H
	DB	020H
	DB	0e4H
	DB	020H
	DB	0e4H
	DB	020H
	DB	0e3H
	DB	018H
	DB	0e4H
	DB	020H
	DB	0e4H
	DB	020H
	DB	0e4H
	DB	020H
	DB	0e4H
	DB	020H
	DB	0e4H
	DB	020H
	DB	0e3H
	DB	018H
	DB	0e4H
	DB	020H
	DB	0e4H
	DB	020H
	DB	0e4H
	DB	018H
	DB	0e4H
	DB	020H
	DB	069H
	DB	019H
	DB	0ccH
	DB	019H
	DB	0ccH
	DB	019H
	DB	090H
	DB	022H
	DB	054H
	DB	02bH
	DB	0f3H
	DB	022H
	DB	091H
	DB	022H
	DB	071H
	DB	022H
	DB	070H
	DB	022H
	DB	050H
	DB	022H
	DB	051H
	DB	022H
	DB	071H
	DB	022H
	DB	050H
	DB	022H
	DB	051H
	DB	022H
	DB	070H
	DB	022H
	DB	051H
	DB	022H
	DB	050H
	DB	022H
	DB	070H
	DB	022H
	DB	071H
	DB	022H
	DB	091H
	DB	022H
	DB	0f3H
	DB	022H
	DB	054H
	DB	02bH
	DB	090H
	DB	022H
	DB	0ccH
	DB	019H
	DB	0ccH
	DB	019H
	DB	069H
	DB	019H
	DB	0e4H
	DB	020H
	DB	0e4H
	DB	020H
	DB	0e3H
	DB	018H
	DB	0e4H
	DB	020H
	DB	0e4H
	DB	020H
	DB	0e4H
	DB	020H
	DB	0e4H
	DB	018H
	DB	0e4H
	DB	020H
	DB	0e3H
	DB	020H
	DB	0e4H
	DB	018H
	DB	0e4H
	DB	020H
	DB	0e4H
	DB	020H
	DB	0e4H
	DB	020H
	DB	0e4H
	DB	020H
	DB	0e4H
	DB	020H
	DB	0e3H
	DB	018H
	DB	0e4H
	DB	020H
	DB	0e4H
	DB	018H
	DB	0e3H
	DB	020H
	DB	0e3H
	DB	018H
	DB	0e4H
	DB	018H
	DB	0e3H
	DB	018H
	DB	0e3H
	DB	018H
	DB	0e4H
	DB	020H
	DB	0e3H
	DB	018H
	DB	0e4H
	DB	020H
	DB	0e3H
	DB	018H
	DB	0e3H
	DB	018H
	DB	0e4H
	DB	020H
	DB	0e3H
	DB	018H
	DB	0e3H
	DB	018H
	DB	0e3H
	DB	018H
	DB	0e4H
	DB	020H
	DB	0e3H
	DB	018H
	DB	0e3H
	DB	018H
	DB	0e4H
	DB	020H
	DB	0e3H
	DB	018H
	DB	0e3H
	DB	018H
	DB	0e4H
	DB	020H
	DB	0e3H
	DB	018H
	DB	0e3H
	DB	020H
	DB	0e3H
	DB	018H
	DB	0e4H
	DB	018H
	DB	089H
	DB	019H
	DB	0ccH
	DB	019H
	DB	0edH
	DB	019H
	DB	012H
	DB	023H
	DB	013H
	DB	023H
	DB	091H
	DB	022H
	DB	070H
	DB	022H
	DB	050H
	DB	022H
	DB	050H
	DB	022H
	DB	050H
	DB	022H
	DB	050H
	DB	022H
	DB	050H
	DB	022H
	DB	070H
	DB	022H
	DB	050H
	DB	022H
	DB	070H
	DB	022H
	DB	050H
	DB	022H
	DB	051H
	DB	022H
	DB	050H
	DB	022H
	DB	050H
	DB	022H
	DB	050H
	DB	022H
	DB	050H
	DB	022H
	DB	070H
	DB	022H
	DB	091H
	DB	022H
	DB	013H
	DB	023H
	DB	013H
	DB	023H
	DB	0edH
	DB	019H
	DB	0ccH
	DB	019H
	DB	089H
	DB	019H
	DB	0e4H
	DB	018H
	DB	0e3H
	DB	018H
	DB	0e3H
	DB	020H
	DB	0e3H
	DB	018H
	DB	0e3H
	DB	018H
	DB	0e3H
	DB	020H
	DB	0e4H
	DB	018H
	DB	0e3H
	DB	020H
	DB	0e3H
	DB	018H
	DB	0e4H
	DB	018H
	DB	0e3H
	DB	020H
	DB	0e3H
	DB	018H
	DB	0e4H
	DB	018H
	DB	0e3H
	DB	018H
	DB	0e4H
	DB	020H
	DB	0e3H
	DB	020H
	DB	0e4H
	DB	018H
	DB	0e3H
	DB	018H
	DB	0e3H
	DB	020H
	DB	0e4H
	DB	020H
	DB	0e3H
	DB	018H
	DB	0e3H
	DB	018H
	DB	0e3H
	DB	018H
	DB	0e3H
	DB	018H
	DB	0e3H
	DB	018H
	DB	0e3H
	DB	018H
	DB	0e4H
	DB	020H
	DB	0e3H
	DB	018H
	DB	0e3H
	DB	018H
	DB	0e4H
	DB	020H
	DB	0e3H
	DB	018H
	DB	0e3H
	DB	018H
	DB	0e4H
	DB	020H
	DB	0e3H
	DB	018H
	DB	0e3H
	DB	018H
	DB	0e3H
	DB	018H
	DB	0e3H
	DB	018H
	DB	0e3H
	DB	018H
	DB	0e4H
	DB	018H
	DB	0e3H
	DB	018H
	DB	0e3H
	DB	020H
	DB	089H
	DB	019H
	DB	0ccH
	DB	019H
	DB	0dH
	DB	01aH
	DB	034H
	DB	02bH
	DB	0d2H
	DB	022H
	DB	050H
	DB	022H
	DB	050H
	DB	022H
	DB	050H
	DB	022H
	DB	050H
	DB	022H
	DB	050H
	DB	022H
	DB	050H
	DB	022H
	DB	050H
	DB	022H
	DB	051H
	DB	022H
	DB	050H
	DB	022H
	DB	050H
	DB	022H
	DB	051H
	DB	022H
	DB	050H
	DB	022H
	DB	050H
	DB	022H
	DB	050H
	DB	022H
	DB	050H
	DB	022H
	DB	050H
	DB	022H
	DB	050H
	DB	022H
	DB	050H
	DB	022H
	DB	050H
	DB	022H
	DB	071H
	DB	022H
	DB	0d2H
	DB	022H
	DB	034H
	DB	02bH
	DB	0dH
	DB	01aH
	DB	0ccH
	DB	019H
	DB	089H
	DB	019H
	DB	0e4H
	DB	018H
	DB	0e3H
	DB	018H
	DB	0e4H
	DB	018H
	DB	0e3H
	DB	020H
	DB	0e3H
	DB	018H
	DB	0e3H
	DB	018H
	DB	0e4H
	DB	018H
	DB	0e3H
	DB	020H
	DB	0e3H
	DB	018H
	DB	0e3H
	DB	018H
	DB	0e3H
	DB	018H
	DB	0e3H
	DB	018H
	DB	0e3H
	DB	018H
	DB	0e3H
	DB	018H
	DB	0e3H
	DB	018H
	DB	0e3H
	DB	020H
	DB	0e4H
	DB	018H
	DB	0e3H
	DB	018H
	DB	0e3H
	DB	020H
	DB	0c3H
	DB	018H
	DB	0e3H
	DB	018H
	DB	0e4H
	DB	020H
	DB	0e4H
	DB	020H
	DB	0e3H
	DB	018H
	DB	0e4H
	DB	020H
	DB	0e3H
	DB	018H
	DB	0e3H
	DB	018H
	DB	0e4H
	DB	020H
	DB	0e4H
	DB	020H
	DB	0e3H
	DB	018H
	DB	0e3H
	DB	018H
	DB	0e4H
	DB	020H
	DB	0e4H
	DB	020H
	DB	0e3H
	DB	018H
	DB	0e4H
	DB	020H
	DB	0e4H
	DB	020H
	DB	0e3H
	DB	018H
	DB	0e4H
	DB	020H
	DB	0c3H
	DB	018H
	DB	069H
	DB	019H
	DB	0cdH
	DB	019H
	DB	0dH
	DB	01aH
	DB	034H
	DB	02bH
	DB	0b1H
	DB	022H
	DB	050H
	DB	022H
	DB	050H
	DB	022H
	DB	030H
	DB	022H
	DB	030H
	DB	022H
	DB	050H
	DB	022H
	DB	030H
	DB	022H
	DB	050H
	DB	022H
	DB	050H
	DB	022H
	DB	050H
	DB	022H
	DB	050H
	DB	022H
	DB	050H
	DB	022H
	DB	050H
	DB	022H
	DB	050H
	DB	022H
	DB	050H
	DB	022H
	DB	050H
	DB	022H
	DB	050H
	DB	022H
	DB	050H
	DB	022H
	DB	050H
	DB	022H
	DB	030H
	DB	022H
	DB	050H
	DB	022H
	DB	050H
	DB	022H
	DB	050H
	DB	022H
	DB	0b1H
	DB	022H
	DB	034H
	DB	02bH
	DB	0dH
	DB	01aH
	DB	0cdH
	DB	019H
	DB	069H
	DB	019H
	DB	0c3H
	DB	020H
	DB	0e4H
	DB	020H
	DB	0e4H
	DB	018H
	DB	0e3H
	DB	020H
	DB	0e4H
	DB	018H
	DB	0e3H
	DB	020H
	DB	0e4H
	DB	018H
	DB	0e3H
	DB	020H
	DB	0e4H
	DB	018H
	DB	0e4H
	DB	020H
	DB	0e3H
	DB	020H
	DB	0e4H
	DB	020H
	DB	0e4H
	DB	018H
	DB	0e3H
	DB	018H
	DB	0e4H
	DB	020H
	DB	0e4H
	DB	018H
	DB	0c3H
	DB	018H
	DB	0c3H
	DB	018H
	DB	0c4H
	DB	018H
	DB	0e3H
	DB	018H
	DB	0c3H
	DB	018H
	DB	0c4H
	DB	020H
	DB	0e3H
	DB	018H
	DB	0c3H
	DB	018H
	DB	0e4H
	DB	020H
	DB	0c3H
	DB	018H
	DB	0e3H
	DB	018H
	DB	0e3H
	DB	018H
	DB	0c4H
	DB	020H
	DB	0e3H
	DB	018H
	DB	0e3H
	DB	018H
	DB	0c3H
	DB	018H
	DB	0e3H
	DB	018H
	DB	0e4H
	DB	020H
	DB	0c3H
	DB	018H
	DB	0c3H
	DB	018H
	DB	0c3H
	DB	018H
	DB	027H
	DB	019H
	DB	0ccH
	DB	019H
	DB	0edH
	DB	019H
	DB	034H
	DB	023H
	DB	0b1H
	DB	022H
	DB	050H
	DB	022H
	DB	030H
	DB	022H
	DB	02fH
	DB	022H
	DB	02fH
	DB	022H
	DB	02fH
	DB	01aH
	DB	02fH
	DB	01aH
	DB	02fH
	DB	022H
	DB	02fH
	DB	022H
	DB	02fH
	DB	022H
	DB	030H
	DB	022H
	DB	050H
	DB	022H
	DB	050H
	DB	022H
	DB	050H
	DB	022H
	DB	050H
	DB	022H
	DB	050H
	DB	022H
	DB	030H
	DB	022H
	DB	02fH
	DB	01aH
	DB	02fH
	DB	022H
	DB	02fH
	DB	022H
	DB	02fH
	DB	01aH
	DB	030H
	DB	022H
	DB	030H
	DB	022H
	DB	050H
	DB	022H
	DB	050H
	DB	022H
	DB	0b2H
	DB	022H
	DB	034H
	DB	02bH
	DB	0edH
	DB	019H
	DB	0ccH
	DB	019H
	DB	027H
	DB	019H
	DB	0c3H
	DB	018H
	DB	0c3H
	DB	018H
	DB	0e3H
	DB	018H
	DB	0e3H
	DB	020H
	DB	0c4H
	DB	018H
	DB	0e3H
	DB	018H
	DB	0c3H
	DB	018H
	DB	0e4H
	DB	020H
	DB	0c3H
	DB	018H
	DB	0e3H
	DB	018H
	DB	0e4H
	DB	020H
	DB	0c3H
	DB	018H
	DB	0e3H
	DB	020H
	DB	0c3H
	DB	018H
	DB	0c3H
	DB	018H
	DB	0c3H
	DB	018H
	DB	0e3H
	DB	020H
	DB	0e3H
	DB	018H
	DB	0c3H
	DB	018H
	DB	0c3H
	DB	018H
	DB	0e3H
	DB	018H
	DB	0c3H
	DB	018H
	DB	0c3H
	DB	018H
	DB	0c3H
	DB	018H
	DB	0c4H
	DB	020H
	DB	0c3H
	DB	018H
	DB	0c3H
	DB	018H
	DB	0c3H
	DB	018H
	DB	0c3H
	DB	018H
	DB	0c3H
	DB	018H
	DB	0c3H
	DB	018H
	DB	0c3H
	DB	018H
	DB	0c3H
	DB	018H
	DB	0e3H
	DB	018H
	DB	0e3H
	DB	018H
	DB	0e4H
	DB	020H
	DB	0abH
	DB	019H
	DB	0ccH
	DB	019H
	DB	013H
	DB	023H
	DB	0b2H
	DB	022H
	DB	050H
	DB	022H
	DB	050H
	DB	022H
	DB	02fH
	DB	022H
	DB	02fH
	DB	01aH
	DB	02fH
	DB	022H
	DB	0fH
	DB	01aH
	DB	0eH
	DB	01aH
	DB	0eH
	DB	01aH
	DB	02fH
	DB	01aH
	DB	02fH
	DB	01aH
	DB	02fH
	DB	01aH
	DB	02fH
	DB	01aH
	DB	02fH
	DB	022H
	DB	02fH
	DB	022H
	DB	02fH
	DB	01aH
	DB	02fH
	DB	01aH
	DB	02fH
	DB	022H
	DB	02fH
	DB	01aH
	DB	02fH
	DB	022H
	DB	0fH
	DB	01aH
	DB	02fH
	DB	022H
	DB	02fH
	DB	01aH
	DB	02fH
	DB	022H
	DB	04fH
	DB	022H
	DB	050H
	DB	022H
	DB	050H
	DB	022H
	DB	0d2H
	DB	022H
	DB	013H
	DB	023H
	DB	0ccH
	DB	019H
	DB	0abH
	DB	019H
	DB	0e4H
	DB	018H
	DB	0c3H
	DB	018H
	DB	0c3H
	DB	018H
	DB	0c3H
	DB	018H
	DB	0c3H
	DB	018H
	DB	0c3H
	DB	018H
	DB	0e3H
	DB	018H
	DB	0c3H
	DB	018H
	DB	0c3H
	DB	018H
	DB	0c3H
	DB	018H
	DB	0c3H
	DB	018H
	DB	0c3H
	DB	018H
	DB	0c3H
	DB	018H
	DB	0e3H
	DB	018H
	DB	0c4H
	DB	020H
	DB	0e3H
	DB	018H
	DB	0e3H
	DB	018H
	DB	0c3H
	DB	018H
	DB	0c3H
	DB	018H
	DB	0e3H
	DB	018H
	DB	0e4H
	DB	020H
	DB	0e3H
	DB	018H
	DB	0e3H
	DB	018H
	DB	0e4H
	DB	020H
	DB	0e3H
	DB	018H
	DB	0e3H
	DB	018H
	DB	0e4H
	DB	020H
	DB	0e3H
	DB	018H
	DB	0e4H
	DB	020H
	DB	0e4H
	DB	020H
	DB	0e3H
	DB	018H
	DB	0c4H
	DB	020H
	DB	0e3H
	DB	018H
	DB	0c3H
	DB	018H
	DB	0c3H
	DB	018H
	DB	069H
	DB	019H
	DB	0ccH
	DB	019H
	DB	070H
	DB	022H
	DB	013H
	DB	02bH
	DB	070H
	DB	022H
	DB	050H
	DB	022H
	DB	02fH
	DB	022H
	DB	02fH
	DB	01aH
	DB	0fH
	DB	01aH
	DB	058H
	DB	09dH
	DB	07bH
	DB	0c6H
	DB	06fH
	DB	032H
	DB	0eH
	DB	022H
	DB	0eeH
	DB	019H
	DB	0eH
	DB	01aH
	DB	0eH
	DB	022H
	DB	0eH
	DB	01aH
	DB	0fH
	DB	01aH
	DB	0fH
	DB	01aH
	DB	0fH
	DB	01aH
	DB	0eH
	DB	022H
	DB	0eH
	DB	01aH
	DB	0fH
	DB	022H
	DB	0eH
	DB	022H
	DB	099H
	DB	0a5H
	DB	01dH
	DB	0dfH
	DB	02fH
	DB	022H
	DB	02fH
	DB	01aH
	DB	02fH
	DB	022H
	DB	030H
	DB	022H
	DB	050H
	DB	022H
	DB	070H
	DB	022H
	DB	013H
	DB	02bH
	DB	070H
	DB	022H
	DB	0ccH
	DB	019H
	DB	069H
	DB	019H
	DB	0c3H
	DB	018H
	DB	0e3H
	DB	020H
	DB	0e4H
	DB	018H
	DB	0e3H
	DB	020H
	DB	0e4H
	DB	020H
	DB	0c3H
	DB	018H
	DB	0e3H
	DB	018H
	DB	0e4H
	DB	020H
	DB	0e3H
	DB	018H
	DB	0e4H
	DB	018H
	DB	0e3H
	DB	020H
	DB	0e4H
	DB	018H
	DB	0c3H
	DB	018H
	DB	0e3H
	DB	018H
	DB	0c3H
	DB	018H
	DB	0c3H
	DB	018H
	DB	0c3H
	DB	018H
	DB	0e3H
	DB	018H
	DB	0c3H
	DB	018H
	DB	0c4H
	DB	020H
	DB	0c3H
	DB	018H
	DB	0e3H
	DB	018H
	DB	0c3H
	DB	018H
	DB	0c3H
	DB	018H
	DB	0e3H
	DB	018H
	DB	0c3H
	DB	018H
	DB	0c3H
	DB	018H
	DB	0c3H
	DB	018H
	DB	0e3H
	DB	018H
	DB	0c3H
	DB	018H
	DB	0c3H
	DB	018H
	DB	0c3H
	DB	018H
	DB	0c3H
	DB	018H
	DB	0e4H
	DB	018H
	DB	0cdH
	DB	019H
	DB	0cdH
	DB	019H
	DB	054H
	DB	02bH
	DB	091H
	DB	022H
	DB	050H
	DB	022H
	DB	030H
	DB	022H
	DB	02fH
	DB	022H
	DB	02fH
	DB	022H
	DB	058H
	DB	09dH
	DB	0ffH
	DB	0ffH
	DB	0ffH
	DB	0ffH
	DB	05bH
	DB	0c6H
	DB	0eH
	DB	022H
	DB	0edH
	DB	019H
	DB	0edH
	DB	021H
	DB	0eeH
	DB	019H
	DB	0eeH
	DB	021H
	DB	0eH
	DB	01aH
	DB	0eH
	DB	022H
	DB	0eH
	DB	01aH
	DB	0eH
	DB	01aH
	DB	0eH
	DB	01aH
	DB	0eH
	DB	022H
	DB	078H
	DB	0a5H
	DB	0ffH
	DB	0ffH
	DB	05eH
	DB	0e7H
	DB	093H
	DB	053H
	DB	0fH
	DB	022H
	DB	02fH
	DB	01aH
	DB	04fH
	DB	022H
	DB	050H
	DB	022H
	DB	050H
	DB	022H
	DB	091H
	DB	022H
	DB	054H
	DB	023H
	DB	0cdH
	DB	019H
	DB	0ccH
	DB	019H
	DB	0e4H
	DB	018H
	DB	0c3H
	DB	018H
	DB	0c3H
	DB	018H
	DB	0c3H
	DB	018H
	DB	0e3H
	DB	018H
	DB	0c4H
	DB	018H
	DB	0c3H
	DB	020H
	DB	0e3H
	DB	018H
	DB	0c3H
	DB	018H
	DB	0c3H
	DB	020H
	DB	0e4H
	DB	018H
	DB	0c3H
	DB	018H
	DB	0c3H
	DB	018H
	DB	0c3H
	DB	018H
	DB	0c3H
	DB	018H
	DB	0c3H
	DB	018H
	DB	0c3H
	DB	018H
	DB	0c3H
	DB	018H
	DB	0c3H
	DB	018H
	DB	0c3H
	DB	018H
	DB	0c3H
	DB	018H
	DB	0c3H
	DB	018H
	DB	0c3H
	DB	018H
	DB	0c3H
	DB	018H
	DB	0c4H
	DB	020H
	DB	0c3H
	DB	018H
	DB	0c3H
	DB	018H
	DB	0c3H
	DB	018H
	DB	0c3H
	DB	018H
	DB	0c3H
	DB	018H
	DB	0c3H
	DB	018H
	DB	0e4H
	DB	020H
	DB	0c3H
	DB	018H
	DB	048H
	DB	019H
	DB	0ccH
	DB	019H
	DB	0b1H
	DB	022H
	DB	0f3H
	DB	022H
	DB	050H
	DB	022H
	DB	050H
	DB	022H
	DB	02fH
	DB	022H
	DB	02fH
	DB	01aH
	DB	0fH
	DB	01aH
	DB	07bH
	DB	0c6H
	DB	0ffH
	DB	0ffH
	DB	01dH
	DB	0dfH
	DB	0f3H
	DB	06bH
	DB	0bfH
	DB	0ffH
	DB	01aH
	DB	0beH
	DB	051H
	DB	053H
	DB	0edH
	DB	021H
	DB	0edH
	DB	019H
	DB	0edH
	DB	019H
	DB	0edH
	DB	019H
	DB	0edH
	DB	021H
	DB	0edH
	DB	019H
	DB	0eeH
	DB	019H
	DB	058H
	DB	09dH
	DB	0ffH
	DB	0ffH
	DB	07eH
	DB	0efH
	DB	0b3H
	DB	05bH
	DB	05bH
	DB	0c6H
	DB	072H
	DB	053H
	DB	02fH
	DB	022H
	DB	030H
	DB	022H
	DB	050H
	DB	022H
	DB	050H
	DB	022H
	DB	050H
	DB	022H
	DB	0f3H
	DB	022H
	DB	0b1H
	DB	022H
	DB	0ccH
	DB	019H
	DB	048H
	DB	019H
	DB	0c3H
	DB	018H
	DB	0c3H
	DB	018H
	DB	0c3H
	DB	018H
	DB	0c3H
	DB	018H
	DB	0c3H
	DB	018H
	DB	0c3H
	DB	018H
	DB	0c3H
	DB	018H
	DB	0c3H
	DB	018H
	DB	0c3H
	DB	018H
	DB	0c3H
	DB	018H
	DB	0c3H
	DB	018H
	DB	0c3H
	DB	020H
	DB	0c4H
	DB	018H
	DB	0e3H
	DB	018H
	DB	0c3H
	DB	018H
	DB	0c3H
	DB	018H
	DB	0c3H
	DB	018H
	DB	0c3H
	DB	018H
	DB	0e3H
	DB	018H
	DB	0c3H
	DB	018H
	DB	0c4H
	DB	020H
	DB	0e3H
	DB	018H
	DB	0c3H
	DB	018H
	DB	0c3H
	DB	018H
	DB	0e3H
	DB	018H
	DB	0c3H
	DB	018H
	DB	0c4H
	DB	020H
	DB	0e3H
	DB	018H
	DB	0c3H
	DB	018H
	DB	0c3H
	DB	018H
	DB	0c3H
	DB	018H
	DB	0c3H
	DB	018H
	DB	08aH
	DB	019H
	DB	0ccH
	DB	019H
	DB	033H
	DB	02bH
	DB	091H
	DB	022H
	DB	050H
	DB	022H
	DB	050H
	DB	022H
	DB	050H
	DB	022H
	DB	02fH
	DB	022H
	DB	0eH
	DB	01aH
	DB	06fH
	DB	032H
	DB	05bH
	DB	0c6H
	DB	0f3H
	DB	06bH
	DB	0bfH
	DB	0ffH
	DB	09bH
	DB	0ceH
	DB	033H
	DB	074H
	DB	0ffH
	DB	0ffH
	DB	05aH
	DB	0c6H
	DB	0dH
	DB	022H
	DB	0cdH
	DB	019H
	DB	0cdH
	DB	019H
	DB	0cdH
	DB	019H
	DB	0cdH
	DB	019H
	DB	037H
	DB	09dH
	DB	0ffH
	DB	0ffH
	DB	09eH
	DB	0efH
	DB	0b3H
	DB	063H
	DB	05bH
	DB	0c6H
	DB	0b3H
	DB	063H
	DB	0b9H
	DB	0a5H
	DB	02fH
	DB	01aH
	DB	02fH
	DB	022H
	DB	050H
	DB	022H
	DB	050H
	DB	022H
	DB	050H
	DB	022H
	DB	091H
	DB	022H
	DB	034H
	DB	02bH
	DB	0ccH
	DB	019H
	DB	0aaH
	DB	019H
	DB	0c3H
	DB	018H
	DB	0c3H
	DB	018H
	DB	0c3H
	DB	018H
	DB	0c3H
	DB	018H
	DB	0e3H
	DB	018H
	DB	0c3H
	DB	018H
	DB	0c4H
	DB	018H
	DB	0e3H
	DB	018H
	DB	0c3H
	DB	018H
	DB	0c3H
	DB	018H
	DB	0e3H
	DB	018H
	DB	0c3H
	DB	018H
	DB	0c3H
	DB	018H
	DB	0c3H
	DB	018H
	DB	0c3H
	DB	018H
	DB	0c3H
	DB	018H
	DB	0c3H
	DB	018H
	DB	0c3H
	DB	018H
	DB	0c3H
	DB	018H
	DB	0e3H
	DB	018H
	DB	0c3H
	DB	018H
	DB	0c3H
	DB	018H
	DB	0c3H
	DB	018H
	DB	0c3H
	DB	018H
	DB	0e3H
	DB	018H
	DB	0c3H
	DB	018H
	DB	0c3H
	DB	018H
	DB	0c3H
	DB	018H
	DB	0c3H
	DB	018H
	DB	0c3H
	DB	018H
	DB	0c3H
	DB	018H
	DB	0e5H
	DB	018H
	DB	0cdH
	DB	019H
	DB	02eH
	DB	022H
	DB	034H
	DB	023H
	DB	071H
	DB	022H
	DB	050H
	DB	022H
	DB	050H
	DB	022H
	DB	050H
	DB	022H
	DB	02fH
	DB	022H
	DB	0fH
	DB	01aH
	DB	0eH
	DB	022H
	DB	0eH
	DB	022H
	DB	0dfH
	DB	0ffH
	DB	09bH
	DB	0ceH
	DB	013H
	DB	074H
	DB	0ffH
	DB	0ffH
	DB	0ffH
	DB	0ffH
	DB	0ffH
	DB	0ffH
	DB	0bcH
	DB	0d6H
	DB	04dH
	DB	02aH
	DB	0ccH
	DB	019H
	DB	0ccH
	DB	019H
	DB	017H
	DB	095H
	DB	0ffH
	DB	0ffH
	DB	09eH
	DB	0f7H
	DB	0b2H
	DB	063H
	DB	05bH
	DB	0c6H
	DB	0b3H
	DB	05bH
	DB	0b9H
	DB	0a5H
	DB	0eH
	DB	022H
	DB	02fH
	DB	022H
	DB	030H
	DB	01aH
	DB	050H
	DB	022H
	DB	050H
	DB	022H
	DB	051H
	DB	022H
	DB	071H
	DB	022H
	DB	034H
	DB	023H
	DB	02eH
	DB	01aH
	DB	0cdH
	DB	019H
	DB	0e5H
	DB	018H
	DB	0c3H
	DB	018H
	DB	0c3H
	DB	018H
	DB	0c3H
	DB	018H
	DB	0c3H
	DB	018H
	DB	0c3H
	DB	020H
	DB	0c3H
	DB	018H
	DB	0e3H
	DB	018H
	DB	0c3H
	DB	020H
	DB	0c3H
	DB	018H
	DB	0e3H
	DB	018H
	DB	0c3H
	DB	018H
	DB	0c3H
	DB	018H
	DB	0c3H
	DB	018H
	DB	0c3H
	DB	018H
	DB	0c3H
	DB	018H
	DB	0c3H
	DB	018H
	DB	0c3H
	DB	018H
	DB	0c3H
	DB	018H
	DB	0c3H
	DB	018H
	DB	0c3H
	DB	018H
	DB	0c3H
	DB	018H
	DB	0c3H
	DB	018H
	DB	0c3H
	DB	018H
	DB	0c3H
	DB	018H
	DB	0c3H
	DB	018H
	DB	0c3H
	DB	018H
	DB	0c3H
	DB	018H
	DB	0c3H
	DB	018H
	DB	0c3H
	DB	018H
	DB	0c3H
	DB	018H
	DB	027H
	DB	019H
	DB	0ccH
	DB	019H
	DB	0d1H
	DB	022H
	DB	0f3H
	DB	022H
	DB	070H
	DB	022H
	DB	050H
	DB	022H
	DB	050H
	DB	022H
	DB	030H
	DB	01aH
	DB	02fH
	DB	022H
	DB	02fH
	DB	01aH
	DB	0eH
	DB	01aH
	DB	0edH
	DB	019H
	DB	03aH
	DB	0beH
	DB	013H
	DB	074H
	DB	0ffH
	DB	0ffH
	DB	0ffH
	DB	0ffH
	DB	0ffH
	DB	0ffH
	DB	0ffH
	DB	0ffH
	DB	0ffH
	DB	0ffH
	DB	05aH
	DB	0c6H
	DB	0acH
	DB	019H
	DB	0f3H
	DB	06bH
	DB	0ffH
	DB	0ffH
	DB	09eH
	DB	0f7H
	DB	092H
	DB	05bH
	DB	05bH
	DB	0c6H
	DB	092H
	DB	05bH
	DB	0b9H
	DB	0adH
	DB	0eH
	DB	01aH
	DB	0eH
	DB	022H
	DB	02fH
	DB	022H
	DB	030H
	DB	022H
	DB	050H
	DB	022H
	DB	050H
	DB	022H
	DB	050H
	DB	022H
	DB	071H
	DB	022H
	DB	0f2H
	DB	022H
	DB	0d1H
	DB	022H
	DB	0ccH
	DB	019H
	DB	027H
	DB	019H
	DB	0c3H
	DB	018H
	DB	0c3H
	DB	018H
	DB	0c3H
	DB	018H
	DB	0c3H
	DB	018H
	DB	0c3H
	DB	018H
	DB	0c3H
	DB	018H
	DB	0c3H
	DB	018H
	DB	0c3H
	DB	018H
	DB	0c3H
	DB	018H
	DB	0c3H
	DB	018H
	DB	0c3H
	DB	018H
	DB	0c3H
	DB	018H
	DB	0c3H
	DB	018H
	DB	0c3H
	DB	018H
	DB	0c3H
	DB	018H
	DB	0c3H
	DB	018H
	DB	0c3H
	DB	018H
	DB	0c3H
	DB	018H
	DB	0c3H
	DB	018H
	DB	0c3H
	DB	018H
	DB	0c3H
	DB	018H
	DB	0c3H
	DB	018H
	DB	0c3H
	DB	018H
	DB	0c3H
	DB	018H
	DB	0c3H
	DB	018H
	DB	0c3H
	DB	018H
	DB	0c3H
	DB	018H
	DB	0c3H
	DB	018H
	DB	0c3H
	DB	018H
	DB	0c3H
	DB	018H
	DB	069H
	DB	019H
	DB	0ccH
	DB	019H
	DB	033H
	DB	023H
	DB	0b2H
	DB	022H
	DB	050H
	DB	022H
	DB	050H
	DB	022H
	DB	050H
	DB	022H
	DB	050H
	DB	022H
	DB	02fH
	DB	022H
	DB	0fH
	DB	022H
	DB	0eH
	DB	01aH
	DB	0edH
	DB	019H
	DB	072H
	DB	05bH
	DB	0ffH
	DB	0ffH
	DB	0ffH
	DB	0ffH
	DB	0ffH
	DB	0ffH
	DB	0ffH
	DB	0ffH
	DB	0ffH
	DB	0ffH
	DB	0ffH
	DB	0ffH
	DB	054H
	DB	07cH
	DB	08bH
	DB	019H
	DB	0fcH
	DB	0deH
	DB	01dH
	DB	0e7H
	DB	02dH
	DB	02aH
	DB	05bH
	DB	0c6H
	DB	092H
	DB	05bH
	DB	0b9H
	DB	0adH
	DB	0edH
	DB	019H
	DB	0eH
	DB	01aH
	DB	0fH
	DB	01aH
	DB	02fH
	DB	022H
	DB	050H
	DB	022H
	DB	050H
	DB	022H
	DB	050H
	DB	022H
	DB	050H
	DB	022H
	DB	070H
	DB	022H
	DB	0b2H
	DB	022H
	DB	013H
	DB	023H
	DB	0ccH
	DB	019H
	DB	069H
	DB	019H
	DB	0c3H
	DB	018H
	DB	0c3H
	DB	018H
	DB	0c3H
	DB	018H
	DB	0c3H
	DB	018H
	DB	0c3H
	DB	018H
	DB	0c3H
	DB	018H
	DB	0c3H
	DB	018H
	DB	0c3H
	DB	018H
	DB	0c3H
	DB	018H
	DB	0c3H
	DB	018H
	DB	0c3H
	DB	018H
	DB	0c3H
	DB	018H
	DB	0c3H
	DB	018H
	DB	0c3H
	DB	018H
	DB	0c3H
	DB	018H
	DB	0c3H
	DB	018H
	DB	0c3H
	DB	018H
	DB	0c3H
	DB	018H
	DB	0c3H
	DB	018H
	DB	0c3H
	DB	018H
	DB	0c3H
	DB	018H
	DB	0c3H
	DB	018H
	DB	0c3H
	DB	018H
	DB	0c3H
	DB	018H
	DB	0c3H
	DB	018H
	DB	0c3H
	DB	018H
	DB	0c3H
	DB	018H
	DB	0c3H
	DB	018H
	DB	0c3H
	DB	018H
	DB	0c3H
	DB	018H
	DB	08bH
	DB	019H
	DB	0ccH
	DB	019H
	DB	034H
	DB	02bH
	DB	091H
	DB	022H
	DB	071H
	DB	022H
	DB	051H
	DB	022H
	DB	050H
	DB	022H
	DB	050H
	DB	022H
	DB	04fH
	DB	022H
	DB	02fH
	DB	022H
	DB	0eH
	DB	01aH
	DB	0eeH
	DB	019H
	DB	0eH
	DB	022H
	DB	07bH
	DB	0c6H
	DB	0ffH
	DB	0ffH
	DB	0ffH
	DB	0ffH
	DB	0ffH
	DB	0ffH
	DB	0ffH
	DB	0ffH
	DB	09bH
	DB	0ceH
	DB	0abH
	DB	019H
	DB	091H
	DB	063H
	DB	0ffH
	DB	0ffH
	DB	034H
	DB	074H
	DB	0acH
	DB	019H
	DB	0dH
	DB	02aH
	DB	0d9H
	DB	0adH
	DB	0edH
	DB	019H
	DB	0edH
	DB	019H
	DB	0eH
	DB	022H
	DB	0fH
	DB	01aH
	DB	02fH
	DB	01aH
	DB	04fH
	DB	022H
	DB	050H
	DB	022H
	DB	050H
	DB	01aH
	DB	051H
	DB	022H
	DB	071H
	DB	022H
	DB	091H
	DB	022H
	DB	034H
	DB	02bH
	DB	0ccH
	DB	019H
	DB	08bH
	DB	019H
	DB	0c3H
	DB	018H
	DB	0c3H
	DB	018H
	DB	0c3H
	DB	018H
	DB	0c3H
	DB	018H
	DB	0c3H
	DB	018H
	DB	0c3H
	DB	018H
	DB	0c3H
	DB	018H
	DB	0c3H
	DB	018H
	DB	0c3H
	DB	018H
	DB	0c3H
	DB	018H
	DB	0c3H
	DB	018H
	DB	0c3H
	DB	018H
	DB	0c3H
	DB	018H
	DB	0c3H
	DB	018H
	DB	0a3H
	DB	018H
	DB	0c3H
	DB	018H
	DB	0c3H
	DB	018H
	DB	0c3H
	DB	018H
	DB	0c3H
	DB	018H
	DB	0c3H
	DB	018H
	DB	0c3H
	DB	018H
	DB	0c3H
	DB	018H
	DB	0c3H
	DB	018H
	DB	0c3H
	DB	018H
	DB	0c3H
	DB	018H
	DB	0c3H
	DB	018H
	DB	0c3H
	DB	018H
	DB	0c3H
	DB	018H
	DB	0a3H
	DB	018H
	DB	0a3H
	DB	018H
	DB	0ccH
	DB	019H
	DB	0ccH
	DB	019H
	DB	034H
	DB	02bH
	DB	071H
	DB	022H
	DB	070H
	DB	022H
	DB	070H
	DB	022H
	DB	050H
	DB	022H
	DB	050H
	DB	022H
	DB	030H
	DB	022H
	DB	02fH
	DB	022H
	DB	0fH
	DB	01aH
	DB	0eH
	DB	022H
	DB	0edH
	DB	019H
	DB	02eH
	DB	02aH
	DB	0fcH
	DB	0deH
	DB	0ffH
	DB	0ffH
	DB	0ffH
	DB	0ffH
	DB	05aH
	DB	0c6H
	DB	0cbH
	DB	021H
	DB	0ecH
	DB	021H
	DB	0dcH
	DB	0d6H
	DB	07eH
	DB	0efH
	DB	0ccH
	DB	021H
	DB	0ccH
	DB	021H
	DB	0abH
	DB	019H
	DB	0acH
	DB	019H
	DB	0cdH
	DB	019H
	DB	0edH
	DB	019H
	DB	0eH
	DB	022H
	DB	02fH
	DB	022H
	DB	02fH
	DB	01aH
	DB	030H
	DB	022H
	DB	050H
	DB	022H
	DB	050H
	DB	022H
	DB	050H
	DB	022H
	DB	051H
	DB	022H
	DB	071H
	DB	022H
	DB	054H
	DB	02bH
	DB	0ccH
	DB	019H
	DB	0acH
	DB	019H
	DB	0a3H
	DB	018H
	DB	0c3H
	DB	018H
	DB	0c3H
	DB	018H
	DB	0c3H
	DB	018H
	DB	0c3H
	DB	018H
	DB	0c3H
	DB	018H
	DB	0c3H
	DB	018H
	DB	0c3H
	DB	018H
	DB	0c3H
	DB	018H
	DB	0c3H
	DB	018H
	DB	0a3H
	DB	018H
	DB	0c3H
	DB	018H
	DB	0c3H
	DB	018H
	DB	0a3H
	DB	018H
	DB	0a3H
	DB	018H
	DB	0c3H
	DB	018H
	DB	0a3H
	DB	018H
	DB	0c3H
	DB	018H
	DB	0a3H
	DB	018H
	DB	0c3H
	DB	018H
	DB	0c3H
	DB	018H
	DB	0a3H
	DB	018H
	DB	0c3H
	DB	018H
	DB	0c3H
	DB	018H
	DB	0a3H
	DB	018H
	DB	0c3H
	DB	018H
	DB	0a3H
	DB	018H
	DB	0a3H
	DB	018H
	DB	0c3H
	DB	018H
	DB	0a2H
	DB	010H
	DB	0ccH
	DB	019H
	DB	0ccH
	DB	019H
	DB	054H
	DB	02bH
	DB	071H
	DB	022H
	DB	051H
	DB	022H
	DB	051H
	DB	022H
	DB	050H
	DB	022H
	DB	050H
	DB	022H
	DB	050H
	DB	022H
	DB	030H
	DB	022H
	DB	02fH
	DB	022H
	DB	0eH
	DB	01aH
	DB	0edH
	DB	019H
	DB	0cdH
	DB	019H
	DB	06eH
	DB	032H
	DB	05eH
	DB	0efH
	DB	0f9H
	DB	0b5H
	DB	0abH
	DB	019H
	DB	0ccH
	DB	021H
	DB	09bH
	DB	0ceH
	DB	0ffH
	DB	0ffH
	DB	0b1H
	DB	063H
	DB	08aH
	DB	019H
	DB	0d9H
	DB	0b5H
	DB	013H
	DB	074H
	DB	0acH
	DB	019H
	DB	0ccH
	DB	019H
	DB	0edH
	DB	019H
	DB	0eeH
	DB	019H
	DB	0eH
	DB	022H
	DB	02fH
	DB	022H
	DB	050H
	DB	022H
	DB	050H
	DB	022H
	DB	050H
	DB	022H
	DB	050H
	DB	022H
	DB	070H
	DB	022H
	DB	071H
	DB	022H
	DB	034H
	DB	02bH
	DB	0ccH
	DB	019H
	DB	0ccH
	DB	019H
	DB	0a3H
	DB	018H
	DB	0a3H
	DB	018H
	DB	0a3H
	DB	018H
	DB	0a3H
	DB	018H
	DB	0c3H
	DB	018H
	DB	0a3H
	DB	018H
	DB	0c3H
	DB	018H
	DB	0a3H
	DB	018H
	DB	0c3H
	DB	018H
	DB	0c3H
	DB	018H
	DB	0a3H
	DB	018H
	DB	0a3H
	DB	018H
	DB	0a3H
	DB	018H
	DB	0c3H
	DB	018H
	DB	0c3H
	DB	018H
	DB	0a3H
	DB	018H
	DB	0a3H
	DB	018H
	DB	0a3H
	DB	018H
	DB	0a3H
	DB	018H
	DB	0a3H
	DB	018H
	DB	0a3H
	DB	018H
	DB	0a3H
	DB	018H
	DB	0a3H
	DB	018H
	DB	0a3H
	DB	018H
	DB	0a3H
	DB	018H
	DB	0c3H
	DB	018H
	DB	0a3H
	DB	018H
	DB	0a3H
	DB	018H
	DB	0a2H
	DB	010H
	DB	0a2H
	DB	010H
	DB	0ccH
	DB	019H
	DB	0cdH
	DB	019H
	DB	034H
	DB	02bH
	DB	070H
	DB	022H
	DB	071H
	DB	022H
	DB	050H
	DB	022H
	DB	071H
	DB	022H
	DB	050H
	DB	022H
	DB	050H
	DB	022H
	DB	050H
	DB	01aH
	DB	02fH
	DB	022H
	DB	0fH
	DB	022H
	DB	0eH
	DB	01aH
	DB	0edH
	DB	019H
	DB	0cdH
	DB	019H
	DB	06eH
	DB	032H
	DB	0acH
	DB	019H
	DB	0ccH
	DB	021H
	DB	07bH
	DB	0ceH
	DB	0ffH
	DB	0ffH
	DB	0f2H
	DB	073H
	DB	08aH
	DB	019H
	DB	030H
	DB	053H
	DB	0dfH
	DB	0ffH
	DB	0ffH
	DB	0ffH
	DB	0b5H
	DB	084H
	DB	0ccH
	DB	019H
	DB	0cdH
	DB	019H
	DB	0eeH
	DB	019H
	DB	0eH
	DB	01aH
	DB	02fH
	DB	022H
	DB	050H
	DB	022H
	DB	050H
	DB	022H
	DB	050H
	DB	022H
	DB	051H
	DB	022H
	DB	071H
	DB	022H
	DB	070H
	DB	022H
	DB	034H
	DB	023H
	DB	0ccH
	DB	019H
	DB	0ccH
	DB	019H
	DB	0a2H
	DB	010H
	DB	0a2H
	DB	010H
	DB	0c3H
	DB	018H
	DB	0a3H
	DB	018H
	DB	0a3H
	DB	010H
	DB	0c3H
	DB	018H
	DB	0a3H
	DB	018H
	DB	0a3H
	DB	018H
	DB	0a3H
	DB	018H
	DB	0c3H
	DB	018H
	DB	0c3H
	DB	018H
	DB	0a3H
	DB	010H
	DB	0c2H
	DB	018H
	DB	0a3H
	DB	018H
	DB	0a3H
	DB	010H
	DB	0c3H
	DB	018H
	DB	0c2H
	DB	010H
	DB	0c3H
	DB	018H
	DB	0c2H
	DB	010H
	DB	0c3H
	DB	018H
	DB	0c3H
	DB	018H
	DB	0c2H
	DB	010H
	DB	0c3H
	DB	018H
	DB	0a3H
	DB	018H
	DB	0c2H
	DB	010H
	DB	0c3H
	DB	018H
	DB	0c3H
	DB	018H
	DB	0a2H
	DB	010H
	DB	0a3H
	DB	018H
	DB	0a3H
	DB	018H
	DB	0acH
	DB	019H
	DB	0ccH
	DB	019H
	DB	034H
	DB	023H
	DB	071H
	DB	022H
	DB	070H
	DB	022H
	DB	070H
	DB	022H
	DB	050H
	DB	022H
	DB	050H
	DB	022H
	DB	050H
	DB	022H
	DB	050H
	DB	01aH
	DB	02fH
	DB	022H
	DB	0fH
	DB	022H
	DB	0eH
	DB	022H
	DB	0eeH
	DB	019H
	DB	0edH
	DB	019H
	DB	0ccH
	DB	019H
	DB	0edH
	DB	021H
	DB	07bH
	DB	0ceH
	DB	0ffH
	DB	0ffH
	DB	013H
	DB	074H
	DB	08aH
	DB	011H
	DB	0fH
	DB	04bH
	DB	0dfH
	DB	0ffH
	DB	0ffH
	DB	0ffH
	DB	0ffH
	DB	0ffH
	DB	0ffH
	DB	0ffH
	DB	057H
	DB	09dH
	DB	0cdH
	DB	019H
	DB	0edH
	DB	019H
	DB	0eH
	DB	022H
	DB	02fH
	DB	01aH
	DB	02fH
	DB	01aH
	DB	050H
	DB	022H
	DB	050H
	DB	022H
	DB	050H
	DB	022H
	DB	071H
	DB	022H
	DB	071H
	DB	022H
	DB	034H
	DB	02bH
	DB	0ccH
	DB	019H
	DB	0ccH
	DB	019H
	DB	0a3H
	DB	010H
	DB	0a2H
	DB	018H
	DB	0a2H
	DB	010H
	DB	0c3H
	DB	018H
	DB	0c2H
	DB	018H
	DB	0a3H
	DB	010H
	DB	0c2H
	DB	018H
	DB	0c3H
	DB	010H
	DB	0a3H
	DB	018H
	DB	0a2H
	DB	018H
	DB	0c3H
	DB	010H
	DB	0c3H
	DB	018H
	DB	0a2H
	DB	010H
	DB	0a2H
	DB	018H
	DB	0a3H
	DB	010H
	DB	0a3H
	DB	018H
	DB	0a3H
	DB	018H
	DB	0c2H
	DB	010H
	DB	0a3H
	DB	018H
	DB	0a3H
	DB	018H
	DB	0c2H
	DB	010H
	DB	0a3H
	DB	018H
	DB	0c3H
	DB	018H
	DB	0c2H
	DB	010H
	DB	0a3H
	DB	018H
	DB	0a3H
	DB	018H
	DB	0a2H
	DB	010H
	DB	0a2H
	DB	010H
	DB	0a3H
	DB	018H
	DB	0a2H
	DB	010H
	DB	08aH
	DB	019H
	DB	0ccH
	DB	019H
	DB	034H
	DB	023H
	DB	091H
	DB	022H
	DB	051H
	DB	022H
	DB	051H
	DB	022H
	DB	050H
	DB	022H
	DB	050H
	DB	022H
	DB	050H
	DB	022H
	DB	050H
	DB	022H
	DB	02fH
	DB	022H
	DB	02fH
	DB	01aH
	DB	0eH
	DB	01aH
	DB	0eH
	DB	022H
	DB	0edH
	DB	019H
	DB	0dH
	DB	022H
	DB	05bH
	DB	0c6H
	DB	0ffH
	DB	0ffH
	DB	053H
	DB	07cH
	DB	08bH
	DB	019H
	DB	0efH
	DB	04aH
	DB	0bfH
	DB	0f7H
	DB	0ffH
	DB	0ffH
	DB	0ffH
	DB	0ffH
	DB	0ffH
	DB	0ffH
	DB	0ffH
	DB	0ffH
	DB	0ffH
	DB	0ffH
	DB	0d9H
	DB	0b5H
	DB	0eH
	DB	022H
	DB	0eH
	DB	01aH
	DB	0fH
	DB	022H
	DB	02fH
	DB	022H
	DB	050H
	DB	022H
	DB	050H
	DB	022H
	DB	050H
	DB	022H
	DB	070H
	DB	022H
	DB	091H
	DB	022H
	DB	034H
	DB	023H
	DB	0ccH
	DB	019H
	DB	08bH
	DB	019H
	DB	0a3H
	DB	018H
	DB	0a2H
	DB	010H
	DB	0a3H
	DB	018H
	DB	0a3H
	DB	018H
	DB	0c3H
	DB	018H
	DB	0a2H
	DB	018H
	DB	0c3H
	DB	018H
	DB	0c3H
	DB	010H
	DB	0a2H
	DB	018H
	DB	0a3H
	DB	018H
	DB	0a2H
	DB	010H
	DB	0a3H
	DB	018H
	DB	0a3H
	DB	018H
	DB	0a2H
	DB	010H
	DB	0a3H
	DB	018H
	DB	0a2H
	DB	010H
	DB	0a3H
	DB	018H
	DB	0a3H
	DB	018H
	DB	0a2H
	DB	010H
	DB	0a3H
	DB	018H
	DB	0a2H
	DB	010H
	DB	0a3H
	DB	018H
	DB	0a3H
	DB	018H
	DB	0a2H
	DB	010H
	DB	0a3H
	DB	018H
	DB	0a3H
	DB	018H
	DB	0a2H
	DB	010H
	DB	0c3H
	DB	018H
	DB	0a3H
	DB	010H
	DB	0a2H
	DB	010H
	DB	069H
	DB	019H
	DB	0ccH
	DB	019H
	DB	033H
	DB	023H
	DB	0b2H
	DB	022H
	DB	070H
	DB	022H
	DB	070H
	DB	022H
	DB	051H
	DB	022H
	DB	050H
	DB	022H
	DB	050H
	DB	022H
	DB	030H
	DB	022H
	DB	02fH
	DB	022H
	DB	02fH
	DB	01aH
	DB	0fH
	DB	01aH
	DB	0eH
	DB	022H
	DB	0eH
	DB	022H
	DB	05bH
	DB	0c6H
	DB	0ffH
	DB	0ffH
	DB	075H
	DB	07cH
	DB	0acH
	DB	019H
	DB	0efH
	DB	042H
	DB	09eH
	DB	0f7H
	DB	0ffH
	DB	0ffH
	DB	0ffH
	DB	0ffH
	DB	0ffH
	DB	0ffH
	DB	0ffH
	DB	0ffH
	DB	0ffH
	DB	0ffH
	DB	0ffH
	DB	0ffH
	DB	09bH
	DB	0ceH
	DB	0d3H
	DB	063H
	DB	02eH
	DB	022H
	DB	02fH
	DB	022H
	DB	02fH
	DB	022H
	DB	050H
	DB	022H
	DB	050H
	DB	022H
	DB	050H
	DB	022H
	DB	051H
	DB	022H
	DB	0b2H
	DB	022H
	DB	033H
	DB	023H
	DB	0ccH
	DB	019H
	DB	069H
	DB	019H
	DB	0a2H
	DB	010H
	DB	0a3H
	DB	010H
	DB	0a2H
	DB	010H
	DB	0a3H
	DB	018H
	DB	0a3H
	DB	010H
	DB	0a2H
	DB	010H
	DB	0a3H
	DB	018H
	DB	0a3H
	DB	018H
	DB	0a2H
	DB	010H
	DB	0a3H
	DB	018H
	DB	0a3H
	DB	018H
	DB	0a2H
	DB	010H
	DB	0c3H
	DB	018H
	DB	0a3H
	DB	018H
	DB	0a2H
	DB	010H
	DB	0a3H
	DB	018H
	DB	0a2H
	DB	010H
	DB	0a3H
	DB	018H
	DB	0c3H
	DB	018H
	DB	0a2H
	DB	010H
	DB	0a3H
	DB	018H
	DB	0a3H
	DB	018H
	DB	0a2H
	DB	010H
	DB	0a3H
	DB	018H
	DB	0c2H
	DB	010H
	DB	0a3H
	DB	018H
	DB	0a3H
	DB	018H
	DB	0a2H
	DB	010H
	DB	0a2H
	DB	018H
	DB	0a3H
	DB	010H
	DB	026H
	DB	019H
	DB	0cdH
	DB	019H
	DB	0d1H
	DB	022H
	DB	0d3H
	DB	02aH
	DB	070H
	DB	022H
	DB	050H
	DB	022H
	DB	050H
	DB	022H
	DB	050H
	DB	022H
	DB	050H
	DB	022H
	DB	02fH
	DB	01aH
	DB	02fH
	DB	022H
	DB	02fH
	DB	022H
	DB	0eH
	DB	01aH
	DB	02fH
	DB	022H
	DB	03bH
	DB	0c6H
	DB	0ffH
	DB	0ffH
	DB	0b5H
	DB	084H
	DB	0ccH
	DB	019H
	DB	0ccH
	DB	019H
	DB	095H
	DB	084H
	DB	0ffH
	DB	0ffH
	DB	0ffH
	DB	0ffH
	DB	0ffH
	DB	0ffH
	DB	0ffH
	DB	0ffH
	DB	0ffH
	DB	0ffH
	DB	0ffH
	DB	0ffH
	DB	07bH
	DB	0ceH
	DB	08fH
	DB	032H
	DB	01dH
	DB	0dfH
	DB	01aH
	DB	0beH
	DB	0fH
	DB	01aH
	DB	02fH
	DB	022H
	DB	050H
	DB	022H
	DB	050H
	DB	01aH
	DB	050H
	DB	022H
	DB	070H
	DB	022H
	DB	0d3H
	DB	022H
	DB	0d1H
	DB	022H
	DB	0ccH
	DB	019H
	DB	06H
	DB	019H
	DB	0a2H
	DB	010H
	DB	0a3H
	DB	018H
	DB	0a2H
	DB	018H
	DB	0a3H
	DB	010H
	DB	0a2H
	DB	018H
	DB	0a3H
	DB	018H
	DB	0a3H
	DB	010H
	DB	0a2H
	DB	018H
	DB	0c3H
	DB	010H
	DB	0c3H
	DB	018H
	DB	0a2H
	DB	018H
	DB	0a3H
	DB	010H
	DB	0a2H
	DB	010H
	DB	0a2H
	DB	018H
	DB	0a3H
	DB	010H
	DB	0a3H
	DB	018H
	DB	0a2H
	DB	010H
	DB	0c3H
	DB	018H
	DB	0a3H
	DB	018H
	DB	0a2H
	DB	010H
	DB	0c3H
	DB	018H
	DB	0a2H
	DB	010H
	DB	0a3H
	DB	018H
	DB	0c3H
	DB	018H
	DB	0a2H
	DB	010H
	DB	0a2H
	DB	010H
	DB	0a3H
	DB	018H
	DB	0a2H
	DB	018H
	DB	0a2H
	DB	010H
	DB	0a3H
	DB	010H
	DB	0c4H
	DB	018H
	DB	0ccH
	DB	019H
	DB	02eH
	DB	01aH
	DB	034H
	DB	02bH
	DB	071H
	DB	022H
	DB	050H
	DB	022H
	DB	050H
	DB	022H
	DB	050H
	DB	022H
	DB	050H
	DB	022H
	DB	030H
	DB	01aH
	DB	02fH
	DB	022H
	DB	02fH
	DB	022H
	DB	02fH
	DB	022H
	DB	03aH
	DB	0beH
	DB	0ffH
	DB	0ffH
	DB	0d6H
	DB	084H
	DB	0edH
	DB	019H
	DB	0edH
	DB	019H
	DB	0cdH
	DB	019H
	DB	0ccH
	DB	019H
	DB	037H
	DB	09dH
	DB	0ffH
	DB	0ffH
	DB	0ffH
	DB	0ffH
	DB	0ffH
	DB	0ffH
	DB	0ffH
	DB	0ffH
	DB	07bH
	DB	0ceH
	DB	06eH
	DB	032H
	DB	01dH
	DB	0dfH
	DB	0f3H
	DB	06bH
	DB	014H
	DB	06cH
	DB	0fH
	DB	01aH
	DB	02fH
	DB	022H
	DB	050H
	DB	022H
	DB	050H
	DB	022H
	DB	050H
	DB	022H
	DB	071H
	DB	022H
	DB	034H
	DB	02bH
	DB	02eH
	DB	01aH
	DB	0cdH
	DB	019H
	DB	0c4H
	DB	010H
	DB	0a2H
	DB	010H
	DB	0a2H
	DB	018H
	DB	0a3H
	DB	010H
	DB	0a2H
	DB	010H
	DB	0a2H
	DB	018H
	DB	0c3H
	DB	018H
	DB	0a2H
	DB	010H
	DB	0a3H
	DB	018H
	DB	0a3H
	DB	018H
	DB	0a2H
	DB	010H
	DB	0a2H
	DB	010H
	DB	0a3H
	DB	018H
	DB	0a3H
	DB	010H
	DB	0a2H
	DB	018H
	DB	0a2H
	DB	018H
	DB	0a2H
	DB	010H
	DB	0a2H
	DB	010H
	DB	0a3H
	DB	018H
	DB	0a2H
	DB	010H
	DB	0a2H
	DB	010H
	DB	0a3H
	DB	018H
	DB	0a2H
	DB	010H
	DB	0a2H
	DB	010H
	DB	0a3H
	DB	018H
	DB	0a2H
	DB	010H
	DB	0a3H
	DB	010H
	DB	0a3H
	DB	018H
	DB	0a2H
	DB	010H
	DB	0a2H
	DB	010H
	DB	082H
	DB	010H
	DB	082H
	DB	010H
	DB	08aH
	DB	019H
	DB	0ccH
	DB	019H
	DB	034H
	DB	023H
	DB	091H
	DB	022H
	DB	050H
	DB	022H
	DB	050H
	DB	022H
	DB	050H
	DB	022H
	DB	050H
	DB	022H
	DB	02fH
	DB	022H
	DB	02fH
	DB	01aH
	DB	02fH
	DB	022H
	DB	01aH
	DB	0b6H
	DB	0ffH
	DB	0ffH
	DB	0f7H
	DB	08cH
	DB	0eH
	DB	01aH
	DB	0eeH
	DB	019H
	DB	0eeH
	DB	019H
	DB	0edH
	DB	019H
	DB	0cdH
	DB	019H
	DB	0cdH
	DB	019H
	DB	0d9H
	DB	0adH
	DB	0ffH
	DB	0ffH
	DB	0ffH
	DB	0ffH
	DB	07bH
	DB	0ceH
	DB	06eH
	DB	032H
	DB	01dH
	DB	0dfH
	DB	0d3H
	DB	063H
	DB	014H
	DB	074H
	DB	0eH
	DB	01aH
	DB	02fH
	DB	022H
	DB	02fH
	DB	022H
	DB	050H
	DB	022H
	DB	050H
	DB	022H
	DB	051H
	DB	022H
	DB	091H
	DB	022H
	DB	034H
	DB	023H
	DB	0ccH
	DB	019H
	DB	08aH
	DB	019H
	DB	0a2H
	DB	010H
	DB	082H
	DB	010H
	DB	0a3H
	DB	018H
	DB	0a3H
	DB	010H
	DB	0a2H
	DB	018H
	DB	0a3H
	DB	010H
	DB	0a2H
	DB	010H
	DB	0a2H
	DB	018H
	DB	0a3H
	DB	010H
	DB	0a2H
	DB	010H
	DB	0a2H
	DB	018H
	DB	0a3H
	DB	018H
	DB	0a2H
	DB	010H
	DB	0a3H
	DB	018H
	DB	0a3H
	DB	010H
	DB	0a2H
	DB	010H
	DB	0a3H
	DB	018H
	DB	0a2H
	DB	010H
	DB	0a3H
	DB	018H
	DB	0a2H
	DB	010H
	DB	0a3H
	DB	018H
	DB	0a3H
	DB	018H
	DB	0a2H
	DB	010H
	DB	0a3H
	DB	018H
	DB	0a2H
	DB	018H
	DB	0a3H
	DB	010H
	DB	0a2H
	DB	018H
	DB	0a3H
	DB	018H
	DB	0a2H
	DB	010H
	DB	0a3H
	DB	018H
	DB	0a2H
	DB	010H
	DB	082H
	DB	010H
	DB	048H
	DB	019H
	DB	0ccH
	DB	019H
	DB	0b1H
	DB	022H
	DB	0f3H
	DB	022H
	DB	071H
	DB	022H
	DB	050H
	DB	022H
	DB	050H
	DB	022H
	DB	050H
	DB	01aH
	DB	02fH
	DB	022H
	DB	04fH
	DB	022H
	DB	01aH
	DB	0b6H
	DB	0ffH
	DB	0ffH
	DB	017H
	DB	095H
	DB	0fH
	DB	022H
	DB	0eH
	DB	022H
	DB	0eH
	DB	022H
	DB	0eH
	DB	01aH
	DB	0eH
	DB	022H
	DB	0edH
	DB	019H
	DB	0edH
	DB	019H
	DB	0edH
	DB	021H
	DB	07bH
	DB	0c6H
	DB	09bH
	DB	0ceH
	DB	0afH
	DB	03aH
	DB	0fcH
	DB	0deH
	DB	0f3H
	DB	06bH
	DB	014H
	DB	074H
	DB	0eH
	DB	01aH
	DB	0fH
	DB	022H
	DB	02fH
	DB	022H
	DB	050H
	DB	01aH
	DB	050H
	DB	022H
	DB	050H
	DB	022H
	DB	071H
	DB	022H
	DB	0f3H
	DB	022H
	DB	0b0H
	DB	022H
	DB	0ccH
	DB	019H
	DB	048H
	DB	019H
	DB	082H
	DB	010H
	DB	082H
	DB	010H
	DB	0a3H
	DB	010H
	DB	0a2H
	DB	018H
	DB	0a3H
	DB	018H
	DB	0a3H
	DB	010H
	DB	0a2H
	DB	018H
	DB	0a3H
	DB	018H
	DB	0a3H
	DB	010H
	DB	0a2H
	DB	010H
	DB	0a3H
	DB	018H
	DB	0a3H
	DB	010H
	DB	0a2H
	DB	010H
	DB	0a2H
	DB	010H
	DB	0a2H
	DB	010H
	DB	0a2H
	DB	010H
	DB	0a2H
	DB	010H
	DB	0a2H
	DB	010H
	DB	0a2H
	DB	010H
	DB	0a3H
	DB	018H
	DB	0a2H
	DB	010H
	DB	0a2H
	DB	010H
	DB	0a2H
	DB	010H
	DB	0a2H
	DB	010H
	DB	0a3H
	DB	010H
	DB	0a2H
	DB	010H
	DB	0a2H
	DB	010H
	DB	0a2H
	DB	010H
	DB	0a3H
	DB	018H
	DB	0a2H
	DB	010H
	DB	082H
	DB	010H
	DB	082H
	DB	010H
	DB	0a3H
	DB	010H
	DB	0cdH
	DB	019H
	DB	0ccH
	DB	019H
	DB	054H
	DB	02bH
	DB	091H
	DB	022H
	DB	050H
	DB	022H
	DB	050H
	DB	022H
	DB	030H
	DB	022H
	DB	030H
	DB	022H
	DB	0daH
	DB	0adH
	DB	0ffH
	DB	0ffH
	DB	038H
	DB	095H
	DB	02fH
	DB	022H
	DB	02fH
	DB	022H
	DB	02fH
	DB	01aH
	DB	0fH
	DB	022H
	DB	02fH
	DB	022H
	DB	0eH
	DB	01aH
	DB	0eH
	DB	022H
	DB	0eeH
	DB	019H
	DB	0eeH
	DB	019H
	DB	02eH
	DB	02aH
	DB	0f3H
	DB	06bH
	DB	09cH
	DB	0ceH
	DB	054H
	DB	074H
	DB	014H
	DB	06cH
	DB	0eeH
	DB	019H
	DB	0eH
	DB	01aH
	DB	02fH
	DB	022H
	DB	02fH
	DB	022H
	DB	050H
	DB	022H
	DB	050H
	DB	022H
	DB	050H
	DB	022H
	DB	091H
	DB	022H
	DB	054H
	DB	023H
	DB	0cdH
	DB	019H
	DB	0ccH
	DB	019H
	DB	0a3H
	DB	010H
	DB	082H
	DB	010H
	DB	0a2H
	DB	010H
	DB	0a2H
	DB	018H
	DB	0a2H
	DB	010H
	DB	0a2H
	DB	010H
	DB	0a2H
	DB	010H
	DB	0a2H
	DB	010H
	DB	0a2H
	DB	010H
	DB	0a2H
	DB	018H
	DB	0a2H
	DB	010H
	DB	0a2H
	DB	010H
	DB	0a2H
	DB	018H
	DB	0a3H
	DB	018H
	DB	0a2H
	DB	010H
	DB	0a2H
	DB	018H
	DB	0a3H
	DB	018H
	DB	0a2H
	DB	010H
	DB	0a3H
	DB	018H
	DB	0a2H
	DB	010H
	DB	0a2H
	DB	010H
	DB	0a3H
	DB	018H
	DB	0a2H
	DB	010H
	DB	0a3H
	DB	018H
	DB	0a2H
	DB	018H
	DB	0a2H
	DB	010H
	DB	0a3H
	DB	018H
	DB	0a2H
	DB	010H
	DB	0a2H
	DB	010H
	DB	0a3H
	DB	018H
	DB	082H
	DB	010H
	DB	082H
	DB	010H
	DB	082H
	DB	010H
	DB	082H
	DB	010H
	DB	048H
	DB	019H
	DB	0ccH
	DB	019H
	DB	090H
	DB	022H
	DB	013H
	DB	023H
	DB	071H
	DB	022H
	DB	050H
	DB	022H
	DB	050H
	DB	022H
	DB	030H
	DB	022H
	DB	0fdH
	DB	0deH
	DB	058H
	DB	095H
	DB	02fH
	DB	022H
	DB	02fH
	DB	01aH
	DB	02fH
	DB	01aH
	DB	02fH
	DB	022H
	DB	02fH
	DB	022H
	DB	02fH
	DB	01aH
	DB	02fH
	DB	022H
	DB	0fH
	DB	022H
	DB	0fH
	DB	022H
	DB	0eH
	DB	01aH
	DB	0eH
	DB	01aH
	DB	04fH
	DB	02aH
	DB	0bcH
	DB	0d6H
	DB	0f4H
	DB	063H
	DB	0eH
	DB	022H
	DB	0fH
	DB	022H
	DB	02fH
	DB	022H
	DB	02fH
	DB	022H
	DB	050H
	DB	01aH
	DB	050H
	DB	022H
	DB	050H
	DB	022H
	DB	071H
	DB	022H
	DB	013H
	DB	023H
	DB	090H
	DB	022H
	DB	0ccH
	DB	019H
	DB	048H
	DB	019H
	DB	082H
	DB	010H
	DB	082H
	DB	010H
	DB	0a3H
	DB	010H
	DB	082H
	DB	010H
	DB	0a3H
	DB	018H
	DB	0a3H
	DB	010H
	DB	0a2H
	DB	018H
	DB	0a3H
	DB	010H
	DB	0a3H
	DB	010H
	DB	0a2H
	DB	018H
	DB	0a3H
	DB	010H
	DB	0a2H
	DB	010H
	DB	0a2H
	DB	018H
	DB	0a3H
	DB	010H
	DB	0a3H
	DB	010H
	DB	082H
	DB	010H
	DB	082H
	DB	010H
	DB	0a2H
	DB	010H
	DB	083H
	DB	018H
	DB	082H
	DB	010H
	DB	0a2H
	DB	010H
	DB	083H
	DB	018H
	DB	0a2H
	DB	010H
	DB	083H
	DB	010H
	DB	0a2H
	DB	018H
	DB	082H
	DB	010H
	DB	0a3H
	DB	018H
	DB	083H
	DB	018H
	DB	0a2H
	DB	010H
	DB	082H
	DB	010H
	DB	083H
	DB	018H
	DB	0a2H
	DB	010H
	DB	082H
	DB	010H
	DB	082H
	DB	010H
	DB	083H
	DB	010H
	DB	0abH
	DB	019H
	DB	0ccH
	DB	019H
	DB	013H
	DB	023H
	DB	0d2H
	DB	022H
	DB	050H
	DB	022H
	DB	050H
	DB	022H
	DB	04fH
	DB	022H
	DB	04fH
	DB	01aH
	DB	030H
	DB	022H
	DB	02fH
	DB	022H
	DB	02fH
	DB	022H
	DB	030H
	DB	022H
	DB	02fH
	DB	022H
	DB	050H
	DB	022H
	DB	030H
	DB	022H
	DB	02fH
	DB	022H
	DB	02fH
	DB	022H
	DB	02fH
	DB	01aH
	DB	02fH
	DB	022H
	DB	02fH
	DB	022H
	DB	0fH
	DB	01aH
	DB	02fH
	DB	01aH
	DB	0fH
	DB	022H
	DB	02fH
	DB	022H
	DB	02fH
	DB	01aH
	DB	02fH
	DB	022H
	DB	050H
	DB	022H
	DB	050H
	DB	022H
	DB	050H
	DB	022H
	DB	050H
	DB	022H
	DB	0d2H
	DB	022H
	DB	013H
	DB	023H
	DB	0ccH
	DB	019H
	DB	0abH
	DB	019H
	DB	082H
	DB	010H
	DB	082H
	DB	010H
	DB	082H
	DB	010H
	DB	082H
	DB	010H
	DB	082H
	DB	010H
	DB	082H
	DB	010H
	DB	0a3H
	DB	018H
	DB	082H
	DB	010H
	DB	0a2H
	DB	018H
	DB	0a3H
	DB	018H
	DB	082H
	DB	010H
	DB	0a3H
	DB	018H
	DB	0a3H
	DB	010H
	DB	082H
	DB	010H
	DB	082H
	DB	010H
	DB	082H
	DB	010H
	DB	0a2H
	DB	010H
	DB	082H
	DB	010H
	DB	082H
	DB	010H
	DB	082H
	DB	010H
	DB	0a2H
	DB	010H
	DB	082H
	DB	010H
	DB	082H
	DB	010H
	DB	082H
	DB	010H
	DB	0a2H
	DB	010H
	DB	082H
	DB	010H
	DB	082H
	DB	010H
	DB	082H
	DB	010H
	DB	0a2H
	DB	010H
	DB	082H
	DB	010H
	DB	0a2H
	DB	010H
	DB	0a2H
	DB	010H
	DB	082H
	DB	010H
	DB	082H
	DB	010H
	DB	082H
	DB	010H
	DB	082H
	DB	010H
	DB	06H
	DB	011H
	DB	0ccH
	DB	019H
	DB	0edH
	DB	019H
	DB	033H
	DB	023H
	DB	0b1H
	DB	022H
	DB	050H
	DB	022H
	DB	050H
	DB	022H
	DB	050H
	DB	022H
	DB	030H
	DB	022H
	DB	050H
	DB	022H
	DB	050H
	DB	022H
	DB	050H
	DB	022H
	DB	050H
	DB	022H
	DB	050H
	DB	022H
	DB	050H
	DB	022H
	DB	050H
	DB	022H
	DB	050H
	DB	022H
	DB	050H
	DB	022H
	DB	04fH
	DB	022H
	DB	02fH
	DB	022H
	DB	02fH
	DB	022H
	DB	02fH
	DB	022H
	DB	02fH
	DB	022H
	DB	02fH
	DB	022H
	DB	04fH
	DB	01aH
	DB	050H
	DB	022H
	DB	050H
	DB	022H
	DB	050H
	DB	022H
	DB	050H
	DB	022H
	DB	0b2H
	DB	022H
	DB	054H
	DB	023H
	DB	0edH
	DB	019H
	DB	0ccH
	DB	019H
	DB	0e6H
	DB	010H
	DB	082H
	DB	010H
	DB	082H
	DB	010H
	DB	082H
	DB	010H
	DB	0a2H
	DB	010H
	DB	0a3H
	DB	018H
	DB	082H
	DB	010H
	DB	082H
	DB	010H
	DB	0a2H
	DB	010H
	DB	082H
	DB	010H
	DB	082H
	DB	010H
	DB	082H
	DB	010H
	DB	082H
	DB	010H
	DB	0a2H
	DB	010H
	DB	082H
	DB	018H
	DB	0a2H
	DB	018H
	DB	0a2H
	DB	010H
	DB	083H
	DB	018H
	DB	0a2H
	DB	010H
	DB	082H
	DB	010H
	DB	0a2H
	DB	010H
	DB	0a3H
	DB	018H
	DB	0a3H
	DB	018H
	DB	0a2H
	DB	010H
	DB	082H
	DB	010H
	DB	0a3H
	DB	018H
	DB	0a2H
	DB	010H
	DB	0a3H
	DB	010H
	DB	082H
	DB	010H
	DB	0a2H
	DB	010H
	DB	083H
	DB	018H
	DB	082H
	DB	010H
	DB	0a2H
	DB	010H
	DB	083H
	DB	010H
	DB	082H
	DB	010H
	DB	082H
	DB	010H
	DB	082H
	DB	010H
	DB	082H
	DB	010H
	DB	048H
	DB	019H
	DB	0ccH
	DB	019H
	DB	0eH
	DB	01aH
	DB	034H
	DB	023H
	DB	0b1H
	DB	022H
	DB	050H
	DB	022H
	DB	050H
	DB	022H
	DB	050H
	DB	022H
	DB	050H
	DB	022H
	DB	050H
	DB	022H
	DB	050H
	DB	01aH
	DB	050H
	DB	022H
	DB	050H
	DB	022H
	DB	050H
	DB	01aH
	DB	050H
	DB	022H
	DB	050H
	DB	022H
	DB	050H
	DB	022H
	DB	050H
	DB	022H
	DB	050H
	DB	022H
	DB	050H
	DB	022H
	DB	050H
	DB	022H
	DB	050H
	DB	022H
	DB	050H
	DB	022H
	DB	050H
	DB	022H
	DB	050H
	DB	022H
	DB	050H
	DB	022H
	DB	050H
	DB	022H
	DB	0b2H
	DB	022H
	DB	054H
	DB	023H
	DB	0dH
	DB	01aH
	DB	0ccH
	DB	019H
	DB	049H
	DB	019H
	DB	082H
	DB	010H
	DB	082H
	DB	010H
	DB	082H
	DB	010H
	DB	082H
	DB	010H
	DB	082H
	DB	010H
	DB	0a3H
	DB	018H
	DB	0a2H
	DB	010H
	DB	082H
	DB	010H
	DB	0a3H
	DB	010H
	DB	0a2H
	DB	010H
	DB	082H
	DB	010H
	DB	0a2H
	DB	018H
	DB	0a2H
	DB	010H
	DB	082H
	DB	010H
	DB	0a3H
	DB	010H
	DB	082H
	DB	010H
	DB	0a2H
	DB	010H
	DB	082H
	DB	010H
	DB	082H
	DB	010H
	DB	0a2H
	DB	010H
	DB	082H
	DB	010H
	DB	082H
	DB	010H
	DB	0a2H
	DB	010H
	DB	082H
	DB	010H
	DB	0a3H
	DB	018H
	DB	082H
	DB	010H
	DB	082H
	DB	010H
	DB	0a2H
	DB	018H
	DB	0a3H
	DB	010H
	DB	082H
	DB	010H
	DB	0a2H
	DB	018H
	DB	083H
	DB	010H
	DB	082H
	DB	010H
	DB	082H
	DB	018H
	DB	0a2H
	DB	010H
	DB	082H
	DB	010H
	DB	082H
	DB	010H
	DB	082H
	DB	010H
	DB	062H
	DB	010H
	DB	049H
	DB	011H
	DB	0ccH
	DB	019H
	DB	0dH
	DB	01aH
	DB	034H
	DB	02bH
	DB	0d2H
	DB	022H
	DB	070H
	DB	022H
	DB	050H
	DB	022H
	DB	050H
	DB	022H
	DB	050H
	DB	022H
	DB	050H
	DB	022H
	DB	050H
	DB	022H
	DB	050H
	DB	022H
	DB	050H
	DB	022H
	DB	050H
	DB	022H
	DB	050H
	DB	022H
	DB	050H
	DB	022H
	DB	050H
	DB	01aH
	DB	050H
	DB	022H
	DB	050H
	DB	022H
	DB	050H
	DB	022H
	DB	050H
	DB	022H
	DB	050H
	DB	022H
	DB	050H
	DB	022H
	DB	050H
	DB	022H
	DB	071H
	DB	022H
	DB	0d2H
	DB	022H
	DB	054H
	DB	023H
	DB	0eH
	DB	01aH
	DB	0ccH
	DB	019H
	DB	049H
	DB	019H
	DB	082H
	DB	010H
	DB	082H
	DB	010H
	DB	082H
	DB	010H
	DB	082H
	DB	010H
	DB	082H
	DB	010H
	DB	082H
	DB	010H
	DB	082H
	DB	010H
	DB	0a2H
	DB	010H
	DB	082H
	DB	018H
	DB	082H
	DB	018H
	DB	0a3H
	DB	010H
	DB	0a2H
	DB	010H
	DB	083H
	DB	018H
	DB	0a2H
	DB	010H
	DB	082H
	DB	010H
	DB	083H
	DB	018H
	DB	082H
	DB	010H
	DB	082H
	DB	010H
	DB	082H
	DB	010H
	DB	082H
	DB	010H
	DB	082H
	DB	010H
	DB	082H
	DB	010H
	DB	082H
	DB	010H
	DB	082H
	DB	010H
	DB	082H
	DB	010H
	DB	082H
	DB	010H
	DB	082H
	DB	010H
	DB	082H
	DB	010H
	DB	082H
	DB	010H
	DB	082H
	DB	010H
	DB	082H
	DB	010H
	DB	082H
	DB	010H
	DB	0a2H
	DB	010H
	DB	082H
	DB	010H
	DB	082H
	DB	010H
	DB	082H
	DB	010H
	DB	082H
	DB	010H
	DB	082H
	DB	010H
	DB	082H
	DB	010H
	DB	062H
	DB	010H
	DB	062H
	DB	010H
	DB	069H
	DB	019H
	DB	0ccH
	DB	019H
	DB	0edH
	DB	019H
	DB	013H
	DB	023H
	DB	013H
	DB	023H
	DB	091H
	DB	022H
	DB	050H
	DB	022H
	DB	050H
	DB	022H
	DB	051H
	DB	022H
	DB	050H
	DB	022H
	DB	070H
	DB	022H
	DB	071H
	DB	022H
	DB	051H
	DB	022H
	DB	070H
	DB	022H
	DB	051H
	DB	022H
	DB	050H
	DB	022H
	DB	050H
	DB	022H
	DB	050H
	DB	022H
	DB	050H
	DB	022H
	DB	050H
	DB	022H
	DB	050H
	DB	022H
	DB	051H
	DB	022H
	DB	091H
	DB	022H
	DB	013H
	DB	023H
	DB	013H
	DB	023H
	DB	0edH
	DB	019H
	DB	0ccH
	DB	019H
	DB	049H
	DB	019H
	DB	062H
	DB	010H
	DB	082H
	DB	010H
	DB	082H
	DB	010H
	DB	082H
	DB	010H
	DB	082H
	DB	010H
	DB	082H
	DB	010H
	DB	082H
	DB	010H
	DB	082H
	DB	010H
	DB	082H
	DB	010H
	DB	082H
	DB	010H
	DB	082H
	DB	010H
	DB	082H
	DB	010H
	DB	082H
	DB	010H
	DB	082H
	DB	010H
	DB	082H
	DB	010H
	DB	082H
	DB	010H
	DB	082H
	DB	010H
	DB	0a2H
	DB	010H
	DB	082H
	DB	010H
	DB	082H
	DB	010H
	DB	082H
	DB	010H
	DB	082H
	DB	010H
	DB	082H
	DB	010H
	DB	083H
	DB	018H
	DB	082H
	DB	010H
	DB	0a2H
	DB	010H
	DB	082H
	DB	010H
	DB	082H
	DB	010H
	DB	0a2H
	DB	010H
	DB	082H
	DB	010H
	DB	082H
	DB	010H
	DB	082H
	DB	010H
	DB	082H
	DB	010H
	DB	082H
	DB	010H
	DB	0a2H
	DB	010H
	DB	082H
	DB	010H
	DB	082H
	DB	010H
	DB	082H
	DB	010H
	DB	082H
	DB	010H
	DB	082H
	DB	010H
	DB	082H
	DB	010H
	DB	082H
	DB	010H
	DB	062H
	DB	010H
	DB	048H
	DB	011H
	DB	0ccH
	DB	019H
	DB	0ccH
	DB	019H
	DB	070H
	DB	022H
	DB	054H
	DB	023H
	DB	0f3H
	DB	022H
	DB	091H
	DB	022H
	DB	071H
	DB	022H
	DB	071H
	DB	022H
	DB	051H
	DB	022H
	DB	070H
	DB	022H
	DB	071H
	DB	022H
	DB	051H
	DB	022H
	DB	070H
	DB	022H
	DB	071H
	DB	022H
	DB	051H
	DB	022H
	DB	070H
	DB	022H
	DB	071H
	DB	022H
	DB	071H
	DB	022H
	DB	091H
	DB	022H
	DB	0f3H
	DB	022H
	DB	054H
	DB	023H
	DB	090H
	DB	022H
	DB	0ccH
	DB	019H
	DB	0ccH
	DB	019H
	DB	048H
	DB	019H
	DB	062H
	DB	010H
	DB	082H
	DB	010H
	DB	082H
	DB	010H
	DB	082H
	DB	010H
	DB	082H
	DB	010H
	DB	082H
	DB	010H
	DB	082H
	DB	010H
	DB	0a2H
	DB	010H
	DB	082H
	DB	010H
	DB	083H
	DB	010H
	DB	0a2H
	DB	010H
	DB	082H
	DB	010H
	DB	082H
	DB	010H
	DB	082H
	DB	010H
	DB	082H
	DB	010H
	DB	0a2H
	DB	010H
	DB	082H
	DB	010H
	DB	082H
	DB	010H
	DB	0a2H
	DB	010H
	DB	083H
	DB	010H
	DB	082H
	DB	010H
	DB	082H
	DB	010H
	DB	082H
	DB	010H
	DB	082H
	DB	010H
	DB	0a2H
	DB	010H
	DB	082H
	DB	010H
	DB	082H
	DB	010H
	DB	083H
	DB	018H
	DB	082H
	DB	010H
	DB	082H
	DB	010H
	DB	0a3H
	DB	018H
	DB	082H
	DB	010H
	DB	0a2H
	DB	010H
	DB	083H
	DB	018H
	DB	082H
	DB	010H
	DB	082H
	DB	010H
	DB	082H
	DB	010H
	DB	082H
	DB	010H
	DB	082H
	DB	010H
	DB	082H
	DB	010H
	DB	082H
	DB	010H
	DB	082H
	DB	010H
	DB	062H
	DB	010H
	DB	062H
	DB	010H
	DB	062H
	DB	08H
	DB	0e5H
	DB	010H
	DB	08bH
	DB	019H
	DB	0ccH
	DB	019H
	DB	0cdH
	DB	019H
	DB	0b1H
	DB	022H
	DB	054H
	DB	023H
	DB	034H
	DB	023H
	DB	0d2H
	DB	022H
	DB	0b2H
	DB	022H
	DB	091H
	DB	022H
	DB	071H
	DB	022H
	DB	070H
	DB	022H
	DB	071H
	DB	022H
	DB	071H
	DB	022H
	DB	091H
	DB	022H
	DB	0b2H
	DB	022H
	DB	0d3H
	DB	022H
	DB	034H
	DB	023H
	DB	054H
	DB	023H
	DB	0b1H
	DB	022H
	DB	0ccH
	DB	019H
	DB	0ccH
	DB	019H
	DB	08bH
	DB	019H
	DB	0e6H
	DB	010H
	DB	062H
	DB	010H
	DB	082H
	DB	08H
	DB	061H
	DB	010H
	DB	082H
	DB	010H
	DB	082H
	DB	010H
	DB	082H
	DB	010H
	DB	082H
	DB	010H
	DB	082H
	DB	010H
	DB	082H
	DB	010H
	DB	082H
	DB	010H
	DB	0a2H
	DB	010H
	DB	082H
	DB	010H
	DB	082H
	DB	010H
	DB	0a3H
	DB	018H
	DB	082H
	DB	010H
	DB	082H
	DB	010H
	DB	0a3H
	DB	018H
	DB	082H
	DB	010H
	DB	082H
	DB	010H
	DB	082H
	DB	010H
	DB	082H
	DB	010H
	DB	082H
	DB	010H
	DB	082H
	DB	010H
	DB	082H
	DB	010H
	DB	082H
	DB	010H
	DB	082H
	DB	010H
	DB	082H
	DB	010H
	DB	082H
	DB	010H
	DB	082H
	DB	010H
	DB	082H
	DB	010H
	DB	082H
	DB	010H
	DB	082H
	DB	010H
	DB	082H
	DB	010H
	DB	082H
	DB	010H
	DB	082H
	DB	010H
	DB	082H
	DB	010H
	DB	082H
	DB	010H
	DB	082H
	DB	010H
	DB	082H
	DB	010H
	DB	082H
	DB	010H
	DB	082H
	DB	010H
	DB	082H
	DB	010H
	DB	082H
	DB	010H
	DB	061H
	DB	08H
	DB	082H
	DB	010H
	DB	062H
	DB	010H
	DB	062H
	DB	010H
	DB	082H
	DB	010H
	DB	048H
	DB	011H
	DB	0ccH
	DB	019H
	DB	0ccH
	DB	019H
	DB	0ccH
	DB	019H
	DB	02eH
	DB	01aH
	DB	0d1H
	DB	022H
	DB	013H
	DB	023H
	DB	034H
	DB	02bH
	DB	034H
	DB	023H
	DB	034H
	DB	023H
	DB	034H
	DB	02bH
	DB	034H
	DB	023H
	DB	033H
	DB	023H
	DB	033H
	DB	023H
	DB	0d1H
	DB	022H
	DB	02eH
	DB	01aH
	DB	0ccH
	DB	019H
	DB	0ccH
	DB	019H
	DB	0ccH
	DB	019H
	DB	048H
	DB	011H
	DB	062H
	DB	010H
	DB	062H
	DB	010H
	DB	061H
	DB	08H
	DB	082H
	DB	010H
	DB	062H
	DB	08H
	DB	082H
	DB	010H
	DB	062H
	DB	010H
	DB	082H
	DB	010H
	DB	082H
	DB	010H
	DB	082H
	DB	010H
	DB	082H
	DB	010H
	DB	082H
	DB	010H
	DB	082H
	DB	010H
	DB	082H
	DB	010H
	DB	082H
	DB	010H
	DB	082H
	DB	010H
	DB	082H
	DB	010H
	DB	082H
	DB	010H
	DB	082H
	DB	010H
	DB	082H
	DB	010H
	DB	082H
	DB	010H
	DB	082H
	DB	010H
	DB	082H
	DB	010H
	DB	082H
	DB	010H
	DB	082H
	DB	010H
	DB	082H
	DB	010H
	DB	082H
	DB	010H
	DB	082H
	DB	010H
	DB	082H
	DB	010H
	DB	082H
	DB	010H
	DB	082H
	DB	010H
	DB	082H
	DB	010H
	DB	082H
	DB	010H
	DB	082H
	DB	010H
	DB	082H
	DB	010H
	DB	082H
	DB	010H
	DB	082H
	DB	010H
	DB	082H
	DB	010H
	DB	082H
	DB	010H
	DB	082H
	DB	010H
	DB	082H
	DB	010H
	DB	082H
	DB	010H
	DB	082H
	DB	010H
	DB	082H
	DB	010H
	DB	082H
	DB	010H
	DB	082H
	DB	010H
	DB	061H
	DB	010H
	DB	082H
	DB	010H
	DB	061H
	DB	08H
	DB	062H
	DB	010H
	DB	062H
	DB	08H
	DB	083H
	DB	010H
	DB	027H
	DB	011H
	DB	06aH
	DB	019H
	DB	0ccH
	DB	019H
	DB	0ccH
	DB	019H
	DB	0ccH
	DB	019H
	DB	0ccH
	DB	019H
	DB	0ccH
	DB	019H
	DB	0ccH
	DB	019H
	DB	0ccH
	DB	019H
	DB	0ccH
	DB	019H
	DB	0ccH
	DB	019H
	DB	0ccH
	DB	019H
	DB	0ccH
	DB	019H
	DB	0ccH
	DB	019H
	DB	06aH
	DB	019H
	DB	028H
	DB	011H
	DB	083H
	DB	010H
	DB	062H
	DB	08H
	DB	062H
	DB	010H
	DB	061H
	DB	010H
	DB	082H
	DB	010H
	DB	062H
	DB	010H
	DB	082H
	DB	010H
	DB	082H
	DB	010H
	DB	082H
	DB	010H
	DB	082H
	DB	010H
	DB	082H
	DB	010H
	DB	082H
	DB	010H
	DB	082H
	DB	010H
	DB	082H
	DB	010H
	DB	082H
	DB	010H
	DB	082H
	DB	010H
	DB	082H
	DB	010H
	DB	082H
	DB	010H
	DB	082H
	DB	010H
	DB	082H
	DB	010H
	DB	082H
	DB	010H
	DB	082H
	DB	010H
	DB	082H
	DB	010H
	DB	082H
	DB	010H
	DB	082H
	DB	010H
	DB	082H
	DB	010H
	DB	082H
	DB	010H
	DB	082H
	DB	010H
	DB	082H
	DB	010H
	DB	082H
	DB	010H
	DB	082H
	DB	010H
	DB	082H
	DB	010H
	DB	082H
	DB	010H
	DB	082H
	DB	010H
	DB	082H
	DB	010H
	DB	082H
	DB	010H
	DB	082H
	DB	010H
	DB	082H
	DB	010H
	DB	082H
	DB	010H
	DB	082H
	DB	010H
	DB	082H
	DB	010H
	DB	082H
	DB	010H
	DB	082H
	DB	010H
	DB	082H
	DB	010H
	DB	082H
	DB	010H
	DB	082H
	DB	010H
	DB	082H
	DB	010H
	DB	082H
	DB	010H
	DB	062H
	DB	010H
	DB	082H
	DB	08H
	DB	061H
	DB	08H
	DB	061H
	DB	010H
	DB	062H
	DB	010H
	DB	061H
	DB	08H
	DB	062H
	DB	010H
	DB	061H
	DB	08H
	DB	0a4H
	DB	010H
	DB	06H
	DB	011H
	DB	049H
	DB	011H
	DB	08aH
	DB	019H
	DB	0acH
	DB	019H
	DB	0ccH
	DB	019H
	DB	0ccH
	DB	019H
	DB	0acH
	DB	019H
	DB	08bH
	DB	019H
	DB	049H
	DB	019H
	DB	0e6H
	DB	010H
	DB	0a3H
	DB	010H
	DB	062H
	DB	08H
	DB	061H
	DB	010H
	DB	061H
	DB	010H
	DB	062H
	DB	08H
	DB	062H
	DB	010H
	DB	081H
	DB	08H
	DB	082H
	DB	010H
	DB	062H
	DB	010H
	DB	081H
	DB	010H
	DB	082H
	DB	010H
	DB	082H
	DB	010H
	DB	082H
	DB	010H
	DB	082H
	DB	010H
	DB	082H
	DB	010H
	DB	082H
	DB	010H
	DB	082H
	DB	010H
	DB	082H
	DB	010H
	DB	082H
	DB	010H
	DB	082H
	DB	010H
	DB	082H
	DB	010H
	DB	082H
	DB	010H
	DB	082H
	DB	010H
	DB	082H
	DB	010H
	DB	082H
	DB	010H
	DB	082H
	DB	010H
	DB	082H
	DB	010H
	DB	082H
	DB	010H
	DB	082H
	DB	010H
	DB	082H
	DB	010H
	DB	082H
	DB	010H
	DB	082H
	DB	010H
	DB	082H
	DB	010H
	DB	082H
	DB	010H
	DB	082H
	DB	010H
	DB	082H
	DB	010H
	DB	082H
	DB	010H
	DB	082H
	DB	010H
	DB	082H
	DB	010H
	DB	082H
	DB	010H
	DB	082H
	DB	010H
	DB	082H
	DB	010H
	DB	082H
	DB	010H
	DB	082H
	DB	010H
	DB	082H
	DB	010H
	DB	082H
	DB	010H
	DB	082H
	DB	010H
	DB	082H
	DB	010H
	DB	062H
	DB	010H
	DB	082H
	DB	010H
	DB	082H
	DB	010H
	DB	062H
	DB	010H
	DB	082H
	DB	010H
	DB	082H
	DB	010H
	DB	062H
	DB	010H
	DB	062H
	DB	08H
	DB	062H
	DB	010H
	DB	061H
	DB	08H
	DB	062H
	DB	010H
	DB	062H
	DB	010H
	DB	061H
	DB	08H
	DB	061H
	DB	08H
	DB	062H
	DB	010H
	DB	061H
	DB	08H
	DB	062H
	DB	08H
	DB	062H
	DB	08H
	DB	061H
	DB	08H
	DB	061H
	DB	08H
	DB	062H
	DB	08H
	DB	061H
	DB	08H
	DB	062H
	DB	010H
	DB	062H
	DB	08H
	DB	061H
	DB	08H
	DB	062H
	DB	010H
	DB	062H
	DB	010H
	DB	061H
	DB	08H
	DB	082H
	DB	010H
	DB	062H
	DB	010H
	DB	062H
	DB	08H
	DB	082H
	DB	010H
	DB	082H
	DB	010H
	DB	062H
	DB	08H
	DB	082H
	DB	010H
	DB	082H
	DB	010H
	DB	082H
	DB	010H
	DB	082H
	DB	010H
	DB	082H
	DB	010H
	DB	082H
	DB	010H
	DB	082H
	DB	010H
	DB	082H
	DB	010H
	DB	082H
	DB	010H
	DB	082H
	DB	010H
	DB	082H
	DB	010H
	DB	082H
	DB	010H
	DB	082H
	DB	010H
	DB	082H
	DB	010H
	DB	082H
	DB	010H
	DB	082H
	DB	010H
	DB	082H
	DB	010H
	DB	082H
	DB	010H
	DB	082H
	DB	010H
	DB	082H
	DB	010H
	DB	082H
	DB	010H
	DB	082H
	DB	010H
	DB	082H
	DB	010H
	DB	082H
	DB	010H
	DB	082H
	DB	010H
	DB	082H
	DB	010H
	DB	082H
	DB	010H
	DB	082H
	DB	010H
	DB	082H
	DB	010H
	DB	082H
	DB	010H
	DB	082H
	DB	010H
	DB	082H
	DB	010H
	DB	082H
	DB	010H
	DB	082H
	DB	010H
	DB	082H
	DB	010H
	DB	062H
	DB	010H
	DB	082H
	DB	010H
	DB	082H
	DB	010H
	DB	062H
	DB	010H
	DB	061H
	DB	08H
	DB	082H
	DB	010H
	DB	062H
	DB	010H
	DB	081H
	DB	010H
	DB	062H
	DB	08H
	DB	061H
	DB	010H
	DB	062H
	DB	010H
	DB	061H
	DB	08H
	DB	061H
	DB	010H
	DB	062H
	DB	010H
	DB	062H
	DB	08H
	DB	061H
	DB	010H
	DB	062H
	DB	010H
	DB	061H
	DB	08H
	DB	061H
	DB	010H
	DB	062H
	DB	010H
	DB	061H
	DB	010H
	DB	062H
	DB	010H
	DB	061H
	DB	08H
	DB	061H
	DB	010H
	DB	062H
	DB	010H
	DB	062H
	DB	010H
	DB	061H
	DB	08H
	DB	082H
	DB	010H
	DB	082H
	DB	010H
	DB	062H
	DB	010H
	DB	081H
	DB	010H
	DB	082H
	DB	08H
	DB	082H
	DB	010H
	DB	082H
	DB	010H
	DB	061H
	DB	010H
	DB	082H
	DB	010H
	DB	062H
	DB	010H
	DB	082H
	DB	010H
	DB	082H
	DB	010H
	DB	062H
	DB	010H
	DB	082H
	DB	010H
	DB	082H
	DB	010H
	DB	082H
	DB	010H
	DB	082H
	DB	010H
	DB	082H
	DB	010H
	DB	082H
	DB	010H
	DB	082H
	DB	010H
	DB	082H
	DB	010H
	DB	082H
	DB	010H
	DB	062H
	DB	010H
	DB	082H
	DB	010H
	DB	062H
	DB	010H
	DB	062H
	DB	010H
	DB	082H
	DB	010H
	DB	062H
	DB	010H
	DB	082H
	DB	010H
	DB	062H
	DB	010H
	DB	082H
	DB	010H
	DB	082H
	DB	010H
	DB	062H
	DB	010H
	DB	082H
	DB	010H
	DB	082H
	DB	010H
	DB	062H
	DB	010H
	DB	082H
	DB	010H
	DB	082H
	DB	010H
	DB	062H
	DB	010H
	DB	082H
	DB	010H
	DB	082H
	DB	010H
	DB	062H
	DB	010H
	DB	082H
	DB	010H
	DB	082H
	DB	010H
	DB	082H
	DB	010H
	DB	082H
	DB	010H
	DB	061H
	DB	08H
	DB	082H
	DB	010H
	DB	062H
	DB	010H
	DB	081H
	DB	08H
	DB	082H
	DB	010H
	DB	082H
	DB	010H
	DB	061H
	DB	08H
	DB	062H
	DB	010H
	DB	062H
	DB	08H
	DB	062H
	DB	010H
	DB	061H
	DB	08H
	DB	061H
	DB	08H
	DB	062H
	DB	010H
	DB	062H
	DB	08H
	DB	061H
	DB	010H
	DB	062H
	DB	010H
	DB	062H
	DB	08H
	DB	061H
	DB	08H
	DB	062H
	DB	010H
	DB	062H
	DB	08H
	DB	061H
	DB	010H
	DB	062H
	DB	010H
	DB	062H
	DB	08H
	DB	061H
	DB	010H
	DB	082H
	DB	010H
	DB	082H
	DB	08H
	DB	061H
	DB	010H
	DB	062H
	DB	010H
	DB	062H
	DB	010H
	DB	061H
	DB	010H
	DB	082H
	DB	010H
	DB	082H
	DB	010H
	DB	082H
	DB	010H
	DB	082H
	DB	010H
	DB	062H
	DB	010H
	DB	082H
	DB	010H
	DB	082H
	DB	010H
	DB	062H
	DB	010H
	DB	082H
	DB	010H
	DB	082H
	DB	010H
	DB	062H
	DB	010H
	DB	082H
	DB	010H
	DB	062H
	DB	010H
	DB	082H
	DB	010H
	DB	082H
	DB	010H
	DB	062H
	DB	010H
	DB	062H
	DB	010H
	DB	082H
	DB	010H
	DB	062H
	DB	010H
	DB	062H
	DB	010H
	DB	062H
	DB	010H
	DB	062H
	DB	010H
	DB	061H
	DB	08H
	DB	062H
	DB	010H
	DB	062H
	DB	010H
	DB	062H
	DB	010H
	DB	062H
	DB	010H
	DB	062H
	DB	010H
	DB	062H
	DB	010H
	DB	062H
	DB	010H
	DB	062H
	DB	010H
	DB	062H
	DB	010H
	DB	062H
	DB	010H
	DB	062H
	DB	010H
	DB	062H
	DB	010H
	DB	062H
	DB	010H
	DB	061H
	DB	010H
	DB	062H
	DB	08H
	DB	062H
	DB	010H
	DB	061H
	DB	010H
	DB	082H
	DB	010H
	DB	062H
	DB	010H
	DB	062H
	DB	010H
	DB	082H
	DB	08H
	DB	062H
	DB	010H
	DB	082H
	DB	010H
	DB	061H
	DB	010H
	DB	062H
	DB	08H
	DB	082H
	DB	010H
	DB	061H
	DB	010H
	DB	062H
	DB	010H
	DB	062H
	DB	010H
	DB	062H
	DB	010H
	DB	061H
	DB	08H
	DB	061H
	DB	08H
	DB	062H
	DB	010H
	DB	061H
	DB	08H
	DB	062H
	DB	010H
	DB	062H
	DB	010H
	DB	062H
	DB	08H
	DB	061H
	DB	010H
	DB	062H
	DB	08H
	DB	062H
	DB	010H
	DB	061H
	DB	010H
	DB	082H
	DB	010H
	DB	062H
	DB	08H
	DB	082H
	DB	010H
	DB	082H
	DB	010H
	DB	062H
	DB	08H
	DB	081H
	DB	010H
	DB	062H
	DB	08H
	DB	062H
	DB	08H
	DB	061H
	DB	010H
	DB	062H
	DB	08H
	DB	061H
	DB	08H
	DB	082H
	DB	010H
	DB	062H
	DB	010H
	DB	061H
	DB	08H
	DB	062H
	DB	010H
	DB	062H
	DB	010H
	DB	062H
	DB	010H
	DB	062H
	DB	010H
	DB	062H
	DB	010H
	DB	062H
	DB	010H
	DB	082H
	DB	010H
	DB	061H
	DB	010H
	DB	082H
	DB	08H
	DB	082H
	DB	010H
	DB	081H
	DB	010H
	DB	062H
	DB	08H
	DB	082H
	DB	010H
	DB	082H
	DB	010H
	DB	082H
	DB	010H
	DB	081H
	DB	08H
	DB	082H
	DB	010H
	DB	081H
	DB	08H
	DB	081H
	DB	08H
	DB	082H
	DB	010H
	DB	081H
	DB	08H
	DB	081H
	DB	010H
	DB	082H
	DB	08H
	DB	081H
	DB	010H
	DB	082H
	DB	08H
	DB	081H
	DB	010H
	DB	082H
	DB	08H
	DB	082H
	DB	010H
	DB	081H
	DB	010H
	DB	062H
	DB	08H
	DB	082H
	DB	010H
	DB	082H
	DB	010H
	DB	062H
	DB	08H
	DB	081H
	DB	010H
	DB	082H
	DB	010H
	DB	062H
	DB	010H
	DB	061H
	DB	010H
	DB	082H
	DB	010H
	DB	082H
	DB	010H
	DB	061H
	DB	08H
	DB	062H
	DB	010H
	DB	061H
	DB	08H
	DB	062H
	DB	08H
	DB	062H
	DB	010H
	DB	061H
	DB	010H
	DB	062H
	DB	010H
	DB	062H
	DB	010H
	DB	061H
	DB	08H
	DB	062H
	DB	010H
	DB	061H
	DB	010H
	DB	061H
	DB	08H
	DB	062H
	DB	010H
	DB	082H
	DB	010H
	DB	061H
	DB	08H
	DB	062H
	DB	08H
	DB	082H
	DB	010H
	DB	081H
	DB	010H
	DB	062H
	DB	010H
	DB	062H
	DB	010H
	DB	081H
	DB	08H
	DB	082H
	DB	010H
	DB	062H
	DB	010H
	DB	082H
	DB	010H
	DB	082H
	DB	010H
	DB	082H
	DB	010H
	DB	061H
	DB	010H
	DB	082H
	DB	010H
	DB	082H
	DB	010H
	DB	061H
	DB	08H
	DB	082H
	DB	010H
	DB	082H
	DB	010H
	DB	081H
	DB	08H
	DB	082H
	DB	010H
	DB	081H
	DB	08H
	DB	082H
	DB	010H
	DB	062H
	DB	08H
	DB	081H
	DB	010H
	DB	062H
	DB	010H
	DB	062H
	DB	08H
	DB	081H
	DB	010H
	DB	062H
	DB	010H
	DB	082H
	DB	010H
	DB	062H
	DB	010H
	DB	061H
	DB	08H
	DB	082H
	DB	010H
	DB	062H
	DB	010H
	DB	062H
	DB	010H
	DB	082H
	DB	010H
	DB	062H
	DB	010H
	DB	062H
	DB	010H
	DB	082H
	DB	010H
	DB	062H
	DB	08H
	DB	062H
	DB	010H
	DB	082H
	DB	010H
	DB	061H
	DB	010H
	DB	062H
	DB	08H
	DB	062H
	DB	010H
	DB	082H
	DB	010H
	DB	062H
	DB	010H
	DB	081H
	DB	010H
	DB	082H
	DB	08H
	DB	062H
	DB	010H
	DB	061H
	DB	010H
	DB	082H
	DB	08H
	DB	082H
	DB	010H
	DB	061H
	DB	08H
	DB	062H
	DB	010H
	DB	082H
	DB	010H
	DB	061H
	DB	08H
	DB	062H
	DB	010H
	DB	062H
	DB	010H
	DB	081H
	DB	010H
	DB	082H
	DB	08H
	DB	061H
	DB	08H
	DB	062H
	DB	010H
	DB	062H
	DB	08H
	DB	061H
	DB	010H
	DB	062H
	DB	010H
	DB	062H
	DB	08H
	DB	062H
	DB	010H
	DB	061H
	DB	010H
	DB	082H
	DB	08H
	DB	062H
	DB	010H
	DB	061H
	DB	010H
	DB	062H
	DB	08H
	DB	062H
	DB	010H
	DB	082H
	DB	010H
	DB	061H
	DB	08H
	DB	062H
	DB	010H
	DB	082H
	DB	010H
	DB	061H
	DB	010H
	DB	062H
	DB	010H
	DB	081H
	DB	08H
	DB	062H
	DB	010H
	DB	082H
	DB	010H
	DB	082H
	DB	010H
	DB	062H
	DB	010H
	DB	062H
	DB	08H
	DB	082H
	DB	010H
	DB	062H
	DB	010H
	DB	082H
	DB	010H
	DB	062H
	DB	010H
	DB	061H
	DB	010H
	DB	082H
	DB	010H
	DB	062H
	DB	08H
	DB	081H
	DB	010H
	DB	082H
	DB	010H
	DB	062H
	DB	010H
	DB	082H
	DB	010H
	DB	061H
	DB	08H
	DB	062H
	DB	08H
	DB	061H
	DB	010H
	DB	062H
	DB	010H
	DB	082H
	DB	010H
	DB	061H
	DB	08H
	DB	062H
	DB	010H
	DB	082H
	DB	010H
	DB	062H
	DB	010H
	DB	062H
	DB	08H
	DB	081H
	DB	010H
	DB	062H
	DB	010H
	DB	062H
	DB	010H
	DB	082H
	DB	010H
	DB	062H
	DB	010H
	DB	062H
	DB	010H
	DB	082H
	DB	010H
	DB	061H
	DB	010H
	DB	062H
	DB	08H
	DB	082H
	DB	010H
	DB	062H
	DB	010H
	DB	061H
	DB	010H
	DB	082H
	DB	010H
	DB	062H
	DB	010H
	DB	062H
	DB	010H
	DB	061H
	DB	08H
	DB	062H
	DB	08H
	DB	062H
	DB	010H
	DB	061H
	DB	08H
	DB	062H
	DB	08H
	DB	062H
	DB	010H
	DB	081H
	DB	010H
	DB	062H
	DB	08H
	DB	062H
	DB	010H
	DB	081H
	DB	010H
	DB	062H
	DB	08H
	DB	081H
	DB	010H
	DB	062H
	DB	08H
	DB	082H
	DB	010H
	DB	061H
	DB	08H
	DB	062H
	DB	010H
	DB	082H
	DB	010H
	DB	061H
	DB	08H
	DB	062H
	DB	010H
	DB	081H
	DB	010H
	DB	061H
	DB	010H
	DB	062H
	DB	08H
	DB	061H
	DB	08H
	DB	062H
	DB	010H
	DB	062H
	DB	08H
	DB	061H
	DB	08H
	DB	082H
	DB	010H
	DB	082H
	DB	010H
	DB	062H
	DB	08H
	DB	061H
	DB	010H
	DB	062H
	DB	08H
	DB	081H
	DB	010H
	DB	062H
	DB	010H
	DB	081H
	DB	010H
	DB	062H
	DB	010H
	DB	081H
	DB	08H
	DB	062H
	DB	010H
	DB	062H
	DB	010H
	DB	082H
	DB	08H
	DB	062H
	DB	010H
	DB	062H
	DB	010H
	DB	082H
	DB	010H
	DB	062H
	DB	08H
	DB	061H
	DB	08H
	DB	061H
	DB	010H
	DB	062H
	DB	010H
	DB	062H
	DB	08H
	DB	062H
	DB	010H
	DB	061H
	DB	08H
	DB	062H
	DB	010H
	DB	062H
	DB	010H
	DB	061H
	DB	08H
	DB	061H
	DB	08H
	DB	061H
	DB	010H
	DB	061H
	DB	08H
	DB	062H
	DB	08H
	DB	061H
	DB	010H
	DB	061H
	DB	08H
	DB	061H
	DB	08H
	DB	061H
	DB	08H
	DB	062H
	DB	08H
	DB	081H
	DB	010H
	DB	061H
	DB	08H
	DB	062H
	DB	08H
	DB	061H
	DB	010H
	DB	062H
	DB	08H
	DB	061H
	DB	08H
	DB	062H
	DB	08H
	DB	082H
	DB	010H
	DB	061H
	DB	08H
	DB	062H
	DB	010H
	DB	081H
	DB	010H
	DB	062H
	DB	010H
	DB	061H
	DB	010H
	DB	082H
	DB	08H
	DB	062H
	DB	010H
	DB	061H
	DB	08H
	DB	062H
	DB	010H
	DB	062H
	DB	010H
	DB	061H
	DB	010H
	DB	062H
	DB	010H
	DB	062H
	DB	08H
	DB	081H
	DB	010H
	DB	062H
	DB	010H
	DB	061H
	DB	08H
	DB	082H
	DB	010H
	DB	062H
	DB	08H
	DB	061H
	DB	010H
	DB	062H
	DB	08H
	DB	082H
	DB	010H
	DB	062H
	DB	010H
	DB	061H
	DB	08H
	DB	082H
	DB	010H
	DB	082H
	DB	010H
	DB	061H
	DB	010H
	DB	062H
	DB	08H
	DB	062H
	DB	010H
	DB	061H
	DB	08H
	DB	062H
	DB	010H
	DB	062H
	DB	010H
	DB	061H
	DB	08H
	DB	062H
	DB	08H
	DB	061H
	DB	08H
	DB	062H
	DB	010H
	DB	061H
	DB	08H
	DB	062H
	DB	08H
	DB	061H
	DB	010H
	DB	061H
	DB	08H
	DB	061H
	DB	08H
	DB	061H
	DB	010H
	DB	061H
	DB	010H
	DB	062H
	DB	08H
	DB	061H
	DB	010H
	DB	062H
	DB	010H
	DB	082H
	DB	08H
	DB	061H
	DB	010H
	DB	062H
	DB	010H
	DB	061H
	DB	08H
	DB	062H
	DB	010H
	DB	061H
	DB	08H
	DB	082H
	DB	010H
	DB	062H
	DB	010H
	DB	082H
	DB	08H
	DB	062H
	DB	010H
	DB	082H
	DB	010H
	DB	062H
	DB	010H
	DB	082H
	DB	010H
	DB	062H
	DB	010H
	DB	082H
	DB	010H
	DB	061H
	DB	010H
	DB	062H
	DB	010H
	DB	062H
	DB	08H
	DB	082H
	DB	010H
	DB	061H
	DB	010H
	DB	062H
	DB	010H
	DB	082H
	DB	010H
	DB	061H
	DB	08H
	DB	062H
	DB	010H
	DB	061H
	DB	010H
	DB	062H
	DB	08H
	DB	082H
	DB	010H
	DB	061H
	DB	010H
	DB	062H
	DB	08H
	DB	082H
	DB	010H
	DB	061H
	DB	010H
	DB	062H
	DB	08H
	DB	061H
	DB	010H
	DB	082H
	DB	08H
	DB	061H
	DB	08H
	DB	062H
	DB	010H
	DB	082H
	DB	08H
	DB	061H
	DB	010H
	DB	062H
	DB	010H
	DB	062H
	DB	08H
	DB	061H
	DB	010H
	DB	062H
	DB	010H
	DB	061H
	DB	010H
	DB	062H
	DB	08H
	DB	061H
	DB	010H
	DB	062H
	DB	08H
	DB	062H
	DB	010H
	DB	061H
	DB	010H
	DB	062H
	DB	08H
	DB	061H
	DB	010H
	DB	081H
	DB	010H
	DB	062H
	DB	010H
	DB	061H
	DB	08H
	DB	081H
	DB	010H
	DB	062H
	DB	010H
	DB	082H
	DB	010H
	DB	061H
	DB	010H
	DB	062H
	DB	010H
	DB	082H
	DB	010H
	DB	062H
	DB	08H
	DB	062H
	DB	010H
	DB	082H
	DB	010H
	DB	062H
	DB	010H
	DB	082H
	DB	010H
	DB	062H
	DB	010H
	DB	082H
	DB	08H
	DB	062H
	DB	010H
	DB	061H
	DB	08H
	DB	082H
	DB	010H
	DB	062H
	DB	010H
	DB	062H
	DB	08H
	DB	081H
	DB	010H
	DB	062H
	DB	010H
	DB	061H
	DB	08H
	DB	062H
	DB	010H
	DB	061H
	DB	08H
	DB	061H
	DB	010H
	DB	082H
	DB	010H
	DB	062H
	DB	08H
	DB	061H
	DB	010H
	DB	061H
	DB	010H
	DB	082H
	DB	08H
	DB	061H
	DB	08H
	DB	062H
	DB	010H
	DB	062H
	DB	08H
	DB	082H
	DB	010H
	DB	061H
	DB	010H
	DB	062H
	DB	08H
	DB	062H
	DB	010H
	DB	081H
	DB	010H
	DB	062H
	DB	08H
	DB	062H
	DB	010H
	DB	081H
	DB	010H
	DB	062H
	DB	010H
	DB	062H
	DB	08H
	DB	081H
	DB	010H
	DB	062H
	DB	08H
	DB	062H
	DB	08H
	DB	061H
	DB	010H
	DB	062H
	DB	08H
	DB	062H
	DB	010H
	DB	081H
	DB	010H
	DB	062H
	DB	010H
	DB	062H
	DB	010H
	DB	081H
	DB	08H
	DB	062H
	DB	010H
	DB	062H
	DB	010H
	DB	081H
	DB	08H
	DB	062H
	DB	010H
	DB	062H
	DB	08H
	DB	081H
	DB	010H
	DB	062H
	DB	08H
	DB	082H
	DB	010H
	DB	081H
	DB	010H
	DB	062H
	DB	08H
	DB	081H
	DB	010H
	DB	082H
	DB	08H
	DB	062H
	DB	010H
	DB	061H
	DB	08H
	DB	062H
	DB	08H
	DB	062H
	DB	010H
	DB	082H
	DB	010H
	DB	062H
	DB	08H
	DB	062H
	DB	010H
	DB	061H
	DB	08H
	DB	062H
	DB	08H
	DB	082H
	DB	010H
	DB	061H
	DB	010H
	DB	061H
	DB	08H
	DB	082H
	DB	010H
	DB	061H
	DB	010H
	DB	061H
	DB	08H
	DB	062H
	DB	08H
	DB	061H
	DB	010H
	DB	082H
	DB	010H
	DB	062H
	DB	08H
	DB	061H
	DB	010H
	DB	082H
	DB	010H
	DB	061H
	DB	08H
	DB	062H
	DB	010H
	DB	061H
	DB	08H
	DB	061H
	DB	08H
	DB	062H
	DB	010H
	DB	062H
	DB	08H
CONST	ENDS
END
