; Listing generated by Microsoft (R) Optimizing Compiler Version 19.27.29112.0 

	TITLE	D:\hackTuesProject\project\TouchGFX\generated\images\src\__designer\image_Dark_Togglebars_Toggle_large_button_Off.cpp
	.686P
	.XMM
	include listing.inc
	.model	flat

INCLUDELIB MSVCRTD
INCLUDELIB OLDNAMES

PUBLIC	?image_dark_togglebars_toggle_large_button_off@@3QBEB ; image_dark_togglebars_toggle_large_button_off
CONST	SEGMENT
?image_dark_togglebars_toggle_large_button_off@@3QBEB DB 0a6H ; image_dark_togglebars_toggle_large_button_off
	DB	031H
	DB	0a7H
	DB	039H
	DB	0a7H
	DB	039H
	DB	0a6H
	DB	031H
	DB	0a7H
	DB	039H
	DB	0a7H
	DB	039H
	DB	0a6H
	DB	031H
	DB	0a7H
	DB	039H
	DB	0a7H
	DB	039H
	DB	0a6H
	DB	031H
	DB	0a7H
	DB	039H
	DB	0a7H
	DB	039H
	DB	0a6H
	DB	031H
	DB	0a7H
	DB	039H
	DB	0a7H
	DB	039H
	DB	0a6H
	DB	031H
	DB	0a7H
	DB	039H
	DB	0a7H
	DB	039H
	DB	0a6H
	DB	031H
	DB	0a7H
	DB	039H
	DB	0a7H
	DB	039H
	DB	0a6H
	DB	031H
	DB	0a7H
	DB	039H
	DB	0a7H
	DB	039H
	DB	0a6H
	DB	031H
	DB	0a7H
	DB	039H
	DB	0a7H
	DB	039H
	DB	0a6H
	DB	031H
	DB	0a7H
	DB	039H
	DB	0a7H
	DB	039H
	DB	0a6H
	DB	031H
	DB	0a7H
	DB	039H
	DB	0a7H
	DB	039H
	DB	0a6H
	DB	031H
	DB	0a7H
	DB	039H
	DB	0a7H
	DB	039H
	DB	0a6H
	DB	031H
	DB	0a7H
	DB	039H
	DB	0a7H
	DB	039H
	DB	0a6H
	DB	031H
	DB	0a7H
	DB	039H
	DB	0a7H
	DB	039H
	DB	0a6H
	DB	031H
	DB	0a7H
	DB	039H
	DB	0a7H
	DB	039H
	DB	0a6H
	DB	031H
	DB	0a7H
	DB	039H
	DB	0a7H
	DB	039H
	DB	0a6H
	DB	031H
	DB	0a7H
	DB	039H
	DB	0a7H
	DB	039H
	DB	0a6H
	DB	031H
	DB	0a7H
	DB	039H
	DB	0a7H
	DB	039H
	DB	0a6H
	DB	031H
	DB	0a7H
	DB	039H
	DB	0a7H
	DB	039H
	DB	0a6H
	DB	031H
	DB	0a7H
	DB	039H
	DB	0a7H
	DB	039H
	DB	0a6H
	DB	031H
	DB	0a7H
	DB	039H
	DB	0a7H
	DB	039H
	DB	0a6H
	DB	031H
	DB	0a7H
	DB	039H
	DB	0a7H
	DB	039H
	DB	0a6H
	DB	031H
	DB	0a7H
	DB	039H
	DB	0a7H
	DB	039H
	DB	0a6H
	DB	031H
	DB	0a7H
	DB	039H
	DB	0a7H
	DB	039H
	DB	0a6H
	DB	031H
	DB	0a7H
	DB	039H
	DB	0a7H
	DB	039H
	DB	0a6H
	DB	031H
	DB	0a7H
	DB	039H
	DB	0a7H
	DB	039H
	DB	0a6H
	DB	031H
	DB	0a7H
	DB	039H
	DB	0a7H
	DB	039H
	DB	0a6H
	DB	031H
	DB	0a7H
	DB	039H
	DB	0a7H
	DB	039H
	DB	0a6H
	DB	031H
	DB	0a7H
	DB	039H
	DB	0a7H
	DB	039H
	DB	0a6H
	DB	031H
	DB	0a7H
	DB	039H
	DB	0a7H
	DB	039H
	DB	0a6H
	DB	031H
	DB	0a7H
	DB	039H
	DB	0a7H
	DB	039H
	DB	0a6H
	DB	031H
	DB	0a7H
	DB	039H
	DB	0a7H
	DB	039H
	DB	0a6H
	DB	031H
	DB	0a7H
	DB	039H
	DB	0a7H
	DB	039H
	DB	0a6H
	DB	031H
	DB	0a7H
	DB	039H
	DB	0a7H
	DB	039H
	DB	0a6H
	DB	031H
	DB	0a7H
	DB	039H
	DB	0a7H
	DB	039H
	DB	0a6H
	DB	031H
	DB	0a7H
	DB	039H
	DB	0a7H
	DB	039H
	DB	0a6H
	DB	031H
	DB	0a7H
	DB	039H
	DB	0a7H
	DB	039H
	DB	0a6H
	DB	031H
	DB	0a7H
	DB	039H
	DB	0a7H
	DB	039H
	DB	0a6H
	DB	031H
	DB	0a7H
	DB	039H
	DB	0a7H
	DB	039H
	DB	0a6H
	DB	031H
	DB	0a7H
	DB	039H
	DB	0a7H
	DB	039H
	DB	0a6H
	DB	031H
	DB	0a7H
	DB	039H
	DB	0a7H
	DB	039H
	DB	0a6H
	DB	031H
	DB	0a7H
	DB	039H
	DB	0a7H
	DB	039H
	DB	0a6H
	DB	031H
	DB	0a6H
	DB	031H
	DB	0a7H
	DB	039H
	DB	0c7H
	DB	039H
	DB	0c7H
	DB	039H
	DB	0e7H
	DB	039H
	DB	0c7H
	DB	039H
	DB	0c7H
	DB	039H
	DB	0c7H
	DB	039H
	DB	0c7H
	DB	039H
	DB	0c7H
	DB	039H
	DB	0c7H
	DB	039H
	DB	0c7H
	DB	039H
	DB	0c7H
	DB	039H
	DB	0c7H
	DB	039H
	DB	0c7H
	DB	039H
	DB	0c7H
	DB	039H
	DB	0c7H
	DB	039H
	DB	0c7H
	DB	039H
	DB	0c7H
	DB	039H
	DB	0c7H
	DB	039H
	DB	0c7H
	DB	039H
	DB	0c7H
	DB	039H
	DB	0c7H
	DB	039H
	DB	0c7H
	DB	039H
	DB	0c7H
	DB	039H
	DB	0c7H
	DB	039H
	DB	0c7H
	DB	039H
	DB	0c7H
	DB	039H
	DB	0c7H
	DB	039H
	DB	0c7H
	DB	039H
	DB	0c7H
	DB	039H
	DB	0c7H
	DB	039H
	DB	0c7H
	DB	039H
	DB	0c7H
	DB	039H
	DB	0c7H
	DB	039H
	DB	0c7H
	DB	039H
	DB	0c7H
	DB	039H
	DB	0c7H
	DB	039H
	DB	0c7H
	DB	039H
	DB	0c7H
	DB	039H
	DB	0c7H
	DB	039H
	DB	0c7H
	DB	039H
	DB	0c7H
	DB	039H
	DB	0c7H
	DB	039H
	DB	0c7H
	DB	039H
	DB	0c7H
	DB	039H
	DB	0c7H
	DB	039H
	DB	0c7H
	DB	039H
	DB	0c7H
	DB	039H
	DB	0c7H
	DB	039H
	DB	0c7H
	DB	039H
	DB	0c7H
	DB	039H
	DB	0c7H
	DB	039H
	DB	0c7H
	DB	039H
	DB	0c7H
	DB	039H
	DB	0c7H
	DB	039H
	DB	0c7H
	DB	039H
	DB	0c7H
	DB	039H
	DB	0c7H
	DB	039H
	DB	0c7H
	DB	039H
	DB	0c7H
	DB	039H
	DB	0c7H
	DB	039H
	DB	0c7H
	DB	039H
	DB	0c7H
	DB	039H
	DB	0c7H
	DB	039H
	DB	0c7H
	DB	039H
	DB	0c7H
	DB	039H
	DB	0c7H
	DB	039H
	DB	0c7H
	DB	039H
	DB	0c7H
	DB	039H
	DB	0c7H
	DB	039H
	DB	0c7H
	DB	039H
	DB	0c7H
	DB	039H
	DB	0c7H
	DB	039H
	DB	0c7H
	DB	039H
	DB	0c7H
	DB	039H
	DB	0c7H
	DB	039H
	DB	0c7H
	DB	039H
	DB	0c7H
	DB	039H
	DB	0c7H
	DB	039H
	DB	0c7H
	DB	039H
	DB	0c7H
	DB	039H
	DB	0c7H
	DB	039H
	DB	0c7H
	DB	039H
	DB	0c7H
	DB	039H
	DB	0c7H
	DB	039H
	DB	0c7H
	DB	039H
	DB	0c7H
	DB	039H
	DB	0c7H
	DB	039H
	DB	0c7H
	DB	039H
	DB	0c7H
	DB	039H
	DB	0c7H
	DB	039H
	DB	0c7H
	DB	039H
	DB	0c7H
	DB	039H
	DB	0c7H
	DB	039H
	DB	0c7H
	DB	039H
	DB	0c7H
	DB	039H
	DB	0c7H
	DB	039H
	DB	0c7H
	DB	039H
	DB	0c7H
	DB	039H
	DB	0c7H
	DB	039H
	DB	0c7H
	DB	039H
	DB	0c7H
	DB	039H
	DB	0c7H
	DB	039H
	DB	0c7H
	DB	039H
	DB	0c7H
	DB	039H
	DB	0c7H
	DB	039H
	DB	0c7H
	DB	039H
	DB	0c7H
	DB	039H
	DB	0c7H
	DB	039H
	DB	0c7H
	DB	039H
	DB	0c7H
	DB	039H
	DB	0c7H
	DB	039H
	DB	0c7H
	DB	039H
	DB	0c7H
	DB	039H
	DB	0c7H
	DB	039H
	DB	0c7H
	DB	039H
	DB	0c7H
	DB	039H
	DB	0c7H
	DB	039H
	DB	0c7H
	DB	039H
	DB	0c7H
	DB	039H
	DB	0c7H
	DB	039H
	DB	0c7H
	DB	039H
	DB	0c7H
	DB	039H
	DB	0c7H
	DB	039H
	DB	0e7H
	DB	039H
	DB	0c7H
	DB	039H
	DB	0c7H
	DB	039H
	DB	0a7H
	DB	039H
	DB	0c7H
	DB	039H
	DB	0e7H
	DB	039H
	DB	08H
	DB	042H
	DB	0e8H
	DB	041H
	DB	0e8H
	DB	041H
	DB	08H
	DB	042H
	DB	0e7H
	DB	039H
	DB	0e8H
	DB	041H
	DB	0e7H
	DB	039H
	DB	0e8H
	DB	041H
	DB	0e7H
	DB	039H
	DB	0e8H
	DB	041H
	DB	0e7H
	DB	039H
	DB	0e8H
	DB	041H
	DB	0e7H
	DB	039H
	DB	0e8H
	DB	041H
	DB	0e7H
	DB	039H
	DB	0e8H
	DB	041H
	DB	0e7H
	DB	039H
	DB	0e8H
	DB	041H
	DB	0e7H
	DB	039H
	DB	0e8H
	DB	041H
	DB	0e7H
	DB	039H
	DB	0e8H
	DB	041H
	DB	0e7H
	DB	039H
	DB	0e8H
	DB	041H
	DB	0e7H
	DB	039H
	DB	0e8H
	DB	041H
	DB	0e7H
	DB	039H
	DB	0e8H
	DB	041H
	DB	0e7H
	DB	039H
	DB	0e8H
	DB	041H
	DB	0e7H
	DB	039H
	DB	0e8H
	DB	041H
	DB	0e7H
	DB	039H
	DB	0e8H
	DB	041H
	DB	0e7H
	DB	039H
	DB	0e8H
	DB	041H
	DB	0e7H
	DB	039H
	DB	0e8H
	DB	041H
	DB	0e7H
	DB	039H
	DB	0e8H
	DB	041H
	DB	0e7H
	DB	039H
	DB	0e8H
	DB	041H
	DB	0e7H
	DB	039H
	DB	0e8H
	DB	041H
	DB	0e7H
	DB	039H
	DB	0e8H
	DB	041H
	DB	0e7H
	DB	039H
	DB	0e8H
	DB	041H
	DB	0e7H
	DB	039H
	DB	0e8H
	DB	041H
	DB	0e7H
	DB	039H
	DB	0e8H
	DB	041H
	DB	0e7H
	DB	039H
	DB	0e8H
	DB	041H
	DB	0e7H
	DB	039H
	DB	0e8H
	DB	041H
	DB	0e7H
	DB	039H
	DB	0e8H
	DB	041H
	DB	0e7H
	DB	039H
	DB	0e8H
	DB	041H
	DB	0e7H
	DB	039H
	DB	0e8H
	DB	041H
	DB	0e7H
	DB	039H
	DB	0e8H
	DB	041H
	DB	0e7H
	DB	039H
	DB	0e8H
	DB	041H
	DB	0e7H
	DB	039H
	DB	0e8H
	DB	041H
	DB	0e7H
	DB	039H
	DB	0e8H
	DB	041H
	DB	0e7H
	DB	039H
	DB	0e8H
	DB	041H
	DB	0e7H
	DB	039H
	DB	0e8H
	DB	041H
	DB	0e7H
	DB	039H
	DB	0e8H
	DB	041H
	DB	0e7H
	DB	039H
	DB	0e8H
	DB	041H
	DB	0e7H
	DB	039H
	DB	0e8H
	DB	041H
	DB	0e7H
	DB	039H
	DB	0e8H
	DB	041H
	DB	0e7H
	DB	039H
	DB	0e8H
	DB	041H
	DB	0e7H
	DB	039H
	DB	0e8H
	DB	041H
	DB	0e7H
	DB	039H
	DB	0e8H
	DB	041H
	DB	0e7H
	DB	039H
	DB	0e8H
	DB	041H
	DB	0e7H
	DB	039H
	DB	0e8H
	DB	041H
	DB	0e7H
	DB	039H
	DB	0e8H
	DB	041H
	DB	0e7H
	DB	039H
	DB	0e8H
	DB	041H
	DB	0e7H
	DB	039H
	DB	0e8H
	DB	041H
	DB	0e7H
	DB	039H
	DB	0e8H
	DB	041H
	DB	0e7H
	DB	039H
	DB	0e8H
	DB	041H
	DB	0e7H
	DB	039H
	DB	0e8H
	DB	041H
	DB	0e7H
	DB	039H
	DB	0e8H
	DB	041H
	DB	0e7H
	DB	039H
	DB	0e8H
	DB	041H
	DB	0e7H
	DB	039H
	DB	0e8H
	DB	041H
	DB	0e7H
	DB	039H
	DB	0e8H
	DB	041H
	DB	0e7H
	DB	039H
	DB	0e8H
	DB	041H
	DB	0e7H
	DB	039H
	DB	0e8H
	DB	041H
	DB	0e7H
	DB	039H
	DB	0e8H
	DB	041H
	DB	0e7H
	DB	039H
	DB	0e8H
	DB	041H
	DB	08H
	DB	042H
	DB	0e8H
	DB	041H
	DB	08H
	DB	042H
	DB	08H
	DB	042H
	DB	0e7H
	DB	039H
	DB	0c7H
	DB	039H
	DB	0e8H
	DB	041H
	DB	08H
	DB	042H
	DB	08H
	DB	042H
	DB	00H
	DB	00H
	DB	00H
	DB	00H
	DB	00H
	DB	00H
	DB	00H
	DB	00H
	DB	00H
	DB	00H
	DB	00H
	DB	00H
	DB	00H
	DB	00H
	DB	00H
	DB	00H
	DB	00H
	DB	00H
	DB	00H
	DB	00H
	DB	00H
	DB	00H
	DB	00H
	DB	00H
	DB	00H
	DB	00H
	DB	00H
	DB	00H
	DB	00H
	DB	00H
	DB	00H
	DB	00H
	DB	00H
	DB	00H
	DB	00H
	DB	00H
	DB	00H
	DB	00H
	DB	00H
	DB	00H
	DB	00H
	DB	00H
	DB	00H
	DB	00H
	DB	00H
	DB	00H
	DB	00H
	DB	00H
	DB	00H
	DB	00H
	DB	00H
	DB	00H
	DB	00H
	DB	00H
	DB	00H
	DB	00H
	DB	00H
	DB	00H
	DB	00H
	DB	00H
	DB	00H
	DB	00H
	DB	00H
	DB	00H
	DB	00H
	DB	00H
	DB	00H
	DB	00H
	DB	00H
	DB	00H
	DB	00H
	DB	00H
	DB	00H
	DB	00H
	DB	00H
	DB	00H
	DB	00H
	DB	00H
	DB	00H
	DB	00H
	DB	00H
	DB	00H
	DB	00H
	DB	00H
	DB	00H
	DB	00H
	DB	00H
	DB	00H
	DB	00H
	DB	00H
	DB	00H
	DB	00H
	DB	00H
	DB	00H
	DB	00H
	DB	00H
	DB	00H
	DB	00H
	DB	00H
	DB	00H
	DB	00H
	DB	00H
	DB	00H
	DB	00H
	DB	00H
	DB	00H
	DB	00H
	DB	00H
	DB	00H
	DB	00H
	DB	00H
	DB	00H
	DB	00H
	DB	00H
	DB	00H
	DB	00H
	DB	00H
	DB	00H
	DB	00H
	DB	00H
	DB	00H
	DB	00H
	DB	00H
	DB	00H
	DB	00H
	DB	00H
	DB	00H
	DB	00H
	DB	00H
	DB	00H
	DB	00H
	DB	00H
	DB	00H
	DB	00H
	DB	00H
	DB	00H
	DB	00H
	DB	00H
	DB	00H
	DB	00H
	DB	00H
	DB	00H
	DB	00H
	DB	00H
	DB	00H
	DB	00H
	DB	00H
	DB	00H
	DB	00H
	DB	00H
	DB	00H
	DB	00H
	DB	00H
	DB	00H
	DB	00H
	DB	00H
	DB	00H
	DB	00H
	DB	00H
	DB	00H
	DB	00H
	DB	00H
	DB	00H
	DB	00H
	DB	00H
	DB	00H
	DB	00H
	DB	00H
	DB	00H
	DB	00H
	DB	00H
	DB	00H
	DB	00H
	DB	00H
	DB	00H
	DB	00H
	DB	00H
	DB	00H
	DB	00H
	DB	00H
	DB	00H
	DB	00H
	DB	00H
	DB	00H
	DB	00H
	DB	00H
	DB	00H
	DB	00H
	DB	00H
	DB	00H
	DB	00H
	DB	00H
	DB	00H
	DB	00H
	DB	00H
	DB	00H
	DB	00H
	DB	00H
	DB	00H
	DB	00H
	DB	00H
	DB	00H
	DB	00H
	DB	00H
	DB	00H
	DB	00H
	DB	00H
	DB	00H
	DB	00H
	DB	00H
	DB	00H
	DB	00H
	DB	00H
	DB	00H
	DB	00H
	DB	00H
	DB	00H
	DB	00H
	DB	00H
	DB	00H
	DB	00H
	DB	00H
	DB	00H
	DB	00H
	DB	00H
	DB	00H
	DB	00H
	DB	00H
	DB	00H
	DB	00H
	DB	00H
	DB	00H
	DB	00H
	DB	00H
	DB	00H
	DB	00H
	DB	00H
	DB	00H
	DB	00H
	DB	00H
	DB	00H
	DB	00H
	DB	00H
	DB	00H
	DB	08H
	DB	042H
	DB	08H
	DB	042H
	DB	0e8H
	DB	041H
	DB	08H
	DB	042H
	DB	08H
	DB	042H
	DB	08H
	DB	042H
	DB	00H
	DB	00H
	DB	00H
	DB	00H
	DB	00H
	DB	00H
	DB	00H
	DB	00H
	DB	00H
	DB	00H
	DB	00H
	DB	00H
	DB	00H
	DB	00H
	DB	00H
	DB	00H
	DB	00H
	DB	00H
	DB	00H
	DB	00H
	DB	00H
	DB	00H
	DB	00H
	DB	00H
	DB	00H
	DB	00H
	DB	00H
	DB	00H
	DB	00H
	DB	00H
	DB	00H
	DB	00H
	DB	00H
	DB	00H
	DB	00H
	DB	00H
	DB	00H
	DB	00H
	DB	00H
	DB	00H
	DB	00H
	DB	00H
	DB	00H
	DB	00H
	DB	00H
	DB	00H
	DB	00H
	DB	00H
	DB	00H
	DB	00H
	DB	00H
	DB	00H
	DB	00H
	DB	00H
	DB	00H
	DB	00H
	DB	00H
	DB	00H
	DB	00H
	DB	00H
	DB	00H
	DB	00H
	DB	00H
	DB	00H
	DB	00H
	DB	00H
	DB	00H
	DB	00H
	DB	00H
	DB	00H
	DB	00H
	DB	00H
	DB	00H
	DB	00H
	DB	00H
	DB	00H
	DB	00H
	DB	00H
	DB	00H
	DB	00H
	DB	00H
	DB	00H
	DB	00H
	DB	00H
	DB	00H
	DB	00H
	DB	00H
	DB	00H
	DB	00H
	DB	00H
	DB	00H
	DB	00H
	DB	00H
	DB	00H
	DB	00H
	DB	00H
	DB	00H
	DB	00H
	DB	00H
	DB	00H
	DB	00H
	DB	00H
	DB	00H
	DB	00H
	DB	00H
	DB	00H
	DB	00H
	DB	00H
	DB	00H
	DB	00H
	DB	00H
	DB	00H
	DB	00H
	DB	00H
	DB	00H
	DB	00H
	DB	00H
	DB	00H
	DB	00H
	DB	00H
	DB	00H
	DB	00H
	DB	00H
	DB	00H
	DB	00H
	DB	00H
	DB	00H
	DB	00H
	DB	00H
	DB	00H
	DB	00H
	DB	00H
	DB	00H
	DB	00H
	DB	00H
	DB	00H
	DB	00H
	DB	00H
	DB	00H
	DB	00H
	DB	00H
	DB	00H
	DB	00H
	DB	00H
	DB	00H
	DB	00H
	DB	00H
	DB	00H
	DB	00H
	DB	00H
	DB	00H
	DB	00H
	DB	00H
	DB	00H
	DB	00H
	DB	00H
	DB	00H
	DB	00H
	DB	00H
	DB	00H
	DB	00H
	DB	00H
	DB	00H
	DB	00H
	DB	00H
	DB	00H
	DB	00H
	DB	00H
	DB	00H
	DB	00H
	DB	00H
	DB	00H
	DB	00H
	DB	00H
	DB	00H
	DB	00H
	DB	00H
	DB	00H
	DB	00H
	DB	00H
	DB	00H
	DB	00H
	DB	00H
	DB	00H
	DB	00H
	DB	00H
	DB	00H
	DB	00H
	DB	00H
	DB	00H
	DB	00H
	DB	00H
	DB	00H
	DB	00H
	DB	00H
	DB	00H
	DB	00H
	DB	00H
	DB	00H
	DB	00H
	DB	00H
	DB	00H
	DB	00H
	DB	00H
	DB	00H
	DB	00H
	DB	00H
	DB	00H
	DB	00H
	DB	00H
	DB	00H
	DB	00H
	DB	00H
	DB	00H
	DB	00H
	DB	00H
	DB	00H
	DB	00H
	DB	00H
	DB	00H
	DB	00H
	DB	00H
	DB	00H
	DB	00H
	DB	00H
	DB	00H
	DB	00H
	DB	00H
	DB	00H
	DB	00H
	DB	00H
	DB	00H
	DB	00H
	DB	00H
	DB	00H
	DB	00H
	DB	00H
	DB	00H
	DB	00H
	DB	00H
	DB	00H
	DB	00H
	DB	00H
	DB	00H
	DB	08H
	DB	042H
	DB	08H
	DB	042H
	DB	08H
	DB	042H
	DB	08H
	DB	042H
	DB	028H
	DB	042H
	DB	08H
	DB	042H
	DB	00H
	DB	00H
	DB	00H
	DB	00H
	DB	00H
	DB	00H
	DB	00H
	DB	00H
	DB	00H
	DB	00H
	DB	00H
	DB	00H
	DB	00H
	DB	00H
	DB	00H
	DB	00H
	DB	00H
	DB	00H
	DB	00H
	DB	00H
	DB	00H
	DB	00H
	DB	00H
	DB	00H
	DB	00H
	DB	00H
	DB	00H
	DB	00H
	DB	00H
	DB	00H
	DB	00H
	DB	00H
	DB	00H
	DB	00H
	DB	00H
	DB	00H
	DB	00H
	DB	00H
	DB	00H
	DB	00H
	DB	00H
	DB	00H
	DB	00H
	DB	00H
	DB	00H
	DB	00H
	DB	00H
	DB	00H
	DB	00H
	DB	00H
	DB	00H
	DB	00H
	DB	00H
	DB	00H
	DB	00H
	DB	00H
	DB	00H
	DB	00H
	DB	00H
	DB	00H
	DB	00H
	DB	00H
	DB	00H
	DB	00H
	DB	00H
	DB	00H
	DB	00H
	DB	00H
	DB	00H
	DB	00H
	DB	00H
	DB	00H
	DB	00H
	DB	00H
	DB	00H
	DB	00H
	DB	00H
	DB	00H
	DB	00H
	DB	00H
	DB	00H
	DB	00H
	DB	00H
	DB	00H
	DB	00H
	DB	00H
	DB	00H
	DB	00H
	DB	00H
	DB	00H
	DB	00H
	DB	00H
	DB	00H
	DB	00H
	DB	00H
	DB	00H
	DB	00H
	DB	00H
	DB	00H
	DB	00H
	DB	00H
	DB	00H
	DB	00H
	DB	00H
	DB	00H
	DB	00H
	DB	00H
	DB	00H
	DB	00H
	DB	00H
	DB	00H
	DB	00H
	DB	00H
	DB	00H
	DB	00H
	DB	00H
	DB	00H
	DB	00H
	DB	00H
	DB	00H
	DB	00H
	DB	00H
	DB	00H
	DB	00H
	DB	00H
	DB	00H
	DB	00H
	DB	00H
	DB	00H
	DB	00H
	DB	00H
	DB	00H
	DB	00H
	DB	00H
	DB	00H
	DB	00H
	DB	00H
	DB	00H
	DB	00H
	DB	00H
	DB	00H
	DB	00H
	DB	00H
	DB	00H
	DB	00H
	DB	00H
	DB	00H
	DB	00H
	DB	00H
	DB	00H
	DB	00H
	DB	00H
	DB	00H
	DB	00H
	DB	00H
	DB	00H
	DB	00H
	DB	00H
	DB	00H
	DB	00H
	DB	00H
	DB	00H
	DB	00H
	DB	00H
	DB	00H
	DB	00H
	DB	00H
	DB	00H
	DB	00H
	DB	00H
	DB	00H
	DB	00H
	DB	00H
	DB	00H
	DB	00H
	DB	00H
	DB	00H
	DB	00H
	DB	00H
	DB	00H
	DB	00H
	DB	00H
	DB	00H
	DB	00H
	DB	00H
	DB	00H
	DB	00H
	DB	00H
	DB	00H
	DB	00H
	DB	00H
	DB	00H
	DB	00H
	DB	00H
	DB	00H
	DB	00H
	DB	00H
	DB	00H
	DB	00H
	DB	00H
	DB	00H
	DB	00H
	DB	00H
	DB	00H
	DB	00H
	DB	00H
	DB	00H
	DB	00H
	DB	00H
	DB	00H
	DB	00H
	DB	00H
	DB	00H
	DB	00H
	DB	00H
	DB	00H
	DB	00H
	DB	00H
	DB	00H
	DB	00H
	DB	00H
	DB	00H
	DB	00H
	DB	00H
	DB	00H
	DB	00H
	DB	00H
	DB	00H
	DB	00H
	DB	00H
	DB	00H
	DB	00H
	DB	00H
	DB	00H
	DB	00H
	DB	00H
	DB	00H
	DB	00H
	DB	00H
	DB	00H
	DB	00H
	DB	00H
	DB	00H
	DB	00H
	DB	08H
	DB	042H
	DB	028H
	DB	042H
	DB	08H
	DB	042H
	DB	08H
	DB	042H
	DB	028H
	DB	042H
	DB	028H
	DB	042H
	DB	00H
	DB	00H
	DB	00H
	DB	00H
	DB	00H
	DB	00H
	DB	045H
	DB	029H
	DB	045H
	DB	029H
	DB	065H
	DB	029H
	DB	065H
	DB	029H
	DB	065H
	DB	029H
	DB	065H
	DB	029H
	DB	065H
	DB	029H
	DB	065H
	DB	029H
	DB	065H
	DB	029H
	DB	065H
	DB	029H
	DB	065H
	DB	029H
	DB	065H
	DB	029H
	DB	065H
	DB	029H
	DB	065H
	DB	029H
	DB	065H
	DB	029H
	DB	065H
	DB	029H
	DB	065H
	DB	029H
	DB	065H
	DB	029H
	DB	065H
	DB	029H
	DB	065H
	DB	029H
	DB	065H
	DB	029H
	DB	065H
	DB	029H
	DB	065H
	DB	029H
	DB	065H
	DB	029H
	DB	065H
	DB	029H
	DB	065H
	DB	029H
	DB	065H
	DB	029H
	DB	065H
	DB	029H
	DB	065H
	DB	029H
	DB	065H
	DB	029H
	DB	065H
	DB	029H
	DB	065H
	DB	029H
	DB	065H
	DB	029H
	DB	065H
	DB	029H
	DB	065H
	DB	029H
	DB	065H
	DB	029H
	DB	065H
	DB	029H
	DB	065H
	DB	029H
	DB	065H
	DB	029H
	DB	065H
	DB	029H
	DB	065H
	DB	029H
	DB	065H
	DB	029H
	DB	065H
	DB	029H
	DB	065H
	DB	029H
	DB	065H
	DB	029H
	DB	065H
	DB	029H
	DB	065H
	DB	029H
	DB	065H
	DB	029H
	DB	065H
	DB	029H
	DB	065H
	DB	029H
	DB	065H
	DB	029H
	DB	065H
	DB	029H
	DB	065H
	DB	029H
	DB	065H
	DB	029H
	DB	065H
	DB	029H
	DB	045H
	DB	029H
	DB	065H
	DB	029H
	DB	00H
	DB	00H
	DB	00H
	DB	00H
	DB	0b6H
	DB	0b5H
	DB	0b6H
	DB	0b5H
	DB	096H
	DB	0b5H
	DB	096H
	DB	0b5H
	DB	096H
	DB	0b5H
	DB	096H
	DB	0b5H
	DB	096H
	DB	0b5H
	DB	096H
	DB	0b5H
	DB	096H
	DB	0b5H
	DB	096H
	DB	0b5H
	DB	096H
	DB	0b5H
	DB	096H
	DB	0b5H
	DB	096H
	DB	0b5H
	DB	096H
	DB	0b5H
	DB	096H
	DB	0b5H
	DB	096H
	DB	0b5H
	DB	096H
	DB	0b5H
	DB	096H
	DB	0b5H
	DB	096H
	DB	0b5H
	DB	096H
	DB	0b5H
	DB	096H
	DB	0b5H
	DB	096H
	DB	0b5H
	DB	096H
	DB	0b5H
	DB	096H
	DB	0b5H
	DB	096H
	DB	0b5H
	DB	096H
	DB	0b5H
	DB	096H
	DB	0b5H
	DB	096H
	DB	0b5H
	DB	096H
	DB	0b5H
	DB	096H
	DB	0b5H
	DB	096H
	DB	0b5H
	DB	096H
	DB	0b5H
	DB	096H
	DB	0b5H
	DB	096H
	DB	0b5H
	DB	096H
	DB	0b5H
	DB	096H
	DB	0b5H
	DB	096H
	DB	0b5H
	DB	096H
	DB	0b5H
	DB	096H
	DB	0b5H
	DB	096H
	DB	0b5H
	DB	096H
	DB	0b5H
	DB	096H
	DB	0b5H
	DB	096H
	DB	0b5H
	DB	096H
	DB	0b5H
	DB	096H
	DB	0b5H
	DB	096H
	DB	0b5H
	DB	096H
	DB	0b5H
	DB	096H
	DB	0b5H
	DB	096H
	DB	0b5H
	DB	096H
	DB	0b5H
	DB	096H
	DB	0b5H
	DB	096H
	DB	0b5H
	DB	096H
	DB	0b5H
	DB	096H
	DB	0b5H
	DB	096H
	DB	0b5H
	DB	0b6H
	DB	0b5H
	DB	0b6H
	DB	0b5H
	DB	00H
	DB	00H
	DB	00H
	DB	00H
	DB	00H
	DB	00H
	DB	028H
	DB	042H
	DB	028H
	DB	042H
	DB	08H
	DB	042H
	DB	028H
	DB	042H
	DB	029H
	DB	04aH
	DB	028H
	DB	042H
	DB	00H
	DB	00H
	DB	00H
	DB	00H
	DB	00H
	DB	00H
	DB	065H
	DB	029H
	DB	065H
	DB	029H
	DB	066H
	DB	031H
	DB	066H
	DB	031H
	DB	066H
	DB	031H
	DB	066H
	DB	031H
	DB	066H
	DB	031H
	DB	066H
	DB	031H
	DB	066H
	DB	031H
	DB	066H
	DB	031H
	DB	066H
	DB	031H
	DB	066H
	DB	031H
	DB	066H
	DB	031H
	DB	066H
	DB	031H
	DB	066H
	DB	031H
	DB	066H
	DB	031H
	DB	066H
	DB	031H
	DB	066H
	DB	031H
	DB	066H
	DB	031H
	DB	066H
	DB	031H
	DB	066H
	DB	031H
	DB	066H
	DB	031H
	DB	066H
	DB	031H
	DB	066H
	DB	031H
	DB	066H
	DB	031H
	DB	066H
	DB	031H
	DB	066H
	DB	031H
	DB	066H
	DB	031H
	DB	066H
	DB	031H
	DB	066H
	DB	031H
	DB	066H
	DB	031H
	DB	066H
	DB	031H
	DB	066H
	DB	031H
	DB	066H
	DB	031H
	DB	066H
	DB	031H
	DB	066H
	DB	031H
	DB	066H
	DB	031H
	DB	066H
	DB	031H
	DB	066H
	DB	031H
	DB	066H
	DB	031H
	DB	066H
	DB	031H
	DB	066H
	DB	031H
	DB	066H
	DB	031H
	DB	066H
	DB	031H
	DB	066H
	DB	031H
	DB	066H
	DB	031H
	DB	066H
	DB	031H
	DB	066H
	DB	031H
	DB	066H
	DB	031H
	DB	066H
	DB	031H
	DB	066H
	DB	031H
	DB	066H
	DB	031H
	DB	066H
	DB	031H
	DB	066H
	DB	031H
	DB	066H
	DB	031H
	DB	065H
	DB	029H
	DB	065H
	DB	029H
	DB	00H
	DB	00H
	DB	00H
	DB	00H
	DB	035H
	DB	0adH
	DB	0d3H
	DB	09cH
	DB	0d3H
	DB	09cH
	DB	0b3H
	DB	09cH
	DB	0d3H
	DB	09cH
	DB	0b3H
	DB	09cH
	DB	0d3H
	DB	09cH
	DB	0d3H
	DB	09cH
	DB	0b3H
	DB	09cH
	DB	0d3H
	DB	09cH
	DB	0b3H
	DB	09cH
	DB	0d3H
	DB	09cH
	DB	0d3H
	DB	09cH
	DB	0b3H
	DB	09cH
	DB	0d3H
	DB	09cH
	DB	0b3H
	DB	09cH
	DB	0d3H
	DB	09cH
	DB	0d3H
	DB	09cH
	DB	0b3H
	DB	09cH
	DB	0d3H
	DB	09cH
	DB	0b3H
	DB	09cH
	DB	0d3H
	DB	09cH
	DB	0d3H
	DB	09cH
	DB	0b3H
	DB	09cH
	DB	0d3H
	DB	09cH
	DB	0b3H
	DB	09cH
	DB	0d3H
	DB	09cH
	DB	0d3H
	DB	09cH
	DB	0b3H
	DB	09cH
	DB	0d3H
	DB	09cH
	DB	0b3H
	DB	09cH
	DB	0d3H
	DB	09cH
	DB	0d3H
	DB	09cH
	DB	0b3H
	DB	09cH
	DB	0d3H
	DB	09cH
	DB	0b3H
	DB	09cH
	DB	0d3H
	DB	09cH
	DB	0d3H
	DB	09cH
	DB	0b3H
	DB	09cH
	DB	0d3H
	DB	09cH
	DB	0b3H
	DB	09cH
	DB	0d3H
	DB	09cH
	DB	0d3H
	DB	09cH
	DB	0b3H
	DB	09cH
	DB	0d3H
	DB	09cH
	DB	0b3H
	DB	09cH
	DB	0d3H
	DB	09cH
	DB	0d3H
	DB	09cH
	DB	0b3H
	DB	09cH
	DB	0d3H
	DB	09cH
	DB	0b3H
	DB	09cH
	DB	0d3H
	DB	09cH
	DB	0d3H
	DB	09cH
	DB	0b3H
	DB	09cH
	DB	0d3H
	DB	09cH
	DB	0d3H
	DB	09cH
	DB	035H
	DB	0adH
	DB	00H
	DB	00H
	DB	00H
	DB	00H
	DB	00H
	DB	00H
	DB	028H
	DB	042H
	DB	029H
	DB	04aH
	DB	028H
	DB	042H
	DB	029H
	DB	04aH
	DB	049H
	DB	04aH
	DB	029H
	DB	04aH
	DB	00H
	DB	00H
	DB	00H
	DB	00H
	DB	00H
	DB	00H
	DB	065H
	DB	029H
	DB	066H
	DB	031H
	DB	066H
	DB	031H
	DB	086H
	DB	031H
	DB	086H
	DB	031H
	DB	086H
	DB	031H
	DB	086H
	DB	031H
	DB	086H
	DB	031H
	DB	086H
	DB	031H
	DB	086H
	DB	031H
	DB	086H
	DB	031H
	DB	086H
	DB	031H
	DB	086H
	DB	031H
	DB	086H
	DB	031H
	DB	086H
	DB	031H
	DB	086H
	DB	031H
	DB	086H
	DB	031H
	DB	086H
	DB	031H
	DB	086H
	DB	031H
	DB	086H
	DB	031H
	DB	086H
	DB	031H
	DB	086H
	DB	031H
	DB	086H
	DB	031H
	DB	086H
	DB	031H
	DB	086H
	DB	031H
	DB	086H
	DB	031H
	DB	086H
	DB	031H
	DB	086H
	DB	031H
	DB	086H
	DB	031H
	DB	086H
	DB	031H
	DB	086H
	DB	031H
	DB	086H
	DB	031H
	DB	086H
	DB	031H
	DB	086H
	DB	031H
	DB	086H
	DB	031H
	DB	086H
	DB	031H
	DB	086H
	DB	031H
	DB	086H
	DB	031H
	DB	086H
	DB	031H
	DB	086H
	DB	031H
	DB	086H
	DB	031H
	DB	086H
	DB	031H
	DB	086H
	DB	031H
	DB	086H
	DB	031H
	DB	086H
	DB	031H
	DB	086H
	DB	031H
	DB	086H
	DB	031H
	DB	086H
	DB	031H
	DB	086H
	DB	031H
	DB	086H
	DB	031H
	DB	086H
	DB	031H
	DB	086H
	DB	031H
	DB	086H
	DB	031H
	DB	086H
	DB	031H
	DB	066H
	DB	031H
	DB	066H
	DB	031H
	DB	065H
	DB	029H
	DB	00H
	DB	00H
	DB	00H
	DB	00H
	DB	0d3H
	DB	09cH
	DB	092H
	DB	094H
	DB	072H
	DB	094H
	DB	071H
	DB	08cH
	DB	071H
	DB	08cH
	DB	071H
	DB	08cH
	DB	071H
	DB	08cH
	DB	071H
	DB	08cH
	DB	071H
	DB	08cH
	DB	071H
	DB	08cH
	DB	071H
	DB	08cH
	DB	071H
	DB	08cH
	DB	071H
	DB	08cH
	DB	071H
	DB	08cH
	DB	071H
	DB	08cH
	DB	071H
	DB	08cH
	DB	071H
	DB	08cH
	DB	071H
	DB	08cH
	DB	071H
	DB	08cH
	DB	071H
	DB	08cH
	DB	071H
	DB	08cH
	DB	071H
	DB	08cH
	DB	071H
	DB	08cH
	DB	071H
	DB	08cH
	DB	071H
	DB	08cH
	DB	071H
	DB	08cH
	DB	071H
	DB	08cH
	DB	071H
	DB	08cH
	DB	071H
	DB	08cH
	DB	071H
	DB	08cH
	DB	071H
	DB	08cH
	DB	071H
	DB	08cH
	DB	071H
	DB	08cH
	DB	071H
	DB	08cH
	DB	071H
	DB	08cH
	DB	071H
	DB	08cH
	DB	071H
	DB	08cH
	DB	071H
	DB	08cH
	DB	071H
	DB	08cH
	DB	071H
	DB	08cH
	DB	071H
	DB	08cH
	DB	071H
	DB	08cH
	DB	071H
	DB	08cH
	DB	071H
	DB	08cH
	DB	071H
	DB	08cH
	DB	071H
	DB	08cH
	DB	071H
	DB	08cH
	DB	071H
	DB	08cH
	DB	071H
	DB	08cH
	DB	071H
	DB	08cH
	DB	071H
	DB	08cH
	DB	071H
	DB	08cH
	DB	071H
	DB	08cH
	DB	071H
	DB	08cH
	DB	072H
	DB	094H
	DB	092H
	DB	094H
	DB	0d3H
	DB	09cH
	DB	00H
	DB	00H
	DB	00H
	DB	00H
	DB	00H
	DB	00H
	DB	029H
	DB	04aH
	DB	049H
	DB	04aH
	DB	029H
	DB	04aH
	DB	049H
	DB	04aH
	DB	049H
	DB	04aH
	DB	049H
	DB	04aH
	DB	00H
	DB	00H
	DB	00H
	DB	00H
	DB	00H
	DB	00H
	DB	066H
	DB	031H
	DB	086H
	DB	031H
	DB	0a6H
	DB	031H
	DB	0a7H
	DB	039H
	DB	0c7H
	DB	039H
	DB	0c7H
	DB	039H
	DB	0c7H
	DB	039H
	DB	0c7H
	DB	039H
	DB	0c7H
	DB	039H
	DB	0c7H
	DB	039H
	DB	0c7H
	DB	039H
	DB	0c7H
	DB	039H
	DB	0c7H
	DB	039H
	DB	0c7H
	DB	039H
	DB	0c7H
	DB	039H
	DB	0c7H
	DB	039H
	DB	0c7H
	DB	039H
	DB	0c7H
	DB	039H
	DB	0c7H
	DB	039H
	DB	0c7H
	DB	039H
	DB	0c7H
	DB	039H
	DB	0c7H
	DB	039H
	DB	0c7H
	DB	039H
	DB	0c7H
	DB	039H
	DB	0c7H
	DB	039H
	DB	0c7H
	DB	039H
	DB	0c7H
	DB	039H
	DB	0c7H
	DB	039H
	DB	0c7H
	DB	039H
	DB	0c7H
	DB	039H
	DB	0c7H
	DB	039H
	DB	0c7H
	DB	039H
	DB	0c7H
	DB	039H
	DB	0c7H
	DB	039H
	DB	0c7H
	DB	039H
	DB	0c7H
	DB	039H
	DB	0c7H
	DB	039H
	DB	0c7H
	DB	039H
	DB	0c7H
	DB	039H
	DB	0c7H
	DB	039H
	DB	0c7H
	DB	039H
	DB	0c7H
	DB	039H
	DB	0c7H
	DB	039H
	DB	0c7H
	DB	039H
	DB	0c7H
	DB	039H
	DB	0c7H
	DB	039H
	DB	0c7H
	DB	039H
	DB	0c7H
	DB	039H
	DB	0c7H
	DB	039H
	DB	0c7H
	DB	039H
	DB	0c7H
	DB	039H
	DB	0c7H
	DB	039H
	DB	0c7H
	DB	039H
	DB	0a6H
	DB	031H
	DB	0a6H
	DB	031H
	DB	086H
	DB	031H
	DB	066H
	DB	031H
	DB	00H
	DB	00H
	DB	00H
	DB	00H
	DB	0b3H
	DB	09cH
	DB	071H
	DB	08cH
	DB	071H
	DB	08cH
	DB	051H
	DB	08cH
	DB	051H
	DB	08cH
	DB	051H
	DB	08cH
	DB	051H
	DB	08cH
	DB	051H
	DB	08cH
	DB	051H
	DB	08cH
	DB	051H
	DB	08cH
	DB	051H
	DB	08cH
	DB	051H
	DB	08cH
	DB	051H
	DB	08cH
	DB	051H
	DB	08cH
	DB	051H
	DB	08cH
	DB	051H
	DB	08cH
	DB	051H
	DB	08cH
	DB	051H
	DB	08cH
	DB	051H
	DB	08cH
	DB	051H
	DB	08cH
	DB	051H
	DB	08cH
	DB	051H
	DB	08cH
	DB	051H
	DB	08cH
	DB	051H
	DB	08cH
	DB	051H
	DB	08cH
	DB	051H
	DB	08cH
	DB	051H
	DB	08cH
	DB	051H
	DB	08cH
	DB	051H
	DB	08cH
	DB	051H
	DB	08cH
	DB	051H
	DB	08cH
	DB	051H
	DB	08cH
	DB	051H
	DB	08cH
	DB	051H
	DB	08cH
	DB	051H
	DB	08cH
	DB	051H
	DB	08cH
	DB	051H
	DB	08cH
	DB	051H
	DB	08cH
	DB	051H
	DB	08cH
	DB	051H
	DB	08cH
	DB	051H
	DB	08cH
	DB	051H
	DB	08cH
	DB	051H
	DB	08cH
	DB	051H
	DB	08cH
	DB	051H
	DB	08cH
	DB	051H
	DB	08cH
	DB	051H
	DB	08cH
	DB	051H
	DB	08cH
	DB	051H
	DB	08cH
	DB	051H
	DB	08cH
	DB	051H
	DB	08cH
	DB	051H
	DB	08cH
	DB	051H
	DB	08cH
	DB	051H
	DB	08cH
	DB	071H
	DB	08cH
	DB	071H
	DB	08cH
	DB	0b3H
	DB	09cH
	DB	00H
	DB	00H
	DB	00H
	DB	00H
	DB	00H
	DB	00H
	DB	049H
	DB	04aH
	DB	049H
	DB	04aH
	DB	049H
	DB	04aH
	DB	049H
	DB	04aH
	DB	069H
	DB	04aH
	DB	049H
	DB	04aH
	DB	00H
	DB	00H
	DB	00H
	DB	00H
	DB	00H
	DB	00H
	DB	086H
	DB	031H
	DB	0a6H
	DB	031H
	DB	0c7H
	DB	039H
	DB	0c7H
	DB	039H
	DB	0e7H
	DB	039H
	DB	0c7H
	DB	039H
	DB	0e7H
	DB	039H
	DB	0e7H
	DB	039H
	DB	0c7H
	DB	039H
	DB	0e7H
	DB	039H
	DB	0e7H
	DB	039H
	DB	0e7H
	DB	039H
	DB	0c7H
	DB	039H
	DB	0e7H
	DB	039H
	DB	0e7H
	DB	039H
	DB	0e7H
	DB	039H
	DB	0e7H
	DB	039H
	DB	0c7H
	DB	039H
	DB	0e7H
	DB	039H
	DB	0e7H
	DB	039H
	DB	0e7H
	DB	039H
	DB	0e7H
	DB	039H
	DB	0c7H
	DB	039H
	DB	0e7H
	DB	039H
	DB	0e7H
	DB	039H
	DB	0e7H
	DB	039H
	DB	0e7H
	DB	039H
	DB	0c7H
	DB	039H
	DB	0e7H
	DB	039H
	DB	0e7H
	DB	039H
	DB	0e7H
	DB	039H
	DB	0e7H
	DB	039H
	DB	0c7H
	DB	039H
	DB	0e7H
	DB	039H
	DB	0e7H
	DB	039H
	DB	0e7H
	DB	039H
	DB	0e7H
	DB	039H
	DB	0c7H
	DB	039H
	DB	0e7H
	DB	039H
	DB	0e7H
	DB	039H
	DB	0e7H
	DB	039H
	DB	0e7H
	DB	039H
	DB	0c7H
	DB	039H
	DB	0e7H
	DB	039H
	DB	0e7H
	DB	039H
	DB	0e7H
	DB	039H
	DB	0e7H
	DB	039H
	DB	0c7H
	DB	039H
	DB	0e7H
	DB	039H
	DB	0e7H
	DB	039H
	DB	0c7H
	DB	039H
	DB	0e7H
	DB	039H
	DB	0e7H
	DB	039H
	DB	0c7H
	DB	039H
	DB	0c7H
	DB	039H
	DB	0a7H
	DB	039H
	DB	086H
	DB	031H
	DB	00H
	DB	00H
	DB	00H
	DB	00H
	DB	092H
	DB	094H
	DB	051H
	DB	08cH
	DB	051H
	DB	08cH
	DB	051H
	DB	08cH
	DB	051H
	DB	08cH
	DB	051H
	DB	08cH
	DB	051H
	DB	08cH
	DB	051H
	DB	08cH
	DB	051H
	DB	08cH
	DB	051H
	DB	08cH
	DB	051H
	DB	08cH
	DB	051H
	DB	08cH
	DB	051H
	DB	08cH
	DB	051H
	DB	08cH
	DB	051H
	DB	08cH
	DB	051H
	DB	08cH
	DB	051H
	DB	08cH
	DB	051H
	DB	08cH
	DB	051H
	DB	08cH
	DB	051H
	DB	08cH
	DB	051H
	DB	08cH
	DB	051H
	DB	08cH
	DB	051H
	DB	08cH
	DB	051H
	DB	08cH
	DB	051H
	DB	08cH
	DB	051H
	DB	08cH
	DB	051H
	DB	08cH
	DB	051H
	DB	08cH
	DB	051H
	DB	08cH
	DB	051H
	DB	08cH
	DB	051H
	DB	08cH
	DB	051H
	DB	08cH
	DB	051H
	DB	08cH
	DB	051H
	DB	08cH
	DB	051H
	DB	08cH
	DB	051H
	DB	08cH
	DB	051H
	DB	08cH
	DB	051H
	DB	08cH
	DB	051H
	DB	08cH
	DB	051H
	DB	08cH
	DB	051H
	DB	08cH
	DB	051H
	DB	08cH
	DB	051H
	DB	08cH
	DB	051H
	DB	08cH
	DB	051H
	DB	08cH
	DB	051H
	DB	08cH
	DB	051H
	DB	08cH
	DB	051H
	DB	08cH
	DB	051H
	DB	08cH
	DB	051H
	DB	08cH
	DB	051H
	DB	08cH
	DB	051H
	DB	08cH
	DB	051H
	DB	08cH
	DB	031H
	DB	08cH
	DB	051H
	DB	08cH
	DB	051H
	DB	08cH
	DB	0b2H
	DB	094H
	DB	00H
	DB	00H
	DB	00H
	DB	00H
	DB	00H
	DB	00H
	DB	049H
	DB	04aH
	DB	069H
	DB	04aH
	DB	049H
	DB	04aH
	DB	069H
	DB	04aH
	DB	06aH
	DB	052H
	DB	069H
	DB	04aH
	DB	00H
	DB	00H
	DB	00H
	DB	00H
	DB	00H
	DB	00H
	DB	0a6H
	DB	031H
	DB	0c7H
	DB	039H
	DB	0c7H
	DB	039H
	DB	0e7H
	DB	039H
	DB	0e8H
	DB	041H
	DB	0e7H
	DB	039H
	DB	0e8H
	DB	041H
	DB	0e7H
	DB	039H
	DB	0e8H
	DB	041H
	DB	0e8H
	DB	041H
	DB	0e7H
	DB	039H
	DB	0e8H
	DB	041H
	DB	0e8H
	DB	041H
	DB	0e7H
	DB	039H
	DB	0e8H
	DB	041H
	DB	0e8H
	DB	041H
	DB	0e7H
	DB	039H
	DB	0e8H
	DB	041H
	DB	0e8H
	DB	041H
	DB	0e7H
	DB	039H
	DB	0e8H
	DB	041H
	DB	0e8H
	DB	041H
	DB	0e7H
	DB	039H
	DB	0e8H
	DB	041H
	DB	0e8H
	DB	041H
	DB	0e7H
	DB	039H
	DB	0e8H
	DB	041H
	DB	0e8H
	DB	041H
	DB	0e7H
	DB	039H
	DB	0e8H
	DB	041H
	DB	0e8H
	DB	041H
	DB	0e7H
	DB	039H
	DB	0e8H
	DB	041H
	DB	0e8H
	DB	041H
	DB	0e7H
	DB	039H
	DB	0e8H
	DB	041H
	DB	0e8H
	DB	041H
	DB	0e7H
	DB	039H
	DB	0e8H
	DB	041H
	DB	0e8H
	DB	041H
	DB	0e7H
	DB	039H
	DB	0e8H
	DB	041H
	DB	0e8H
	DB	041H
	DB	0e7H
	DB	039H
	DB	0e8H
	DB	041H
	DB	0e8H
	DB	041H
	DB	0e7H
	DB	039H
	DB	0e8H
	DB	041H
	DB	0e8H
	DB	041H
	DB	0e7H
	DB	039H
	DB	0e8H
	DB	041H
	DB	0e8H
	DB	041H
	DB	0e7H
	DB	039H
	DB	0e7H
	DB	039H
	DB	0c7H
	DB	039H
	DB	0c7H
	DB	039H
	DB	086H
	DB	031H
	DB	00H
	DB	00H
	DB	00H
	DB	00H
	DB	092H
	DB	094H
	DB	051H
	DB	08cH
	DB	031H
	DB	08cH
	DB	030H
	DB	084H
	DB	031H
	DB	08cH
	DB	031H
	DB	08cH
	DB	030H
	DB	084H
	DB	031H
	DB	08cH
	DB	031H
	DB	08cH
	DB	030H
	DB	084H
	DB	031H
	DB	08cH
	DB	031H
	DB	08cH
	DB	030H
	DB	084H
	DB	031H
	DB	08cH
	DB	031H
	DB	08cH
	DB	030H
	DB	084H
	DB	031H
	DB	08cH
	DB	031H
	DB	08cH
	DB	030H
	DB	084H
	DB	031H
	DB	08cH
	DB	031H
	DB	08cH
	DB	030H
	DB	084H
	DB	031H
	DB	08cH
	DB	031H
	DB	08cH
	DB	030H
	DB	084H
	DB	031H
	DB	08cH
	DB	031H
	DB	08cH
	DB	030H
	DB	084H
	DB	031H
	DB	08cH
	DB	031H
	DB	08cH
	DB	030H
	DB	084H
	DB	031H
	DB	08cH
	DB	031H
	DB	08cH
	DB	030H
	DB	084H
	DB	031H
	DB	08cH
	DB	031H
	DB	08cH
	DB	030H
	DB	084H
	DB	031H
	DB	08cH
	DB	031H
	DB	08cH
	DB	030H
	DB	084H
	DB	031H
	DB	08cH
	DB	031H
	DB	08cH
	DB	030H
	DB	084H
	DB	031H
	DB	08cH
	DB	031H
	DB	08cH
	DB	030H
	DB	084H
	DB	031H
	DB	08cH
	DB	031H
	DB	08cH
	DB	030H
	DB	084H
	DB	031H
	DB	08cH
	DB	031H
	DB	08cH
	DB	030H
	DB	084H
	DB	031H
	DB	08cH
	DB	030H
	DB	084H
	DB	031H
	DB	08cH
	DB	051H
	DB	08cH
	DB	092H
	DB	094H
	DB	00H
	DB	00H
	DB	00H
	DB	00H
	DB	00H
	DB	00H
	DB	069H
	DB	04aH
	DB	06aH
	DB	052H
	DB	069H
	DB	04aH
	DB	06aH
	DB	052H
	DB	08aH
	DB	052H
	DB	06aH
	DB	052H
	DB	00H
	DB	00H
	DB	00H
	DB	00H
	DB	00H
	DB	00H
	DB	0a7H
	DB	039H
	DB	0c7H
	DB	039H
	DB	0e8H
	DB	041H
	DB	0e8H
	DB	041H
	DB	0e8H
	DB	041H
	DB	0e8H
	DB	041H
	DB	0e8H
	DB	041H
	DB	0e8H
	DB	041H
	DB	0e8H
	DB	041H
	DB	0e8H
	DB	041H
	DB	0e7H
	DB	039H
	DB	0e8H
	DB	041H
	DB	0e8H
	DB	041H
	DB	0e8H
	DB	041H
	DB	0e8H
	DB	041H
	DB	0e8H
	DB	041H
	DB	0e8H
	DB	041H
	DB	0e8H
	DB	041H
	DB	0e8H
	DB	041H
	DB	0e8H
	DB	041H
	DB	0e8H
	DB	041H
	DB	0e8H
	DB	041H
	DB	0e8H
	DB	041H
	DB	0e8H
	DB	041H
	DB	0e8H
	DB	041H
	DB	0e8H
	DB	041H
	DB	0e8H
	DB	041H
	DB	0e8H
	DB	041H
	DB	0e8H
	DB	041H
	DB	0e8H
	DB	041H
	DB	0e8H
	DB	041H
	DB	0e8H
	DB	041H
	DB	0e8H
	DB	041H
	DB	0e8H
	DB	041H
	DB	0e8H
	DB	041H
	DB	0e8H
	DB	041H
	DB	0e8H
	DB	041H
	DB	0e8H
	DB	041H
	DB	0e8H
	DB	041H
	DB	0e8H
	DB	041H
	DB	0e8H
	DB	041H
	DB	0e8H
	DB	041H
	DB	0e8H
	DB	041H
	DB	0e8H
	DB	041H
	DB	0e8H
	DB	041H
	DB	0e8H
	DB	041H
	DB	0e8H
	DB	041H
	DB	0e8H
	DB	041H
	DB	0e8H
	DB	041H
	DB	0e7H
	DB	039H
	DB	0e8H
	DB	041H
	DB	0e8H
	DB	041H
	DB	0e8H
	DB	041H
	DB	0e8H
	DB	041H
	DB	0e8H
	DB	041H
	DB	0c7H
	DB	039H
	DB	0a6H
	DB	031H
	DB	00H
	DB	00H
	DB	00H
	DB	00H
	DB	092H
	DB	094H
	DB	031H
	DB	08cH
	DB	030H
	DB	084H
	DB	010H
	DB	084H
	DB	010H
	DB	084H
	DB	010H
	DB	084H
	DB	010H
	DB	084H
	DB	010H
	DB	084H
	DB	010H
	DB	084H
	DB	010H
	DB	084H
	DB	010H
	DB	084H
	DB	010H
	DB	084H
	DB	010H
	DB	084H
	DB	010H
	DB	084H
	DB	010H
	DB	084H
	DB	010H
	DB	084H
	DB	010H
	DB	084H
	DB	010H
	DB	084H
	DB	010H
	DB	084H
	DB	010H
	DB	084H
	DB	010H
	DB	084H
	DB	010H
	DB	084H
	DB	010H
	DB	084H
	DB	010H
	DB	084H
	DB	010H
	DB	084H
	DB	010H
	DB	084H
	DB	010H
	DB	084H
	DB	010H
	DB	084H
	DB	010H
	DB	084H
	DB	010H
	DB	084H
	DB	010H
	DB	084H
	DB	010H
	DB	084H
	DB	010H
	DB	084H
	DB	010H
	DB	084H
	DB	010H
	DB	084H
	DB	010H
	DB	084H
	DB	010H
	DB	084H
	DB	010H
	DB	084H
	DB	010H
	DB	084H
	DB	010H
	DB	084H
	DB	010H
	DB	084H
	DB	010H
	DB	084H
	DB	010H
	DB	084H
	DB	010H
	DB	084H
	DB	010H
	DB	084H
	DB	010H
	DB	084H
	DB	010H
	DB	084H
	DB	010H
	DB	084H
	DB	010H
	DB	084H
	DB	010H
	DB	084H
	DB	010H
	DB	084H
	DB	010H
	DB	084H
	DB	030H
	DB	084H
	DB	010H
	DB	084H
	DB	030H
	DB	084H
	DB	031H
	DB	08cH
	DB	072H
	DB	094H
	DB	00H
	DB	00H
	DB	00H
	DB	00H
	DB	00H
	DB	00H
	DB	06aH
	DB	052H
	DB	08aH
	DB	052H
	DB	06aH
	DB	052H
	DB	08aH
	DB	052H
	DB	08aH
	DB	052H
	DB	08aH
	DB	052H
	DB	00H
	DB	00H
	DB	00H
	DB	00H
	DB	00H
	DB	00H
	DB	0a7H
	DB	039H
	DB	0e7H
	DB	039H
	DB	0e8H
	DB	041H
	DB	08H
	DB	042H
	DB	07H
	DB	03aH
	DB	0e8H
	DB	041H
	DB	08H
	DB	042H
	DB	07H
	DB	03aH
	DB	0e8H
	DB	041H
	DB	08H
	DB	042H
	DB	08H
	DB	042H
	DB	0e7H
	DB	039H
	DB	08H
	DB	042H
	DB	08H
	DB	042H
	DB	0e7H
	DB	039H
	DB	07H
	DB	03aH
	DB	08H
	DB	042H
	DB	0e7H
	DB	039H
	DB	08H
	DB	042H
	DB	028H
	DB	042H
	DB	028H
	DB	042H
	DB	08H
	DB	042H
	DB	0e7H
	DB	039H
	DB	07H
	DB	03aH
	DB	08H
	DB	042H
	DB	0e7H
	DB	039H
	DB	08H
	DB	042H
	DB	07H
	DB	03aH
	DB	0e8H
	DB	041H
	DB	07H
	DB	03aH
	DB	0e7H
	DB	039H
	DB	08H
	DB	042H
	DB	07H
	DB	03aH
	DB	0e8H
	DB	041H
	DB	07H
	DB	03aH
	DB	0e7H
	DB	039H
	DB	08H
	DB	042H
	DB	07H
	DB	03aH
	DB	0e8H
	DB	041H
	DB	07H
	DB	03aH
	DB	0e8H
	DB	041H
	DB	07H
	DB	03aH
	DB	07H
	DB	03aH
	DB	0e8H
	DB	041H
	DB	07H
	DB	03aH
	DB	08H
	DB	042H
	DB	0e7H
	DB	039H
	DB	08H
	DB	042H
	DB	08H
	DB	042H
	DB	0e8H
	DB	041H
	DB	08H
	DB	042H
	DB	08H
	DB	042H
	DB	0e8H
	DB	041H
	DB	08H
	DB	042H
	DB	0e7H
	DB	039H
	DB	0e7H
	DB	039H
	DB	0a7H
	DB	039H
	DB	00H
	DB	00H
	DB	00H
	DB	00H
	DB	071H
	DB	08cH
	DB	030H
	DB	084H
	DB	010H
	DB	084H
	DB	010H
	DB	084H
	DB	010H
	DB	084H
	DB	010H
	DB	084H
	DB	010H
	DB	084H
	DB	010H
	DB	084H
	DB	010H
	DB	084H
	DB	010H
	DB	084H
	DB	010H
	DB	084H
	DB	010H
	DB	084H
	DB	010H
	DB	084H
	DB	010H
	DB	084H
	DB	010H
	DB	084H
	DB	010H
	DB	084H
	DB	010H
	DB	084H
	DB	010H
	DB	084H
	DB	010H
	DB	084H
	DB	010H
	DB	084H
	DB	010H
	DB	084H
	DB	010H
	DB	084H
	DB	0cfH
	DB	07bH
	DB	0cfH
	DB	07bH
	DB	010H
	DB	084H
	DB	010H
	DB	084H
	DB	010H
	DB	084H
	DB	010H
	DB	084H
	DB	010H
	DB	084H
	DB	010H
	DB	084H
	DB	010H
	DB	084H
	DB	010H
	DB	084H
	DB	010H
	DB	084H
	DB	010H
	DB	084H
	DB	010H
	DB	084H
	DB	010H
	DB	084H
	DB	010H
	DB	084H
	DB	010H
	DB	084H
	DB	010H
	DB	084H
	DB	010H
	DB	084H
	DB	010H
	DB	084H
	DB	010H
	DB	084H
	DB	010H
	DB	084H
	DB	010H
	DB	084H
	DB	010H
	DB	084H
	DB	010H
	DB	084H
	DB	010H
	DB	084H
	DB	010H
	DB	084H
	DB	010H
	DB	084H
	DB	010H
	DB	084H
	DB	010H
	DB	084H
	DB	010H
	DB	084H
	DB	010H
	DB	084H
	DB	010H
	DB	084H
	DB	010H
	DB	084H
	DB	030H
	DB	084H
	DB	071H
	DB	08cH
	DB	00H
	DB	00H
	DB	00H
	DB	00H
	DB	00H
	DB	00H
	DB	08aH
	DB	052H
	DB	0aaH
	DB	052H
	DB	08aH
	DB	052H
	DB	08aH
	DB	052H
	DB	0aaH
	DB	052H
	DB	0aaH
	DB	052H
	DB	00H
	DB	00H
	DB	00H
	DB	00H
	DB	00H
	DB	00H
	DB	0c7H
	DB	039H
	DB	0e7H
	DB	039H
	DB	0e8H
	DB	041H
	DB	08H
	DB	042H
	DB	08H
	DB	042H
	DB	08H
	DB	042H
	DB	08H
	DB	042H
	DB	08H
	DB	042H
	DB	08H
	DB	042H
	DB	08H
	DB	042H
	DB	08H
	DB	042H
	DB	08H
	DB	042H
	DB	08H
	DB	042H
	DB	08H
	DB	042H
	DB	08H
	DB	042H
	DB	08H
	DB	042H
	DB	028H
	DB	042H
	DB	0afH
	DB	07bH
	DB	0b2H
	DB	094H
	DB	0f3H
	DB	09cH
	DB	0f3H
	DB	09cH
	DB	092H
	DB	094H
	DB	04dH
	DB	06bH
	DB	08H
	DB	042H
	DB	08H
	DB	042H
	DB	08H
	DB	042H
	DB	08H
	DB	042H
	DB	010H
	DB	084H
	DB	0f3H
	DB	09cH
	DB	0f3H
	DB	09cH
	DB	0f3H
	DB	09cH
	DB	0f3H
	DB	09cH
	DB	0f3H
	DB	09cH
	DB	08H
	DB	042H
	DB	08H
	DB	042H
	DB	02cH
	DB	063H
	DB	0f3H
	DB	09cH
	DB	0f3H
	DB	09cH
	DB	0f3H
	DB	09cH
	DB	0f3H
	DB	09cH
	DB	0f3H
	DB	09cH
	DB	0ecH
	DB	062H
	DB	08H
	DB	042H
	DB	08H
	DB	042H
	DB	08H
	DB	042H
	DB	08H
	DB	042H
	DB	08H
	DB	042H
	DB	08H
	DB	042H
	DB	08H
	DB	042H
	DB	08H
	DB	042H
	DB	07H
	DB	03aH
	DB	08H
	DB	042H
	DB	08H
	DB	042H
	DB	08H
	DB	042H
	DB	0e8H
	DB	041H
	DB	0e7H
	DB	039H
	DB	0a7H
	DB	039H
	DB	00H
	DB	00H
	DB	00H
	DB	00H
	DB	051H
	DB	08cH
	DB	010H
	DB	084H
	DB	010H
	DB	084H
	DB	0f0H
	DB	083H
	DB	0efH
	DB	07bH
	DB	0f0H
	DB	083H
	DB	0efH
	DB	07bH
	DB	0f0H
	DB	083H
	DB	0efH
	DB	07bH
	DB	0f0H
	DB	083H
	DB	0efH
	DB	07bH
	DB	0f0H
	DB	083H
	DB	0efH
	DB	07bH
	DB	0f0H
	DB	083H
	DB	0efH
	DB	07bH
	DB	0f0H
	DB	083H
	DB	0efH
	DB	07bH
	DB	0f0H
	DB	083H
	DB	0efH
	DB	07bH
	DB	0cfH
	DB	07bH
	DB	069H
	DB	04aH
	DB	086H
	DB	031H
	DB	065H
	DB	029H
	DB	065H
	DB	029H
	DB	0a7H
	DB	039H
	DB	0cbH
	DB	05aH
	DB	0efH
	DB	07bH
	DB	0f0H
	DB	083H
	DB	0efH
	DB	07bH
	DB	0f0H
	DB	083H
	DB	08H
	DB	042H
	DB	065H
	DB	029H
	DB	065H
	DB	029H
	DB	06eH
	DB	073H
	DB	0efH
	DB	07bH
	DB	0f0H
	DB	083H
	DB	0efH
	DB	07bH
	DB	0e7H
	DB	039H
	DB	045H
	DB	029H
	DB	08eH
	DB	073H
	DB	0f0H
	DB	083H
	DB	0efH
	DB	07bH
	DB	0f0H
	DB	083H
	DB	0efH
	DB	07bH
	DB	0f0H
	DB	083H
	DB	0efH
	DB	07bH
	DB	0f0H
	DB	083H
	DB	0efH
	DB	07bH
	DB	0f0H
	DB	083H
	DB	0efH
	DB	07bH
	DB	0f0H
	DB	083H
	DB	0f0H
	DB	083H
	DB	0efH
	DB	07bH
	DB	0f0H
	DB	083H
	DB	0f0H
	DB	083H
	DB	010H
	DB	084H
	DB	051H
	DB	08cH
	DB	00H
	DB	00H
	DB	00H
	DB	00H
	DB	00H
	DB	00H
	DB	08aH
	DB	052H
	DB	0aaH
	DB	052H
	DB	08aH
	DB	052H
	DB	0aaH
	DB	052H
	DB	0cbH
	DB	05aH
	DB	0abH
	DB	05aH
	DB	00H
	DB	00H
	DB	00H
	DB	00H
	DB	00H
	DB	00H
	DB	0c7H
	DB	039H
	DB	0e7H
	DB	039H
	DB	08H
	DB	042H
	DB	08H
	DB	042H
	DB	08H
	DB	042H
	DB	08H
	DB	042H
	DB	08H
	DB	042H
	DB	08H
	DB	042H
	DB	08H
	DB	042H
	DB	08H
	DB	042H
	DB	08H
	DB	042H
	DB	08H
	DB	042H
	DB	08H
	DB	042H
	DB	08H
	DB	042H
	DB	08H
	DB	042H
	DB	08H
	DB	042H
	DB	051H
	DB	08cH
	DB	0f3H
	DB	09cH
	DB	0b3H
	DB	09cH
	DB	0f0H
	DB	083H
	DB	030H
	DB	084H
	DB	0f3H
	DB	09cH
	DB	0f4H
	DB	0a4H
	DB	0cfH
	DB	07bH
	DB	08H
	DB	042H
	DB	08H
	DB	042H
	DB	08H
	DB	042H
	DB	030H
	DB	084H
	DB	0f4H
	DB	0a4H
	DB	051H
	DB	08cH
	DB	031H
	DB	08cH
	DB	011H
	DB	08cH
	DB	030H
	DB	084H
	DB	08H
	DB	042H
	DB	08H
	DB	042H
	DB	02dH
	DB	06bH
	DB	0f4H
	DB	0a4H
	DB	0b3H
	DB	09cH
	DB	030H
	DB	084H
	DB	031H
	DB	08cH
	DB	030H
	DB	084H
	DB	0cbH
	DB	05aH
	DB	08H
	DB	042H
	DB	08H
	DB	042H
	DB	08H
	DB	042H
	DB	08H
	DB	042H
	DB	08H
	DB	042H
	DB	08H
	DB	042H
	DB	08H
	DB	042H
	DB	08H
	DB	042H
	DB	08H
	DB	042H
	DB	08H
	DB	042H
	DB	08H
	DB	042H
	DB	08H
	DB	042H
	DB	08H
	DB	042H
	DB	0e7H
	DB	039H
	DB	0a7H
	DB	039H
	DB	00H
	DB	00H
	DB	00H
	DB	00H
	DB	051H
	DB	08cH
	DB	0f0H
	DB	083H
	DB	0f0H
	DB	083H
	DB	0cfH
	DB	07bH
	DB	0efH
	DB	07bH
	DB	0cfH
	DB	07bH
	DB	0efH
	DB	07bH
	DB	0cfH
	DB	07bH
	DB	0efH
	DB	07bH
	DB	0cfH
	DB	07bH
	DB	0efH
	DB	07bH
	DB	0cfH
	DB	07bH
	DB	0efH
	DB	07bH
	DB	0cfH
	DB	07bH
	DB	0efH
	DB	07bH
	DB	0cfH
	DB	07bH
	DB	0efH
	DB	07bH
	DB	0cfH
	DB	07bH
	DB	0cfH
	DB	07bH
	DB	0e7H
	DB	039H
	DB	045H
	DB	029H
	DB	086H
	DB	031H
	DB	029H
	DB	04aH
	DB	08H
	DB	042H
	DB	045H
	DB	029H
	DB	065H
	DB	029H
	DB	049H
	DB	04aH
	DB	0cfH
	DB	07bH
	DB	0efH
	DB	07bH
	DB	0cfH
	DB	07bH
	DB	08H
	DB	042H
	DB	045H
	DB	029H
	DB	045H
	DB	029H
	DB	0c7H
	DB	039H
	DB	0efH
	DB	07bH
	DB	0cfH
	DB	07bH
	DB	0cfH
	DB	07bH
	DB	0e7H
	DB	039H
	DB	065H
	DB	029H
	DB	08eH
	DB	073H
	DB	0cfH
	DB	07bH
	DB	0efH
	DB	07bH
	DB	0efH
	DB	07bH
	DB	0cfH
	DB	07bH
	DB	0efH
	DB	07bH
	DB	0cfH
	DB	07bH
	DB	0efH
	DB	07bH
	DB	0cfH
	DB	07bH
	DB	0efH
	DB	07bH
	DB	0cfH
	DB	07bH
	DB	0cfH
	DB	07bH
	DB	0efH
	DB	07bH
	DB	0cfH
	DB	07bH
	DB	0efH
	DB	07bH
	DB	0f0H
	DB	083H
	DB	010H
	DB	084H
	DB	051H
	DB	08cH
	DB	00H
	DB	00H
	DB	00H
	DB	00H
	DB	00H
	DB	00H
	DB	0aaH
	DB	052H
	DB	0cbH
	DB	05aH
	DB	0abH
	DB	05aH
	DB	0abH
	DB	05aH
	DB	0cbH
	DB	05aH
	DB	0abH
	DB	05aH
	DB	00H
	DB	00H
	DB	00H
	DB	00H
	DB	00H
	DB	00H
	DB	0c7H
	DB	039H
	DB	0e8H
	DB	041H
	DB	08H
	DB	042H
	DB	08H
	DB	042H
	DB	08H
	DB	042H
	DB	08H
	DB	042H
	DB	08H
	DB	042H
	DB	08H
	DB	042H
	DB	08H
	DB	042H
	DB	08H
	DB	042H
	DB	08H
	DB	042H
	DB	08H
	DB	042H
	DB	08H
	DB	042H
	DB	08H
	DB	042H
	DB	08H
	DB	042H
	DB	02dH
	DB	06bH
	DB	0f3H
	DB	09cH
	DB	0b3H
	DB	09cH
	DB	06aH
	DB	052H
	DB	08H
	DB	042H
	DB	08H
	DB	042H
	DB	0cbH
	DB	05aH
	DB	0f3H
	DB	09cH
	DB	0f3H
	DB	09cH
	DB	08aH
	DB	052H
	DB	08H
	DB	042H
	DB	08H
	DB	042H
	DB	030H
	DB	084H
	DB	0f3H
	DB	09cH
	DB	0cH
	DB	063H
	DB	08H
	DB	042H
	DB	08H
	DB	042H
	DB	08H
	DB	042H
	DB	08H
	DB	042H
	DB	08H
	DB	042H
	DB	02dH
	DB	06bH
	DB	0f3H
	DB	09cH
	DB	0f0H
	DB	083H
	DB	08H
	DB	042H
	DB	08H
	DB	042H
	DB	08H
	DB	042H
	DB	08H
	DB	042H
	DB	08H
	DB	042H
	DB	08H
	DB	042H
	DB	08H
	DB	042H
	DB	08H
	DB	042H
	DB	08H
	DB	042H
	DB	08H
	DB	042H
	DB	08H
	DB	042H
	DB	08H
	DB	042H
	DB	08H
	DB	042H
	DB	08H
	DB	042H
	DB	08H
	DB	042H
	DB	08H
	DB	042H
	DB	08H
	DB	042H
	DB	0e8H
	DB	041H
	DB	0c7H
	DB	039H
	DB	00H
	DB	00H
	DB	00H
	DB	00H
	DB	031H
	DB	08cH
	DB	0efH
	DB	07bH
	DB	0cfH
	DB	07bH
	DB	0cfH
	DB	07bH
	DB	0cfH
	DB	07bH
	DB	0cfH
	DB	07bH
	DB	0cfH
	DB	07bH
	DB	0cfH
	DB	07bH
	DB	0cfH
	DB	07bH
	DB	0cfH
	DB	07bH
	DB	0cfH
	DB	07bH
	DB	0cfH
	DB	07bH
	DB	0cfH
	DB	07bH
	DB	0cfH
	DB	07bH
	DB	0cfH
	DB	07bH
	DB	0cfH
	DB	07bH
	DB	0cfH
	DB	07bH
	DB	0cfH
	DB	07bH
	DB	0cbH
	DB	05aH
	DB	045H
	DB	029H
	DB	086H
	DB	031H
	DB	06eH
	DB	073H
	DB	0cfH
	DB	07bH
	DB	0cfH
	DB	07bH
	DB	0cH
	DB	063H
	DB	065H
	DB	029H
	DB	065H
	DB	029H
	DB	04dH
	DB	06bH
	DB	0cfH
	DB	07bH
	DB	0cfH
	DB	07bH
	DB	08H
	DB	042H
	DB	045H
	DB	029H
	DB	0a7H
	DB	039H
	DB	065H
	DB	029H
	DB	0cbH
	DB	05aH
	DB	0cfH
	DB	07bH
	DB	0cfH
	DB	07bH
	DB	0c7H
	DB	039H
	DB	046H
	DB	031H
	DB	06eH
	DB	073H
	DB	0cfH
	DB	07bH
	DB	0cfH
	DB	07bH
	DB	0cfH
	DB	07bH
	DB	0cfH
	DB	07bH
	DB	0cfH
	DB	07bH
	DB	0cfH
	DB	07bH
	DB	0cfH
	DB	07bH
	DB	0cfH
	DB	07bH
	DB	0cfH
	DB	07bH
	DB	0cfH
	DB	07bH
	DB	0cfH
	DB	07bH
	DB	0cfH
	DB	07bH
	DB	0cfH
	DB	07bH
	DB	0cfH
	DB	07bH
	DB	0cfH
	DB	07bH
	DB	0efH
	DB	07bH
	DB	031H
	DB	08cH
	DB	00H
	DB	00H
	DB	00H
	DB	00H
	DB	00H
	DB	00H
	DB	0cbH
	DB	05aH
	DB	0cbH
	DB	05aH
	DB	0abH
	DB	05aH
	DB	0cbH
	DB	05aH
	DB	0cbH
	DB	05aH
	DB	0cbH
	DB	05aH
	DB	00H
	DB	00H
	DB	00H
	DB	00H
	DB	00H
	DB	00H
	DB	0c7H
	DB	039H
	DB	08H
	DB	042H
	DB	08H
	DB	042H
	DB	028H
	DB	042H
	DB	08H
	DB	042H
	DB	028H
	DB	042H
	DB	08H
	DB	042H
	DB	08H
	DB	042H
	DB	028H
	DB	042H
	DB	08H
	DB	042H
	DB	08H
	DB	042H
	DB	028H
	DB	042H
	DB	08H
	DB	042H
	DB	08H
	DB	042H
	DB	028H
	DB	042H
	DB	0f0H
	DB	083H
	DB	0f3H
	DB	09cH
	DB	0cfH
	DB	07bH
	DB	028H
	DB	042H
	DB	028H
	DB	042H
	DB	08H
	DB	042H
	DB	09H
	DB	04aH
	DB	030H
	DB	084H
	DB	0f4H
	DB	0a4H
	DB	06eH
	DB	073H
	DB	08H
	DB	042H
	DB	08H
	DB	042H
	DB	031H
	DB	08cH
	DB	0f3H
	DB	09cH
	DB	0cH
	DB	063H
	DB	08H
	DB	042H
	DB	028H
	DB	042H
	DB	08H
	DB	042H
	DB	028H
	DB	042H
	DB	08H
	DB	042H
	DB	02dH
	DB	06bH
	DB	0f3H
	DB	09cH
	DB	0f0H
	DB	083H
	DB	08H
	DB	042H
	DB	08H
	DB	042H
	DB	028H
	DB	042H
	DB	08H
	DB	042H
	DB	028H
	DB	042H
	DB	08H
	DB	042H
	DB	08H
	DB	042H
	DB	028H
	DB	042H
	DB	08H
	DB	042H
	DB	08H
	DB	042H
	DB	028H
	DB	042H
	DB	08H
	DB	042H
	DB	08H
	DB	042H
	DB	028H
	DB	042H
	DB	08H
	DB	042H
	DB	028H
	DB	042H
	DB	08H
	DB	042H
	DB	08H
	DB	042H
	DB	0c7H
	DB	039H
	DB	00H
	DB	00H
	DB	00H
	DB	00H
	DB	030H
	DB	084H
	DB	0cfH
	DB	07bH
	DB	0cfH
	DB	07bH
	DB	0afH
	DB	07bH
	DB	0afH
	DB	07bH
	DB	0afH
	DB	07bH
	DB	0afH
	DB	07bH
	DB	0afH
	DB	07bH
	DB	0afH
	DB	07bH
	DB	0afH
	DB	07bH
	DB	0afH
	DB	07bH
	DB	0afH
	DB	07bH
	DB	0afH
	DB	07bH
	DB	0afH
	DB	07bH
	DB	0afH
	DB	07bH
	DB	0afH
	DB	07bH
	DB	0afH
	DB	07bH
	DB	0afH
	DB	07bH
	DB	028H
	DB	042H
	DB	065H
	DB	029H
	DB	049H
	DB	04aH
	DB	0afH
	DB	07bH
	DB	0afH
	DB	07bH
	DB	0afH
	DB	07bH
	DB	0afH
	DB	07bH
	DB	0e8H
	DB	041H
	DB	065H
	DB	029H
	DB	08bH
	DB	05aH
	DB	0afH
	DB	07bH
	DB	0afH
	DB	07bH
	DB	08H
	DB	042H
	DB	065H
	DB	029H
	DB	0cbH
	DB	05aH
	DB	045H
	DB	029H
	DB	086H
	DB	031H
	DB	08eH
	DB	073H
	DB	0afH
	DB	07bH
	DB	0c7H
	DB	039H
	DB	065H
	DB	029H
	DB	06dH
	DB	06bH
	DB	0afH
	DB	07bH
	DB	0afH
	DB	07bH
	DB	0afH
	DB	07bH
	DB	0afH
	DB	07bH
	DB	0afH
	DB	07bH
	DB	0afH
	DB	07bH
	DB	0afH
	DB	07bH
	DB	0afH
	DB	07bH
	DB	0afH
	DB	07bH
	DB	0afH
	DB	07bH
	DB	0afH
	DB	07bH
	DB	0afH
	DB	07bH
	DB	0afH
	DB	07bH
	DB	0afH
	DB	07bH
	DB	0cfH
	DB	07bH
	DB	0cfH
	DB	07bH
	DB	030H
	DB	084H
	DB	00H
	DB	00H
	DB	00H
	DB	00H
	DB	00H
	DB	00H
	DB	0cbH
	DB	05aH
	DB	0cbH
	DB	05aH
	DB	0cbH
	DB	05aH
	DB	0ebH
	DB	05aH
	DB	0ecH
	DB	062H
	DB	0ebH
	DB	05aH
	DB	00H
	DB	00H
	DB	00H
	DB	00H
	DB	00H
	DB	00H
	DB	0c7H
	DB	039H
	DB	08H
	DB	042H
	DB	028H
	DB	042H
	DB	028H
	DB	042H
	DB	028H
	DB	042H
	DB	029H
	DB	04aH
	DB	028H
	DB	042H
	DB	028H
	DB	042H
	DB	028H
	DB	042H
	DB	028H
	DB	042H
	DB	028H
	DB	042H
	DB	029H
	DB	04aH
	DB	028H
	DB	042H
	DB	028H
	DB	042H
	DB	028H
	DB	042H
	DB	051H
	DB	08cH
	DB	0f3H
	DB	09cH
	DB	02dH
	DB	06bH
	DB	028H
	DB	042H
	DB	029H
	DB	04aH
	DB	028H
	DB	042H
	DB	028H
	DB	042H
	DB	0cfH
	DB	07bH
	DB	0f3H
	DB	09cH
	DB	0cfH
	DB	07bH
	DB	028H
	DB	042H
	DB	029H
	DB	04aH
	DB	031H
	DB	08cH
	DB	0f3H
	DB	09cH
	DB	051H
	DB	08cH
	DB	0f0H
	DB	083H
	DB	010H
	DB	084H
	DB	06eH
	DB	073H
	DB	029H
	DB	04aH
	DB	028H
	DB	042H
	DB	02dH
	DB	06bH
	DB	0f3H
	DB	09cH
	DB	092H
	DB	094H
	DB	010H
	DB	084H
	DB	010H
	DB	084H
	DB	0f0H
	DB	083H
	DB	049H
	DB	04aH
	DB	029H
	DB	04aH
	DB	029H
	DB	04aH
	DB	028H
	DB	042H
	DB	029H
	DB	04aH
	DB	028H
	DB	042H
	DB	028H
	DB	042H
	DB	029H
	DB	04aH
	DB	028H
	DB	042H
	DB	028H
	DB	042H
	DB	029H
	DB	04aH
	DB	028H
	DB	042H
	DB	028H
	DB	042H
	DB	08H
	DB	042H
	DB	08H
	DB	042H
	DB	0c7H
	DB	039H
	DB	00H
	DB	00H
	DB	00H
	DB	00H
	DB	010H
	DB	084H
	DB	0cfH
	DB	07bH
	DB	0aeH
	DB	073H
	DB	08eH
	DB	073H
	DB	0aeH
	DB	073H
	DB	08eH
	DB	073H
	DB	0aeH
	DB	073H
	DB	08eH
	DB	073H
	DB	0aeH
	DB	073H
	DB	08eH
	DB	073H
	DB	08eH
	DB	073H
	DB	0aeH
	DB	073H
	DB	08eH
	DB	073H
	DB	0aeH
	DB	073H
	DB	08eH
	DB	073H
	DB	0aeH
	DB	073H
	DB	08eH
	DB	073H
	DB	0aeH
	DB	073H
	DB	0c7H
	DB	039H
	DB	045H
	DB	029H
	DB	0abH
	DB	05aH
	DB	0aeH
	DB	073H
	DB	0aeH
	DB	073H
	DB	08eH
	DB	073H
	DB	0aeH
	DB	073H
	DB	049H
	DB	04aH
	DB	045H
	DB	029H
	DB	049H
	DB	04aH
	DB	08eH
	DB	073H
	DB	0aeH
	DB	073H
	DB	0e8H
	DB	041H
	DB	045H
	DB	029H
	DB	04dH
	DB	06bH
	DB	0e8H
	DB	041H
	DB	045H
	DB	029H
	DB	06aH
	DB	052H
	DB	0aeH
	DB	073H
	DB	0c7H
	DB	039H
	DB	045H
	DB	029H
	DB	04dH
	DB	06bH
	DB	0aeH
	DB	073H
	DB	08eH
	DB	073H
	DB	08eH
	DB	073H
	DB	0aeH
	DB	073H
	DB	08eH
	DB	073H
	DB	08eH
	DB	073H
	DB	0aeH
	DB	073H
	DB	08eH
	DB	073H
	DB	0aeH
	DB	073H
	DB	0aeH
	DB	073H
	DB	08eH
	DB	073H
	DB	0aeH
	DB	073H
	DB	08eH
	DB	073H
	DB	08eH
	DB	073H
	DB	0aeH
	DB	073H
	DB	0cfH
	DB	07bH
	DB	010H
	DB	084H
	DB	00H
	DB	00H
	DB	00H
	DB	00H
	DB	00H
	DB	00H
	DB	0cbH
	DB	05aH
	DB	0ecH
	DB	062H
	DB	0ebH
	DB	05aH
	DB	0ebH
	DB	05aH
	DB	0cH
	DB	063H
	DB	0ecH
	DB	062H
	DB	00H
	DB	00H
	DB	00H
	DB	00H
	DB	00H
	DB	00H
	DB	0e8H
	DB	041H
	DB	08H
	DB	042H
	DB	029H
	DB	04aH
	DB	029H
	DB	04aH
	DB	029H
	DB	04aH
	DB	029H
	DB	04aH
	DB	029H
	DB	04aH
	DB	029H
	DB	04aH
	DB	029H
	DB	04aH
	DB	029H
	DB	04aH
	DB	029H
	DB	04aH
	DB	029H
	DB	04aH
	DB	029H
	DB	04aH
	DB	029H
	DB	04aH
	DB	029H
	DB	04aH
	DB	071H
	DB	08cH
	DB	0f4H
	DB	0a4H
	DB	04dH
	DB	06bH
	DB	029H
	DB	04aH
	DB	029H
	DB	04aH
	DB	029H
	DB	04aH
	DB	029H
	DB	04aH
	DB	0cfH
	DB	07bH
	DB	0f3H
	DB	09cH
	DB	0cfH
	DB	07bH
	DB	029H
	DB	04aH
	DB	029H
	DB	04aH
	DB	030H
	DB	084H
	DB	0f3H
	DB	09cH
	DB	0f4H
	DB	0a4H
	DB	0f3H
	DB	09cH
	DB	0f3H
	DB	09cH
	DB	031H
	DB	08cH
	DB	029H
	DB	04aH
	DB	029H
	DB	04aH
	DB	04dH
	DB	06bH
	DB	0f3H
	DB	09cH
	DB	0f3H
	DB	09cH
	DB	0f3H
	DB	09cH
	DB	0f4H
	DB	0a4H
	DB	0f3H
	DB	09cH
	DB	069H
	DB	04aH
	DB	029H
	DB	04aH
	DB	029H
	DB	04aH
	DB	029H
	DB	04aH
	DB	029H
	DB	04aH
	DB	029H
	DB	04aH
	DB	029H
	DB	04aH
	DB	029H
	DB	04aH
	DB	029H
	DB	04aH
	DB	029H
	DB	04aH
	DB	029H
	DB	04aH
	DB	029H
	DB	04aH
	DB	029H
	DB	04aH
	DB	028H
	DB	042H
	DB	08H
	DB	042H
	DB	0c7H
	DB	039H
	DB	00H
	DB	00H
	DB	00H
	DB	00H
	DB	0f0H
	DB	083H
	DB	0aeH
	DB	073H
	DB	0aeH
	DB	073H
	DB	08eH
	DB	073H
	DB	08eH
	DB	073H
	DB	08eH
	DB	073H
	DB	08eH
	DB	073H
	DB	08eH
	DB	073H
	DB	08eH
	DB	073H
	DB	08eH
	DB	073H
	DB	08eH
	DB	073H
	DB	08eH
	DB	073H
	DB	08eH
	DB	073H
	DB	08eH
	DB	073H
	DB	08eH
	DB	073H
	DB	08eH
	DB	073H
	DB	08eH
	DB	073H
	DB	08eH
	DB	073H
	DB	0c7H
	DB	039H
	DB	045H
	DB	029H
	DB	0abH
	DB	05aH
	DB	08eH
	DB	073H
	DB	08eH
	DB	073H
	DB	08eH
	DB	073H
	DB	08eH
	DB	073H
	DB	049H
	DB	04aH
	DB	045H
	DB	029H
	DB	049H
	DB	04aH
	DB	08eH
	DB	073H
	DB	08eH
	DB	073H
	DB	0e8H
	DB	041H
	DB	065H
	DB	029H
	DB	04dH
	DB	06bH
	DB	02cH
	DB	063H
	DB	045H
	DB	029H
	DB	065H
	DB	029H
	DB	04dH
	DB	06bH
	DB	0e8H
	DB	041H
	DB	045H
	DB	029H
	DB	04dH
	DB	06bH
	DB	08eH
	DB	073H
	DB	08eH
	DB	073H
	DB	08eH
	DB	073H
	DB	08eH
	DB	073H
	DB	08eH
	DB	073H
	DB	08eH
	DB	073H
	DB	08eH
	DB	073H
	DB	08eH
	DB	073H
	DB	08eH
	DB	073H
	DB	08eH
	DB	073H
	DB	08eH
	DB	073H
	DB	08eH
	DB	073H
	DB	08eH
	DB	073H
	DB	08eH
	DB	073H
	DB	0aeH
	DB	073H
	DB	0afH
	DB	07bH
	DB	0f0H
	DB	083H
	DB	00H
	DB	00H
	DB	00H
	DB	00H
	DB	00H
	DB	00H
	DB	0ecH
	DB	062H
	DB	0cH
	DB	063H
	DB	0ebH
	DB	05aH
	DB	0ecH
	DB	062H
	DB	0cH
	DB	063H
	DB	0ecH
	DB	062H
	DB	00H
	DB	00H
	DB	00H
	DB	00H
	DB	00H
	DB	00H
	DB	0e8H
	DB	041H
	DB	028H
	DB	042H
	DB	029H
	DB	04aH
	DB	029H
	DB	04aH
	DB	049H
	DB	04aH
	DB	029H
	DB	04aH
	DB	049H
	DB	04aH
	DB	049H
	DB	04aH
	DB	029H
	DB	04aH
	DB	049H
	DB	04aH
	DB	049H
	DB	04aH
	DB	029H
	DB	04aH
	DB	049H
	DB	04aH
	DB	049H
	DB	04aH
	DB	029H
	DB	04aH
	DB	010H
	DB	084H
	DB	0f3H
	DB	09cH
	DB	0cfH
	DB	07bH
	DB	029H
	DB	04aH
	DB	049H
	DB	04aH
	DB	029H
	DB	04aH
	DB	049H
	DB	04aH
	DB	051H
	DB	08cH
	DB	0f4H
	DB	0a4H
	DB	06eH
	DB	073H
	DB	029H
	DB	04aH
	DB	049H
	DB	04aH
	DB	030H
	DB	084H
	DB	0d4H
	DB	0a4H
	DB	04dH
	DB	06bH
	DB	06aH
	DB	052H
	DB	069H
	DB	04aH
	DB	069H
	DB	04aH
	DB	029H
	DB	04aH
	DB	049H
	DB	04aH
	DB	04dH
	DB	06bH
	DB	0f3H
	DB	09cH
	DB	0f0H
	DB	083H
	DB	06aH
	DB	052H
	DB	06aH
	DB	052H
	DB	069H
	DB	04aH
	DB	029H
	DB	04aH
	DB	049H
	DB	04aH
	DB	049H
	DB	04aH
	DB	028H
	DB	042H
	DB	049H
	DB	04aH
	DB	049H
	DB	04aH
	DB	029H
	DB	04aH
	DB	048H
	DB	042H
	DB	049H
	DB	04aH
	DB	029H
	DB	04aH
	DB	049H
	DB	04aH
	DB	049H
	DB	04aH
	DB	029H
	DB	04aH
	DB	029H
	DB	04aH
	DB	028H
	DB	042H
	DB	0e7H
	DB	039H
	DB	00H
	DB	00H
	DB	00H
	DB	00H
	DB	0efH
	DB	07bH
	DB	08eH
	DB	073H
	DB	08eH
	DB	073H
	DB	06eH
	DB	073H
	DB	06eH
	DB	073H
	DB	06eH
	DB	073H
	DB	06eH
	DB	073H
	DB	06dH
	DB	06bH
	DB	06eH
	DB	073H
	DB	06eH
	DB	073H
	DB	06eH
	DB	073H
	DB	06eH
	DB	073H
	DB	06eH
	DB	073H
	DB	06dH
	DB	06bH
	DB	06eH
	DB	073H
	DB	06eH
	DB	073H
	DB	06eH
	DB	073H
	DB	06eH
	DB	073H
	DB	08H
	DB	042H
	DB	065H
	DB	029H
	DB	029H
	DB	04aH
	DB	06eH
	DB	073H
	DB	06eH
	DB	073H
	DB	06eH
	DB	073H
	DB	06eH
	DB	073H
	DB	0c7H
	DB	039H
	DB	045H
	DB	029H
	DB	08aH
	DB	052H
	DB	06eH
	DB	073H
	DB	06dH
	DB	06bH
	DB	0e7H
	DB	039H
	DB	045H
	DB	029H
	DB	02dH
	DB	06bH
	DB	06eH
	DB	073H
	DB	029H
	DB	04aH
	DB	065H
	DB	029H
	DB	08H
	DB	042H
	DB	0e8H
	DB	041H
	DB	065H
	DB	029H
	DB	02dH
	DB	06bH
	DB	06eH
	DB	073H
	DB	06eH
	DB	073H
	DB	06eH
	DB	073H
	DB	06eH
	DB	073H
	DB	06eH
	DB	073H
	DB	06dH
	DB	06bH
	DB	06eH
	DB	073H
	DB	06eH
	DB	073H
	DB	06eH
	DB	073H
	DB	06dH
	DB	06bH
	DB	06eH
	DB	073H
	DB	06eH
	DB	073H
	DB	06eH
	DB	073H
	DB	06dH
	DB	06bH
	DB	08eH
	DB	073H
	DB	08eH
	DB	073H
	DB	0efH
	DB	07bH
	DB	00H
	DB	00H
	DB	00H
	DB	00H
	DB	00H
	DB	00H
	DB	0cH
	DB	063H
	DB	0cH
	DB	063H
	DB	0ecH
	DB	062H
	DB	0cH
	DB	063H
	DB	02cH
	DB	063H
	DB	0cH
	DB	063H
	DB	00H
	DB	00H
	DB	00H
	DB	00H
	DB	00H
	DB	00H
	DB	08H
	DB	042H
	DB	028H
	DB	042H
	DB	028H
	DB	042H
	DB	049H
	DB	04aH
	DB	049H
	DB	04aH
	DB	048H
	DB	042H
	DB	049H
	DB	04aH
	DB	049H
	DB	04aH
	DB	049H
	DB	04aH
	DB	049H
	DB	04aH
	DB	048H
	DB	042H
	DB	049H
	DB	04aH
	DB	049H
	DB	04aH
	DB	049H
	DB	04aH
	DB	049H
	DB	04aH
	DB	02cH
	DB	063H
	DB	0f3H
	DB	09cH
	DB	0b3H
	DB	09cH
	DB	08aH
	DB	052H
	DB	049H
	DB	04aH
	DB	049H
	DB	04aH
	DB	0ebH
	DB	05aH
	DB	0f3H
	DB	09cH
	DB	0f3H
	DB	09cH
	DB	0cbH
	DB	05aH
	DB	049H
	DB	04aH
	DB	049H
	DB	04aH
	DB	031H
	DB	08cH
	DB	0f3H
	DB	09cH
	DB	02cH
	DB	063H
	DB	049H
	DB	04aH
	DB	049H
	DB	04aH
	DB	049H
	DB	04aH
	DB	049H
	DB	04aH
	DB	049H
	DB	04aH
	DB	04dH
	DB	06bH
	DB	0f3H
	DB	09cH
	DB	010H
	DB	084H
	DB	049H
	DB	04aH
	DB	049H
	DB	04aH
	DB	049H
	DB	04aH
	DB	049H
	DB	04aH
	DB	049H
	DB	04aH
	DB	049H
	DB	04aH
	DB	049H
	DB	04aH
	DB	049H
	DB	04aH
	DB	049H
	DB	04aH
	DB	049H
	DB	04aH
	DB	049H
	DB	04aH
	DB	049H
	DB	04aH
	DB	049H
	DB	04aH
	DB	048H
	DB	042H
	DB	049H
	DB	04aH
	DB	049H
	DB	04aH
	DB	029H
	DB	04aH
	DB	028H
	DB	042H
	DB	0e8H
	DB	041H
	DB	00H
	DB	00H
	DB	00H
	DB	00H
	DB	0efH
	DB	07bH
	DB	08eH
	DB	073H
	DB	06eH
	DB	073H
	DB	06dH
	DB	06bH
	DB	06dH
	DB	06bH
	DB	06dH
	DB	06bH
	DB	06dH
	DB	06bH
	DB	06dH
	DB	06bH
	DB	06dH
	DB	06bH
	DB	06dH
	DB	06bH
	DB	06dH
	DB	06bH
	DB	06dH
	DB	06bH
	DB	06dH
	DB	06bH
	DB	06dH
	DB	06bH
	DB	06dH
	DB	06bH
	DB	06dH
	DB	06bH
	DB	06dH
	DB	06bH
	DB	06dH
	DB	06bH
	DB	0abH
	DB	05aH
	DB	065H
	DB	029H
	DB	086H
	DB	031H
	DB	02cH
	DB	063H
	DB	06dH
	DB	06bH
	DB	06dH
	DB	06bH
	DB	0ebH
	DB	05aH
	DB	045H
	DB	029H
	DB	065H
	DB	029H
	DB	0ecH
	DB	062H
	DB	06dH
	DB	06bH
	DB	06dH
	DB	06bH
	DB	0e8H
	DB	041H
	DB	045H
	DB	029H
	DB	02cH
	DB	063H
	DB	06dH
	DB	06bH
	DB	04dH
	DB	06bH
	DB	066H
	DB	031H
	DB	045H
	DB	029H
	DB	086H
	DB	031H
	DB	045H
	DB	029H
	DB	02cH
	DB	063H
	DB	06dH
	DB	06bH
	DB	06dH
	DB	06bH
	DB	06dH
	DB	06bH
	DB	06dH
	DB	06bH
	DB	06dH
	DB	06bH
	DB	06dH
	DB	06bH
	DB	06dH
	DB	06bH
	DB	06dH
	DB	06bH
	DB	06dH
	DB	06bH
	DB	06dH
	DB	06bH
	DB	06dH
	DB	06bH
	DB	06dH
	DB	06bH
	DB	06dH
	DB	06bH
	DB	06dH
	DB	06bH
	DB	06eH
	DB	073H
	DB	08eH
	DB	073H
	DB	0efH
	DB	07bH
	DB	00H
	DB	00H
	DB	00H
	DB	00H
	DB	00H
	DB	00H
	DB	0cH
	DB	063H
	DB	02cH
	DB	063H
	DB	0cH
	DB	063H
	DB	02cH
	DB	063H
	DB	02dH
	DB	06bH
	DB	02cH
	DB	063H
	DB	00H
	DB	00H
	DB	00H
	DB	00H
	DB	00H
	DB	00H
	DB	0e8H
	DB	041H
	DB	028H
	DB	042H
	DB	049H
	DB	04aH
	DB	049H
	DB	04aH
	DB	049H
	DB	04aH
	DB	049H
	DB	04aH
	DB	049H
	DB	04aH
	DB	049H
	DB	04aH
	DB	049H
	DB	04aH
	DB	049H
	DB	04aH
	DB	049H
	DB	04aH
	DB	049H
	DB	04aH
	DB	049H
	DB	04aH
	DB	049H
	DB	04aH
	DB	049H
	DB	04aH
	DB	049H
	DB	04aH
	DB	051H
	DB	08cH
	DB	0f3H
	DB	09cH
	DB	0b3H
	DB	09cH
	DB	030H
	DB	084H
	DB	031H
	DB	08cH
	DB	0f3H
	DB	09cH
	DB	0f3H
	DB	09cH
	DB	0cfH
	DB	07bH
	DB	049H
	DB	04aH
	DB	049H
	DB	04aH
	DB	049H
	DB	04aH
	DB	031H
	DB	08cH
	DB	0f3H
	DB	09cH
	DB	02dH
	DB	06bH
	DB	049H
	DB	04aH
	DB	049H
	DB	04aH
	DB	049H
	DB	04aH
	DB	049H
	DB	04aH
	DB	049H
	DB	04aH
	DB	04dH
	DB	06bH
	DB	0f3H
	DB	09cH
	DB	010H
	DB	084H
	DB	049H
	DB	04aH
	DB	049H
	DB	04aH
	DB	049H
	DB	04aH
	DB	049H
	DB	04aH
	DB	049H
	DB	04aH
	DB	049H
	DB	04aH
	DB	049H
	DB	04aH
	DB	049H
	DB	04aH
	DB	049H
	DB	04aH
	DB	049H
	DB	04aH
	DB	049H
	DB	04aH
	DB	049H
	DB	04aH
	DB	049H
	DB	04aH
	DB	049H
	DB	04aH
	DB	049H
	DB	04aH
	DB	049H
	DB	04aH
	DB	049H
	DB	04aH
	DB	028H
	DB	042H
	DB	0e8H
	DB	041H
	DB	00H
	DB	00H
	DB	00H
	DB	00H
	DB	0cfH
	DB	07bH
	DB	06eH
	DB	073H
	DB	06dH
	DB	06bH
	DB	04dH
	DB	06bH
	DB	04dH
	DB	06bH
	DB	04dH
	DB	06bH
	DB	04dH
	DB	06bH
	DB	04dH
	DB	06bH
	DB	04dH
	DB	06bH
	DB	04dH
	DB	06bH
	DB	04dH
	DB	06bH
	DB	04dH
	DB	06bH
	DB	04dH
	DB	06bH
	DB	04dH
	DB	06bH
	DB	04dH
	DB	06bH
	DB	04dH
	DB	06bH
	DB	04dH
	DB	06bH
	DB	04dH
	DB	06bH
	DB	04dH
	DB	06bH
	DB	0c7H
	DB	039H
	DB	045H
	DB	029H
	DB	066H
	DB	031H
	DB	0e7H
	DB	039H
	DB	0e7H
	DB	039H
	DB	045H
	DB	029H
	DB	065H
	DB	029H
	DB	028H
	DB	042H
	DB	04dH
	DB	06bH
	DB	04dH
	DB	06bH
	DB	04dH
	DB	06bH
	DB	0e8H
	DB	041H
	DB	065H
	DB	029H
	DB	0cH
	DB	063H
	DB	04dH
	DB	06bH
	DB	04dH
	DB	06bH
	DB	08aH
	DB	052H
	DB	065H
	DB	029H
	DB	045H
	DB	029H
	DB	045H
	DB	029H
	DB	0cH
	DB	063H
	DB	04dH
	DB	06bH
	DB	04dH
	DB	06bH
	DB	04dH
	DB	06bH
	DB	04dH
	DB	06bH
	DB	04dH
	DB	06bH
	DB	04dH
	DB	06bH
	DB	04dH
	DB	06bH
	DB	04dH
	DB	06bH
	DB	04dH
	DB	06bH
	DB	04dH
	DB	06bH
	DB	04dH
	DB	06bH
	DB	04dH
	DB	06bH
	DB	04dH
	DB	06bH
	DB	04dH
	DB	06bH
	DB	06dH
	DB	06bH
	DB	06eH
	DB	073H
	DB	0cfH
	DB	07bH
	DB	00H
	DB	00H
	DB	00H
	DB	00H
	DB	00H
	DB	00H
	DB	02cH
	DB	063H
	DB	02dH
	DB	06bH
	DB	02cH
	DB	063H
	DB	02dH
	DB	06bH
	DB	04dH
	DB	06bH
	DB	02dH
	DB	06bH
	DB	00H
	DB	00H
	DB	00H
	DB	00H
	DB	00H
	DB	00H
	DB	08H
	DB	042H
	DB	029H
	DB	04aH
	DB	049H
	DB	04aH
	DB	049H
	DB	04aH
	DB	049H
	DB	04aH
	DB	049H
	DB	04aH
	DB	049H
	DB	04aH
	DB	049H
	DB	04aH
	DB	049H
	DB	04aH
	DB	049H
	DB	04aH
	DB	049H
	DB	04aH
	DB	049H
	DB	04aH
	DB	049H
	DB	04aH
	DB	049H
	DB	04aH
	DB	049H
	DB	04aH
	DB	049H
	DB	04aH
	DB	06aH
	DB	052H
	DB	0afH
	DB	07bH
	DB	0d3H
	DB	09cH
	DB	0f3H
	DB	09cH
	DB	0f3H
	DB	09cH
	DB	092H
	DB	094H
	DB	04eH
	DB	073H
	DB	049H
	DB	04aH
	DB	049H
	DB	04aH
	DB	049H
	DB	04aH
	DB	049H
	DB	04aH
	DB	031H
	DB	08cH
	DB	0f3H
	DB	09cH
	DB	02cH
	DB	063H
	DB	049H
	DB	04aH
	DB	049H
	DB	04aH
	DB	049H
	DB	04aH
	DB	049H
	DB	04aH
	DB	049H
	DB	04aH
	DB	04dH
	DB	06bH
	DB	0f4H
	DB	0a4H
	DB	010H
	DB	084H
	DB	049H
	DB	04aH
	DB	049H
	DB	04aH
	DB	049H
	DB	04aH
	DB	049H
	DB	04aH
	DB	049H
	DB	04aH
	DB	049H
	DB	04aH
	DB	049H
	DB	04aH
	DB	049H
	DB	04aH
	DB	049H
	DB	04aH
	DB	049H
	DB	04aH
	DB	049H
	DB	04aH
	DB	049H
	DB	04aH
	DB	049H
	DB	04aH
	DB	049H
	DB	04aH
	DB	049H
	DB	04aH
	DB	049H
	DB	04aH
	DB	049H
	DB	04aH
	DB	029H
	DB	04aH
	DB	0e7H
	DB	039H
	DB	00H
	DB	00H
	DB	00H
	DB	00H
	DB	0afH
	DB	07bH
	DB	06dH
	DB	06bH
	DB	04dH
	DB	06bH
	DB	04dH
	DB	06bH
	DB	04dH
	DB	06bH
	DB	04dH
	DB	06bH
	DB	04dH
	DB	06bH
	DB	04dH
	DB	06bH
	DB	04dH
	DB	06bH
	DB	04dH
	DB	06bH
	DB	04dH
	DB	06bH
	DB	04dH
	DB	06bH
	DB	04dH
	DB	06bH
	DB	04dH
	DB	06bH
	DB	04dH
	DB	06bH
	DB	04dH
	DB	06bH
	DB	04dH
	DB	06bH
	DB	04dH
	DB	06bH
	DB	04dH
	DB	06bH
	DB	02cH
	DB	063H
	DB	029H
	DB	04aH
	DB	066H
	DB	031H
	DB	065H
	DB	029H
	DB	045H
	DB	029H
	DB	087H
	DB	039H
	DB	08aH
	DB	052H
	DB	04dH
	DB	06bH
	DB	04dH
	DB	06bH
	DB	04dH
	DB	06bH
	DB	04dH
	DB	06bH
	DB	0c7H
	DB	039H
	DB	065H
	DB	029H
	DB	0cH
	DB	063H
	DB	04dH
	DB	06bH
	DB	04dH
	DB	06bH
	DB	04dH
	DB	06bH
	DB	0a6H
	DB	031H
	DB	045H
	DB	029H
	DB	066H
	DB	031H
	DB	0cH
	DB	063H
	DB	04dH
	DB	06bH
	DB	04dH
	DB	06bH
	DB	04dH
	DB	06bH
	DB	04dH
	DB	06bH
	DB	04dH
	DB	06bH
	DB	04dH
	DB	06bH
	DB	04dH
	DB	06bH
	DB	04dH
	DB	06bH
	DB	04dH
	DB	06bH
	DB	04dH
	DB	06bH
	DB	04dH
	DB	06bH
	DB	04dH
	DB	06bH
	DB	04dH
	DB	06bH
	DB	04dH
	DB	06bH
	DB	04dH
	DB	06bH
	DB	06dH
	DB	06bH
	DB	0afH
	DB	07bH
	DB	00H
	DB	00H
	DB	00H
	DB	00H
	DB	00H
	DB	00H
	DB	02dH
	DB	06bH
	DB	04dH
	DB	06bH
	DB	02dH
	DB	06bH
	DB	02dH
	DB	06bH
	DB	04dH
	DB	06bH
	DB	04dH
	DB	06bH
	DB	00H
	DB	00H
	DB	00H
	DB	00H
	DB	00H
	DB	00H
	DB	08H
	DB	042H
	DB	049H
	DB	04aH
	DB	049H
	DB	04aH
	DB	049H
	DB	04aH
	DB	069H
	DB	04aH
	DB	069H
	DB	04aH
	DB	049H
	DB	04aH
	DB	049H
	DB	04aH
	DB	069H
	DB	04aH
	DB	049H
	DB	04aH
	DB	049H
	DB	04aH
	DB	069H
	DB	04aH
	DB	049H
	DB	04aH
	DB	049H
	DB	04aH
	DB	069H
	DB	04aH
	DB	069H
	DB	04aH
	DB	049H
	DB	04aH
	DB	069H
	DB	04aH
	DB	049H
	DB	04aH
	DB	08aH
	DB	052H
	DB	08aH
	DB	052H
	DB	049H
	DB	04aH
	DB	069H
	DB	04aH
	DB	069H
	DB	04aH
	DB	069H
	DB	04aH
	DB	069H
	DB	04aH
	DB	069H
	DB	04aH
	DB	049H
	DB	04aH
	DB	049H
	DB	04aH
	DB	049H
	DB	04aH
	DB	049H
	DB	04aH
	DB	069H
	DB	04aH
	DB	049H
	DB	04aH
	DB	049H
	DB	04aH
	DB	069H
	DB	04aH
	DB	049H
	DB	04aH
	DB	049H
	DB	04aH
	DB	049H
	DB	04aH
	DB	049H
	DB	04aH
	DB	049H
	DB	04aH
	DB	049H
	DB	04aH
	DB	069H
	DB	04aH
	DB	049H
	DB	04aH
	DB	049H
	DB	04aH
	DB	069H
	DB	04aH
	DB	049H
	DB	04aH
	DB	049H
	DB	04aH
	DB	069H
	DB	04aH
	DB	049H
	DB	04aH
	DB	049H
	DB	04aH
	DB	069H
	DB	04aH
	DB	049H
	DB	04aH
	DB	069H
	DB	04aH
	DB	049H
	DB	04aH
	DB	049H
	DB	04aH
	DB	049H
	DB	04aH
	DB	08H
	DB	042H
	DB	00H
	DB	00H
	DB	00H
	DB	00H
	DB	0afH
	DB	07bH
	DB	06dH
	DB	06bH
	DB	04dH
	DB	06bH
	DB	02dH
	DB	06bH
	DB	04dH
	DB	06bH
	DB	02dH
	DB	06bH
	DB	04dH
	DB	06bH
	DB	04dH
	DB	06bH
	DB	02dH
	DB	06bH
	DB	04dH
	DB	06bH
	DB	04dH
	DB	06bH
	DB	02dH
	DB	06bH
	DB	04dH
	DB	06bH
	DB	04dH
	DB	06bH
	DB	02dH
	DB	06bH
	DB	04dH
	DB	06bH
	DB	04dH
	DB	06bH
	DB	02dH
	DB	06bH
	DB	04dH
	DB	06bH
	DB	04dH
	DB	06bH
	DB	02dH
	DB	06bH
	DB	04dH
	DB	06bH
	DB	02cH
	DB	063H
	DB	0cH
	DB	063H
	DB	04dH
	DB	06bH
	DB	02dH
	DB	06bH
	DB	02dH
	DB	06bH
	DB	02dH
	DB	06bH
	DB	04dH
	DB	06bH
	DB	02dH
	DB	06bH
	DB	02dH
	DB	06bH
	DB	02dH
	DB	06bH
	DB	02dH
	DB	06bH
	DB	02dH
	DB	06bH
	DB	04dH
	DB	06bH
	DB	02dH
	DB	06bH
	DB	02dH
	DB	06bH
	DB	04dH
	DB	06bH
	DB	04dH
	DB	06bH
	DB	02dH
	DB	06bH
	DB	04dH
	DB	06bH
	DB	02dH
	DB	06bH
	DB	04dH
	DB	06bH
	DB	04dH
	DB	06bH
	DB	02dH
	DB	06bH
	DB	04dH
	DB	06bH
	DB	04dH
	DB	06bH
	DB	02dH
	DB	06bH
	DB	04dH
	DB	06bH
	DB	04dH
	DB	06bH
	DB	02dH
	DB	06bH
	DB	04dH
	DB	06bH
	DB	04dH
	DB	06bH
	DB	02dH
	DB	06bH
	DB	04dH
	DB	06bH
	DB	06dH
	DB	06bH
	DB	0afH
	DB	07bH
	DB	00H
	DB	00H
	DB	00H
	DB	00H
	DB	00H
	DB	00H
	DB	02dH
	DB	06bH
	DB	04dH
	DB	06bH
	DB	04dH
	DB	06bH
	DB	04dH
	DB	06bH
	DB	06dH
	DB	06bH
	DB	04dH
	DB	06bH
	DB	00H
	DB	00H
	DB	00H
	DB	00H
	DB	00H
	DB	00H
	DB	08H
	DB	042H
	DB	049H
	DB	04aH
	DB	049H
	DB	04aH
	DB	069H
	DB	04aH
	DB	06aH
	DB	052H
	DB	069H
	DB	04aH
	DB	069H
	DB	04aH
	DB	06aH
	DB	052H
	DB	069H
	DB	04aH
	DB	069H
	DB	04aH
	DB	06aH
	DB	052H
	DB	069H
	DB	04aH
	DB	069H
	DB	04aH
	DB	06aH
	DB	052H
	DB	069H
	DB	04aH
	DB	069H
	DB	04aH
	DB	06aH
	DB	052H
	DB	069H
	DB	04aH
	DB	069H
	DB	04aH
	DB	06aH
	DB	052H
	DB	069H
	DB	04aH
	DB	06aH
	DB	052H
	DB	06aH
	DB	052H
	DB	069H
	DB	04aH
	DB	06aH
	DB	052H
	DB	06aH
	DB	052H
	DB	069H
	DB	04aH
	DB	06aH
	DB	052H
	DB	06aH
	DB	052H
	DB	06aH
	DB	052H
	DB	06aH
	DB	052H
	DB	06aH
	DB	052H
	DB	06aH
	DB	052H
	DB	069H
	DB	04aH
	DB	06aH
	DB	052H
	DB	06aH
	DB	052H
	DB	069H
	DB	04aH
	DB	06aH
	DB	052H
	DB	06aH
	DB	052H
	DB	069H
	DB	04aH
	DB	06aH
	DB	052H
	DB	06aH
	DB	052H
	DB	069H
	DB	04aH
	DB	069H
	DB	04aH
	DB	06aH
	DB	052H
	DB	069H
	DB	04aH
	DB	069H
	DB	04aH
	DB	069H
	DB	04aH
	DB	06aH
	DB	052H
	DB	069H
	DB	04aH
	DB	069H
	DB	04aH
	DB	06aH
	DB	052H
	DB	069H
	DB	04aH
	DB	069H
	DB	04aH
	DB	049H
	DB	04aH
	DB	049H
	DB	04aH
	DB	08H
	DB	042H
	DB	00H
	DB	00H
	DB	00H
	DB	00H
	DB	0aeH
	DB	073H
	DB	04dH
	DB	06bH
	DB	04dH
	DB	06bH
	DB	02dH
	DB	06bH
	DB	02dH
	DB	06bH
	DB	02cH
	DB	063H
	DB	02dH
	DB	06bH
	DB	02dH
	DB	06bH
	DB	02cH
	DB	063H
	DB	02dH
	DB	06bH
	DB	02dH
	DB	06bH
	DB	02cH
	DB	063H
	DB	02dH
	DB	06bH
	DB	02dH
	DB	06bH
	DB	02cH
	DB	063H
	DB	02dH
	DB	06bH
	DB	02dH
	DB	06bH
	DB	02cH
	DB	063H
	DB	02dH
	DB	06bH
	DB	02dH
	DB	06bH
	DB	02cH
	DB	063H
	DB	02dH
	DB	06bH
	DB	02dH
	DB	06bH
	DB	02dH
	DB	06bH
	DB	02dH
	DB	06bH
	DB	02cH
	DB	063H
	DB	02dH
	DB	06bH
	DB	02dH
	DB	06bH
	DB	02cH
	DB	063H
	DB	02dH
	DB	06bH
	DB	02dH
	DB	06bH
	DB	04cH
	DB	063H
	DB	02dH
	DB	06bH
	DB	02dH
	DB	06bH
	DB	02cH
	DB	063H
	DB	02dH
	DB	06bH
	DB	02dH
	DB	06bH
	DB	02cH
	DB	063H
	DB	02dH
	DB	06bH
	DB	02cH
	DB	063H
	DB	02dH
	DB	06bH
	DB	02dH
	DB	06bH
	DB	02cH
	DB	063H
	DB	02dH
	DB	06bH
	DB	02dH
	DB	06bH
	DB	02cH
	DB	063H
	DB	02dH
	DB	06bH
	DB	02dH
	DB	06bH
	DB	02dH
	DB	06bH
	DB	02cH
	DB	063H
	DB	02dH
	DB	06bH
	DB	02dH
	DB	06bH
	DB	02dH
	DB	06bH
	DB	02dH
	DB	06bH
	DB	04dH
	DB	06bH
	DB	04dH
	DB	06bH
	DB	0afH
	DB	07bH
	DB	00H
	DB	00H
	DB	00H
	DB	00H
	DB	00H
	DB	00H
	DB	04dH
	DB	06bH
	DB	06dH
	DB	06bH
	DB	04dH
	DB	06bH
	DB	06dH
	DB	06bH
	DB	06eH
	DB	073H
	DB	06dH
	DB	06bH
	DB	00H
	DB	00H
	DB	00H
	DB	00H
	DB	00H
	DB	00H
	DB	08H
	DB	042H
	DB	049H
	DB	04aH
	DB	069H
	DB	04aH
	DB	06aH
	DB	052H
	DB	06aH
	DB	052H
	DB	069H
	DB	04aH
	DB	06aH
	DB	052H
	DB	06aH
	DB	052H
	DB	069H
	DB	04aH
	DB	06aH
	DB	052H
	DB	06aH
	DB	052H
	DB	069H
	DB	04aH
	DB	06aH
	DB	052H
	DB	06aH
	DB	052H
	DB	06aH
	DB	052H
	DB	06aH
	DB	052H
	DB	06aH
	DB	052H
	DB	069H
	DB	04aH
	DB	06aH
	DB	052H
	DB	06aH
	DB	052H
	DB	069H
	DB	04aH
	DB	06aH
	DB	052H
	DB	06aH
	DB	052H
	DB	069H
	DB	04aH
	DB	06aH
	DB	052H
	DB	06aH
	DB	052H
	DB	069H
	DB	04aH
	DB	069H
	DB	04aH
	DB	06aH
	DB	052H
	DB	069H
	DB	04aH
	DB	069H
	DB	04aH
	DB	06aH
	DB	052H
	DB	069H
	DB	04aH
	DB	06aH
	DB	052H
	DB	06aH
	DB	052H
	DB	069H
	DB	04aH
	DB	06aH
	DB	052H
	DB	06aH
	DB	052H
	DB	069H
	DB	04aH
	DB	06aH
	DB	052H
	DB	069H
	DB	04aH
	DB	06aH
	DB	052H
	DB	06aH
	DB	052H
	DB	06aH
	DB	052H
	DB	06aH
	DB	052H
	DB	06aH
	DB	052H
	DB	06aH
	DB	052H
	DB	06aH
	DB	052H
	DB	069H
	DB	04aH
	DB	06aH
	DB	052H
	DB	06aH
	DB	052H
	DB	06aH
	DB	052H
	DB	06aH
	DB	052H
	DB	06aH
	DB	052H
	DB	069H
	DB	04aH
	DB	049H
	DB	04aH
	DB	08H
	DB	042H
	DB	00H
	DB	00H
	DB	00H
	DB	00H
	DB	0aeH
	DB	073H
	DB	04dH
	DB	06bH
	DB	02dH
	DB	06bH
	DB	02cH
	DB	063H
	DB	02cH
	DB	063H
	DB	02dH
	DB	06bH
	DB	02cH
	DB	063H
	DB	02cH
	DB	063H
	DB	02cH
	DB	063H
	DB	02dH
	DB	06bH
	DB	02cH
	DB	063H
	DB	02cH
	DB	063H
	DB	02cH
	DB	063H
	DB	02dH
	DB	06bH
	DB	02cH
	DB	063H
	DB	02cH
	DB	063H
	DB	02cH
	DB	063H
	DB	02cH
	DB	063H
	DB	02cH
	DB	063H
	DB	02cH
	DB	063H
	DB	02cH
	DB	063H
	DB	02cH
	DB	063H
	DB	02dH
	DB	06bH
	DB	02cH
	DB	063H
	DB	02cH
	DB	063H
	DB	02cH
	DB	063H
	DB	02dH
	DB	06bH
	DB	02cH
	DB	063H
	DB	02cH
	DB	063H
	DB	02cH
	DB	063H
	DB	02cH
	DB	063H
	DB	02cH
	DB	063H
	DB	02dH
	DB	06bH
	DB	02cH
	DB	063H
	DB	02cH
	DB	063H
	DB	02cH
	DB	063H
	DB	02dH
	DB	06bH
	DB	02cH
	DB	063H
	DB	02cH
	DB	063H
	DB	02dH
	DB	06bH
	DB	02cH
	DB	063H
	DB	02cH
	DB	063H
	DB	02cH
	DB	063H
	DB	02cH
	DB	063H
	DB	02dH
	DB	06bH
	DB	02cH
	DB	063H
	DB	02cH
	DB	063H
	DB	02cH
	DB	063H
	DB	02cH
	DB	063H
	DB	02dH
	DB	06bH
	DB	02cH
	DB	063H
	DB	02cH
	DB	063H
	DB	02cH
	DB	063H
	DB	02cH
	DB	063H
	DB	04dH
	DB	06bH
	DB	04dH
	DB	06bH
	DB	0aeH
	DB	073H
	DB	00H
	DB	00H
	DB	00H
	DB	00H
	DB	00H
	DB	00H
	DB	06dH
	DB	06bH
	DB	06eH
	DB	073H
	DB	06dH
	DB	06bH
	DB	06eH
	DB	073H
	DB	08eH
	DB	073H
	DB	06eH
	DB	073H
	DB	00H
	DB	00H
	DB	00H
	DB	00H
	DB	00H
	DB	00H
	DB	028H
	DB	042H
	DB	049H
	DB	04aH
	DB	06aH
	DB	052H
	DB	06aH
	DB	052H
	DB	069H
	DB	04aH
	DB	06aH
	DB	052H
	DB	06aH
	DB	052H
	DB	06aH
	DB	052H
	DB	069H
	DB	04aH
	DB	06aH
	DB	052H
	DB	06aH
	DB	052H
	DB	06aH
	DB	052H
	DB	069H
	DB	04aH
	DB	06aH
	DB	052H
	DB	069H
	DB	04aH
	DB	06aH
	DB	052H
	DB	069H
	DB	04aH
	DB	06aH
	DB	052H
	DB	06aH
	DB	052H
	DB	069H
	DB	04aH
	DB	06aH
	DB	052H
	DB	069H
	DB	04aH
	DB	06aH
	DB	052H
	DB	069H
	DB	04aH
	DB	06aH
	DB	052H
	DB	06aH
	DB	052H
	DB	069H
	DB	04aH
	DB	06aH
	DB	052H
	DB	06aH
	DB	052H
	DB	069H
	DB	04aH
	DB	06aH
	DB	052H
	DB	06aH
	DB	052H
	DB	069H
	DB	04aH
	DB	06aH
	DB	052H
	DB	06aH
	DB	052H
	DB	069H
	DB	04aH
	DB	06aH
	DB	052H
	DB	069H
	DB	04aH
	DB	06aH
	DB	052H
	DB	06aH
	DB	052H
	DB	069H
	DB	04aH
	DB	069H
	DB	04aH
	DB	06aH
	DB	052H
	DB	069H
	DB	04aH
	DB	069H
	DB	04aH
	DB	06aH
	DB	052H
	DB	06aH
	DB	052H
	DB	069H
	DB	04aH
	DB	06aH
	DB	052H
	DB	06aH
	DB	052H
	DB	069H
	DB	04aH
	DB	069H
	DB	04aH
	DB	06aH
	DB	052H
	DB	06aH
	DB	052H
	DB	069H
	DB	04aH
	DB	049H
	DB	04aH
	DB	08H
	DB	042H
	DB	00H
	DB	00H
	DB	00H
	DB	00H
	DB	08eH
	DB	073H
	DB	04dH
	DB	06bH
	DB	02dH
	DB	06bH
	DB	02cH
	DB	063H
	DB	02cH
	DB	063H
	DB	02dH
	DB	06bH
	DB	02cH
	DB	063H
	DB	02cH
	DB	063H
	DB	02dH
	DB	06bH
	DB	02cH
	DB	063H
	DB	02cH
	DB	063H
	DB	02dH
	DB	06bH
	DB	02cH
	DB	063H
	DB	02cH
	DB	063H
	DB	02dH
	DB	06bH
	DB	02cH
	DB	063H
	DB	02dH
	DB	06bH
	DB	02dH
	DB	06bH
	DB	02cH
	DB	063H
	DB	02dH
	DB	06bH
	DB	02dH
	DB	06bH
	DB	02cH
	DB	063H
	DB	02cH
	DB	063H
	DB	02cH
	DB	063H
	DB	02dH
	DB	06bH
	DB	02cH
	DB	063H
	DB	02cH
	DB	063H
	DB	02dH
	DB	06bH
	DB	02cH
	DB	063H
	DB	02dH
	DB	06bH
	DB	02cH
	DB	063H
	DB	02dH
	DB	06bH
	DB	02cH
	DB	063H
	DB	02cH
	DB	063H
	DB	02dH
	DB	06bH
	DB	02cH
	DB	063H
	DB	02cH
	DB	063H
	DB	02dH
	DB	06bH
	DB	02cH
	DB	063H
	DB	02cH
	DB	063H
	DB	02dH
	DB	06bH
	DB	02cH
	DB	063H
	DB	02cH
	DB	063H
	DB	02dH
	DB	06bH
	DB	02cH
	DB	063H
	DB	02cH
	DB	063H
	DB	02dH
	DB	06bH
	DB	02cH
	DB	063H
	DB	02cH
	DB	063H
	DB	02dH
	DB	06bH
	DB	02cH
	DB	063H
	DB	02cH
	DB	063H
	DB	02cH
	DB	063H
	DB	02cH
	DB	063H
	DB	02dH
	DB	06bH
	DB	04dH
	DB	06bH
	DB	08eH
	DB	073H
	DB	00H
	DB	00H
	DB	00H
	DB	00H
	DB	00H
	DB	00H
	DB	06eH
	DB	073H
	DB	08eH
	DB	073H
	DB	06eH
	DB	073H
	DB	08eH
	DB	073H
	DB	08eH
	DB	073H
	DB	08eH
	DB	073H
	DB	00H
	DB	00H
	DB	00H
	DB	00H
	DB	00H
	DB	00H
	DB	028H
	DB	042H
	DB	069H
	DB	04aH
	DB	06aH
	DB	052H
	DB	08aH
	DB	052H
	DB	08aH
	DB	052H
	DB	06aH
	DB	052H
	DB	08aH
	DB	052H
	DB	089H
	DB	04aH
	DB	06aH
	DB	052H
	DB	08aH
	DB	052H
	DB	08aH
	DB	052H
	DB	06aH
	DB	052H
	DB	08aH
	DB	052H
	DB	089H
	DB	04aH
	DB	06aH
	DB	052H
	DB	06aH
	DB	052H
	DB	08aH
	DB	052H
	DB	06aH
	DB	052H
	DB	06aH
	DB	052H
	DB	08aH
	DB	052H
	DB	06aH
	DB	052H
	DB	06aH
	DB	052H
	DB	08aH
	DB	052H
	DB	06aH
	DB	052H
	DB	06aH
	DB	052H
	DB	08aH
	DB	052H
	DB	06aH
	DB	052H
	DB	08aH
	DB	052H
	DB	08aH
	DB	052H
	DB	06aH
	DB	052H
	DB	08aH
	DB	052H
	DB	08aH
	DB	052H
	DB	06aH
	DB	052H
	DB	08aH
	DB	052H
	DB	08aH
	DB	052H
	DB	06aH
	DB	052H
	DB	08aH
	DB	052H
	DB	08aH
	DB	052H
	DB	08aH
	DB	052H
	DB	08aH
	DB	052H
	DB	06aH
	DB	052H
	DB	08aH
	DB	052H
	DB	08aH
	DB	052H
	DB	06aH
	DB	052H
	DB	08aH
	DB	052H
	DB	08aH
	DB	052H
	DB	069H
	DB	04aH
	DB	08aH
	DB	052H
	DB	08aH
	DB	052H
	DB	06aH
	DB	052H
	DB	08aH
	DB	052H
	DB	08aH
	DB	052H
	DB	06aH
	DB	052H
	DB	08aH
	DB	052H
	DB	06aH
	DB	052H
	DB	049H
	DB	04aH
	DB	028H
	DB	042H
	DB	00H
	DB	00H
	DB	00H
	DB	00H
	DB	0aeH
	DB	073H
	DB	04dH
	DB	06bH
	DB	02dH
	DB	06bH
	DB	02cH
	DB	063H
	DB	02dH
	DB	06bH
	DB	02cH
	DB	063H
	DB	02dH
	DB	06bH
	DB	02cH
	DB	063H
	DB	02dH
	DB	06bH
	DB	02cH
	DB	063H
	DB	02dH
	DB	06bH
	DB	02cH
	DB	063H
	DB	02dH
	DB	06bH
	DB	02cH
	DB	063H
	DB	02cH
	DB	063H
	DB	02dH
	DB	06bH
	DB	02cH
	DB	063H
	DB	02cH
	DB	063H
	DB	02dH
	DB	06bH
	DB	02cH
	DB	063H
	DB	02cH
	DB	063H
	DB	02dH
	DB	06bH
	DB	02cH
	DB	063H
	DB	02dH
	DB	06bH
	DB	02dH
	DB	06bH
	DB	02cH
	DB	063H
	DB	02cH
	DB	063H
	DB	02dH
	DB	06bH
	DB	02cH
	DB	063H
	DB	02cH
	DB	063H
	DB	02dH
	DB	06bH
	DB	02cH
	DB	063H
	DB	02cH
	DB	063H
	DB	02dH
	DB	06bH
	DB	02dH
	DB	06bH
	DB	02cH
	DB	063H
	DB	02cH
	DB	063H
	DB	02dH
	DB	06bH
	DB	02cH
	DB	063H
	DB	02cH
	DB	063H
	DB	02dH
	DB	06bH
	DB	02dH
	DB	06bH
	DB	02cH
	DB	063H
	DB	02dH
	DB	06bH
	DB	02cH
	DB	063H
	DB	02cH
	DB	063H
	DB	02dH
	DB	06bH
	DB	02dH
	DB	06bH
	DB	02cH
	DB	063H
	DB	02cH
	DB	063H
	DB	02dH
	DB	06bH
	DB	02dH
	DB	06bH
	DB	02dH
	DB	06bH
	DB	02cH
	DB	063H
	DB	02dH
	DB	06bH
	DB	04dH
	DB	06bH
	DB	08eH
	DB	073H
	DB	00H
	DB	00H
	DB	00H
	DB	00H
	DB	00H
	DB	00H
	DB	08eH
	DB	073H
	DB	08eH
	DB	073H
	DB	08eH
	DB	073H
	DB	08eH
	DB	073H
	DB	0aeH
	DB	073H
	DB	08eH
	DB	073H
	DB	00H
	DB	00H
	DB	00H
	DB	00H
	DB	00H
	DB	00H
	DB	028H
	DB	042H
	DB	049H
	DB	04aH
	DB	069H
	DB	04aH
	DB	06aH
	DB	052H
	DB	08aH
	DB	052H
	DB	069H
	DB	04aH
	DB	06aH
	DB	052H
	DB	08aH
	DB	052H
	DB	06aH
	DB	052H
	DB	089H
	DB	04aH
	DB	069H
	DB	04aH
	DB	06aH
	DB	052H
	DB	08aH
	DB	052H
	DB	08aH
	DB	052H
	DB	06aH
	DB	052H
	DB	08aH
	DB	052H
	DB	089H
	DB	04aH
	DB	08aH
	DB	052H
	DB	069H
	DB	04aH
	DB	08aH
	DB	052H
	DB	08aH
	DB	052H
	DB	069H
	DB	04aH
	DB	08aH
	DB	052H
	DB	08aH
	DB	052H
	DB	069H
	DB	04aH
	DB	08aH
	DB	052H
	DB	06aH
	DB	052H
	DB	069H
	DB	04aH
	DB	08aH
	DB	052H
	DB	06aH
	DB	052H
	DB	089H
	DB	04aH
	DB	06aH
	DB	052H
	DB	089H
	DB	04aH
	DB	069H
	DB	04aH
	DB	08aH
	DB	052H
	DB	069H
	DB	04aH
	DB	06aH
	DB	052H
	DB	08aH
	DB	052H
	DB	069H
	DB	04aH
	DB	06aH
	DB	052H
	DB	08aH
	DB	052H
	DB	06aH
	DB	052H
	DB	089H
	DB	04aH
	DB	06aH
	DB	052H
	DB	08aH
	DB	052H
	DB	06aH
	DB	052H
	DB	06aH
	DB	052H
	DB	08aH
	DB	052H
	DB	069H
	DB	04aH
	DB	06aH
	DB	052H
	DB	08aH
	DB	052H
	DB	069H
	DB	04aH
	DB	08aH
	DB	052H
	DB	08aH
	DB	052H
	DB	069H
	DB	04aH
	DB	049H
	DB	04aH
	DB	08H
	DB	042H
	DB	00H
	DB	00H
	DB	00H
	DB	00H
	DB	0cfH
	DB	07bH
	DB	06eH
	DB	073H
	DB	04dH
	DB	06bH
	DB	04dH
	DB	06bH
	DB	04dH
	DB	06bH
	DB	04dH
	DB	06bH
	DB	04dH
	DB	06bH
	DB	04dH
	DB	06bH
	DB	04dH
	DB	06bH
	DB	04dH
	DB	06bH
	DB	04dH
	DB	06bH
	DB	04dH
	DB	06bH
	DB	04dH
	DB	06bH
	DB	04dH
	DB	06bH
	DB	04dH
	DB	06bH
	DB	04dH
	DB	06bH
	DB	04dH
	DB	06bH
	DB	04dH
	DB	06bH
	DB	04dH
	DB	06bH
	DB	04dH
	DB	06bH
	DB	04dH
	DB	06bH
	DB	04dH
	DB	06bH
	DB	04dH
	DB	06bH
	DB	04dH
	DB	06bH
	DB	04dH
	DB	06bH
	DB	04dH
	DB	06bH
	DB	04dH
	DB	06bH
	DB	04dH
	DB	06bH
	DB	04dH
	DB	06bH
	DB	04dH
	DB	06bH
	DB	04dH
	DB	06bH
	DB	04dH
	DB	06bH
	DB	04dH
	DB	06bH
	DB	04dH
	DB	06bH
	DB	04dH
	DB	06bH
	DB	04dH
	DB	06bH
	DB	04dH
	DB	06bH
	DB	04dH
	DB	06bH
	DB	04dH
	DB	06bH
	DB	04dH
	DB	06bH
	DB	04dH
	DB	06bH
	DB	04dH
	DB	06bH
	DB	04dH
	DB	06bH
	DB	04dH
	DB	06bH
	DB	04dH
	DB	06bH
	DB	04dH
	DB	06bH
	DB	04dH
	DB	06bH
	DB	04dH
	DB	06bH
	DB	04dH
	DB	06bH
	DB	04dH
	DB	06bH
	DB	04dH
	DB	06bH
	DB	04dH
	DB	06bH
	DB	04dH
	DB	06bH
	DB	04dH
	DB	06bH
	DB	04dH
	DB	06bH
	DB	06eH
	DB	073H
	DB	0cfH
	DB	07bH
	DB	00H
	DB	00H
	DB	00H
	DB	00H
	DB	00H
	DB	00H
	DB	08eH
	DB	073H
	DB	0aeH
	DB	073H
	DB	08eH
	DB	073H
	DB	08eH
	DB	073H
	DB	0afH
	DB	07bH
	DB	08eH
	DB	073H
	DB	00H
	DB	00H
	DB	00H
	DB	00H
	DB	00H
	DB	00H
	DB	08H
	DB	042H
	DB	049H
	DB	04aH
	DB	06aH
	DB	052H
	DB	06aH
	DB	052H
	DB	08aH
	DB	052H
	DB	08aH
	DB	052H
	DB	08aH
	DB	052H
	DB	08aH
	DB	052H
	DB	08aH
	DB	052H
	DB	08aH
	DB	052H
	DB	08aH
	DB	052H
	DB	08aH
	DB	052H
	DB	08aH
	DB	052H
	DB	08aH
	DB	052H
	DB	08aH
	DB	052H
	DB	08aH
	DB	052H
	DB	08aH
	DB	052H
	DB	08aH
	DB	052H
	DB	08aH
	DB	052H
	DB	08aH
	DB	052H
	DB	08aH
	DB	052H
	DB	08aH
	DB	052H
	DB	08aH
	DB	052H
	DB	08aH
	DB	052H
	DB	08aH
	DB	052H
	DB	08aH
	DB	052H
	DB	08aH
	DB	052H
	DB	08aH
	DB	052H
	DB	08aH
	DB	052H
	DB	08aH
	DB	052H
	DB	08aH
	DB	052H
	DB	08aH
	DB	052H
	DB	08aH
	DB	052H
	DB	08aH
	DB	052H
	DB	08aH
	DB	052H
	DB	08aH
	DB	052H
	DB	08aH
	DB	052H
	DB	08aH
	DB	052H
	DB	08aH
	DB	052H
	DB	08aH
	DB	052H
	DB	08aH
	DB	052H
	DB	08aH
	DB	052H
	DB	08aH
	DB	052H
	DB	08aH
	DB	052H
	DB	08aH
	DB	052H
	DB	089H
	DB	04aH
	DB	08aH
	DB	052H
	DB	08aH
	DB	052H
	DB	08aH
	DB	052H
	DB	08aH
	DB	052H
	DB	08aH
	DB	052H
	DB	08aH
	DB	052H
	DB	08aH
	DB	052H
	DB	069H
	DB	04aH
	DB	069H
	DB	04aH
	DB	049H
	DB	04aH
	DB	08H
	DB	042H
	DB	00H
	DB	00H
	DB	00H
	DB	00H
	DB	0f0H
	DB	083H
	DB	0afH
	DB	07bH
	DB	08eH
	DB	073H
	DB	08eH
	DB	073H
	DB	08eH
	DB	073H
	DB	08eH
	DB	073H
	DB	08eH
	DB	073H
	DB	08eH
	DB	073H
	DB	08eH
	DB	073H
	DB	08eH
	DB	073H
	DB	08eH
	DB	073H
	DB	08eH
	DB	073H
	DB	08eH
	DB	073H
	DB	08eH
	DB	073H
	DB	08eH
	DB	073H
	DB	08eH
	DB	073H
	DB	08eH
	DB	073H
	DB	08eH
	DB	073H
	DB	08eH
	DB	073H
	DB	08eH
	DB	073H
	DB	08eH
	DB	073H
	DB	08eH
	DB	073H
	DB	08eH
	DB	073H
	DB	08eH
	DB	073H
	DB	08eH
	DB	073H
	DB	08eH
	DB	073H
	DB	08eH
	DB	073H
	DB	08eH
	DB	073H
	DB	08eH
	DB	073H
	DB	08eH
	DB	073H
	DB	08eH
	DB	073H
	DB	08eH
	DB	073H
	DB	08eH
	DB	073H
	DB	08eH
	DB	073H
	DB	08eH
	DB	073H
	DB	08eH
	DB	073H
	DB	08eH
	DB	073H
	DB	08eH
	DB	073H
	DB	08eH
	DB	073H
	DB	08eH
	DB	073H
	DB	08eH
	DB	073H
	DB	08eH
	DB	073H
	DB	08eH
	DB	073H
	DB	08eH
	DB	073H
	DB	08eH
	DB	073H
	DB	08eH
	DB	073H
	DB	08eH
	DB	073H
	DB	08eH
	DB	073H
	DB	08eH
	DB	073H
	DB	08eH
	DB	073H
	DB	08eH
	DB	073H
	DB	08eH
	DB	073H
	DB	08eH
	DB	073H
	DB	08eH
	DB	073H
	DB	08eH
	DB	073H
	DB	0aeH
	DB	073H
	DB	010H
	DB	084H
	DB	00H
	DB	00H
	DB	00H
	DB	00H
	DB	00H
	DB	00H
	DB	08eH
	DB	073H
	DB	0afH
	DB	07bH
	DB	0aeH
	DB	073H
	DB	0aeH
	DB	073H
	DB	0cfH
	DB	07bH
	DB	0aeH
	DB	073H
	DB	00H
	DB	00H
	DB	00H
	DB	00H
	DB	00H
	DB	00H
	DB	08H
	DB	042H
	DB	049H
	DB	04aH
	DB	069H
	DB	04aH
	DB	069H
	DB	04aH
	DB	06aH
	DB	052H
	DB	08aH
	DB	052H
	DB	08aH
	DB	052H
	DB	08aH
	DB	052H
	DB	08aH
	DB	052H
	DB	06aH
	DB	052H
	DB	08aH
	DB	052H
	DB	08aH
	DB	052H
	DB	06aH
	DB	052H
	DB	089H
	DB	04aH
	DB	08aH
	DB	052H
	DB	06aH
	DB	052H
	DB	06aH
	DB	052H
	DB	08aH
	DB	052H
	DB	08aH
	DB	052H
	DB	06aH
	DB	052H
	DB	08aH
	DB	052H
	DB	08aH
	DB	052H
	DB	06aH
	DB	052H
	DB	089H
	DB	04aH
	DB	08aH
	DB	052H
	DB	06aH
	DB	052H
	DB	08aH
	DB	052H
	DB	08aH
	DB	052H
	DB	08aH
	DB	052H
	DB	06aH
	DB	052H
	DB	08aH
	DB	052H
	DB	08aH
	DB	052H
	DB	06aH
	DB	052H
	DB	08aH
	DB	052H
	DB	08aH
	DB	052H
	DB	08aH
	DB	052H
	DB	08aH
	DB	052H
	DB	08aH
	DB	052H
	DB	08aH
	DB	052H
	DB	089H
	DB	04aH
	DB	06aH
	DB	052H
	DB	08aH
	DB	052H
	DB	08aH
	DB	052H
	DB	06aH
	DB	052H
	DB	08aH
	DB	052H
	DB	08aH
	DB	052H
	DB	08aH
	DB	052H
	DB	08aH
	DB	052H
	DB	08aH
	DB	052H
	DB	08aH
	DB	052H
	DB	06aH
	DB	052H
	DB	08aH
	DB	052H
	DB	06aH
	DB	052H
	DB	06aH
	DB	052H
	DB	069H
	DB	04aH
	DB	049H
	DB	04aH
	DB	08H
	DB	042H
	DB	00H
	DB	00H
	DB	00H
	DB	00H
	DB	030H
	DB	084H
	DB	0efH
	DB	07bH
	DB	0efH
	DB	07bH
	DB	0cfH
	DB	07bH
	DB	0cfH
	DB	07bH
	DB	0cfH
	DB	07bH
	DB	0cfH
	DB	07bH
	DB	0cfH
	DB	07bH
	DB	0cfH
	DB	07bH
	DB	0cfH
	DB	07bH
	DB	0cfH
	DB	07bH
	DB	0cfH
	DB	07bH
	DB	0cfH
	DB	07bH
	DB	0cfH
	DB	07bH
	DB	0cfH
	DB	07bH
	DB	0cfH
	DB	07bH
	DB	0cfH
	DB	07bH
	DB	0cfH
	DB	07bH
	DB	0cfH
	DB	07bH
	DB	0cfH
	DB	07bH
	DB	0cfH
	DB	07bH
	DB	0cfH
	DB	07bH
	DB	0cfH
	DB	07bH
	DB	0cfH
	DB	07bH
	DB	0cfH
	DB	07bH
	DB	0cfH
	DB	07bH
	DB	0cfH
	DB	07bH
	DB	0cfH
	DB	07bH
	DB	0cfH
	DB	07bH
	DB	0cfH
	DB	07bH
	DB	0cfH
	DB	07bH
	DB	0cfH
	DB	07bH
	DB	0cfH
	DB	07bH
	DB	0cfH
	DB	07bH
	DB	0cfH
	DB	07bH
	DB	0cfH
	DB	07bH
	DB	0cfH
	DB	07bH
	DB	0cfH
	DB	07bH
	DB	0cfH
	DB	07bH
	DB	0cfH
	DB	07bH
	DB	0cfH
	DB	07bH
	DB	0cfH
	DB	07bH
	DB	0cfH
	DB	07bH
	DB	0cfH
	DB	07bH
	DB	0cfH
	DB	07bH
	DB	0cfH
	DB	07bH
	DB	0cfH
	DB	07bH
	DB	0cfH
	DB	07bH
	DB	0cfH
	DB	07bH
	DB	0cfH
	DB	07bH
	DB	0cfH
	DB	07bH
	DB	0cfH
	DB	07bH
	DB	0cfH
	DB	07bH
	DB	0cfH
	DB	07bH
	DB	0efH
	DB	07bH
	DB	0f0H
	DB	083H
	DB	010H
	DB	084H
	DB	00H
	DB	00H
	DB	00H
	DB	00H
	DB	00H
	DB	00H
	DB	0aeH
	DB	073H
	DB	0cfH
	DB	07bH
	DB	0aeH
	DB	073H
	DB	0afH
	DB	07bH
	DB	0cfH
	DB	07bH
	DB	0afH
	DB	07bH
	DB	00H
	DB	00H
	DB	00H
	DB	00H
	DB	00H
	DB	00H
	DB	021H
	DB	00H
	DB	021H
	DB	00H
	DB	021H
	DB	00H
	DB	021H
	DB	00H
	DB	021H
	DB	00H
	DB	021H
	DB	00H
	DB	020H
	DB	00H
	DB	021H
	DB	00H
	DB	021H
	DB	00H
	DB	021H
	DB	00H
	DB	020H
	DB	00H
	DB	021H
	DB	00H
	DB	021H
	DB	00H
	DB	021H
	DB	00H
	DB	021H
	DB	00H
	DB	021H
	DB	00H
	DB	020H
	DB	00H
	DB	021H
	DB	00H
	DB	021H
	DB	00H
	DB	020H
	DB	00H
	DB	021H
	DB	00H
	DB	021H
	DB	00H
	DB	021H
	DB	00H
	DB	021H
	DB	00H
	DB	021H
	DB	00H
	DB	021H
	DB	00H
	DB	020H
	DB	00H
	DB	021H
	DB	00H
	DB	021H
	DB	00H
	DB	020H
	DB	00H
	DB	021H
	DB	00H
	DB	021H
	DB	00H
	DB	021H
	DB	00H
	DB	021H
	DB	00H
	DB	021H
	DB	00H
	DB	020H
	DB	00H
	DB	021H
	DB	00H
	DB	021H
	DB	00H
	DB	021H
	DB	00H
	DB	021H
	DB	00H
	DB	021H
	DB	00H
	DB	021H
	DB	00H
	DB	020H
	DB	00H
	DB	021H
	DB	00H
	DB	021H
	DB	00H
	DB	021H
	DB	00H
	DB	021H
	DB	00H
	DB	020H
	DB	00H
	DB	021H
	DB	00H
	DB	021H
	DB	00H
	DB	020H
	DB	00H
	DB	021H
	DB	00H
	DB	021H
	DB	00H
	DB	021H
	DB	00H
	DB	021H
	DB	00H
	DB	021H
	DB	00H
	DB	021H
	DB	00H
	DB	00H
	DB	00H
	DB	00H
	DB	00H
	DB	00H
	DB	00H
	DB	00H
	DB	00H
	DB	00H
	DB	00H
	DB	00H
	DB	00H
	DB	00H
	DB	00H
	DB	00H
	DB	00H
	DB	00H
	DB	00H
	DB	00H
	DB	00H
	DB	00H
	DB	00H
	DB	00H
	DB	00H
	DB	00H
	DB	00H
	DB	00H
	DB	00H
	DB	00H
	DB	00H
	DB	00H
	DB	00H
	DB	00H
	DB	00H
	DB	00H
	DB	00H
	DB	00H
	DB	00H
	DB	00H
	DB	00H
	DB	00H
	DB	00H
	DB	00H
	DB	00H
	DB	00H
	DB	00H
	DB	00H
	DB	00H
	DB	00H
	DB	00H
	DB	00H
	DB	00H
	DB	00H
	DB	00H
	DB	00H
	DB	00H
	DB	00H
	DB	00H
	DB	00H
	DB	00H
	DB	00H
	DB	00H
	DB	00H
	DB	00H
	DB	00H
	DB	00H
	DB	00H
	DB	00H
	DB	00H
	DB	00H
	DB	00H
	DB	00H
	DB	00H
	DB	00H
	DB	00H
	DB	00H
	DB	00H
	DB	00H
	DB	00H
	DB	00H
	DB	00H
	DB	00H
	DB	00H
	DB	00H
	DB	00H
	DB	00H
	DB	00H
	DB	00H
	DB	00H
	DB	00H
	DB	00H
	DB	00H
	DB	00H
	DB	00H
	DB	00H
	DB	00H
	DB	00H
	DB	00H
	DB	00H
	DB	00H
	DB	00H
	DB	00H
	DB	00H
	DB	00H
	DB	00H
	DB	00H
	DB	00H
	DB	00H
	DB	00H
	DB	00H
	DB	00H
	DB	00H
	DB	00H
	DB	00H
	DB	00H
	DB	00H
	DB	00H
	DB	00H
	DB	00H
	DB	00H
	DB	00H
	DB	00H
	DB	00H
	DB	00H
	DB	0afH
	DB	07bH
	DB	0cfH
	DB	07bH
	DB	0afH
	DB	07bH
	DB	0cfH
	DB	07bH
	DB	0cfH
	DB	07bH
	DB	0cfH
	DB	07bH
	DB	00H
	DB	00H
	DB	00H
	DB	00H
	DB	00H
	DB	00H
	DB	00H
	DB	00H
	DB	00H
	DB	00H
	DB	00H
	DB	00H
	DB	00H
	DB	00H
	DB	00H
	DB	00H
	DB	00H
	DB	00H
	DB	00H
	DB	00H
	DB	00H
	DB	00H
	DB	00H
	DB	00H
	DB	00H
	DB	00H
	DB	00H
	DB	00H
	DB	00H
	DB	00H
	DB	00H
	DB	00H
	DB	00H
	DB	00H
	DB	00H
	DB	00H
	DB	00H
	DB	00H
	DB	00H
	DB	00H
	DB	00H
	DB	00H
	DB	00H
	DB	00H
	DB	00H
	DB	00H
	DB	00H
	DB	00H
	DB	00H
	DB	00H
	DB	00H
	DB	00H
	DB	00H
	DB	00H
	DB	00H
	DB	00H
	DB	00H
	DB	00H
	DB	00H
	DB	00H
	DB	00H
	DB	00H
	DB	00H
	DB	00H
	DB	00H
	DB	00H
	DB	00H
	DB	00H
	DB	00H
	DB	00H
	DB	00H
	DB	00H
	DB	00H
	DB	00H
	DB	00H
	DB	00H
	DB	00H
	DB	00H
	DB	00H
	DB	00H
	DB	00H
	DB	00H
	DB	00H
	DB	00H
	DB	00H
	DB	00H
	DB	00H
	DB	00H
	DB	00H
	DB	00H
	DB	00H
	DB	00H
	DB	00H
	DB	00H
	DB	00H
	DB	00H
	DB	00H
	DB	00H
	DB	00H
	DB	00H
	DB	00H
	DB	00H
	DB	00H
	DB	00H
	DB	00H
	DB	00H
	DB	00H
	DB	00H
	DB	00H
	DB	00H
	DB	00H
	DB	00H
	DB	00H
	DB	00H
	DB	00H
	DB	00H
	DB	00H
	DB	00H
	DB	00H
	DB	00H
	DB	00H
	DB	00H
	DB	00H
	DB	00H
	DB	00H
	DB	00H
	DB	00H
	DB	00H
	DB	00H
	DB	00H
	DB	00H
	DB	00H
	DB	00H
	DB	00H
	DB	00H
	DB	00H
	DB	00H
	DB	00H
	DB	00H
	DB	00H
	DB	00H
	DB	00H
	DB	00H
	DB	00H
	DB	00H
	DB	00H
	DB	00H
	DB	00H
	DB	00H
	DB	00H
	DB	00H
	DB	00H
	DB	00H
	DB	00H
	DB	00H
	DB	00H
	DB	00H
	DB	00H
	DB	00H
	DB	00H
	DB	00H
	DB	00H
	DB	00H
	DB	00H
	DB	00H
	DB	00H
	DB	00H
	DB	00H
	DB	00H
	DB	00H
	DB	00H
	DB	00H
	DB	00H
	DB	00H
	DB	00H
	DB	00H
	DB	00H
	DB	00H
	DB	00H
	DB	00H
	DB	00H
	DB	00H
	DB	00H
	DB	00H
	DB	00H
	DB	00H
	DB	00H
	DB	00H
	DB	00H
	DB	00H
	DB	00H
	DB	00H
	DB	00H
	DB	00H
	DB	00H
	DB	00H
	DB	00H
	DB	00H
	DB	00H
	DB	00H
	DB	00H
	DB	00H
	DB	00H
	DB	00H
	DB	00H
	DB	00H
	DB	00H
	DB	00H
	DB	00H
	DB	00H
	DB	00H
	DB	00H
	DB	00H
	DB	00H
	DB	00H
	DB	00H
	DB	00H
	DB	00H
	DB	00H
	DB	00H
	DB	00H
	DB	00H
	DB	00H
	DB	00H
	DB	00H
	DB	00H
	DB	00H
	DB	00H
	DB	00H
	DB	00H
	DB	00H
	DB	00H
	DB	00H
	DB	00H
	DB	00H
	DB	00H
	DB	00H
	DB	00H
	DB	00H
	DB	00H
	DB	00H
	DB	00H
	DB	00H
	DB	00H
	DB	0cfH
	DB	07bH
	DB	0cfH
	DB	07bH
	DB	0cfH
	DB	07bH
	DB	0cfH
	DB	07bH
	DB	0efH
	DB	07bH
	DB	0efH
	DB	07bH
	DB	00H
	DB	00H
	DB	00H
	DB	00H
	DB	00H
	DB	00H
	DB	00H
	DB	00H
	DB	00H
	DB	00H
	DB	00H
	DB	00H
	DB	00H
	DB	00H
	DB	00H
	DB	00H
	DB	00H
	DB	00H
	DB	00H
	DB	00H
	DB	00H
	DB	00H
	DB	00H
	DB	00H
	DB	00H
	DB	00H
	DB	00H
	DB	00H
	DB	00H
	DB	00H
	DB	00H
	DB	00H
	DB	00H
	DB	00H
	DB	00H
	DB	00H
	DB	00H
	DB	00H
	DB	00H
	DB	00H
	DB	00H
	DB	00H
	DB	00H
	DB	00H
	DB	00H
	DB	00H
	DB	00H
	DB	00H
	DB	00H
	DB	00H
	DB	00H
	DB	00H
	DB	00H
	DB	00H
	DB	00H
	DB	00H
	DB	00H
	DB	00H
	DB	00H
	DB	00H
	DB	00H
	DB	00H
	DB	00H
	DB	00H
	DB	00H
	DB	00H
	DB	00H
	DB	00H
	DB	00H
	DB	00H
	DB	00H
	DB	00H
	DB	00H
	DB	00H
	DB	00H
	DB	00H
	DB	00H
	DB	00H
	DB	00H
	DB	00H
	DB	00H
	DB	00H
	DB	00H
	DB	00H
	DB	00H
	DB	00H
	DB	00H
	DB	00H
	DB	00H
	DB	00H
	DB	00H
	DB	00H
	DB	00H
	DB	00H
	DB	00H
	DB	00H
	DB	00H
	DB	00H
	DB	00H
	DB	00H
	DB	00H
	DB	00H
	DB	00H
	DB	00H
	DB	00H
	DB	00H
	DB	00H
	DB	00H
	DB	00H
	DB	00H
	DB	00H
	DB	00H
	DB	00H
	DB	00H
	DB	00H
	DB	00H
	DB	00H
	DB	00H
	DB	00H
	DB	00H
	DB	00H
	DB	00H
	DB	00H
	DB	00H
	DB	00H
	DB	00H
	DB	00H
	DB	00H
	DB	00H
	DB	00H
	DB	00H
	DB	00H
	DB	00H
	DB	00H
	DB	00H
	DB	00H
	DB	00H
	DB	00H
	DB	00H
	DB	00H
	DB	00H
	DB	00H
	DB	00H
	DB	00H
	DB	00H
	DB	00H
	DB	00H
	DB	00H
	DB	00H
	DB	00H
	DB	00H
	DB	00H
	DB	00H
	DB	00H
	DB	00H
	DB	00H
	DB	00H
	DB	00H
	DB	00H
	DB	00H
	DB	00H
	DB	00H
	DB	00H
	DB	00H
	DB	00H
	DB	00H
	DB	00H
	DB	00H
	DB	00H
	DB	00H
	DB	00H
	DB	00H
	DB	00H
	DB	00H
	DB	00H
	DB	00H
	DB	00H
	DB	00H
	DB	00H
	DB	00H
	DB	00H
	DB	00H
	DB	00H
	DB	00H
	DB	00H
	DB	00H
	DB	00H
	DB	00H
	DB	00H
	DB	00H
	DB	00H
	DB	00H
	DB	00H
	DB	00H
	DB	00H
	DB	00H
	DB	00H
	DB	00H
	DB	00H
	DB	00H
	DB	00H
	DB	00H
	DB	00H
	DB	00H
	DB	00H
	DB	00H
	DB	00H
	DB	00H
	DB	00H
	DB	00H
	DB	00H
	DB	00H
	DB	00H
	DB	00H
	DB	00H
	DB	00H
	DB	00H
	DB	00H
	DB	00H
	DB	00H
	DB	00H
	DB	00H
	DB	00H
	DB	00H
	DB	00H
	DB	00H
	DB	00H
	DB	00H
	DB	00H
	DB	00H
	DB	00H
	DB	00H
	DB	00H
	DB	00H
	DB	00H
	DB	00H
	DB	00H
	DB	00H
	DB	00H
	DB	00H
	DB	00H
	DB	00H
	DB	00H
	DB	00H
	DB	0efH
	DB	07bH
	DB	0f0H
	DB	083H
	DB	0cfH
	DB	07bH
	DB	0cfH
	DB	07bH
	DB	010H
	DB	084H
	DB	010H
	DB	084H
	DB	0efH
	DB	083H
	DB	0cfH
	DB	07bH
	DB	0aeH
	DB	073H
	DB	08eH
	DB	073H
	DB	0aeH
	DB	073H
	DB	0aeH
	DB	07bH
	DB	0aeH
	DB	073H
	DB	0aeH
	DB	073H
	DB	0aeH
	DB	073H
	DB	08eH
	DB	073H
	DB	0aeH
	DB	073H
	DB	0aeH
	DB	073H
	DB	08eH
	DB	073H
	DB	0aeH
	DB	073H
	DB	0aeH
	DB	073H
	DB	08eH
	DB	073H
	DB	0aeH
	DB	073H
	DB	0aeH
	DB	073H
	DB	08eH
	DB	073H
	DB	0aeH
	DB	073H
	DB	0aeH
	DB	073H
	DB	08eH
	DB	073H
	DB	0aeH
	DB	073H
	DB	0aeH
	DB	073H
	DB	08eH
	DB	073H
	DB	0aeH
	DB	073H
	DB	0aeH
	DB	073H
	DB	08eH
	DB	073H
	DB	0aeH
	DB	073H
	DB	0aeH
	DB	073H
	DB	08eH
	DB	073H
	DB	0aeH
	DB	073H
	DB	08eH
	DB	073H
	DB	0aeH
	DB	073H
	DB	0aeH
	DB	073H
	DB	08eH
	DB	073H
	DB	0aeH
	DB	073H
	DB	08eH
	DB	073H
	DB	08eH
	DB	073H
	DB	0aeH
	DB	073H
	DB	08eH
	DB	073H
	DB	08eH
	DB	073H
	DB	0aeH
	DB	073H
	DB	08eH
	DB	073H
	DB	0aeH
	DB	073H
	DB	08eH
	DB	073H
	DB	0aeH
	DB	073H
	DB	08eH
	DB	073H
	DB	0aeH
	DB	073H
	DB	08eH
	DB	073H
	DB	08eH
	DB	073H
	DB	0aeH
	DB	073H
	DB	08eH
	DB	073H
	DB	0aeH
	DB	073H
	DB	0aeH
	DB	073H
	DB	08eH
	DB	073H
	DB	0aeH
	DB	073H
	DB	0aeH
	DB	073H
	DB	08eH
	DB	073H
	DB	0aeH
	DB	073H
	DB	08eH
	DB	073H
	DB	06eH
	DB	073H
	DB	06eH
	DB	073H
	DB	06dH
	DB	06bH
	DB	04dH
	DB	06bH
	DB	04dH
	DB	06bH
	DB	04dH
	DB	06bH
	DB	04dH
	DB	06bH
	DB	06dH
	DB	06bH
	DB	04dH
	DB	06bH
	DB	04dH
	DB	06bH
	DB	04dH
	DB	06bH
	DB	04dH
	DB	06bH
	DB	04dH
	DB	06bH
	DB	04dH
	DB	06bH
	DB	04dH
	DB	06bH
	DB	04dH
	DB	06bH
	DB	04dH
	DB	06bH
	DB	04dH
	DB	06bH
	DB	04dH
	DB	06bH
	DB	04dH
	DB	06bH
	DB	04dH
	DB	06bH
	DB	04dH
	DB	06bH
	DB	04dH
	DB	06bH
	DB	06dH
	DB	06bH
	DB	04dH
	DB	06bH
	DB	04dH
	DB	06bH
	DB	06dH
	DB	06bH
	DB	04dH
	DB	06bH
	DB	04dH
	DB	06bH
	DB	06dH
	DB	06bH
	DB	04eH
	DB	073H
	DB	04dH
	DB	06bH
	DB	06dH
	DB	06bH
	DB	04dH
	DB	06bH
	DB	04dH
	DB	06bH
	DB	06dH
	DB	06bH
	DB	04dH
	DB	06bH
	DB	04dH
	DB	06bH
	DB	06dH
	DB	06bH
	DB	04dH
	DB	06bH
	DB	04dH
	DB	06bH
	DB	04dH
	DB	06bH
	DB	06dH
	DB	06bH
	DB	04dH
	DB	06bH
	DB	04dH
	DB	06bH
	DB	04dH
	DB	06bH
	DB	04dH
	DB	06bH
	DB	04dH
	DB	06bH
	DB	04dH
	DB	06bH
	DB	04dH
	DB	06bH
	DB	04dH
	DB	06bH
	DB	04dH
	DB	06bH
	DB	04dH
	DB	06bH
	DB	04dH
	DB	06bH
	DB	04dH
	DB	06bH
	DB	06dH
	DB	06bH
	DB	06eH
	DB	073H
	DB	06eH
	DB	073H
	DB	08eH
	DB	073H
	DB	0aeH
	DB	073H
	DB	0efH
	DB	07bH
	DB	010H
	DB	084H
	DB	010H
	DB	084H
	DB	0cfH
	DB	07bH
	DB	0efH
	DB	07bH
	DB	010H
	DB	084H
	DB	031H
	DB	08cH
	DB	010H
	DB	084H
	DB	0f0H
	DB	083H
	DB	0f0H
	DB	07bH
	DB	0efH
	DB	07bH
	DB	0cfH
	DB	083H
	DB	0cfH
	DB	07bH
	DB	0cfH
	DB	07bH
	DB	0efH
	DB	07bH
	DB	0cfH
	DB	083H
	DB	0cfH
	DB	07bH
	DB	0efH
	DB	07bH
	DB	0cfH
	DB	07bH
	DB	0cfH
	DB	07bH
	DB	0efH
	DB	07bH
	DB	0cfH
	DB	07bH
	DB	0cfH
	DB	07bH
	DB	0efH
	DB	07bH
	DB	0cfH
	DB	07bH
	DB	0cfH
	DB	07bH
	DB	0efH
	DB	07bH
	DB	0cfH
	DB	07bH
	DB	0cfH
	DB	07bH
	DB	0efH
	DB	07bH
	DB	0cfH
	DB	07bH
	DB	0cfH
	DB	07bH
	DB	0efH
	DB	07bH
	DB	0cfH
	DB	07bH
	DB	0cfH
	DB	07bH
	DB	0efH
	DB	07bH
	DB	0cfH
	DB	07bH
	DB	0cfH
	DB	07bH
	DB	0efH
	DB	07bH
	DB	0cfH
	DB	07bH
	DB	0cfH
	DB	07bH
	DB	0efH
	DB	07bH
	DB	0cfH
	DB	07bH
	DB	0efH
	DB	07bH
	DB	0efH
	DB	07bH
	DB	0cfH
	DB	07bH
	DB	0efH
	DB	07bH
	DB	0efH
	DB	07bH
	DB	0cfH
	DB	07bH
	DB	0efH
	DB	07bH
	DB	0cfH
	DB	07bH
	DB	0cfH
	DB	07bH
	DB	0efH
	DB	07bH
	DB	0cfH
	DB	07bH
	DB	0efH
	DB	07bH
	DB	0efH
	DB	07bH
	DB	0cfH
	DB	07bH
	DB	0efH
	DB	07bH
	DB	0efH
	DB	07bH
	DB	0cfH
	DB	07bH
	DB	0cfH
	DB	07bH
	DB	0efH
	DB	07bH
	DB	0cfH
	DB	07bH
	DB	0efH
	DB	083H
	DB	0cfH
	DB	07bH
	DB	0cfH
	DB	07bH
	DB	0efH
	DB	083H
	DB	0efH
	DB	07bH
	DB	0cfH
	DB	07bH
	DB	0cfH
	DB	07bH
	DB	0cfH
	DB	07bH
	DB	0cfH
	DB	07bH
	DB	0cfH
	DB	07bH
	DB	0cfH
	DB	07bH
	DB	0cfH
	DB	07bH
	DB	0cfH
	DB	07bH
	DB	0cfH
	DB	07bH
	DB	0cfH
	DB	07bH
	DB	0cfH
	DB	07bH
	DB	0cfH
	DB	07bH
	DB	0cfH
	DB	07bH
	DB	0cfH
	DB	07bH
	DB	0cfH
	DB	07bH
	DB	0cfH
	DB	07bH
	DB	0cfH
	DB	07bH
	DB	0cfH
	DB	07bH
	DB	0cfH
	DB	07bH
	DB	0cfH
	DB	07bH
	DB	0cfH
	DB	07bH
	DB	0cfH
	DB	07bH
	DB	0cfH
	DB	07bH
	DB	0cfH
	DB	07bH
	DB	0cfH
	DB	07bH
	DB	0cfH
	DB	07bH
	DB	0cfH
	DB	07bH
	DB	0cfH
	DB	07bH
	DB	0cfH
	DB	07bH
	DB	0cfH
	DB	07bH
	DB	0cfH
	DB	07bH
	DB	0cfH
	DB	07bH
	DB	0cfH
	DB	07bH
	DB	0cfH
	DB	07bH
	DB	0cfH
	DB	07bH
	DB	0cfH
	DB	07bH
	DB	0cfH
	DB	07bH
	DB	0cfH
	DB	07bH
	DB	0cfH
	DB	07bH
	DB	0cfH
	DB	07bH
	DB	0cfH
	DB	07bH
	DB	0cfH
	DB	07bH
	DB	0cfH
	DB	07bH
	DB	0cfH
	DB	07bH
	DB	0cfH
	DB	07bH
	DB	0cfH
	DB	07bH
	DB	0cfH
	DB	07bH
	DB	0cfH
	DB	07bH
	DB	0cfH
	DB	07bH
	DB	0cfH
	DB	07bH
	DB	0cfH
	DB	07bH
	DB	0cfH
	DB	07bH
	DB	0cfH
	DB	07bH
	DB	0cfH
	DB	07bH
	DB	0cfH
	DB	07bH
	DB	0cfH
	DB	07bH
	DB	0cfH
	DB	07bH
	DB	0cfH
	DB	07bH
	DB	0cfH
	DB	07bH
	DB	010H
	DB	084H
	DB	010H
	DB	084H
	DB	031H
	DB	08cH
	DB	010H
	DB	084H
	DB	0efH
	DB	07bH
	DB	0cfH
	DB	07bH
	DB	0f0H
	DB	083H
	DB	030H
	DB	084H
	DB	030H
	DB	084H
	DB	010H
	DB	084H
	DB	010H
	DB	084H
	DB	0f0H
	DB	083H
	DB	010H
	DB	084H
	DB	0f0H
	DB	083H
	DB	010H
	DB	084H
	DB	0f0H
	DB	083H
	DB	010H
	DB	084H
	DB	010H
	DB	084H
	DB	0f0H
	DB	083H
	DB	010H
	DB	084H
	DB	010H
	DB	084H
	DB	0f0H
	DB	083H
	DB	010H
	DB	084H
	DB	010H
	DB	084H
	DB	0f0H
	DB	083H
	DB	010H
	DB	084H
	DB	010H
	DB	084H
	DB	0f0H
	DB	083H
	DB	010H
	DB	084H
	DB	010H
	DB	084H
	DB	0f0H
	DB	083H
	DB	010H
	DB	084H
	DB	010H
	DB	084H
	DB	0f0H
	DB	083H
	DB	010H
	DB	084H
	DB	0f0H
	DB	083H
	DB	010H
	DB	084H
	DB	0f0H
	DB	083H
	DB	010H
	DB	084H
	DB	010H
	DB	084H
	DB	0f0H
	DB	083H
	DB	010H
	DB	084H
	DB	0f0H
	DB	083H
	DB	0f0H
	DB	083H
	DB	010H
	DB	084H
	DB	0f0H
	DB	083H
	DB	0f0H
	DB	083H
	DB	010H
	DB	084H
	DB	0f0H
	DB	083H
	DB	010H
	DB	084H
	DB	010H
	DB	084H
	DB	0f0H
	DB	083H
	DB	010H
	DB	084H
	DB	010H
	DB	084H
	DB	0f0H
	DB	083H
	DB	0f0H
	DB	083H
	DB	010H
	DB	084H
	DB	0f0H
	DB	083H
	DB	0f0H
	DB	083H
	DB	010H
	DB	084H
	DB	0f0H
	DB	083H
	DB	010H
	DB	084H
	DB	0f0H
	DB	083H
	DB	010H
	DB	084H
	DB	0f0H
	DB	083H
	DB	010H
	DB	084H
	DB	0f0H
	DB	083H
	DB	0f0H
	DB	083H
	DB	010H
	DB	084H
	DB	0f0H
	DB	083H
	DB	010H
	DB	084H
	DB	010H
	DB	084H
	DB	0f0H
	DB	083H
	DB	010H
	DB	084H
	DB	010H
	DB	084H
	DB	0f0H
	DB	083H
	DB	0f0H
	DB	083H
	DB	010H
	DB	084H
	DB	010H
	DB	084H
	DB	0f0H
	DB	083H
	DB	010H
	DB	084H
	DB	010H
	DB	084H
	DB	010H
	DB	084H
	DB	010H
	DB	084H
	DB	010H
	DB	084H
	DB	010H
	DB	084H
	DB	010H
	DB	084H
	DB	010H
	DB	084H
	DB	010H
	DB	084H
	DB	010H
	DB	084H
	DB	0f0H
	DB	083H
	DB	010H
	DB	084H
	DB	0f0H
	DB	083H
	DB	0f0H
	DB	083H
	DB	010H
	DB	084H
	DB	0f0H
	DB	083H
	DB	0f0H
	DB	083H
	DB	010H
	DB	084H
	DB	0f0H
	DB	083H
	DB	010H
	DB	084H
	DB	0f0H
	DB	083H
	DB	0f0H
	DB	083H
	DB	010H
	DB	084H
	DB	0f0H
	DB	083H
	DB	0f0H
	DB	083H
	DB	010H
	DB	084H
	DB	0f0H
	DB	083H
	DB	0f0H
	DB	083H
	DB	010H
	DB	084H
	DB	010H
	DB	084H
	DB	0f0H
	DB	083H
	DB	0f0H
	DB	083H
	DB	010H
	DB	084H
	DB	010H
	DB	084H
	DB	0f0H
	DB	083H
	DB	010H
	DB	084H
	DB	010H
	DB	084H
	DB	010H
	DB	084H
	DB	010H
	DB	084H
	DB	010H
	DB	084H
	DB	010H
	DB	084H
	DB	0f0H
	DB	083H
	DB	010H
	DB	084H
	DB	0f0H
	DB	083H
	DB	0f0H
	DB	083H
	DB	010H
	DB	084H
	DB	0f0H
	DB	083H
	DB	010H
	DB	084H
	DB	010H
	DB	084H
	DB	010H
	DB	084H
	DB	030H
	DB	084H
	DB	010H
	DB	084H
	DB	0cfH
	DB	07bH
CONST	ENDS
END
