; Listing generated by Microsoft (R) Optimizing Compiler Version 19.27.29112.0 

	TITLE	D:\hackTuesProject\project\TouchGFX\generated\images\src\Bathtub\Light_Color\image_lightOn.cpp
	.686P
	.XMM
	include listing.inc
	.model	flat

INCLUDELIB MSVCRTD
INCLUDELIB OLDNAMES

PUBLIC	?image_lighton@@3QBEB				; image_lighton
CONST	SEGMENT
?image_lighton@@3QBEB DB 00H				; image_lighton
	DB	00H
	DB	00H
	DB	0ffH
	DB	00H
	DB	04H
	DB	00H
	DB	0ffH
	DB	010H
	DB	010H
	DB	010H
	DB	0ffH
	DB	018H
	DB	018H
	DB	018H
	DB	0ffH
	DB	018H
	DB	018H
	DB	018H
	DB	0ffH
	DB	018H
	DB	018H
	DB	018H
	DB	0ffH
	DB	018H
	DB	01cH
	DB	018H
	DB	0ffH
	DB	018H
	DB	018H
	DB	018H
	DB	0ffH
	DB	018H
	DB	018H
	DB	018H
	DB	0ffH
	DB	018H
	DB	01cH
	DB	018H
	DB	0ffH
	DB	018H
	DB	018H
	DB	018H
	DB	0ffH
	DB	018H
	DB	018H
	DB	018H
	DB	0ffH
	DB	018H
	DB	01cH
	DB	018H
	DB	0ffH
	DB	018H
	DB	018H
	DB	018H
	DB	0ffH
	DB	018H
	DB	018H
	DB	018H
	DB	0ffH
	DB	018H
	DB	01cH
	DB	018H
	DB	0ffH
	DB	018H
	DB	018H
	DB	018H
	DB	0ffH
	DB	018H
	DB	018H
	DB	018H
	DB	0ffH
	DB	018H
	DB	01cH
	DB	018H
	DB	0ffH
	DB	018H
	DB	018H
	DB	018H
	DB	0ffH
	DB	018H
	DB	018H
	DB	018H
	DB	0ffH
	DB	018H
	DB	01cH
	DB	018H
	DB	0ffH
	DB	018H
	DB	018H
	DB	018H
	DB	0ffH
	DB	018H
	DB	018H
	DB	018H
	DB	0ffH
	DB	018H
	DB	01cH
	DB	018H
	DB	0ffH
	DB	018H
	DB	018H
	DB	018H
	DB	0ffH
	DB	018H
	DB	018H
	DB	018H
	DB	0ffH
	DB	018H
	DB	01cH
	DB	018H
	DB	0ffH
	DB	018H
	DB	018H
	DB	018H
	DB	0ffH
	DB	018H
	DB	018H
	DB	018H
	DB	0ffH
	DB	018H
	DB	01cH
	DB	018H
	DB	0ffH
	DB	018H
	DB	018H
	DB	018H
	DB	0ffH
	DB	018H
	DB	018H
	DB	018H
	DB	0ffH
	DB	018H
	DB	01cH
	DB	018H
	DB	0ffH
	DB	018H
	DB	018H
	DB	018H
	DB	0ffH
	DB	018H
	DB	018H
	DB	018H
	DB	0ffH
	DB	018H
	DB	01cH
	DB	018H
	DB	0ffH
	DB	018H
	DB	018H
	DB	018H
	DB	0ffH
	DB	018H
	DB	018H
	DB	018H
	DB	0ffH
	DB	018H
	DB	01cH
	DB	018H
	DB	0ffH
	DB	018H
	DB	018H
	DB	018H
	DB	0ffH
	DB	018H
	DB	018H
	DB	018H
	DB	0ffH
	DB	018H
	DB	01cH
	DB	018H
	DB	0ffH
	DB	018H
	DB	018H
	DB	018H
	DB	0ffH
	DB	018H
	DB	018H
	DB	018H
	DB	0ffH
	DB	018H
	DB	01cH
	DB	018H
	DB	0ffH
	DB	018H
	DB	018H
	DB	018H
	DB	0ffH
	DB	018H
	DB	018H
	DB	018H
	DB	0ffH
	DB	018H
	DB	01cH
	DB	018H
	DB	0ffH
	DB	018H
	DB	018H
	DB	018H
	DB	0ffH
	DB	018H
	DB	018H
	DB	018H
	DB	0ffH
	DB	018H
	DB	01cH
	DB	018H
	DB	0ffH
	DB	018H
	DB	018H
	DB	018H
	DB	0ffH
	DB	018H
	DB	018H
	DB	018H
	DB	0ffH
	DB	018H
	DB	01cH
	DB	018H
	DB	0ffH
	DB	018H
	DB	018H
	DB	018H
	DB	0ffH
	DB	018H
	DB	018H
	DB	018H
	DB	0ffH
	DB	010H
	DB	010H
	DB	010H
	DB	0ffH
	DB	00H
	DB	04H
	DB	00H
	DB	0ffH
	DB	00H
	DB	00H
	DB	00H
	DB	0ffH
	DB	0f8H
	DB	0fcH
	DB	0f8H
	DB	00H
	DB	0f8H
	DB	0fcH
	DB	0f8H
	DB	00H
	DB	0f8H
	DB	0fcH
	DB	0f8H
	DB	00H
	DB	0f8H
	DB	0fcH
	DB	0f8H
	DB	00H
	DB	0f8H
	DB	0fcH
	DB	0f8H
	DB	00H
	DB	0f8H
	DB	0fcH
	DB	0f8H
	DB	00H
	DB	0f8H
	DB	0fcH
	DB	0f8H
	DB	00H
	DB	0f8H
	DB	0fcH
	DB	0f8H
	DB	00H
	DB	0f8H
	DB	0fcH
	DB	0f8H
	DB	00H
	DB	0f8H
	DB	0fcH
	DB	0f8H
	DB	00H
	DB	0f8H
	DB	0fcH
	DB	0f8H
	DB	00H
	DB	0f8H
	DB	0fcH
	DB	0f8H
	DB	00H
	DB	0f8H
	DB	0fcH
	DB	0f8H
	DB	00H
	DB	0f8H
	DB	0fcH
	DB	0f8H
	DB	00H
	DB	0f8H
	DB	0fcH
	DB	0f8H
	DB	00H
	DB	0f8H
	DB	0fcH
	DB	0f8H
	DB	00H
	DB	0f8H
	DB	0fcH
	DB	0f8H
	DB	00H
	DB	0f8H
	DB	0fcH
	DB	0f8H
	DB	00H
	DB	0f8H
	DB	0fcH
	DB	0f8H
	DB	00H
	DB	0f8H
	DB	0fcH
	DB	0f8H
	DB	00H
	DB	0f8H
	DB	0fcH
	DB	0f8H
	DB	00H
	DB	0f8H
	DB	0fcH
	DB	0f8H
	DB	00H
	DB	0f8H
	DB	0fcH
	DB	0f8H
	DB	00H
	DB	0f8H
	DB	0fcH
	DB	0f8H
	DB	00H
	DB	0f8H
	DB	0fcH
	DB	0f8H
	DB	00H
	DB	0f8H
	DB	0fcH
	DB	0f8H
	DB	00H
	DB	0f8H
	DB	0fcH
	DB	0f8H
	DB	00H
	DB	0f8H
	DB	0fcH
	DB	0f8H
	DB	00H
	DB	0f8H
	DB	0fcH
	DB	0f8H
	DB	00H
	DB	0f8H
	DB	0fcH
	DB	0f8H
	DB	00H
	DB	0f8H
	DB	0fcH
	DB	0f8H
	DB	00H
	DB	0f8H
	DB	0fcH
	DB	0f8H
	DB	00H
	DB	0f8H
	DB	0fcH
	DB	0f8H
	DB	00H
	DB	0f8H
	DB	0fcH
	DB	0f8H
	DB	00H
	DB	0f8H
	DB	0fcH
	DB	0f8H
	DB	00H
	DB	0f8H
	DB	0fcH
	DB	0f8H
	DB	00H
	DB	0f8H
	DB	0fcH
	DB	0f8H
	DB	00H
	DB	0f8H
	DB	0fcH
	DB	0f8H
	DB	00H
	DB	0f8H
	DB	0fcH
	DB	0f8H
	DB	00H
	DB	0f8H
	DB	0fcH
	DB	0f8H
	DB	00H
	DB	0f8H
	DB	0fcH
	DB	0f8H
	DB	00H
	DB	0f8H
	DB	0fcH
	DB	0f8H
	DB	00H
	DB	0f8H
	DB	0fcH
	DB	0f8H
	DB	00H
	DB	0f8H
	DB	0fcH
	DB	0f8H
	DB	00H
	DB	0f8H
	DB	0fcH
	DB	0f8H
	DB	00H
	DB	0f8H
	DB	0fcH
	DB	0f8H
	DB	00H
	DB	0f8H
	DB	0fcH
	DB	0f8H
	DB	00H
	DB	0f8H
	DB	0fcH
	DB	0f8H
	DB	00H
	DB	0f8H
	DB	0fcH
	DB	0f8H
	DB	00H
	DB	0f8H
	DB	0fcH
	DB	0f8H
	DB	00H
	DB	0f8H
	DB	0fcH
	DB	0f8H
	DB	00H
	DB	0f8H
	DB	0fcH
	DB	0f8H
	DB	00H
	DB	0f8H
	DB	0fcH
	DB	0f8H
	DB	00H
	DB	0f8H
	DB	0fcH
	DB	0f8H
	DB	00H
	DB	0f8H
	DB	0fcH
	DB	0f8H
	DB	00H
	DB	0f8H
	DB	0fcH
	DB	0f8H
	DB	00H
	DB	0f8H
	DB	0fcH
	DB	0f8H
	DB	00H
	DB	0f8H
	DB	0fcH
	DB	0f8H
	DB	00H
	DB	0f8H
	DB	0fcH
	DB	0f8H
	DB	00H
	DB	0f8H
	DB	0fcH
	DB	0f8H
	DB	00H
	DB	08H
	DB	04H
	DB	08H
	DB	0ffH
	DB	018H
	DB	018H
	DB	018H
	DB	0ffH
	DB	018H
	DB	018H
	DB	018H
	DB	0ffH
	DB	018H
	DB	01cH
	DB	018H
	DB	0ffH
	DB	018H
	DB	01cH
	DB	018H
	DB	0ffH
	DB	018H
	DB	018H
	DB	018H
	DB	0ffH
	DB	018H
	DB	01cH
	DB	018H
	DB	0ffH
	DB	018H
	DB	018H
	DB	018H
	DB	0ffH
	DB	018H
	DB	01cH
	DB	018H
	DB	0ffH
	DB	018H
	DB	01cH
	DB	018H
	DB	0ffH
	DB	018H
	DB	018H
	DB	018H
	DB	0ffH
	DB	018H
	DB	01cH
	DB	018H
	DB	0ffH
	DB	018H
	DB	018H
	DB	018H
	DB	0ffH
	DB	018H
	DB	01cH
	DB	018H
	DB	0ffH
	DB	018H
	DB	018H
	DB	018H
	DB	0ffH
	DB	018H
	DB	01cH
	DB	018H
	DB	0ffH
	DB	018H
	DB	018H
	DB	018H
	DB	0ffH
	DB	018H
	DB	01cH
	DB	018H
	DB	0ffH
	DB	018H
	DB	01cH
	DB	018H
	DB	0ffH
	DB	018H
	DB	018H
	DB	018H
	DB	0ffH
	DB	018H
	DB	01cH
	DB	018H
	DB	0ffH
	DB	018H
	DB	018H
	DB	018H
	DB	0ffH
	DB	018H
	DB	01cH
	DB	018H
	DB	0ffH
	DB	018H
	DB	018H
	DB	018H
	DB	0ffH
	DB	018H
	DB	01cH
	DB	018H
	DB	0ffH
	DB	018H
	DB	018H
	DB	018H
	DB	0ffH
	DB	018H
	DB	01cH
	DB	018H
	DB	0ffH
	DB	018H
	DB	01cH
	DB	018H
	DB	0ffH
	DB	018H
	DB	018H
	DB	018H
	DB	0ffH
	DB	018H
	DB	01cH
	DB	018H
	DB	0ffH
	DB	018H
	DB	018H
	DB	018H
	DB	0ffH
	DB	018H
	DB	01cH
	DB	018H
	DB	0ffH
	DB	018H
	DB	018H
	DB	018H
	DB	0ffH
	DB	018H
	DB	01cH
	DB	018H
	DB	0ffH
	DB	018H
	DB	018H
	DB	018H
	DB	0ffH
	DB	018H
	DB	01cH
	DB	018H
	DB	0ffH
	DB	018H
	DB	01cH
	DB	018H
	DB	0ffH
	DB	018H
	DB	018H
	DB	018H
	DB	0ffH
	DB	018H
	DB	01cH
	DB	018H
	DB	0ffH
	DB	018H
	DB	018H
	DB	018H
	DB	0ffH
	DB	018H
	DB	01cH
	DB	018H
	DB	0ffH
	DB	018H
	DB	018H
	DB	018H
	DB	0ffH
	DB	018H
	DB	01cH
	DB	018H
	DB	0ffH
	DB	018H
	DB	018H
	DB	018H
	DB	0ffH
	DB	018H
	DB	01cH
	DB	018H
	DB	0ffH
	DB	018H
	DB	01cH
	DB	018H
	DB	0ffH
	DB	018H
	DB	018H
	DB	018H
	DB	0ffH
	DB	018H
	DB	01cH
	DB	018H
	DB	0ffH
	DB	018H
	DB	018H
	DB	018H
	DB	0ffH
	DB	018H
	DB	01cH
	DB	018H
	DB	0ffH
	DB	018H
	DB	018H
	DB	018H
	DB	0ffH
	DB	018H
	DB	01cH
	DB	018H
	DB	0ffH
	DB	018H
	DB	018H
	DB	018H
	DB	0ffH
	DB	018H
	DB	01cH
	DB	018H
	DB	0ffH
	DB	018H
	DB	018H
	DB	018H
	DB	0ffH
	DB	018H
	DB	01cH
	DB	018H
	DB	0ffH
	DB	018H
	DB	018H
	DB	018H
	DB	0ffH
	DB	018H
	DB	01cH
	DB	018H
	DB	0ffH
	DB	018H
	DB	018H
	DB	018H
	DB	0ffH
	DB	08H
	DB	04H
	DB	08H
	DB	0ffH
	DB	0f8H
	DB	0fcH
	DB	0f8H
	DB	00H
	DB	0f8H
	DB	0fcH
	DB	0f8H
	DB	00H
	DB	0f8H
	DB	0fcH
	DB	0f8H
	DB	00H
	DB	0f8H
	DB	0fcH
	DB	0f8H
	DB	00H
	DB	0f8H
	DB	0fcH
	DB	0f8H
	DB	00H
	DB	0f8H
	DB	0fcH
	DB	0f8H
	DB	00H
	DB	0f8H
	DB	0fcH
	DB	0f8H
	DB	00H
	DB	0f8H
	DB	0fcH
	DB	0f8H
	DB	00H
	DB	0f8H
	DB	0fcH
	DB	0f8H
	DB	00H
	DB	0f8H
	DB	0fcH
	DB	0f8H
	DB	00H
	DB	0f8H
	DB	0fcH
	DB	0f8H
	DB	00H
	DB	0f8H
	DB	0fcH
	DB	0f8H
	DB	00H
	DB	0f8H
	DB	0fcH
	DB	0f8H
	DB	00H
	DB	0f8H
	DB	0fcH
	DB	0f8H
	DB	00H
	DB	0f8H
	DB	0fcH
	DB	0f8H
	DB	00H
	DB	0f8H
	DB	0fcH
	DB	0f8H
	DB	00H
	DB	0f8H
	DB	0fcH
	DB	0f8H
	DB	00H
	DB	0f8H
	DB	0fcH
	DB	0f8H
	DB	00H
	DB	0f8H
	DB	0fcH
	DB	0f8H
	DB	00H
	DB	0f8H
	DB	0fcH
	DB	0f8H
	DB	00H
	DB	0f8H
	DB	0fcH
	DB	0f8H
	DB	00H
	DB	0f8H
	DB	0fcH
	DB	0f8H
	DB	00H
	DB	0f8H
	DB	0fcH
	DB	0f8H
	DB	00H
	DB	0f8H
	DB	0fcH
	DB	0f8H
	DB	00H
	DB	0f8H
	DB	0fcH
	DB	0f8H
	DB	00H
	DB	0f8H
	DB	0fcH
	DB	0f8H
	DB	00H
	DB	0f8H
	DB	0fcH
	DB	0f8H
	DB	00H
	DB	0f8H
	DB	0fcH
	DB	0f8H
	DB	00H
	DB	0f8H
	DB	0fcH
	DB	0f8H
	DB	00H
	DB	0f8H
	DB	0fcH
	DB	0f8H
	DB	00H
	DB	0f8H
	DB	0fcH
	DB	0f8H
	DB	00H
	DB	0f8H
	DB	0fcH
	DB	0f8H
	DB	00H
	DB	0f8H
	DB	0fcH
	DB	0f8H
	DB	00H
	DB	0f8H
	DB	0fcH
	DB	0f8H
	DB	00H
	DB	0f8H
	DB	0fcH
	DB	0f8H
	DB	00H
	DB	0f8H
	DB	0fcH
	DB	0f8H
	DB	00H
	DB	0f8H
	DB	0fcH
	DB	0f8H
	DB	00H
	DB	0f8H
	DB	0fcH
	DB	0f8H
	DB	00H
	DB	0f8H
	DB	0fcH
	DB	0f8H
	DB	00H
	DB	0f8H
	DB	0fcH
	DB	0f8H
	DB	00H
	DB	0f8H
	DB	0fcH
	DB	0f8H
	DB	00H
	DB	0f8H
	DB	0fcH
	DB	0f8H
	DB	00H
	DB	0f8H
	DB	0fcH
	DB	0f8H
	DB	00H
	DB	0f8H
	DB	0fcH
	DB	0f8H
	DB	00H
	DB	0f8H
	DB	0fcH
	DB	0f8H
	DB	00H
	DB	0f8H
	DB	0fcH
	DB	0f8H
	DB	00H
	DB	0f8H
	DB	0fcH
	DB	0f8H
	DB	00H
	DB	0f8H
	DB	0fcH
	DB	0f8H
	DB	00H
	DB	0f8H
	DB	0fcH
	DB	0f8H
	DB	00H
	DB	0f8H
	DB	0fcH
	DB	0f8H
	DB	00H
	DB	0f8H
	DB	0fcH
	DB	0f8H
	DB	00H
	DB	0f8H
	DB	0fcH
	DB	0f8H
	DB	00H
	DB	0f8H
	DB	0fcH
	DB	0f8H
	DB	00H
	DB	0f8H
	DB	0fcH
	DB	0f8H
	DB	00H
	DB	0f8H
	DB	0fcH
	DB	0f8H
	DB	00H
	DB	0f8H
	DB	0fcH
	DB	0f8H
	DB	00H
	DB	0f8H
	DB	0fcH
	DB	0f8H
	DB	00H
	DB	0f8H
	DB	0fcH
	DB	0f8H
	DB	00H
	DB	0f8H
	DB	0fcH
	DB	0f8H
	DB	00H
	DB	0f8H
	DB	0fcH
	DB	0f8H
	DB	00H
	DB	010H
	DB	010H
	DB	010H
	DB	0ffH
	DB	018H
	DB	018H
	DB	018H
	DB	0ffH
	DB	018H
	DB	01cH
	DB	018H
	DB	0ffH
	DB	020H
	DB	018H
	DB	020H
	DB	0ffH
	DB	018H
	DB	01cH
	DB	018H
	DB	0ffH
	DB	020H
	DB	018H
	DB	020H
	DB	0ffH
	DB	020H
	DB	01cH
	DB	020H
	DB	0ffH
	DB	018H
	DB	018H
	DB	018H
	DB	0ffH
	DB	020H
	DB	018H
	DB	020H
	DB	0ffH
	DB	020H
	DB	01cH
	DB	020H
	DB	0ffH
	DB	018H
	DB	018H
	DB	018H
	DB	0ffH
	DB	020H
	DB	01cH
	DB	020H
	DB	0ffH
	DB	020H
	DB	01cH
	DB	020H
	DB	0ffH
	DB	018H
	DB	018H
	DB	018H
	DB	0ffH
	DB	020H
	DB	01cH
	DB	020H
	DB	0ffH
	DB	020H
	DB	018H
	DB	020H
	DB	0ffH
	DB	018H
	DB	01cH
	DB	018H
	DB	0ffH
	DB	020H
	DB	018H
	DB	020H
	DB	0ffH
	DB	020H
	DB	018H
	DB	020H
	DB	0ffH
	DB	018H
	DB	01cH
	DB	018H
	DB	0ffH
	DB	020H
	DB	018H
	DB	020H
	DB	0ffH
	DB	020H
	DB	01cH
	DB	020H
	DB	0ffH
	DB	018H
	DB	018H
	DB	018H
	DB	0ffH
	DB	020H
	DB	01cH
	DB	020H
	DB	0ffH
	DB	020H
	DB	018H
	DB	020H
	DB	0ffH
	DB	018H
	DB	01cH
	DB	018H
	DB	0ffH
	DB	020H
	DB	018H
	DB	020H
	DB	0ffH
	DB	020H
	DB	018H
	DB	020H
	DB	0ffH
	DB	018H
	DB	01cH
	DB	018H
	DB	0ffH
	DB	020H
	DB	018H
	DB	020H
	DB	0ffH
	DB	020H
	DB	01cH
	DB	020H
	DB	0ffH
	DB	018H
	DB	018H
	DB	018H
	DB	0ffH
	DB	020H
	DB	01cH
	DB	020H
	DB	0ffH
	DB	020H
	DB	018H
	DB	020H
	DB	0ffH
	DB	018H
	DB	01cH
	DB	018H
	DB	0ffH
	DB	020H
	DB	018H
	DB	020H
	DB	0ffH
	DB	020H
	DB	018H
	DB	020H
	DB	0ffH
	DB	018H
	DB	01cH
	DB	018H
	DB	0ffH
	DB	020H
	DB	018H
	DB	020H
	DB	0ffH
	DB	020H
	DB	01cH
	DB	020H
	DB	0ffH
	DB	018H
	DB	018H
	DB	018H
	DB	0ffH
	DB	020H
	DB	01cH
	DB	020H
	DB	0ffH
	DB	020H
	DB	018H
	DB	020H
	DB	0ffH
	DB	018H
	DB	01cH
	DB	018H
	DB	0ffH
	DB	020H
	DB	018H
	DB	020H
	DB	0ffH
	DB	020H
	DB	018H
	DB	020H
	DB	0ffH
	DB	018H
	DB	01cH
	DB	018H
	DB	0ffH
	DB	020H
	DB	018H
	DB	020H
	DB	0ffH
	DB	020H
	DB	01cH
	DB	020H
	DB	0ffH
	DB	018H
	DB	018H
	DB	018H
	DB	0ffH
	DB	020H
	DB	01cH
	DB	020H
	DB	0ffH
	DB	020H
	DB	018H
	DB	020H
	DB	0ffH
	DB	018H
	DB	01cH
	DB	018H
	DB	0ffH
	DB	020H
	DB	018H
	DB	020H
	DB	0ffH
	DB	020H
	DB	01cH
	DB	020H
	DB	0ffH
	DB	018H
	DB	018H
	DB	018H
	DB	0ffH
	DB	018H
	DB	01cH
	DB	018H
	DB	0ffH
	DB	020H
	DB	018H
	DB	020H
	DB	0ffH
	DB	018H
	DB	018H
	DB	018H
	DB	0ffH
	DB	010H
	DB	010H
	DB	010H
	DB	0ffH
	DB	0f8H
	DB	0fcH
	DB	0f8H
	DB	00H
	DB	0f8H
	DB	0fcH
	DB	0f8H
	DB	00H
	DB	0f8H
	DB	0fcH
	DB	0f8H
	DB	00H
	DB	0f8H
	DB	0fcH
	DB	0f8H
	DB	00H
	DB	0f8H
	DB	0fcH
	DB	0f8H
	DB	00H
	DB	0f8H
	DB	0fcH
	DB	0f8H
	DB	00H
	DB	0f8H
	DB	0fcH
	DB	0f8H
	DB	00H
	DB	0f8H
	DB	0fcH
	DB	0f8H
	DB	00H
	DB	0f8H
	DB	0fcH
	DB	0f8H
	DB	00H
	DB	0f8H
	DB	0fcH
	DB	0f8H
	DB	00H
	DB	0f8H
	DB	0fcH
	DB	0f8H
	DB	00H
	DB	0f8H
	DB	0fcH
	DB	0f8H
	DB	00H
	DB	0f8H
	DB	0fcH
	DB	0f8H
	DB	00H
	DB	0f8H
	DB	0fcH
	DB	0f8H
	DB	00H
	DB	0f8H
	DB	0fcH
	DB	0f8H
	DB	00H
	DB	0f8H
	DB	0fcH
	DB	0f8H
	DB	00H
	DB	0f8H
	DB	0fcH
	DB	0f8H
	DB	00H
	DB	0f8H
	DB	0fcH
	DB	0f8H
	DB	00H
	DB	0f8H
	DB	0fcH
	DB	0f8H
	DB	00H
	DB	0f8H
	DB	0fcH
	DB	0f8H
	DB	00H
	DB	0f8H
	DB	0fcH
	DB	0f8H
	DB	00H
	DB	0f8H
	DB	0fcH
	DB	0f8H
	DB	00H
	DB	0f8H
	DB	0fcH
	DB	0f8H
	DB	00H
	DB	0f8H
	DB	0fcH
	DB	0f8H
	DB	00H
	DB	0f8H
	DB	0fcH
	DB	0f8H
	DB	00H
	DB	0f8H
	DB	0fcH
	DB	0f8H
	DB	00H
	DB	0f8H
	DB	0fcH
	DB	0f8H
	DB	00H
	DB	0f8H
	DB	0fcH
	DB	0f8H
	DB	00H
	DB	0f8H
	DB	0fcH
	DB	0f8H
	DB	00H
	DB	0f8H
	DB	0fcH
	DB	0f8H
	DB	00H
	DB	0f8H
	DB	0fcH
	DB	0f8H
	DB	00H
	DB	0f8H
	DB	0fcH
	DB	0f8H
	DB	00H
	DB	0f8H
	DB	0fcH
	DB	0f8H
	DB	00H
	DB	0f8H
	DB	0fcH
	DB	0f8H
	DB	00H
	DB	0f8H
	DB	0fcH
	DB	0f8H
	DB	00H
	DB	0f8H
	DB	0fcH
	DB	0f8H
	DB	00H
	DB	0f8H
	DB	0fcH
	DB	0f8H
	DB	00H
	DB	0f8H
	DB	0fcH
	DB	0f8H
	DB	00H
	DB	0f8H
	DB	0fcH
	DB	0f8H
	DB	00H
	DB	0f8H
	DB	0fcH
	DB	0f8H
	DB	00H
	DB	0f8H
	DB	0fcH
	DB	0f8H
	DB	00H
	DB	0f8H
	DB	0fcH
	DB	0f8H
	DB	00H
	DB	0f8H
	DB	0fcH
	DB	0f8H
	DB	00H
	DB	0f8H
	DB	0fcH
	DB	0f8H
	DB	00H
	DB	0f8H
	DB	0fcH
	DB	0f8H
	DB	00H
	DB	0f8H
	DB	0fcH
	DB	0f8H
	DB	00H
	DB	0f8H
	DB	0fcH
	DB	0f8H
	DB	00H
	DB	0f8H
	DB	0fcH
	DB	0f8H
	DB	00H
	DB	0f8H
	DB	0fcH
	DB	0f8H
	DB	00H
	DB	0f8H
	DB	0fcH
	DB	0f8H
	DB	00H
	DB	0f8H
	DB	0fcH
	DB	0f8H
	DB	00H
	DB	0f8H
	DB	0fcH
	DB	0f8H
	DB	00H
	DB	0f8H
	DB	0fcH
	DB	0f8H
	DB	00H
	DB	0f8H
	DB	0fcH
	DB	0f8H
	DB	00H
	DB	0f8H
	DB	0fcH
	DB	0f8H
	DB	00H
	DB	0f8H
	DB	0fcH
	DB	0f8H
	DB	00H
	DB	0f8H
	DB	0fcH
	DB	0f8H
	DB	00H
	DB	0f8H
	DB	0fcH
	DB	0f8H
	DB	00H
	DB	0f8H
	DB	0fcH
	DB	0f8H
	DB	00H
	DB	0f8H
	DB	0fcH
	DB	0f8H
	DB	00H
	DB	018H
	DB	018H
	DB	018H
	DB	0ffH
	DB	018H
	DB	01cH
	DB	018H
	DB	0ffH
	DB	018H
	DB	018H
	DB	018H
	DB	0ffH
	DB	018H
	DB	01cH
	DB	018H
	DB	0ffH
	DB	018H
	DB	018H
	DB	018H
	DB	0ffH
	DB	018H
	DB	01cH
	DB	018H
	DB	0ffH
	DB	018H
	DB	018H
	DB	018H
	DB	0ffH
	DB	018H
	DB	01cH
	DB	018H
	DB	0ffH
	DB	018H
	DB	01cH
	DB	018H
	DB	0ffH
	DB	018H
	DB	018H
	DB	018H
	DB	0ffH
	DB	018H
	DB	018H
	DB	018H
	DB	0ffH
	DB	018H
	DB	01cH
	DB	018H
	DB	0ffH
	DB	018H
	DB	018H
	DB	018H
	DB	0ffH
	DB	018H
	DB	018H
	DB	018H
	DB	0ffH
	DB	018H
	DB	01cH
	DB	018H
	DB	0ffH
	DB	018H
	DB	01cH
	DB	018H
	DB	0ffH
	DB	018H
	DB	018H
	DB	018H
	DB	0ffH
	DB	018H
	DB	01cH
	DB	018H
	DB	0ffH
	DB	018H
	DB	018H
	DB	018H
	DB	0ffH
	DB	018H
	DB	01cH
	DB	018H
	DB	0ffH
	DB	018H
	DB	01cH
	DB	018H
	DB	0ffH
	DB	018H
	DB	018H
	DB	018H
	DB	0ffH
	DB	018H
	DB	01cH
	DB	018H
	DB	0ffH
	DB	018H
	DB	018H
	DB	018H
	DB	0ffH
	DB	018H
	DB	01cH
	DB	018H
	DB	0ffH
	DB	018H
	DB	01cH
	DB	018H
	DB	0ffH
	DB	018H
	DB	018H
	DB	018H
	DB	0ffH
	DB	018H
	DB	01cH
	DB	018H
	DB	0ffH
	DB	018H
	DB	018H
	DB	018H
	DB	0ffH
	DB	018H
	DB	01cH
	DB	018H
	DB	0ffH
	DB	018H
	DB	018H
	DB	018H
	DB	0ffH
	DB	018H
	DB	01cH
	DB	018H
	DB	0ffH
	DB	018H
	DB	018H
	DB	018H
	DB	0ffH
	DB	018H
	DB	01cH
	DB	018H
	DB	0ffH
	DB	018H
	DB	01cH
	DB	018H
	DB	0ffH
	DB	018H
	DB	018H
	DB	018H
	DB	0ffH
	DB	018H
	DB	01cH
	DB	018H
	DB	0ffH
	DB	018H
	DB	018H
	DB	018H
	DB	0ffH
	DB	018H
	DB	01cH
	DB	018H
	DB	0ffH
	DB	018H
	DB	018H
	DB	018H
	DB	0ffH
	DB	018H
	DB	01cH
	DB	018H
	DB	0ffH
	DB	018H
	DB	018H
	DB	018H
	DB	0ffH
	DB	018H
	DB	01cH
	DB	018H
	DB	0ffH
	DB	018H
	DB	01cH
	DB	018H
	DB	0ffH
	DB	018H
	DB	018H
	DB	018H
	DB	0ffH
	DB	018H
	DB	01cH
	DB	018H
	DB	0ffH
	DB	018H
	DB	018H
	DB	018H
	DB	0ffH
	DB	018H
	DB	01cH
	DB	018H
	DB	0ffH
	DB	018H
	DB	018H
	DB	018H
	DB	0ffH
	DB	018H
	DB	01cH
	DB	018H
	DB	0ffH
	DB	018H
	DB	018H
	DB	018H
	DB	0ffH
	DB	018H
	DB	01cH
	DB	018H
	DB	0ffH
	DB	018H
	DB	018H
	DB	018H
	DB	0ffH
	DB	018H
	DB	01cH
	DB	018H
	DB	0ffH
	DB	018H
	DB	018H
	DB	018H
	DB	0ffH
	DB	018H
	DB	01cH
	DB	018H
	DB	0ffH
	DB	020H
	DB	01cH
	DB	020H
	DB	0ffH
	DB	018H
	DB	018H
	DB	018H
	DB	0ffH
	DB	018H
	DB	01cH
	DB	018H
	DB	0ffH
	DB	018H
	DB	018H
	DB	018H
	DB	0ffH
	DB	0f8H
	DB	0fcH
	DB	0f8H
	DB	00H
	DB	0f8H
	DB	0fcH
	DB	0f8H
	DB	00H
	DB	0f8H
	DB	0fcH
	DB	0f8H
	DB	00H
	DB	0f8H
	DB	0fcH
	DB	0f8H
	DB	00H
	DB	0f8H
	DB	0fcH
	DB	0f8H
	DB	00H
	DB	0f8H
	DB	0fcH
	DB	0f8H
	DB	00H
	DB	0f8H
	DB	0fcH
	DB	0f8H
	DB	00H
	DB	0f8H
	DB	0fcH
	DB	0f8H
	DB	00H
	DB	0f8H
	DB	0fcH
	DB	0f8H
	DB	00H
	DB	0f8H
	DB	0fcH
	DB	0f8H
	DB	00H
	DB	0f8H
	DB	0fcH
	DB	0f8H
	DB	00H
	DB	0f8H
	DB	0fcH
	DB	0f8H
	DB	00H
	DB	0f8H
	DB	0fcH
	DB	0f8H
	DB	00H
	DB	0f8H
	DB	0fcH
	DB	0f8H
	DB	00H
	DB	0f8H
	DB	0fcH
	DB	0f8H
	DB	00H
	DB	0f8H
	DB	0fcH
	DB	0f8H
	DB	00H
	DB	0f8H
	DB	0fcH
	DB	0f8H
	DB	00H
	DB	0f8H
	DB	0fcH
	DB	0f8H
	DB	00H
	DB	0f8H
	DB	0fcH
	DB	0f8H
	DB	00H
	DB	0f8H
	DB	0fcH
	DB	0f8H
	DB	00H
	DB	0f8H
	DB	0fcH
	DB	0f8H
	DB	00H
	DB	0f8H
	DB	0fcH
	DB	0f8H
	DB	00H
	DB	0f8H
	DB	0fcH
	DB	0f8H
	DB	00H
	DB	0f8H
	DB	0fcH
	DB	0f8H
	DB	00H
	DB	0f8H
	DB	0fcH
	DB	0f8H
	DB	00H
	DB	0f8H
	DB	0fcH
	DB	0f8H
	DB	00H
	DB	0f8H
	DB	0fcH
	DB	0f8H
	DB	00H
	DB	0f8H
	DB	0fcH
	DB	0f8H
	DB	00H
	DB	0f8H
	DB	0fcH
	DB	0f8H
	DB	00H
	DB	0f8H
	DB	0fcH
	DB	0f8H
	DB	00H
	DB	0f8H
	DB	0fcH
	DB	0f8H
	DB	00H
	DB	0f8H
	DB	0fcH
	DB	0f8H
	DB	00H
	DB	0f8H
	DB	0fcH
	DB	0f8H
	DB	00H
	DB	0f8H
	DB	0fcH
	DB	0f8H
	DB	00H
	DB	0f8H
	DB	0fcH
	DB	0f8H
	DB	00H
	DB	0f8H
	DB	0fcH
	DB	0f8H
	DB	00H
	DB	0f8H
	DB	0fcH
	DB	0f8H
	DB	00H
	DB	0f8H
	DB	0fcH
	DB	0f8H
	DB	00H
	DB	0f8H
	DB	0fcH
	DB	0f8H
	DB	00H
	DB	0f8H
	DB	0fcH
	DB	0f8H
	DB	00H
	DB	0f8H
	DB	0fcH
	DB	0f8H
	DB	00H
	DB	0f8H
	DB	0fcH
	DB	0f8H
	DB	00H
	DB	0f8H
	DB	0fcH
	DB	0f8H
	DB	00H
	DB	0f8H
	DB	0fcH
	DB	0f8H
	DB	00H
	DB	0f8H
	DB	0fcH
	DB	0f8H
	DB	00H
	DB	0f8H
	DB	0fcH
	DB	0f8H
	DB	00H
	DB	0f8H
	DB	0fcH
	DB	0f8H
	DB	00H
	DB	0f8H
	DB	0fcH
	DB	0f8H
	DB	00H
	DB	0f8H
	DB	0fcH
	DB	0f8H
	DB	00H
	DB	0f8H
	DB	0fcH
	DB	0f8H
	DB	00H
	DB	0f8H
	DB	0fcH
	DB	0f8H
	DB	00H
	DB	0f8H
	DB	0fcH
	DB	0f8H
	DB	00H
	DB	0f8H
	DB	0fcH
	DB	0f8H
	DB	00H
	DB	0f8H
	DB	0fcH
	DB	0f8H
	DB	00H
	DB	0f8H
	DB	0fcH
	DB	0f8H
	DB	00H
	DB	0f8H
	DB	0fcH
	DB	0f8H
	DB	00H
	DB	0f8H
	DB	0fcH
	DB	0f8H
	DB	00H
	DB	0f8H
	DB	0fcH
	DB	0f8H
	DB	00H
	DB	0f8H
	DB	0fcH
	DB	0f8H
	DB	00H
	DB	0f8H
	DB	0fcH
	DB	0f8H
	DB	00H
	DB	018H
	DB	018H
	DB	018H
	DB	0ffH
	DB	018H
	DB	01cH
	DB	018H
	DB	0ffH
	DB	020H
	DB	018H
	DB	020H
	DB	0ffH
	DB	018H
	DB	018H
	DB	018H
	DB	0ffH
	DB	018H
	DB	01cH
	DB	018H
	DB	0ffH
	DB	020H
	DB	018H
	DB	020H
	DB	0ffH
	DB	018H
	DB	01cH
	DB	018H
	DB	0ffH
	DB	018H
	DB	018H
	DB	018H
	DB	0ffH
	DB	018H
	DB	01cH
	DB	018H
	DB	0ffH
	DB	020H
	DB	018H
	DB	020H
	DB	0ffH
	DB	018H
	DB	01cH
	DB	018H
	DB	0ffH
	DB	018H
	DB	01cH
	DB	018H
	DB	0ffH
	DB	020H
	DB	018H
	DB	020H
	DB	0ffH
	DB	018H
	DB	018H
	DB	018H
	DB	0ffH
	DB	018H
	DB	01cH
	DB	018H
	DB	0ffH
	DB	020H
	DB	018H
	DB	020H
	DB	0ffH
	DB	018H
	DB	018H
	DB	018H
	DB	0ffH
	DB	018H
	DB	01cH
	DB	018H
	DB	0ffH
	DB	020H
	DB	01cH
	DB	020H
	DB	0ffH
	DB	018H
	DB	018H
	DB	018H
	DB	0ffH
	DB	018H
	DB	018H
	DB	018H
	DB	0ffH
	DB	020H
	DB	01cH
	DB	020H
	DB	0ffH
	DB	018H
	DB	018H
	DB	018H
	DB	0ffH
	DB	018H
	DB	018H
	DB	018H
	DB	0ffH
	DB	020H
	DB	01cH
	DB	020H
	DB	0ffH
	DB	018H
	DB	018H
	DB	018H
	DB	0ffH
	DB	018H
	DB	01cH
	DB	018H
	DB	0ffH
	DB	020H
	DB	018H
	DB	020H
	DB	0ffH
	DB	018H
	DB	01cH
	DB	018H
	DB	0ffH
	DB	018H
	DB	018H
	DB	018H
	DB	0ffH
	DB	020H
	DB	01cH
	DB	020H
	DB	0ffH
	DB	018H
	DB	018H
	DB	018H
	DB	0ffH
	DB	018H
	DB	01cH
	DB	018H
	DB	0ffH
	DB	020H
	DB	018H
	DB	020H
	DB	0ffH
	DB	018H
	DB	018H
	DB	018H
	DB	0ffH
	DB	018H
	DB	01cH
	DB	018H
	DB	0ffH
	DB	020H
	DB	01cH
	DB	020H
	DB	0ffH
	DB	018H
	DB	018H
	DB	018H
	DB	0ffH
	DB	018H
	DB	01cH
	DB	018H
	DB	0ffH
	DB	020H
	DB	01cH
	DB	020H
	DB	0ffH
	DB	018H
	DB	018H
	DB	018H
	DB	0ffH
	DB	018H
	DB	018H
	DB	018H
	DB	0ffH
	DB	020H
	DB	01cH
	DB	020H
	DB	0ffH
	DB	018H
	DB	018H
	DB	018H
	DB	0ffH
	DB	018H
	DB	01cH
	DB	018H
	DB	0ffH
	DB	020H
	DB	018H
	DB	020H
	DB	0ffH
	DB	018H
	DB	01cH
	DB	018H
	DB	0ffH
	DB	018H
	DB	018H
	DB	018H
	DB	0ffH
	DB	020H
	DB	01cH
	DB	020H
	DB	0ffH
	DB	018H
	DB	018H
	DB	018H
	DB	0ffH
	DB	018H
	DB	01cH
	DB	018H
	DB	0ffH
	DB	020H
	DB	018H
	DB	020H
	DB	0ffH
	DB	018H
	DB	01cH
	DB	018H
	DB	0ffH
	DB	018H
	DB	018H
	DB	018H
	DB	0ffH
	DB	018H
	DB	01cH
	DB	018H
	DB	0ffH
	DB	020H
	DB	018H
	DB	020H
	DB	0ffH
	DB	018H
	DB	018H
	DB	018H
	DB	0ffH
	DB	018H
	DB	01cH
	DB	018H
	DB	0ffH
	DB	018H
	DB	01cH
	DB	018H
	DB	0ffH
	DB	018H
	DB	018H
	DB	018H
	DB	0ffH
	DB	0f8H
	DB	0fcH
	DB	0f8H
	DB	00H
	DB	0f8H
	DB	0fcH
	DB	0f8H
	DB	00H
	DB	0f8H
	DB	0fcH
	DB	0f8H
	DB	00H
	DB	0f8H
	DB	0fcH
	DB	0f8H
	DB	00H
	DB	0f8H
	DB	0fcH
	DB	0f8H
	DB	00H
	DB	0f8H
	DB	0fcH
	DB	0f8H
	DB	00H
	DB	0f8H
	DB	0fcH
	DB	0f8H
	DB	00H
	DB	0f8H
	DB	0fcH
	DB	0f8H
	DB	00H
	DB	0f8H
	DB	0fcH
	DB	0f8H
	DB	00H
	DB	0f8H
	DB	0fcH
	DB	0f8H
	DB	00H
	DB	0f8H
	DB	0fcH
	DB	0f8H
	DB	00H
	DB	0f8H
	DB	0fcH
	DB	0f8H
	DB	00H
	DB	0f8H
	DB	0fcH
	DB	0f8H
	DB	00H
	DB	0f8H
	DB	0fcH
	DB	0f8H
	DB	00H
	DB	0f8H
	DB	0fcH
	DB	0f8H
	DB	00H
	DB	0f8H
	DB	0fcH
	DB	0f8H
	DB	00H
	DB	0f8H
	DB	0fcH
	DB	0f8H
	DB	00H
	DB	0f8H
	DB	0fcH
	DB	0f8H
	DB	00H
	DB	0f8H
	DB	0fcH
	DB	0f8H
	DB	00H
	DB	0f8H
	DB	0fcH
	DB	0f8H
	DB	00H
	DB	0f8H
	DB	0fcH
	DB	0f8H
	DB	00H
	DB	0f8H
	DB	0fcH
	DB	0f8H
	DB	00H
	DB	0f8H
	DB	0fcH
	DB	0f8H
	DB	00H
	DB	0f8H
	DB	0fcH
	DB	0f8H
	DB	00H
	DB	0f8H
	DB	0fcH
	DB	0f8H
	DB	00H
	DB	0f8H
	DB	0fcH
	DB	0f8H
	DB	00H
	DB	0f8H
	DB	0fcH
	DB	0f8H
	DB	00H
	DB	0f8H
	DB	0fcH
	DB	0f8H
	DB	00H
	DB	0f8H
	DB	0fcH
	DB	0f8H
	DB	00H
	DB	0f8H
	DB	0fcH
	DB	0f8H
	DB	00H
	DB	0f8H
	DB	0fcH
	DB	0f8H
	DB	00H
	DB	0f8H
	DB	0fcH
	DB	0f8H
	DB	00H
	DB	0f8H
	DB	0fcH
	DB	0f8H
	DB	00H
	DB	0f8H
	DB	0fcH
	DB	0f8H
	DB	00H
	DB	0f8H
	DB	0fcH
	DB	0f8H
	DB	00H
	DB	0f8H
	DB	0fcH
	DB	0f8H
	DB	00H
	DB	0f8H
	DB	0fcH
	DB	0f8H
	DB	00H
	DB	0f8H
	DB	0fcH
	DB	0f8H
	DB	00H
	DB	0f8H
	DB	0fcH
	DB	0f8H
	DB	00H
	DB	0f8H
	DB	0fcH
	DB	0f8H
	DB	00H
	DB	0f8H
	DB	0fcH
	DB	0f8H
	DB	00H
	DB	0f8H
	DB	0fcH
	DB	0f8H
	DB	00H
	DB	0f8H
	DB	0fcH
	DB	0f8H
	DB	00H
	DB	0f8H
	DB	0fcH
	DB	0f8H
	DB	00H
	DB	0f8H
	DB	0fcH
	DB	0f8H
	DB	00H
	DB	0f8H
	DB	0fcH
	DB	0f8H
	DB	00H
	DB	0f8H
	DB	0fcH
	DB	0f8H
	DB	00H
	DB	0f8H
	DB	0fcH
	DB	0f8H
	DB	00H
	DB	0f8H
	DB	0fcH
	DB	0f8H
	DB	00H
	DB	0f8H
	DB	0fcH
	DB	0f8H
	DB	00H
	DB	0f8H
	DB	0fcH
	DB	0f8H
	DB	00H
	DB	0f8H
	DB	0fcH
	DB	0f8H
	DB	00H
	DB	0f8H
	DB	0fcH
	DB	0f8H
	DB	00H
	DB	0f8H
	DB	0fcH
	DB	0f8H
	DB	00H
	DB	0f8H
	DB	0fcH
	DB	0f8H
	DB	00H
	DB	0f8H
	DB	0fcH
	DB	0f8H
	DB	00H
	DB	0f8H
	DB	0fcH
	DB	0f8H
	DB	00H
	DB	0f8H
	DB	0fcH
	DB	0f8H
	DB	00H
	DB	0f8H
	DB	0fcH
	DB	0f8H
	DB	00H
	DB	0f8H
	DB	0fcH
	DB	0f8H
	DB	00H
	DB	018H
	DB	018H
	DB	018H
	DB	0ffH
	DB	018H
	DB	01cH
	DB	018H
	DB	0ffH
	DB	020H
	DB	01cH
	DB	020H
	DB	0ffH
	DB	018H
	DB	018H
	DB	018H
	DB	0ffH
	DB	018H
	DB	01cH
	DB	018H
	DB	0ffH
	DB	020H
	DB	01cH
	DB	020H
	DB	0ffH
	DB	018H
	DB	018H
	DB	018H
	DB	0ffH
	DB	018H
	DB	018H
	DB	018H
	DB	0ffH
	DB	020H
	DB	01cH
	DB	020H
	DB	0ffH
	DB	018H
	DB	018H
	DB	018H
	DB	0ffH
	DB	018H
	DB	018H
	DB	018H
	DB	0ffH
	DB	020H
	DB	01cH
	DB	020H
	DB	0ffH
	DB	018H
	DB	01cH
	DB	018H
	DB	0ffH
	DB	018H
	DB	018H
	DB	018H
	DB	0ffH
	DB	020H
	DB	01cH
	DB	020H
	DB	0ffH
	DB	018H
	DB	01cH
	DB	018H
	DB	0ffH
	DB	018H
	DB	018H
	DB	018H
	DB	0ffH
	DB	020H
	DB	018H
	DB	020H
	DB	0ffH
	DB	018H
	DB	01cH
	DB	018H
	DB	0ffH
	DB	018H
	DB	018H
	DB	018H
	DB	0ffH
	DB	020H
	DB	01cH
	DB	020H
	DB	0ffH
	DB	018H
	DB	01cH
	DB	018H
	DB	0ffH
	DB	018H
	DB	018H
	DB	018H
	DB	0ffH
	DB	020H
	DB	01cH
	DB	020H
	DB	0ffH
	DB	018H
	DB	018H
	DB	018H
	DB	0ffH
	DB	018H
	DB	018H
	DB	018H
	DB	0ffH
	DB	020H
	DB	01cH
	DB	020H
	DB	0ffH
	DB	018H
	DB	01cH
	DB	018H
	DB	0ffH
	DB	018H
	DB	018H
	DB	018H
	DB	0ffH
	DB	020H
	DB	01cH
	DB	020H
	DB	0ffH
	DB	018H
	DB	018H
	DB	018H
	DB	0ffH
	DB	018H
	DB	01cH
	DB	018H
	DB	0ffH
	DB	020H
	DB	01cH
	DB	020H
	DB	0ffH
	DB	018H
	DB	018H
	DB	018H
	DB	0ffH
	DB	018H
	DB	018H
	DB	018H
	DB	0ffH
	DB	020H
	DB	01cH
	DB	020H
	DB	0ffH
	DB	018H
	DB	018H
	DB	018H
	DB	0ffH
	DB	018H
	DB	018H
	DB	018H
	DB	0ffH
	DB	020H
	DB	01cH
	DB	020H
	DB	0ffH
	DB	018H
	DB	018H
	DB	018H
	DB	0ffH
	DB	018H
	DB	01cH
	DB	018H
	DB	0ffH
	DB	020H
	DB	01cH
	DB	020H
	DB	0ffH
	DB	018H
	DB	018H
	DB	018H
	DB	0ffH
	DB	018H
	DB	018H
	DB	018H
	DB	0ffH
	DB	020H
	DB	01cH
	DB	020H
	DB	0ffH
	DB	018H
	DB	01cH
	DB	018H
	DB	0ffH
	DB	018H
	DB	018H
	DB	018H
	DB	0ffH
	DB	020H
	DB	01cH
	DB	020H
	DB	0ffH
	DB	018H
	DB	018H
	DB	018H
	DB	0ffH
	DB	018H
	DB	01cH
	DB	018H
	DB	0ffH
	DB	020H
	DB	018H
	DB	020H
	DB	0ffH
	DB	018H
	DB	01cH
	DB	018H
	DB	0ffH
	DB	018H
	DB	018H
	DB	018H
	DB	0ffH
	DB	020H
	DB	01cH
	DB	020H
	DB	0ffH
	DB	018H
	DB	01cH
	DB	018H
	DB	0ffH
	DB	018H
	DB	018H
	DB	018H
	DB	0ffH
	DB	018H
	DB	018H
	DB	018H
	DB	0ffH
	DB	020H
	DB	01cH
	DB	020H
	DB	0ffH
	DB	018H
	DB	018H
	DB	018H
	DB	0ffH
	DB	018H
	DB	018H
	DB	018H
	DB	0ffH
	DB	0f8H
	DB	0fcH
	DB	0f8H
	DB	00H
	DB	0f8H
	DB	0fcH
	DB	0f8H
	DB	00H
	DB	0f8H
	DB	0fcH
	DB	0f8H
	DB	00H
	DB	0f8H
	DB	0fcH
	DB	0f8H
	DB	00H
	DB	0f8H
	DB	0fcH
	DB	0f8H
	DB	00H
	DB	0f8H
	DB	0fcH
	DB	0f8H
	DB	00H
	DB	0f8H
	DB	0fcH
	DB	0f8H
	DB	00H
	DB	0f8H
	DB	0fcH
	DB	0f8H
	DB	00H
	DB	0f8H
	DB	0fcH
	DB	0f8H
	DB	00H
	DB	0f8H
	DB	0fcH
	DB	0f8H
	DB	00H
	DB	0f8H
	DB	0fcH
	DB	0f8H
	DB	00H
	DB	0f8H
	DB	0fcH
	DB	0f8H
	DB	00H
	DB	0f8H
	DB	0fcH
	DB	0f8H
	DB	00H
	DB	0f8H
	DB	0fcH
	DB	0f8H
	DB	00H
	DB	0f8H
	DB	0fcH
	DB	0f8H
	DB	00H
	DB	0f8H
	DB	0fcH
	DB	0f8H
	DB	00H
	DB	0f8H
	DB	0fcH
	DB	0f8H
	DB	00H
	DB	0f8H
	DB	0fcH
	DB	0f8H
	DB	00H
	DB	0f8H
	DB	0fcH
	DB	0f8H
	DB	00H
	DB	0f8H
	DB	0fcH
	DB	0f8H
	DB	00H
	DB	0f8H
	DB	0fcH
	DB	0f8H
	DB	00H
	DB	0f8H
	DB	0fcH
	DB	0f8H
	DB	00H
	DB	0f8H
	DB	0fcH
	DB	0f8H
	DB	00H
	DB	0f8H
	DB	0fcH
	DB	0f8H
	DB	00H
	DB	0f8H
	DB	0fcH
	DB	0f8H
	DB	00H
	DB	0f8H
	DB	0fcH
	DB	0f8H
	DB	00H
	DB	0f8H
	DB	0fcH
	DB	0f8H
	DB	00H
	DB	0f8H
	DB	0fcH
	DB	0f8H
	DB	00H
	DB	0f8H
	DB	0fcH
	DB	0f8H
	DB	00H
	DB	0f8H
	DB	0fcH
	DB	0f8H
	DB	00H
	DB	0f8H
	DB	0fcH
	DB	0f8H
	DB	00H
	DB	0f8H
	DB	0fcH
	DB	0f8H
	DB	00H
	DB	0f8H
	DB	0fcH
	DB	0f8H
	DB	00H
	DB	0f8H
	DB	0fcH
	DB	0f8H
	DB	00H
	DB	0f8H
	DB	0fcH
	DB	0f8H
	DB	00H
	DB	0f8H
	DB	0fcH
	DB	0f8H
	DB	00H
	DB	0f8H
	DB	0fcH
	DB	0f8H
	DB	00H
	DB	0f8H
	DB	0fcH
	DB	0f8H
	DB	00H
	DB	0f8H
	DB	0fcH
	DB	0f8H
	DB	00H
	DB	0f8H
	DB	0fcH
	DB	0f8H
	DB	00H
	DB	0f8H
	DB	0fcH
	DB	0f8H
	DB	00H
	DB	0f8H
	DB	0fcH
	DB	0f8H
	DB	00H
	DB	0f8H
	DB	0fcH
	DB	0f8H
	DB	00H
	DB	0f8H
	DB	0fcH
	DB	0f8H
	DB	00H
	DB	0f8H
	DB	0fcH
	DB	0f8H
	DB	00H
	DB	0f8H
	DB	0fcH
	DB	0f8H
	DB	00H
	DB	0f8H
	DB	0fcH
	DB	0f8H
	DB	00H
	DB	0f8H
	DB	0fcH
	DB	0f8H
	DB	00H
	DB	0f8H
	DB	0fcH
	DB	0f8H
	DB	00H
	DB	0f8H
	DB	0fcH
	DB	0f8H
	DB	00H
	DB	0f8H
	DB	0fcH
	DB	0f8H
	DB	00H
	DB	0f8H
	DB	0fcH
	DB	0f8H
	DB	00H
	DB	0f8H
	DB	0fcH
	DB	0f8H
	DB	00H
	DB	0f8H
	DB	0fcH
	DB	0f8H
	DB	00H
	DB	0f8H
	DB	0fcH
	DB	0f8H
	DB	00H
	DB	0f8H
	DB	0fcH
	DB	0f8H
	DB	00H
	DB	0f8H
	DB	0fcH
	DB	0f8H
	DB	00H
	DB	0f8H
	DB	0fcH
	DB	0f8H
	DB	00H
	DB	0f8H
	DB	0fcH
	DB	0f8H
	DB	00H
	DB	0f8H
	DB	0fcH
	DB	0f8H
	DB	00H
	DB	018H
	DB	018H
	DB	018H
	DB	0ffH
	DB	018H
	DB	01cH
	DB	018H
	DB	0ffH
	DB	018H
	DB	018H
	DB	018H
	DB	0ffH
	DB	018H
	DB	01cH
	DB	018H
	DB	0ffH
	DB	018H
	DB	018H
	DB	018H
	DB	0ffH
	DB	018H
	DB	01cH
	DB	018H
	DB	0ffH
	DB	018H
	DB	018H
	DB	018H
	DB	0ffH
	DB	020H
	DB	01cH
	DB	020H
	DB	0ffH
	DB	018H
	DB	01cH
	DB	018H
	DB	0ffH
	DB	018H
	DB	018H
	DB	018H
	DB	0ffH
	DB	018H
	DB	01cH
	DB	018H
	DB	0ffH
	DB	018H
	DB	018H
	DB	018H
	DB	0ffH
	DB	018H
	DB	018H
	DB	018H
	DB	0ffH
	DB	018H
	DB	01cH
	DB	018H
	DB	0ffH
	DB	018H
	DB	018H
	DB	018H
	DB	0ffH
	DB	018H
	DB	01cH
	DB	018H
	DB	0ffH
	DB	018H
	DB	01cH
	DB	018H
	DB	0ffH
	DB	018H
	DB	018H
	DB	018H
	DB	0ffH
	DB	018H
	DB	01cH
	DB	018H
	DB	0ffH
	DB	018H
	DB	018H
	DB	018H
	DB	0ffH
	DB	098H
	DB	070H
	DB	010H
	DB	0ffH
	DB	0e8H
	DB	0a8H
	DB	00H
	DB	0ffH
	DB	0f0H
	DB	0acH
	DB	00H
	DB	0ffH
	DB	0f0H
	DB	0b0H
	DB	00H
	DB	0ffH
	DB	0f0H
	DB	0b0H
	DB	00H
	DB	0ffH
	DB	0c8H
	DB	090H
	DB	08H
	DB	0ffH
	DB	088H
	DB	064H
	DB	010H
	DB	0ffH
	DB	018H
	DB	018H
	DB	018H
	DB	0ffH
	DB	018H
	DB	01cH
	DB	018H
	DB	0ffH
	DB	018H
	DB	018H
	DB	018H
	DB	0ffH
	DB	018H
	DB	018H
	DB	018H
	DB	0ffH
	DB	038H
	DB	02cH
	DB	018H
	DB	0ffH
	DB	0f0H
	DB	0b0H
	DB	00H
	DB	0ffH
	DB	0f0H
	DB	0acH
	DB	00H
	DB	0ffH
	DB	0f0H
	DB	0b0H
	DB	00H
	DB	0ffH
	DB	078H
	DB	05cH
	DB	010H
	DB	0ffH
	DB	018H
	DB	018H
	DB	018H
	DB	0ffH
	DB	018H
	DB	01cH
	DB	018H
	DB	0ffH
	DB	018H
	DB	018H
	DB	018H
	DB	0ffH
	DB	070H
	DB	050H
	DB	018H
	DB	0ffH
	DB	0f0H
	DB	0b0H
	DB	00H
	DB	0ffH
	DB	0f0H
	DB	0acH
	DB	00H
	DB	0ffH
	DB	018H
	DB	01cH
	DB	018H
	DB	0ffH
	DB	018H
	DB	018H
	DB	018H
	DB	0ffH
	DB	018H
	DB	018H
	DB	018H
	DB	0ffH
	DB	018H
	DB	01cH
	DB	018H
	DB	0ffH
	DB	018H
	DB	018H
	DB	018H
	DB	0ffH
	DB	018H
	DB	018H
	DB	018H
	DB	0ffH
	DB	018H
	DB	01cH
	DB	018H
	DB	0ffH
	DB	018H
	DB	018H
	DB	018H
	DB	0ffH
	DB	018H
	DB	01cH
	DB	018H
	DB	0ffH
	DB	018H
	DB	018H
	DB	018H
	DB	0ffH
	DB	018H
	DB	01cH
	DB	018H
	DB	0ffH
	DB	020H
	DB	018H
	DB	020H
	DB	0ffH
	DB	018H
	DB	018H
	DB	018H
	DB	0ffH
	DB	018H
	DB	01cH
	DB	018H
	DB	0ffH
	DB	020H
	DB	01cH
	DB	020H
	DB	0ffH
	DB	018H
	DB	018H
	DB	018H
	DB	0ffH
	DB	018H
	DB	01cH
	DB	018H
	DB	0ffH
	DB	020H
	DB	01cH
	DB	020H
	DB	0ffH
	DB	0f8H
	DB	0fcH
	DB	0f8H
	DB	00H
	DB	0f8H
	DB	0fcH
	DB	0f8H
	DB	00H
	DB	0f8H
	DB	0fcH
	DB	0f8H
	DB	00H
	DB	0f8H
	DB	0fcH
	DB	0f8H
	DB	00H
	DB	0f8H
	DB	0fcH
	DB	0f8H
	DB	00H
	DB	0f8H
	DB	0fcH
	DB	0f8H
	DB	00H
	DB	0f8H
	DB	0fcH
	DB	0f8H
	DB	00H
	DB	0f8H
	DB	0fcH
	DB	0f8H
	DB	00H
	DB	0f8H
	DB	0fcH
	DB	0f8H
	DB	00H
	DB	0f8H
	DB	0fcH
	DB	0f8H
	DB	00H
	DB	0f8H
	DB	0fcH
	DB	0f8H
	DB	00H
	DB	0f8H
	DB	0fcH
	DB	0f8H
	DB	00H
	DB	0f8H
	DB	0fcH
	DB	0f8H
	DB	00H
	DB	0f8H
	DB	0fcH
	DB	0f8H
	DB	00H
	DB	0f8H
	DB	0fcH
	DB	0f8H
	DB	00H
	DB	0f8H
	DB	0fcH
	DB	0f8H
	DB	00H
	DB	0f8H
	DB	0fcH
	DB	0f8H
	DB	00H
	DB	0f8H
	DB	0fcH
	DB	0f8H
	DB	00H
	DB	0f8H
	DB	0fcH
	DB	0f8H
	DB	00H
	DB	0f8H
	DB	0fcH
	DB	0f8H
	DB	00H
	DB	0f8H
	DB	0fcH
	DB	0f8H
	DB	00H
	DB	0f8H
	DB	0fcH
	DB	0f8H
	DB	00H
	DB	0f8H
	DB	0fcH
	DB	0f8H
	DB	00H
	DB	0f8H
	DB	0fcH
	DB	0f8H
	DB	00H
	DB	0f8H
	DB	0fcH
	DB	0f8H
	DB	00H
	DB	0f8H
	DB	0fcH
	DB	0f8H
	DB	00H
	DB	0f8H
	DB	0fcH
	DB	0f8H
	DB	00H
	DB	0f8H
	DB	0fcH
	DB	0f8H
	DB	00H
	DB	0f8H
	DB	0fcH
	DB	0f8H
	DB	00H
	DB	0f8H
	DB	0fcH
	DB	0f8H
	DB	00H
	DB	0f8H
	DB	0fcH
	DB	0f8H
	DB	00H
	DB	0f8H
	DB	0fcH
	DB	0f8H
	DB	00H
	DB	0f8H
	DB	0fcH
	DB	0f8H
	DB	00H
	DB	0f8H
	DB	0fcH
	DB	0f8H
	DB	00H
	DB	0f8H
	DB	0fcH
	DB	0f8H
	DB	00H
	DB	0f8H
	DB	0fcH
	DB	0f8H
	DB	00H
	DB	0f8H
	DB	0fcH
	DB	0f8H
	DB	00H
	DB	0f8H
	DB	0fcH
	DB	0f8H
	DB	00H
	DB	0f8H
	DB	0fcH
	DB	0f8H
	DB	00H
	DB	0f8H
	DB	0fcH
	DB	0f8H
	DB	00H
	DB	0f8H
	DB	0fcH
	DB	0f8H
	DB	00H
	DB	0f8H
	DB	0fcH
	DB	0f8H
	DB	00H
	DB	0f8H
	DB	0fcH
	DB	0f8H
	DB	00H
	DB	0f8H
	DB	0fcH
	DB	0f8H
	DB	00H
	DB	0f8H
	DB	0fcH
	DB	0f8H
	DB	00H
	DB	0f8H
	DB	0fcH
	DB	0f8H
	DB	00H
	DB	0f8H
	DB	0fcH
	DB	0f8H
	DB	00H
	DB	0f8H
	DB	0fcH
	DB	0f8H
	DB	00H
	DB	0f8H
	DB	0fcH
	DB	0f8H
	DB	00H
	DB	0f8H
	DB	0fcH
	DB	0f8H
	DB	00H
	DB	0f8H
	DB	0fcH
	DB	0f8H
	DB	00H
	DB	0f8H
	DB	0fcH
	DB	0f8H
	DB	00H
	DB	0f8H
	DB	0fcH
	DB	0f8H
	DB	00H
	DB	0f8H
	DB	0fcH
	DB	0f8H
	DB	00H
	DB	0f8H
	DB	0fcH
	DB	0f8H
	DB	00H
	DB	0f8H
	DB	0fcH
	DB	0f8H
	DB	00H
	DB	0f8H
	DB	0fcH
	DB	0f8H
	DB	00H
	DB	0f8H
	DB	0fcH
	DB	0f8H
	DB	00H
	DB	0f8H
	DB	0fcH
	DB	0f8H
	DB	00H
	DB	0f8H
	DB	0fcH
	DB	0f8H
	DB	00H
	DB	018H
	DB	018H
	DB	018H
	DB	0ffH
	DB	018H
	DB	01cH
	DB	018H
	DB	0ffH
	DB	020H
	DB	018H
	DB	020H
	DB	0ffH
	DB	018H
	DB	018H
	DB	018H
	DB	0ffH
	DB	020H
	DB	01cH
	DB	020H
	DB	0ffH
	DB	018H
	DB	018H
	DB	018H
	DB	0ffH
	DB	018H
	DB	01cH
	DB	018H
	DB	0ffH
	DB	018H
	DB	018H
	DB	018H
	DB	0ffH
	DB	018H
	DB	018H
	DB	018H
	DB	0ffH
	DB	020H
	DB	01cH
	DB	020H
	DB	0ffH
	DB	018H
	DB	01cH
	DB	018H
	DB	0ffH
	DB	018H
	DB	018H
	DB	018H
	DB	0ffH
	DB	020H
	DB	01cH
	DB	020H
	DB	0ffH
	DB	018H
	DB	01cH
	DB	018H
	DB	0ffH
	DB	020H
	DB	018H
	DB	020H
	DB	0ffH
	DB	018H
	DB	018H
	DB	018H
	DB	0ffH
	DB	020H
	DB	01cH
	DB	020H
	DB	0ffH
	DB	018H
	DB	018H
	DB	018H
	DB	0ffH
	DB	018H
	DB	01cH
	DB	018H
	DB	0ffH
	DB	0d0H
	DB	098H
	DB	08H
	DB	0ffH
	DB	0f0H
	DB	0acH
	DB	00H
	DB	0ffH
	DB	0f0H
	DB	0acH
	DB	00H
	DB	0ffH
	DB	0f0H
	DB	0b0H
	DB	00H
	DB	0ffH
	DB	0f0H
	DB	0acH
	DB	00H
	DB	0ffH
	DB	0f0H
	DB	0b0H
	DB	00H
	DB	0ffH
	DB	0f0H
	DB	0acH
	DB	00H
	DB	0ffH
	DB	0f0H
	DB	0b0H
	DB	00H
	DB	0ffH
	DB	098H
	DB	070H
	DB	010H
	DB	0ffH
	DB	018H
	DB	018H
	DB	018H
	DB	0ffH
	DB	018H
	DB	01cH
	DB	018H
	DB	0ffH
	DB	020H
	DB	01cH
	DB	020H
	DB	0ffH
	DB	048H
	DB	038H
	DB	018H
	DB	0ffH
	DB	0f0H
	DB	0acH
	DB	00H
	DB	0ffH
	DB	0f0H
	DB	0b0H
	DB	00H
	DB	0ffH
	DB	0f0H
	DB	0acH
	DB	00H
	DB	0ffH
	DB	0d0H
	DB	098H
	DB	08H
	DB	0ffH
	DB	018H
	DB	01cH
	DB	018H
	DB	0ffH
	DB	020H
	DB	01cH
	DB	018H
	DB	0ffH
	DB	018H
	DB	018H
	DB	018H
	DB	0ffH
	DB	070H
	DB	050H
	DB	018H
	DB	0ffH
	DB	0f0H
	DB	0b0H
	DB	00H
	DB	0ffH
	DB	0f0H
	DB	0acH
	DB	00H
	DB	0ffH
	DB	018H
	DB	01cH
	DB	018H
	DB	0ffH
	DB	018H
	DB	01cH
	DB	020H
	DB	0ffH
	DB	020H
	DB	018H
	DB	018H
	DB	0ffH
	DB	018H
	DB	01cH
	DB	018H
	DB	0ffH
	DB	020H
	DB	01cH
	DB	020H
	DB	0ffH
	DB	018H
	DB	018H
	DB	018H
	DB	0ffH
	DB	020H
	DB	01cH
	DB	020H
	DB	0ffH
	DB	018H
	DB	01cH
	DB	018H
	DB	0ffH
	DB	018H
	DB	018H
	DB	018H
	DB	0ffH
	DB	020H
	DB	01cH
	DB	020H
	DB	0ffH
	DB	018H
	DB	018H
	DB	018H
	DB	0ffH
	DB	018H
	DB	01cH
	DB	018H
	DB	0ffH
	DB	018H
	DB	018H
	DB	018H
	DB	0ffH
	DB	018H
	DB	01cH
	DB	018H
	DB	0ffH
	DB	018H
	DB	018H
	DB	018H
	DB	0ffH
	DB	018H
	DB	018H
	DB	018H
	DB	0ffH
	DB	018H
	DB	01cH
	DB	018H
	DB	0ffH
	DB	018H
	DB	01cH
	DB	018H
	DB	0ffH
	DB	0f8H
	DB	0fcH
	DB	0f8H
	DB	00H
	DB	0f8H
	DB	0fcH
	DB	0f8H
	DB	00H
	DB	0f8H
	DB	0fcH
	DB	0f8H
	DB	00H
	DB	0f8H
	DB	0fcH
	DB	0f8H
	DB	00H
	DB	0f8H
	DB	0fcH
	DB	0f8H
	DB	00H
	DB	0f8H
	DB	0fcH
	DB	0f8H
	DB	00H
	DB	0f8H
	DB	0fcH
	DB	0f8H
	DB	00H
	DB	0f8H
	DB	0fcH
	DB	0f8H
	DB	00H
	DB	0f8H
	DB	0fcH
	DB	0f8H
	DB	00H
	DB	0f8H
	DB	0fcH
	DB	0f8H
	DB	00H
	DB	0f8H
	DB	0fcH
	DB	0f8H
	DB	00H
	DB	0f8H
	DB	0fcH
	DB	0f8H
	DB	00H
	DB	0f8H
	DB	0fcH
	DB	0f8H
	DB	00H
	DB	0f8H
	DB	0fcH
	DB	0f8H
	DB	00H
	DB	0f8H
	DB	0fcH
	DB	0f8H
	DB	00H
	DB	0f8H
	DB	0fcH
	DB	0f8H
	DB	00H
	DB	0f8H
	DB	0fcH
	DB	0f8H
	DB	00H
	DB	0f8H
	DB	0fcH
	DB	0f8H
	DB	00H
	DB	0f8H
	DB	0fcH
	DB	0f8H
	DB	00H
	DB	0f8H
	DB	0fcH
	DB	0f8H
	DB	00H
	DB	0f8H
	DB	0fcH
	DB	0f8H
	DB	00H
	DB	0f8H
	DB	0fcH
	DB	0f8H
	DB	00H
	DB	0f8H
	DB	0fcH
	DB	0f8H
	DB	00H
	DB	0f8H
	DB	0fcH
	DB	0f8H
	DB	00H
	DB	0f8H
	DB	0fcH
	DB	0f8H
	DB	00H
	DB	0f8H
	DB	0fcH
	DB	0f8H
	DB	00H
	DB	0f8H
	DB	0fcH
	DB	0f8H
	DB	00H
	DB	0f8H
	DB	0fcH
	DB	0f8H
	DB	00H
	DB	0f8H
	DB	0fcH
	DB	0f8H
	DB	00H
	DB	0f8H
	DB	0fcH
	DB	0f8H
	DB	00H
	DB	0f8H
	DB	0fcH
	DB	0f8H
	DB	00H
	DB	0f8H
	DB	0fcH
	DB	0f8H
	DB	00H
	DB	0f8H
	DB	0fcH
	DB	0f8H
	DB	00H
	DB	0f8H
	DB	0fcH
	DB	0f8H
	DB	00H
	DB	0f8H
	DB	0fcH
	DB	0f8H
	DB	00H
	DB	0f8H
	DB	0fcH
	DB	0f8H
	DB	00H
	DB	0f8H
	DB	0fcH
	DB	0f8H
	DB	00H
	DB	0f8H
	DB	0fcH
	DB	0f8H
	DB	00H
	DB	0f8H
	DB	0fcH
	DB	0f8H
	DB	00H
	DB	0f8H
	DB	0fcH
	DB	0f8H
	DB	00H
	DB	0f8H
	DB	0fcH
	DB	0f8H
	DB	00H
	DB	0f8H
	DB	0fcH
	DB	0f8H
	DB	00H
	DB	0f8H
	DB	0fcH
	DB	0f8H
	DB	00H
	DB	0f8H
	DB	0fcH
	DB	0f8H
	DB	00H
	DB	0f8H
	DB	0fcH
	DB	0f8H
	DB	00H
	DB	0f8H
	DB	0fcH
	DB	0f8H
	DB	00H
	DB	0f8H
	DB	0fcH
	DB	0f8H
	DB	00H
	DB	0f8H
	DB	0fcH
	DB	0f8H
	DB	00H
	DB	0f8H
	DB	0fcH
	DB	0f8H
	DB	00H
	DB	0f8H
	DB	0fcH
	DB	0f8H
	DB	00H
	DB	0f8H
	DB	0fcH
	DB	0f8H
	DB	00H
	DB	0f8H
	DB	0fcH
	DB	0f8H
	DB	00H
	DB	0f8H
	DB	0fcH
	DB	0f8H
	DB	00H
	DB	0f8H
	DB	0fcH
	DB	0f8H
	DB	00H
	DB	0f8H
	DB	0fcH
	DB	0f8H
	DB	00H
	DB	0f8H
	DB	0fcH
	DB	0f8H
	DB	00H
	DB	0f8H
	DB	0fcH
	DB	0f8H
	DB	00H
	DB	0f8H
	DB	0fcH
	DB	0f8H
	DB	00H
	DB	0f8H
	DB	0fcH
	DB	0f8H
	DB	00H
	DB	0f8H
	DB	0fcH
	DB	0f8H
	DB	00H
	DB	018H
	DB	01cH
	DB	018H
	DB	0ffH
	DB	018H
	DB	018H
	DB	018H
	DB	0ffH
	DB	020H
	DB	01cH
	DB	020H
	DB	0ffH
	DB	018H
	DB	01cH
	DB	018H
	DB	0ffH
	DB	018H
	DB	018H
	DB	018H
	DB	0ffH
	DB	020H
	DB	01cH
	DB	020H
	DB	0ffH
	DB	018H
	DB	018H
	DB	018H
	DB	0ffH
	DB	018H
	DB	01cH
	DB	018H
	DB	0ffH
	DB	020H
	DB	018H
	DB	020H
	DB	0ffH
	DB	018H
	DB	01cH
	DB	018H
	DB	0ffH
	DB	018H
	DB	018H
	DB	018H
	DB	0ffH
	DB	020H
	DB	018H
	DB	020H
	DB	0ffH
	DB	018H
	DB	01cH
	DB	018H
	DB	0ffH
	DB	018H
	DB	018H
	DB	018H
	DB	0ffH
	DB	018H
	DB	01cH
	DB	018H
	DB	0ffH
	DB	018H
	DB	018H
	DB	018H
	DB	0ffH
	DB	020H
	DB	018H
	DB	020H
	DB	0ffH
	DB	018H
	DB	01cH
	DB	018H
	DB	0ffH
	DB	080H
	DB	05cH
	DB	010H
	DB	0ffH
	DB	0f0H
	DB	0acH
	DB	00H
	DB	0ffH
	DB	0f0H
	DB	0b0H
	DB	00H
	DB	0ffH
	DB	078H
	DB	05cH
	DB	010H
	DB	0ffH
	DB	018H
	DB	018H
	DB	018H
	DB	0ffH
	DB	018H
	DB	01cH
	DB	018H
	DB	0ffH
	DB	018H
	DB	018H
	DB	018H
	DB	0ffH
	DB	0b8H
	DB	088H
	DB	08H
	DB	0ffH
	DB	0f0H
	DB	0b0H
	DB	00H
	DB	0ffH
	DB	0e8H
	DB	0a8H
	DB	00H
	DB	0ffH
	DB	038H
	DB	02cH
	DB	018H
	DB	0ffH
	DB	018H
	DB	018H
	DB	018H
	DB	0ffH
	DB	018H
	DB	01cH
	DB	018H
	DB	0ffH
	DB	048H
	DB	038H
	DB	018H
	DB	0ffH
	DB	0f0H
	DB	0acH
	DB	00H
	DB	0ffH
	DB	0f0H
	DB	0b0H
	DB	00H
	DB	0ffH
	DB	0b0H
	DB	080H
	DB	08H
	DB	0ffH
	DB	0f0H
	DB	0acH
	DB	00H
	DB	0ffH
	DB	070H
	DB	050H
	DB	018H
	DB	0ffH
	DB	018H
	DB	01cH
	DB	018H
	DB	0ffH
	DB	018H
	DB	018H
	DB	018H
	DB	0ffH
	DB	068H
	DB	050H
	DB	010H
	DB	0ffH
	DB	0f0H
	DB	0b0H
	DB	00H
	DB	0ffH
	DB	0f0H
	DB	0acH
	DB	00H
	DB	0ffH
	DB	018H
	DB	018H
	DB	018H
	DB	0ffH
	DB	018H
	DB	01cH
	DB	018H
	DB	0ffH
	DB	018H
	DB	018H
	DB	020H
	DB	0ffH
	DB	020H
	DB	018H
	DB	018H
	DB	0ffH
	DB	018H
	DB	01cH
	DB	018H
	DB	0ffH
	DB	018H
	DB	018H
	DB	020H
	DB	0ffH
	DB	018H
	DB	018H
	DB	018H
	DB	0ffH
	DB	020H
	DB	01cH
	DB	018H
	DB	0ffH
	DB	018H
	DB	018H
	DB	020H
	DB	0ffH
	DB	018H
	DB	01cH
	DB	018H
	DB	0ffH
	DB	020H
	DB	01cH
	DB	018H
	DB	0ffH
	DB	018H
	DB	018H
	DB	020H
	DB	0ffH
	DB	020H
	DB	01cH
	DB	018H
	DB	0ffH
	DB	018H
	DB	01cH
	DB	020H
	DB	0ffH
	DB	020H
	DB	018H
	DB	018H
	DB	0ffH
	DB	018H
	DB	01cH
	DB	020H
	DB	0ffH
	DB	020H
	DB	018H
	DB	018H
	DB	0ffH
	DB	018H
	DB	018H
	DB	018H
	DB	0ffH
	DB	0f8H
	DB	0fcH
	DB	0f8H
	DB	00H
	DB	0f8H
	DB	0fcH
	DB	0f8H
	DB	00H
	DB	0f8H
	DB	0fcH
	DB	0f8H
	DB	00H
	DB	0f8H
	DB	0fcH
	DB	0f8H
	DB	00H
	DB	0f8H
	DB	0fcH
	DB	0f8H
	DB	00H
	DB	0f8H
	DB	0fcH
	DB	0f8H
	DB	00H
	DB	0f8H
	DB	0fcH
	DB	0f8H
	DB	00H
	DB	0f8H
	DB	0fcH
	DB	0f8H
	DB	00H
	DB	0f8H
	DB	0fcH
	DB	0f8H
	DB	00H
	DB	0f8H
	DB	0fcH
	DB	0f8H
	DB	00H
	DB	0f8H
	DB	0fcH
	DB	0f8H
	DB	00H
	DB	0f8H
	DB	0fcH
	DB	0f8H
	DB	00H
	DB	0f8H
	DB	0fcH
	DB	0f8H
	DB	00H
	DB	0f8H
	DB	0fcH
	DB	0f8H
	DB	00H
	DB	0f8H
	DB	0fcH
	DB	0f8H
	DB	00H
	DB	0f8H
	DB	0fcH
	DB	0f8H
	DB	00H
	DB	0f8H
	DB	0fcH
	DB	0f8H
	DB	00H
	DB	0f8H
	DB	0fcH
	DB	0f8H
	DB	00H
	DB	0f8H
	DB	0fcH
	DB	0f8H
	DB	00H
	DB	0f8H
	DB	0fcH
	DB	0f8H
	DB	00H
	DB	0f8H
	DB	0fcH
	DB	0f8H
	DB	00H
	DB	0f8H
	DB	0fcH
	DB	0f8H
	DB	00H
	DB	0f8H
	DB	0fcH
	DB	0f8H
	DB	00H
	DB	0f8H
	DB	0fcH
	DB	0f8H
	DB	00H
	DB	0f8H
	DB	0fcH
	DB	0f8H
	DB	00H
	DB	0f8H
	DB	0fcH
	DB	0f8H
	DB	00H
	DB	0f8H
	DB	0fcH
	DB	0f8H
	DB	00H
	DB	0f8H
	DB	0fcH
	DB	0f8H
	DB	00H
	DB	0f8H
	DB	0fcH
	DB	0f8H
	DB	00H
	DB	0f8H
	DB	0fcH
	DB	0f8H
	DB	00H
	DB	0f8H
	DB	0fcH
	DB	0f8H
	DB	00H
	DB	0f8H
	DB	0fcH
	DB	0f8H
	DB	00H
	DB	0f8H
	DB	0fcH
	DB	0f8H
	DB	00H
	DB	0f8H
	DB	0fcH
	DB	0f8H
	DB	00H
	DB	0f8H
	DB	0fcH
	DB	0f8H
	DB	00H
	DB	0f8H
	DB	0fcH
	DB	0f8H
	DB	00H
	DB	0f8H
	DB	0fcH
	DB	0f8H
	DB	00H
	DB	0f8H
	DB	0fcH
	DB	0f8H
	DB	00H
	DB	0f8H
	DB	0fcH
	DB	0f8H
	DB	00H
	DB	0f8H
	DB	0fcH
	DB	0f8H
	DB	00H
	DB	0f8H
	DB	0fcH
	DB	0f8H
	DB	00H
	DB	0f8H
	DB	0fcH
	DB	0f8H
	DB	00H
	DB	0f8H
	DB	0fcH
	DB	0f8H
	DB	00H
	DB	0f8H
	DB	0fcH
	DB	0f8H
	DB	00H
	DB	0f8H
	DB	0fcH
	DB	0f8H
	DB	00H
	DB	0f8H
	DB	0fcH
	DB	0f8H
	DB	00H
	DB	0f8H
	DB	0fcH
	DB	0f8H
	DB	00H
	DB	0f8H
	DB	0fcH
	DB	0f8H
	DB	00H
	DB	0f8H
	DB	0fcH
	DB	0f8H
	DB	00H
	DB	0f8H
	DB	0fcH
	DB	0f8H
	DB	00H
	DB	0f8H
	DB	0fcH
	DB	0f8H
	DB	00H
	DB	0f8H
	DB	0fcH
	DB	0f8H
	DB	00H
	DB	0f8H
	DB	0fcH
	DB	0f8H
	DB	00H
	DB	0f8H
	DB	0fcH
	DB	0f8H
	DB	00H
	DB	0f8H
	DB	0fcH
	DB	0f8H
	DB	00H
	DB	0f8H
	DB	0fcH
	DB	0f8H
	DB	00H
	DB	0f8H
	DB	0fcH
	DB	0f8H
	DB	00H
	DB	0f8H
	DB	0fcH
	DB	0f8H
	DB	00H
	DB	0f8H
	DB	0fcH
	DB	0f8H
	DB	00H
	DB	0f8H
	DB	0fcH
	DB	0f8H
	DB	00H
	DB	018H
	DB	018H
	DB	018H
	DB	0ffH
	DB	018H
	DB	01cH
	DB	018H
	DB	0ffH
	DB	018H
	DB	018H
	DB	018H
	DB	0ffH
	DB	018H
	DB	018H
	DB	018H
	DB	0ffH
	DB	018H
	DB	01cH
	DB	018H
	DB	0ffH
	DB	018H
	DB	018H
	DB	018H
	DB	0ffH
	DB	020H
	DB	01cH
	DB	020H
	DB	0ffH
	DB	018H
	DB	01cH
	DB	018H
	DB	0ffH
	DB	018H
	DB	018H
	DB	018H
	DB	0ffH
	DB	018H
	DB	01cH
	DB	018H
	DB	0ffH
	DB	018H
	DB	01cH
	DB	018H
	DB	0ffH
	DB	018H
	DB	018H
	DB	018H
	DB	0ffH
	DB	018H
	DB	018H
	DB	018H
	DB	0ffH
	DB	020H
	DB	01cH
	DB	020H
	DB	0ffH
	DB	018H
	DB	01cH
	DB	018H
	DB	0ffH
	DB	018H
	DB	018H
	DB	018H
	DB	0ffH
	DB	018H
	DB	01cH
	DB	018H
	DB	0ffH
	DB	018H
	DB	01cH
	DB	018H
	DB	0ffH
	DB	0a8H
	DB	078H
	DB	010H
	DB	0ffH
	DB	0f0H
	DB	0acH
	DB	00H
	DB	0ffH
	DB	0d0H
	DB	098H
	DB	08H
	DB	0ffH
	DB	018H
	DB	01cH
	DB	018H
	DB	0ffH
	DB	018H
	DB	018H
	DB	018H
	DB	0ffH
	DB	018H
	DB	01cH
	DB	020H
	DB	0ffH
	DB	018H
	DB	018H
	DB	018H
	DB	0ffH
	DB	060H
	DB	044H
	DB	018H
	DB	0ffH
	DB	0f0H
	DB	0acH
	DB	00H
	DB	0ffH
	DB	0f0H
	DB	0acH
	DB	00H
	DB	0ffH
	DB	070H
	DB	050H
	DB	018H
	DB	0ffH
	DB	018H
	DB	018H
	DB	018H
	DB	0ffH
	DB	018H
	DB	01cH
	DB	018H
	DB	0ffH
	DB	048H
	DB	038H
	DB	018H
	DB	0ffH
	DB	0f0H
	DB	0b0H
	DB	00H
	DB	0ffH
	DB	0f0H
	DB	0acH
	DB	00H
	DB	0ffH
	DB	068H
	DB	050H
	DB	010H
	DB	0ffH
	DB	0f0H
	DB	0b0H
	DB	00H
	DB	0ffH
	DB	0c8H
	DB	090H
	DB	08H
	DB	0ffH
	DB	018H
	DB	018H
	DB	018H
	DB	0ffH
	DB	018H
	DB	01cH
	DB	018H
	DB	0ffH
	DB	070H
	DB	050H
	DB	018H
	DB	0ffH
	DB	0f0H
	DB	0b0H
	DB	00H
	DB	0ffH
	DB	0f0H
	DB	0b0H
	DB	00H
	DB	0ffH
	DB	018H
	DB	018H
	DB	018H
	DB	0ffH
	DB	018H
	DB	01cH
	DB	018H
	DB	0ffH
	DB	018H
	DB	01cH
	DB	018H
	DB	0ffH
	DB	018H
	DB	018H
	DB	018H
	DB	0ffH
	DB	018H
	DB	01cH
	DB	018H
	DB	0ffH
	DB	018H
	DB	01cH
	DB	018H
	DB	0ffH
	DB	018H
	DB	018H
	DB	018H
	DB	0ffH
	DB	018H
	DB	018H
	DB	018H
	DB	0ffH
	DB	018H
	DB	01cH
	DB	018H
	DB	0ffH
	DB	018H
	DB	018H
	DB	018H
	DB	0ffH
	DB	018H
	DB	018H
	DB	018H
	DB	0ffH
	DB	018H
	DB	01cH
	DB	018H
	DB	0ffH
	DB	018H
	DB	018H
	DB	020H
	DB	0ffH
	DB	020H
	DB	018H
	DB	018H
	DB	0ffH
	DB	018H
	DB	01cH
	DB	018H
	DB	0ffH
	DB	018H
	DB	01cH
	DB	020H
	DB	0ffH
	DB	018H
	DB	018H
	DB	018H
	DB	0ffH
	DB	020H
	DB	018H
	DB	018H
	DB	0ffH
	DB	0f8H
	DB	0fcH
	DB	0f8H
	DB	00H
	DB	0f8H
	DB	0fcH
	DB	0f8H
	DB	00H
	DB	0f8H
	DB	0fcH
	DB	0f8H
	DB	00H
	DB	0f8H
	DB	0fcH
	DB	0f8H
	DB	00H
	DB	0f8H
	DB	0fcH
	DB	0f8H
	DB	00H
	DB	0f8H
	DB	0fcH
	DB	0f8H
	DB	00H
	DB	0f8H
	DB	0fcH
	DB	0f8H
	DB	00H
	DB	0f8H
	DB	0fcH
	DB	0f8H
	DB	00H
	DB	0f8H
	DB	0fcH
	DB	0f8H
	DB	00H
	DB	0f8H
	DB	0fcH
	DB	0f8H
	DB	00H
	DB	0f8H
	DB	0fcH
	DB	0f8H
	DB	00H
	DB	0f8H
	DB	0fcH
	DB	0f8H
	DB	00H
	DB	0f8H
	DB	0fcH
	DB	0f8H
	DB	00H
	DB	0f8H
	DB	0fcH
	DB	0f8H
	DB	00H
	DB	0f8H
	DB	0fcH
	DB	0f8H
	DB	00H
	DB	0f8H
	DB	0fcH
	DB	0f8H
	DB	00H
	DB	0f8H
	DB	0fcH
	DB	0f8H
	DB	00H
	DB	0f8H
	DB	0fcH
	DB	0f8H
	DB	00H
	DB	0f8H
	DB	0fcH
	DB	0f8H
	DB	00H
	DB	0f8H
	DB	0fcH
	DB	0f8H
	DB	00H
	DB	0f8H
	DB	0fcH
	DB	0f8H
	DB	00H
	DB	0f8H
	DB	0fcH
	DB	0f8H
	DB	00H
	DB	0f8H
	DB	0fcH
	DB	0f8H
	DB	00H
	DB	0f8H
	DB	0fcH
	DB	0f8H
	DB	00H
	DB	0f8H
	DB	0fcH
	DB	0f8H
	DB	00H
	DB	0f8H
	DB	0fcH
	DB	0f8H
	DB	00H
	DB	0f8H
	DB	0fcH
	DB	0f8H
	DB	00H
	DB	0f8H
	DB	0fcH
	DB	0f8H
	DB	00H
	DB	0f8H
	DB	0fcH
	DB	0f8H
	DB	00H
	DB	0f8H
	DB	0fcH
	DB	0f8H
	DB	00H
	DB	0f8H
	DB	0fcH
	DB	0f8H
	DB	00H
	DB	0f8H
	DB	0fcH
	DB	0f8H
	DB	00H
	DB	0f8H
	DB	0fcH
	DB	0f8H
	DB	00H
	DB	0f8H
	DB	0fcH
	DB	0f8H
	DB	00H
	DB	0f8H
	DB	0fcH
	DB	0f8H
	DB	00H
	DB	0f8H
	DB	0fcH
	DB	0f8H
	DB	00H
	DB	0f8H
	DB	0fcH
	DB	0f8H
	DB	00H
	DB	0f8H
	DB	0fcH
	DB	0f8H
	DB	00H
	DB	0f8H
	DB	0fcH
	DB	0f8H
	DB	00H
	DB	0f8H
	DB	0fcH
	DB	0f8H
	DB	00H
	DB	0f8H
	DB	0fcH
	DB	0f8H
	DB	00H
	DB	0f8H
	DB	0fcH
	DB	0f8H
	DB	00H
	DB	0f8H
	DB	0fcH
	DB	0f8H
	DB	00H
	DB	0f8H
	DB	0fcH
	DB	0f8H
	DB	00H
	DB	0f8H
	DB	0fcH
	DB	0f8H
	DB	00H
	DB	0f8H
	DB	0fcH
	DB	0f8H
	DB	00H
	DB	0f8H
	DB	0fcH
	DB	0f8H
	DB	00H
	DB	0f8H
	DB	0fcH
	DB	0f8H
	DB	00H
	DB	0f8H
	DB	0fcH
	DB	0f8H
	DB	00H
	DB	0f8H
	DB	0fcH
	DB	0f8H
	DB	00H
	DB	0f8H
	DB	0fcH
	DB	0f8H
	DB	00H
	DB	0f8H
	DB	0fcH
	DB	0f8H
	DB	00H
	DB	0f8H
	DB	0fcH
	DB	0f8H
	DB	00H
	DB	0f8H
	DB	0fcH
	DB	0f8H
	DB	00H
	DB	0f8H
	DB	0fcH
	DB	0f8H
	DB	00H
	DB	0f8H
	DB	0fcH
	DB	0f8H
	DB	00H
	DB	0f8H
	DB	0fcH
	DB	0f8H
	DB	00H
	DB	0f8H
	DB	0fcH
	DB	0f8H
	DB	00H
	DB	0f8H
	DB	0fcH
	DB	0f8H
	DB	00H
	DB	0f8H
	DB	0fcH
	DB	0f8H
	DB	00H
	DB	018H
	DB	018H
	DB	018H
	DB	0ffH
	DB	020H
	DB	01cH
	DB	020H
	DB	0ffH
	DB	018H
	DB	01cH
	DB	018H
	DB	0ffH
	DB	020H
	DB	018H
	DB	020H
	DB	0ffH
	DB	018H
	DB	01cH
	DB	018H
	DB	0ffH
	DB	018H
	DB	018H
	DB	018H
	DB	0ffH
	DB	018H
	DB	018H
	DB	018H
	DB	0ffH
	DB	020H
	DB	01cH
	DB	020H
	DB	0ffH
	DB	018H
	DB	018H
	DB	018H
	DB	0ffH
	DB	020H
	DB	018H
	DB	020H
	DB	0ffH
	DB	018H
	DB	01cH
	DB	018H
	DB	0ffH
	DB	018H
	DB	01cH
	DB	018H
	DB	0ffH
	DB	020H
	DB	018H
	DB	020H
	DB	0ffH
	DB	018H
	DB	01cH
	DB	018H
	DB	0ffH
	DB	018H
	DB	018H
	DB	018H
	DB	0ffH
	DB	020H
	DB	018H
	DB	020H
	DB	0ffH
	DB	018H
	DB	01cH
	DB	018H
	DB	0ffH
	DB	018H
	DB	018H
	DB	018H
	DB	0ffH
	DB	0c8H
	DB	090H
	DB	08H
	DB	0ffH
	DB	0f0H
	DB	0b0H
	DB	00H
	DB	0ffH
	DB	0b0H
	DB	080H
	DB	08H
	DB	0ffH
	DB	018H
	DB	018H
	DB	018H
	DB	0ffH
	DB	020H
	DB	01cH
	DB	018H
	DB	0ffH
	DB	018H
	DB	018H
	DB	018H
	DB	0ffH
	DB	018H
	DB	01cH
	DB	018H
	DB	0ffH
	DB	018H
	DB	01cH
	DB	018H
	DB	0ffH
	DB	0f0H
	DB	0acH
	DB	00H
	DB	0ffH
	DB	0f0H
	DB	0b0H
	DB	00H
	DB	0ffH
	DB	088H
	DB	064H
	DB	010H
	DB	0ffH
	DB	018H
	DB	01cH
	DB	018H
	DB	0ffH
	DB	018H
	DB	018H
	DB	018H
	DB	0ffH
	DB	050H
	DB	038H
	DB	018H
	DB	0ffH
	DB	0f0H
	DB	0b0H
	DB	00H
	DB	0ffH
	DB	0f0H
	DB	0b0H
	DB	00H
	DB	0ffH
	DB	048H
	DB	038H
	DB	018H
	DB	0ffH
	DB	0b0H
	DB	080H
	DB	08H
	DB	0ffH
	DB	0f0H
	DB	0b0H
	DB	00H
	DB	0ffH
	DB	070H
	DB	050H
	DB	018H
	DB	0ffH
	DB	018H
	DB	01cH
	DB	018H
	DB	0ffH
	DB	070H
	DB	050H
	DB	018H
	DB	0ffH
	DB	0f0H
	DB	0acH
	DB	00H
	DB	0ffH
	DB	0f0H
	DB	0b0H
	DB	00H
	DB	0ffH
	DB	018H
	DB	018H
	DB	018H
	DB	0ffH
	DB	020H
	DB	018H
	DB	020H
	DB	0ffH
	DB	020H
	DB	01cH
	DB	018H
	DB	0ffH
	DB	018H
	DB	018H
	DB	020H
	DB	0ffH
	DB	020H
	DB	018H
	DB	018H
	DB	0ffH
	DB	020H
	DB	01cH
	DB	018H
	DB	0ffH
	DB	018H
	DB	01cH
	DB	020H
	DB	0ffH
	DB	020H
	DB	018H
	DB	020H
	DB	0ffH
	DB	018H
	DB	01cH
	DB	018H
	DB	0ffH
	DB	020H
	DB	018H
	DB	020H
	DB	0ffH
	DB	018H
	DB	01cH
	DB	018H
	DB	0ffH
	DB	018H
	DB	01cH
	DB	018H
	DB	0ffH
	DB	018H
	DB	018H
	DB	018H
	DB	0ffH
	DB	018H
	DB	018H
	DB	018H
	DB	0ffH
	DB	018H
	DB	01cH
	DB	018H
	DB	0ffH
	DB	018H
	DB	018H
	DB	018H
	DB	0ffH
	DB	018H
	DB	01cH
	DB	020H
	DB	0ffH
	DB	018H
	DB	01cH
	DB	018H
	DB	0ffH
	DB	0f8H
	DB	0fcH
	DB	0f8H
	DB	00H
	DB	0f8H
	DB	0fcH
	DB	0f8H
	DB	00H
	DB	0f8H
	DB	0fcH
	DB	0f8H
	DB	00H
	DB	0f8H
	DB	0fcH
	DB	0f8H
	DB	00H
	DB	0f8H
	DB	0fcH
	DB	0f8H
	DB	00H
	DB	0f8H
	DB	0fcH
	DB	0f8H
	DB	00H
	DB	0f8H
	DB	0fcH
	DB	0f8H
	DB	00H
	DB	0f8H
	DB	0fcH
	DB	0f8H
	DB	00H
	DB	0f8H
	DB	0fcH
	DB	0f8H
	DB	00H
	DB	0f8H
	DB	0fcH
	DB	0f8H
	DB	00H
	DB	0f8H
	DB	0fcH
	DB	0f8H
	DB	00H
	DB	0f8H
	DB	0fcH
	DB	0f8H
	DB	00H
	DB	0f8H
	DB	0fcH
	DB	0f8H
	DB	00H
	DB	0f8H
	DB	0fcH
	DB	0f8H
	DB	00H
	DB	0f8H
	DB	0fcH
	DB	0f8H
	DB	00H
	DB	0f8H
	DB	0fcH
	DB	0f8H
	DB	00H
	DB	0f8H
	DB	0fcH
	DB	0f8H
	DB	00H
	DB	0f8H
	DB	0fcH
	DB	0f8H
	DB	00H
	DB	0f8H
	DB	0fcH
	DB	0f8H
	DB	00H
	DB	0f8H
	DB	0fcH
	DB	0f8H
	DB	00H
	DB	0f8H
	DB	0fcH
	DB	0f8H
	DB	00H
	DB	0f8H
	DB	0fcH
	DB	0f8H
	DB	00H
	DB	0f8H
	DB	0fcH
	DB	0f8H
	DB	00H
	DB	0f8H
	DB	0fcH
	DB	0f8H
	DB	00H
	DB	0f8H
	DB	0fcH
	DB	0f8H
	DB	00H
	DB	0f8H
	DB	0fcH
	DB	0f8H
	DB	00H
	DB	0f8H
	DB	0fcH
	DB	0f8H
	DB	00H
	DB	0f8H
	DB	0fcH
	DB	0f8H
	DB	00H
	DB	0f8H
	DB	0fcH
	DB	0f8H
	DB	00H
	DB	0f8H
	DB	0fcH
	DB	0f8H
	DB	00H
	DB	0f8H
	DB	0fcH
	DB	0f8H
	DB	00H
	DB	0f8H
	DB	0fcH
	DB	0f8H
	DB	00H
	DB	0f8H
	DB	0fcH
	DB	0f8H
	DB	00H
	DB	0f8H
	DB	0fcH
	DB	0f8H
	DB	00H
	DB	0f8H
	DB	0fcH
	DB	0f8H
	DB	00H
	DB	0f8H
	DB	0fcH
	DB	0f8H
	DB	00H
	DB	0f8H
	DB	0fcH
	DB	0f8H
	DB	00H
	DB	0f8H
	DB	0fcH
	DB	0f8H
	DB	00H
	DB	0f8H
	DB	0fcH
	DB	0f8H
	DB	00H
	DB	0f8H
	DB	0fcH
	DB	0f8H
	DB	00H
	DB	0f8H
	DB	0fcH
	DB	0f8H
	DB	00H
	DB	0f8H
	DB	0fcH
	DB	0f8H
	DB	00H
	DB	0f8H
	DB	0fcH
	DB	0f8H
	DB	00H
	DB	0f8H
	DB	0fcH
	DB	0f8H
	DB	00H
	DB	0f8H
	DB	0fcH
	DB	0f8H
	DB	00H
	DB	0f8H
	DB	0fcH
	DB	0f8H
	DB	00H
	DB	0f8H
	DB	0fcH
	DB	0f8H
	DB	00H
	DB	0f8H
	DB	0fcH
	DB	0f8H
	DB	00H
	DB	0f8H
	DB	0fcH
	DB	0f8H
	DB	00H
	DB	0f8H
	DB	0fcH
	DB	0f8H
	DB	00H
	DB	0f8H
	DB	0fcH
	DB	0f8H
	DB	00H
	DB	0f8H
	DB	0fcH
	DB	0f8H
	DB	00H
	DB	0f8H
	DB	0fcH
	DB	0f8H
	DB	00H
	DB	0f8H
	DB	0fcH
	DB	0f8H
	DB	00H
	DB	0f8H
	DB	0fcH
	DB	0f8H
	DB	00H
	DB	0f8H
	DB	0fcH
	DB	0f8H
	DB	00H
	DB	0f8H
	DB	0fcH
	DB	0f8H
	DB	00H
	DB	0f8H
	DB	0fcH
	DB	0f8H
	DB	00H
	DB	0f8H
	DB	0fcH
	DB	0f8H
	DB	00H
	DB	0f8H
	DB	0fcH
	DB	0f8H
	DB	00H
	DB	018H
	DB	018H
	DB	018H
	DB	0ffH
	DB	018H
	DB	01cH
	DB	018H
	DB	0ffH
	DB	018H
	DB	018H
	DB	018H
	DB	0ffH
	DB	018H
	DB	01cH
	DB	018H
	DB	0ffH
	DB	020H
	DB	01cH
	DB	020H
	DB	0ffH
	DB	018H
	DB	018H
	DB	018H
	DB	0ffH
	DB	018H
	DB	01cH
	DB	018H
	DB	0ffH
	DB	018H
	DB	01cH
	DB	018H
	DB	0ffH
	DB	018H
	DB	018H
	DB	018H
	DB	0ffH
	DB	018H
	DB	018H
	DB	018H
	DB	0ffH
	DB	020H
	DB	01cH
	DB	020H
	DB	0ffH
	DB	018H
	DB	018H
	DB	018H
	DB	0ffH
	DB	018H
	DB	01cH
	DB	018H
	DB	0ffH
	DB	018H
	DB	018H
	DB	018H
	DB	0ffH
	DB	018H
	DB	01cH
	DB	018H
	DB	0ffH
	DB	020H
	DB	01cH
	DB	020H
	DB	0ffH
	DB	018H
	DB	018H
	DB	018H
	DB	0ffH
	DB	018H
	DB	018H
	DB	018H
	DB	0ffH
	DB	0c8H
	DB	090H
	DB	08H
	DB	0ffH
	DB	0f0H
	DB	0b0H
	DB	00H
	DB	0ffH
	DB	0b0H
	DB	080H
	DB	08H
	DB	0ffH
	DB	018H
	DB	018H
	DB	018H
	DB	0ffH
	DB	018H
	DB	01cH
	DB	020H
	DB	0ffH
	DB	020H
	DB	018H
	DB	018H
	DB	0ffH
	DB	018H
	DB	01cH
	DB	018H
	DB	0ffH
	DB	018H
	DB	01cH
	DB	018H
	DB	0ffH
	DB	0f0H
	DB	0acH
	DB	00H
	DB	0ffH
	DB	0f0H
	DB	0b0H
	DB	00H
	DB	0ffH
	DB	098H
	DB	070H
	DB	010H
	DB	0ffH
	DB	018H
	DB	01cH
	DB	018H
	DB	0ffH
	DB	018H
	DB	018H
	DB	018H
	DB	0ffH
	DB	048H
	DB	038H
	DB	018H
	DB	0ffH
	DB	0f0H
	DB	0b0H
	DB	00H
	DB	0ffH
	DB	0f0H
	DB	0acH
	DB	00H
	DB	0ffH
	DB	048H
	DB	038H
	DB	018H
	DB	0ffH
	DB	060H
	DB	044H
	DB	018H
	DB	0ffH
	DB	0f0H
	DB	0b0H
	DB	00H
	DB	0ffH
	DB	0c8H
	DB	090H
	DB	08H
	DB	0ffH
	DB	018H
	DB	018H
	DB	018H
	DB	0ffH
	DB	068H
	DB	050H
	DB	010H
	DB	0ffH
	DB	0f0H
	DB	0b0H
	DB	00H
	DB	0ffH
	DB	0f0H
	DB	0acH
	DB	00H
	DB	0ffH
	DB	018H
	DB	01cH
	DB	018H
	DB	0ffH
	DB	018H
	DB	01cH
	DB	018H
	DB	0ffH
	DB	018H
	DB	018H
	DB	020H
	DB	0ffH
	DB	018H
	DB	01cH
	DB	018H
	DB	0ffH
	DB	018H
	DB	018H
	DB	018H
	DB	0ffH
	DB	018H
	DB	01cH
	DB	018H
	DB	0ffH
	DB	018H
	DB	018H
	DB	018H
	DB	0ffH
	DB	018H
	DB	01cH
	DB	018H
	DB	0ffH
	DB	020H
	DB	01cH
	DB	018H
	DB	0ffH
	DB	018H
	DB	018H
	DB	018H
	DB	0ffH
	DB	018H
	DB	018H
	DB	020H
	DB	0ffH
	DB	020H
	DB	01cH
	DB	018H
	DB	0ffH
	DB	020H
	DB	01cH
	DB	018H
	DB	0ffH
	DB	018H
	DB	018H
	DB	020H
	DB	0ffH
	DB	020H
	DB	01cH
	DB	018H
	DB	0ffH
	DB	018H
	DB	018H
	DB	018H
	DB	0ffH
	DB	020H
	DB	018H
	DB	018H
	DB	0ffH
	DB	018H
	DB	01cH
	DB	020H
	DB	0ffH
	DB	0f8H
	DB	0fcH
	DB	0f8H
	DB	00H
	DB	0f8H
	DB	0fcH
	DB	0f8H
	DB	00H
	DB	0f8H
	DB	0fcH
	DB	0f8H
	DB	00H
	DB	0f8H
	DB	0fcH
	DB	0f8H
	DB	00H
	DB	0f8H
	DB	0fcH
	DB	0f8H
	DB	00H
	DB	0f8H
	DB	0fcH
	DB	0f8H
	DB	00H
	DB	0f8H
	DB	0fcH
	DB	0f8H
	DB	00H
	DB	0f8H
	DB	0fcH
	DB	0f8H
	DB	00H
	DB	0f8H
	DB	0fcH
	DB	0f8H
	DB	00H
	DB	0f8H
	DB	0fcH
	DB	0f8H
	DB	00H
	DB	0f8H
	DB	0fcH
	DB	0f8H
	DB	00H
	DB	0f8H
	DB	0fcH
	DB	0f8H
	DB	00H
	DB	0f8H
	DB	0fcH
	DB	0f8H
	DB	00H
	DB	0f8H
	DB	0fcH
	DB	0f8H
	DB	00H
	DB	0f8H
	DB	0fcH
	DB	0f8H
	DB	00H
	DB	0f8H
	DB	0fcH
	DB	0f8H
	DB	00H
	DB	0f8H
	DB	0fcH
	DB	0f8H
	DB	00H
	DB	0f8H
	DB	0fcH
	DB	0f8H
	DB	00H
	DB	0f8H
	DB	0fcH
	DB	0f8H
	DB	00H
	DB	0f8H
	DB	0fcH
	DB	0f8H
	DB	00H
	DB	0f8H
	DB	0fcH
	DB	0f8H
	DB	00H
	DB	0f8H
	DB	0fcH
	DB	0f8H
	DB	00H
	DB	0f8H
	DB	0fcH
	DB	0f8H
	DB	00H
	DB	0f8H
	DB	0fcH
	DB	0f8H
	DB	00H
	DB	0f8H
	DB	0fcH
	DB	0f8H
	DB	00H
	DB	0f8H
	DB	0fcH
	DB	0f8H
	DB	00H
	DB	0f8H
	DB	0fcH
	DB	0f8H
	DB	00H
	DB	0f8H
	DB	0fcH
	DB	0f8H
	DB	00H
	DB	0f8H
	DB	0fcH
	DB	0f8H
	DB	00H
	DB	0f8H
	DB	0fcH
	DB	0f8H
	DB	00H
	DB	0f8H
	DB	0fcH
	DB	0f8H
	DB	00H
	DB	0f8H
	DB	0fcH
	DB	0f8H
	DB	00H
	DB	0f8H
	DB	0fcH
	DB	0f8H
	DB	00H
	DB	0f8H
	DB	0fcH
	DB	0f8H
	DB	00H
	DB	0f8H
	DB	0fcH
	DB	0f8H
	DB	00H
	DB	0f8H
	DB	0fcH
	DB	0f8H
	DB	00H
	DB	0f8H
	DB	0fcH
	DB	0f8H
	DB	00H
	DB	0f8H
	DB	0fcH
	DB	0f8H
	DB	00H
	DB	0f8H
	DB	0fcH
	DB	0f8H
	DB	00H
	DB	0f8H
	DB	0fcH
	DB	0f8H
	DB	00H
	DB	0f8H
	DB	0fcH
	DB	0f8H
	DB	00H
	DB	0f8H
	DB	0fcH
	DB	0f8H
	DB	00H
	DB	0f8H
	DB	0fcH
	DB	0f8H
	DB	00H
	DB	0f8H
	DB	0fcH
	DB	0f8H
	DB	00H
	DB	0f8H
	DB	0fcH
	DB	0f8H
	DB	00H
	DB	0f8H
	DB	0fcH
	DB	0f8H
	DB	00H
	DB	0f8H
	DB	0fcH
	DB	0f8H
	DB	00H
	DB	0f8H
	DB	0fcH
	DB	0f8H
	DB	00H
	DB	0f8H
	DB	0fcH
	DB	0f8H
	DB	00H
	DB	0f8H
	DB	0fcH
	DB	0f8H
	DB	00H
	DB	0f8H
	DB	0fcH
	DB	0f8H
	DB	00H
	DB	0f8H
	DB	0fcH
	DB	0f8H
	DB	00H
	DB	0f8H
	DB	0fcH
	DB	0f8H
	DB	00H
	DB	0f8H
	DB	0fcH
	DB	0f8H
	DB	00H
	DB	0f8H
	DB	0fcH
	DB	0f8H
	DB	00H
	DB	0f8H
	DB	0fcH
	DB	0f8H
	DB	00H
	DB	0f8H
	DB	0fcH
	DB	0f8H
	DB	00H
	DB	0f8H
	DB	0fcH
	DB	0f8H
	DB	00H
	DB	0f8H
	DB	0fcH
	DB	0f8H
	DB	00H
	DB	0f8H
	DB	0fcH
	DB	0f8H
	DB	00H
	DB	018H
	DB	018H
	DB	018H
	DB	0ffH
	DB	018H
	DB	01cH
	DB	018H
	DB	0ffH
	DB	020H
	DB	018H
	DB	020H
	DB	0ffH
	DB	018H
	DB	018H
	DB	018H
	DB	0ffH
	DB	018H
	DB	01cH
	DB	018H
	DB	0ffH
	DB	020H
	DB	018H
	DB	020H
	DB	0ffH
	DB	018H
	DB	018H
	DB	018H
	DB	0ffH
	DB	018H
	DB	01cH
	DB	018H
	DB	0ffH
	DB	020H
	DB	01cH
	DB	020H
	DB	0ffH
	DB	018H
	DB	018H
	DB	018H
	DB	0ffH
	DB	018H
	DB	01cH
	DB	018H
	DB	0ffH
	DB	020H
	DB	018H
	DB	020H
	DB	0ffH
	DB	018H
	DB	018H
	DB	018H
	DB	0ffH
	DB	018H
	DB	01cH
	DB	018H
	DB	0ffH
	DB	020H
	DB	018H
	DB	020H
	DB	0ffH
	DB	018H
	DB	01cH
	DB	018H
	DB	0ffH
	DB	018H
	DB	01cH
	DB	018H
	DB	0ffH
	DB	018H
	DB	018H
	DB	018H
	DB	0ffH
	DB	0c8H
	DB	090H
	DB	08H
	DB	0ffH
	DB	0f0H
	DB	0acH
	DB	00H
	DB	0ffH
	DB	0b0H
	DB	080H
	DB	08H
	DB	0ffH
	DB	018H
	DB	01cH
	DB	018H
	DB	0ffH
	DB	018H
	DB	018H
	DB	020H
	DB	0ffH
	DB	018H
	DB	018H
	DB	018H
	DB	0ffH
	DB	018H
	DB	01cH
	DB	020H
	DB	0ffH
	DB	018H
	DB	018H
	DB	018H
	DB	0ffH
	DB	0f0H
	DB	0acH
	DB	00H
	DB	0ffH
	DB	0f0H
	DB	0b0H
	DB	00H
	DB	0ffH
	DB	098H
	DB	070H
	DB	010H
	DB	0ffH
	DB	018H
	DB	018H
	DB	018H
	DB	0ffH
	DB	018H
	DB	01cH
	DB	018H
	DB	0ffH
	DB	048H
	DB	038H
	DB	018H
	DB	0ffH
	DB	0f0H
	DB	0acH
	DB	00H
	DB	0ffH
	DB	0f0H
	DB	0b0H
	DB	00H
	DB	0ffH
	DB	048H
	DB	038H
	DB	018H
	DB	0ffH
	DB	018H
	DB	01cH
	DB	018H
	DB	0ffH
	DB	0c8H
	DB	090H
	DB	08H
	DB	0ffH
	DB	0f0H
	DB	0acH
	DB	00H
	DB	0ffH
	DB	068H
	DB	050H
	DB	010H
	DB	0ffH
	DB	068H
	DB	050H
	DB	010H
	DB	0ffH
	DB	0f0H
	DB	0b0H
	DB	00H
	DB	0ffH
	DB	0f0H
	DB	0acH
	DB	00H
	DB	0ffH
	DB	018H
	DB	01cH
	DB	018H
	DB	0ffH
	DB	018H
	DB	018H
	DB	018H
	DB	0ffH
	DB	018H
	DB	01cH
	DB	018H
	DB	0ffH
	DB	018H
	DB	01cH
	DB	018H
	DB	0ffH
	DB	018H
	DB	018H
	DB	020H
	DB	0ffH
	DB	018H
	DB	018H
	DB	018H
	DB	0ffH
	DB	018H
	DB	01cH
	DB	018H
	DB	0ffH
	DB	018H
	DB	018H
	DB	020H
	DB	0ffH
	DB	018H
	DB	018H
	DB	018H
	DB	0ffH
	DB	018H
	DB	01cH
	DB	018H
	DB	0ffH
	DB	018H
	DB	018H
	DB	018H
	DB	0ffH
	DB	018H
	DB	018H
	DB	020H
	DB	0ffH
	DB	018H
	DB	01cH
	DB	018H
	DB	0ffH
	DB	018H
	DB	01cH
	DB	018H
	DB	0ffH
	DB	018H
	DB	018H
	DB	020H
	DB	0ffH
	DB	018H
	DB	01cH
	DB	018H
	DB	0ffH
	DB	018H
	DB	01cH
	DB	018H
	DB	0ffH
	DB	020H
	DB	018H
	DB	018H
	DB	0ffH
	DB	0f8H
	DB	0fcH
	DB	0f8H
	DB	00H
	DB	0f8H
	DB	0fcH
	DB	0f8H
	DB	00H
	DB	0f8H
	DB	0fcH
	DB	0f8H
	DB	00H
	DB	0f8H
	DB	0fcH
	DB	0f8H
	DB	00H
	DB	0f8H
	DB	0fcH
	DB	0f8H
	DB	00H
	DB	0f8H
	DB	0fcH
	DB	0f8H
	DB	00H
	DB	0f8H
	DB	0fcH
	DB	0f8H
	DB	00H
	DB	0f8H
	DB	0fcH
	DB	0f8H
	DB	00H
	DB	0f8H
	DB	0fcH
	DB	0f8H
	DB	00H
	DB	0f8H
	DB	0fcH
	DB	0f8H
	DB	00H
	DB	0f8H
	DB	0fcH
	DB	0f8H
	DB	00H
	DB	0f8H
	DB	0fcH
	DB	0f8H
	DB	00H
	DB	0f8H
	DB	0fcH
	DB	0f8H
	DB	00H
	DB	0f8H
	DB	0fcH
	DB	0f8H
	DB	00H
	DB	0f8H
	DB	0fcH
	DB	0f8H
	DB	00H
	DB	0f8H
	DB	0fcH
	DB	0f8H
	DB	00H
	DB	0f8H
	DB	0fcH
	DB	0f8H
	DB	00H
	DB	0f8H
	DB	0fcH
	DB	0f8H
	DB	00H
	DB	0f8H
	DB	0fcH
	DB	0f8H
	DB	00H
	DB	0f8H
	DB	0fcH
	DB	0f8H
	DB	00H
	DB	0f8H
	DB	0fcH
	DB	0f8H
	DB	00H
	DB	0f8H
	DB	0fcH
	DB	0f8H
	DB	00H
	DB	0f8H
	DB	0fcH
	DB	0f8H
	DB	00H
	DB	0f8H
	DB	0fcH
	DB	0f8H
	DB	00H
	DB	0f8H
	DB	0fcH
	DB	0f8H
	DB	00H
	DB	0f8H
	DB	0fcH
	DB	0f8H
	DB	00H
	DB	0f8H
	DB	0fcH
	DB	0f8H
	DB	00H
	DB	0f8H
	DB	0fcH
	DB	0f8H
	DB	00H
	DB	0f8H
	DB	0fcH
	DB	0f8H
	DB	00H
	DB	0f8H
	DB	0fcH
	DB	0f8H
	DB	00H
	DB	0f8H
	DB	0fcH
	DB	0f8H
	DB	00H
	DB	0f8H
	DB	0fcH
	DB	0f8H
	DB	00H
	DB	0f8H
	DB	0fcH
	DB	0f8H
	DB	00H
	DB	0f8H
	DB	0fcH
	DB	0f8H
	DB	00H
	DB	0f8H
	DB	0fcH
	DB	0f8H
	DB	00H
	DB	0f8H
	DB	0fcH
	DB	0f8H
	DB	00H
	DB	0f8H
	DB	0fcH
	DB	0f8H
	DB	00H
	DB	0f8H
	DB	0fcH
	DB	0f8H
	DB	00H
	DB	0f8H
	DB	0fcH
	DB	0f8H
	DB	00H
	DB	0f8H
	DB	0fcH
	DB	0f8H
	DB	00H
	DB	0f8H
	DB	0fcH
	DB	0f8H
	DB	00H
	DB	0f8H
	DB	0fcH
	DB	0f8H
	DB	00H
	DB	0f8H
	DB	0fcH
	DB	0f8H
	DB	00H
	DB	0f8H
	DB	0fcH
	DB	0f8H
	DB	00H
	DB	0f8H
	DB	0fcH
	DB	0f8H
	DB	00H
	DB	0f8H
	DB	0fcH
	DB	0f8H
	DB	00H
	DB	0f8H
	DB	0fcH
	DB	0f8H
	DB	00H
	DB	0f8H
	DB	0fcH
	DB	0f8H
	DB	00H
	DB	0f8H
	DB	0fcH
	DB	0f8H
	DB	00H
	DB	0f8H
	DB	0fcH
	DB	0f8H
	DB	00H
	DB	0f8H
	DB	0fcH
	DB	0f8H
	DB	00H
	DB	0f8H
	DB	0fcH
	DB	0f8H
	DB	00H
	DB	0f8H
	DB	0fcH
	DB	0f8H
	DB	00H
	DB	0f8H
	DB	0fcH
	DB	0f8H
	DB	00H
	DB	0f8H
	DB	0fcH
	DB	0f8H
	DB	00H
	DB	0f8H
	DB	0fcH
	DB	0f8H
	DB	00H
	DB	0f8H
	DB	0fcH
	DB	0f8H
	DB	00H
	DB	0f8H
	DB	0fcH
	DB	0f8H
	DB	00H
	DB	0f8H
	DB	0fcH
	DB	0f8H
	DB	00H
	DB	0f8H
	DB	0fcH
	DB	0f8H
	DB	00H
	DB	018H
	DB	01cH
	DB	018H
	DB	0ffH
	DB	018H
	DB	018H
	DB	018H
	DB	0ffH
	DB	020H
	DB	01cH
	DB	020H
	DB	0ffH
	DB	018H
	DB	018H
	DB	018H
	DB	0ffH
	DB	018H
	DB	01cH
	DB	018H
	DB	0ffH
	DB	018H
	DB	01cH
	DB	018H
	DB	0ffH
	DB	018H
	DB	018H
	DB	018H
	DB	0ffH
	DB	020H
	DB	018H
	DB	020H
	DB	0ffH
	DB	018H
	DB	01cH
	DB	018H
	DB	0ffH
	DB	018H
	DB	01cH
	DB	018H
	DB	0ffH
	DB	018H
	DB	018H
	DB	018H
	DB	0ffH
	DB	018H
	DB	01cH
	DB	018H
	DB	0ffH
	DB	020H
	DB	01cH
	DB	020H
	DB	0ffH
	DB	018H
	DB	018H
	DB	018H
	DB	0ffH
	DB	018H
	DB	018H
	DB	018H
	DB	0ffH
	DB	018H
	DB	01cH
	DB	018H
	DB	0ffH
	DB	018H
	DB	018H
	DB	018H
	DB	0ffH
	DB	018H
	DB	01cH
	DB	020H
	DB	0ffH
	DB	0c8H
	DB	090H
	DB	08H
	DB	0ffH
	DB	0f0H
	DB	0acH
	DB	00H
	DB	0ffH
	DB	0b0H
	DB	080H
	DB	08H
	DB	0ffH
	DB	018H
	DB	01cH
	DB	018H
	DB	0ffH
	DB	018H
	DB	018H
	DB	018H
	DB	0ffH
	DB	020H
	DB	01cH
	DB	018H
	DB	0ffH
	DB	018H
	DB	01cH
	DB	018H
	DB	0ffH
	DB	018H
	DB	018H
	DB	020H
	DB	0ffH
	DB	0f0H
	DB	0acH
	DB	00H
	DB	0ffH
	DB	0f0H
	DB	0b0H
	DB	00H
	DB	0ffH
	DB	088H
	DB	064H
	DB	010H
	DB	0ffH
	DB	018H
	DB	018H
	DB	018H
	DB	0ffH
	DB	020H
	DB	01cH
	DB	018H
	DB	0ffH
	DB	048H
	DB	038H
	DB	018H
	DB	0ffH
	DB	0f0H
	DB	0b0H
	DB	00H
	DB	0ffH
	DB	0f0H
	DB	0b0H
	DB	00H
	DB	0ffH
	DB	048H
	DB	038H
	DB	018H
	DB	0ffH
	DB	018H
	DB	018H
	DB	018H
	DB	0ffH
	DB	068H
	DB	050H
	DB	010H
	DB	0ffH
	DB	0f0H
	DB	0b0H
	DB	00H
	DB	0ffH
	DB	0b0H
	DB	080H
	DB	08H
	DB	0ffH
	DB	070H
	DB	050H
	DB	018H
	DB	0ffH
	DB	0f0H
	DB	0b0H
	DB	00H
	DB	0ffH
	DB	0f0H
	DB	0b0H
	DB	00H
	DB	0ffH
	DB	018H
	DB	018H
	DB	020H
	DB	0ffH
	DB	020H
	DB	018H
	DB	018H
	DB	0ffH
	DB	020H
	DB	01cH
	DB	018H
	DB	0ffH
	DB	018H
	DB	018H
	DB	020H
	DB	0ffH
	DB	020H
	DB	01cH
	DB	018H
	DB	0ffH
	DB	020H
	DB	01cH
	DB	018H
	DB	0ffH
	DB	018H
	DB	018H
	DB	020H
	DB	0ffH
	DB	020H
	DB	01cH
	DB	018H
	DB	0ffH
	DB	018H
	DB	01cH
	DB	018H
	DB	0ffH
	DB	020H
	DB	01cH
	DB	020H
	DB	0ffH
	DB	018H
	DB	018H
	DB	018H
	DB	0ffH
	DB	018H
	DB	01cH
	DB	018H
	DB	0ffH
	DB	020H
	DB	018H
	DB	018H
	DB	0ffH
	DB	018H
	DB	018H
	DB	018H
	DB	0ffH
	DB	018H
	DB	01cH
	DB	020H
	DB	0ffH
	DB	020H
	DB	018H
	DB	018H
	DB	0ffH
	DB	018H
	DB	01cH
	DB	018H
	DB	0ffH
	DB	018H
	DB	018H
	DB	020H
	DB	0ffH
	DB	0f8H
	DB	0fcH
	DB	0f8H
	DB	00H
	DB	0f8H
	DB	0fcH
	DB	0f8H
	DB	00H
	DB	0f8H
	DB	0fcH
	DB	0f8H
	DB	00H
	DB	0f8H
	DB	0fcH
	DB	0f8H
	DB	00H
	DB	0f8H
	DB	0fcH
	DB	0f8H
	DB	00H
	DB	0f8H
	DB	0fcH
	DB	0f8H
	DB	00H
	DB	0f8H
	DB	0fcH
	DB	0f8H
	DB	00H
	DB	0f8H
	DB	0fcH
	DB	0f8H
	DB	00H
	DB	0f8H
	DB	0fcH
	DB	0f8H
	DB	00H
	DB	0f8H
	DB	0fcH
	DB	0f8H
	DB	00H
	DB	0f8H
	DB	0fcH
	DB	0f8H
	DB	00H
	DB	0f8H
	DB	0fcH
	DB	0f8H
	DB	00H
	DB	0f8H
	DB	0fcH
	DB	0f8H
	DB	00H
	DB	0f8H
	DB	0fcH
	DB	0f8H
	DB	00H
	DB	0f8H
	DB	0fcH
	DB	0f8H
	DB	00H
	DB	0f8H
	DB	0fcH
	DB	0f8H
	DB	00H
	DB	0f8H
	DB	0fcH
	DB	0f8H
	DB	00H
	DB	0f8H
	DB	0fcH
	DB	0f8H
	DB	00H
	DB	0f8H
	DB	0fcH
	DB	0f8H
	DB	00H
	DB	0f8H
	DB	0fcH
	DB	0f8H
	DB	00H
	DB	0f8H
	DB	0fcH
	DB	0f8H
	DB	00H
	DB	0f8H
	DB	0fcH
	DB	0f8H
	DB	00H
	DB	0f8H
	DB	0fcH
	DB	0f8H
	DB	00H
	DB	0f8H
	DB	0fcH
	DB	0f8H
	DB	00H
	DB	0f8H
	DB	0fcH
	DB	0f8H
	DB	00H
	DB	0f8H
	DB	0fcH
	DB	0f8H
	DB	00H
	DB	0f8H
	DB	0fcH
	DB	0f8H
	DB	00H
	DB	0f8H
	DB	0fcH
	DB	0f8H
	DB	00H
	DB	0f8H
	DB	0fcH
	DB	0f8H
	DB	00H
	DB	0f8H
	DB	0fcH
	DB	0f8H
	DB	00H
	DB	0f8H
	DB	0fcH
	DB	0f8H
	DB	00H
	DB	0f8H
	DB	0fcH
	DB	0f8H
	DB	00H
	DB	0f8H
	DB	0fcH
	DB	0f8H
	DB	00H
	DB	0f8H
	DB	0fcH
	DB	0f8H
	DB	00H
	DB	0f8H
	DB	0fcH
	DB	0f8H
	DB	00H
	DB	0f8H
	DB	0fcH
	DB	0f8H
	DB	00H
	DB	0f8H
	DB	0fcH
	DB	0f8H
	DB	00H
	DB	0f8H
	DB	0fcH
	DB	0f8H
	DB	00H
	DB	0f8H
	DB	0fcH
	DB	0f8H
	DB	00H
	DB	0f8H
	DB	0fcH
	DB	0f8H
	DB	00H
	DB	0f8H
	DB	0fcH
	DB	0f8H
	DB	00H
	DB	0f8H
	DB	0fcH
	DB	0f8H
	DB	00H
	DB	0f8H
	DB	0fcH
	DB	0f8H
	DB	00H
	DB	0f8H
	DB	0fcH
	DB	0f8H
	DB	00H
	DB	0f8H
	DB	0fcH
	DB	0f8H
	DB	00H
	DB	0f8H
	DB	0fcH
	DB	0f8H
	DB	00H
	DB	0f8H
	DB	0fcH
	DB	0f8H
	DB	00H
	DB	0f8H
	DB	0fcH
	DB	0f8H
	DB	00H
	DB	0f8H
	DB	0fcH
	DB	0f8H
	DB	00H
	DB	0f8H
	DB	0fcH
	DB	0f8H
	DB	00H
	DB	0f8H
	DB	0fcH
	DB	0f8H
	DB	00H
	DB	0f8H
	DB	0fcH
	DB	0f8H
	DB	00H
	DB	0f8H
	DB	0fcH
	DB	0f8H
	DB	00H
	DB	0f8H
	DB	0fcH
	DB	0f8H
	DB	00H
	DB	0f8H
	DB	0fcH
	DB	0f8H
	DB	00H
	DB	0f8H
	DB	0fcH
	DB	0f8H
	DB	00H
	DB	0f8H
	DB	0fcH
	DB	0f8H
	DB	00H
	DB	0f8H
	DB	0fcH
	DB	0f8H
	DB	00H
	DB	0f8H
	DB	0fcH
	DB	0f8H
	DB	00H
	DB	0f8H
	DB	0fcH
	DB	0f8H
	DB	00H
	DB	018H
	DB	018H
	DB	018H
	DB	0ffH
	DB	018H
	DB	01cH
	DB	018H
	DB	0ffH
	DB	018H
	DB	018H
	DB	018H
	DB	0ffH
	DB	018H
	DB	01cH
	DB	018H
	DB	0ffH
	DB	020H
	DB	018H
	DB	020H
	DB	0ffH
	DB	018H
	DB	01cH
	DB	018H
	DB	0ffH
	DB	018H
	DB	01cH
	DB	018H
	DB	0ffH
	DB	018H
	DB	018H
	DB	018H
	DB	0ffH
	DB	018H
	DB	018H
	DB	018H
	DB	0ffH
	DB	020H
	DB	01cH
	DB	020H
	DB	0ffH
	DB	018H
	DB	018H
	DB	018H
	DB	0ffH
	DB	018H
	DB	018H
	DB	018H
	DB	0ffH
	DB	018H
	DB	01cH
	DB	018H
	DB	0ffH
	DB	018H
	DB	01cH
	DB	018H
	DB	0ffH
	DB	020H
	DB	018H
	DB	020H
	DB	0ffH
	DB	018H
	DB	018H
	DB	018H
	DB	0ffH
	DB	020H
	DB	01cH
	DB	018H
	DB	0ffH
	DB	018H
	DB	018H
	DB	018H
	DB	0ffH
	DB	0a0H
	DB	078H
	DB	08H
	DB	0ffH
	DB	0f0H
	DB	0b0H
	DB	00H
	DB	0ffH
	DB	0d0H
	DB	098H
	DB	08H
	DB	0ffH
	DB	018H
	DB	018H
	DB	018H
	DB	0ffH
	DB	018H
	DB	01cH
	DB	018H
	DB	0ffH
	DB	020H
	DB	018H
	DB	020H
	DB	0ffH
	DB	018H
	DB	01cH
	DB	018H
	DB	0ffH
	DB	060H
	DB	044H
	DB	018H
	DB	0ffH
	DB	0f0H
	DB	0b0H
	DB	00H
	DB	0ffH
	DB	0f0H
	DB	0acH
	DB	00H
	DB	0ffH
	DB	070H
	DB	050H
	DB	010H
	DB	0ffH
	DB	018H
	DB	01cH
	DB	018H
	DB	0ffH
	DB	018H
	DB	018H
	DB	020H
	DB	0ffH
	DB	048H
	DB	038H
	DB	018H
	DB	0ffH
	DB	0f0H
	DB	0b0H
	DB	00H
	DB	0ffH
	DB	0f0H
	DB	0acH
	DB	00H
	DB	0ffH
	DB	048H
	DB	038H
	DB	018H
	DB	0ffH
	DB	018H
	DB	01cH
	DB	018H
	DB	0ffH
	DB	018H
	DB	01cH
	DB	018H
	DB	0ffH
	DB	0d8H
	DB	0a0H
	DB	00H
	DB	0ffH
	DB	0f0H
	DB	0b0H
	DB	00H
	DB	0ffH
	DB	088H
	DB	064H
	DB	010H
	DB	0ffH
	DB	0f0H
	DB	0acH
	DB	00H
	DB	0ffH
	DB	0f0H
	DB	0b0H
	DB	00H
	DB	0ffH
	DB	018H
	DB	018H
	DB	018H
	DB	0ffH
	DB	018H
	DB	01cH
	DB	018H
	DB	0ffH
	DB	018H
	DB	018H
	DB	020H
	DB	0ffH
	DB	018H
	DB	018H
	DB	018H
	DB	0ffH
	DB	018H
	DB	01cH
	DB	018H
	DB	0ffH
	DB	018H
	DB	018H
	DB	018H
	DB	0ffH
	DB	018H
	DB	018H
	DB	018H
	DB	0ffH
	DB	018H
	DB	01cH
	DB	018H
	DB	0ffH
	DB	020H
	DB	018H
	DB	018H
	DB	0ffH
	DB	018H
	DB	018H
	DB	020H
	DB	0ffH
	DB	018H
	DB	01cH
	DB	018H
	DB	0ffH
	DB	020H
	DB	01cH
	DB	018H
	DB	0ffH
	DB	018H
	DB	018H
	DB	020H
	DB	0ffH
	DB	018H
	DB	01cH
	DB	018H
	DB	0ffH
	DB	020H
	DB	018H
	DB	018H
	DB	0ffH
	DB	018H
	DB	018H
	DB	018H
	DB	0ffH
	DB	018H
	DB	01cH
	DB	018H
	DB	0ffH
	DB	018H
	DB	01cH
	DB	018H
	DB	0ffH
	DB	0f8H
	DB	0fcH
	DB	0f8H
	DB	00H
	DB	0f8H
	DB	0fcH
	DB	0f8H
	DB	00H
	DB	0f8H
	DB	0fcH
	DB	0f8H
	DB	00H
	DB	0f8H
	DB	0fcH
	DB	0f8H
	DB	00H
	DB	0f8H
	DB	0fcH
	DB	0f8H
	DB	00H
	DB	0f8H
	DB	0fcH
	DB	0f8H
	DB	00H
	DB	0f8H
	DB	0fcH
	DB	0f8H
	DB	00H
	DB	0f8H
	DB	0fcH
	DB	0f8H
	DB	00H
	DB	0f8H
	DB	0fcH
	DB	0f8H
	DB	00H
	DB	0f8H
	DB	0fcH
	DB	0f8H
	DB	00H
	DB	0f8H
	DB	0fcH
	DB	0f8H
	DB	00H
	DB	0f8H
	DB	0fcH
	DB	0f8H
	DB	00H
	DB	0f8H
	DB	0fcH
	DB	0f8H
	DB	00H
	DB	0f8H
	DB	0fcH
	DB	0f8H
	DB	00H
	DB	0f8H
	DB	0fcH
	DB	0f8H
	DB	00H
	DB	0f8H
	DB	0fcH
	DB	0f8H
	DB	00H
	DB	0f8H
	DB	0fcH
	DB	0f8H
	DB	00H
	DB	0f8H
	DB	0fcH
	DB	0f8H
	DB	00H
	DB	0f8H
	DB	0fcH
	DB	0f8H
	DB	00H
	DB	0f8H
	DB	0fcH
	DB	0f8H
	DB	00H
	DB	0f8H
	DB	0fcH
	DB	0f8H
	DB	00H
	DB	0f8H
	DB	0fcH
	DB	0f8H
	DB	00H
	DB	0f8H
	DB	0fcH
	DB	0f8H
	DB	00H
	DB	0f8H
	DB	0fcH
	DB	0f8H
	DB	00H
	DB	0f8H
	DB	0fcH
	DB	0f8H
	DB	00H
	DB	0f8H
	DB	0fcH
	DB	0f8H
	DB	00H
	DB	0f8H
	DB	0fcH
	DB	0f8H
	DB	00H
	DB	0f8H
	DB	0fcH
	DB	0f8H
	DB	00H
	DB	0f8H
	DB	0fcH
	DB	0f8H
	DB	00H
	DB	0f8H
	DB	0fcH
	DB	0f8H
	DB	00H
	DB	0f8H
	DB	0fcH
	DB	0f8H
	DB	00H
	DB	0f8H
	DB	0fcH
	DB	0f8H
	DB	00H
	DB	0f8H
	DB	0fcH
	DB	0f8H
	DB	00H
	DB	0f8H
	DB	0fcH
	DB	0f8H
	DB	00H
	DB	0f8H
	DB	0fcH
	DB	0f8H
	DB	00H
	DB	0f8H
	DB	0fcH
	DB	0f8H
	DB	00H
	DB	0f8H
	DB	0fcH
	DB	0f8H
	DB	00H
	DB	0f8H
	DB	0fcH
	DB	0f8H
	DB	00H
	DB	0f8H
	DB	0fcH
	DB	0f8H
	DB	00H
	DB	0f8H
	DB	0fcH
	DB	0f8H
	DB	00H
	DB	0f8H
	DB	0fcH
	DB	0f8H
	DB	00H
	DB	0f8H
	DB	0fcH
	DB	0f8H
	DB	00H
	DB	0f8H
	DB	0fcH
	DB	0f8H
	DB	00H
	DB	0f8H
	DB	0fcH
	DB	0f8H
	DB	00H
	DB	0f8H
	DB	0fcH
	DB	0f8H
	DB	00H
	DB	0f8H
	DB	0fcH
	DB	0f8H
	DB	00H
	DB	0f8H
	DB	0fcH
	DB	0f8H
	DB	00H
	DB	0f8H
	DB	0fcH
	DB	0f8H
	DB	00H
	DB	0f8H
	DB	0fcH
	DB	0f8H
	DB	00H
	DB	0f8H
	DB	0fcH
	DB	0f8H
	DB	00H
	DB	0f8H
	DB	0fcH
	DB	0f8H
	DB	00H
	DB	0f8H
	DB	0fcH
	DB	0f8H
	DB	00H
	DB	0f8H
	DB	0fcH
	DB	0f8H
	DB	00H
	DB	0f8H
	DB	0fcH
	DB	0f8H
	DB	00H
	DB	0f8H
	DB	0fcH
	DB	0f8H
	DB	00H
	DB	0f8H
	DB	0fcH
	DB	0f8H
	DB	00H
	DB	0f8H
	DB	0fcH
	DB	0f8H
	DB	00H
	DB	0f8H
	DB	0fcH
	DB	0f8H
	DB	00H
	DB	0f8H
	DB	0fcH
	DB	0f8H
	DB	00H
	DB	0f8H
	DB	0fcH
	DB	0f8H
	DB	00H
	DB	018H
	DB	018H
	DB	018H
	DB	0ffH
	DB	020H
	DB	01cH
	DB	020H
	DB	0ffH
	DB	018H
	DB	018H
	DB	018H
	DB	0ffH
	DB	018H
	DB	018H
	DB	018H
	DB	0ffH
	DB	020H
	DB	01cH
	DB	020H
	DB	0ffH
	DB	018H
	DB	018H
	DB	018H
	DB	0ffH
	DB	018H
	DB	018H
	DB	018H
	DB	0ffH
	DB	020H
	DB	01cH
	DB	020H
	DB	0ffH
	DB	018H
	DB	01cH
	DB	018H
	DB	0ffH
	DB	018H
	DB	018H
	DB	018H
	DB	0ffH
	DB	020H
	DB	01cH
	DB	020H
	DB	0ffH
	DB	018H
	DB	018H
	DB	018H
	DB	0ffH
	DB	018H
	DB	018H
	DB	018H
	DB	0ffH
	DB	020H
	DB	01cH
	DB	020H
	DB	0ffH
	DB	018H
	DB	01cH
	DB	018H
	DB	0ffH
	DB	018H
	DB	018H
	DB	018H
	DB	0ffH
	DB	018H
	DB	01cH
	DB	020H
	DB	0ffH
	DB	020H
	DB	01cH
	DB	018H
	DB	0ffH
	DB	078H
	DB	05cH
	DB	010H
	DB	0ffH
	DB	0f0H
	DB	0acH
	DB	00H
	DB	0ffH
	DB	0f0H
	DB	0b0H
	DB	00H
	DB	0ffH
	DB	080H
	DB	05cH
	DB	010H
	DB	0ffH
	DB	018H
	DB	018H
	DB	018H
	DB	0ffH
	DB	018H
	DB	01cH
	DB	018H
	DB	0ffH
	DB	018H
	DB	018H
	DB	018H
	DB	0ffH
	DB	0c0H
	DB	088H
	DB	08H
	DB	0ffH
	DB	0f0H
	DB	0b0H
	DB	00H
	DB	0ffH
	DB	0e8H
	DB	0a8H
	DB	00H
	DB	0ffH
	DB	038H
	DB	02cH
	DB	018H
	DB	0ffH
	DB	018H
	DB	01cH
	DB	018H
	DB	0ffH
	DB	018H
	DB	018H
	DB	018H
	DB	0ffH
	DB	048H
	DB	038H
	DB	018H
	DB	0ffH
	DB	0f0H
	DB	0b0H
	DB	00H
	DB	0ffH
	DB	0f0H
	DB	0acH
	DB	00H
	DB	0ffH
	DB	048H
	DB	038H
	DB	018H
	DB	0ffH
	DB	020H
	DB	01cH
	DB	018H
	DB	0ffH
	DB	018H
	DB	018H
	DB	018H
	DB	0ffH
	DB	088H
	DB	064H
	DB	010H
	DB	0ffH
	DB	0f0H
	DB	0b0H
	DB	00H
	DB	0ffH
	DB	0d0H
	DB	098H
	DB	08H
	DB	0ffH
	DB	0f0H
	DB	0acH
	DB	00H
	DB	0ffH
	DB	0f0H
	DB	0b0H
	DB	00H
	DB	0ffH
	DB	018H
	DB	01cH
	DB	018H
	DB	0ffH
	DB	018H
	DB	018H
	DB	018H
	DB	0ffH
	DB	018H
	DB	01cH
	DB	018H
	DB	0ffH
	DB	020H
	DB	01cH
	DB	018H
	DB	0ffH
	DB	018H
	DB	018H
	DB	020H
	DB	0ffH
	DB	018H
	DB	01cH
	DB	018H
	DB	0ffH
	DB	020H
	DB	01cH
	DB	020H
	DB	0ffH
	DB	018H
	DB	018H
	DB	018H
	DB	0ffH
	DB	018H
	DB	018H
	DB	018H
	DB	0ffH
	DB	018H
	DB	01cH
	DB	018H
	DB	0ffH
	DB	018H
	DB	018H
	DB	018H
	DB	0ffH
	DB	018H
	DB	018H
	DB	020H
	DB	0ffH
	DB	018H
	DB	01cH
	DB	018H
	DB	0ffH
	DB	018H
	DB	01cH
	DB	018H
	DB	0ffH
	DB	018H
	DB	018H
	DB	020H
	DB	0ffH
	DB	018H
	DB	01cH
	DB	018H
	DB	0ffH
	DB	020H
	DB	018H
	DB	020H
	DB	0ffH
	DB	018H
	DB	018H
	DB	018H
	DB	0ffH
	DB	0f8H
	DB	0fcH
	DB	0f8H
	DB	00H
	DB	0f8H
	DB	0fcH
	DB	0f8H
	DB	00H
	DB	0f8H
	DB	0fcH
	DB	0f8H
	DB	00H
	DB	0f8H
	DB	0fcH
	DB	0f8H
	DB	00H
	DB	0f8H
	DB	0fcH
	DB	0f8H
	DB	00H
	DB	0f8H
	DB	0fcH
	DB	0f8H
	DB	00H
	DB	0f8H
	DB	0fcH
	DB	0f8H
	DB	00H
	DB	0f8H
	DB	0fcH
	DB	0f8H
	DB	00H
	DB	0f8H
	DB	0fcH
	DB	0f8H
	DB	00H
	DB	0f8H
	DB	0fcH
	DB	0f8H
	DB	00H
	DB	0f8H
	DB	0fcH
	DB	0f8H
	DB	00H
	DB	0f8H
	DB	0fcH
	DB	0f8H
	DB	00H
	DB	0f8H
	DB	0fcH
	DB	0f8H
	DB	00H
	DB	0f8H
	DB	0fcH
	DB	0f8H
	DB	00H
	DB	0f8H
	DB	0fcH
	DB	0f8H
	DB	00H
	DB	0f8H
	DB	0fcH
	DB	0f8H
	DB	00H
	DB	0f8H
	DB	0fcH
	DB	0f8H
	DB	00H
	DB	0f8H
	DB	0fcH
	DB	0f8H
	DB	00H
	DB	0f8H
	DB	0fcH
	DB	0f8H
	DB	00H
	DB	0f8H
	DB	0fcH
	DB	0f8H
	DB	00H
	DB	0f8H
	DB	0fcH
	DB	0f8H
	DB	00H
	DB	0f8H
	DB	0fcH
	DB	0f8H
	DB	00H
	DB	0f8H
	DB	0fcH
	DB	0f8H
	DB	00H
	DB	0f8H
	DB	0fcH
	DB	0f8H
	DB	00H
	DB	0f8H
	DB	0fcH
	DB	0f8H
	DB	00H
	DB	0f8H
	DB	0fcH
	DB	0f8H
	DB	00H
	DB	0f8H
	DB	0fcH
	DB	0f8H
	DB	00H
	DB	0f8H
	DB	0fcH
	DB	0f8H
	DB	00H
	DB	0f8H
	DB	0fcH
	DB	0f8H
	DB	00H
	DB	0f8H
	DB	0fcH
	DB	0f8H
	DB	00H
	DB	0f8H
	DB	0fcH
	DB	0f8H
	DB	00H
	DB	0f8H
	DB	0fcH
	DB	0f8H
	DB	00H
	DB	0f8H
	DB	0fcH
	DB	0f8H
	DB	00H
	DB	0f8H
	DB	0fcH
	DB	0f8H
	DB	00H
	DB	0f8H
	DB	0fcH
	DB	0f8H
	DB	00H
	DB	0f8H
	DB	0fcH
	DB	0f8H
	DB	00H
	DB	0f8H
	DB	0fcH
	DB	0f8H
	DB	00H
	DB	0f8H
	DB	0fcH
	DB	0f8H
	DB	00H
	DB	0f8H
	DB	0fcH
	DB	0f8H
	DB	00H
	DB	0f8H
	DB	0fcH
	DB	0f8H
	DB	00H
	DB	0f8H
	DB	0fcH
	DB	0f8H
	DB	00H
	DB	0f8H
	DB	0fcH
	DB	0f8H
	DB	00H
	DB	0f8H
	DB	0fcH
	DB	0f8H
	DB	00H
	DB	0f8H
	DB	0fcH
	DB	0f8H
	DB	00H
	DB	0f8H
	DB	0fcH
	DB	0f8H
	DB	00H
	DB	0f8H
	DB	0fcH
	DB	0f8H
	DB	00H
	DB	0f8H
	DB	0fcH
	DB	0f8H
	DB	00H
	DB	0f8H
	DB	0fcH
	DB	0f8H
	DB	00H
	DB	0f8H
	DB	0fcH
	DB	0f8H
	DB	00H
	DB	0f8H
	DB	0fcH
	DB	0f8H
	DB	00H
	DB	0f8H
	DB	0fcH
	DB	0f8H
	DB	00H
	DB	0f8H
	DB	0fcH
	DB	0f8H
	DB	00H
	DB	0f8H
	DB	0fcH
	DB	0f8H
	DB	00H
	DB	0f8H
	DB	0fcH
	DB	0f8H
	DB	00H
	DB	0f8H
	DB	0fcH
	DB	0f8H
	DB	00H
	DB	0f8H
	DB	0fcH
	DB	0f8H
	DB	00H
	DB	0f8H
	DB	0fcH
	DB	0f8H
	DB	00H
	DB	0f8H
	DB	0fcH
	DB	0f8H
	DB	00H
	DB	0f8H
	DB	0fcH
	DB	0f8H
	DB	00H
	DB	0f8H
	DB	0fcH
	DB	0f8H
	DB	00H
	DB	018H
	DB	01cH
	DB	018H
	DB	0ffH
	DB	018H
	DB	018H
	DB	018H
	DB	0ffH
	DB	018H
	DB	01cH
	DB	018H
	DB	0ffH
	DB	018H
	DB	01cH
	DB	018H
	DB	0ffH
	DB	018H
	DB	018H
	DB	018H
	DB	0ffH
	DB	018H
	DB	01cH
	DB	018H
	DB	0ffH
	DB	020H
	DB	018H
	DB	020H
	DB	0ffH
	DB	018H
	DB	01cH
	DB	018H
	DB	0ffH
	DB	018H
	DB	018H
	DB	018H
	DB	0ffH
	DB	018H
	DB	01cH
	DB	018H
	DB	0ffH
	DB	018H
	DB	01cH
	DB	018H
	DB	0ffH
	DB	020H
	DB	018H
	DB	020H
	DB	0ffH
	DB	018H
	DB	01cH
	DB	018H
	DB	0ffH
	DB	018H
	DB	018H
	DB	018H
	DB	0ffH
	DB	018H
	DB	01cH
	DB	018H
	DB	0ffH
	DB	018H
	DB	018H
	DB	018H
	DB	0ffH
	DB	018H
	DB	018H
	DB	020H
	DB	0ffH
	DB	018H
	DB	01cH
	DB	018H
	DB	0ffH
	DB	018H
	DB	018H
	DB	018H
	DB	0ffH
	DB	0d0H
	DB	098H
	DB	08H
	DB	0ffH
	DB	0f0H
	DB	0b0H
	DB	00H
	DB	0ffH
	DB	0f0H
	DB	0acH
	DB	00H
	DB	0ffH
	DB	0f0H
	DB	0acH
	DB	00H
	DB	0ffH
	DB	0f0H
	DB	0b0H
	DB	00H
	DB	0ffH
	DB	0f0H
	DB	0acH
	DB	00H
	DB	0ffH
	DB	0f0H
	DB	0acH
	DB	00H
	DB	0ffH
	DB	0f0H
	DB	0b0H
	DB	00H
	DB	0ffH
	DB	098H
	DB	070H
	DB	010H
	DB	0ffH
	DB	018H
	DB	018H
	DB	018H
	DB	0ffH
	DB	018H
	DB	018H
	DB	018H
	DB	0ffH
	DB	018H
	DB	01cH
	DB	018H
	DB	0ffH
	DB	050H
	DB	038H
	DB	018H
	DB	0ffH
	DB	0f0H
	DB	0b0H
	DB	00H
	DB	0ffH
	DB	0f0H
	DB	0b0H
	DB	00H
	DB	0ffH
	DB	048H
	DB	038H
	DB	018H
	DB	0ffH
	DB	018H
	DB	018H
	DB	018H
	DB	0ffH
	DB	020H
	DB	01cH
	DB	018H
	DB	0ffH
	DB	018H
	DB	018H
	DB	018H
	DB	0ffH
	DB	0e8H
	DB	0a8H
	DB	00H
	DB	0ffH
	DB	0f0H
	DB	0acH
	DB	00H
	DB	0ffH
	DB	0f0H
	DB	0b0H
	DB	00H
	DB	0ffH
	DB	0f0H
	DB	0acH
	DB	00H
	DB	0ffH
	DB	018H
	DB	018H
	DB	018H
	DB	0ffH
	DB	018H
	DB	01cH
	DB	020H
	DB	0ffH
	DB	020H
	DB	018H
	DB	018H
	DB	0ffH
	DB	018H
	DB	018H
	DB	018H
	DB	0ffH
	DB	018H
	DB	01cH
	DB	018H
	DB	0ffH
	DB	020H
	DB	018H
	DB	020H
	DB	0ffH
	DB	018H
	DB	01cH
	DB	018H
	DB	0ffH
	DB	018H
	DB	01cH
	DB	018H
	DB	0ffH
	DB	018H
	DB	018H
	DB	020H
	DB	0ffH
	DB	020H
	DB	01cH
	DB	018H
	DB	0ffH
	DB	018H
	DB	01cH
	DB	018H
	DB	0ffH
	DB	020H
	DB	018H
	DB	018H
	DB	0ffH
	DB	018H
	DB	01cH
	DB	018H
	DB	0ffH
	DB	020H
	DB	018H
	DB	018H
	DB	0ffH
	DB	018H
	DB	01cH
	DB	018H
	DB	0ffH
	DB	018H
	DB	01cH
	DB	018H
	DB	0ffH
	DB	020H
	DB	018H
	DB	018H
	DB	0ffH
	DB	018H
	DB	01cH
	DB	020H
	DB	0ffH
	DB	0f8H
	DB	0fcH
	DB	0f8H
	DB	00H
	DB	0f8H
	DB	0fcH
	DB	0f8H
	DB	00H
	DB	0f8H
	DB	0fcH
	DB	0f8H
	DB	00H
	DB	0f8H
	DB	0fcH
	DB	0f8H
	DB	00H
	DB	0f8H
	DB	0fcH
	DB	0f8H
	DB	00H
	DB	0f8H
	DB	0fcH
	DB	0f8H
	DB	00H
	DB	0f8H
	DB	0fcH
	DB	0f8H
	DB	00H
	DB	0f8H
	DB	0fcH
	DB	0f8H
	DB	00H
	DB	0f8H
	DB	0fcH
	DB	0f8H
	DB	00H
	DB	0f8H
	DB	0fcH
	DB	0f8H
	DB	00H
	DB	0f8H
	DB	0fcH
	DB	0f8H
	DB	00H
	DB	0f8H
	DB	0fcH
	DB	0f8H
	DB	00H
	DB	0f8H
	DB	0fcH
	DB	0f8H
	DB	00H
	DB	0f8H
	DB	0fcH
	DB	0f8H
	DB	00H
	DB	0f8H
	DB	0fcH
	DB	0f8H
	DB	00H
	DB	0f8H
	DB	0fcH
	DB	0f8H
	DB	00H
	DB	0f8H
	DB	0fcH
	DB	0f8H
	DB	00H
	DB	0f8H
	DB	0fcH
	DB	0f8H
	DB	00H
	DB	0f8H
	DB	0fcH
	DB	0f8H
	DB	00H
	DB	0f8H
	DB	0fcH
	DB	0f8H
	DB	00H
	DB	0f8H
	DB	0fcH
	DB	0f8H
	DB	00H
	DB	0f8H
	DB	0fcH
	DB	0f8H
	DB	00H
	DB	0f8H
	DB	0fcH
	DB	0f8H
	DB	00H
	DB	0f8H
	DB	0fcH
	DB	0f8H
	DB	00H
	DB	0f8H
	DB	0fcH
	DB	0f8H
	DB	00H
	DB	0f8H
	DB	0fcH
	DB	0f8H
	DB	00H
	DB	0f8H
	DB	0fcH
	DB	0f8H
	DB	00H
	DB	0f8H
	DB	0fcH
	DB	0f8H
	DB	00H
	DB	0f8H
	DB	0fcH
	DB	0f8H
	DB	00H
	DB	0f8H
	DB	0fcH
	DB	0f8H
	DB	00H
	DB	0f8H
	DB	0fcH
	DB	0f8H
	DB	00H
	DB	0f8H
	DB	0fcH
	DB	0f8H
	DB	00H
	DB	0f8H
	DB	0fcH
	DB	0f8H
	DB	00H
	DB	0f8H
	DB	0fcH
	DB	0f8H
	DB	00H
	DB	0f8H
	DB	0fcH
	DB	0f8H
	DB	00H
	DB	0f8H
	DB	0fcH
	DB	0f8H
	DB	00H
	DB	0f8H
	DB	0fcH
	DB	0f8H
	DB	00H
	DB	0f8H
	DB	0fcH
	DB	0f8H
	DB	00H
	DB	0f8H
	DB	0fcH
	DB	0f8H
	DB	00H
	DB	0f8H
	DB	0fcH
	DB	0f8H
	DB	00H
	DB	0f8H
	DB	0fcH
	DB	0f8H
	DB	00H
	DB	0f8H
	DB	0fcH
	DB	0f8H
	DB	00H
	DB	0f8H
	DB	0fcH
	DB	0f8H
	DB	00H
	DB	0f8H
	DB	0fcH
	DB	0f8H
	DB	00H
	DB	0f8H
	DB	0fcH
	DB	0f8H
	DB	00H
	DB	0f8H
	DB	0fcH
	DB	0f8H
	DB	00H
	DB	0f8H
	DB	0fcH
	DB	0f8H
	DB	00H
	DB	0f8H
	DB	0fcH
	DB	0f8H
	DB	00H
	DB	0f8H
	DB	0fcH
	DB	0f8H
	DB	00H
	DB	0f8H
	DB	0fcH
	DB	0f8H
	DB	00H
	DB	0f8H
	DB	0fcH
	DB	0f8H
	DB	00H
	DB	0f8H
	DB	0fcH
	DB	0f8H
	DB	00H
	DB	0f8H
	DB	0fcH
	DB	0f8H
	DB	00H
	DB	0f8H
	DB	0fcH
	DB	0f8H
	DB	00H
	DB	0f8H
	DB	0fcH
	DB	0f8H
	DB	00H
	DB	0f8H
	DB	0fcH
	DB	0f8H
	DB	00H
	DB	0f8H
	DB	0fcH
	DB	0f8H
	DB	00H
	DB	0f8H
	DB	0fcH
	DB	0f8H
	DB	00H
	DB	0f8H
	DB	0fcH
	DB	0f8H
	DB	00H
	DB	0f8H
	DB	0fcH
	DB	0f8H
	DB	00H
	DB	018H
	DB	018H
	DB	018H
	DB	0ffH
	DB	018H
	DB	01cH
	DB	018H
	DB	0ffH
	DB	020H
	DB	018H
	DB	020H
	DB	0ffH
	DB	018H
	DB	01cH
	DB	018H
	DB	0ffH
	DB	018H
	DB	018H
	DB	018H
	DB	0ffH
	DB	020H
	DB	01cH
	DB	020H
	DB	0ffH
	DB	018H
	DB	01cH
	DB	018H
	DB	0ffH
	DB	018H
	DB	018H
	DB	018H
	DB	0ffH
	DB	020H
	DB	018H
	DB	020H
	DB	0ffH
	DB	018H
	DB	01cH
	DB	018H
	DB	0ffH
	DB	018H
	DB	018H
	DB	018H
	DB	0ffH
	DB	018H
	DB	01cH
	DB	018H
	DB	0ffH
	DB	020H
	DB	018H
	DB	020H
	DB	0ffH
	DB	018H
	DB	01cH
	DB	018H
	DB	0ffH
	DB	020H
	DB	018H
	DB	018H
	DB	0ffH
	DB	020H
	DB	01cH
	DB	020H
	DB	0ffH
	DB	018H
	DB	018H
	DB	018H
	DB	0ffH
	DB	018H
	DB	01cH
	DB	018H
	DB	0ffH
	DB	020H
	DB	018H
	DB	018H
	DB	0ffH
	DB	018H
	DB	018H
	DB	018H
	DB	0ffH
	DB	098H
	DB	070H
	DB	010H
	DB	0ffH
	DB	0e8H
	DB	0a8H
	DB	00H
	DB	0ffH
	DB	0f0H
	DB	0b0H
	DB	00H
	DB	0ffH
	DB	0f0H
	DB	0b0H
	DB	00H
	DB	0ffH
	DB	0f0H
	DB	0acH
	DB	00H
	DB	0ffH
	DB	0c8H
	DB	090H
	DB	08H
	DB	0ffH
	DB	088H
	DB	064H
	DB	010H
	DB	0ffH
	DB	018H
	DB	018H
	DB	018H
	DB	0ffH
	DB	018H
	DB	01cH
	DB	018H
	DB	0ffH
	DB	018H
	DB	018H
	DB	020H
	DB	0ffH
	DB	018H
	DB	01cH
	DB	018H
	DB	0ffH
	DB	048H
	DB	038H
	DB	018H
	DB	0ffH
	DB	0f0H
	DB	0acH
	DB	00H
	DB	0ffH
	DB	0f0H
	DB	0b0H
	DB	00H
	DB	0ffH
	DB	048H
	DB	038H
	DB	018H
	DB	0ffH
	DB	018H
	DB	01cH
	DB	018H
	DB	0ffH
	DB	018H
	DB	01cH
	DB	018H
	DB	0ffH
	DB	018H
	DB	018H
	DB	020H
	DB	0ffH
	DB	098H
	DB	070H
	DB	010H
	DB	0ffH
	DB	0f0H
	DB	0b0H
	DB	00H
	DB	0ffH
	DB	0f0H
	DB	0acH
	DB	00H
	DB	0ffH
	DB	0e8H
	DB	0a8H
	DB	00H
	DB	0ffH
	DB	018H
	DB	01cH
	DB	018H
	DB	0ffH
	DB	018H
	DB	018H
	DB	020H
	DB	0ffH
	DB	018H
	DB	01cH
	DB	018H
	DB	0ffH
	DB	018H
	DB	01cH
	DB	018H
	DB	0ffH
	DB	018H
	DB	018H
	DB	018H
	DB	0ffH
	DB	018H
	DB	018H
	DB	018H
	DB	0ffH
	DB	018H
	DB	018H
	DB	018H
	DB	0ffH
	DB	018H
	DB	01cH
	DB	018H
	DB	0ffH
	DB	020H
	DB	018H
	DB	020H
	DB	0ffH
	DB	018H
	DB	018H
	DB	018H
	DB	0ffH
	DB	018H
	DB	01cH
	DB	018H
	DB	0ffH
	DB	018H
	DB	018H
	DB	020H
	DB	0ffH
	DB	020H
	DB	018H
	DB	018H
	DB	0ffH
	DB	018H
	DB	01cH
	DB	020H
	DB	0ffH
	DB	018H
	DB	018H
	DB	018H
	DB	0ffH
	DB	018H
	DB	018H
	DB	018H
	DB	0ffH
	DB	018H
	DB	01cH
	DB	018H
	DB	0ffH
	DB	018H
	DB	01cH
	DB	018H
	DB	0ffH
	DB	0f8H
	DB	0fcH
	DB	0f8H
	DB	00H
	DB	0f8H
	DB	0fcH
	DB	0f8H
	DB	00H
	DB	0f8H
	DB	0fcH
	DB	0f8H
	DB	00H
	DB	0f8H
	DB	0fcH
	DB	0f8H
	DB	00H
	DB	0f8H
	DB	0fcH
	DB	0f8H
	DB	00H
	DB	0f8H
	DB	0fcH
	DB	0f8H
	DB	00H
	DB	0f8H
	DB	0fcH
	DB	0f8H
	DB	00H
	DB	0f8H
	DB	0fcH
	DB	0f8H
	DB	00H
	DB	0f8H
	DB	0fcH
	DB	0f8H
	DB	00H
	DB	0f8H
	DB	0fcH
	DB	0f8H
	DB	00H
	DB	0f8H
	DB	0fcH
	DB	0f8H
	DB	00H
	DB	0f8H
	DB	0fcH
	DB	0f8H
	DB	00H
	DB	0f8H
	DB	0fcH
	DB	0f8H
	DB	00H
	DB	0f8H
	DB	0fcH
	DB	0f8H
	DB	00H
	DB	0f8H
	DB	0fcH
	DB	0f8H
	DB	00H
	DB	0f8H
	DB	0fcH
	DB	0f8H
	DB	00H
	DB	0f8H
	DB	0fcH
	DB	0f8H
	DB	00H
	DB	0f8H
	DB	0fcH
	DB	0f8H
	DB	00H
	DB	0f8H
	DB	0fcH
	DB	0f8H
	DB	00H
	DB	0f8H
	DB	0fcH
	DB	0f8H
	DB	00H
	DB	0f8H
	DB	0fcH
	DB	0f8H
	DB	00H
	DB	0f8H
	DB	0fcH
	DB	0f8H
	DB	00H
	DB	0f8H
	DB	0fcH
	DB	0f8H
	DB	00H
	DB	0f8H
	DB	0fcH
	DB	0f8H
	DB	00H
	DB	0f8H
	DB	0fcH
	DB	0f8H
	DB	00H
	DB	0f8H
	DB	0fcH
	DB	0f8H
	DB	00H
	DB	0f8H
	DB	0fcH
	DB	0f8H
	DB	00H
	DB	0f8H
	DB	0fcH
	DB	0f8H
	DB	00H
	DB	0f8H
	DB	0fcH
	DB	0f8H
	DB	00H
	DB	0f8H
	DB	0fcH
	DB	0f8H
	DB	00H
	DB	0f8H
	DB	0fcH
	DB	0f8H
	DB	00H
	DB	0f8H
	DB	0fcH
	DB	0f8H
	DB	00H
	DB	0f8H
	DB	0fcH
	DB	0f8H
	DB	00H
	DB	0f8H
	DB	0fcH
	DB	0f8H
	DB	00H
	DB	0f8H
	DB	0fcH
	DB	0f8H
	DB	00H
	DB	0f8H
	DB	0fcH
	DB	0f8H
	DB	00H
	DB	0f8H
	DB	0fcH
	DB	0f8H
	DB	00H
	DB	0f8H
	DB	0fcH
	DB	0f8H
	DB	00H
	DB	0f8H
	DB	0fcH
	DB	0f8H
	DB	00H
	DB	0f8H
	DB	0fcH
	DB	0f8H
	DB	00H
	DB	0f8H
	DB	0fcH
	DB	0f8H
	DB	00H
	DB	0f8H
	DB	0fcH
	DB	0f8H
	DB	00H
	DB	0f8H
	DB	0fcH
	DB	0f8H
	DB	00H
	DB	0f8H
	DB	0fcH
	DB	0f8H
	DB	00H
	DB	0f8H
	DB	0fcH
	DB	0f8H
	DB	00H
	DB	0f8H
	DB	0fcH
	DB	0f8H
	DB	00H
	DB	0f8H
	DB	0fcH
	DB	0f8H
	DB	00H
	DB	0f8H
	DB	0fcH
	DB	0f8H
	DB	00H
	DB	0f8H
	DB	0fcH
	DB	0f8H
	DB	00H
	DB	0f8H
	DB	0fcH
	DB	0f8H
	DB	00H
	DB	0f8H
	DB	0fcH
	DB	0f8H
	DB	00H
	DB	0f8H
	DB	0fcH
	DB	0f8H
	DB	00H
	DB	0f8H
	DB	0fcH
	DB	0f8H
	DB	00H
	DB	0f8H
	DB	0fcH
	DB	0f8H
	DB	00H
	DB	0f8H
	DB	0fcH
	DB	0f8H
	DB	00H
	DB	0f8H
	DB	0fcH
	DB	0f8H
	DB	00H
	DB	0f8H
	DB	0fcH
	DB	0f8H
	DB	00H
	DB	0f8H
	DB	0fcH
	DB	0f8H
	DB	00H
	DB	0f8H
	DB	0fcH
	DB	0f8H
	DB	00H
	DB	0f8H
	DB	0fcH
	DB	0f8H
	DB	00H
	DB	018H
	DB	018H
	DB	018H
	DB	0ffH
	DB	018H
	DB	01cH
	DB	018H
	DB	0ffH
	DB	020H
	DB	018H
	DB	020H
	DB	0ffH
	DB	018H
	DB	018H
	DB	018H
	DB	0ffH
	DB	018H
	DB	01cH
	DB	018H
	DB	0ffH
	DB	020H
	DB	018H
	DB	020H
	DB	0ffH
	DB	018H
	DB	018H
	DB	018H
	DB	0ffH
	DB	018H
	DB	01cH
	DB	018H
	DB	0ffH
	DB	018H
	DB	01cH
	DB	018H
	DB	0ffH
	DB	020H
	DB	018H
	DB	020H
	DB	0ffH
	DB	018H
	DB	018H
	DB	018H
	DB	0ffH
	DB	018H
	DB	01cH
	DB	018H
	DB	0ffH
	DB	018H
	DB	01cH
	DB	018H
	DB	0ffH
	DB	018H
	DB	018H
	DB	020H
	DB	0ffH
	DB	018H
	DB	01cH
	DB	018H
	DB	0ffH
	DB	018H
	DB	018H
	DB	018H
	DB	0ffH
	DB	018H
	DB	01cH
	DB	018H
	DB	0ffH
	DB	020H
	DB	01cH
	DB	020H
	DB	0ffH
	DB	018H
	DB	018H
	DB	018H
	DB	0ffH
	DB	018H
	DB	01cH
	DB	018H
	DB	0ffH
	DB	018H
	DB	018H
	DB	018H
	DB	0ffH
	DB	018H
	DB	018H
	DB	020H
	DB	0ffH
	DB	018H
	DB	01cH
	DB	018H
	DB	0ffH
	DB	018H
	DB	018H
	DB	018H
	DB	0ffH
	DB	018H
	DB	01cH
	DB	018H
	DB	0ffH
	DB	018H
	DB	01cH
	DB	018H
	DB	0ffH
	DB	018H
	DB	018H
	DB	018H
	DB	0ffH
	DB	018H
	DB	01cH
	DB	018H
	DB	0ffH
	DB	018H
	DB	01cH
	DB	018H
	DB	0ffH
	DB	020H
	DB	018H
	DB	018H
	DB	0ffH
	DB	018H
	DB	01cH
	DB	018H
	DB	0ffH
	DB	018H
	DB	018H
	DB	018H
	DB	0ffH
	DB	018H
	DB	018H
	DB	018H
	DB	0ffH
	DB	018H
	DB	01cH
	DB	018H
	DB	0ffH
	DB	020H
	DB	018H
	DB	018H
	DB	0ffH
	DB	018H
	DB	018H
	DB	018H
	DB	0ffH
	DB	018H
	DB	01cH
	DB	018H
	DB	0ffH
	DB	018H
	DB	018H
	DB	018H
	DB	0ffH
	DB	018H
	DB	018H
	DB	018H
	DB	0ffH
	DB	018H
	DB	01cH
	DB	018H
	DB	0ffH
	DB	018H
	DB	018H
	DB	018H
	DB	0ffH
	DB	018H
	DB	01cH
	DB	018H
	DB	0ffH
	DB	018H
	DB	018H
	DB	018H
	DB	0ffH
	DB	020H
	DB	018H
	DB	018H
	DB	0ffH
	DB	018H
	DB	01cH
	DB	020H
	DB	0ffH
	DB	020H
	DB	01cH
	DB	018H
	DB	0ffH
	DB	018H
	DB	018H
	DB	020H
	DB	0ffH
	DB	018H
	DB	01cH
	DB	018H
	DB	0ffH
	DB	020H
	DB	01cH
	DB	018H
	DB	0ffH
	DB	018H
	DB	018H
	DB	020H
	DB	0ffH
	DB	018H
	DB	01cH
	DB	018H
	DB	0ffH
	DB	018H
	DB	01cH
	DB	018H
	DB	0ffH
	DB	018H
	DB	018H
	DB	020H
	DB	0ffH
	DB	018H
	DB	01cH
	DB	018H
	DB	0ffH
	DB	018H
	DB	01cH
	DB	018H
	DB	0ffH
	DB	018H
	DB	018H
	DB	020H
	DB	0ffH
	DB	020H
	DB	01cH
	DB	018H
	DB	0ffH
	DB	018H
	DB	018H
	DB	020H
	DB	0ffH
	DB	018H
	DB	018H
	DB	018H
	DB	0ffH
	DB	020H
	DB	018H
	DB	018H
	DB	0ffH
	DB	0f8H
	DB	0fcH
	DB	0f8H
	DB	00H
	DB	0f8H
	DB	0fcH
	DB	0f8H
	DB	00H
	DB	0f8H
	DB	0fcH
	DB	0f8H
	DB	00H
	DB	0f8H
	DB	0fcH
	DB	0f8H
	DB	00H
	DB	0f8H
	DB	0fcH
	DB	0f8H
	DB	00H
	DB	0f8H
	DB	0fcH
	DB	0f8H
	DB	00H
	DB	0f8H
	DB	0fcH
	DB	0f8H
	DB	00H
	DB	0f8H
	DB	0fcH
	DB	0f8H
	DB	00H
	DB	0f8H
	DB	0fcH
	DB	0f8H
	DB	00H
	DB	0f8H
	DB	0fcH
	DB	0f8H
	DB	00H
	DB	0f8H
	DB	0fcH
	DB	0f8H
	DB	00H
	DB	0f8H
	DB	0fcH
	DB	0f8H
	DB	00H
	DB	0f8H
	DB	0fcH
	DB	0f8H
	DB	00H
	DB	0f8H
	DB	0fcH
	DB	0f8H
	DB	00H
	DB	0f8H
	DB	0fcH
	DB	0f8H
	DB	00H
	DB	0f8H
	DB	0fcH
	DB	0f8H
	DB	00H
	DB	0f8H
	DB	0fcH
	DB	0f8H
	DB	00H
	DB	0f8H
	DB	0fcH
	DB	0f8H
	DB	00H
	DB	0f8H
	DB	0fcH
	DB	0f8H
	DB	00H
	DB	0f8H
	DB	0fcH
	DB	0f8H
	DB	00H
	DB	0f8H
	DB	0fcH
	DB	0f8H
	DB	00H
	DB	0f8H
	DB	0fcH
	DB	0f8H
	DB	00H
	DB	0f8H
	DB	0fcH
	DB	0f8H
	DB	00H
	DB	0f8H
	DB	0fcH
	DB	0f8H
	DB	00H
	DB	0f8H
	DB	0fcH
	DB	0f8H
	DB	00H
	DB	0f8H
	DB	0fcH
	DB	0f8H
	DB	00H
	DB	0f8H
	DB	0fcH
	DB	0f8H
	DB	00H
	DB	0f8H
	DB	0fcH
	DB	0f8H
	DB	00H
	DB	0f8H
	DB	0fcH
	DB	0f8H
	DB	00H
	DB	0f8H
	DB	0fcH
	DB	0f8H
	DB	00H
	DB	0f8H
	DB	0fcH
	DB	0f8H
	DB	00H
	DB	0f8H
	DB	0fcH
	DB	0f8H
	DB	00H
	DB	0f8H
	DB	0fcH
	DB	0f8H
	DB	00H
	DB	0f8H
	DB	0fcH
	DB	0f8H
	DB	00H
	DB	0f8H
	DB	0fcH
	DB	0f8H
	DB	00H
	DB	0f8H
	DB	0fcH
	DB	0f8H
	DB	00H
	DB	0f8H
	DB	0fcH
	DB	0f8H
	DB	00H
	DB	0f8H
	DB	0fcH
	DB	0f8H
	DB	00H
	DB	0f8H
	DB	0fcH
	DB	0f8H
	DB	00H
	DB	0f8H
	DB	0fcH
	DB	0f8H
	DB	00H
	DB	0f8H
	DB	0fcH
	DB	0f8H
	DB	00H
	DB	0f8H
	DB	0fcH
	DB	0f8H
	DB	00H
	DB	0f8H
	DB	0fcH
	DB	0f8H
	DB	00H
	DB	0f8H
	DB	0fcH
	DB	0f8H
	DB	00H
	DB	0f8H
	DB	0fcH
	DB	0f8H
	DB	00H
	DB	0f8H
	DB	0fcH
	DB	0f8H
	DB	00H
	DB	0f8H
	DB	0fcH
	DB	0f8H
	DB	00H
	DB	0f8H
	DB	0fcH
	DB	0f8H
	DB	00H
	DB	0f8H
	DB	0fcH
	DB	0f8H
	DB	00H
	DB	0f8H
	DB	0fcH
	DB	0f8H
	DB	00H
	DB	0f8H
	DB	0fcH
	DB	0f8H
	DB	00H
	DB	0f8H
	DB	0fcH
	DB	0f8H
	DB	00H
	DB	0f8H
	DB	0fcH
	DB	0f8H
	DB	00H
	DB	0f8H
	DB	0fcH
	DB	0f8H
	DB	00H
	DB	0f8H
	DB	0fcH
	DB	0f8H
	DB	00H
	DB	0f8H
	DB	0fcH
	DB	0f8H
	DB	00H
	DB	0f8H
	DB	0fcH
	DB	0f8H
	DB	00H
	DB	0f8H
	DB	0fcH
	DB	0f8H
	DB	00H
	DB	0f8H
	DB	0fcH
	DB	0f8H
	DB	00H
	DB	0f8H
	DB	0fcH
	DB	0f8H
	DB	00H
	DB	018H
	DB	01cH
	DB	018H
	DB	0ffH
	DB	018H
	DB	018H
	DB	018H
	DB	0ffH
	DB	018H
	DB	01cH
	DB	018H
	DB	0ffH
	DB	018H
	DB	01cH
	DB	018H
	DB	0ffH
	DB	018H
	DB	018H
	DB	018H
	DB	0ffH
	DB	018H
	DB	01cH
	DB	018H
	DB	0ffH
	DB	018H
	DB	018H
	DB	018H
	DB	0ffH
	DB	018H
	DB	01cH
	DB	018H
	DB	0ffH
	DB	018H
	DB	018H
	DB	018H
	DB	0ffH
	DB	020H
	DB	01cH
	DB	020H
	DB	0ffH
	DB	018H
	DB	018H
	DB	018H
	DB	0ffH
	DB	018H
	DB	018H
	DB	018H
	DB	0ffH
	DB	020H
	DB	01cH
	DB	018H
	DB	0ffH
	DB	018H
	DB	018H
	DB	018H
	DB	0ffH
	DB	018H
	DB	01cH
	DB	020H
	DB	0ffH
	DB	018H
	DB	018H
	DB	018H
	DB	0ffH
	DB	020H
	DB	018H
	DB	018H
	DB	0ffH
	DB	018H
	DB	01cH
	DB	018H
	DB	0ffH
	DB	018H
	DB	01cH
	DB	020H
	DB	0ffH
	DB	018H
	DB	018H
	DB	018H
	DB	0ffH
	DB	018H
	DB	01cH
	DB	018H
	DB	0ffH
	DB	018H
	DB	01cH
	DB	018H
	DB	0ffH
	DB	018H
	DB	018H
	DB	020H
	DB	0ffH
	DB	018H
	DB	018H
	DB	018H
	DB	0ffH
	DB	018H
	DB	01cH
	DB	018H
	DB	0ffH
	DB	018H
	DB	018H
	DB	020H
	DB	0ffH
	DB	018H
	DB	018H
	DB	018H
	DB	0ffH
	DB	018H
	DB	01cH
	DB	020H
	DB	0ffH
	DB	018H
	DB	018H
	DB	018H
	DB	0ffH
	DB	020H
	DB	018H
	DB	020H
	DB	0ffH
	DB	018H
	DB	01cH
	DB	018H
	DB	0ffH
	DB	020H
	DB	01cH
	DB	018H
	DB	0ffH
	DB	018H
	DB	01cH
	DB	018H
	DB	0ffH
	DB	018H
	DB	018H
	DB	018H
	DB	0ffH
	DB	020H
	DB	01cH
	DB	020H
	DB	0ffH
	DB	018H
	DB	018H
	DB	018H
	DB	0ffH
	DB	020H
	DB	01cH
	DB	018H
	DB	0ffH
	DB	020H
	DB	01cH
	DB	020H
	DB	0ffH
	DB	018H
	DB	018H
	DB	018H
	DB	0ffH
	DB	018H
	DB	01cH
	DB	018H
	DB	0ffH
	DB	018H
	DB	01cH
	DB	020H
	DB	0ffH
	DB	018H
	DB	018H
	DB	018H
	DB	0ffH
	DB	018H
	DB	01cH
	DB	018H
	DB	0ffH
	DB	018H
	DB	018H
	DB	018H
	DB	0ffH
	DB	018H
	DB	018H
	DB	018H
	DB	0ffH
	DB	020H
	DB	01cH
	DB	020H
	DB	0ffH
	DB	018H
	DB	018H
	DB	018H
	DB	0ffH
	DB	018H
	DB	01cH
	DB	018H
	DB	0ffH
	DB	020H
	DB	018H
	DB	020H
	DB	0ffH
	DB	018H
	DB	018H
	DB	018H
	DB	0ffH
	DB	018H
	DB	01cH
	DB	018H
	DB	0ffH
	DB	020H
	DB	018H
	DB	018H
	DB	0ffH
	DB	020H
	DB	018H
	DB	018H
	DB	0ffH
	DB	018H
	DB	01cH
	DB	018H
	DB	0ffH
	DB	018H
	DB	018H
	DB	018H
	DB	0ffH
	DB	020H
	DB	01cH
	DB	018H
	DB	0ffH
	DB	018H
	DB	01cH
	DB	018H
	DB	0ffH
	DB	018H
	DB	01cH
	DB	018H
	DB	0ffH
	DB	020H
	DB	018H
	DB	020H
	DB	0ffH
	DB	018H
	DB	01cH
	DB	018H
	DB	0ffH
	DB	0f8H
	DB	0fcH
	DB	0f8H
	DB	00H
	DB	0f8H
	DB	0fcH
	DB	0f8H
	DB	00H
	DB	0f8H
	DB	0fcH
	DB	0f8H
	DB	00H
	DB	0f8H
	DB	0fcH
	DB	0f8H
	DB	00H
	DB	0f8H
	DB	0fcH
	DB	0f8H
	DB	00H
	DB	0f8H
	DB	0fcH
	DB	0f8H
	DB	00H
	DB	0f8H
	DB	0fcH
	DB	0f8H
	DB	00H
	DB	0f8H
	DB	0fcH
	DB	0f8H
	DB	00H
	DB	0f8H
	DB	0fcH
	DB	0f8H
	DB	00H
	DB	0f8H
	DB	0fcH
	DB	0f8H
	DB	00H
	DB	0f8H
	DB	0fcH
	DB	0f8H
	DB	00H
	DB	0f8H
	DB	0fcH
	DB	0f8H
	DB	00H
	DB	0f8H
	DB	0fcH
	DB	0f8H
	DB	00H
	DB	0f8H
	DB	0fcH
	DB	0f8H
	DB	00H
	DB	0f8H
	DB	0fcH
	DB	0f8H
	DB	00H
	DB	0f8H
	DB	0fcH
	DB	0f8H
	DB	00H
	DB	0f8H
	DB	0fcH
	DB	0f8H
	DB	00H
	DB	0f8H
	DB	0fcH
	DB	0f8H
	DB	00H
	DB	0f8H
	DB	0fcH
	DB	0f8H
	DB	00H
	DB	0f8H
	DB	0fcH
	DB	0f8H
	DB	00H
	DB	0f8H
	DB	0fcH
	DB	0f8H
	DB	00H
	DB	0f8H
	DB	0fcH
	DB	0f8H
	DB	00H
	DB	0f8H
	DB	0fcH
	DB	0f8H
	DB	00H
	DB	0f8H
	DB	0fcH
	DB	0f8H
	DB	00H
	DB	0f8H
	DB	0fcH
	DB	0f8H
	DB	00H
	DB	0f8H
	DB	0fcH
	DB	0f8H
	DB	00H
	DB	0f8H
	DB	0fcH
	DB	0f8H
	DB	00H
	DB	0f8H
	DB	0fcH
	DB	0f8H
	DB	00H
	DB	0f8H
	DB	0fcH
	DB	0f8H
	DB	00H
	DB	0f8H
	DB	0fcH
	DB	0f8H
	DB	00H
	DB	0f8H
	DB	0fcH
	DB	0f8H
	DB	00H
	DB	0f8H
	DB	0fcH
	DB	0f8H
	DB	00H
	DB	0f8H
	DB	0fcH
	DB	0f8H
	DB	00H
	DB	0f8H
	DB	0fcH
	DB	0f8H
	DB	00H
	DB	0f8H
	DB	0fcH
	DB	0f8H
	DB	00H
	DB	0f8H
	DB	0fcH
	DB	0f8H
	DB	00H
	DB	0f8H
	DB	0fcH
	DB	0f8H
	DB	00H
	DB	0f8H
	DB	0fcH
	DB	0f8H
	DB	00H
	DB	0f8H
	DB	0fcH
	DB	0f8H
	DB	00H
	DB	0f8H
	DB	0fcH
	DB	0f8H
	DB	00H
	DB	0f8H
	DB	0fcH
	DB	0f8H
	DB	00H
	DB	0f8H
	DB	0fcH
	DB	0f8H
	DB	00H
	DB	0f8H
	DB	0fcH
	DB	0f8H
	DB	00H
	DB	0f8H
	DB	0fcH
	DB	0f8H
	DB	00H
	DB	0f8H
	DB	0fcH
	DB	0f8H
	DB	00H
	DB	0f8H
	DB	0fcH
	DB	0f8H
	DB	00H
	DB	0f8H
	DB	0fcH
	DB	0f8H
	DB	00H
	DB	0f8H
	DB	0fcH
	DB	0f8H
	DB	00H
	DB	0f8H
	DB	0fcH
	DB	0f8H
	DB	00H
	DB	0f8H
	DB	0fcH
	DB	0f8H
	DB	00H
	DB	0f8H
	DB	0fcH
	DB	0f8H
	DB	00H
	DB	0f8H
	DB	0fcH
	DB	0f8H
	DB	00H
	DB	0f8H
	DB	0fcH
	DB	0f8H
	DB	00H
	DB	0f8H
	DB	0fcH
	DB	0f8H
	DB	00H
	DB	0f8H
	DB	0fcH
	DB	0f8H
	DB	00H
	DB	0f8H
	DB	0fcH
	DB	0f8H
	DB	00H
	DB	0f8H
	DB	0fcH
	DB	0f8H
	DB	00H
	DB	0f8H
	DB	0fcH
	DB	0f8H
	DB	00H
	DB	0f8H
	DB	0fcH
	DB	0f8H
	DB	00H
	DB	0f8H
	DB	0fcH
	DB	0f8H
	DB	00H
	DB	018H
	DB	018H
	DB	018H
	DB	0ffH
	DB	018H
	DB	018H
	DB	018H
	DB	0ffH
	DB	020H
	DB	01cH
	DB	020H
	DB	0ffH
	DB	020H
	DB	018H
	DB	020H
	DB	0ffH
	DB	018H
	DB	01cH
	DB	018H
	DB	0ffH
	DB	018H
	DB	018H
	DB	018H
	DB	0ffH
	DB	020H
	DB	01cH
	DB	020H
	DB	0ffH
	DB	018H
	DB	018H
	DB	018H
	DB	0ffH
	DB	018H
	DB	01cH
	DB	018H
	DB	0ffH
	DB	018H
	DB	01cH
	DB	018H
	DB	0ffH
	DB	018H
	DB	018H
	DB	020H
	DB	0ffH
	DB	020H
	DB	01cH
	DB	018H
	DB	0ffH
	DB	018H
	DB	018H
	DB	018H
	DB	0ffH
	DB	018H
	DB	01cH
	DB	020H
	DB	0ffH
	DB	020H
	DB	018H
	DB	018H
	DB	0ffH
	DB	018H
	DB	01cH
	DB	018H
	DB	0ffH
	DB	018H
	DB	018H
	DB	018H
	DB	0ffH
	DB	018H
	DB	018H
	DB	020H
	DB	0ffH
	DB	020H
	DB	01cH
	DB	018H
	DB	0ffH
	DB	020H
	DB	018H
	DB	018H
	DB	0ffH
	DB	018H
	DB	018H
	DB	020H
	DB	0ffH
	DB	020H
	DB	01cH
	DB	018H
	DB	0ffH
	DB	020H
	DB	018H
	DB	018H
	DB	0ffH
	DB	018H
	DB	01cH
	DB	020H
	DB	0ffH
	DB	018H
	DB	01cH
	DB	018H
	DB	0ffH
	DB	020H
	DB	018H
	DB	018H
	DB	0ffH
	DB	018H
	DB	01cH
	DB	018H
	DB	0ffH
	DB	018H
	DB	01cH
	DB	018H
	DB	0ffH
	DB	020H
	DB	018H
	DB	020H
	DB	0ffH
	DB	018H
	DB	01cH
	DB	018H
	DB	0ffH
	DB	018H
	DB	018H
	DB	018H
	DB	0ffH
	DB	018H
	DB	018H
	DB	020H
	DB	0ffH
	DB	020H
	DB	01cH
	DB	018H
	DB	0ffH
	DB	018H
	DB	018H
	DB	018H
	DB	0ffH
	DB	018H
	DB	01cH
	DB	020H
	DB	0ffH
	DB	018H
	DB	01cH
	DB	018H
	DB	0ffH
	DB	018H
	DB	018H
	DB	018H
	DB	0ffH
	DB	018H
	DB	018H
	DB	020H
	DB	0ffH
	DB	018H
	DB	01cH
	DB	018H
	DB	0ffH
	DB	020H
	DB	018H
	DB	018H
	DB	0ffH
	DB	020H
	DB	018H
	DB	020H
	DB	0ffH
	DB	018H
	DB	01cH
	DB	018H
	DB	0ffH
	DB	020H
	DB	01cH
	DB	020H
	DB	0ffH
	DB	018H
	DB	018H
	DB	018H
	DB	0ffH
	DB	018H
	DB	01cH
	DB	018H
	DB	0ffH
	DB	018H
	DB	018H
	DB	018H
	DB	0ffH
	DB	018H
	DB	01cH
	DB	018H
	DB	0ffH
	DB	018H
	DB	018H
	DB	018H
	DB	0ffH
	DB	018H
	DB	01cH
	DB	018H
	DB	0ffH
	DB	020H
	DB	01cH
	DB	018H
	DB	0ffH
	DB	018H
	DB	018H
	DB	020H
	DB	0ffH
	DB	018H
	DB	01cH
	DB	018H
	DB	0ffH
	DB	018H
	DB	01cH
	DB	018H
	DB	0ffH
	DB	018H
	DB	018H
	DB	020H
	DB	0ffH
	DB	020H
	DB	018H
	DB	018H
	DB	0ffH
	DB	018H
	DB	018H
	DB	018H
	DB	0ffH
	DB	018H
	DB	01cH
	DB	020H
	DB	0ffH
	DB	018H
	DB	018H
	DB	018H
	DB	0ffH
	DB	018H
	DB	01cH
	DB	018H
	DB	0ffH
	DB	018H
	DB	018H
	DB	018H
	DB	0ffH
	DB	0f8H
	DB	0fcH
	DB	0f8H
	DB	00H
	DB	0f8H
	DB	0fcH
	DB	0f8H
	DB	00H
	DB	0f8H
	DB	0fcH
	DB	0f8H
	DB	00H
	DB	0f8H
	DB	0fcH
	DB	0f8H
	DB	00H
	DB	0f8H
	DB	0fcH
	DB	0f8H
	DB	00H
	DB	0f8H
	DB	0fcH
	DB	0f8H
	DB	00H
	DB	0f8H
	DB	0fcH
	DB	0f8H
	DB	00H
	DB	0f8H
	DB	0fcH
	DB	0f8H
	DB	00H
	DB	0f8H
	DB	0fcH
	DB	0f8H
	DB	00H
	DB	0f8H
	DB	0fcH
	DB	0f8H
	DB	00H
	DB	0f8H
	DB	0fcH
	DB	0f8H
	DB	00H
	DB	0f8H
	DB	0fcH
	DB	0f8H
	DB	00H
	DB	0f8H
	DB	0fcH
	DB	0f8H
	DB	00H
	DB	0f8H
	DB	0fcH
	DB	0f8H
	DB	00H
	DB	0f8H
	DB	0fcH
	DB	0f8H
	DB	00H
	DB	0f8H
	DB	0fcH
	DB	0f8H
	DB	00H
	DB	0f8H
	DB	0fcH
	DB	0f8H
	DB	00H
	DB	0f8H
	DB	0fcH
	DB	0f8H
	DB	00H
	DB	0f8H
	DB	0fcH
	DB	0f8H
	DB	00H
	DB	0f8H
	DB	0fcH
	DB	0f8H
	DB	00H
	DB	0f8H
	DB	0fcH
	DB	0f8H
	DB	00H
	DB	0f8H
	DB	0fcH
	DB	0f8H
	DB	00H
	DB	0f8H
	DB	0fcH
	DB	0f8H
	DB	00H
	DB	0f8H
	DB	0fcH
	DB	0f8H
	DB	00H
	DB	0f8H
	DB	0fcH
	DB	0f8H
	DB	00H
	DB	0f8H
	DB	0fcH
	DB	0f8H
	DB	00H
	DB	0f8H
	DB	0fcH
	DB	0f8H
	DB	00H
	DB	0f8H
	DB	0fcH
	DB	0f8H
	DB	00H
	DB	0f8H
	DB	0fcH
	DB	0f8H
	DB	00H
	DB	0f8H
	DB	0fcH
	DB	0f8H
	DB	00H
	DB	0f8H
	DB	0fcH
	DB	0f8H
	DB	00H
	DB	0f8H
	DB	0fcH
	DB	0f8H
	DB	00H
	DB	0f8H
	DB	0fcH
	DB	0f8H
	DB	00H
	DB	0f8H
	DB	0fcH
	DB	0f8H
	DB	00H
	DB	0f8H
	DB	0fcH
	DB	0f8H
	DB	00H
	DB	0f8H
	DB	0fcH
	DB	0f8H
	DB	00H
	DB	0f8H
	DB	0fcH
	DB	0f8H
	DB	00H
	DB	0f8H
	DB	0fcH
	DB	0f8H
	DB	00H
	DB	0f8H
	DB	0fcH
	DB	0f8H
	DB	00H
	DB	0f8H
	DB	0fcH
	DB	0f8H
	DB	00H
	DB	0f8H
	DB	0fcH
	DB	0f8H
	DB	00H
	DB	0f8H
	DB	0fcH
	DB	0f8H
	DB	00H
	DB	0f8H
	DB	0fcH
	DB	0f8H
	DB	00H
	DB	0f8H
	DB	0fcH
	DB	0f8H
	DB	00H
	DB	0f8H
	DB	0fcH
	DB	0f8H
	DB	00H
	DB	0f8H
	DB	0fcH
	DB	0f8H
	DB	00H
	DB	0f8H
	DB	0fcH
	DB	0f8H
	DB	00H
	DB	0f8H
	DB	0fcH
	DB	0f8H
	DB	00H
	DB	0f8H
	DB	0fcH
	DB	0f8H
	DB	00H
	DB	0f8H
	DB	0fcH
	DB	0f8H
	DB	00H
	DB	0f8H
	DB	0fcH
	DB	0f8H
	DB	00H
	DB	0f8H
	DB	0fcH
	DB	0f8H
	DB	00H
	DB	0f8H
	DB	0fcH
	DB	0f8H
	DB	00H
	DB	0f8H
	DB	0fcH
	DB	0f8H
	DB	00H
	DB	0f8H
	DB	0fcH
	DB	0f8H
	DB	00H
	DB	0f8H
	DB	0fcH
	DB	0f8H
	DB	00H
	DB	0f8H
	DB	0fcH
	DB	0f8H
	DB	00H
	DB	0f8H
	DB	0fcH
	DB	0f8H
	DB	00H
	DB	0f8H
	DB	0fcH
	DB	0f8H
	DB	00H
	DB	0f8H
	DB	0fcH
	DB	0f8H
	DB	00H
	DB	010H
	DB	010H
	DB	010H
	DB	0ffH
	DB	018H
	DB	01cH
	DB	018H
	DB	0ffH
	DB	018H
	DB	018H
	DB	018H
	DB	0ffH
	DB	018H
	DB	018H
	DB	018H
	DB	0ffH
	DB	020H
	DB	01cH
	DB	020H
	DB	0ffH
	DB	018H
	DB	01cH
	DB	018H
	DB	0ffH
	DB	018H
	DB	018H
	DB	018H
	DB	0ffH
	DB	020H
	DB	018H
	DB	020H
	DB	0ffH
	DB	018H
	DB	01cH
	DB	018H
	DB	0ffH
	DB	018H
	DB	018H
	DB	018H
	DB	0ffH
	DB	020H
	DB	01cH
	DB	020H
	DB	0ffH
	DB	018H
	DB	01cH
	DB	018H
	DB	0ffH
	DB	018H
	DB	018H
	DB	018H
	DB	0ffH
	DB	018H
	DB	018H
	DB	018H
	DB	0ffH
	DB	020H
	DB	01cH
	DB	018H
	DB	0ffH
	DB	018H
	DB	01cH
	DB	020H
	DB	0ffH
	DB	018H
	DB	01cH
	DB	018H
	DB	0ffH
	DB	018H
	DB	018H
	DB	018H
	DB	0ffH
	DB	018H
	DB	01cH
	DB	018H
	DB	0ffH
	DB	018H
	DB	01cH
	DB	018H
	DB	0ffH
	DB	018H
	DB	018H
	DB	020H
	DB	0ffH
	DB	018H
	DB	01cH
	DB	018H
	DB	0ffH
	DB	018H
	DB	018H
	DB	018H
	DB	0ffH
	DB	018H
	DB	01cH
	DB	018H
	DB	0ffH
	DB	020H
	DB	018H
	DB	020H
	DB	0ffH
	DB	018H
	DB	018H
	DB	018H
	DB	0ffH
	DB	018H
	DB	01cH
	DB	018H
	DB	0ffH
	DB	020H
	DB	018H
	DB	018H
	DB	0ffH
	DB	018H
	DB	01cH
	DB	018H
	DB	0ffH
	DB	018H
	DB	01cH
	DB	018H
	DB	0ffH
	DB	018H
	DB	018H
	DB	018H
	DB	0ffH
	DB	018H
	DB	01cH
	DB	020H
	DB	0ffH
	DB	018H
	DB	018H
	DB	018H
	DB	0ffH
	DB	018H
	DB	018H
	DB	018H
	DB	0ffH
	DB	018H
	DB	01cH
	DB	018H
	DB	0ffH
	DB	020H
	DB	018H
	DB	018H
	DB	0ffH
	DB	018H
	DB	018H
	DB	018H
	DB	0ffH
	DB	018H
	DB	01cH
	DB	018H
	DB	0ffH
	DB	018H
	DB	01cH
	DB	018H
	DB	0ffH
	DB	018H
	DB	018H
	DB	018H
	DB	0ffH
	DB	018H
	DB	018H
	DB	018H
	DB	0ffH
	DB	018H
	DB	01cH
	DB	018H
	DB	0ffH
	DB	018H
	DB	018H
	DB	018H
	DB	0ffH
	DB	020H
	DB	01cH
	DB	020H
	DB	0ffH
	DB	018H
	DB	01cH
	DB	018H
	DB	0ffH
	DB	020H
	DB	018H
	DB	020H
	DB	0ffH
	DB	018H
	DB	018H
	DB	018H
	DB	0ffH
	DB	018H
	DB	01cH
	DB	020H
	DB	0ffH
	DB	020H
	DB	018H
	DB	018H
	DB	0ffH
	DB	018H
	DB	01cH
	DB	018H
	DB	0ffH
	DB	018H
	DB	018H
	DB	020H
	DB	0ffH
	DB	018H
	DB	01cH
	DB	018H
	DB	0ffH
	DB	018H
	DB	01cH
	DB	018H
	DB	0ffH
	DB	020H
	DB	018H
	DB	020H
	DB	0ffH
	DB	018H
	DB	01cH
	DB	018H
	DB	0ffH
	DB	018H
	DB	01cH
	DB	018H
	DB	0ffH
	DB	020H
	DB	018H
	DB	020H
	DB	0ffH
	DB	018H
	DB	018H
	DB	018H
	DB	0ffH
	DB	018H
	DB	01cH
	DB	018H
	DB	0ffH
	DB	010H
	DB	010H
	DB	010H
	DB	0ffH
	DB	0f8H
	DB	0fcH
	DB	0f8H
	DB	00H
	DB	0f8H
	DB	0fcH
	DB	0f8H
	DB	00H
	DB	0f8H
	DB	0fcH
	DB	0f8H
	DB	00H
	DB	0f8H
	DB	0fcH
	DB	0f8H
	DB	00H
	DB	0f8H
	DB	0fcH
	DB	0f8H
	DB	00H
	DB	0f8H
	DB	0fcH
	DB	0f8H
	DB	00H
	DB	0f8H
	DB	0fcH
	DB	0f8H
	DB	00H
	DB	0f8H
	DB	0fcH
	DB	0f8H
	DB	00H
	DB	0f8H
	DB	0fcH
	DB	0f8H
	DB	00H
	DB	0f8H
	DB	0fcH
	DB	0f8H
	DB	00H
	DB	0f8H
	DB	0fcH
	DB	0f8H
	DB	00H
	DB	0f8H
	DB	0fcH
	DB	0f8H
	DB	00H
	DB	0f8H
	DB	0fcH
	DB	0f8H
	DB	00H
	DB	0f8H
	DB	0fcH
	DB	0f8H
	DB	00H
	DB	0f8H
	DB	0fcH
	DB	0f8H
	DB	00H
	DB	0f8H
	DB	0fcH
	DB	0f8H
	DB	00H
	DB	0f8H
	DB	0fcH
	DB	0f8H
	DB	00H
	DB	0f8H
	DB	0fcH
	DB	0f8H
	DB	00H
	DB	0f8H
	DB	0fcH
	DB	0f8H
	DB	00H
	DB	0f8H
	DB	0fcH
	DB	0f8H
	DB	00H
	DB	0f8H
	DB	0fcH
	DB	0f8H
	DB	00H
	DB	0f8H
	DB	0fcH
	DB	0f8H
	DB	00H
	DB	0f8H
	DB	0fcH
	DB	0f8H
	DB	00H
	DB	0f8H
	DB	0fcH
	DB	0f8H
	DB	00H
	DB	0f8H
	DB	0fcH
	DB	0f8H
	DB	00H
	DB	0f8H
	DB	0fcH
	DB	0f8H
	DB	00H
	DB	0f8H
	DB	0fcH
	DB	0f8H
	DB	00H
	DB	0f8H
	DB	0fcH
	DB	0f8H
	DB	00H
	DB	0f8H
	DB	0fcH
	DB	0f8H
	DB	00H
	DB	0f8H
	DB	0fcH
	DB	0f8H
	DB	00H
	DB	0f8H
	DB	0fcH
	DB	0f8H
	DB	00H
	DB	0f8H
	DB	0fcH
	DB	0f8H
	DB	00H
	DB	0f8H
	DB	0fcH
	DB	0f8H
	DB	00H
	DB	0f8H
	DB	0fcH
	DB	0f8H
	DB	00H
	DB	0f8H
	DB	0fcH
	DB	0f8H
	DB	00H
	DB	0f8H
	DB	0fcH
	DB	0f8H
	DB	00H
	DB	0f8H
	DB	0fcH
	DB	0f8H
	DB	00H
	DB	0f8H
	DB	0fcH
	DB	0f8H
	DB	00H
	DB	0f8H
	DB	0fcH
	DB	0f8H
	DB	00H
	DB	0f8H
	DB	0fcH
	DB	0f8H
	DB	00H
	DB	0f8H
	DB	0fcH
	DB	0f8H
	DB	00H
	DB	0f8H
	DB	0fcH
	DB	0f8H
	DB	00H
	DB	0f8H
	DB	0fcH
	DB	0f8H
	DB	00H
	DB	0f8H
	DB	0fcH
	DB	0f8H
	DB	00H
	DB	0f8H
	DB	0fcH
	DB	0f8H
	DB	00H
	DB	0f8H
	DB	0fcH
	DB	0f8H
	DB	00H
	DB	0f8H
	DB	0fcH
	DB	0f8H
	DB	00H
	DB	0f8H
	DB	0fcH
	DB	0f8H
	DB	00H
	DB	0f8H
	DB	0fcH
	DB	0f8H
	DB	00H
	DB	0f8H
	DB	0fcH
	DB	0f8H
	DB	00H
	DB	0f8H
	DB	0fcH
	DB	0f8H
	DB	00H
	DB	0f8H
	DB	0fcH
	DB	0f8H
	DB	00H
	DB	0f8H
	DB	0fcH
	DB	0f8H
	DB	00H
	DB	0f8H
	DB	0fcH
	DB	0f8H
	DB	00H
	DB	0f8H
	DB	0fcH
	DB	0f8H
	DB	00H
	DB	0f8H
	DB	0fcH
	DB	0f8H
	DB	00H
	DB	0f8H
	DB	0fcH
	DB	0f8H
	DB	00H
	DB	0f8H
	DB	0fcH
	DB	0f8H
	DB	00H
	DB	0f8H
	DB	0fcH
	DB	0f8H
	DB	00H
	DB	0f8H
	DB	0fcH
	DB	0f8H
	DB	00H
	DB	08H
	DB	04H
	DB	08H
	DB	0ffH
	DB	018H
	DB	018H
	DB	018H
	DB	0ffH
	DB	018H
	DB	01cH
	DB	018H
	DB	0ffH
	DB	018H
	DB	018H
	DB	018H
	DB	0ffH
	DB	018H
	DB	018H
	DB	018H
	DB	0ffH
	DB	018H
	DB	01cH
	DB	018H
	DB	0ffH
	DB	018H
	DB	018H
	DB	018H
	DB	0ffH
	DB	020H
	DB	01cH
	DB	020H
	DB	0ffH
	DB	018H
	DB	018H
	DB	018H
	DB	0ffH
	DB	018H
	DB	018H
	DB	018H
	DB	0ffH
	DB	018H
	DB	01cH
	DB	018H
	DB	0ffH
	DB	018H
	DB	018H
	DB	020H
	DB	0ffH
	DB	018H
	DB	01cH
	DB	018H
	DB	0ffH
	DB	020H
	DB	018H
	DB	018H
	DB	0ffH
	DB	018H
	DB	018H
	DB	020H
	DB	0ffH
	DB	018H
	DB	01cH
	DB	018H
	DB	0ffH
	DB	020H
	DB	018H
	DB	018H
	DB	0ffH
	DB	018H
	DB	018H
	DB	020H
	DB	0ffH
	DB	018H
	DB	01cH
	DB	018H
	DB	0ffH
	DB	020H
	DB	018H
	DB	018H
	DB	0ffH
	DB	018H
	DB	01cH
	DB	018H
	DB	0ffH
	DB	018H
	DB	018H
	DB	018H
	DB	0ffH
	DB	018H
	DB	01cH
	DB	018H
	DB	0ffH
	DB	018H
	DB	018H
	DB	018H
	DB	0ffH
	DB	020H
	DB	01cH
	DB	018H
	DB	0ffH
	DB	018H
	DB	01cH
	DB	020H
	DB	0ffH
	DB	018H
	DB	018H
	DB	018H
	DB	0ffH
	DB	018H
	DB	018H
	DB	020H
	DB	0ffH
	DB	018H
	DB	01cH
	DB	018H
	DB	0ffH
	DB	020H
	DB	018H
	DB	018H
	DB	0ffH
	DB	018H
	DB	01cH
	DB	020H
	DB	0ffH
	DB	020H
	DB	01cH
	DB	018H
	DB	0ffH
	DB	018H
	DB	018H
	DB	018H
	DB	0ffH
	DB	018H
	DB	01cH
	DB	020H
	DB	0ffH
	DB	020H
	DB	01cH
	DB	018H
	DB	0ffH
	DB	018H
	DB	018H
	DB	020H
	DB	0ffH
	DB	018H
	DB	01cH
	DB	018H
	DB	0ffH
	DB	020H
	DB	01cH
	DB	018H
	DB	0ffH
	DB	018H
	DB	018H
	DB	020H
	DB	0ffH
	DB	018H
	DB	01cH
	DB	018H
	DB	0ffH
	DB	020H
	DB	01cH
	DB	018H
	DB	0ffH
	DB	018H
	DB	018H
	DB	020H
	DB	0ffH
	DB	018H
	DB	018H
	DB	018H
	DB	0ffH
	DB	018H
	DB	01cH
	DB	018H
	DB	0ffH
	DB	018H
	DB	018H
	DB	018H
	DB	0ffH
	DB	020H
	DB	01cH
	DB	018H
	DB	0ffH
	DB	018H
	DB	01cH
	DB	020H
	DB	0ffH
	DB	018H
	DB	018H
	DB	018H
	DB	0ffH
	DB	018H
	DB	01cH
	DB	018H
	DB	0ffH
	DB	018H
	DB	018H
	DB	018H
	DB	0ffH
	DB	020H
	DB	018H
	DB	018H
	DB	0ffH
	DB	018H
	DB	018H
	DB	018H
	DB	0ffH
	DB	018H
	DB	01cH
	DB	018H
	DB	0ffH
	DB	020H
	DB	018H
	DB	020H
	DB	0ffH
	DB	018H
	DB	01cH
	DB	018H
	DB	0ffH
	DB	018H
	DB	01cH
	DB	018H
	DB	0ffH
	DB	018H
	DB	018H
	DB	018H
	DB	0ffH
	DB	020H
	DB	01cH
	DB	020H
	DB	0ffH
	DB	018H
	DB	018H
	DB	018H
	DB	0ffH
	DB	08H
	DB	04H
	DB	08H
	DB	0ffH
	DB	0f8H
	DB	0fcH
	DB	0f8H
	DB	00H
	DB	0f8H
	DB	0fcH
	DB	0f8H
	DB	00H
	DB	0f8H
	DB	0fcH
	DB	0f8H
	DB	00H
	DB	0f8H
	DB	0fcH
	DB	0f8H
	DB	00H
	DB	0f8H
	DB	0fcH
	DB	0f8H
	DB	00H
	DB	0f8H
	DB	0fcH
	DB	0f8H
	DB	00H
	DB	0f8H
	DB	0fcH
	DB	0f8H
	DB	00H
	DB	0f8H
	DB	0fcH
	DB	0f8H
	DB	00H
	DB	0f8H
	DB	0fcH
	DB	0f8H
	DB	00H
	DB	0f8H
	DB	0fcH
	DB	0f8H
	DB	00H
	DB	0f8H
	DB	0fcH
	DB	0f8H
	DB	00H
	DB	0f8H
	DB	0fcH
	DB	0f8H
	DB	00H
	DB	0f8H
	DB	0fcH
	DB	0f8H
	DB	00H
	DB	0f8H
	DB	0fcH
	DB	0f8H
	DB	00H
	DB	0f8H
	DB	0fcH
	DB	0f8H
	DB	00H
	DB	0f8H
	DB	0fcH
	DB	0f8H
	DB	00H
	DB	0f8H
	DB	0fcH
	DB	0f8H
	DB	00H
	DB	0f8H
	DB	0fcH
	DB	0f8H
	DB	00H
	DB	0f8H
	DB	0fcH
	DB	0f8H
	DB	00H
	DB	0f8H
	DB	0fcH
	DB	0f8H
	DB	00H
	DB	0f8H
	DB	0fcH
	DB	0f8H
	DB	00H
	DB	0f8H
	DB	0fcH
	DB	0f8H
	DB	00H
	DB	0f8H
	DB	0fcH
	DB	0f8H
	DB	00H
	DB	0f8H
	DB	0fcH
	DB	0f8H
	DB	00H
	DB	0f8H
	DB	0fcH
	DB	0f8H
	DB	00H
	DB	0f8H
	DB	0fcH
	DB	0f8H
	DB	00H
	DB	0f8H
	DB	0fcH
	DB	0f8H
	DB	00H
	DB	0f8H
	DB	0fcH
	DB	0f8H
	DB	00H
	DB	0f8H
	DB	0fcH
	DB	0f8H
	DB	00H
	DB	0f8H
	DB	0fcH
	DB	0f8H
	DB	00H
	DB	0f8H
	DB	0fcH
	DB	0f8H
	DB	00H
	DB	0f8H
	DB	0fcH
	DB	0f8H
	DB	00H
	DB	0f8H
	DB	0fcH
	DB	0f8H
	DB	00H
	DB	0f8H
	DB	0fcH
	DB	0f8H
	DB	00H
	DB	0f8H
	DB	0fcH
	DB	0f8H
	DB	00H
	DB	0f8H
	DB	0fcH
	DB	0f8H
	DB	00H
	DB	0f8H
	DB	0fcH
	DB	0f8H
	DB	00H
	DB	0f8H
	DB	0fcH
	DB	0f8H
	DB	00H
	DB	0f8H
	DB	0fcH
	DB	0f8H
	DB	00H
	DB	0f8H
	DB	0fcH
	DB	0f8H
	DB	00H
	DB	0f8H
	DB	0fcH
	DB	0f8H
	DB	00H
	DB	0f8H
	DB	0fcH
	DB	0f8H
	DB	00H
	DB	0f8H
	DB	0fcH
	DB	0f8H
	DB	00H
	DB	0f8H
	DB	0fcH
	DB	0f8H
	DB	00H
	DB	0f8H
	DB	0fcH
	DB	0f8H
	DB	00H
	DB	0f8H
	DB	0fcH
	DB	0f8H
	DB	00H
	DB	0f8H
	DB	0fcH
	DB	0f8H
	DB	00H
	DB	0f8H
	DB	0fcH
	DB	0f8H
	DB	00H
	DB	0f8H
	DB	0fcH
	DB	0f8H
	DB	00H
	DB	0f8H
	DB	0fcH
	DB	0f8H
	DB	00H
	DB	0f8H
	DB	0fcH
	DB	0f8H
	DB	00H
	DB	0f8H
	DB	0fcH
	DB	0f8H
	DB	00H
	DB	0f8H
	DB	0fcH
	DB	0f8H
	DB	00H
	DB	0f8H
	DB	0fcH
	DB	0f8H
	DB	00H
	DB	0f8H
	DB	0fcH
	DB	0f8H
	DB	00H
	DB	0f8H
	DB	0fcH
	DB	0f8H
	DB	00H
	DB	0f8H
	DB	0fcH
	DB	0f8H
	DB	00H
	DB	0f8H
	DB	0fcH
	DB	0f8H
	DB	00H
	DB	0f8H
	DB	0fcH
	DB	0f8H
	DB	00H
	DB	0f8H
	DB	0fcH
	DB	0f8H
	DB	00H
	DB	00H
	DB	00H
	DB	00H
	DB	0ffH
	DB	08H
	DB	04H
	DB	08H
	DB	0ffH
	DB	010H
	DB	010H
	DB	010H
	DB	0ffH
	DB	018H
	DB	018H
	DB	018H
	DB	0ffH
	DB	020H
	DB	01cH
	DB	020H
	DB	0ffH
	DB	018H
	DB	018H
	DB	018H
	DB	0ffH
	DB	018H
	DB	01cH
	DB	018H
	DB	0ffH
	DB	018H
	DB	01cH
	DB	018H
	DB	0ffH
	DB	020H
	DB	018H
	DB	020H
	DB	0ffH
	DB	018H
	DB	01cH
	DB	018H
	DB	0ffH
	DB	020H
	DB	018H
	DB	018H
	DB	0ffH
	DB	018H
	DB	01cH
	DB	018H
	DB	0ffH
	DB	018H
	DB	01cH
	DB	020H
	DB	0ffH
	DB	018H
	DB	018H
	DB	018H
	DB	0ffH
	DB	018H
	DB	01cH
	DB	018H
	DB	0ffH
	DB	018H
	DB	01cH
	DB	018H
	DB	0ffH
	DB	020H
	DB	018H
	DB	018H
	DB	0ffH
	DB	018H
	DB	01cH
	DB	020H
	DB	0ffH
	DB	018H
	DB	018H
	DB	018H
	DB	0ffH
	DB	020H
	DB	01cH
	DB	018H
	DB	0ffH
	DB	018H
	DB	018H
	DB	020H
	DB	0ffH
	DB	020H
	DB	01cH
	DB	018H
	DB	0ffH
	DB	018H
	DB	018H
	DB	020H
	DB	0ffH
	DB	018H
	DB	018H
	DB	018H
	DB	0ffH
	DB	018H
	DB	01cH
	DB	018H
	DB	0ffH
	DB	018H
	DB	01cH
	DB	018H
	DB	0ffH
	DB	020H
	DB	018H
	DB	018H
	DB	0ffH
	DB	018H
	DB	01cH
	DB	020H
	DB	0ffH
	DB	018H
	DB	018H
	DB	018H
	DB	0ffH
	DB	018H
	DB	018H
	DB	018H
	DB	0ffH
	DB	018H
	DB	01cH
	DB	020H
	DB	0ffH
	DB	020H
	DB	018H
	DB	018H
	DB	0ffH
	DB	018H
	DB	018H
	DB	018H
	DB	0ffH
	DB	018H
	DB	01cH
	DB	018H
	DB	0ffH
	DB	020H
	DB	018H
	DB	020H
	DB	0ffH
	DB	018H
	DB	018H
	DB	018H
	DB	0ffH
	DB	018H
	DB	01cH
	DB	018H
	DB	0ffH
	DB	020H
	DB	018H
	DB	020H
	DB	0ffH
	DB	018H
	DB	018H
	DB	018H
	DB	0ffH
	DB	018H
	DB	01cH
	DB	018H
	DB	0ffH
	DB	020H
	DB	01cH
	DB	020H
	DB	0ffH
	DB	018H
	DB	018H
	DB	018H
	DB	0ffH
	DB	018H
	DB	01cH
	DB	018H
	DB	0ffH
	DB	020H
	DB	018H
	DB	020H
	DB	0ffH
	DB	018H
	DB	018H
	DB	018H
	DB	0ffH
	DB	018H
	DB	01cH
	DB	018H
	DB	0ffH
	DB	018H
	DB	018H
	DB	018H
	DB	0ffH
	DB	020H
	DB	018H
	DB	018H
	DB	0ffH
	DB	018H
	DB	01cH
	DB	020H
	DB	0ffH
	DB	018H
	DB	01cH
	DB	018H
	DB	0ffH
	DB	020H
	DB	018H
	DB	020H
	DB	0ffH
	DB	018H
	DB	01cH
	DB	018H
	DB	0ffH
	DB	018H
	DB	018H
	DB	018H
	DB	0ffH
	DB	018H
	DB	018H
	DB	018H
	DB	0ffH
	DB	018H
	DB	018H
	DB	020H
	DB	0ffH
	DB	018H
	DB	01cH
	DB	018H
	DB	0ffH
	DB	018H
	DB	018H
	DB	018H
	DB	0ffH
	DB	010H
	DB	010H
	DB	010H
	DB	0ffH
	DB	08H
	DB	04H
	DB	08H
	DB	0ffH
	DB	00H
	DB	00H
	DB	00H
	DB	0ffH
	DB	0f8H
	DB	0fcH
	DB	0f8H
	DB	00H
	DB	0f8H
	DB	0fcH
	DB	0f8H
	DB	00H
	DB	0f8H
	DB	0fcH
	DB	0f8H
	DB	00H
	DB	0f8H
	DB	0fcH
	DB	0f8H
	DB	00H
	DB	0f8H
	DB	0fcH
	DB	0f8H
	DB	00H
	DB	0f8H
	DB	0fcH
	DB	0f8H
	DB	00H
	DB	0f8H
	DB	0fcH
	DB	0f8H
	DB	00H
	DB	0f8H
	DB	0fcH
	DB	0f8H
	DB	00H
	DB	0f8H
	DB	0fcH
	DB	0f8H
	DB	00H
	DB	0f8H
	DB	0fcH
	DB	0f8H
	DB	00H
	DB	0f8H
	DB	0fcH
	DB	0f8H
	DB	00H
	DB	0f8H
	DB	0fcH
	DB	0f8H
	DB	00H
	DB	0f8H
	DB	0fcH
	DB	0f8H
	DB	00H
	DB	0f8H
	DB	0fcH
	DB	0f8H
	DB	00H
	DB	0f8H
	DB	0fcH
	DB	0f8H
	DB	00H
	DB	0f8H
	DB	0fcH
	DB	0f8H
	DB	00H
	DB	0f8H
	DB	0fcH
	DB	0f8H
	DB	00H
	DB	0f8H
	DB	0fcH
	DB	0f8H
	DB	00H
	DB	0f8H
	DB	0fcH
	DB	0f8H
	DB	00H
	DB	0f8H
	DB	0fcH
	DB	0f8H
	DB	00H
	DB	0f8H
	DB	0fcH
	DB	0f8H
	DB	00H
	DB	0f8H
	DB	0fcH
	DB	0f8H
	DB	00H
	DB	0f8H
	DB	0fcH
	DB	0f8H
	DB	00H
	DB	0f8H
	DB	0fcH
	DB	0f8H
	DB	00H
	DB	0f8H
	DB	0fcH
	DB	0f8H
	DB	00H
	DB	0f8H
	DB	0fcH
	DB	0f8H
	DB	00H
	DB	0f8H
	DB	0fcH
	DB	0f8H
	DB	00H
	DB	0f8H
	DB	0fcH
	DB	0f8H
	DB	00H
	DB	0f8H
	DB	0fcH
	DB	0f8H
	DB	00H
	DB	0f8H
	DB	0fcH
	DB	0f8H
	DB	00H
	DB	0f8H
	DB	0fcH
	DB	0f8H
	DB	00H
	DB	0f8H
	DB	0fcH
	DB	0f8H
	DB	00H
	DB	0f8H
	DB	0fcH
	DB	0f8H
	DB	00H
	DB	0f8H
	DB	0fcH
	DB	0f8H
	DB	00H
	DB	0f8H
	DB	0fcH
	DB	0f8H
	DB	00H
	DB	0f8H
	DB	0fcH
	DB	0f8H
	DB	00H
	DB	0f8H
	DB	0fcH
	DB	0f8H
	DB	00H
	DB	0f8H
	DB	0fcH
	DB	0f8H
	DB	00H
	DB	0f8H
	DB	0fcH
	DB	0f8H
	DB	00H
	DB	0f8H
	DB	0fcH
	DB	0f8H
	DB	00H
	DB	0f8H
	DB	0fcH
	DB	0f8H
	DB	00H
	DB	0f8H
	DB	0fcH
	DB	0f8H
	DB	00H
	DB	0f8H
	DB	0fcH
	DB	0f8H
	DB	00H
	DB	0f8H
	DB	0fcH
	DB	0f8H
	DB	00H
	DB	0f8H
	DB	0fcH
	DB	0f8H
	DB	00H
	DB	0f8H
	DB	0fcH
	DB	0f8H
	DB	00H
	DB	0f8H
	DB	0fcH
	DB	0f8H
	DB	00H
	DB	0f8H
	DB	0fcH
	DB	0f8H
	DB	00H
	DB	0f8H
	DB	0fcH
	DB	0f8H
	DB	00H
	DB	0f8H
	DB	0fcH
	DB	0f8H
	DB	00H
	DB	0f8H
	DB	0fcH
	DB	0f8H
	DB	00H
	DB	0f8H
	DB	0fcH
	DB	0f8H
	DB	00H
	DB	0f8H
	DB	0fcH
	DB	0f8H
	DB	00H
	DB	0f8H
	DB	0fcH
	DB	0f8H
	DB	00H
	DB	0f8H
	DB	0fcH
	DB	0f8H
	DB	00H
	DB	0f8H
	DB	0fcH
	DB	0f8H
	DB	00H
	DB	0f8H
	DB	0fcH
	DB	0f8H
	DB	00H
	DB	0f8H
	DB	0fcH
	DB	0f8H
	DB	00H
	DB	0f8H
	DB	0fcH
	DB	0f8H
	DB	00H
	DB	0f8H
	DB	0fcH
	DB	0f8H
	DB	00H
CONST	ENDS
END
