; Listing generated by Microsoft (R) Optimizing Compiler Version 19.27.29112.0 

	TITLE	D:\hackTuesProject\project\TouchGFX\generated\images\src\BathRoom\image_bathtub_water_on.cpp
	.686P
	.XMM
	include listing.inc
	.model	flat

INCLUDELIB MSVCRTD
INCLUDELIB OLDNAMES

PUBLIC	?image_bathtub_water_on@@3QBEB			; image_bathtub_water_on
CONST	SEGMENT
?image_bathtub_water_on@@3QBEB DB 0f8H			; image_bathtub_water_on
	DB	0fcH
	DB	0f8H
	DB	00H
	DB	0f8H
	DB	0fcH
	DB	0f8H
	DB	00H
	DB	0f8H
	DB	0fcH
	DB	0f8H
	DB	00H
	DB	0f8H
	DB	0fcH
	DB	0f8H
	DB	00H
	DB	0f8H
	DB	0fcH
	DB	0f8H
	DB	00H
	DB	0f8H
	DB	0fcH
	DB	0f8H
	DB	00H
	DB	0f8H
	DB	0fcH
	DB	0f8H
	DB	00H
	DB	0f8H
	DB	0fcH
	DB	0f8H
	DB	00H
	DB	0f8H
	DB	0fcH
	DB	0f8H
	DB	00H
	DB	0f8H
	DB	0fcH
	DB	0f8H
	DB	00H
	DB	0f8H
	DB	0fcH
	DB	0f8H
	DB	00H
	DB	0f8H
	DB	0fcH
	DB	0f8H
	DB	00H
	DB	0f8H
	DB	0fcH
	DB	0f8H
	DB	00H
	DB	0f8H
	DB	0fcH
	DB	0f8H
	DB	00H
	DB	0f8H
	DB	0fcH
	DB	0f8H
	DB	00H
	DB	0f8H
	DB	0fcH
	DB	0f8H
	DB	00H
	DB	0f8H
	DB	0fcH
	DB	0f8H
	DB	00H
	DB	0f8H
	DB	0fcH
	DB	0f8H
	DB	00H
	DB	0f8H
	DB	0fcH
	DB	0f8H
	DB	00H
	DB	0f8H
	DB	0fcH
	DB	0f8H
	DB	00H
	DB	0f8H
	DB	0fcH
	DB	0f8H
	DB	00H
	DB	0f8H
	DB	0fcH
	DB	0f8H
	DB	00H
	DB	0f8H
	DB	0fcH
	DB	0f8H
	DB	00H
	DB	0f8H
	DB	0fcH
	DB	0f8H
	DB	00H
	DB	0f8H
	DB	0fcH
	DB	0f8H
	DB	00H
	DB	0f8H
	DB	0fcH
	DB	0f8H
	DB	00H
	DB	0f8H
	DB	0fcH
	DB	0f8H
	DB	00H
	DB	0f8H
	DB	0fcH
	DB	0f8H
	DB	00H
	DB	0f8H
	DB	0fcH
	DB	0f8H
	DB	00H
	DB	0f8H
	DB	0fcH
	DB	0f8H
	DB	00H
	DB	0f8H
	DB	0fcH
	DB	0f8H
	DB	00H
	DB	0f8H
	DB	0fcH
	DB	0f8H
	DB	00H
	DB	0f8H
	DB	0fcH
	DB	0f8H
	DB	00H
	DB	0f8H
	DB	0fcH
	DB	0f8H
	DB	00H
	DB	0f8H
	DB	0fcH
	DB	0f8H
	DB	00H
	DB	0f8H
	DB	0fcH
	DB	0f8H
	DB	00H
	DB	0f8H
	DB	0fcH
	DB	0f8H
	DB	00H
	DB	0f8H
	DB	0fcH
	DB	0f8H
	DB	00H
	DB	0f8H
	DB	0fcH
	DB	0f8H
	DB	00H
	DB	0f8H
	DB	0fcH
	DB	0f8H
	DB	00H
	DB	0f8H
	DB	0fcH
	DB	0f8H
	DB	00H
	DB	0f8H
	DB	0fcH
	DB	0f8H
	DB	00H
	DB	0f8H
	DB	0fcH
	DB	0f8H
	DB	00H
	DB	0f8H
	DB	0fcH
	DB	0f8H
	DB	00H
	DB	0f8H
	DB	0fcH
	DB	0f8H
	DB	00H
	DB	0f8H
	DB	0fcH
	DB	0f8H
	DB	00H
	DB	0f8H
	DB	0fcH
	DB	0f8H
	DB	00H
	DB	0f8H
	DB	0fcH
	DB	0f8H
	DB	00H
	DB	0f8H
	DB	0fcH
	DB	0f8H
	DB	00H
	DB	0f8H
	DB	0fcH
	DB	0f8H
	DB	00H
	DB	0f8H
	DB	0fcH
	DB	0f8H
	DB	00H
	DB	0f8H
	DB	0fcH
	DB	0f8H
	DB	00H
	DB	0f8H
	DB	0fcH
	DB	0f8H
	DB	00H
	DB	0f8H
	DB	0fcH
	DB	0f8H
	DB	00H
	DB	0f8H
	DB	0fcH
	DB	0f8H
	DB	00H
	DB	0f8H
	DB	0fcH
	DB	0f8H
	DB	00H
	DB	0f8H
	DB	0fcH
	DB	0f8H
	DB	00H
	DB	0f8H
	DB	0fcH
	DB	0f8H
	DB	00H
	DB	0f8H
	DB	0fcH
	DB	0f8H
	DB	00H
	DB	0f8H
	DB	0fcH
	DB	0f8H
	DB	00H
	DB	0f8H
	DB	0fcH
	DB	0f8H
	DB	00H
	DB	0f8H
	DB	0fcH
	DB	0f8H
	DB	00H
	DB	0f8H
	DB	0fcH
	DB	0f8H
	DB	00H
	DB	0f8H
	DB	0fcH
	DB	0f8H
	DB	00H
	DB	0f8H
	DB	0fcH
	DB	0f8H
	DB	00H
	DB	0f8H
	DB	0fcH
	DB	0f8H
	DB	00H
	DB	0f8H
	DB	0fcH
	DB	0f8H
	DB	00H
	DB	0f8H
	DB	0fcH
	DB	0f8H
	DB	00H
	DB	0f8H
	DB	0fcH
	DB	0f8H
	DB	00H
	DB	0f8H
	DB	0fcH
	DB	0f8H
	DB	00H
	DB	0f8H
	DB	0fcH
	DB	0f8H
	DB	00H
	DB	0f8H
	DB	0fcH
	DB	0f8H
	DB	00H
	DB	0f8H
	DB	0fcH
	DB	0f8H
	DB	00H
	DB	0f8H
	DB	0fcH
	DB	0f8H
	DB	00H
	DB	0f8H
	DB	0fcH
	DB	0f8H
	DB	00H
	DB	0f8H
	DB	0fcH
	DB	0f8H
	DB	00H
	DB	0f8H
	DB	0fcH
	DB	0f8H
	DB	00H
	DB	0f8H
	DB	0fcH
	DB	0f8H
	DB	00H
	DB	0f8H
	DB	0fcH
	DB	0f8H
	DB	00H
	DB	0f8H
	DB	0fcH
	DB	0f8H
	DB	00H
	DB	0f8H
	DB	0fcH
	DB	0f8H
	DB	00H
	DB	0f8H
	DB	0fcH
	DB	0f8H
	DB	00H
	DB	0f8H
	DB	0fcH
	DB	0f8H
	DB	00H
	DB	0f8H
	DB	0fcH
	DB	0f8H
	DB	00H
	DB	0f8H
	DB	0fcH
	DB	0f8H
	DB	00H
	DB	0f8H
	DB	0fcH
	DB	0f8H
	DB	00H
	DB	0f8H
	DB	0fcH
	DB	0f8H
	DB	00H
	DB	0f8H
	DB	0fcH
	DB	0f8H
	DB	00H
	DB	0f8H
	DB	0fcH
	DB	0f8H
	DB	00H
	DB	0f8H
	DB	0fcH
	DB	0f8H
	DB	00H
	DB	0f8H
	DB	0fcH
	DB	0f8H
	DB	00H
	DB	0f8H
	DB	0fcH
	DB	0f8H
	DB	00H
	DB	0f8H
	DB	0fcH
	DB	0f8H
	DB	00H
	DB	0f8H
	DB	0fcH
	DB	0f8H
	DB	00H
	DB	0f8H
	DB	0fcH
	DB	0f8H
	DB	00H
	DB	0f8H
	DB	0fcH
	DB	0f8H
	DB	00H
	DB	0f8H
	DB	0fcH
	DB	0f8H
	DB	00H
	DB	0f8H
	DB	0fcH
	DB	0f8H
	DB	00H
	DB	0f8H
	DB	0fcH
	DB	0f8H
	DB	00H
	DB	0f8H
	DB	0fcH
	DB	0f8H
	DB	00H
	DB	0f8H
	DB	0fcH
	DB	0f8H
	DB	00H
	DB	0f8H
	DB	0fcH
	DB	0f8H
	DB	00H
	DB	0f8H
	DB	0fcH
	DB	0f8H
	DB	00H
	DB	0f8H
	DB	0fcH
	DB	0f8H
	DB	00H
	DB	0f8H
	DB	0fcH
	DB	0f8H
	DB	00H
	DB	0f8H
	DB	0fcH
	DB	0f8H
	DB	00H
	DB	0f8H
	DB	0fcH
	DB	0f8H
	DB	00H
	DB	0f8H
	DB	0fcH
	DB	0f8H
	DB	00H
	DB	0f8H
	DB	0fcH
	DB	0f8H
	DB	00H
	DB	0f8H
	DB	0fcH
	DB	0f8H
	DB	00H
	DB	0f8H
	DB	0fcH
	DB	0f8H
	DB	00H
	DB	0f8H
	DB	0fcH
	DB	0f8H
	DB	00H
	DB	0f8H
	DB	0fcH
	DB	0f8H
	DB	00H
	DB	0f8H
	DB	0fcH
	DB	0f8H
	DB	00H
	DB	0f8H
	DB	0fcH
	DB	0f8H
	DB	00H
	DB	0f8H
	DB	0fcH
	DB	0f8H
	DB	00H
	DB	0f8H
	DB	0fcH
	DB	0f8H
	DB	00H
	DB	0f8H
	DB	0fcH
	DB	0f8H
	DB	00H
	DB	0f8H
	DB	0fcH
	DB	0f8H
	DB	00H
	DB	0f8H
	DB	0fcH
	DB	0f8H
	DB	00H
	DB	0f8H
	DB	0fcH
	DB	0f8H
	DB	00H
	DB	0f8H
	DB	0fcH
	DB	0f8H
	DB	00H
	DB	0f8H
	DB	0fcH
	DB	0f8H
	DB	00H
	DB	0f8H
	DB	0fcH
	DB	0f8H
	DB	00H
	DB	0f8H
	DB	0fcH
	DB	0f8H
	DB	00H
	DB	0f8H
	DB	0fcH
	DB	0f8H
	DB	00H
	DB	0f8H
	DB	0fcH
	DB	0f8H
	DB	00H
	DB	0f8H
	DB	0fcH
	DB	0f8H
	DB	00H
	DB	0f8H
	DB	0fcH
	DB	0f8H
	DB	00H
	DB	0f8H
	DB	0fcH
	DB	0f8H
	DB	00H
	DB	0f8H
	DB	0fcH
	DB	0f8H
	DB	00H
	DB	0f8H
	DB	0fcH
	DB	0f8H
	DB	00H
	DB	0f8H
	DB	0fcH
	DB	0f8H
	DB	00H
	DB	0f8H
	DB	0fcH
	DB	0f8H
	DB	00H
	DB	0f8H
	DB	0fcH
	DB	0f8H
	DB	00H
	DB	0f8H
	DB	0fcH
	DB	0f8H
	DB	00H
	DB	0f8H
	DB	0fcH
	DB	0f8H
	DB	00H
	DB	0f8H
	DB	0fcH
	DB	0f8H
	DB	00H
	DB	0f8H
	DB	0fcH
	DB	0f8H
	DB	00H
	DB	0f8H
	DB	0fcH
	DB	0f8H
	DB	00H
	DB	0f8H
	DB	0fcH
	DB	0f8H
	DB	00H
	DB	0f8H
	DB	0fcH
	DB	0f8H
	DB	00H
	DB	0f8H
	DB	0fcH
	DB	0f8H
	DB	00H
	DB	0f8H
	DB	0fcH
	DB	0f8H
	DB	00H
	DB	0f8H
	DB	0fcH
	DB	0f8H
	DB	00H
	DB	0f8H
	DB	0fcH
	DB	0f8H
	DB	00H
	DB	0f8H
	DB	0fcH
	DB	0f8H
	DB	00H
	DB	0f8H
	DB	0fcH
	DB	0f8H
	DB	00H
	DB	0f8H
	DB	0fcH
	DB	0f8H
	DB	00H
	DB	0f8H
	DB	0fcH
	DB	0f8H
	DB	00H
	DB	0f8H
	DB	0fcH
	DB	0f8H
	DB	00H
	DB	0f8H
	DB	0fcH
	DB	0f8H
	DB	00H
	DB	0f8H
	DB	0fcH
	DB	0f8H
	DB	00H
	DB	0f8H
	DB	0fcH
	DB	0f8H
	DB	00H
	DB	0f8H
	DB	0fcH
	DB	0f8H
	DB	00H
	DB	0f8H
	DB	0fcH
	DB	0f8H
	DB	00H
	DB	0f8H
	DB	0fcH
	DB	0f8H
	DB	00H
	DB	0f8H
	DB	0fcH
	DB	0f8H
	DB	00H
	DB	0f8H
	DB	0fcH
	DB	0f8H
	DB	00H
	DB	0f8H
	DB	0fcH
	DB	0f8H
	DB	00H
	DB	0f8H
	DB	0fcH
	DB	0f8H
	DB	00H
	DB	0f8H
	DB	0fcH
	DB	0f8H
	DB	00H
	DB	0f8H
	DB	0fcH
	DB	0f8H
	DB	00H
	DB	0f8H
	DB	0fcH
	DB	0f8H
	DB	00H
	DB	0f8H
	DB	0fcH
	DB	0f8H
	DB	00H
	DB	0f8H
	DB	0fcH
	DB	0f8H
	DB	00H
	DB	0f8H
	DB	0fcH
	DB	0f8H
	DB	00H
	DB	0f8H
	DB	0fcH
	DB	0f8H
	DB	00H
	DB	0f8H
	DB	0fcH
	DB	0f8H
	DB	00H
	DB	0f8H
	DB	0fcH
	DB	0f8H
	DB	00H
	DB	0f8H
	DB	0fcH
	DB	0f8H
	DB	00H
	DB	0f8H
	DB	0fcH
	DB	0f8H
	DB	00H
	DB	0f8H
	DB	0fcH
	DB	0f8H
	DB	00H
	DB	0f8H
	DB	0fcH
	DB	0f8H
	DB	00H
	DB	0f8H
	DB	0fcH
	DB	0f8H
	DB	00H
	DB	0f8H
	DB	0fcH
	DB	0f8H
	DB	00H
	DB	0f8H
	DB	0fcH
	DB	0f8H
	DB	00H
	DB	0f8H
	DB	0fcH
	DB	0f8H
	DB	00H
	DB	0f8H
	DB	0fcH
	DB	0f8H
	DB	00H
	DB	0f8H
	DB	0fcH
	DB	0f8H
	DB	00H
	DB	0f8H
	DB	0fcH
	DB	0f8H
	DB	00H
	DB	0f8H
	DB	0fcH
	DB	0f8H
	DB	00H
	DB	0f8H
	DB	0fcH
	DB	0f8H
	DB	00H
	DB	0f8H
	DB	0fcH
	DB	0f8H
	DB	00H
	DB	0f8H
	DB	0fcH
	DB	0f8H
	DB	00H
	DB	0f8H
	DB	0fcH
	DB	0f8H
	DB	00H
	DB	0f8H
	DB	0fcH
	DB	0f8H
	DB	00H
	DB	0f8H
	DB	0fcH
	DB	0f8H
	DB	00H
	DB	0f8H
	DB	0fcH
	DB	0f8H
	DB	00H
	DB	0f8H
	DB	0fcH
	DB	0f8H
	DB	00H
	DB	0f8H
	DB	0fcH
	DB	0f8H
	DB	00H
	DB	0f8H
	DB	0fcH
	DB	0f8H
	DB	00H
	DB	0f8H
	DB	0fcH
	DB	0f8H
	DB	00H
	DB	0f8H
	DB	0fcH
	DB	0f8H
	DB	00H
	DB	0f8H
	DB	0fcH
	DB	0f8H
	DB	00H
	DB	0f8H
	DB	0fcH
	DB	0f8H
	DB	00H
	DB	0f8H
	DB	0fcH
	DB	0f8H
	DB	00H
	DB	0f8H
	DB	0fcH
	DB	0f8H
	DB	00H
	DB	0f8H
	DB	0fcH
	DB	0f8H
	DB	00H
	DB	0f8H
	DB	0fcH
	DB	0f8H
	DB	00H
	DB	0f8H
	DB	0fcH
	DB	0f8H
	DB	00H
	DB	0f8H
	DB	0fcH
	DB	0f8H
	DB	00H
	DB	0f8H
	DB	0fcH
	DB	0f8H
	DB	00H
	DB	0f8H
	DB	0fcH
	DB	0f8H
	DB	00H
	DB	0f8H
	DB	0fcH
	DB	0f8H
	DB	00H
	DB	0f8H
	DB	0fcH
	DB	0f8H
	DB	00H
	DB	0f8H
	DB	0fcH
	DB	0f8H
	DB	00H
	DB	0f8H
	DB	0fcH
	DB	0f8H
	DB	00H
	DB	0f8H
	DB	0fcH
	DB	0f8H
	DB	00H
	DB	0f8H
	DB	0fcH
	DB	0f8H
	DB	00H
	DB	0f8H
	DB	0fcH
	DB	0f8H
	DB	00H
	DB	0f8H
	DB	0fcH
	DB	0f8H
	DB	00H
	DB	0f8H
	DB	0fcH
	DB	0f8H
	DB	00H
	DB	0f8H
	DB	0fcH
	DB	0f8H
	DB	00H
	DB	0f8H
	DB	0fcH
	DB	0f8H
	DB	00H
	DB	0f8H
	DB	0fcH
	DB	0f8H
	DB	00H
	DB	0f8H
	DB	0fcH
	DB	0f8H
	DB	00H
	DB	0f8H
	DB	0fcH
	DB	0f8H
	DB	00H
	DB	0f8H
	DB	0fcH
	DB	0f8H
	DB	00H
	DB	0f8H
	DB	0fcH
	DB	0f8H
	DB	00H
	DB	0f8H
	DB	0fcH
	DB	0f8H
	DB	00H
	DB	0f8H
	DB	0fcH
	DB	0f8H
	DB	00H
	DB	0f8H
	DB	0fcH
	DB	0f8H
	DB	00H
	DB	0f8H
	DB	0fcH
	DB	0f8H
	DB	00H
	DB	0f8H
	DB	0fcH
	DB	0f8H
	DB	00H
	DB	0f8H
	DB	0fcH
	DB	0f8H
	DB	00H
	DB	0f8H
	DB	0fcH
	DB	0f8H
	DB	00H
	DB	0f8H
	DB	0fcH
	DB	0f8H
	DB	00H
	DB	0f8H
	DB	0fcH
	DB	0f8H
	DB	00H
	DB	0f8H
	DB	0fcH
	DB	0f8H
	DB	00H
	DB	0f8H
	DB	0fcH
	DB	0f8H
	DB	00H
	DB	0f8H
	DB	0fcH
	DB	0f8H
	DB	00H
	DB	0f8H
	DB	0fcH
	DB	0f8H
	DB	00H
	DB	0f8H
	DB	0fcH
	DB	0f8H
	DB	00H
	DB	0f8H
	DB	0fcH
	DB	0f8H
	DB	00H
	DB	0f8H
	DB	0fcH
	DB	0f8H
	DB	00H
	DB	0f8H
	DB	0fcH
	DB	0f8H
	DB	00H
	DB	0f8H
	DB	0fcH
	DB	0f8H
	DB	00H
	DB	0f8H
	DB	0fcH
	DB	0f8H
	DB	00H
	DB	0f8H
	DB	0fcH
	DB	0f8H
	DB	00H
	DB	0f8H
	DB	0fcH
	DB	0f8H
	DB	00H
	DB	0f8H
	DB	0fcH
	DB	0f8H
	DB	00H
	DB	0f8H
	DB	0fcH
	DB	0f8H
	DB	00H
	DB	0f8H
	DB	0fcH
	DB	0f8H
	DB	00H
	DB	0f8H
	DB	0fcH
	DB	0f8H
	DB	00H
	DB	0f8H
	DB	0fcH
	DB	0f8H
	DB	00H
	DB	0f8H
	DB	0fcH
	DB	0f8H
	DB	00H
	DB	0f8H
	DB	0fcH
	DB	0f8H
	DB	00H
	DB	0f8H
	DB	0fcH
	DB	0f8H
	DB	00H
	DB	0f8H
	DB	0fcH
	DB	0f8H
	DB	00H
	DB	0f8H
	DB	0fcH
	DB	0f8H
	DB	00H
	DB	0f8H
	DB	0fcH
	DB	0f8H
	DB	00H
	DB	0f8H
	DB	0fcH
	DB	0f8H
	DB	00H
	DB	0f8H
	DB	0fcH
	DB	0f8H
	DB	00H
	DB	0f8H
	DB	0fcH
	DB	0f8H
	DB	00H
	DB	0f8H
	DB	0fcH
	DB	0f8H
	DB	00H
	DB	0f8H
	DB	0fcH
	DB	0f8H
	DB	00H
	DB	0f8H
	DB	0fcH
	DB	0f8H
	DB	00H
	DB	0f8H
	DB	0fcH
	DB	0f8H
	DB	00H
	DB	0f8H
	DB	0fcH
	DB	0f8H
	DB	00H
	DB	0f8H
	DB	0fcH
	DB	0f8H
	DB	00H
	DB	0f8H
	DB	0fcH
	DB	0f8H
	DB	00H
	DB	0f8H
	DB	0fcH
	DB	0f8H
	DB	00H
	DB	0f8H
	DB	0fcH
	DB	0f8H
	DB	00H
	DB	0f8H
	DB	0fcH
	DB	0f8H
	DB	00H
	DB	0f8H
	DB	0fcH
	DB	0f8H
	DB	00H
	DB	0f8H
	DB	0fcH
	DB	0f8H
	DB	00H
	DB	0f8H
	DB	0fcH
	DB	0f8H
	DB	00H
	DB	0f8H
	DB	0fcH
	DB	0f8H
	DB	00H
	DB	0f8H
	DB	0fcH
	DB	0f8H
	DB	00H
	DB	0f8H
	DB	0fcH
	DB	0f8H
	DB	00H
	DB	0f8H
	DB	0fcH
	DB	0f8H
	DB	00H
	DB	0f8H
	DB	0fcH
	DB	0f8H
	DB	00H
	DB	0f8H
	DB	0fcH
	DB	0f8H
	DB	00H
	DB	0f8H
	DB	0fcH
	DB	0f8H
	DB	00H
	DB	0f8H
	DB	0fcH
	DB	0f8H
	DB	00H
	DB	0f8H
	DB	0fcH
	DB	0f8H
	DB	00H
	DB	0f8H
	DB	0fcH
	DB	0f8H
	DB	00H
	DB	0f8H
	DB	0fcH
	DB	0f8H
	DB	00H
	DB	0f8H
	DB	0fcH
	DB	0f8H
	DB	00H
	DB	0f8H
	DB	0fcH
	DB	0f8H
	DB	00H
	DB	0f8H
	DB	0fcH
	DB	0f8H
	DB	00H
	DB	0f8H
	DB	0fcH
	DB	0f8H
	DB	00H
	DB	0f8H
	DB	0fcH
	DB	0f8H
	DB	00H
	DB	0f8H
	DB	0fcH
	DB	0f8H
	DB	00H
	DB	0f8H
	DB	0fcH
	DB	0f8H
	DB	00H
	DB	0f8H
	DB	0fcH
	DB	0f8H
	DB	00H
	DB	0f8H
	DB	0fcH
	DB	0f8H
	DB	00H
	DB	0f8H
	DB	0fcH
	DB	0f8H
	DB	00H
	DB	0f8H
	DB	0fcH
	DB	0f8H
	DB	00H
	DB	0f8H
	DB	0fcH
	DB	0f8H
	DB	00H
	DB	0f8H
	DB	0fcH
	DB	0f8H
	DB	00H
	DB	0f8H
	DB	0fcH
	DB	0f8H
	DB	00H
	DB	0f8H
	DB	0fcH
	DB	0f8H
	DB	00H
	DB	0f8H
	DB	0fcH
	DB	0f8H
	DB	00H
	DB	0f8H
	DB	0fcH
	DB	0f8H
	DB	00H
	DB	0f8H
	DB	0fcH
	DB	0f8H
	DB	00H
	DB	0f8H
	DB	0fcH
	DB	0f8H
	DB	00H
	DB	0f8H
	DB	0fcH
	DB	0f8H
	DB	00H
	DB	0f8H
	DB	0fcH
	DB	0f8H
	DB	00H
	DB	0f8H
	DB	0fcH
	DB	0f8H
	DB	00H
	DB	0f8H
	DB	0fcH
	DB	0f8H
	DB	00H
	DB	0f8H
	DB	0fcH
	DB	0f8H
	DB	00H
	DB	0f8H
	DB	0fcH
	DB	0f8H
	DB	00H
	DB	0f8H
	DB	0fcH
	DB	0f8H
	DB	00H
	DB	0f8H
	DB	0fcH
	DB	0f8H
	DB	00H
	DB	0f8H
	DB	0fcH
	DB	0f8H
	DB	00H
	DB	0f8H
	DB	0fcH
	DB	0f8H
	DB	00H
	DB	0f8H
	DB	0fcH
	DB	0f8H
	DB	00H
	DB	0f8H
	DB	0fcH
	DB	0f8H
	DB	00H
	DB	0f8H
	DB	0fcH
	DB	0f8H
	DB	00H
	DB	0f8H
	DB	0fcH
	DB	0f8H
	DB	00H
	DB	0f8H
	DB	0fcH
	DB	0f8H
	DB	00H
	DB	0f8H
	DB	0fcH
	DB	0f8H
	DB	00H
	DB	0f8H
	DB	0fcH
	DB	0f8H
	DB	00H
	DB	0f8H
	DB	0fcH
	DB	0f8H
	DB	00H
	DB	0f8H
	DB	0fcH
	DB	0f8H
	DB	00H
	DB	0f8H
	DB	0fcH
	DB	0f8H
	DB	00H
	DB	0f8H
	DB	0fcH
	DB	0f8H
	DB	00H
	DB	0f8H
	DB	0fcH
	DB	0f8H
	DB	00H
	DB	0f8H
	DB	0fcH
	DB	0f8H
	DB	00H
	DB	0f8H
	DB	0fcH
	DB	0f8H
	DB	00H
	DB	0f8H
	DB	0fcH
	DB	0f8H
	DB	00H
	DB	0f8H
	DB	0fcH
	DB	0f8H
	DB	00H
	DB	0f8H
	DB	0fcH
	DB	0f8H
	DB	00H
	DB	0f8H
	DB	0fcH
	DB	0f8H
	DB	00H
	DB	0f8H
	DB	0fcH
	DB	0f8H
	DB	00H
	DB	0f8H
	DB	0fcH
	DB	0f8H
	DB	00H
	DB	0f8H
	DB	0fcH
	DB	0f8H
	DB	00H
	DB	0f8H
	DB	0fcH
	DB	0f8H
	DB	00H
	DB	0f8H
	DB	0fcH
	DB	0f8H
	DB	00H
	DB	0f8H
	DB	0fcH
	DB	0f8H
	DB	00H
	DB	0f8H
	DB	0fcH
	DB	0f8H
	DB	00H
	DB	0f0H
	DB	0dcH
	DB	0b8H
	DB	04H
	DB	0f0H
	DB	0dcH
	DB	0b8H
	DB	020H
	DB	0e8H
	DB	0dcH
	DB	0b8H
	DB	03cH
	DB	0f0H
	DB	0dcH
	DB	0b8H
	DB	051H
	DB	0e8H
	DB	0dcH
	DB	0b8H
	DB	065H
	DB	0e8H
	DB	0dcH
	DB	0b8H
	DB	075H
	DB	0e8H
	DB	0dcH
	DB	0b8H
	DB	086H
	DB	0e8H
	DB	0d8H
	DB	0b8H
	DB	096H
	DB	0e8H
	DB	0d8H
	DB	0b8H
	DB	0a2H
	DB	0e8H
	DB	0d8H
	DB	0b8H
	DB	0aaH
	DB	0e8H
	DB	0d8H
	DB	0b8H
	DB	0b6H
	DB	0e8H
	DB	0d8H
	DB	0b0H
	DB	0c3H
	DB	0e8H
	DB	0d8H
	DB	0b8H
	DB	0c3H
	DB	0e8H
	DB	0d8H
	DB	0b8H
	DB	0cfH
	DB	0e8H
	DB	0d8H
	DB	0b0H
	DB	0cfH
	DB	0e8H
	DB	0d8H
	DB	0b0H
	DB	0d3H
	DB	0e8H
	DB	0d8H
	DB	0b0H
	DB	0dfH
	DB	0e8H
	DB	0d8H
	DB	0b8H
	DB	0dfH
	DB	0e8H
	DB	0d8H
	DB	0b8H
	DB	0dfH
	DB	0e8H
	DB	0dcH
	DB	0b8H
	DB	0dfH
	DB	0f0H
	DB	0dcH
	DB	0b8H
	DB	0dbH
	DB	0f0H
	DB	0dcH
	DB	0c0H
	DB	0cfH
	DB	0f0H
	DB	0e0H
	DB	0c0H
	DB	0cfH
	DB	0f0H
	DB	0e0H
	DB	0c0H
	DB	0d3H
	DB	0f0H
	DB	0e4H
	DB	0c0H
	DB	0c3H
	DB	0f8H
	DB	0e4H
	DB	0c8H
	DB	0c3H
	DB	0f8H
	DB	0e4H
	DB	0c8H
	DB	0c3H
	DB	0f8H
	DB	0e8H
	DB	0c8H
	DB	0baH
	DB	0f8H
	DB	0e8H
	DB	0d0H
	DB	0b2H
	DB	0f8H
	DB	0ecH
	DB	0d0H
	DB	0b2H
	DB	0f8H
	DB	0ecH
	DB	0d0H
	DB	0aeH
	DB	0f8H
	DB	0ecH
	DB	0d0H
	DB	0a2H
	DB	0f8H
	DB	0ecH
	DB	0d0H
	DB	096H
	DB	0f8H
	DB	0ecH
	DB	0d0H
	DB	08eH
	DB	0f8H
	DB	0ecH
	DB	0d0H
	DB	082H
	DB	0f8H
	DB	0ecH
	DB	0d0H
	DB	075H
	DB	0f8H
	DB	0ecH
	DB	0d0H
	DB	06dH
	DB	0f8H
	DB	0ecH
	DB	0d0H
	DB	061H
	DB	0f8H
	DB	0ecH
	DB	0d0H
	DB	059H
	DB	0f8H
	DB	0ecH
	DB	0d0H
	DB	049H
	DB	0f8H
	DB	0ecH
	DB	0d0H
	DB	041H
	DB	0f8H
	DB	0ecH
	DB	0d0H
	DB	034H
	DB	0f8H
	DB	0ecH
	DB	0d0H
	DB	02cH
	DB	0f8H
	DB	0ecH
	DB	0d0H
	DB	01cH
	DB	0f8H
	DB	0ecH
	DB	0d0H
	DB	0cH
	DB	0f8H
	DB	0fcH
	DB	0f8H
	DB	00H
	DB	0f8H
	DB	0fcH
	DB	0f8H
	DB	00H
	DB	0f8H
	DB	0fcH
	DB	0f8H
	DB	00H
	DB	0f8H
	DB	0fcH
	DB	0f8H
	DB	00H
	DB	0f8H
	DB	0fcH
	DB	0f8H
	DB	00H
	DB	0f8H
	DB	0fcH
	DB	0f8H
	DB	00H
	DB	0f8H
	DB	0fcH
	DB	0f8H
	DB	00H
	DB	0f8H
	DB	0fcH
	DB	0f8H
	DB	00H
	DB	0f8H
	DB	0fcH
	DB	0f8H
	DB	00H
	DB	0f8H
	DB	0fcH
	DB	0f8H
	DB	00H
	DB	0f8H
	DB	0fcH
	DB	0f8H
	DB	00H
	DB	0f8H
	DB	0fcH
	DB	0f8H
	DB	00H
	DB	0f8H
	DB	0fcH
	DB	0f8H
	DB	00H
	DB	0f8H
	DB	0fcH
	DB	0f8H
	DB	00H
	DB	0f8H
	DB	0fcH
	DB	0f8H
	DB	00H
	DB	0f8H
	DB	0fcH
	DB	0f8H
	DB	00H
	DB	0f8H
	DB	0fcH
	DB	0f8H
	DB	00H
	DB	0f8H
	DB	0fcH
	DB	0f8H
	DB	00H
	DB	0f8H
	DB	0fcH
	DB	0f8H
	DB	00H
	DB	0f8H
	DB	0fcH
	DB	0f8H
	DB	00H
	DB	0f8H
	DB	0fcH
	DB	0f8H
	DB	00H
	DB	0f8H
	DB	0fcH
	DB	0f8H
	DB	00H
	DB	0f8H
	DB	0fcH
	DB	0f8H
	DB	00H
	DB	0f8H
	DB	0fcH
	DB	0f8H
	DB	00H
	DB	0f8H
	DB	0fcH
	DB	0f8H
	DB	00H
	DB	0f8H
	DB	0fcH
	DB	0f8H
	DB	00H
	DB	0f8H
	DB	0fcH
	DB	0f8H
	DB	00H
	DB	0f8H
	DB	0fcH
	DB	0f8H
	DB	00H
	DB	0f8H
	DB	0fcH
	DB	0f8H
	DB	00H
	DB	0f8H
	DB	0fcH
	DB	0f8H
	DB	00H
	DB	0f8H
	DB	0fcH
	DB	0f8H
	DB	00H
	DB	0f8H
	DB	0fcH
	DB	0f8H
	DB	00H
	DB	0f8H
	DB	0fcH
	DB	0f8H
	DB	00H
	DB	0f8H
	DB	0fcH
	DB	0f8H
	DB	00H
	DB	0f8H
	DB	0fcH
	DB	0f8H
	DB	00H
	DB	0f8H
	DB	0fcH
	DB	0f8H
	DB	00H
	DB	0f8H
	DB	0fcH
	DB	0f8H
	DB	00H
	DB	0f8H
	DB	0fcH
	DB	0f8H
	DB	00H
	DB	0f8H
	DB	0fcH
	DB	0f8H
	DB	00H
	DB	0f8H
	DB	0fcH
	DB	0f8H
	DB	00H
	DB	0f8H
	DB	0fcH
	DB	0f8H
	DB	00H
	DB	0f8H
	DB	0fcH
	DB	0f8H
	DB	00H
	DB	0f8H
	DB	0fcH
	DB	0f8H
	DB	00H
	DB	0f8H
	DB	0fcH
	DB	0f8H
	DB	00H
	DB	0f8H
	DB	0fcH
	DB	0f8H
	DB	00H
	DB	0f8H
	DB	0fcH
	DB	0f8H
	DB	00H
	DB	0f8H
	DB	0fcH
	DB	0f8H
	DB	00H
	DB	0f8H
	DB	0fcH
	DB	0f8H
	DB	00H
	DB	0f8H
	DB	0fcH
	DB	0f8H
	DB	00H
	DB	0f8H
	DB	0fcH
	DB	0f8H
	DB	00H
	DB	0f8H
	DB	0fcH
	DB	0f8H
	DB	00H
	DB	0f8H
	DB	0fcH
	DB	0f8H
	DB	00H
	DB	0f8H
	DB	0fcH
	DB	0f8H
	DB	00H
	DB	0f8H
	DB	0fcH
	DB	0f8H
	DB	00H
	DB	0f8H
	DB	0fcH
	DB	0f8H
	DB	00H
	DB	0f8H
	DB	0fcH
	DB	0f8H
	DB	00H
	DB	0f8H
	DB	0fcH
	DB	0f8H
	DB	00H
	DB	0f8H
	DB	0fcH
	DB	0f8H
	DB	00H
	DB	0f8H
	DB	0fcH
	DB	0f8H
	DB	00H
	DB	0f8H
	DB	0fcH
	DB	0f8H
	DB	00H
	DB	0f8H
	DB	0fcH
	DB	0f8H
	DB	00H
	DB	0f8H
	DB	0fcH
	DB	0f8H
	DB	00H
	DB	0f8H
	DB	0fcH
	DB	0f8H
	DB	00H
	DB	0f8H
	DB	0fcH
	DB	0f8H
	DB	00H
	DB	0f8H
	DB	0fcH
	DB	0f8H
	DB	00H
	DB	0f8H
	DB	0fcH
	DB	0f8H
	DB	00H
	DB	0f8H
	DB	0fcH
	DB	0f8H
	DB	00H
	DB	0f8H
	DB	0fcH
	DB	0f8H
	DB	00H
	DB	0f8H
	DB	0fcH
	DB	0f8H
	DB	00H
	DB	0f8H
	DB	0fcH
	DB	0f8H
	DB	00H
	DB	0f8H
	DB	0fcH
	DB	0f8H
	DB	00H
	DB	0f8H
	DB	0fcH
	DB	0f8H
	DB	00H
	DB	0f8H
	DB	0fcH
	DB	0f8H
	DB	00H
	DB	0f8H
	DB	0fcH
	DB	0f8H
	DB	00H
	DB	0f8H
	DB	0fcH
	DB	0f8H
	DB	00H
	DB	0f8H
	DB	0fcH
	DB	0f8H
	DB	00H
	DB	0f8H
	DB	0fcH
	DB	0f8H
	DB	00H
	DB	0f8H
	DB	0fcH
	DB	0f8H
	DB	00H
	DB	0f8H
	DB	0fcH
	DB	0f8H
	DB	00H
	DB	0f8H
	DB	0fcH
	DB	0f8H
	DB	00H
	DB	0f8H
	DB	0fcH
	DB	0f8H
	DB	00H
	DB	0f8H
	DB	0fcH
	DB	0f8H
	DB	00H
	DB	0f8H
	DB	0fcH
	DB	0f8H
	DB	00H
	DB	0f8H
	DB	0fcH
	DB	0f8H
	DB	00H
	DB	0f8H
	DB	0fcH
	DB	0f8H
	DB	00H
	DB	0f8H
	DB	0fcH
	DB	0f8H
	DB	00H
	DB	0f8H
	DB	0fcH
	DB	0f8H
	DB	00H
	DB	0f8H
	DB	0fcH
	DB	0f8H
	DB	00H
	DB	0f8H
	DB	0fcH
	DB	0f8H
	DB	00H
	DB	0f8H
	DB	0fcH
	DB	0f8H
	DB	00H
	DB	0f8H
	DB	0fcH
	DB	0f8H
	DB	00H
	DB	0f8H
	DB	0fcH
	DB	0f8H
	DB	00H
	DB	0f8H
	DB	0fcH
	DB	0f8H
	DB	00H
	DB	0f8H
	DB	0fcH
	DB	0f8H
	DB	00H
	DB	0f8H
	DB	0fcH
	DB	0f8H
	DB	00H
	DB	0f8H
	DB	0fcH
	DB	0f8H
	DB	00H
	DB	0f8H
	DB	0fcH
	DB	0f8H
	DB	00H
	DB	0f8H
	DB	0fcH
	DB	0f8H
	DB	00H
	DB	0f8H
	DB	0fcH
	DB	0f8H
	DB	00H
	DB	0f8H
	DB	0fcH
	DB	0f8H
	DB	00H
	DB	0f8H
	DB	0fcH
	DB	0f8H
	DB	00H
	DB	0f8H
	DB	0fcH
	DB	0f8H
	DB	00H
	DB	0f8H
	DB	0fcH
	DB	0f8H
	DB	00H
	DB	0f8H
	DB	0fcH
	DB	0f8H
	DB	00H
	DB	0f8H
	DB	0fcH
	DB	0f8H
	DB	00H
	DB	0f8H
	DB	0fcH
	DB	0f8H
	DB	00H
	DB	0f8H
	DB	0fcH
	DB	0f8H
	DB	00H
	DB	0f8H
	DB	0fcH
	DB	0f8H
	DB	00H
	DB	0f8H
	DB	0fcH
	DB	0f8H
	DB	00H
	DB	0f8H
	DB	0fcH
	DB	0f8H
	DB	00H
	DB	0f8H
	DB	0fcH
	DB	0f8H
	DB	00H
	DB	0f8H
	DB	0fcH
	DB	0f8H
	DB	00H
	DB	0f8H
	DB	0fcH
	DB	0f8H
	DB	00H
	DB	0f8H
	DB	0fcH
	DB	0f8H
	DB	00H
	DB	0f8H
	DB	0fcH
	DB	0f8H
	DB	00H
	DB	0f8H
	DB	0fcH
	DB	0f8H
	DB	00H
	DB	0f0H
	DB	0dcH
	DB	0b8H
	DB	045H
	DB	0f0H
	DB	0dcH
	DB	0c0H
	DB	092H
	DB	0f0H
	DB	0dcH
	DB	0b8H
	DB	0beH
	DB	0e8H
	DB	0dcH
	DB	0b8H
	DB	0dfH
	DB	0f0H
	DB	0dcH
	DB	0b8H
	DB	0dfH
	DB	0f0H
	DB	0dcH
	DB	0b8H
	DB	0dfH
	DB	0e8H
	DB	0dcH
	DB	0b8H
	DB	0dfH
	DB	0f0H
	DB	0dcH
	DB	0b8H
	DB	0dfH
	DB	0f0H
	DB	0d8H
	DB	0b8H
	DB	0dfH
	DB	0e8H
	DB	0d8H
	DB	0b8H
	DB	0dfH
	DB	0e8H
	DB	0dcH
	DB	0b8H
	DB	0dfH
	DB	0f0H
	DB	0d8H
	DB	0b0H
	DB	0dfH
	DB	0e8H
	DB	0d8H
	DB	0b8H
	DB	0dfH
	DB	0e8H
	DB	0d8H
	DB	0b0H
	DB	0dfH
	DB	0e8H
	DB	0d8H
	DB	0b0H
	DB	0dfH
	DB	0e8H
	DB	0d8H
	DB	0b8H
	DB	0dfH
	DB	0e8H
	DB	0d8H
	DB	0b0H
	DB	0dfH
	DB	0e8H
	DB	0d8H
	DB	0b0H
	DB	0dfH
	DB	0e8H
	DB	0d8H
	DB	0b8H
	DB	0dfH
	DB	0e8H
	DB	0d8H
	DB	0b0H
	DB	0dfH
	DB	0e8H
	DB	0d8H
	DB	0b0H
	DB	0dfH
	DB	0e8H
	DB	0d8H
	DB	0b8H
	DB	0dfH
	DB	0f0H
	DB	0dcH
	DB	0b8H
	DB	0dfH
	DB	0f0H
	DB	0dcH
	DB	0b8H
	DB	0dfH
	DB	0f0H
	DB	0e0H
	DB	0c0H
	DB	0dfH
	DB	0f0H
	DB	0e0H
	DB	0c0H
	DB	0dfH
	DB	0f0H
	DB	0e0H
	DB	0c0H
	DB	0dfH
	DB	0f0H
	DB	0e4H
	DB	0c0H
	DB	0dfH
	DB	0f8H
	DB	0e4H
	DB	0c8H
	DB	0dfH
	DB	0f8H
	DB	0e8H
	DB	0c8H
	DB	0dfH
	DB	0f8H
	DB	0e8H
	DB	0c8H
	DB	0dfH
	DB	0f8H
	DB	0e8H
	DB	0d0H
	DB	0dfH
	DB	0f8H
	DB	0ecH
	DB	0d0H
	DB	0dfH
	DB	0f8H
	DB	0ecH
	DB	0d0H
	DB	0dfH
	DB	0f8H
	DB	0ecH
	DB	0d0H
	DB	0dfH
	DB	0f8H
	DB	0ecH
	DB	0d0H
	DB	0dfH
	DB	0f8H
	DB	0ecH
	DB	0d0H
	DB	0dfH
	DB	0f8H
	DB	0ecH
	DB	0d0H
	DB	0dfH
	DB	0f8H
	DB	0ecH
	DB	0d0H
	DB	0dfH
	DB	0f8H
	DB	0ecH
	DB	0d0H
	DB	0dfH
	DB	0f8H
	DB	0ecH
	DB	0d0H
	DB	0dfH
	DB	0f8H
	DB	0ecH
	DB	0d0H
	DB	0dfH
	DB	0f8H
	DB	0ecH
	DB	0d0H
	DB	0dfH
	DB	0f8H
	DB	0ecH
	DB	0d0H
	DB	0dfH
	DB	0f8H
	DB	0ecH
	DB	0d0H
	DB	0dfH
	DB	0f8H
	DB	0ecH
	DB	0d0H
	DB	0dfH
	DB	0f8H
	DB	0e8H
	DB	0d0H
	DB	0dfH
	DB	0f8H
	DB	0ecH
	DB	0d0H
	DB	0dfH
	DB	0f8H
	DB	0ecH
	DB	0d0H
	DB	0dfH
	DB	0f8H
	DB	0ecH
	DB	0d0H
	DB	0cfH
	DB	0f8H
	DB	0e8H
	DB	0c8H
	DB	0beH
	DB	0f8H
	DB	0e8H
	DB	0d0H
	DB	0b2H
	DB	0f8H
	DB	0e8H
	DB	0c8H
	DB	0a2H
	DB	0f8H
	DB	0ecH
	DB	0c8H
	DB	092H
	DB	0f8H
	DB	0e8H
	DB	0d0H
	DB	082H
	DB	0f8H
	DB	0e8H
	DB	0c8H
	DB	071H
	DB	0f8H
	DB	0e8H
	DB	0c8H
	DB	061H
	DB	0f8H
	DB	0e8H
	DB	0c8H
	DB	051H
	DB	0f8H
	DB	0e8H
	DB	0c8H
	DB	045H
	DB	0f8H
	DB	0e8H
	DB	0c8H
	DB	034H
	DB	0f8H
	DB	0e8H
	DB	0c8H
	DB	024H
	DB	0f8H
	DB	0e8H
	DB	0c8H
	DB	010H
	DB	0f8H
	DB	0e8H
	DB	0c8H
	DB	00H
	DB	0f8H
	DB	0fcH
	DB	0f8H
	DB	00H
	DB	0f8H
	DB	0fcH
	DB	0f8H
	DB	00H
	DB	0f8H
	DB	0fcH
	DB	0f8H
	DB	00H
	DB	0f8H
	DB	0fcH
	DB	0f8H
	DB	00H
	DB	0f8H
	DB	0fcH
	DB	0f8H
	DB	00H
	DB	0f8H
	DB	0fcH
	DB	0f8H
	DB	00H
	DB	0f8H
	DB	0fcH
	DB	0f8H
	DB	00H
	DB	0f8H
	DB	0fcH
	DB	0f8H
	DB	00H
	DB	0f8H
	DB	0fcH
	DB	0f8H
	DB	00H
	DB	0f8H
	DB	0fcH
	DB	0f8H
	DB	00H
	DB	0f8H
	DB	0fcH
	DB	0f8H
	DB	00H
	DB	0f8H
	DB	0fcH
	DB	0f8H
	DB	00H
	DB	0f8H
	DB	0fcH
	DB	0f8H
	DB	00H
	DB	0f8H
	DB	0fcH
	DB	0f8H
	DB	00H
	DB	0f8H
	DB	0fcH
	DB	0f8H
	DB	00H
	DB	0f8H
	DB	0fcH
	DB	0f8H
	DB	00H
	DB	0f8H
	DB	0fcH
	DB	0f8H
	DB	00H
	DB	0f8H
	DB	0fcH
	DB	0f8H
	DB	00H
	DB	0f8H
	DB	0fcH
	DB	0f8H
	DB	00H
	DB	0f8H
	DB	0fcH
	DB	0f8H
	DB	00H
	DB	0f8H
	DB	0fcH
	DB	0f8H
	DB	00H
	DB	0f8H
	DB	0fcH
	DB	0f8H
	DB	00H
	DB	0f8H
	DB	0fcH
	DB	0f8H
	DB	00H
	DB	0f8H
	DB	0fcH
	DB	0f8H
	DB	00H
	DB	0f8H
	DB	0fcH
	DB	0f8H
	DB	00H
	DB	0f8H
	DB	0fcH
	DB	0f8H
	DB	00H
	DB	0f8H
	DB	0fcH
	DB	0f8H
	DB	00H
	DB	0f8H
	DB	0fcH
	DB	0f8H
	DB	00H
	DB	0f8H
	DB	0fcH
	DB	0f8H
	DB	00H
	DB	0f8H
	DB	0fcH
	DB	0f8H
	DB	00H
	DB	0f8H
	DB	0fcH
	DB	0f8H
	DB	00H
	DB	0f8H
	DB	0fcH
	DB	0f8H
	DB	00H
	DB	0f8H
	DB	0fcH
	DB	0f8H
	DB	00H
	DB	0f8H
	DB	0fcH
	DB	0f8H
	DB	00H
	DB	0f8H
	DB	0fcH
	DB	0f8H
	DB	00H
	DB	0f8H
	DB	0fcH
	DB	0f8H
	DB	00H
	DB	0f8H
	DB	0fcH
	DB	0f8H
	DB	00H
	DB	0f8H
	DB	0fcH
	DB	0f8H
	DB	00H
	DB	0f8H
	DB	0fcH
	DB	0f8H
	DB	00H
	DB	0f8H
	DB	0fcH
	DB	0f8H
	DB	00H
	DB	0f8H
	DB	0fcH
	DB	0f8H
	DB	00H
	DB	0f8H
	DB	0fcH
	DB	0f8H
	DB	00H
	DB	0f8H
	DB	0fcH
	DB	0f8H
	DB	00H
	DB	0f8H
	DB	0fcH
	DB	0f8H
	DB	00H
	DB	0f8H
	DB	0fcH
	DB	0f8H
	DB	00H
	DB	0f8H
	DB	0fcH
	DB	0f8H
	DB	00H
	DB	0f8H
	DB	0fcH
	DB	0f8H
	DB	00H
	DB	0f8H
	DB	0fcH
	DB	0f8H
	DB	00H
	DB	0f8H
	DB	0fcH
	DB	0f8H
	DB	00H
	DB	0f8H
	DB	0fcH
	DB	0f8H
	DB	00H
	DB	0f8H
	DB	0fcH
	DB	0f8H
	DB	00H
	DB	0f8H
	DB	0fcH
	DB	0f8H
	DB	00H
	DB	0f8H
	DB	0fcH
	DB	0f8H
	DB	00H
	DB	0f8H
	DB	0fcH
	DB	0f8H
	DB	00H
	DB	0f8H
	DB	0fcH
	DB	0f8H
	DB	00H
	DB	0f8H
	DB	0fcH
	DB	0f8H
	DB	00H
	DB	0f8H
	DB	0fcH
	DB	0f8H
	DB	00H
	DB	0f8H
	DB	0fcH
	DB	0f8H
	DB	00H
	DB	0f8H
	DB	0fcH
	DB	0f8H
	DB	00H
	DB	0f8H
	DB	0fcH
	DB	0f8H
	DB	00H
	DB	0f8H
	DB	0fcH
	DB	0f8H
	DB	00H
	DB	0f8H
	DB	0fcH
	DB	0f8H
	DB	00H
	DB	0f8H
	DB	0fcH
	DB	0f8H
	DB	00H
	DB	0f8H
	DB	0fcH
	DB	0f8H
	DB	00H
	DB	0f8H
	DB	0fcH
	DB	0f8H
	DB	00H
	DB	0f8H
	DB	0fcH
	DB	0f8H
	DB	00H
	DB	0f8H
	DB	0fcH
	DB	0f8H
	DB	00H
	DB	0f8H
	DB	0fcH
	DB	0f8H
	DB	00H
	DB	0f8H
	DB	0fcH
	DB	0f8H
	DB	00H
	DB	0f8H
	DB	0fcH
	DB	0f8H
	DB	00H
	DB	0f8H
	DB	0fcH
	DB	0f8H
	DB	00H
	DB	0f8H
	DB	0fcH
	DB	0f8H
	DB	00H
	DB	0f8H
	DB	0fcH
	DB	0f8H
	DB	00H
	DB	0f8H
	DB	0fcH
	DB	0f8H
	DB	00H
	DB	0f8H
	DB	0fcH
	DB	0f8H
	DB	00H
	DB	0f8H
	DB	0fcH
	DB	0f8H
	DB	00H
	DB	0f8H
	DB	0fcH
	DB	0f8H
	DB	00H
	DB	0f8H
	DB	0fcH
	DB	0f8H
	DB	00H
	DB	0f8H
	DB	0fcH
	DB	0f8H
	DB	00H
	DB	0f8H
	DB	0fcH
	DB	0f8H
	DB	00H
	DB	0f8H
	DB	0fcH
	DB	0f8H
	DB	00H
	DB	0f8H
	DB	0fcH
	DB	0f8H
	DB	00H
	DB	0f8H
	DB	0fcH
	DB	0f8H
	DB	00H
	DB	0f8H
	DB	0fcH
	DB	0f8H
	DB	00H
	DB	0f8H
	DB	0fcH
	DB	0f8H
	DB	00H
	DB	0f8H
	DB	0fcH
	DB	0f8H
	DB	00H
	DB	0f8H
	DB	0fcH
	DB	0f8H
	DB	00H
	DB	0f8H
	DB	0fcH
	DB	0f8H
	DB	00H
	DB	0f8H
	DB	0fcH
	DB	0f8H
	DB	00H
	DB	0f8H
	DB	0fcH
	DB	0f8H
	DB	00H
	DB	0f8H
	DB	0fcH
	DB	0f8H
	DB	00H
	DB	0f8H
	DB	0fcH
	DB	0f8H
	DB	00H
	DB	0f8H
	DB	0fcH
	DB	0f8H
	DB	00H
	DB	0f8H
	DB	0fcH
	DB	0f8H
	DB	00H
	DB	0f8H
	DB	0fcH
	DB	0f8H
	DB	00H
	DB	0f8H
	DB	0fcH
	DB	0f8H
	DB	00H
	DB	0f8H
	DB	0fcH
	DB	0f8H
	DB	00H
	DB	0f8H
	DB	0fcH
	DB	0f8H
	DB	00H
	DB	0f8H
	DB	0fcH
	DB	0f8H
	DB	00H
	DB	0f8H
	DB	0fcH
	DB	0f8H
	DB	00H
	DB	0f8H
	DB	0fcH
	DB	0f8H
	DB	00H
	DB	0f0H
	DB	0dcH
	DB	0b8H
	DB	034H
	DB	0f0H
	DB	0dcH
	DB	0b8H
	DB	07dH
	DB	0e8H
	DB	0dcH
	DB	0b8H
	DB	0a6H
	DB	0f0H
	DB	0dcH
	DB	0b8H
	DB	0cfH
	DB	0e8H
	DB	0dcH
	DB	0b8H
	DB	0dfH
	DB	0e8H
	DB	0dcH
	DB	0b8H
	DB	0dfH
	DB	0f0H
	DB	0d8H
	DB	0b8H
	DB	0dfH
	DB	0e8H
	DB	0d8H
	DB	0b8H
	DB	0dfH
	DB	0e8H
	DB	0dcH
	DB	0b8H
	DB	0dfH
	DB	0e8H
	DB	0d8H
	DB	0b8H
	DB	0dfH
	DB	0f0H
	DB	0d8H
	DB	0b0H
	DB	0dfH
	DB	0e8H
	DB	0dcH
	DB	0b0H
	DB	0dfH
	DB	0e8H
	DB	0d8H
	DB	0b0H
	DB	0dfH
	DB	0e8H
	DB	0d8H
	DB	0b8H
	DB	0dfH
	DB	0e8H
	DB	0d8H
	DB	0b0H
	DB	0dfH
	DB	0e8H
	DB	0d8H
	DB	0b0H
	DB	0dfH
	DB	0e8H
	DB	0d8H
	DB	0b0H
	DB	0e3H
	DB	0e8H
	DB	0d8H
	DB	0b0H
	DB	0dfH
	DB	0e8H
	DB	0d4H
	DB	0b0H
	DB	0dfH
	DB	0e8H
	DB	0d4H
	DB	0b0H
	DB	0e3H
	DB	0e8H
	DB	0d8H
	DB	0b0H
	DB	0dfH
	DB	0e8H
	DB	0d8H
	DB	0b8H
	DB	0dfH
	DB	0f0H
	DB	0dcH
	DB	0b8H
	DB	0e3H
	DB	0f0H
	DB	0dcH
	DB	0b8H
	DB	0dfH
	DB	0f0H
	DB	0e0H
	DB	0b8H
	DB	0e3H
	DB	0f0H
	DB	0e0H
	DB	0c0H
	DB	0dfH
	DB	0f0H
	DB	0e0H
	DB	0c0H
	DB	0dfH
	DB	0f8H
	DB	0e4H
	DB	0c0H
	DB	0dfH
	DB	0f8H
	DB	0e4H
	DB	0c8H
	DB	0dfH
	DB	0f8H
	DB	0e4H
	DB	0c8H
	DB	0dfH
	DB	0f8H
	DB	0e8H
	DB	0c8H
	DB	0dfH
	DB	0f8H
	DB	0e8H
	DB	0c8H
	DB	0e3H
	DB	0f8H
	DB	0ecH
	DB	0d0H
	DB	0dfH
	DB	0f8H
	DB	0ecH
	DB	0d0H
	DB	0e3H
	DB	0f8H
	DB	0ecH
	DB	0d0H
	DB	0e3H
	DB	0f8H
	DB	0f0H
	DB	0d0H
	DB	0dfH
	DB	0f8H
	DB	0ecH
	DB	0d0H
	DB	0dfH
	DB	0f8H
	DB	0ecH
	DB	0d0H
	DB	0e3H
	DB	0f8H
	DB	0ecH
	DB	0d0H
	DB	0dfH
	DB	0f8H
	DB	0ecH
	DB	0d0H
	DB	0dfH
	DB	0f8H
	DB	0ecH
	DB	0d0H
	DB	0dfH
	DB	0f8H
	DB	0ecH
	DB	0d0H
	DB	0dfH
	DB	0f8H
	DB	0ecH
	DB	0d0H
	DB	0dfH
	DB	0f8H
	DB	0ecH
	DB	0d0H
	DB	0dfH
	DB	0f8H
	DB	0ecH
	DB	0d0H
	DB	0dfH
	DB	0f8H
	DB	0e8H
	DB	0d0H
	DB	0e3H
	DB	0f8H
	DB	0ecH
	DB	0c8H
	DB	0dfH
	DB	0f8H
	DB	0ecH
	DB	0d0H
	DB	0dfH
	DB	0f8H
	DB	0e8H
	DB	0c8H
	DB	0dfH
	DB	0f8H
	DB	0e8H
	DB	0d0H
	DB	0dfH
	DB	0f8H
	DB	0ecH
	DB	0d0H
	DB	0dfH
	DB	0f8H
	DB	0ecH
	DB	0c8H
	DB	0dfH
	DB	0f8H
	DB	0e8H
	DB	0d0H
	DB	0dfH
	DB	0f8H
	DB	0e8H
	DB	0c8H
	DB	0dfH
	DB	0f8H
	DB	0e8H
	DB	0c8H
	DB	0dfH
	DB	0f8H
	DB	0e8H
	DB	0d0H
	DB	0dfH
	DB	0f8H
	DB	0e8H
	DB	0c8H
	DB	0dfH
	DB	0f8H
	DB	0e8H
	DB	0c8H
	DB	0dfH
	DB	0f8H
	DB	0e8H
	DB	0c8H
	DB	0dfH
	DB	0f8H
	DB	0e8H
	DB	0c8H
	DB	0dfH
	DB	0f8H
	DB	0e8H
	DB	0c8H
	DB	0dfH
	DB	0f8H
	DB	0e4H
	DB	0c8H
	DB	0dfH
	DB	0f8H
	DB	0e4H
	DB	0c8H
	DB	0dfH
	DB	0f8H
	DB	0e4H
	DB	0c8H
	DB	0cfH
	DB	0f8H
	DB	0e4H
	DB	0c8H
	DB	0baH
	DB	0f8H
	DB	0e4H
	DB	0c8H
	DB	0aaH
	DB	0f8H
	DB	0e4H
	DB	0c0H
	DB	09aH
	DB	0f0H
	DB	0e4H
	DB	0c8H
	DB	086H
	DB	0f8H
	DB	0e4H
	DB	0c0H
	DB	075H
	DB	0f0H
	DB	0e4H
	DB	0c0H
	DB	061H
	DB	0f0H
	DB	0e4H
	DB	0c0H
	DB	051H
	DB	0f8H
	DB	0e4H
	DB	0c0H
	DB	041H
	DB	0f0H
	DB	0e0H
	DB	0c0H
	DB	02cH
	DB	0f0H
	DB	0e0H
	DB	0c0H
	DB	018H
	DB	0f0H
	DB	0e0H
	DB	0c0H
	DB	08H
	DB	0f8H
	DB	0fcH
	DB	0f8H
	DB	00H
	DB	0f8H
	DB	0fcH
	DB	0f8H
	DB	00H
	DB	0f8H
	DB	0fcH
	DB	0f8H
	DB	00H
	DB	0f8H
	DB	0fcH
	DB	0f8H
	DB	00H
	DB	0f8H
	DB	0fcH
	DB	0f8H
	DB	00H
	DB	0f8H
	DB	0fcH
	DB	0f8H
	DB	00H
	DB	0f8H
	DB	0fcH
	DB	0f8H
	DB	00H
	DB	0f8H
	DB	0fcH
	DB	0f8H
	DB	00H
	DB	0f8H
	DB	0fcH
	DB	0f8H
	DB	00H
	DB	0f8H
	DB	0fcH
	DB	0f8H
	DB	00H
	DB	0f8H
	DB	0fcH
	DB	0f8H
	DB	00H
	DB	0f8H
	DB	0fcH
	DB	0f8H
	DB	00H
	DB	0f8H
	DB	0fcH
	DB	0f8H
	DB	00H
	DB	0f8H
	DB	0fcH
	DB	0f8H
	DB	00H
	DB	0f8H
	DB	0fcH
	DB	0f8H
	DB	00H
	DB	0f8H
	DB	0fcH
	DB	0f8H
	DB	00H
	DB	0f8H
	DB	0fcH
	DB	0f8H
	DB	00H
	DB	0f8H
	DB	0fcH
	DB	0f8H
	DB	00H
	DB	0f8H
	DB	0fcH
	DB	0f8H
	DB	00H
	DB	0f8H
	DB	0fcH
	DB	0f8H
	DB	00H
	DB	0f8H
	DB	0fcH
	DB	0f8H
	DB	00H
	DB	0f8H
	DB	0fcH
	DB	0f8H
	DB	00H
	DB	0f8H
	DB	0fcH
	DB	0f8H
	DB	00H
	DB	0f8H
	DB	0fcH
	DB	0f8H
	DB	00H
	DB	0f8H
	DB	0fcH
	DB	0f8H
	DB	00H
	DB	0f8H
	DB	0fcH
	DB	0f8H
	DB	00H
	DB	0f8H
	DB	0fcH
	DB	0f8H
	DB	00H
	DB	0f8H
	DB	0fcH
	DB	0f8H
	DB	00H
	DB	0f8H
	DB	0fcH
	DB	0f8H
	DB	00H
	DB	0f8H
	DB	0fcH
	DB	0f8H
	DB	00H
	DB	0f8H
	DB	0fcH
	DB	0f8H
	DB	00H
	DB	0f8H
	DB	0fcH
	DB	0f8H
	DB	00H
	DB	0f8H
	DB	0fcH
	DB	0f8H
	DB	00H
	DB	0f8H
	DB	0fcH
	DB	0f8H
	DB	00H
	DB	0f8H
	DB	0fcH
	DB	0f8H
	DB	00H
	DB	0f8H
	DB	0fcH
	DB	0f8H
	DB	00H
	DB	0f8H
	DB	0fcH
	DB	0f8H
	DB	00H
	DB	0f8H
	DB	0fcH
	DB	0f8H
	DB	00H
	DB	0f8H
	DB	0fcH
	DB	0f8H
	DB	00H
	DB	0f8H
	DB	0fcH
	DB	0f8H
	DB	00H
	DB	0f8H
	DB	0fcH
	DB	0f8H
	DB	00H
	DB	0f8H
	DB	0fcH
	DB	0f8H
	DB	00H
	DB	0f8H
	DB	0fcH
	DB	0f8H
	DB	00H
	DB	0f8H
	DB	0fcH
	DB	0f8H
	DB	00H
	DB	0f8H
	DB	0fcH
	DB	0f8H
	DB	00H
	DB	0f8H
	DB	0fcH
	DB	0f8H
	DB	00H
	DB	0f8H
	DB	0fcH
	DB	0f8H
	DB	00H
	DB	0f8H
	DB	0fcH
	DB	0f8H
	DB	00H
	DB	0f8H
	DB	0fcH
	DB	0f8H
	DB	00H
	DB	0f8H
	DB	0fcH
	DB	0f8H
	DB	00H
	DB	0f8H
	DB	0fcH
	DB	0f8H
	DB	00H
	DB	0f8H
	DB	0fcH
	DB	0f8H
	DB	00H
	DB	0f8H
	DB	0fcH
	DB	0f8H
	DB	00H
	DB	0f8H
	DB	0fcH
	DB	0f8H
	DB	00H
	DB	0f8H
	DB	0fcH
	DB	0f8H
	DB	00H
	DB	0f8H
	DB	0fcH
	DB	0f8H
	DB	00H
	DB	0f8H
	DB	0fcH
	DB	0f8H
	DB	00H
	DB	0f8H
	DB	0fcH
	DB	0f8H
	DB	00H
	DB	0f8H
	DB	0fcH
	DB	0f8H
	DB	00H
	DB	0f8H
	DB	0fcH
	DB	0f8H
	DB	00H
	DB	0f8H
	DB	0fcH
	DB	0f8H
	DB	00H
	DB	0f8H
	DB	0fcH
	DB	0f8H
	DB	00H
	DB	0f8H
	DB	0fcH
	DB	0f8H
	DB	00H
	DB	0f8H
	DB	0fcH
	DB	0f8H
	DB	00H
	DB	0f8H
	DB	0fcH
	DB	0f8H
	DB	00H
	DB	0f8H
	DB	0fcH
	DB	0f8H
	DB	00H
	DB	0f8H
	DB	0fcH
	DB	0f8H
	DB	00H
	DB	0f8H
	DB	0fcH
	DB	0f8H
	DB	00H
	DB	0f8H
	DB	0fcH
	DB	0f8H
	DB	00H
	DB	0f8H
	DB	0fcH
	DB	0f8H
	DB	00H
	DB	0f8H
	DB	0fcH
	DB	0f8H
	DB	00H
	DB	0f8H
	DB	0fcH
	DB	0f8H
	DB	00H
	DB	0f8H
	DB	0fcH
	DB	0f8H
	DB	00H
	DB	0f8H
	DB	0fcH
	DB	0f8H
	DB	00H
	DB	0f8H
	DB	0fcH
	DB	0f8H
	DB	00H
	DB	0f8H
	DB	0fcH
	DB	0f8H
	DB	00H
	DB	0f8H
	DB	0fcH
	DB	0f8H
	DB	00H
	DB	0f8H
	DB	0fcH
	DB	0f8H
	DB	00H
	DB	0f8H
	DB	0fcH
	DB	0f8H
	DB	00H
	DB	0f8H
	DB	0fcH
	DB	0f8H
	DB	00H
	DB	0f8H
	DB	0fcH
	DB	0f8H
	DB	00H
	DB	0f8H
	DB	0fcH
	DB	0f8H
	DB	00H
	DB	0f8H
	DB	0fcH
	DB	0f8H
	DB	00H
	DB	0f8H
	DB	0fcH
	DB	0f8H
	DB	00H
	DB	0f8H
	DB	0fcH
	DB	0f8H
	DB	00H
	DB	0f8H
	DB	0fcH
	DB	0f8H
	DB	00H
	DB	0f8H
	DB	0fcH
	DB	0f8H
	DB	00H
	DB	0f8H
	DB	0fcH
	DB	0f8H
	DB	00H
	DB	0f8H
	DB	0fcH
	DB	0f8H
	DB	00H
	DB	0f8H
	DB	0fcH
	DB	0f8H
	DB	00H
	DB	0f8H
	DB	0fcH
	DB	0f8H
	DB	00H
	DB	0f8H
	DB	0fcH
	DB	0f8H
	DB	00H
	DB	0f8H
	DB	0fcH
	DB	0f8H
	DB	00H
	DB	0e8H
	DB	0dcH
	DB	0b8H
	DB	010H
	DB	0e8H
	DB	0d8H
	DB	0b8H
	DB	02cH
	DB	0f0H
	DB	0dcH
	DB	0b8H
	DB	049H
	DB	0e8H
	DB	0d8H
	DB	0b8H
	DB	065H
	DB	0e8H
	DB	0d8H
	DB	0b0H
	DB	086H
	DB	0e8H
	DB	0d8H
	DB	0b8H
	DB	09eH
	DB	0e8H
	DB	0d8H
	DB	0b0H
	DB	0beH
	DB	0e8H
	DB	0d8H
	DB	0b0H
	DB	0dbH
	DB	0e8H
	DB	0d8H
	DB	0b0H
	DB	0dfH
	DB	0e8H
	DB	0d8H
	DB	0b0H
	DB	0e3H
	DB	0e8H
	DB	0d8H
	DB	0b0H
	DB	0dfH
	DB	0e8H
	DB	0d4H
	DB	0b0H
	DB	0dfH
	DB	0e8H
	DB	0d4H
	DB	0b0H
	DB	0dfH
	DB	0e8H
	DB	0d8H
	DB	0b0H
	DB	0e3H
	DB	0e8H
	DB	0d4H
	DB	0b0H
	DB	0dfH
	DB	0e8H
	DB	0d4H
	DB	0b0H
	DB	0dfH
	DB	0e8H
	DB	0d8H
	DB	0b0H
	DB	0e3H
	DB	0e8H
	DB	0d8H
	DB	0b8H
	DB	0dfH
	DB	0e8H
	DB	0d8H
	DB	0b8H
	DB	0dfH
	DB	0f0H
	DB	0dcH
	DB	0b8H
	DB	0dfH
	DB	0f0H
	DB	0dcH
	DB	0c0H
	DB	0dfH
	DB	0f0H
	DB	0e0H
	DB	0c0H
	DB	0e3H
	DB	0f0H
	DB	0e4H
	DB	0c0H
	DB	0dfH
	DB	0f8H
	DB	0e4H
	DB	0c0H
	DB	0e3H
	DB	0f8H
	DB	0e4H
	DB	0c8H
	DB	0dfH
	DB	0f8H
	DB	0e8H
	DB	0c8H
	DB	0dfH
	DB	0f8H
	DB	0e8H
	DB	0c8H
	DB	0e3H
	DB	0f8H
	DB	0e8H
	DB	0d0H
	DB	0dfH
	DB	0f8H
	DB	0ecH
	DB	0d0H
	DB	0dfH
	DB	0f8H
	DB	0ecH
	DB	0d0H
	DB	0dfH
	DB	0f8H
	DB	0ecH
	DB	0d0H
	DB	0dfH
	DB	0f8H
	DB	0ecH
	DB	0d0H
	DB	0dfH
	DB	0f8H
	DB	0ecH
	DB	0d0H
	DB	0e3H
	DB	0f8H
	DB	0ecH
	DB	0d0H
	DB	0dfH
	DB	0f8H
	DB	0ecH
	DB	0d0H
	DB	0dfH
	DB	0f8H
	DB	0ecH
	DB	0d0H
	DB	0e3H
	DB	0f8H
	DB	0ecH
	DB	0d0H
	DB	0e3H
	DB	0f8H
	DB	0ecH
	DB	0d0H
	DB	0dfH
	DB	0f8H
	DB	0ecH
	DB	0d0H
	DB	0e3H
	DB	0f8H
	DB	0ecH
	DB	0d0H
	DB	0dfH
	DB	0f8H
	DB	0e8H
	DB	0c8H
	DB	0dfH
	DB	0f8H
	DB	0ecH
	DB	0d0H
	DB	0e3H
	DB	0f8H
	DB	0ecH
	DB	0d0H
	DB	0dfH
	DB	0f8H
	DB	0ecH
	DB	0c8H
	DB	0dfH
	DB	0f8H
	DB	0e8H
	DB	0d0H
	DB	0e3H
	DB	0f8H
	DB	0e8H
	DB	0c8H
	DB	0dfH
	DB	0f8H
	DB	0ecH
	DB	0c8H
	DB	0dfH
	DB	0f8H
	DB	0ecH
	DB	0d0H
	DB	0dfH
	DB	0f8H
	DB	0e8H
	DB	0c8H
	DB	0dfH
	DB	0f8H
	DB	0e8H
	DB	0c8H
	DB	0dfH
	DB	0f8H
	DB	0e8H
	DB	0c8H
	DB	0dfH
	DB	0f8H
	DB	0e8H
	DB	0c8H
	DB	0e3H
	DB	0f8H
	DB	0e8H
	DB	0c8H
	DB	0dfH
	DB	0f8H
	DB	0e8H
	DB	0c8H
	DB	0e3H
	DB	0f8H
	DB	0e8H
	DB	0c8H
	DB	0dfH
	DB	0f8H
	DB	0e8H
	DB	0c8H
	DB	0e3H
	DB	0f8H
	DB	0e8H
	DB	0c8H
	DB	0dfH
	DB	0f8H
	DB	0e4H
	DB	0c8H
	DB	0dfH
	DB	0f8H
	DB	0e8H
	DB	0c8H
	DB	0e3H
	DB	0f8H
	DB	0e4H
	DB	0c8H
	DB	0dfH
	DB	0f0H
	DB	0e4H
	DB	0c0H
	DB	0dfH
	DB	0f8H
	DB	0e4H
	DB	0c8H
	DB	0dfH
	DB	0f8H
	DB	0e4H
	DB	0c0H
	DB	0dfH
	DB	0f8H
	DB	0e4H
	DB	0c0H
	DB	0dfH
	DB	0f8H
	DB	0e4H
	DB	0c8H
	DB	0dfH
	DB	0f0H
	DB	0e4H
	DB	0c0H
	DB	0dfH
	DB	0f8H
	DB	0e4H
	DB	0c0H
	DB	0dfH
	DB	0f0H
	DB	0e0H
	DB	0c0H
	DB	0dfH
	DB	0f0H
	DB	0e4H
	DB	0c0H
	DB	0dfH
	DB	0f8H
	DB	0e0H
	DB	0c0H
	DB	0dfH
	DB	0f0H
	DB	0e0H
	DB	0c0H
	DB	0dfH
	DB	0f0H
	DB	0e0H
	DB	0c0H
	DB	0d7H
	DB	0f0H
	DB	0e0H
	DB	0c0H
	DB	0c3H
	DB	0f0H
	DB	0e0H
	DB	0c0H
	DB	0aeH
	DB	0f0H
	DB	0e0H
	DB	0b8H
	DB	09aH
	DB	0f0H
	DB	0e0H
	DB	0b8H
	DB	086H
	DB	0f0H
	DB	0dcH
	DB	0c0H
	DB	071H
	DB	0f0H
	DB	0dcH
	DB	0b8H
	DB	061H
	DB	0f0H
	DB	0dcH
	DB	0b8H
	DB	04dH
	DB	0f0H
	DB	0dcH
	DB	0b8H
	DB	038H
	DB	0f0H
	DB	0dcH
	DB	0b8H
	DB	024H
	DB	0e8H
	DB	0dcH
	DB	0b8H
	DB	010H
	DB	0f8H
	DB	0fcH
	DB	0f8H
	DB	00H
	DB	0f8H
	DB	0fcH
	DB	0f8H
	DB	00H
	DB	0f8H
	DB	0fcH
	DB	0f8H
	DB	00H
	DB	0f8H
	DB	0fcH
	DB	0f8H
	DB	00H
	DB	0f8H
	DB	0fcH
	DB	0f8H
	DB	00H
	DB	0f8H
	DB	0fcH
	DB	0f8H
	DB	00H
	DB	0f8H
	DB	0fcH
	DB	0f8H
	DB	00H
	DB	0f8H
	DB	0fcH
	DB	0f8H
	DB	00H
	DB	0f8H
	DB	0fcH
	DB	0f8H
	DB	00H
	DB	0f8H
	DB	0fcH
	DB	0f8H
	DB	00H
	DB	0f8H
	DB	0fcH
	DB	0f8H
	DB	00H
	DB	0f8H
	DB	0fcH
	DB	0f8H
	DB	00H
	DB	0f8H
	DB	0fcH
	DB	0f8H
	DB	00H
	DB	0f8H
	DB	0fcH
	DB	0f8H
	DB	00H
	DB	0f8H
	DB	0fcH
	DB	0f8H
	DB	00H
	DB	0f8H
	DB	0fcH
	DB	0f8H
	DB	00H
	DB	0f8H
	DB	0fcH
	DB	0f8H
	DB	00H
	DB	0f8H
	DB	0fcH
	DB	0f8H
	DB	00H
	DB	0f8H
	DB	0fcH
	DB	0f8H
	DB	00H
	DB	0f8H
	DB	0fcH
	DB	0f8H
	DB	00H
	DB	0f8H
	DB	0fcH
	DB	0f8H
	DB	00H
	DB	0f8H
	DB	0fcH
	DB	0f8H
	DB	00H
	DB	0f8H
	DB	0fcH
	DB	0f8H
	DB	00H
	DB	0f8H
	DB	0fcH
	DB	0f8H
	DB	00H
	DB	0f8H
	DB	0fcH
	DB	0f8H
	DB	00H
	DB	0f8H
	DB	0fcH
	DB	0f8H
	DB	00H
	DB	0f8H
	DB	0fcH
	DB	0f8H
	DB	00H
	DB	0f8H
	DB	0fcH
	DB	0f8H
	DB	00H
	DB	0f8H
	DB	0fcH
	DB	0f8H
	DB	00H
	DB	0f8H
	DB	0fcH
	DB	0f8H
	DB	00H
	DB	0f8H
	DB	0fcH
	DB	0f8H
	DB	00H
	DB	0f8H
	DB	0fcH
	DB	0f8H
	DB	00H
	DB	0f8H
	DB	0fcH
	DB	0f8H
	DB	00H
	DB	0f8H
	DB	0fcH
	DB	0f8H
	DB	00H
	DB	0f8H
	DB	0fcH
	DB	0f8H
	DB	00H
	DB	0f8H
	DB	0fcH
	DB	0f8H
	DB	00H
	DB	0f8H
	DB	0fcH
	DB	0f8H
	DB	00H
	DB	0f8H
	DB	0fcH
	DB	0f8H
	DB	00H
	DB	0f8H
	DB	0fcH
	DB	0f8H
	DB	00H
	DB	0f8H
	DB	0fcH
	DB	0f8H
	DB	00H
	DB	0f8H
	DB	0fcH
	DB	0f8H
	DB	00H
	DB	0f8H
	DB	0fcH
	DB	0f8H
	DB	00H
	DB	0f8H
	DB	0fcH
	DB	0f8H
	DB	00H
	DB	0f8H
	DB	0fcH
	DB	0f8H
	DB	00H
	DB	0f8H
	DB	0fcH
	DB	0f8H
	DB	00H
	DB	0f8H
	DB	0fcH
	DB	0f8H
	DB	00H
	DB	0f8H
	DB	0fcH
	DB	0f8H
	DB	00H
	DB	0f8H
	DB	0fcH
	DB	0f8H
	DB	00H
	DB	0f8H
	DB	0fcH
	DB	0f8H
	DB	00H
	DB	0f8H
	DB	0fcH
	DB	0f8H
	DB	00H
	DB	0f8H
	DB	0fcH
	DB	0f8H
	DB	00H
	DB	0f8H
	DB	0fcH
	DB	0f8H
	DB	00H
	DB	0f8H
	DB	0fcH
	DB	0f8H
	DB	00H
	DB	0f8H
	DB	0fcH
	DB	0f8H
	DB	00H
	DB	0f8H
	DB	0fcH
	DB	0f8H
	DB	00H
	DB	0f8H
	DB	0fcH
	DB	0f8H
	DB	00H
	DB	0f8H
	DB	0fcH
	DB	0f8H
	DB	00H
	DB	0f8H
	DB	0fcH
	DB	0f8H
	DB	00H
	DB	0f8H
	DB	0fcH
	DB	0f8H
	DB	00H
	DB	0f8H
	DB	0fcH
	DB	0f8H
	DB	00H
	DB	0f8H
	DB	0fcH
	DB	0f8H
	DB	00H
	DB	0f8H
	DB	0fcH
	DB	0f8H
	DB	00H
	DB	0f8H
	DB	0fcH
	DB	0f8H
	DB	00H
	DB	0f8H
	DB	0fcH
	DB	0f8H
	DB	00H
	DB	0f8H
	DB	0fcH
	DB	0f8H
	DB	00H
	DB	0f8H
	DB	0fcH
	DB	0f8H
	DB	00H
	DB	0f8H
	DB	0fcH
	DB	0f8H
	DB	00H
	DB	0f8H
	DB	0fcH
	DB	0f8H
	DB	00H
	DB	0f8H
	DB	0fcH
	DB	0f8H
	DB	00H
	DB	0f8H
	DB	0fcH
	DB	0f8H
	DB	00H
	DB	0f8H
	DB	0fcH
	DB	0f8H
	DB	00H
	DB	0f8H
	DB	0fcH
	DB	0f8H
	DB	00H
	DB	0f8H
	DB	0fcH
	DB	0f8H
	DB	00H
	DB	0f8H
	DB	0fcH
	DB	0f8H
	DB	00H
	DB	0f8H
	DB	0fcH
	DB	0f8H
	DB	00H
	DB	0f8H
	DB	0fcH
	DB	0f8H
	DB	00H
	DB	0f8H
	DB	0fcH
	DB	0f8H
	DB	00H
	DB	0f8H
	DB	0fcH
	DB	0f8H
	DB	00H
	DB	0f8H
	DB	0fcH
	DB	0f8H
	DB	00H
	DB	0f8H
	DB	0fcH
	DB	0f8H
	DB	00H
	DB	0f8H
	DB	0fcH
	DB	0f8H
	DB	00H
	DB	0f8H
	DB	0fcH
	DB	0f8H
	DB	00H
	DB	0f8H
	DB	0fcH
	DB	0f8H
	DB	00H
	DB	0f8H
	DB	0fcH
	DB	0f8H
	DB	00H
	DB	0f8H
	DB	0fcH
	DB	0f8H
	DB	00H
	DB	0f8H
	DB	0fcH
	DB	0f8H
	DB	00H
	DB	0f8H
	DB	0fcH
	DB	0f8H
	DB	00H
	DB	0f8H
	DB	0fcH
	DB	0f8H
	DB	00H
	DB	0f8H
	DB	0fcH
	DB	0f8H
	DB	00H
	DB	0f8H
	DB	0fcH
	DB	0f8H
	DB	00H
	DB	0e8H
	DB	0d8H
	DB	0b0H
	DB	018H
	DB	0e8H
	DB	0d4H
	DB	0b0H
	DB	034H
	DB	0e8H
	DB	0d8H
	DB	0b0H
	DB	051H
	DB	0e8H
	DB	0d8H
	DB	0b0H
	DB	06dH
	DB	0e8H
	DB	0d4H
	DB	0b0H
	DB	08aH
	DB	0e8H
	DB	0d4H
	DB	0b0H
	DB	0a6H
	DB	0e8H
	DB	0d4H
	DB	0b0H
	DB	0c3H
	DB	0e8H
	DB	0d4H
	DB	0b0H
	DB	0dbH
	DB	0e8H
	DB	0d8H
	DB	0b0H
	DB	0dfH
	DB	0e8H
	DB	0d8H
	DB	0b0H
	DB	0e3H
	DB	0f0H
	DB	0dcH
	DB	0b8H
	DB	0dfH
	DB	0f0H
	DB	0dcH
	DB	0b8H
	DB	0dfH
	DB	0f0H
	DB	0e0H
	DB	0b8H
	DB	0dfH
	DB	0f0H
	DB	0e0H
	DB	0c0H
	DB	0dfH
	DB	0f0H
	DB	0e0H
	DB	0c0H
	DB	0dfH
	DB	0f8H
	DB	0e4H
	DB	0c0H
	DB	0dfH
	DB	0f8H
	DB	0e4H
	DB	0c8H
	DB	0e3H
	DB	0f8H
	DB	0e8H
	DB	0c8H
	DB	0dfH
	DB	0f8H
	DB	0e8H
	DB	0c8H
	DB	0dfH
	DB	0f8H
	DB	0e8H
	DB	0c8H
	DB	0dfH
	DB	0f8H
	DB	0ecH
	DB	0d0H
	DB	0dfH
	DB	0f8H
	DB	0ecH
	DB	0d0H
	DB	0e3H
	DB	0f8H
	DB	0ecH
	DB	0d0H
	DB	0dfH
	DB	0f8H
	DB	0ecH
	DB	0d0H
	DB	0dfH
	DB	0f8H
	DB	0ecH
	DB	0d0H
	DB	0dfH
	DB	0f8H
	DB	0ecH
	DB	0d0H
	DB	0dfH
	DB	0f8H
	DB	0ecH
	DB	0d0H
	DB	0dfH
	DB	0f8H
	DB	0ecH
	DB	0d0H
	DB	0dfH
	DB	0f8H
	DB	0ecH
	DB	0d0H
	DB	0dfH
	DB	0f8H
	DB	0ecH
	DB	0d0H
	DB	0dfH
	DB	0f8H
	DB	0ecH
	DB	0d0H
	DB	0e3H
	DB	0f8H
	DB	0e8H
	DB	0c8H
	DB	0dfH
	DB	0f8H
	DB	0ecH
	DB	0d0H
	DB	0dfH
	DB	0f8H
	DB	0ecH
	DB	0c8H
	DB	0dfH
	DB	0f8H
	DB	0ecH
	DB	0d0H
	DB	0dfH
	DB	0f8H
	DB	0e8H
	DB	0d0H
	DB	0e3H
	DB	0f8H
	DB	0ecH
	DB	0c8H
	DB	0dfH
	DB	0f8H
	DB	0ecH
	DB	0c8H
	DB	0dfH
	DB	0f8H
	DB	0e8H
	DB	0c8H
	DB	0e3H
	DB	0f8H
	DB	0e8H
	DB	0d0H
	DB	0dfH
	DB	0f8H
	DB	0e8H
	DB	0c8H
	DB	0e3H
	DB	0f8H
	DB	0ecH
	DB	0c8H
	DB	0dfH
	DB	0f8H
	DB	0e8H
	DB	0c8H
	DB	0dfH
	DB	0f8H
	DB	0e8H
	DB	0c8H
	DB	0dfH
	DB	0f8H
	DB	0e8H
	DB	0c8H
	DB	0e3H
	DB	0f8H
	DB	0e8H
	DB	0c8H
	DB	0dfH
	DB	0f8H
	DB	0e8H
	DB	0c8H
	DB	0dfH
	DB	0f8H
	DB	0e4H
	DB	0c8H
	DB	0dfH
	DB	0f8H
	DB	0e4H
	DB	0c8H
	DB	0e3H
	DB	0f8H
	DB	0e8H
	DB	0c8H
	DB	0dfH
	DB	0f8H
	DB	0e4H
	DB	0c0H
	DB	0dfH
	DB	0f8H
	DB	0e4H
	DB	0c8H
	DB	0dfH
	DB	0f8H
	DB	0e8H
	DB	0c0H
	DB	0dfH
	DB	0f0H
	DB	0e4H
	DB	0c0H
	DB	0e3H
	DB	0f0H
	DB	0e4H
	DB	0c8H
	DB	0dfH
	DB	0f8H
	DB	0e4H
	DB	0c0H
	DB	0dfH
	DB	0f0H
	DB	0e4H
	DB	0c0H
	DB	0dfH
	DB	0f8H
	DB	0e0H
	DB	0c0H
	DB	0dfH
	DB	0f8H
	DB	0e0H
	DB	0c0H
	DB	0dfH
	DB	0f0H
	DB	0e0H
	DB	0c0H
	DB	0dfH
	DB	0f0H
	DB	0e0H
	DB	0c0H
	DB	0dfH
	DB	0f0H
	DB	0e0H
	DB	0c0H
	DB	0dfH
	DB	0f8H
	DB	0e0H
	DB	0c0H
	DB	0dfH
	DB	0f0H
	DB	0e0H
	DB	0c0H
	DB	0dfH
	DB	0f0H
	DB	0e0H
	DB	0b8H
	DB	0dfH
	DB	0f0H
	DB	0e0H
	DB	0b8H
	DB	0dfH
	DB	0f0H
	DB	0dcH
	DB	0c0H
	DB	0dfH
	DB	0f0H
	DB	0dcH
	DB	0b8H
	DB	0dfH
	DB	0f0H
	DB	0dcH
	DB	0b8H
	DB	0dfH
	DB	0f0H
	DB	0dcH
	DB	0b8H
	DB	0dfH
	DB	0f0H
	DB	0dcH
	DB	0b8H
	DB	0dfH
	DB	0f0H
	DB	0dcH
	DB	0b8H
	DB	0dfH
	DB	0e8H
	DB	0dcH
	DB	0b8H
	DB	0dfH
	DB	0f0H
	DB	0dcH
	DB	0b8H
	DB	0dfH
	DB	0e8H
	DB	0dcH
	DB	0b8H
	DB	0dbH
	DB	0f0H
	DB	0d8H
	DB	0b8H
	DB	0cbH
	DB	0e8H
	DB	0d8H
	DB	0b8H
	DB	0b6H
	DB	0e8H
	DB	0dcH
	DB	0b0H
	DB	0a2H
	DB	0e8H
	DB	0d8H
	DB	0b0H
	DB	08eH
	DB	0e8H
	DB	0d8H
	DB	0b8H
	DB	07dH
	DB	0e8H
	DB	0d8H
	DB	0b0H
	DB	069H
	DB	0e8H
	DB	0d8H
	DB	0b0H
	DB	055H
	DB	0e8H
	DB	0d8H
	DB	0b0H
	DB	041H
	DB	0e8H
	DB	0d8H
	DB	0b0H
	DB	02cH
	DB	0e8H
	DB	0d8H
	DB	0b0H
	DB	018H
	DB	0e8H
	DB	0d8H
	DB	0b0H
	DB	04H
	DB	0f8H
	DB	0fcH
	DB	0f8H
	DB	00H
	DB	0f8H
	DB	0fcH
	DB	0f8H
	DB	00H
	DB	0f8H
	DB	0fcH
	DB	0f8H
	DB	00H
	DB	0f8H
	DB	0fcH
	DB	0f8H
	DB	00H
	DB	0f8H
	DB	0fcH
	DB	0f8H
	DB	00H
	DB	0f8H
	DB	0fcH
	DB	0f8H
	DB	00H
	DB	0f8H
	DB	0fcH
	DB	0f8H
	DB	00H
	DB	0f8H
	DB	0fcH
	DB	0f8H
	DB	00H
	DB	0f8H
	DB	0fcH
	DB	0f8H
	DB	00H
	DB	0f8H
	DB	0fcH
	DB	0f8H
	DB	00H
	DB	0f8H
	DB	0fcH
	DB	0f8H
	DB	00H
	DB	0f8H
	DB	0fcH
	DB	0f8H
	DB	00H
	DB	0f8H
	DB	0fcH
	DB	0f8H
	DB	00H
	DB	0f8H
	DB	0fcH
	DB	0f8H
	DB	00H
	DB	0f8H
	DB	0fcH
	DB	0f8H
	DB	00H
	DB	0f8H
	DB	0fcH
	DB	0f8H
	DB	00H
	DB	0f8H
	DB	0fcH
	DB	0f8H
	DB	00H
	DB	0f8H
	DB	0fcH
	DB	0f8H
	DB	00H
	DB	0f8H
	DB	0fcH
	DB	0f8H
	DB	00H
	DB	0f8H
	DB	0fcH
	DB	0f8H
	DB	00H
	DB	0f8H
	DB	0fcH
	DB	0f8H
	DB	00H
	DB	0f8H
	DB	0fcH
	DB	0f8H
	DB	00H
	DB	0f8H
	DB	0fcH
	DB	0f8H
	DB	00H
	DB	0f8H
	DB	0fcH
	DB	0f8H
	DB	00H
	DB	0f8H
	DB	0fcH
	DB	0f8H
	DB	00H
	DB	0f8H
	DB	0fcH
	DB	0f8H
	DB	00H
	DB	0f8H
	DB	0fcH
	DB	0f8H
	DB	00H
	DB	0f8H
	DB	0fcH
	DB	0f8H
	DB	00H
	DB	0f8H
	DB	0fcH
	DB	0f8H
	DB	00H
	DB	0f8H
	DB	0fcH
	DB	0f8H
	DB	00H
	DB	0f8H
	DB	0fcH
	DB	0f8H
	DB	00H
	DB	0f8H
	DB	0fcH
	DB	0f8H
	DB	00H
	DB	0f8H
	DB	0fcH
	DB	0f8H
	DB	00H
	DB	0f8H
	DB	0fcH
	DB	0f8H
	DB	00H
	DB	0f8H
	DB	0fcH
	DB	0f8H
	DB	00H
	DB	0f8H
	DB	0fcH
	DB	0f8H
	DB	00H
	DB	0f8H
	DB	0fcH
	DB	0f8H
	DB	00H
	DB	0f8H
	DB	0fcH
	DB	0f8H
	DB	00H
	DB	0f8H
	DB	0fcH
	DB	0f8H
	DB	00H
	DB	0f8H
	DB	0fcH
	DB	0f8H
	DB	00H
	DB	0f8H
	DB	0fcH
	DB	0f8H
	DB	00H
	DB	0f8H
	DB	0fcH
	DB	0f8H
	DB	00H
	DB	0f8H
	DB	0fcH
	DB	0f8H
	DB	00H
	DB	0f8H
	DB	0fcH
	DB	0f8H
	DB	00H
	DB	0f8H
	DB	0fcH
	DB	0f8H
	DB	00H
	DB	0f8H
	DB	0fcH
	DB	0f8H
	DB	00H
	DB	0f8H
	DB	0fcH
	DB	0f8H
	DB	00H
	DB	0f8H
	DB	0fcH
	DB	0f8H
	DB	00H
	DB	0f8H
	DB	0fcH
	DB	0f8H
	DB	00H
	DB	0f8H
	DB	0fcH
	DB	0f8H
	DB	00H
	DB	0f8H
	DB	0fcH
	DB	0f8H
	DB	00H
	DB	0f8H
	DB	0fcH
	DB	0f8H
	DB	00H
	DB	0f8H
	DB	0fcH
	DB	0f8H
	DB	00H
	DB	0f8H
	DB	0fcH
	DB	0f8H
	DB	00H
	DB	0f8H
	DB	0fcH
	DB	0f8H
	DB	00H
	DB	0f8H
	DB	0fcH
	DB	0f8H
	DB	00H
	DB	0f8H
	DB	0fcH
	DB	0f8H
	DB	00H
	DB	0f8H
	DB	0fcH
	DB	0f8H
	DB	00H
	DB	0f8H
	DB	0fcH
	DB	0f8H
	DB	00H
	DB	0f8H
	DB	0fcH
	DB	0f8H
	DB	00H
	DB	0f8H
	DB	0fcH
	DB	0f8H
	DB	00H
	DB	0f8H
	DB	0fcH
	DB	0f8H
	DB	00H
	DB	0f8H
	DB	0fcH
	DB	0f8H
	DB	00H
	DB	0f8H
	DB	0fcH
	DB	0f8H
	DB	00H
	DB	0f8H
	DB	0fcH
	DB	0f8H
	DB	00H
	DB	0f8H
	DB	0fcH
	DB	0f8H
	DB	00H
	DB	0f8H
	DB	0fcH
	DB	0f8H
	DB	00H
	DB	0f8H
	DB	0fcH
	DB	0f8H
	DB	00H
	DB	0f8H
	DB	0fcH
	DB	0f8H
	DB	00H
	DB	0f8H
	DB	0fcH
	DB	0f8H
	DB	00H
	DB	0f8H
	DB	0fcH
	DB	0f8H
	DB	00H
	DB	0f8H
	DB	0fcH
	DB	0f8H
	DB	00H
	DB	0f8H
	DB	0fcH
	DB	0f8H
	DB	00H
	DB	0f8H
	DB	0fcH
	DB	0f8H
	DB	00H
	DB	0f8H
	DB	0fcH
	DB	0f8H
	DB	00H
	DB	0f8H
	DB	0fcH
	DB	0f8H
	DB	00H
	DB	0f8H
	DB	0fcH
	DB	0f8H
	DB	00H
	DB	0f8H
	DB	0fcH
	DB	0f8H
	DB	00H
	DB	0f8H
	DB	0fcH
	DB	0f8H
	DB	00H
	DB	0f8H
	DB	0fcH
	DB	0f8H
	DB	00H
	DB	0f8H
	DB	0fcH
	DB	0f8H
	DB	00H
	DB	0f8H
	DB	0fcH
	DB	0f8H
	DB	00H
	DB	0f8H
	DB	0fcH
	DB	0f8H
	DB	00H
	DB	0f8H
	DB	0fcH
	DB	0f8H
	DB	00H
	DB	0f8H
	DB	0fcH
	DB	0f8H
	DB	00H
	DB	0e8H
	DB	0d4H
	DB	0b0H
	DB	04H
	DB	0e8H
	DB	0d4H
	DB	0b0H
	DB	01cH
	DB	0e8H
	DB	0d8H
	DB	0b0H
	DB	03cH
	DB	0e8H
	DB	0d8H
	DB	0b0H
	DB	055H
	DB	0f0H
	DB	0dcH
	DB	0b8H
	DB	075H
	DB	0f0H
	DB	0e0H
	DB	0b8H
	DB	092H
	DB	0f0H
	DB	0e0H
	DB	0c0H
	DB	0aeH
	DB	0f8H
	DB	0e4H
	DB	0c0H
	DB	0cbH
	DB	0f8H
	DB	0e4H
	DB	0c0H
	DB	0dfH
	DB	0f8H
	DB	0e4H
	DB	0c8H
	DB	0dfH
	DB	0f8H
	DB	0e8H
	DB	0c8H
	DB	0dfH
	DB	0f8H
	DB	0e8H
	DB	0c8H
	DB	0e3H
	DB	0f8H
	DB	0e8H
	DB	0c8H
	DB	0dfH
	DB	0f8H
	DB	0ecH
	DB	0c8H
	DB	0dfH
	DB	0f8H
	DB	0ecH
	DB	0d0H
	DB	0e3H
	DB	0f8H
	DB	0ecH
	DB	0d0H
	DB	0dfH
	DB	0f8H
	DB	0ecH
	DB	0d0H
	DB	0dfH
	DB	0f8H
	DB	0ecH
	DB	0d0H
	DB	0e3H
	DB	0f8H
	DB	0ecH
	DB	0d0H
	DB	0e3H
	DB	0f8H
	DB	0ecH
	DB	0d0H
	DB	0dfH
	DB	0f8H
	DB	0ecH
	DB	0d0H
	DB	0dfH
	DB	0f8H
	DB	0ecH
	DB	0c8H
	DB	0dfH
	DB	0f8H
	DB	0ecH
	DB	0c8H
	DB	0dfH
	DB	0f8H
	DB	0e8H
	DB	0d0H
	DB	0dfH
	DB	0f8H
	DB	0ecH
	DB	0d0H
	DB	0e3H
	DB	0f8H
	DB	0ecH
	DB	0c8H
	DB	0dfH
	DB	0f8H
	DB	0ecH
	DB	0c8H
	DB	0dfH
	DB	0f8H
	DB	0e8H
	DB	0c8H
	DB	0e3H
	DB	0f8H
	DB	0e8H
	DB	0d0H
	DB	0dfH
	DB	0f8H
	DB	0ecH
	DB	0c8H
	DB	0dfH
	DB	0f8H
	DB	0e8H
	DB	0d0H
	DB	0dfH
	DB	0f8H
	DB	0e8H
	DB	0c8H
	DB	0dfH
	DB	0f8H
	DB	0e8H
	DB	0c8H
	DB	0e3H
	DB	0f8H
	DB	0e8H
	DB	0d0H
	DB	0dfH
	DB	0f8H
	DB	0e8H
	DB	0c8H
	DB	0dfH
	DB	0f8H
	DB	0e8H
	DB	0c8H
	DB	0e3H
	DB	0f8H
	DB	0e8H
	DB	0c8H
	DB	0dfH
	DB	0f8H
	DB	0e8H
	DB	0c8H
	DB	0dfH
	DB	0f8H
	DB	0e8H
	DB	0c8H
	DB	0dfH
	DB	0f8H
	DB	0e8H
	DB	0c8H
	DB	0dfH
	DB	0f8H
	DB	0e4H
	DB	0c8H
	DB	0dfH
	DB	0f8H
	DB	0e4H
	DB	0c8H
	DB	0dfH
	DB	0f8H
	DB	0e4H
	DB	0c0H
	DB	0e3H
	DB	0f8H
	DB	0e4H
	DB	0c0H
	DB	0dfH
	DB	0f8H
	DB	0e4H
	DB	0c0H
	DB	0dfH
	DB	0f8H
	DB	0e4H
	DB	0c8H
	DB	0e3H
	DB	0f8H
	DB	0e4H
	DB	0c0H
	DB	0dfH
	DB	0f8H
	DB	0e4H
	DB	0c0H
	DB	0dfH
	DB	0f0H
	DB	0e4H
	DB	0c0H
	DB	0e3H
	DB	0f0H
	DB	0e0H
	DB	0c0H
	DB	0dfH
	DB	0f8H
	DB	0e0H
	DB	0c0H
	DB	0dfH
	DB	0f0H
	DB	0e0H
	DB	0c0H
	DB	0e3H
	DB	0f0H
	DB	0e0H
	DB	0c0H
	DB	0dfH
	DB	0f0H
	DB	0e0H
	DB	0c0H
	DB	0e3H
	DB	0f0H
	DB	0e0H
	DB	0c0H
	DB	0dfH
	DB	0f0H
	DB	0e0H
	DB	0b8H
	DB	0dfH
	DB	0f0H
	DB	0e0H
	DB	0b8H
	DB	0dfH
	DB	0f0H
	DB	0dcH
	DB	0b8H
	DB	0dfH
	DB	0f0H
	DB	0e0H
	DB	0b8H
	DB	0dfH
	DB	0f0H
	DB	0dcH
	DB	0b8H
	DB	0e3H
	DB	0f0H
	DB	0dcH
	DB	0b8H
	DB	0dfH
	DB	0f0H
	DB	0dcH
	DB	0b8H
	DB	0e3H
	DB	0e8H
	DB	0dcH
	DB	0b8H
	DB	0dfH
	DB	0e8H
	DB	0dcH
	DB	0b8H
	DB	0dfH
	DB	0f0H
	DB	0dcH
	DB	0b8H
	DB	0e3H
	DB	0f0H
	DB	0dcH
	DB	0b8H
	DB	0dfH
	DB	0e8H
	DB	0d8H
	DB	0b8H
	DB	0dfH
	DB	0f0H
	DB	0dcH
	DB	0b0H
	DB	0dfH
	DB	0e8H
	DB	0d8H
	DB	0b0H
	DB	0dfH
	DB	0e8H
	DB	0d8H
	DB	0b8H
	DB	0dfH
	DB	0f0H
	DB	0d8H
	DB	0b0H
	DB	0dfH
	DB	0e8H
	DB	0d8H
	DB	0b0H
	DB	0dfH
	DB	0e8H
	DB	0d8H
	DB	0b0H
	DB	0dfH
	DB	0f0H
	DB	0d8H
	DB	0b0H
	DB	0dfH
	DB	0e8H
	DB	0d8H
	DB	0b0H
	DB	0dfH
	DB	0e8H
	DB	0d8H
	DB	0b0H
	DB	0dfH
	DB	0e8H
	DB	0d8H
	DB	0b0H
	DB	0dfH
	DB	0e8H
	DB	0d4H
	DB	0b0H
	DB	0dfH
	DB	0e8H
	DB	0d4H
	DB	0b0H
	DB	0dfH
	DB	0e8H
	DB	0d4H
	DB	0b0H
	DB	0cfH
	DB	0e8H
	DB	0d4H
	DB	0b0H
	DB	0baH
	DB	0e8H
	DB	0d4H
	DB	0b0H
	DB	0a6H
	DB	0e8H
	DB	0d4H
	DB	0b0H
	DB	08eH
	DB	0e8H
	DB	0d4H
	DB	0b0H
	DB	07dH
	DB	0e8H
	DB	0d4H
	DB	0a8H
	DB	065H
	DB	0e8H
	DB	0d4H
	DB	0b0H
	DB	051H
	DB	0e8H
	DB	0d4H
	DB	0b0H
	DB	041H
	DB	0e8H
	DB	0d4H
	DB	0a8H
	DB	028H
	DB	0e8H
	DB	0d4H
	DB	0a8H
	DB	014H
	DB	0e0H
	DB	0d4H
	DB	0b0H
	DB	00H
	DB	0f8H
	DB	0fcH
	DB	0f8H
	DB	00H
	DB	0f8H
	DB	0fcH
	DB	0f8H
	DB	00H
	DB	0f8H
	DB	0fcH
	DB	0f8H
	DB	00H
	DB	0f8H
	DB	0fcH
	DB	0f8H
	DB	00H
	DB	0f8H
	DB	0fcH
	DB	0f8H
	DB	00H
	DB	0f8H
	DB	0fcH
	DB	0f8H
	DB	00H
	DB	0f8H
	DB	0fcH
	DB	0f8H
	DB	00H
	DB	0f8H
	DB	0fcH
	DB	0f8H
	DB	00H
	DB	0f8H
	DB	0fcH
	DB	0f8H
	DB	00H
	DB	0f8H
	DB	0fcH
	DB	0f8H
	DB	00H
	DB	0f8H
	DB	0fcH
	DB	0f8H
	DB	00H
	DB	0f8H
	DB	0fcH
	DB	0f8H
	DB	00H
	DB	0f8H
	DB	0fcH
	DB	0f8H
	DB	00H
	DB	0f8H
	DB	0fcH
	DB	0f8H
	DB	00H
	DB	0f8H
	DB	0fcH
	DB	0f8H
	DB	00H
	DB	0f8H
	DB	0fcH
	DB	0f8H
	DB	00H
	DB	0f8H
	DB	0fcH
	DB	0f8H
	DB	00H
	DB	0f8H
	DB	0fcH
	DB	0f8H
	DB	00H
	DB	0f8H
	DB	0fcH
	DB	0f8H
	DB	00H
	DB	0f8H
	DB	0fcH
	DB	0f8H
	DB	00H
	DB	0f8H
	DB	0fcH
	DB	0f8H
	DB	00H
	DB	0f8H
	DB	0fcH
	DB	0f8H
	DB	00H
	DB	0f8H
	DB	0fcH
	DB	0f8H
	DB	00H
	DB	0f8H
	DB	0fcH
	DB	0f8H
	DB	00H
	DB	0f8H
	DB	0fcH
	DB	0f8H
	DB	00H
	DB	0f8H
	DB	0fcH
	DB	0f8H
	DB	00H
	DB	0f8H
	DB	0fcH
	DB	0f8H
	DB	00H
	DB	0f8H
	DB	0fcH
	DB	0f8H
	DB	00H
	DB	0f8H
	DB	0fcH
	DB	0f8H
	DB	00H
	DB	0f8H
	DB	0fcH
	DB	0f8H
	DB	00H
	DB	0f8H
	DB	0fcH
	DB	0f8H
	DB	00H
	DB	0f8H
	DB	0fcH
	DB	0f8H
	DB	00H
	DB	0f8H
	DB	0fcH
	DB	0f8H
	DB	00H
	DB	0f8H
	DB	0fcH
	DB	0f8H
	DB	00H
	DB	0f8H
	DB	0fcH
	DB	0f8H
	DB	00H
	DB	0f8H
	DB	0fcH
	DB	0f8H
	DB	00H
	DB	0f8H
	DB	0fcH
	DB	0f8H
	DB	00H
	DB	0f8H
	DB	0fcH
	DB	0f8H
	DB	00H
	DB	0f8H
	DB	0fcH
	DB	0f8H
	DB	00H
	DB	0f8H
	DB	0fcH
	DB	0f8H
	DB	00H
	DB	0f8H
	DB	0fcH
	DB	0f8H
	DB	00H
	DB	0f8H
	DB	0fcH
	DB	0f8H
	DB	00H
	DB	0f8H
	DB	0fcH
	DB	0f8H
	DB	00H
	DB	0f8H
	DB	0fcH
	DB	0f8H
	DB	00H
	DB	0f8H
	DB	0fcH
	DB	0f8H
	DB	00H
	DB	0f8H
	DB	0fcH
	DB	0f8H
	DB	00H
	DB	0f8H
	DB	0fcH
	DB	0f8H
	DB	00H
	DB	0f8H
	DB	0fcH
	DB	0f8H
	DB	00H
	DB	0f8H
	DB	0fcH
	DB	0f8H
	DB	00H
	DB	0f8H
	DB	0fcH
	DB	0f8H
	DB	00H
	DB	0f8H
	DB	0fcH
	DB	0f8H
	DB	00H
	DB	0f8H
	DB	0fcH
	DB	0f8H
	DB	00H
	DB	0f8H
	DB	0fcH
	DB	0f8H
	DB	00H
	DB	0f8H
	DB	0fcH
	DB	0f8H
	DB	00H
	DB	0f8H
	DB	0fcH
	DB	0f8H
	DB	00H
	DB	0f8H
	DB	0fcH
	DB	0f8H
	DB	00H
	DB	0f8H
	DB	0fcH
	DB	0f8H
	DB	00H
	DB	0f8H
	DB	0fcH
	DB	0f8H
	DB	00H
	DB	0f8H
	DB	0fcH
	DB	0f8H
	DB	00H
	DB	0f8H
	DB	0fcH
	DB	0f8H
	DB	00H
	DB	0f8H
	DB	0fcH
	DB	0f8H
	DB	00H
	DB	0f8H
	DB	0fcH
	DB	0f8H
	DB	00H
	DB	0f8H
	DB	0fcH
	DB	0f8H
	DB	00H
	DB	0f8H
	DB	0fcH
	DB	0f8H
	DB	00H
	DB	0f8H
	DB	0fcH
	DB	0f8H
	DB	00H
	DB	0f8H
	DB	0fcH
	DB	0f8H
	DB	00H
	DB	0f8H
	DB	0fcH
	DB	0f8H
	DB	00H
	DB	0f8H
	DB	0fcH
	DB	0f8H
	DB	00H
	DB	0f8H
	DB	0fcH
	DB	0f8H
	DB	00H
	DB	0f8H
	DB	0fcH
	DB	0f8H
	DB	00H
	DB	0f8H
	DB	0fcH
	DB	0f8H
	DB	00H
	DB	0f8H
	DB	0fcH
	DB	0f8H
	DB	00H
	DB	0f8H
	DB	0fcH
	DB	0f8H
	DB	00H
	DB	0f8H
	DB	0fcH
	DB	0f8H
	DB	00H
	DB	0f8H
	DB	0fcH
	DB	0f8H
	DB	00H
	DB	0f8H
	DB	0fcH
	DB	0f8H
	DB	00H
	DB	0f8H
	DB	0fcH
	DB	0f8H
	DB	00H
	DB	0f8H
	DB	0fcH
	DB	0f8H
	DB	00H
	DB	0f8H
	DB	0fcH
	DB	0f8H
	DB	00H
	DB	0f8H
	DB	0fcH
	DB	0f8H
	DB	00H
	DB	0f8H
	DB	0fcH
	DB	0f8H
	DB	00H
	DB	0f8H
	DB	0fcH
	DB	0f8H
	DB	00H
	DB	0f8H
	DB	0e4H
	DB	0c0H
	DB	08H
	DB	0f8H
	DB	0e8H
	DB	0c8H
	DB	024H
	DB	0f8H
	DB	0e8H
	DB	0c8H
	DB	041H
	DB	0f8H
	DB	0e8H
	DB	0c8H
	DB	05dH
	DB	0f8H
	DB	0e8H
	DB	0c8H
	DB	079H
	DB	0f8H
	DB	0ecH
	DB	0d0H
	DB	096H
	DB	0f8H
	DB	0ecH
	DB	0d0H
	DB	0b2H
	DB	0f8H
	DB	0ecH
	DB	0c8H
	DB	0d3H
	DB	0f8H
	DB	0ecH
	DB	0c8H
	DB	0dfH
	DB	0f8H
	DB	0ecH
	DB	0d0H
	DB	0dfH
	DB	0f8H
	DB	0ecH
	DB	0c8H
	DB	0dfH
	DB	0f8H
	DB	0ecH
	DB	0c8H
	DB	0e3H
	DB	0f8H
	DB	0ecH
	DB	0d0H
	DB	0e3H
	DB	0f8H
	DB	0e8H
	DB	0d0H
	DB	0dfH
	DB	0f8H
	DB	0ecH
	DB	0c8H
	DB	0dfH
	DB	0f8H
	DB	0ecH
	DB	0c8H
	DB	0e3H
	DB	0f8H
	DB	0ecH
	DB	0d0H
	DB	0dfH
	DB	0f8H
	DB	0e8H
	DB	0d0H
	DB	0dfH
	DB	0f8H
	DB	0e8H
	DB	0c8H
	DB	0dfH
	DB	0f8H
	DB	0e8H
	DB	0c8H
	DB	0dfH
	DB	0f8H
	DB	0ecH
	DB	0c8H
	DB	0dfH
	DB	0f8H
	DB	0e8H
	DB	0d0H
	DB	0e3H
	DB	0f8H
	DB	0e8H
	DB	0c8H
	DB	0dfH
	DB	0f8H
	DB	0e8H
	DB	0c8H
	DB	0dfH
	DB	0f8H
	DB	0ecH
	DB	0c8H
	DB	0dfH
	DB	0f8H
	DB	0e8H
	DB	0c8H
	DB	0dfH
	DB	0f8H
	DB	0e8H
	DB	0c8H
	DB	0dfH
	DB	0f8H
	DB	0e8H
	DB	0c8H
	DB	0e3H
	DB	0f8H
	DB	0e8H
	DB	0c8H
	DB	0dfH
	DB	0f8H
	DB	0e8H
	DB	0c8H
	DB	0dfH
	DB	0f8H
	DB	0e8H
	DB	0c8H
	DB	0e3H
	DB	0f8H
	DB	0e4H
	DB	0c8H
	DB	0e3H
	DB	0f8H
	DB	0e8H
	DB	0c8H
	DB	0dfH
	DB	0f8H
	DB	0e4H
	DB	0c0H
	DB	0dfH
	DB	0f8H
	DB	0e4H
	DB	0c8H
	DB	0dfH
	DB	0f8H
	DB	0e4H
	DB	0c0H
	DB	0e3H
	DB	0f0H
	DB	0e4H
	DB	0c0H
	DB	0dfH
	DB	0f8H
	DB	0e4H
	DB	0c0H
	DB	0dfH
	DB	0f0H
	DB	0e4H
	DB	0c0H
	DB	0dfH
	DB	0f8H
	DB	0e0H
	DB	0c0H
	DB	0dfH
	DB	0f8H
	DB	0e0H
	DB	0c0H
	DB	0dfH
	DB	0f0H
	DB	0e0H
	DB	0c0H
	DB	0e3H
	DB	0f8H
	DB	0e4H
	DB	0c0H
	DB	0dfH
	DB	0f0H
	DB	0e0H
	DB	0c0H
	DB	0dfH
	DB	0f8H
	DB	0e0H
	DB	0c0H
	DB	0dfH
	DB	0f8H
	DB	0e0H
	DB	0b8H
	DB	0dfH
	DB	0f0H
	DB	0e0H
	DB	0b8H
	DB	0e3H
	DB	0f0H
	DB	0e0H
	DB	0c0H
	DB	0e3H
	DB	0f0H
	DB	0dcH
	DB	0b8H
	DB	0dfH
	DB	0f0H
	DB	0e0H
	DB	0b8H
	DB	0e3H
	DB	0f0H
	DB	0dcH
	DB	0b8H
	DB	0dfH
	DB	0f0H
	DB	0dcH
	DB	0b8H
	DB	0dfH
	DB	0f0H
	DB	0dcH
	DB	0b8H
	DB	0dfH
	DB	0f0H
	DB	0dcH
	DB	0b8H
	DB	0e3H
	DB	0e8H
	DB	0dcH
	DB	0b8H
	DB	0dfH
	DB	0f0H
	DB	0dcH
	DB	0b8H
	DB	0dfH
	DB	0e8H
	DB	0dcH
	DB	0b8H
	DB	0e3H
	DB	0e8H
	DB	0d8H
	DB	0b0H
	DB	0dfH
	DB	0f0H
	DB	0d8H
	DB	0b0H
	DB	0e3H
	DB	0e8H
	DB	0d8H
	DB	0b0H
	DB	0dfH
	DB	0e8H
	DB	0d8H
	DB	0b0H
	DB	0e3H
	DB	0e8H
	DB	0d8H
	DB	0b0H
	DB	0dfH
	DB	0f0H
	DB	0d8H
	DB	0b0H
	DB	0e3H
	DB	0e8H
	DB	0d8H
	DB	0b0H
	DB	0dfH
	DB	0e8H
	DB	0d8H
	DB	0b0H
	DB	0dfH
	DB	0e8H
	DB	0d8H
	DB	0b0H
	DB	0dfH
	DB	0e8H
	DB	0d4H
	DB	0b0H
	DB	0dfH
	DB	0e8H
	DB	0d4H
	DB	0b0H
	DB	0e3H
	DB	0e8H
	DB	0d4H
	DB	0b0H
	DB	0dfH
	DB	0e8H
	DB	0d8H
	DB	0b0H
	DB	0dfH
	DB	0e8H
	DB	0d4H
	DB	0b0H
	DB	0e3H
	DB	0e8H
	DB	0d4H
	DB	0b0H
	DB	0dfH
	DB	0e8H
	DB	0d4H
	DB	0a8H
	DB	0dfH
	DB	0e8H
	DB	0d4H
	DB	0a8H
	DB	0dfH
	DB	0e8H
	DB	0d4H
	DB	0a8H
	DB	0dfH
	DB	0e8H
	DB	0d4H
	DB	0b0H
	DB	0dfH
	DB	0e0H
	DB	0d4H
	DB	0a8H
	DB	0dfH
	DB	0e8H
	DB	0d4H
	DB	0a8H
	DB	0dfH
	DB	0e0H
	DB	0d4H
	DB	0a8H
	DB	0dfH
	DB	0e0H
	DB	0d4H
	DB	0a8H
	DB	0dfH
	DB	0e8H
	DB	0d4H
	DB	0a8H
	DB	0dfH
	DB	0e8H
	DB	0d4H
	DB	0a8H
	DB	0dfH
	DB	0e0H
	DB	0d0H
	DB	0a8H
	DB	0cbH
	DB	0e8H
	DB	0d0H
	DB	0a8H
	DB	0b6H
	DB	0e0H
	DB	0d0H
	DB	0a8H
	DB	09eH
	DB	0e0H
	DB	0d4H
	DB	0a8H
	DB	08eH
	DB	0e0H
	DB	0d0H
	DB	0a8H
	DB	075H
	DB	0e0H
	DB	0d0H
	DB	0a8H
	DB	061H
	DB	0e0H
	DB	0d0H
	DB	0a8H
	DB	04dH
	DB	0e0H
	DB	0d0H
	DB	0a8H
	DB	038H
	DB	0e0H
	DB	0d0H
	DB	0a8H
	DB	024H
	DB	0e0H
	DB	0d0H
	DB	0a8H
	DB	010H
	DB	0f8H
	DB	0fcH
	DB	0f8H
	DB	00H
	DB	0f8H
	DB	0fcH
	DB	0f8H
	DB	00H
	DB	0f8H
	DB	0fcH
	DB	0f8H
	DB	00H
	DB	0f8H
	DB	0fcH
	DB	0f8H
	DB	00H
	DB	0f8H
	DB	0fcH
	DB	0f8H
	DB	00H
	DB	0f8H
	DB	0fcH
	DB	0f8H
	DB	00H
	DB	0f8H
	DB	0fcH
	DB	0f8H
	DB	00H
	DB	0f8H
	DB	0fcH
	DB	0f8H
	DB	00H
	DB	0f8H
	DB	0fcH
	DB	0f8H
	DB	00H
	DB	0f8H
	DB	0fcH
	DB	0f8H
	DB	00H
	DB	0f8H
	DB	0fcH
	DB	0f8H
	DB	00H
	DB	0f8H
	DB	0fcH
	DB	0f8H
	DB	00H
	DB	0f8H
	DB	0fcH
	DB	0f8H
	DB	00H
	DB	0f8H
	DB	0fcH
	DB	0f8H
	DB	00H
	DB	0f8H
	DB	0fcH
	DB	0f8H
	DB	00H
	DB	0f8H
	DB	0fcH
	DB	0f8H
	DB	00H
	DB	0f8H
	DB	0fcH
	DB	0f8H
	DB	00H
	DB	0f8H
	DB	0fcH
	DB	0f8H
	DB	00H
	DB	0f8H
	DB	0fcH
	DB	0f8H
	DB	00H
	DB	0f8H
	DB	0fcH
	DB	0f8H
	DB	00H
	DB	0f8H
	DB	0fcH
	DB	0f8H
	DB	00H
	DB	0f8H
	DB	0fcH
	DB	0f8H
	DB	00H
	DB	0f8H
	DB	0fcH
	DB	0f8H
	DB	00H
	DB	0f8H
	DB	0fcH
	DB	0f8H
	DB	00H
	DB	0f8H
	DB	0fcH
	DB	0f8H
	DB	00H
	DB	0f8H
	DB	0fcH
	DB	0f8H
	DB	00H
	DB	0f8H
	DB	0fcH
	DB	0f8H
	DB	00H
	DB	0f8H
	DB	0fcH
	DB	0f8H
	DB	00H
	DB	0f8H
	DB	0fcH
	DB	0f8H
	DB	00H
	DB	0f8H
	DB	0fcH
	DB	0f8H
	DB	00H
	DB	0f8H
	DB	0fcH
	DB	0f8H
	DB	00H
	DB	0f8H
	DB	0fcH
	DB	0f8H
	DB	00H
	DB	0f8H
	DB	0fcH
	DB	0f8H
	DB	00H
	DB	0f8H
	DB	0fcH
	DB	0f8H
	DB	00H
	DB	0f8H
	DB	0fcH
	DB	0f8H
	DB	00H
	DB	0f8H
	DB	0fcH
	DB	0f8H
	DB	00H
	DB	0f8H
	DB	0fcH
	DB	0f8H
	DB	00H
	DB	0f8H
	DB	0fcH
	DB	0f8H
	DB	00H
	DB	0f8H
	DB	0fcH
	DB	0f8H
	DB	00H
	DB	0f8H
	DB	0fcH
	DB	0f8H
	DB	00H
	DB	0f8H
	DB	0fcH
	DB	0f8H
	DB	00H
	DB	0f8H
	DB	0fcH
	DB	0f8H
	DB	00H
	DB	0f8H
	DB	0fcH
	DB	0f8H
	DB	00H
	DB	0f8H
	DB	0fcH
	DB	0f8H
	DB	00H
	DB	0f8H
	DB	0fcH
	DB	0f8H
	DB	00H
	DB	0f8H
	DB	0fcH
	DB	0f8H
	DB	00H
	DB	0f8H
	DB	0fcH
	DB	0f8H
	DB	00H
	DB	0f8H
	DB	0fcH
	DB	0f8H
	DB	00H
	DB	0f8H
	DB	0fcH
	DB	0f8H
	DB	00H
	DB	0f8H
	DB	0fcH
	DB	0f8H
	DB	00H
	DB	0f8H
	DB	0fcH
	DB	0f8H
	DB	00H
	DB	0f8H
	DB	0fcH
	DB	0f8H
	DB	00H
	DB	0f8H
	DB	0fcH
	DB	0f8H
	DB	00H
	DB	0f8H
	DB	0fcH
	DB	0f8H
	DB	00H
	DB	0f8H
	DB	0fcH
	DB	0f8H
	DB	00H
	DB	0f8H
	DB	0fcH
	DB	0f8H
	DB	00H
	DB	0f8H
	DB	0fcH
	DB	0f8H
	DB	00H
	DB	0f8H
	DB	0fcH
	DB	0f8H
	DB	00H
	DB	0f8H
	DB	0fcH
	DB	0f8H
	DB	00H
	DB	0f8H
	DB	0fcH
	DB	0f8H
	DB	00H
	DB	0f8H
	DB	0fcH
	DB	0f8H
	DB	00H
	DB	0f8H
	DB	0fcH
	DB	0f8H
	DB	00H
	DB	0f8H
	DB	0fcH
	DB	0f8H
	DB	00H
	DB	0f8H
	DB	0fcH
	DB	0f8H
	DB	00H
	DB	0f8H
	DB	0fcH
	DB	0f8H
	DB	00H
	DB	0f8H
	DB	0fcH
	DB	0f8H
	DB	00H
	DB	0f8H
	DB	0fcH
	DB	0f8H
	DB	00H
	DB	0f8H
	DB	0fcH
	DB	0f8H
	DB	00H
	DB	0f8H
	DB	0fcH
	DB	0f8H
	DB	00H
	DB	0f8H
	DB	0fcH
	DB	0f8H
	DB	00H
	DB	0f8H
	DB	0fcH
	DB	0f8H
	DB	00H
	DB	0f8H
	DB	0fcH
	DB	0f8H
	DB	00H
	DB	0f8H
	DB	0fcH
	DB	0f8H
	DB	00H
	DB	0f8H
	DB	0fcH
	DB	0f8H
	DB	00H
	DB	0f8H
	DB	0fcH
	DB	0f8H
	DB	00H
	DB	0f8H
	DB	0fcH
	DB	0f8H
	DB	00H
	DB	0f8H
	DB	0fcH
	DB	0f8H
	DB	00H
	DB	0f8H
	DB	0fcH
	DB	0f8H
	DB	00H
	DB	0f8H
	DB	0fcH
	DB	0f8H
	DB	00H
	DB	0f8H
	DB	0fcH
	DB	0f8H
	DB	00H
	DB	0f8H
	DB	0ecH
	DB	0c8H
	DB	0cH
	DB	0f8H
	DB	0ecH
	DB	0d0H
	DB	02cH
	DB	0f8H
	DB	0ecH
	DB	0c8H
	DB	045H
	DB	0f8H
	DB	0ecH
	DB	0c8H
	DB	061H
	DB	0f8H
	DB	0e8H
	DB	0d0H
	DB	079H
	DB	0f8H
	DB	0ecH
	DB	0c8H
	DB	096H
	DB	0f8H
	DB	0ecH
	DB	0d0H
	DB	0aeH
	DB	0f8H
	DB	0e8H
	DB	0c8H
	DB	0cbH
	DB	0f8H
	DB	0e8H
	DB	0c8H
	DB	0dfH
	DB	0f8H
	DB	0ecH
	DB	0d0H
	DB	0dfH
	DB	0f8H
	DB	0e8H
	DB	0d0H
	DB	0e3H
	DB	0f8H
	DB	0ecH
	DB	0c8H
	DB	0dfH
	DB	0f8H
	DB	0ecH
	DB	0c8H
	DB	0dfH
	DB	0f8H
	DB	0e8H
	DB	0c8H
	DB	0e3H
	DB	0f8H
	DB	0e8H
	DB	0c8H
	DB	0dfH
	DB	0f8H
	DB	0ecH
	DB	0c8H
	DB	0dfH
	DB	0f8H
	DB	0e8H
	DB	0c8H
	DB	0e3H
	DB	0f8H
	DB	0e8H
	DB	0c8H
	DB	0dfH
	DB	0f8H
	DB	0e8H
	DB	0c8H
	DB	0dfH
	DB	0f8H
	DB	0e8H
	DB	0c8H
	DB	0dfH
	DB	0f8H
	DB	0e8H
	DB	0c8H
	DB	0dfH
	DB	0f8H
	DB	0e8H
	DB	0c8H
	DB	0dfH
	DB	0f8H
	DB	0e4H
	DB	0c8H
	DB	0dfH
	DB	0f8H
	DB	0e4H
	DB	0c0H
	DB	0dfH
	DB	0f8H
	DB	0e4H
	DB	0c0H
	DB	0e3H
	DB	0f8H
	DB	0e8H
	DB	0c0H
	DB	0dfH
	DB	0f8H
	DB	0e4H
	DB	0c0H
	DB	0dfH
	DB	0f8H
	DB	0e4H
	DB	0c8H
	DB	0dfH
	DB	0f8H
	DB	0e4H
	DB	0c0H
	DB	0dfH
	DB	0f8H
	DB	0e4H
	DB	0c0H
	DB	0e3H
	DB	0f0H
	DB	0e0H
	DB	0c0H
	DB	0dfH
	DB	0f8H
	DB	0e4H
	DB	0c0H
	DB	0dfH
	DB	0f0H
	DB	0e0H
	DB	0c0H
	DB	0e3H
	DB	0f8H
	DB	0e0H
	DB	0c0H
	DB	0dfH
	DB	0f0H
	DB	0e0H
	DB	0c0H
	DB	0dfH
	DB	0f0H
	DB	0e0H
	DB	0b8H
	DB	0e3H
	DB	0f0H
	DB	0e0H
	DB	0b8H
	DB	0dfH
	DB	0f0H
	DB	0e0H
	DB	0c0H
	DB	0dfH
	DB	0f0H
	DB	0e0H
	DB	0b8H
	DB	0dfH
	DB	0f0H
	DB	0dcH
	DB	0b8H
	DB	0dfH
	DB	0f0H
	DB	0dcH
	DB	0b8H
	DB	0dfH
	DB	0f0H
	DB	0dcH
	DB	0b8H
	DB	0dfH
	DB	0f0H
	DB	0dcH
	DB	0b8H
	DB	0e3H
	DB	0f0H
	DB	0dcH
	DB	0b8H
	DB	0dfH
	DB	0f0H
	DB	0dcH
	DB	0b8H
	DB	0dfH
	DB	0e8H
	DB	0dcH
	DB	0b8H
	DB	0dfH
	DB	0f0H
	DB	0dcH
	DB	0b0H
	DB	0dfH
	DB	0f0H
	DB	0d8H
	DB	0b0H
	DB	0dfH
	DB	0e8H
	DB	0d8H
	DB	0b0H
	DB	0dfH
	DB	0e8H
	DB	0d8H
	DB	0b0H
	DB	0dfH
	DB	0f0H
	DB	0d8H
	DB	0b0H
	DB	0dfH
	DB	0e8H
	DB	0d8H
	DB	0b0H
	DB	0e3H
	DB	0e8H
	DB	0d8H
	DB	0b0H
	DB	0dfH
	DB	0f0H
	DB	0d8H
	DB	0b0H
	DB	0dfH
	DB	0e8H
	DB	0d8H
	DB	0b0H
	DB	0dfH
	DB	0e8H
	DB	0d4H
	DB	0b0H
	DB	0e3H
	DB	0e8H
	DB	0d4H
	DB	0b0H
	DB	0dfH
	DB	0e8H
	DB	0d8H
	DB	0b0H
	DB	0e3H
	DB	0e8H
	DB	0d4H
	DB	0b0H
	DB	0dfH
	DB	0e8H
	DB	0d4H
	DB	0b0H
	DB	0dfH
	DB	0e8H
	DB	0d4H
	DB	0b0H
	DB	0e3H
	DB	0e8H
	DB	0d4H
	DB	0a8H
	DB	0dfH
	DB	0e8H
	DB	0d4H
	DB	0a8H
	DB	0dfH
	DB	0e8H
	DB	0d4H
	DB	0b0H
	DB	0dfH
	DB	0e8H
	DB	0d4H
	DB	0a8H
	DB	0dfH
	DB	0e8H
	DB	0d4H
	DB	0a8H
	DB	0e3H
	DB	0e0H
	DB	0d4H
	DB	0b0H
	DB	0dfH
	DB	0e8H
	DB	0d4H
	DB	0a8H
	DB	0e3H
	DB	0e8H
	DB	0d4H
	DB	0a8H
	DB	0dfH
	DB	0e0H
	DB	0d4H
	DB	0a8H
	DB	0dfH
	DB	0e8H
	DB	0d0H
	DB	0a8H
	DB	0dfH
	DB	0e8H
	DB	0d0H
	DB	0a8H
	DB	0dfH
	DB	0e0H
	DB	0d0H
	DB	0a8H
	DB	0dfH
	DB	0e0H
	DB	0d0H
	DB	0a8H
	DB	0dfH
	DB	0e8H
	DB	0d0H
	DB	0a8H
	DB	0dfH
	DB	0e8H
	DB	0d0H
	DB	0a8H
	DB	0dfH
	DB	0e0H
	DB	0d0H
	DB	0a8H
	DB	0dfH
	DB	0e8H
	DB	0d0H
	DB	0a8H
	DB	0dfH
	DB	0e8H
	DB	0d0H
	DB	0a8H
	DB	0dfH
	DB	0e0H
	DB	0d0H
	DB	0a8H
	DB	0dfH
	DB	0e0H
	DB	0d0H
	DB	0a8H
	DB	0dfH
	DB	0e8H
	DB	0d0H
	DB	0a0H
	DB	0dfH
	DB	0e0H
	DB	0d0H
	DB	0a8H
	DB	0dfH
	DB	0e0H
	DB	0d0H
	DB	0a8H
	DB	0dfH
	DB	0e0H
	DB	0d0H
	DB	0a0H
	DB	0dbH
	DB	0e0H
	DB	0d0H
	DB	0a0H
	DB	0c7H
	DB	0e0H
	DB	0ccH
	DB	0a8H
	DB	0aeH
	DB	0e0H
	DB	0ccH
	DB	0a0H
	DB	09aH
	DB	0e0H
	DB	0ccH
	DB	0a0H
	DB	086H
	DB	0e0H
	DB	0d0H
	DB	0a0H
	DB	071H
	DB	0e0H
	DB	0ccH
	DB	0a0H
	DB	059H
	DB	0e0H
	DB	0ccH
	DB	0a0H
	DB	045H
	DB	0e0H
	DB	0ccH
	DB	0a0H
	DB	030H
	DB	0e0H
	DB	0ccH
	DB	0a0H
	DB	018H
	DB	0e0H
	DB	0ccH
	DB	0a0H
	DB	04H
	DB	0f8H
	DB	0fcH
	DB	0f8H
	DB	00H
	DB	0f8H
	DB	0fcH
	DB	0f8H
	DB	00H
	DB	0f8H
	DB	0fcH
	DB	0f8H
	DB	00H
	DB	0f8H
	DB	0fcH
	DB	0f8H
	DB	00H
	DB	0f8H
	DB	0fcH
	DB	0f8H
	DB	00H
	DB	0f8H
	DB	0fcH
	DB	0f8H
	DB	00H
	DB	0f8H
	DB	0fcH
	DB	0f8H
	DB	00H
	DB	0f8H
	DB	0fcH
	DB	0f8H
	DB	00H
	DB	0f8H
	DB	0fcH
	DB	0f8H
	DB	00H
	DB	0f8H
	DB	0fcH
	DB	0f8H
	DB	00H
	DB	0f8H
	DB	0fcH
	DB	0f8H
	DB	00H
	DB	0f8H
	DB	0fcH
	DB	0f8H
	DB	00H
	DB	0f8H
	DB	0fcH
	DB	0f8H
	DB	00H
	DB	0f8H
	DB	0fcH
	DB	0f8H
	DB	00H
	DB	0f8H
	DB	0fcH
	DB	0f8H
	DB	00H
	DB	0f8H
	DB	0fcH
	DB	0f8H
	DB	00H
	DB	0f8H
	DB	0fcH
	DB	0f8H
	DB	00H
	DB	0f8H
	DB	0fcH
	DB	0f8H
	DB	00H
	DB	0f8H
	DB	0fcH
	DB	0f8H
	DB	00H
	DB	0f8H
	DB	0fcH
	DB	0f8H
	DB	00H
	DB	0f8H
	DB	0fcH
	DB	0f8H
	DB	00H
	DB	0f8H
	DB	0fcH
	DB	0f8H
	DB	00H
	DB	0f8H
	DB	0fcH
	DB	0f8H
	DB	00H
	DB	0f8H
	DB	0fcH
	DB	0f8H
	DB	00H
	DB	0f8H
	DB	0fcH
	DB	0f8H
	DB	00H
	DB	0f8H
	DB	0fcH
	DB	0f8H
	DB	00H
	DB	0f8H
	DB	0fcH
	DB	0f8H
	DB	00H
	DB	0f8H
	DB	0fcH
	DB	0f8H
	DB	00H
	DB	0f8H
	DB	0fcH
	DB	0f8H
	DB	00H
	DB	0f8H
	DB	0fcH
	DB	0f8H
	DB	00H
	DB	0f8H
	DB	0fcH
	DB	0f8H
	DB	00H
	DB	0f8H
	DB	0fcH
	DB	0f8H
	DB	00H
	DB	0f8H
	DB	0fcH
	DB	0f8H
	DB	00H
	DB	0f8H
	DB	0fcH
	DB	0f8H
	DB	00H
	DB	0f8H
	DB	0fcH
	DB	0f8H
	DB	00H
	DB	0f8H
	DB	0fcH
	DB	0f8H
	DB	00H
	DB	0f8H
	DB	0fcH
	DB	0f8H
	DB	00H
	DB	0f8H
	DB	0fcH
	DB	0f8H
	DB	00H
	DB	0f8H
	DB	0fcH
	DB	0f8H
	DB	00H
	DB	0f8H
	DB	0fcH
	DB	0f8H
	DB	00H
	DB	0f8H
	DB	0fcH
	DB	0f8H
	DB	00H
	DB	0f8H
	DB	0fcH
	DB	0f8H
	DB	00H
	DB	0f8H
	DB	0fcH
	DB	0f8H
	DB	00H
	DB	0f8H
	DB	0fcH
	DB	0f8H
	DB	00H
	DB	0f8H
	DB	0fcH
	DB	0f8H
	DB	00H
	DB	0f8H
	DB	0fcH
	DB	0f8H
	DB	00H
	DB	0f8H
	DB	0fcH
	DB	0f8H
	DB	00H
	DB	0f8H
	DB	0fcH
	DB	0f8H
	DB	00H
	DB	0f8H
	DB	0fcH
	DB	0f8H
	DB	00H
	DB	0f8H
	DB	0fcH
	DB	0f8H
	DB	00H
	DB	0f8H
	DB	0fcH
	DB	0f8H
	DB	00H
	DB	0f8H
	DB	0fcH
	DB	0f8H
	DB	00H
	DB	0f8H
	DB	0fcH
	DB	0f8H
	DB	00H
	DB	0f8H
	DB	0fcH
	DB	0f8H
	DB	00H
	DB	0f8H
	DB	0fcH
	DB	0f8H
	DB	00H
	DB	0f8H
	DB	0fcH
	DB	0f8H
	DB	00H
	DB	0f8H
	DB	0fcH
	DB	0f8H
	DB	00H
	DB	0f8H
	DB	0fcH
	DB	0f8H
	DB	00H
	DB	0f8H
	DB	0fcH
	DB	0f8H
	DB	00H
	DB	0f8H
	DB	0fcH
	DB	0f8H
	DB	00H
	DB	0f8H
	DB	0fcH
	DB	0f8H
	DB	00H
	DB	0f8H
	DB	0fcH
	DB	0f8H
	DB	00H
	DB	0f8H
	DB	0fcH
	DB	0f8H
	DB	00H
	DB	0f8H
	DB	0fcH
	DB	0f8H
	DB	00H
	DB	0f8H
	DB	0fcH
	DB	0f8H
	DB	00H
	DB	0f8H
	DB	0fcH
	DB	0f8H
	DB	00H
	DB	0f8H
	DB	0fcH
	DB	0f8H
	DB	00H
	DB	0f8H
	DB	0fcH
	DB	0f8H
	DB	00H
	DB	0f8H
	DB	0fcH
	DB	0f8H
	DB	00H
	DB	0f8H
	DB	0fcH
	DB	0f8H
	DB	00H
	DB	0f8H
	DB	0fcH
	DB	0f8H
	DB	00H
	DB	0f8H
	DB	0fcH
	DB	0f8H
	DB	00H
	DB	0f8H
	DB	0fcH
	DB	0f8H
	DB	00H
	DB	0f8H
	DB	0fcH
	DB	0f8H
	DB	00H
	DB	0f8H
	DB	0fcH
	DB	0f8H
	DB	00H
	DB	0f8H
	DB	0fcH
	DB	0f8H
	DB	00H
	DB	0f8H
	DB	0fcH
	DB	0f8H
	DB	00H
	DB	0f8H
	DB	0ecH
	DB	0c8H
	DB	04H
	DB	0f8H
	DB	0e8H
	DB	0c8H
	DB	020H
	DB	0f8H
	DB	0ecH
	DB	0c8H
	DB	038H
	DB	0f8H
	DB	0e8H
	DB	0d0H
	DB	055H
	DB	0f8H
	DB	0ecH
	DB	0c8H
	DB	071H
	DB	0f8H
	DB	0ecH
	DB	0c8H
	DB	08aH
	DB	0f8H
	DB	0e8H
	DB	0c8H
	DB	0a2H
	DB	0f8H
	DB	0e8H
	DB	0c8H
	DB	0beH
	DB	0f8H
	DB	0e8H
	DB	0c8H
	DB	0dbH
	DB	0f8H
	DB	0e8H
	DB	0c8H
	DB	0dfH
	DB	0f8H
	DB	0e8H
	DB	0c8H
	DB	0e3H
	DB	0f8H
	DB	0e8H
	DB	0c8H
	DB	0dfH
	DB	0f8H
	DB	0e8H
	DB	0c8H
	DB	0e3H
	DB	0f8H
	DB	0e4H
	DB	0c8H
	DB	0dfH
	DB	0f8H
	DB	0e8H
	DB	0c0H
	DB	0dfH
	DB	0f8H
	DB	0e4H
	DB	0c0H
	DB	0dfH
	DB	0f8H
	DB	0e4H
	DB	0c8H
	DB	0dfH
	DB	0f8H
	DB	0e4H
	DB	0c0H
	DB	0e3H
	DB	0f8H
	DB	0e4H
	DB	0c0H
	DB	0dfH
	DB	0f8H
	DB	0e4H
	DB	0c0H
	DB	0dfH
	DB	0f0H
	DB	0e4H
	DB	0c0H
	DB	0e3H
	DB	0f8H
	DB	0e0H
	DB	0c0H
	DB	0dfH
	DB	0f8H
	DB	0e4H
	DB	0c0H
	DB	0dfH
	DB	0f0H
	DB	0e0H
	DB	0c0H
	DB	0e3H
	DB	0f8H
	DB	0e0H
	DB	0c0H
	DB	0dfH
	DB	0f0H
	DB	0e0H
	DB	0b8H
	DB	0dfH
	DB	0f0H
	DB	0e0H
	DB	0b8H
	DB	0dfH
	DB	0f0H
	DB	0e0H
	DB	0b8H
	DB	0dfH
	DB	0f8H
	DB	0e0H
	DB	0b8H
	DB	0e3H
	DB	0f0H
	DB	0dcH
	DB	0b8H
	DB	0dfH
	DB	0f0H
	DB	0dcH
	DB	0b8H
	DB	0dfH
	DB	0f0H
	DB	0dcH
	DB	0b8H
	DB	0dfH
	DB	0f0H
	DB	0dcH
	DB	0b8H
	DB	0e3H
	DB	0f0H
	DB	0dcH
	DB	0b8H
	DB	0dfH
	DB	0f0H
	DB	0dcH
	DB	0b8H
	DB	0dfH
	DB	0f0H
	DB	0dcH
	DB	0b8H
	DB	0e3H
	DB	0e8H
	DB	0dcH
	DB	0b8H
	DB	0dfH
	DB	0f0H
	DB	0d8H
	DB	0b0H
	DB	0dfH
	DB	0e8H
	DB	0d8H
	DB	0b0H
	DB	0e3H
	DB	0f0H
	DB	0d8H
	DB	0b0H
	DB	0dfH
	DB	0e8H
	DB	0d8H
	DB	0b0H
	DB	0dfH
	DB	0e8H
	DB	0d8H
	DB	0b0H
	DB	0e3H
	DB	0e8H
	DB	0d8H
	DB	0b0H
	DB	0dfH
	DB	0e8H
	DB	0d8H
	DB	0b0H
	DB	0dfH
	DB	0f0H
	DB	0d8H
	DB	0b0H
	DB	0dfH
	DB	0e8H
	DB	0d4H
	DB	0b0H
	DB	0dfH
	DB	0e8H
	DB	0d8H
	DB	0b0H
	DB	0dfH
	DB	0e8H
	DB	0d4H
	DB	0b0H
	DB	0dfH
	DB	0e8H
	DB	0d4H
	DB	0b0H
	DB	0e3H
	DB	0e8H
	DB	0d4H
	DB	0a8H
	DB	0dfH
	DB	0e8H
	DB	0d4H
	DB	0b0H
	DB	0dfH
	DB	0e8H
	DB	0d4H
	DB	0a8H
	DB	0dfH
	DB	0e8H
	DB	0d4H
	DB	0a8H
	DB	0dfH
	DB	0e8H
	DB	0d4H
	DB	0a8H
	DB	0e3H
	DB	0e8H
	DB	0d4H
	DB	0a8H
	DB	0dfH
	DB	0e8H
	DB	0d4H
	DB	0a8H
	DB	0dfH
	DB	0e8H
	DB	0d4H
	DB	0a8H
	DB	0e3H
	DB	0e0H
	DB	0d4H
	DB	0a8H
	DB	0dfH
	DB	0e8H
	DB	0d4H
	DB	0a8H
	DB	0dfH
	DB	0e0H
	DB	0d0H
	DB	0a8H
	DB	0dfH
	DB	0e8H
	DB	0d0H
	DB	0a8H
	DB	0e3H
	DB	0e8H
	DB	0d4H
	DB	0a8H
	DB	0e3H
	DB	0e0H
	DB	0d0H
	DB	0a8H
	DB	0dfH
	DB	0e8H
	DB	0d0H
	DB	0a8H
	DB	0e3H
	DB	0e0H
	DB	0d0H
	DB	0a8H
	DB	0dfH
	DB	0e0H
	DB	0d0H
	DB	0a8H
	DB	0dfH
	DB	0e0H
	DB	0d0H
	DB	0a8H
	DB	0dfH
	DB	0e0H
	DB	0d0H
	DB	0a8H
	DB	0e3H
	DB	0e0H
	DB	0d0H
	DB	0a8H
	DB	0dfH
	DB	0e0H
	DB	0d0H
	DB	0a8H
	DB	0dfH
	DB	0e0H
	DB	0d0H
	DB	0a0H
	DB	0e3H
	DB	0e0H
	DB	0d0H
	DB	0a0H
	DB	0dfH
	DB	0e0H
	DB	0d0H
	DB	0a8H
	DB	0e3H
	DB	0e0H
	DB	0ccH
	DB	0a0H
	DB	0dfH
	DB	0e0H
	DB	0ccH
	DB	0a0H
	DB	0dfH
	DB	0e0H
	DB	0ccH
	DB	0a0H
	DB	0dfH
	DB	0e0H
	DB	0ccH
	DB	0a0H
	DB	0dfH
	DB	0e0H
	DB	0ccH
	DB	0a0H
	DB	0dfH
	DB	0e0H
	DB	0ccH
	DB	0a0H
	DB	0dfH
	DB	0e0H
	DB	0ccH
	DB	0a0H
	DB	0dfH
	DB	0e0H
	DB	0ccH
	DB	0a0H
	DB	0dfH
	DB	0e0H
	DB	0ccH
	DB	0a0H
	DB	0dfH
	DB	0e0H
	DB	0ccH
	DB	0a0H
	DB	0dfH
	DB	0e0H
	DB	0ccH
	DB	0a0H
	DB	0dfH
	DB	0e0H
	DB	0ccH
	DB	0a0H
	DB	0dfH
	DB	0e0H
	DB	0ccH
	DB	0a0H
	DB	0dfH
	DB	0e0H
	DB	0ccH
	DB	0a0H
	DB	0dfH
	DB	0e0H
	DB	0ccH
	DB	0a0H
	DB	0cbH
	DB	0e0H
	DB	0ccH
	DB	098H
	DB	0b6H
	DB	0d8H
	DB	0ccH
	DB	098H
	DB	09eH
	DB	0e0H
	DB	0c8H
	DB	098H
	DB	08eH
	DB	0e0H
	DB	0c8H
	DB	098H
	DB	075H
	DB	0d8H
	DB	0c8H
	DB	098H
	DB	05dH
	DB	0d8H
	DB	0c8H
	DB	098H
	DB	045H
	DB	0e0H
	DB	0c8H
	DB	098H
	DB	030H
	DB	0d8H
	DB	0c8H
	DB	098H
	DB	018H
	DB	0d8H
	DB	0c8H
	DB	098H
	DB	04H
	DB	0f8H
	DB	0fcH
	DB	0f8H
	DB	00H
	DB	0f8H
	DB	0fcH
	DB	0f8H
	DB	00H
	DB	0f8H
	DB	0fcH
	DB	0f8H
	DB	00H
	DB	0f8H
	DB	0fcH
	DB	0f8H
	DB	00H
	DB	0f8H
	DB	0fcH
	DB	0f8H
	DB	00H
	DB	0f8H
	DB	0fcH
	DB	0f8H
	DB	00H
	DB	0f8H
	DB	0fcH
	DB	0f8H
	DB	00H
	DB	0f8H
	DB	0fcH
	DB	0f8H
	DB	00H
	DB	0f8H
	DB	0fcH
	DB	0f8H
	DB	00H
	DB	0f8H
	DB	0fcH
	DB	0f8H
	DB	00H
	DB	0f8H
	DB	0fcH
	DB	0f8H
	DB	00H
	DB	0f8H
	DB	0fcH
	DB	0f8H
	DB	00H
	DB	0f8H
	DB	0fcH
	DB	0f8H
	DB	00H
	DB	0f8H
	DB	0fcH
	DB	0f8H
	DB	00H
	DB	0f8H
	DB	0fcH
	DB	0f8H
	DB	00H
	DB	0f8H
	DB	0fcH
	DB	0f8H
	DB	00H
	DB	0f8H
	DB	0fcH
	DB	0f8H
	DB	00H
	DB	0f8H
	DB	0fcH
	DB	0f8H
	DB	00H
	DB	0f8H
	DB	0fcH
	DB	0f8H
	DB	00H
	DB	0f8H
	DB	0fcH
	DB	0f8H
	DB	00H
	DB	0f8H
	DB	0fcH
	DB	0f8H
	DB	00H
	DB	0f8H
	DB	0fcH
	DB	0f8H
	DB	00H
	DB	0f8H
	DB	0fcH
	DB	0f8H
	DB	00H
	DB	0f8H
	DB	0fcH
	DB	0f8H
	DB	00H
	DB	0f8H
	DB	0fcH
	DB	0f8H
	DB	00H
	DB	0f8H
	DB	0fcH
	DB	0f8H
	DB	00H
	DB	0f8H
	DB	0fcH
	DB	0f8H
	DB	00H
	DB	0f8H
	DB	0fcH
	DB	0f8H
	DB	00H
	DB	0f8H
	DB	0fcH
	DB	0f8H
	DB	00H
	DB	0f8H
	DB	0fcH
	DB	0f8H
	DB	00H
	DB	0f8H
	DB	0fcH
	DB	0f8H
	DB	00H
	DB	0f8H
	DB	0fcH
	DB	0f8H
	DB	00H
	DB	0f8H
	DB	0fcH
	DB	0f8H
	DB	00H
	DB	0f8H
	DB	0fcH
	DB	0f8H
	DB	00H
	DB	0f8H
	DB	0fcH
	DB	0f8H
	DB	00H
	DB	0f8H
	DB	0fcH
	DB	0f8H
	DB	00H
	DB	0f8H
	DB	0fcH
	DB	0f8H
	DB	00H
	DB	0f8H
	DB	0fcH
	DB	0f8H
	DB	00H
	DB	0f8H
	DB	0fcH
	DB	0f8H
	DB	00H
	DB	0f8H
	DB	0fcH
	DB	0f8H
	DB	00H
	DB	0f8H
	DB	0fcH
	DB	0f8H
	DB	00H
	DB	0f8H
	DB	0fcH
	DB	0f8H
	DB	00H
	DB	0f8H
	DB	0fcH
	DB	0f8H
	DB	00H
	DB	0f8H
	DB	0fcH
	DB	0f8H
	DB	00H
	DB	0f8H
	DB	0fcH
	DB	0f8H
	DB	00H
	DB	0f8H
	DB	0fcH
	DB	0f8H
	DB	00H
	DB	0f8H
	DB	0fcH
	DB	0f8H
	DB	00H
	DB	0f8H
	DB	0fcH
	DB	0f8H
	DB	00H
	DB	0f8H
	DB	0fcH
	DB	0f8H
	DB	00H
	DB	0f8H
	DB	0fcH
	DB	0f8H
	DB	00H
	DB	0f8H
	DB	0fcH
	DB	0f8H
	DB	00H
	DB	0f8H
	DB	0fcH
	DB	0f8H
	DB	00H
	DB	0f8H
	DB	0fcH
	DB	0f8H
	DB	00H
	DB	0f8H
	DB	0fcH
	DB	0f8H
	DB	00H
	DB	0f8H
	DB	0fcH
	DB	0f8H
	DB	00H
	DB	0f8H
	DB	0fcH
	DB	0f8H
	DB	00H
	DB	0f8H
	DB	0fcH
	DB	0f8H
	DB	00H
	DB	0f8H
	DB	0fcH
	DB	0f8H
	DB	00H
	DB	0f8H
	DB	0fcH
	DB	0f8H
	DB	00H
	DB	0f8H
	DB	0fcH
	DB	0f8H
	DB	00H
	DB	0f8H
	DB	0fcH
	DB	0f8H
	DB	00H
	DB	0f8H
	DB	0fcH
	DB	0f8H
	DB	00H
	DB	0f8H
	DB	0fcH
	DB	0f8H
	DB	00H
	DB	0f8H
	DB	0fcH
	DB	0f8H
	DB	00H
	DB	0f8H
	DB	0fcH
	DB	0f8H
	DB	00H
	DB	0f8H
	DB	0fcH
	DB	0f8H
	DB	00H
	DB	0f8H
	DB	0fcH
	DB	0f8H
	DB	00H
	DB	0f8H
	DB	0fcH
	DB	0f8H
	DB	00H
	DB	0f8H
	DB	0fcH
	DB	0f8H
	DB	00H
	DB	0f8H
	DB	0fcH
	DB	0f8H
	DB	00H
	DB	0f8H
	DB	0fcH
	DB	0f8H
	DB	00H
	DB	0f8H
	DB	0fcH
	DB	0f8H
	DB	00H
	DB	0f8H
	DB	0fcH
	DB	0f8H
	DB	00H
	DB	0f8H
	DB	0fcH
	DB	0f8H
	DB	00H
	DB	0f8H
	DB	0fcH
	DB	0f8H
	DB	00H
	DB	0f8H
	DB	0fcH
	DB	0f8H
	DB	00H
	DB	0f8H
	DB	0e8H
	DB	0c8H
	DB	014H
	DB	0f8H
	DB	0e8H
	DB	0c8H
	DB	030H
	DB	0f8H
	DB	0e8H
	DB	0c8H
	DB	049H
	DB	0f8H
	DB	0e8H
	DB	0c0H
	DB	061H
	DB	0f8H
	DB	0e4H
	DB	0c0H
	DB	082H
	DB	0f8H
	DB	0e8H
	DB	0c0H
	DB	09aH
	DB	0f8H
	DB	0e4H
	DB	0c8H
	DB	0b2H
	DB	0f8H
	DB	0e4H
	DB	0c0H
	DB	0cfH
	DB	0f8H
	DB	0e4H
	DB	0c0H
	DB	0dfH
	DB	0f8H
	DB	0e4H
	DB	0c0H
	DB	0dfH
	DB	0f8H
	DB	0e4H
	DB	0c0H
	DB	0e3H
	DB	0f0H
	DB	0e0H
	DB	0c0H
	DB	0dfH
	DB	0f8H
	DB	0e4H
	DB	0c0H
	DB	0dfH
	DB	0f8H
	DB	0e0H
	DB	0c0H
	DB	0dfH
	DB	0f0H
	DB	0e0H
	DB	0b8H
	DB	0dfH
	DB	0f8H
	DB	0e0H
	DB	0c0H
	DB	0dfH
	DB	0f0H
	DB	0e0H
	DB	0b8H
	DB	0e3H
	DB	0f8H
	DB	0e0H
	DB	0b8H
	DB	0dfH
	DB	0f0H
	DB	0e0H
	DB	0b8H
	DB	0dfH
	DB	0f0H
	DB	0dcH
	DB	0b8H
	DB	0dfH
	DB	0f0H
	DB	0dcH
	DB	0b8H
	DB	0e3H
	DB	0f0H
	DB	0dcH
	DB	0b8H
	DB	0dfH
	DB	0f0H
	DB	0dcH
	DB	0b8H
	DB	0dfH
	DB	0f0H
	DB	0dcH
	DB	0b8H
	DB	0e3H
	DB	0f0H
	DB	0dcH
	DB	0b0H
	DB	0dfH
	DB	0f0H
	DB	0dcH
	DB	0b8H
	DB	0dfH
	DB	0e8H
	DB	0d8H
	DB	0b0H
	DB	0dfH
	DB	0f0H
	DB	0d8H
	DB	0b0H
	DB	0dfH
	DB	0e8H
	DB	0d8H
	DB	0b0H
	DB	0e3H
	DB	0e8H
	DB	0d8H
	DB	0b0H
	DB	0dfH
	DB	0e8H
	DB	0d8H
	DB	0b0H
	DB	0dfH
	DB	0f0H
	DB	0d8H
	DB	0b0H
	DB	0e3H
	DB	0e8H
	DB	0d8H
	DB	0b0H
	DB	0dfH
	DB	0e8H
	DB	0d8H
	DB	0b0H
	DB	0dfH
	DB	0f0H
	DB	0d4H
	DB	0b0H
	DB	0dfH
	DB	0e8H
	DB	0d4H
	DB	0b0H
	DB	0e3H
	DB	0e8H
	DB	0d4H
	DB	0b0H
	DB	0e3H
	DB	0e8H
	DB	0d4H
	DB	0a8H
	DB	0dfH
	DB	0e8H
	DB	0d4H
	DB	0a8H
	DB	0dfH
	DB	0e8H
	DB	0d4H
	DB	0a8H
	DB	0dfH
	DB	0e8H
	DB	0d4H
	DB	0a8H
	DB	0dfH
	DB	0e8H
	DB	0d4H
	DB	0a8H
	DB	0e3H
	DB	0e8H
	DB	0d4H
	DB	0a8H
	DB	0dfH
	DB	0e8H
	DB	0d4H
	DB	0a8H
	DB	0dfH
	DB	0e8H
	DB	0d4H
	DB	0a8H
	DB	0dfH
	DB	0e8H
	DB	0d4H
	DB	0a8H
	DB	0dfH
	DB	0e8H
	DB	0d4H
	DB	0a8H
	DB	0e3H
	DB	0e0H
	DB	0d0H
	DB	0a8H
	DB	0dfH
	DB	0e8H
	DB	0d4H
	DB	0a8H
	DB	0dfH
	DB	0e8H
	DB	0d0H
	DB	0a8H
	DB	0dfH
	DB	0e0H
	DB	0d0H
	DB	0a8H
	DB	0dfH
	DB	0e0H
	DB	0d0H
	DB	0a8H
	DB	0dfH
	DB	0e0H
	DB	0d0H
	DB	0a8H
	DB	0dfH
	DB	0e8H
	DB	0d0H
	DB	0a8H
	DB	0dfH
	DB	0e0H
	DB	0d0H
	DB	0a8H
	DB	0dfH
	DB	0e8H
	DB	0d0H
	DB	0a8H
	DB	0e3H
	DB	0e8H
	DB	0d0H
	DB	0a8H
	DB	0dfH
	DB	0e0H
	DB	0d0H
	DB	0a0H
	DB	0dfH
	DB	0e0H
	DB	0d0H
	DB	0a0H
	DB	0e3H
	DB	0e8H
	DB	0d0H
	DB	0a8H
	DB	0dfH
	DB	0e0H
	DB	0d0H
	DB	0a0H
	DB	0dfH
	DB	0e0H
	DB	0ccH
	DB	0a0H
	DB	0e3H
	DB	0e0H
	DB	0ccH
	DB	0a0H
	DB	0dfH
	DB	0e0H
	DB	0d0H
	DB	0a0H
	DB	0dfH
	DB	0e0H
	DB	0ccH
	DB	0a0H
	DB	0e3H
	DB	0e0H
	DB	0ccH
	DB	0a0H
	DB	0dfH
	DB	0e0H
	DB	0ccH
	DB	0a0H
	DB	0dfH
	DB	0e0H
	DB	0ccH
	DB	0a0H
	DB	0e3H
	DB	0e0H
	DB	0ccH
	DB	0a0H
	DB	0dfH
	DB	0e0H
	DB	0ccH
	DB	0a0H
	DB	0dfH
	DB	0e0H
	DB	0ccH
	DB	0a0H
	DB	0e3H
	DB	0e0H
	DB	0ccH
	DB	0a0H
	DB	0dfH
	DB	0e0H
	DB	0ccH
	DB	0a0H
	DB	0dfH
	DB	0e0H
	DB	0ccH
	DB	0a0H
	DB	0dfH
	DB	0e0H
	DB	0ccH
	DB	0a0H
	DB	0dfH
	DB	0d8H
	DB	0ccH
	DB	0a0H
	DB	0dfH
	DB	0e0H
	DB	0c8H
	DB	098H
	DB	0dfH
	DB	0d8H
	DB	0ccH
	DB	098H
	DB	0dfH
	DB	0d8H
	DB	0c8H
	DB	098H
	DB	0dfH
	DB	0e0H
	DB	0c8H
	DB	0a0H
	DB	0dfH
	DB	0e0H
	DB	0c8H
	DB	098H
	DB	0dfH
	DB	0d8H
	DB	0c8H
	DB	098H
	DB	0dfH
	DB	0d8H
	DB	0c8H
	DB	098H
	DB	0dfH
	DB	0e0H
	DB	0c8H
	DB	098H
	DB	0dfH
	DB	0d8H
	DB	0c8H
	DB	098H
	DB	0dfH
	DB	0d8H
	DB	0c8H
	DB	098H
	DB	0dfH
	DB	0e0H
	DB	0c8H
	DB	098H
	DB	0dfH
	DB	0d8H
	DB	0c8H
	DB	098H
	DB	0dfH
	DB	0d8H
	DB	0c8H
	DB	090H
	DB	0cbH
	DB	0d8H
	DB	0c8H
	DB	090H
	DB	0b6H
	DB	0d8H
	DB	0c8H
	DB	090H
	DB	09eH
	DB	0d8H
	DB	0c4H
	DB	090H
	DB	086H
	DB	0d8H
	DB	0c4H
	DB	090H
	DB	071H
	DB	0d8H
	DB	0c4H
	DB	090H
	DB	059H
	DB	0d8H
	DB	0c4H
	DB	090H
	DB	041H
	DB	0d8H
	DB	0c4H
	DB	090H
	DB	024H
	DB	0d8H
	DB	0c4H
	DB	090H
	DB	0cH
	DB	0f8H
	DB	0fcH
	DB	0f8H
	DB	00H
	DB	0f8H
	DB	0fcH
	DB	0f8H
	DB	00H
	DB	0f8H
	DB	0fcH
	DB	0f8H
	DB	00H
	DB	0f8H
	DB	0fcH
	DB	0f8H
	DB	00H
	DB	0f8H
	DB	0fcH
	DB	0f8H
	DB	00H
	DB	0f8H
	DB	0fcH
	DB	0f8H
	DB	00H
	DB	0f8H
	DB	0fcH
	DB	0f8H
	DB	00H
	DB	0f8H
	DB	0fcH
	DB	0f8H
	DB	00H
	DB	0f8H
	DB	0fcH
	DB	0f8H
	DB	00H
	DB	0f8H
	DB	0fcH
	DB	0f8H
	DB	00H
	DB	0f8H
	DB	0fcH
	DB	0f8H
	DB	00H
	DB	0f8H
	DB	0fcH
	DB	0f8H
	DB	00H
	DB	0f8H
	DB	0fcH
	DB	0f8H
	DB	00H
	DB	0f8H
	DB	0fcH
	DB	0f8H
	DB	00H
	DB	0f8H
	DB	0fcH
	DB	0f8H
	DB	00H
	DB	0f8H
	DB	0fcH
	DB	0f8H
	DB	00H
	DB	0f8H
	DB	0fcH
	DB	0f8H
	DB	00H
	DB	0f8H
	DB	0fcH
	DB	0f8H
	DB	00H
	DB	0f8H
	DB	0fcH
	DB	0f8H
	DB	00H
	DB	0f8H
	DB	0fcH
	DB	0f8H
	DB	00H
	DB	0f8H
	DB	0fcH
	DB	0f8H
	DB	00H
	DB	0f8H
	DB	0fcH
	DB	0f8H
	DB	00H
	DB	0f8H
	DB	0fcH
	DB	0f8H
	DB	00H
	DB	0f8H
	DB	0fcH
	DB	0f8H
	DB	00H
	DB	0f8H
	DB	0fcH
	DB	0f8H
	DB	00H
	DB	0f8H
	DB	0fcH
	DB	0f8H
	DB	00H
	DB	0f8H
	DB	0fcH
	DB	0f8H
	DB	00H
	DB	0f8H
	DB	0fcH
	DB	0f8H
	DB	00H
	DB	0f8H
	DB	0fcH
	DB	0f8H
	DB	00H
	DB	0f8H
	DB	0fcH
	DB	0f8H
	DB	00H
	DB	0f8H
	DB	0fcH
	DB	0f8H
	DB	00H
	DB	0f8H
	DB	0fcH
	DB	0f8H
	DB	00H
	DB	0f8H
	DB	0fcH
	DB	0f8H
	DB	00H
	DB	0f8H
	DB	0fcH
	DB	0f8H
	DB	00H
	DB	0f8H
	DB	0fcH
	DB	0f8H
	DB	00H
	DB	0f8H
	DB	0fcH
	DB	0f8H
	DB	00H
	DB	0f8H
	DB	0fcH
	DB	0f8H
	DB	00H
	DB	0f8H
	DB	0fcH
	DB	0f8H
	DB	00H
	DB	0f8H
	DB	0fcH
	DB	0f8H
	DB	00H
	DB	0f8H
	DB	0fcH
	DB	0f8H
	DB	00H
	DB	0f8H
	DB	0fcH
	DB	0f8H
	DB	00H
	DB	0f8H
	DB	0fcH
	DB	0f8H
	DB	00H
	DB	0f8H
	DB	0fcH
	DB	0f8H
	DB	00H
	DB	0f8H
	DB	0fcH
	DB	0f8H
	DB	00H
	DB	0f8H
	DB	0fcH
	DB	0f8H
	DB	00H
	DB	0f8H
	DB	0fcH
	DB	0f8H
	DB	00H
	DB	0f8H
	DB	0fcH
	DB	0f8H
	DB	00H
	DB	0f8H
	DB	0fcH
	DB	0f8H
	DB	00H
	DB	0f8H
	DB	0fcH
	DB	0f8H
	DB	00H
	DB	0f8H
	DB	0fcH
	DB	0f8H
	DB	00H
	DB	0f8H
	DB	0fcH
	DB	0f8H
	DB	00H
	DB	0f8H
	DB	0fcH
	DB	0f8H
	DB	00H
	DB	0f8H
	DB	0fcH
	DB	0f8H
	DB	00H
	DB	0f8H
	DB	0fcH
	DB	0f8H
	DB	00H
	DB	0f8H
	DB	0fcH
	DB	0f8H
	DB	00H
	DB	0f8H
	DB	0fcH
	DB	0f8H
	DB	00H
	DB	0f8H
	DB	0fcH
	DB	0f8H
	DB	00H
	DB	0f8H
	DB	0fcH
	DB	0f8H
	DB	00H
	DB	0f8H
	DB	0fcH
	DB	0f8H
	DB	00H
	DB	0f8H
	DB	0fcH
	DB	0f8H
	DB	00H
	DB	0f8H
	DB	0fcH
	DB	0f8H
	DB	00H
	DB	0f8H
	DB	0fcH
	DB	0f8H
	DB	00H
	DB	0f8H
	DB	0fcH
	DB	0f8H
	DB	00H
	DB	0f8H
	DB	0fcH
	DB	0f8H
	DB	00H
	DB	0f8H
	DB	0fcH
	DB	0f8H
	DB	00H
	DB	0f8H
	DB	0fcH
	DB	0f8H
	DB	00H
	DB	0f8H
	DB	0fcH
	DB	0f8H
	DB	00H
	DB	0f8H
	DB	0fcH
	DB	0f8H
	DB	00H
	DB	0f8H
	DB	0fcH
	DB	0f8H
	DB	00H
	DB	0f8H
	DB	0fcH
	DB	0f8H
	DB	00H
	DB	0f8H
	DB	0fcH
	DB	0f8H
	DB	00H
	DB	0f8H
	DB	0fcH
	DB	0f8H
	DB	00H
	DB	0f8H
	DB	0fcH
	DB	0f8H
	DB	00H
	DB	0f8H
	DB	0fcH
	DB	0f8H
	DB	00H
	DB	0f8H
	DB	0fcH
	DB	0f8H
	DB	00H
	DB	0f8H
	DB	0e4H
	DB	0c0H
	DB	08H
	DB	0f8H
	DB	0e4H
	DB	0c0H
	DB	024H
	DB	0f8H
	DB	0e4H
	DB	0c0H
	DB	03cH
	DB	0f8H
	DB	0e4H
	DB	0c0H
	DB	055H
	DB	0f8H
	DB	0e0H
	DB	0c0H
	DB	069H
	DB	0f0H
	DB	0e0H
	DB	0b8H
	DB	082H
	DB	0f8H
	DB	0e0H
	DB	0b8H
	DB	09aH
	DB	0f0H
	DB	0e0H
	DB	0b8H
	DB	0b2H
	DB	0f0H
	DB	0e0H
	DB	0c0H
	DB	0c7H
	DB	0f8H
	DB	0e0H
	DB	0b8H
	DB	0dbH
	DB	0f0H
	DB	0dcH
	DB	0b8H
	DB	0e3H
	DB	0f0H
	DB	0dcH
	DB	0b8H
	DB	0dfH
	DB	0f0H
	DB	0dcH
	DB	0b8H
	DB	0dfH
	DB	0f0H
	DB	0dcH
	DB	0b8H
	DB	0e3H
	DB	0f0H
	DB	0dcH
	DB	0b0H
	DB	0dfH
	DB	0f0H
	DB	0dcH
	DB	0b8H
	DB	0dfH
	DB	0f0H
	DB	0d8H
	DB	0b0H
	DB	0dfH
	DB	0f0H
	DB	0dcH
	DB	0b0H
	DB	0e3H
	DB	0f0H
	DB	0d8H
	DB	0b0H
	DB	0dfH
	DB	0e8H
	DB	0d8H
	DB	0b0H
	DB	0dfH
	DB	0f0H
	DB	0d8H
	DB	0b0H
	DB	0dfH
	DB	0e8H
	DB	0d8H
	DB	0b0H
	DB	0dfH
	DB	0f0H
	DB	0d8H
	DB	0b0H
	DB	0dfH
	DB	0e8H
	DB	0d8H
	DB	0b0H
	DB	0e3H
	DB	0e8H
	DB	0d4H
	DB	0b0H
	DB	0dfH
	DB	0f0H
	DB	0d8H
	DB	0b0H
	DB	0dfH
	DB	0e8H
	DB	0d4H
	DB	0a8H
	DB	0dfH
	DB	0e8H
	DB	0d4H
	DB	0a8H
	DB	0dfH
	DB	0e8H
	DB	0d4H
	DB	0a8H
	DB	0dfH
	DB	0e8H
	DB	0d4H
	DB	0a8H
	DB	0e3H
	DB	0e8H
	DB	0d4H
	DB	0a8H
	DB	0dfH
	DB	0e8H
	DB	0d4H
	DB	0a8H
	DB	0dfH
	DB	0e8H
	DB	0d4H
	DB	0a8H
	DB	0e3H
	DB	0e8H
	DB	0d4H
	DB	0a8H
	DB	0dfH
	DB	0e8H
	DB	0d4H
	DB	0a8H
	DB	0dfH
	DB	0e8H
	DB	0d0H
	DB	0a8H
	DB	0e3H
	DB	0e8H
	DB	0d0H
	DB	0a8H
	DB	0dfH
	DB	0e0H
	DB	0d4H
	DB	0a8H
	DB	0dfH
	DB	0e0H
	DB	0d0H
	DB	0a8H
	DB	0dfH
	DB	0e8H
	DB	0d0H
	DB	0a8H
	DB	0dfH
	DB	0e0H
	DB	0d0H
	DB	0a8H
	DB	0e3H
	DB	0e0H
	DB	0d0H
	DB	0a8H
	DB	0e3H
	DB	0e8H
	DB	0d0H
	DB	0a8H
	DB	0dfH
	DB	0e8H
	DB	0d0H
	DB	0a8H
	DB	0dfH
	DB	0e0H
	DB	0d0H
	DB	0a0H
	DB	0e3H
	DB	0e0H
	DB	0d0H
	DB	0a8H
	DB	0dfH
	DB	0e0H
	DB	0d0H
	DB	0a8H
	DB	0dfH
	DB	0e0H
	DB	0d0H
	DB	0a0H
	DB	0dfH
	DB	0e0H
	DB	0d0H
	DB	0a0H
	DB	0e3H
	DB	0e0H
	DB	0d0H
	DB	0a0H
	DB	0dfH
	DB	0e0H
	DB	0ccH
	DB	0a0H
	DB	0dfH
	DB	0e0H
	DB	0ccH
	DB	0a0H
	DB	0dfH
	DB	0e0H
	DB	0ccH
	DB	0a0H
	DB	0dfH
	DB	0e0H
	DB	0ccH
	DB	0a0H
	DB	0dfH
	DB	0e0H
	DB	0ccH
	DB	0a0H
	DB	0dfH
	DB	0e0H
	DB	0ccH
	DB	0a0H
	DB	0dfH
	DB	0e0H
	DB	0ccH
	DB	0a0H
	DB	0dfH
	DB	0e0H
	DB	0ccH
	DB	0a0H
	DB	0dfH
	DB	0e0H
	DB	0ccH
	DB	0a0H
	DB	0e3H
	DB	0e0H
	DB	0ccH
	DB	0a0H
	DB	0dfH
	DB	0e0H
	DB	0ccH
	DB	0a0H
	DB	0dfH
	DB	0e0H
	DB	0ccH
	DB	0a0H
	DB	0dfH
	DB	0e0H
	DB	0ccH
	DB	0a0H
	DB	0dfH
	DB	0e0H
	DB	0ccH
	DB	0a0H
	DB	0e3H
	DB	0e0H
	DB	0ccH
	DB	0a0H
	DB	0dfH
	DB	0d8H
	DB	0c8H
	DB	098H
	DB	0dfH
	DB	0d8H
	DB	0ccH
	DB	098H
	DB	0e3H
	DB	0e0H
	DB	0c8H
	DB	098H
	DB	0dfH
	DB	0e0H
	DB	0c8H
	DB	098H
	DB	0dfH
	DB	0d8H
	DB	0c8H
	DB	098H
	DB	0e3H
	DB	0d8H
	DB	0c8H
	DB	098H
	DB	0dfH
	DB	0e0H
	DB	0c8H
	DB	098H
	DB	0e3H
	DB	0d8H
	DB	0c8H
	DB	098H
	DB	0dfH
	DB	0d8H
	DB	0c8H
	DB	098H
	DB	0dfH
	DB	0e0H
	DB	0c8H
	DB	098H
	DB	0dfH
	DB	0d8H
	DB	0c8H
	DB	098H
	DB	0e3H
	DB	0e0H
	DB	0c8H
	DB	098H
	DB	0dfH
	DB	0d8H
	DB	0c8H
	DB	098H
	DB	0dfH
	DB	0d8H
	DB	0c8H
	DB	090H
	DB	0e3H
	DB	0d8H
	DB	0c4H
	DB	090H
	DB	0dfH
	DB	0d8H
	DB	0c4H
	DB	098H
	DB	0dfH
	DB	0d8H
	DB	0c4H
	DB	090H
	DB	0dfH
	DB	0d8H
	DB	0c4H
	DB	090H
	DB	0dfH
	DB	0d8H
	DB	0c4H
	DB	090H
	DB	0dfH
	DB	0d8H
	DB	0c4H
	DB	090H
	DB	0dfH
	DB	0d8H
	DB	0c4H
	DB	090H
	DB	0dfH
	DB	0d8H
	DB	0c4H
	DB	090H
	DB	0dfH
	DB	0d8H
	DB	0c4H
	DB	090H
	DB	0dfH
	DB	0d8H
	DB	0c4H
	DB	090H
	DB	0dfH
	DB	0d8H
	DB	0c4H
	DB	090H
	DB	0d7H
	DB	0d8H
	DB	0c4H
	DB	090H
	DB	0baH
	DB	0d8H
	DB	0c4H
	DB	088H
	DB	0a2H
	DB	0d8H
	DB	0c0H
	DB	088H
	DB	08aH
	DB	0d0H
	DB	0c0H
	DB	088H
	DB	071H
	DB	0d8H
	DB	0c4H
	DB	088H
	DB	051H
	DB	0d8H
	DB	0c0H
	DB	088H
	DB	034H
	DB	0d0H
	DB	0c0H
	DB	088H
	DB	010H
	DB	0f8H
	DB	0fcH
	DB	0f8H
	DB	00H
	DB	0f8H
	DB	0fcH
	DB	0f8H
	DB	00H
	DB	0f8H
	DB	0fcH
	DB	0f8H
	DB	00H
	DB	0f8H
	DB	0fcH
	DB	0f8H
	DB	00H
	DB	0f8H
	DB	0fcH
	DB	0f8H
	DB	00H
	DB	0f8H
	DB	0fcH
	DB	0f8H
	DB	00H
	DB	0f8H
	DB	0fcH
	DB	0f8H
	DB	00H
	DB	0f8H
	DB	0fcH
	DB	0f8H
	DB	00H
	DB	0f8H
	DB	0fcH
	DB	0f8H
	DB	00H
	DB	0f8H
	DB	0fcH
	DB	0f8H
	DB	00H
	DB	0f8H
	DB	0fcH
	DB	0f8H
	DB	00H
	DB	0f8H
	DB	0fcH
	DB	0f8H
	DB	00H
	DB	0f8H
	DB	0fcH
	DB	0f8H
	DB	00H
	DB	0f8H
	DB	0fcH
	DB	0f8H
	DB	00H
	DB	0f8H
	DB	0fcH
	DB	0f8H
	DB	00H
	DB	0f8H
	DB	0fcH
	DB	0f8H
	DB	00H
	DB	0f8H
	DB	0fcH
	DB	0f8H
	DB	00H
	DB	0f8H
	DB	0fcH
	DB	0f8H
	DB	00H
	DB	0f8H
	DB	0fcH
	DB	0f8H
	DB	00H
	DB	0f8H
	DB	0fcH
	DB	0f8H
	DB	00H
	DB	0f8H
	DB	0fcH
	DB	0f8H
	DB	00H
	DB	0f8H
	DB	0fcH
	DB	0f8H
	DB	00H
	DB	0f8H
	DB	0fcH
	DB	0f8H
	DB	00H
	DB	0f8H
	DB	0fcH
	DB	0f8H
	DB	00H
	DB	0f8H
	DB	0fcH
	DB	0f8H
	DB	00H
	DB	0f8H
	DB	0fcH
	DB	0f8H
	DB	00H
	DB	0f8H
	DB	0fcH
	DB	0f8H
	DB	00H
	DB	0f8H
	DB	0fcH
	DB	0f8H
	DB	00H
	DB	0f8H
	DB	0fcH
	DB	0f8H
	DB	00H
	DB	0f8H
	DB	0fcH
	DB	0f8H
	DB	00H
	DB	0f8H
	DB	0fcH
	DB	0f8H
	DB	00H
	DB	0f8H
	DB	0fcH
	DB	0f8H
	DB	00H
	DB	0f8H
	DB	0fcH
	DB	0f8H
	DB	00H
	DB	0f8H
	DB	0fcH
	DB	0f8H
	DB	00H
	DB	0f8H
	DB	0fcH
	DB	0f8H
	DB	00H
	DB	0f8H
	DB	0fcH
	DB	0f8H
	DB	00H
	DB	0f8H
	DB	0fcH
	DB	0f8H
	DB	00H
	DB	0f8H
	DB	0fcH
	DB	0f8H
	DB	00H
	DB	0f8H
	DB	0fcH
	DB	0f8H
	DB	00H
	DB	0f8H
	DB	0fcH
	DB	0f8H
	DB	00H
	DB	0f8H
	DB	0fcH
	DB	0f8H
	DB	00H
	DB	0f8H
	DB	0fcH
	DB	0f8H
	DB	00H
	DB	0f8H
	DB	0fcH
	DB	0f8H
	DB	00H
	DB	0f8H
	DB	0fcH
	DB	0f8H
	DB	00H
	DB	0f8H
	DB	0fcH
	DB	0f8H
	DB	00H
	DB	0f8H
	DB	0fcH
	DB	0f8H
	DB	00H
	DB	0f8H
	DB	0fcH
	DB	0f8H
	DB	00H
	DB	0f8H
	DB	0fcH
	DB	0f8H
	DB	00H
	DB	0f8H
	DB	0fcH
	DB	0f8H
	DB	00H
	DB	0f8H
	DB	0fcH
	DB	0f8H
	DB	00H
	DB	0f8H
	DB	0fcH
	DB	0f8H
	DB	00H
	DB	0f8H
	DB	0fcH
	DB	0f8H
	DB	00H
	DB	0f8H
	DB	0fcH
	DB	0f8H
	DB	00H
	DB	0f8H
	DB	0fcH
	DB	0f8H
	DB	00H
	DB	0f8H
	DB	0fcH
	DB	0f8H
	DB	00H
	DB	0f8H
	DB	0fcH
	DB	0f8H
	DB	00H
	DB	0f8H
	DB	0fcH
	DB	0f8H
	DB	00H
	DB	0f8H
	DB	0fcH
	DB	0f8H
	DB	00H
	DB	0f8H
	DB	0fcH
	DB	0f8H
	DB	00H
	DB	0f8H
	DB	0fcH
	DB	0f8H
	DB	00H
	DB	0f8H
	DB	0fcH
	DB	0f8H
	DB	00H
	DB	0f8H
	DB	0fcH
	DB	0f8H
	DB	00H
	DB	0f8H
	DB	0fcH
	DB	0f8H
	DB	00H
	DB	0f8H
	DB	0fcH
	DB	0f8H
	DB	00H
	DB	0f8H
	DB	0fcH
	DB	0f8H
	DB	00H
	DB	0f8H
	DB	0fcH
	DB	0f8H
	DB	00H
	DB	0f8H
	DB	0fcH
	DB	0f8H
	DB	00H
	DB	0f8H
	DB	0fcH
	DB	0f8H
	DB	00H
	DB	0f8H
	DB	0fcH
	DB	0f8H
	DB	00H
	DB	0f8H
	DB	0fcH
	DB	0f8H
	DB	00H
	DB	0f8H
	DB	0fcH
	DB	0f8H
	DB	00H
	DB	0f8H
	DB	0fcH
	DB	0f8H
	DB	00H
	DB	0f8H
	DB	0fcH
	DB	0f8H
	DB	00H
	DB	0f8H
	DB	0fcH
	DB	0f8H
	DB	00H
	DB	0f8H
	DB	0fcH
	DB	0f8H
	DB	00H
	DB	0f8H
	DB	0fcH
	DB	0f8H
	DB	00H
	DB	0f0H
	DB	0dcH
	DB	0b8H
	DB	04H
	DB	0f0H
	DB	0dcH
	DB	0b8H
	DB	018H
	DB	0f0H
	DB	0dcH
	DB	0b8H
	DB	030H
	DB	0f0H
	DB	0dcH
	DB	0b8H
	DB	045H
	DB	0f0H
	DB	0dcH
	DB	0b0H
	DB	059H
	DB	0f0H
	DB	0dcH
	DB	0b0H
	DB	06dH
	DB	0f0H
	DB	0d8H
	DB	0b0H
	DB	07dH
	DB	0f0H
	DB	0d8H
	DB	0b0H
	DB	08eH
	DB	0e8H
	DB	0d8H
	DB	0b0H
	DB	0a2H
	DB	0f0H
	DB	0d8H
	DB	0b0H
	DB	0b6H
	DB	0e8H
	DB	0d8H
	DB	0b0H
	DB	0c7H
	DB	0e8H
	DB	0d8H
	DB	0b0H
	DB	0d7H
	DB	0f0H
	DB	0d8H
	DB	0b0H
	DB	0e3H
	DB	0e8H
	DB	0d8H
	DB	0b0H
	DB	0dfH
	DB	0e8H
	DB	0d4H
	DB	0b0H
	DB	0dfH
	DB	0e8H
	DB	0d4H
	DB	0a8H
	DB	0e3H
	DB	0e8H
	DB	0d4H
	DB	0a8H
	DB	0dfH
	DB	0e8H
	DB	0d4H
	DB	0b0H
	DB	0e3H
	DB	0e8H
	DB	0d4H
	DB	0a8H
	DB	0dfH
	DB	0e8H
	DB	0d4H
	DB	0a8H
	DB	0dfH
	DB	0e8H
	DB	0d4H
	DB	0a8H
	DB	0dfH
	DB	0e8H
	DB	0d4H
	DB	0a8H
	DB	0dfH
	DB	0e8H
	DB	0d4H
	DB	0a8H
	DB	0e3H
	DB	0e8H
	DB	0d0H
	DB	0a8H
	DB	0dfH
	DB	0e8H
	DB	0d4H
	DB	0a8H
	DB	0dfH
	DB	0e8H
	DB	0d0H
	DB	0a8H
	DB	0dfH
	DB	0e0H
	DB	0d0H
	DB	0a8H
	DB	0e3H
	DB	0e0H
	DB	0d0H
	DB	0a8H
	DB	0dfH
	DB	0e8H
	DB	0d0H
	DB	0a8H
	DB	0dfH
	DB	0e8H
	DB	0d0H
	DB	0a8H
	DB	0e3H
	DB	0e0H
	DB	0d0H
	DB	0a8H
	DB	0dfH
	DB	0e8H
	DB	0d0H
	DB	0a0H
	DB	0dfH
	DB	0e0H
	DB	0d0H
	DB	0a0H
	DB	0dfH
	DB	0e0H
	DB	0d0H
	DB	0a0H
	DB	0dfH
	DB	0e8H
	DB	0d0H
	DB	0a0H
	DB	0e3H
	DB	0e0H
	DB	0d0H
	DB	0a0H
	DB	0dfH
	DB	0e0H
	DB	0d0H
	DB	0a0H
	DB	0dfH
	DB	0e8H
	DB	0ccH
	DB	0a0H
	DB	0e3H
	DB	0e0H
	DB	0ccH
	DB	0a0H
	DB	0dfH
	DB	0e0H
	DB	0d0H
	DB	0a0H
	DB	0dfH
	DB	0e0H
	DB	0ccH
	DB	0a0H
	DB	0dfH
	DB	0e0H
	DB	0ccH
	DB	0a0H
	DB	0e3H
	DB	0e0H
	DB	0ccH
	DB	0a0H
	DB	0dfH
	DB	0e0H
	DB	0ccH
	DB	0a0H
	DB	0e3H
	DB	0e0H
	DB	0ccH
	DB	0a0H
	DB	0dfH
	DB	0e0H
	DB	0ccH
	DB	0a0H
	DB	0dfH
	DB	0e0H
	DB	0ccH
	DB	0a0H
	DB	0e3H
	DB	0e0H
	DB	0ccH
	DB	0a0H
	DB	0dfH
	DB	0e0H
	DB	0ccH
	DB	0a0H
	DB	0dfH
	DB	0e0H
	DB	0ccH
	DB	0a0H
	DB	0dfH
	DB	0e0H
	DB	0ccH
	DB	0a0H
	DB	0dfH
	DB	0e0H
	DB	0ccH
	DB	0a0H
	DB	0e3H
	DB	0e0H
	DB	0ccH
	DB	098H
	DB	0dfH
	DB	0e0H
	DB	0c8H
	DB	098H
	DB	0dfH
	DB	0d8H
	DB	0ccH
	DB	098H
	DB	0dfH
	DB	0e0H
	DB	0c8H
	DB	098H
	DB	0dfH
	DB	0e0H
	DB	0c8H
	DB	098H
	DB	0e3H
	DB	0d8H
	DB	0c8H
	DB	098H
	DB	0dfH
	DB	0e0H
	DB	0c8H
	DB	098H
	DB	0dfH
	DB	0d8H
	DB	0c8H
	DB	098H
	DB	0dfH
	DB	0e0H
	DB	0c8H
	DB	098H
	DB	0dfH
	DB	0e0H
	DB	0c8H
	DB	098H
	DB	0dfH
	DB	0d8H
	DB	0c8H
	DB	098H
	DB	0dfH
	DB	0d8H
	DB	0c8H
	DB	098H
	DB	0e3H
	DB	0e0H
	DB	0c8H
	DB	098H
	DB	0dfH
	DB	0d8H
	DB	0c8H
	DB	098H
	DB	0dfH
	DB	0d8H
	DB	0c8H
	DB	098H
	DB	0e3H
	DB	0d8H
	DB	0c4H
	DB	090H
	DB	0dfH
	DB	0d8H
	DB	0c8H
	DB	090H
	DB	0dfH
	DB	0d8H
	DB	0c4H
	DB	090H
	DB	0dfH
	DB	0d8H
	DB	0c4H
	DB	090H
	DB	0dfH
	DB	0e0H
	DB	0c4H
	DB	090H
	DB	0dfH
	DB	0d8H
	DB	0c4H
	DB	090H
	DB	0dfH
	DB	0d8H
	DB	0c4H
	DB	090H
	DB	0dfH
	DB	0d8H
	DB	0c4H
	DB	090H
	DB	0dfH
	DB	0d8H
	DB	0c4H
	DB	090H
	DB	0dfH
	DB	0d8H
	DB	0c4H
	DB	090H
	DB	0dfH
	DB	0d8H
	DB	0c4H
	DB	090H
	DB	0dfH
	DB	0d8H
	DB	0c4H
	DB	090H
	DB	0e3H
	DB	0d8H
	DB	0c4H
	DB	088H
	DB	0dfH
	DB	0d8H
	DB	0c0H
	DB	088H
	DB	0dfH
	DB	0d0H
	DB	0c0H
	DB	090H
	DB	0dfH
	DB	0d0H
	DB	0c0H
	DB	088H
	DB	0dfH
	DB	0d8H
	DB	0c0H
	DB	088H
	DB	0dfH
	DB	0d0H
	DB	0c0H
	DB	090H
	DB	0dfH
	DB	0d0H
	DB	0c0H
	DB	088H
	DB	0dfH
	DB	0d8H
	DB	0c0H
	DB	088H
	DB	0dfH
	DB	0d0H
	DB	0c0H
	DB	088H
	DB	0dfH
	DB	0d0H
	DB	0bcH
	DB	088H
	DB	0c3H
	DB	0d0H
	DB	0bcH
	DB	088H
	DB	08eH
	DB	0d0H
	DB	0bcH
	DB	088H
	DB	04dH
	DB	0d0H
	DB	0bcH
	DB	088H
	DB	04H
	DB	0f8H
	DB	0fcH
	DB	0f8H
	DB	00H
	DB	0f8H
	DB	0fcH
	DB	0f8H
	DB	00H
	DB	0f8H
	DB	0fcH
	DB	0f8H
	DB	00H
	DB	0f8H
	DB	0fcH
	DB	0f8H
	DB	00H
	DB	0f8H
	DB	0fcH
	DB	0f8H
	DB	00H
	DB	0f8H
	DB	0fcH
	DB	0f8H
	DB	00H
	DB	0f8H
	DB	0fcH
	DB	0f8H
	DB	00H
	DB	0f8H
	DB	0fcH
	DB	0f8H
	DB	00H
	DB	0f8H
	DB	0fcH
	DB	0f8H
	DB	00H
	DB	0f8H
	DB	0fcH
	DB	0f8H
	DB	00H
	DB	0f8H
	DB	0fcH
	DB	0f8H
	DB	00H
	DB	0f8H
	DB	0fcH
	DB	0f8H
	DB	00H
	DB	0f8H
	DB	0fcH
	DB	0f8H
	DB	00H
	DB	0f8H
	DB	0fcH
	DB	0f8H
	DB	00H
	DB	0f8H
	DB	0fcH
	DB	0f8H
	DB	00H
	DB	0f8H
	DB	0fcH
	DB	0f8H
	DB	00H
	DB	0f8H
	DB	0fcH
	DB	0f8H
	DB	00H
	DB	0f8H
	DB	0fcH
	DB	0f8H
	DB	00H
	DB	0f8H
	DB	0fcH
	DB	0f8H
	DB	00H
	DB	0f8H
	DB	0fcH
	DB	0f8H
	DB	00H
	DB	0f8H
	DB	0fcH
	DB	0f8H
	DB	00H
	DB	0f8H
	DB	0fcH
	DB	0f8H
	DB	00H
	DB	0f8H
	DB	0fcH
	DB	0f8H
	DB	00H
	DB	0f8H
	DB	0fcH
	DB	0f8H
	DB	00H
	DB	0f8H
	DB	0fcH
	DB	0f8H
	DB	00H
	DB	0f8H
	DB	0fcH
	DB	0f8H
	DB	00H
	DB	0f8H
	DB	0fcH
	DB	0f8H
	DB	00H
	DB	0f8H
	DB	0fcH
	DB	0f8H
	DB	00H
	DB	0f8H
	DB	0fcH
	DB	0f8H
	DB	00H
	DB	0f8H
	DB	0fcH
	DB	0f8H
	DB	00H
	DB	0f8H
	DB	0fcH
	DB	0f8H
	DB	00H
	DB	0f8H
	DB	0fcH
	DB	0f8H
	DB	00H
	DB	0f8H
	DB	0fcH
	DB	0f8H
	DB	00H
	DB	0f8H
	DB	0fcH
	DB	0f8H
	DB	00H
	DB	0f8H
	DB	0fcH
	DB	0f8H
	DB	00H
	DB	0f8H
	DB	0fcH
	DB	0f8H
	DB	00H
	DB	0f8H
	DB	0fcH
	DB	0f8H
	DB	00H
	DB	0f8H
	DB	0fcH
	DB	0f8H
	DB	00H
	DB	0f8H
	DB	0fcH
	DB	0f8H
	DB	00H
	DB	0f8H
	DB	0fcH
	DB	0f8H
	DB	00H
	DB	0f8H
	DB	0fcH
	DB	0f8H
	DB	00H
	DB	0f8H
	DB	0fcH
	DB	0f8H
	DB	00H
	DB	0f8H
	DB	0fcH
	DB	0f8H
	DB	00H
	DB	0f8H
	DB	0fcH
	DB	0f8H
	DB	00H
	DB	0f8H
	DB	0fcH
	DB	0f8H
	DB	00H
	DB	0f8H
	DB	0fcH
	DB	0f8H
	DB	00H
	DB	0f8H
	DB	0fcH
	DB	0f8H
	DB	00H
	DB	0f8H
	DB	0fcH
	DB	0f8H
	DB	00H
	DB	0f8H
	DB	0fcH
	DB	0f8H
	DB	00H
	DB	0f8H
	DB	0fcH
	DB	0f8H
	DB	00H
	DB	0f8H
	DB	0fcH
	DB	0f8H
	DB	00H
	DB	0f8H
	DB	0fcH
	DB	0f8H
	DB	00H
	DB	0f8H
	DB	0fcH
	DB	0f8H
	DB	00H
	DB	0f8H
	DB	0fcH
	DB	0f8H
	DB	00H
	DB	0f8H
	DB	0fcH
	DB	0f8H
	DB	00H
	DB	0f8H
	DB	0fcH
	DB	0f8H
	DB	00H
	DB	0f8H
	DB	0fcH
	DB	0f8H
	DB	00H
	DB	0f8H
	DB	0fcH
	DB	0f8H
	DB	00H
	DB	0f8H
	DB	0fcH
	DB	0f8H
	DB	00H
	DB	0f8H
	DB	0fcH
	DB	0f8H
	DB	00H
	DB	0f8H
	DB	0fcH
	DB	0f8H
	DB	00H
	DB	0f8H
	DB	0fcH
	DB	0f8H
	DB	00H
	DB	0f8H
	DB	0fcH
	DB	0f8H
	DB	00H
	DB	0f8H
	DB	0fcH
	DB	0f8H
	DB	00H
	DB	0f8H
	DB	0fcH
	DB	0f8H
	DB	00H
	DB	0f8H
	DB	0fcH
	DB	0f8H
	DB	00H
	DB	0f8H
	DB	0fcH
	DB	0f8H
	DB	00H
	DB	0f8H
	DB	0fcH
	DB	0f8H
	DB	00H
	DB	0f8H
	DB	0fcH
	DB	0f8H
	DB	00H
	DB	0f8H
	DB	0fcH
	DB	0f8H
	DB	00H
	DB	0f8H
	DB	0fcH
	DB	0f8H
	DB	00H
	DB	0f8H
	DB	0fcH
	DB	0f8H
	DB	00H
	DB	0f8H
	DB	0fcH
	DB	0f8H
	DB	00H
	DB	0f8H
	DB	0fcH
	DB	0f8H
	DB	00H
	DB	0f8H
	DB	0fcH
	DB	0f8H
	DB	00H
	DB	0f8H
	DB	0fcH
	DB	0f8H
	DB	00H
	DB	0f8H
	DB	0fcH
	DB	0f8H
	DB	00H
	DB	0f8H
	DB	0fcH
	DB	0f8H
	DB	00H
	DB	0f8H
	DB	0fcH
	DB	0f8H
	DB	00H
	DB	0f8H
	DB	0fcH
	DB	0f8H
	DB	00H
	DB	0f8H
	DB	0fcH
	DB	0f8H
	DB	00H
	DB	0f8H
	DB	0fcH
	DB	0f8H
	DB	00H
	DB	0f8H
	DB	0fcH
	DB	0f8H
	DB	00H
	DB	0f8H
	DB	0fcH
	DB	0f8H
	DB	00H
	DB	0e8H
	DB	0d8H
	DB	0b0H
	DB	08H
	DB	0e8H
	DB	0d4H
	DB	0a8H
	DB	014H
	DB	0f0H
	DB	0d4H
	DB	0a8H
	DB	020H
	DB	0e8H
	DB	0d4H
	DB	0b0H
	DB	02cH
	DB	0e8H
	DB	0d4H
	DB	0a8H
	DB	03cH
	DB	0e8H
	DB	0d4H
	DB	0a8H
	DB	049H
	DB	0e8H
	DB	0d4H
	DB	0a8H
	DB	055H
	DB	0e8H
	DB	0d4H
	DB	0a8H
	DB	061H
	DB	0e8H
	DB	0d0H
	DB	0a8H
	DB	06dH
	DB	0e8H
	DB	0d4H
	DB	0a8H
	DB	079H
	DB	0e8H
	DB	0d0H
	DB	0a8H
	DB	086H
	DB	0e8H
	DB	0d4H
	DB	0a8H
	DB	096H
	DB	0e8H
	DB	0d0H
	DB	0a8H
	DB	0a2H
	DB	0e0H
	DB	0d0H
	DB	0a8H
	DB	0aeH
	DB	0e8H
	DB	0d0H
	DB	0a8H
	DB	0baH
	DB	0e8H
	DB	0d0H
	DB	0a8H
	DB	0c7H
	DB	0e0H
	DB	0d0H
	DB	0a0H
	DB	0d3H
	DB	0e8H
	DB	0d0H
	DB	0a0H
	DB	0dfH
	DB	0e0H
	DB	0d0H
	DB	0a0H
	DB	0dfH
	DB	0e0H
	DB	0d0H
	DB	0a8H
	DB	0dfH
	DB	0e8H
	DB	0d0H
	DB	0a0H
	DB	0dfH
	DB	0e0H
	DB	0ccH
	DB	0a0H
	DB	0dfH
	DB	0e0H
	DB	0ccH
	DB	0a0H
	DB	0dfH
	DB	0e0H
	DB	0d0H
	DB	0a0H
	DB	0dfH
	DB	0e0H
	DB	0ccH
	DB	0a0H
	DB	0dfH
	DB	0e8H
	DB	0ccH
	DB	0a0H
	DB	0dfH
	DB	0e0H
	DB	0ccH
	DB	0a0H
	DB	0e3H
	DB	0e0H
	DB	0ccH
	DB	0a0H
	DB	0dfH
	DB	0e8H
	DB	0ccH
	DB	0a0H
	DB	0dfH
	DB	0e0H
	DB	0ccH
	DB	0a0H
	DB	0dfH
	DB	0e0H
	DB	0ccH
	DB	0a0H
	DB	0dfH
	DB	0e0H
	DB	0ccH
	DB	0a0H
	DB	0e3H
	DB	0e0H
	DB	0ccH
	DB	0a0H
	DB	0dfH
	DB	0e0H
	DB	0ccH
	DB	0a0H
	DB	0dfH
	DB	0e0H
	DB	0ccH
	DB	0a0H
	DB	0e3H
	DB	0e0H
	DB	0ccH
	DB	0a0H
	DB	0dfH
	DB	0e0H
	DB	0ccH
	DB	098H
	DB	0dfH
	DB	0e0H
	DB	0c8H
	DB	098H
	DB	0e3H
	DB	0e0H
	DB	0ccH
	DB	0a0H
	DB	0dfH
	DB	0e0H
	DB	0c8H
	DB	098H
	DB	0dfH
	DB	0d8H
	DB	0c8H
	DB	098H
	DB	0e3H
	DB	0d8H
	DB	0c8H
	DB	098H
	DB	0dfH
	DB	0e0H
	DB	0c8H
	DB	0a0H
	DB	0dfH
	DB	0e0H
	DB	0c8H
	DB	098H
	DB	0e3H
	DB	0d8H
	DB	0c8H
	DB	098H
	DB	0dfH
	DB	0e0H
	DB	0c8H
	DB	098H
	DB	0dfH
	DB	0d8H
	DB	0c8H
	DB	098H
	DB	0e3H
	DB	0d8H
	DB	0c8H
	DB	098H
	DB	0dfH
	DB	0d8H
	DB	0c8H
	DB	098H
	DB	0e3H
	DB	0e0H
	DB	0c8H
	DB	098H
	DB	0dfH
	DB	0d8H
	DB	0c8H
	DB	098H
	DB	0dfH
	DB	0d8H
	DB	0c4H
	DB	098H
	DB	0dfH
	DB	0d8H
	DB	0c8H
	DB	098H
	DB	0dfH
	DB	0d8H
	DB	0c4H
	DB	090H
	DB	0dfH
	DB	0d8H
	DB	0c4H
	DB	090H
	DB	0dfH
	DB	0d8H
	DB	0c4H
	DB	098H
	DB	0e3H
	DB	0d8H
	DB	0c4H
	DB	090H
	DB	0dfH
	DB	0d8H
	DB	0c4H
	DB	090H
	DB	0dfH
	DB	0d8H
	DB	0c4H
	DB	090H
	DB	0e3H
	DB	0d8H
	DB	0c4H
	DB	090H
	DB	0e3H
	DB	0d8H
	DB	0c4H
	DB	090H
	DB	0dfH
	DB	0d8H
	DB	0c4H
	DB	090H
	DB	0e3H
	DB	0d8H
	DB	0c4H
	DB	090H
	DB	0e3H
	DB	0d8H
	DB	0c4H
	DB	090H
	DB	0dfH
	DB	0d8H
	DB	0c4H
	DB	090H
	DB	0dfH
	DB	0d8H
	DB	0c0H
	DB	090H
	DB	0e3H
	DB	0d0H
	DB	0c4H
	DB	088H
	DB	0dfH
	DB	0d0H
	DB	0c0H
	DB	088H
	DB	0dfH
	DB	0d8H
	DB	0c0H
	DB	088H
	DB	0dfH
	DB	0d8H
	DB	0c0H
	DB	088H
	DB	0e3H
	DB	0d0H
	DB	0c0H
	DB	088H
	DB	0dfH
	DB	0d8H
	DB	0c0H
	DB	088H
	DB	0dfH
	DB	0d8H
	DB	0c0H
	DB	088H
	DB	0e3H
	DB	0d0H
	DB	0c0H
	DB	088H
	DB	0dfH
	DB	0d0H
	DB	0c0H
	DB	088H
	DB	0dfH
	DB	0d8H
	DB	0bcH
	DB	088H
	DB	0dfH
	DB	0d0H
	DB	0bcH
	DB	088H
	DB	0d7H
	DB	0d0H
	DB	0bcH
	DB	080H
	DB	0b2H
	DB	0d8H
	DB	0bcH
	DB	088H
	DB	07dH
	DB	0d0H
	DB	0bcH
	DB	080H
	DB	010H
	DB	0f8H
	DB	0fcH
	DB	0f8H
	DB	00H
	DB	0f8H
	DB	0fcH
	DB	0f8H
	DB	00H
	DB	0f8H
	DB	0fcH
	DB	0f8H
	DB	00H
	DB	0f8H
	DB	0fcH
	DB	0f8H
	DB	00H
	DB	0f8H
	DB	0fcH
	DB	0f8H
	DB	00H
	DB	0f8H
	DB	0fcH
	DB	0f8H
	DB	00H
	DB	0f8H
	DB	0fcH
	DB	0f8H
	DB	00H
	DB	0f8H
	DB	0fcH
	DB	0f8H
	DB	00H
	DB	0f8H
	DB	0fcH
	DB	0f8H
	DB	00H
	DB	0f8H
	DB	0fcH
	DB	0f8H
	DB	00H
	DB	0f8H
	DB	0fcH
	DB	0f8H
	DB	00H
	DB	0f8H
	DB	0fcH
	DB	0f8H
	DB	00H
	DB	0f8H
	DB	0fcH
	DB	0f8H
	DB	00H
	DB	0f8H
	DB	0fcH
	DB	0f8H
	DB	00H
	DB	0f8H
	DB	0fcH
	DB	0f8H
	DB	00H
	DB	0f8H
	DB	0fcH
	DB	0f8H
	DB	00H
	DB	0f8H
	DB	0fcH
	DB	0f8H
	DB	00H
	DB	0f8H
	DB	0fcH
	DB	0f8H
	DB	00H
	DB	0f8H
	DB	0fcH
	DB	0f8H
	DB	00H
	DB	0f8H
	DB	0fcH
	DB	0f8H
	DB	00H
	DB	0f8H
	DB	0fcH
	DB	0f8H
	DB	00H
	DB	0f8H
	DB	0fcH
	DB	0f8H
	DB	00H
	DB	0f8H
	DB	0fcH
	DB	0f8H
	DB	00H
	DB	0f8H
	DB	0fcH
	DB	0f8H
	DB	00H
	DB	0f8H
	DB	0fcH
	DB	0f8H
	DB	00H
	DB	0f8H
	DB	0fcH
	DB	0f8H
	DB	00H
	DB	0f8H
	DB	0fcH
	DB	0f8H
	DB	00H
	DB	0f8H
	DB	0fcH
	DB	0f8H
	DB	00H
	DB	0f8H
	DB	0fcH
	DB	0f8H
	DB	00H
	DB	0f8H
	DB	0fcH
	DB	0f8H
	DB	00H
	DB	0f8H
	DB	0fcH
	DB	0f8H
	DB	00H
	DB	0f8H
	DB	0fcH
	DB	0f8H
	DB	00H
	DB	0f8H
	DB	0fcH
	DB	0f8H
	DB	00H
	DB	0f8H
	DB	0fcH
	DB	0f8H
	DB	00H
	DB	0f8H
	DB	0fcH
	DB	0f8H
	DB	00H
	DB	0f8H
	DB	0fcH
	DB	0f8H
	DB	00H
	DB	0f8H
	DB	0fcH
	DB	0f8H
	DB	00H
	DB	0f8H
	DB	0fcH
	DB	0f8H
	DB	00H
	DB	0f8H
	DB	0fcH
	DB	0f8H
	DB	00H
	DB	0f8H
	DB	0fcH
	DB	0f8H
	DB	00H
	DB	0f8H
	DB	0fcH
	DB	0f8H
	DB	00H
	DB	0f8H
	DB	0fcH
	DB	0f8H
	DB	00H
	DB	0f8H
	DB	0fcH
	DB	0f8H
	DB	00H
	DB	0f8H
	DB	0fcH
	DB	0f8H
	DB	00H
	DB	0f8H
	DB	0fcH
	DB	0f8H
	DB	00H
	DB	0f8H
	DB	0fcH
	DB	0f8H
	DB	00H
	DB	0f8H
	DB	0fcH
	DB	0f8H
	DB	00H
	DB	0f8H
	DB	0fcH
	DB	0f8H
	DB	00H
	DB	0f8H
	DB	0fcH
	DB	0f8H
	DB	00H
	DB	0f8H
	DB	0fcH
	DB	0f8H
	DB	00H
	DB	0f8H
	DB	0fcH
	DB	0f8H
	DB	00H
	DB	0f8H
	DB	0fcH
	DB	0f8H
	DB	00H
	DB	0f8H
	DB	0fcH
	DB	0f8H
	DB	00H
	DB	0f8H
	DB	0fcH
	DB	0f8H
	DB	00H
	DB	0f8H
	DB	0fcH
	DB	0f8H
	DB	00H
	DB	0f8H
	DB	0fcH
	DB	0f8H
	DB	00H
	DB	0f8H
	DB	0fcH
	DB	0f8H
	DB	00H
	DB	0f8H
	DB	0fcH
	DB	0f8H
	DB	00H
	DB	0f8H
	DB	0fcH
	DB	0f8H
	DB	00H
	DB	0f8H
	DB	0fcH
	DB	0f8H
	DB	00H
	DB	0f8H
	DB	0fcH
	DB	0f8H
	DB	00H
	DB	0f8H
	DB	0fcH
	DB	0f8H
	DB	00H
	DB	0f8H
	DB	0fcH
	DB	0f8H
	DB	00H
	DB	0f8H
	DB	0fcH
	DB	0f8H
	DB	00H
	DB	0f8H
	DB	0fcH
	DB	0f8H
	DB	00H
	DB	0f8H
	DB	0fcH
	DB	0f8H
	DB	00H
	DB	0f8H
	DB	0fcH
	DB	0f8H
	DB	00H
	DB	0f8H
	DB	0fcH
	DB	0f8H
	DB	00H
	DB	0f8H
	DB	0fcH
	DB	0f8H
	DB	00H
	DB	0f8H
	DB	0fcH
	DB	0f8H
	DB	00H
	DB	0f8H
	DB	0fcH
	DB	0f8H
	DB	00H
	DB	0f8H
	DB	0fcH
	DB	0f8H
	DB	00H
	DB	0f8H
	DB	0fcH
	DB	0f8H
	DB	00H
	DB	0f8H
	DB	0fcH
	DB	0f8H
	DB	00H
	DB	0f8H
	DB	0fcH
	DB	0f8H
	DB	00H
	DB	0f8H
	DB	0fcH
	DB	0f8H
	DB	00H
	DB	0f8H
	DB	0fcH
	DB	0f8H
	DB	00H
	DB	0f8H
	DB	0fcH
	DB	0f8H
	DB	00H
	DB	0f8H
	DB	0fcH
	DB	0f8H
	DB	00H
	DB	0f8H
	DB	0fcH
	DB	0f8H
	DB	00H
	DB	0f8H
	DB	0fcH
	DB	0f8H
	DB	00H
	DB	0f8H
	DB	0fcH
	DB	0f8H
	DB	00H
	DB	0f8H
	DB	0fcH
	DB	0f8H
	DB	00H
	DB	0f8H
	DB	0fcH
	DB	0f8H
	DB	00H
	DB	0f8H
	DB	0fcH
	DB	0f8H
	DB	00H
	DB	0f8H
	DB	0fcH
	DB	0f8H
	DB	00H
	DB	0f8H
	DB	0fcH
	DB	0f8H
	DB	00H
	DB	0f8H
	DB	0fcH
	DB	0f8H
	DB	00H
	DB	0f8H
	DB	0fcH
	DB	0f8H
	DB	00H
	DB	0f8H
	DB	0fcH
	DB	0f8H
	DB	00H
	DB	0f8H
	DB	0fcH
	DB	0f8H
	DB	00H
	DB	0f8H
	DB	0fcH
	DB	0f8H
	DB	00H
	DB	0f8H
	DB	0fcH
	DB	0f8H
	DB	00H
	DB	0f8H
	DB	0fcH
	DB	0f8H
	DB	00H
	DB	0f8H
	DB	0fcH
	DB	0f8H
	DB	00H
	DB	0f8H
	DB	0fcH
	DB	0f8H
	DB	00H
	DB	0f8H
	DB	0fcH
	DB	0f8H
	DB	00H
	DB	0f8H
	DB	0fcH
	DB	0f8H
	DB	00H
	DB	0f8H
	DB	0fcH
	DB	0f8H
	DB	00H
	DB	0f8H
	DB	0fcH
	DB	0f8H
	DB	00H
	DB	0f8H
	DB	0fcH
	DB	0f8H
	DB	00H
	DB	0f8H
	DB	0fcH
	DB	0f8H
	DB	00H
	DB	0e0H
	DB	0d0H
	DB	0a0H
	DB	010H
	DB	0e8H
	DB	0ccH
	DB	0a0H
	DB	01cH
	DB	0e0H
	DB	0d0H
	DB	0a0H
	DB	028H
	DB	0e0H
	DB	0ccH
	DB	0a0H
	DB	034H
	DB	0e8H
	DB	0ccH
	DB	0a0H
	DB	041H
	DB	0e0H
	DB	0ccH
	DB	0a0H
	DB	04dH
	DB	0e0H
	DB	0ccH
	DB	0a0H
	DB	055H
	DB	0e0H
	DB	0ccH
	DB	0a0H
	DB	05dH
	DB	0e0H
	DB	0ccH
	DB	0a0H
	DB	069H
	DB	0e0H
	DB	0ccH
	DB	0a0H
	DB	071H
	DB	0e0H
	DB	0ccH
	DB	0a0H
	DB	079H
	DB	0e0H
	DB	0ccH
	DB	0a0H
	DB	086H
	DB	0e0H
	DB	0ccH
	DB	0a0H
	DB	08eH
	DB	0e0H
	DB	0ccH
	DB	0a0H
	DB	096H
	DB	0e0H
	DB	0ccH
	DB	0a0H
	DB	0a2H
	DB	0e0H
	DB	0ccH
	DB	098H
	DB	0aaH
	DB	0e0H
	DB	0c8H
	DB	098H
	DB	0b2H
	DB	0e0H
	DB	0c8H
	DB	0a0H
	DB	0c3H
	DB	0e0H
	DB	0ccH
	DB	098H
	DB	0c7H
	DB	0e0H
	DB	0c8H
	DB	098H
	DB	0d3H
	DB	0d8H
	DB	0c8H
	DB	098H
	DB	0dbH
	DB	0e0H
	DB	0c8H
	DB	098H
	DB	0dfH
	DB	0e0H
	DB	0c8H
	DB	098H
	DB	0dfH
	DB	0d8H
	DB	0c8H
	DB	098H
	DB	0e3H
	DB	0d8H
	DB	0c8H
	DB	098H
	DB	0dfH
	DB	0d8H
	DB	0c8H
	DB	098H
	DB	0dfH
	DB	0e0H
	DB	0c8H
	DB	098H
	DB	0dfH
	DB	0d8H
	DB	0c8H
	DB	098H
	DB	0dfH
	DB	0d8H
	DB	0c8H
	DB	098H
	DB	0dfH
	DB	0e0H
	DB	0c8H
	DB	098H
	DB	0e3H
	DB	0d8H
	DB	0c4H
	DB	098H
	DB	0dfH
	DB	0d8H
	DB	0c8H
	DB	098H
	DB	0dfH
	DB	0d8H
	DB	0c4H
	DB	098H
	DB	0e3H
	DB	0d8H
	DB	0c4H
	DB	090H
	DB	0dfH
	DB	0e0H
	DB	0c4H
	DB	090H
	DB	0e3H
	DB	0d8H
	DB	0c4H
	DB	090H
	DB	0dfH
	DB	0d8H
	DB	0c4H
	DB	098H
	DB	0dfH
	DB	0d8H
	DB	0c4H
	DB	090H
	DB	0dfH
	DB	0d8H
	DB	0c4H
	DB	090H
	DB	0e3H
	DB	0d8H
	DB	0c4H
	DB	090H
	DB	0dfH
	DB	0d8H
	DB	0c4H
	DB	090H
	DB	0dfH
	DB	0d8H
	DB	0c4H
	DB	090H
	DB	0dfH
	DB	0d8H
	DB	0c4H
	DB	090H
	DB	0dfH
	DB	0d8H
	DB	0c4H
	DB	090H
	DB	0dfH
	DB	0d8H
	DB	0c4H
	DB	090H
	DB	0dfH
	DB	0d8H
	DB	0c0H
	DB	090H
	DB	0dfH
	DB	0d0H
	DB	0c0H
	DB	088H
	DB	0dbH
	DB	0d8H
	DB	0c0H
	DB	088H
	DB	0cbH
	DB	0d8H
	DB	0c0H
	DB	088H
	DB	0baH
	DB	0d0H
	DB	0c0H
	DB	088H
	DB	0aaH
	DB	0d0H
	DB	0c0H
	DB	090H
	DB	09aH
	DB	0d8H
	DB	0c0H
	DB	088H
	DB	08eH
	DB	0d0H
	DB	0c0H
	DB	088H
	DB	07dH
	DB	0d0H
	DB	0c0H
	DB	088H
	DB	06dH
	DB	0d0H
	DB	0c0H
	DB	088H
	DB	055H
	DB	0d8H
	DB	0c0H
	DB	088H
	DB	041H
	DB	0d0H
	DB	0bcH
	DB	088H
	DB	028H
	DB	0d0H
	DB	0bcH
	DB	088H
	DB	014H
	DB	0f8H
	DB	0fcH
	DB	0f8H
	DB	00H
	DB	0f8H
	DB	0fcH
	DB	0f8H
	DB	00H
	DB	0f8H
	DB	0fcH
	DB	0f8H
	DB	00H
	DB	0f8H
	DB	0fcH
	DB	0f8H
	DB	00H
	DB	0f8H
	DB	0fcH
	DB	0f8H
	DB	00H
	DB	0f8H
	DB	0fcH
	DB	0f8H
	DB	00H
	DB	0f8H
	DB	0fcH
	DB	0f8H
	DB	00H
	DB	0f8H
	DB	0fcH
	DB	0f8H
	DB	00H
	DB	0f8H
	DB	0fcH
	DB	0f8H
	DB	00H
	DB	0f8H
	DB	0fcH
	DB	0f8H
	DB	00H
	DB	0f8H
	DB	0fcH
	DB	0f8H
	DB	00H
	DB	0f8H
	DB	0fcH
	DB	0f8H
	DB	00H
	DB	0f8H
	DB	0fcH
	DB	0f8H
	DB	00H
	DB	0f8H
	DB	0fcH
	DB	0f8H
	DB	00H
	DB	0f8H
	DB	0fcH
	DB	0f8H
	DB	00H
	DB	0f8H
	DB	0fcH
	DB	0f8H
	DB	00H
	DB	0f8H
	DB	0fcH
	DB	0f8H
	DB	00H
	DB	0f8H
	DB	0fcH
	DB	0f8H
	DB	00H
	DB	0f8H
	DB	0fcH
	DB	0f8H
	DB	00H
	DB	0f8H
	DB	0fcH
	DB	0f8H
	DB	00H
	DB	0f8H
	DB	0fcH
	DB	0f8H
	DB	00H
	DB	0f8H
	DB	0fcH
	DB	0f8H
	DB	00H
	DB	0f8H
	DB	0fcH
	DB	0f8H
	DB	00H
	DB	0f8H
	DB	0fcH
	DB	0f8H
	DB	00H
	DB	0f8H
	DB	0fcH
	DB	0f8H
	DB	00H
	DB	0f8H
	DB	0fcH
	DB	0f8H
	DB	00H
	DB	0f8H
	DB	0fcH
	DB	0f8H
	DB	00H
	DB	0f8H
	DB	0fcH
	DB	0f8H
	DB	00H
	DB	0f8H
	DB	0fcH
	DB	0f8H
	DB	00H
	DB	0f8H
	DB	0fcH
	DB	0f8H
	DB	00H
	DB	0f8H
	DB	0fcH
	DB	0f8H
	DB	00H
	DB	0f8H
	DB	0fcH
	DB	0f8H
	DB	00H
	DB	0f8H
	DB	0fcH
	DB	0f8H
	DB	00H
	DB	0f8H
	DB	0fcH
	DB	0f8H
	DB	00H
	DB	0f8H
	DB	0fcH
	DB	0f8H
	DB	00H
	DB	0f8H
	DB	0fcH
	DB	0f8H
	DB	00H
	DB	0f8H
	DB	0fcH
	DB	0f8H
	DB	00H
	DB	0f8H
	DB	0fcH
	DB	0f8H
	DB	00H
	DB	0f8H
	DB	0fcH
	DB	0f8H
	DB	00H
	DB	0f8H
	DB	0fcH
	DB	0f8H
	DB	00H
	DB	0f8H
	DB	0fcH
	DB	0f8H
	DB	00H
	DB	0f8H
	DB	0fcH
	DB	0f8H
	DB	00H
	DB	0f8H
	DB	0fcH
	DB	0f8H
	DB	00H
	DB	0f8H
	DB	0fcH
	DB	0f8H
	DB	00H
	DB	0f8H
	DB	0fcH
	DB	0f8H
	DB	00H
	DB	0f8H
	DB	0fcH
	DB	0f8H
	DB	00H
	DB	0f8H
	DB	0fcH
	DB	0f8H
	DB	00H
	DB	0f8H
	DB	0fcH
	DB	0f8H
	DB	00H
	DB	0f8H
	DB	0fcH
	DB	0f8H
	DB	00H
	DB	0f8H
	DB	0fcH
	DB	0f8H
	DB	00H
	DB	0f8H
	DB	0fcH
	DB	0f8H
	DB	00H
	DB	0f8H
	DB	0fcH
	DB	0f8H
	DB	00H
	DB	0f8H
	DB	0fcH
	DB	0f8H
	DB	00H
	DB	0f8H
	DB	0fcH
	DB	0f8H
	DB	00H
	DB	0f8H
	DB	0fcH
	DB	0f8H
	DB	00H
	DB	0f8H
	DB	0fcH
	DB	0f8H
	DB	00H
	DB	0f8H
	DB	0fcH
	DB	0f8H
	DB	00H
	DB	0f8H
	DB	0fcH
	DB	0f8H
	DB	00H
	DB	0f8H
	DB	0fcH
	DB	0f8H
	DB	00H
	DB	0f8H
	DB	0fcH
	DB	0f8H
	DB	00H
	DB	0f8H
	DB	0fcH
	DB	0f8H
	DB	00H
	DB	0f8H
	DB	0fcH
	DB	0f8H
	DB	00H
	DB	0f8H
	DB	0fcH
	DB	0f8H
	DB	00H
	DB	0f8H
	DB	0fcH
	DB	0f8H
	DB	00H
	DB	0f8H
	DB	0fcH
	DB	0f8H
	DB	00H
	DB	0f8H
	DB	0fcH
	DB	0f8H
	DB	00H
	DB	0f8H
	DB	0fcH
	DB	0f8H
	DB	00H
	DB	0f8H
	DB	0fcH
	DB	0f8H
	DB	00H
	DB	0f8H
	DB	0fcH
	DB	0f8H
	DB	00H
	DB	0f8H
	DB	0fcH
	DB	0f8H
	DB	00H
	DB	0f8H
	DB	0fcH
	DB	0f8H
	DB	00H
	DB	0f8H
	DB	0fcH
	DB	0f8H
	DB	00H
	DB	0f8H
	DB	0fcH
	DB	0f8H
	DB	00H
	DB	0f8H
	DB	0fcH
	DB	0f8H
	DB	00H
	DB	0f8H
	DB	0fcH
	DB	0f8H
	DB	00H
	DB	0f8H
	DB	0fcH
	DB	0f8H
	DB	00H
	DB	0f8H
	DB	0fcH
	DB	0f8H
	DB	00H
	DB	0f8H
	DB	0fcH
	DB	0f8H
	DB	00H
	DB	0f8H
	DB	0fcH
	DB	0f8H
	DB	00H
	DB	0f8H
	DB	0fcH
	DB	0f8H
	DB	00H
	DB	0f8H
	DB	0fcH
	DB	0f8H
	DB	00H
	DB	0f8H
	DB	0fcH
	DB	0f8H
	DB	00H
	DB	0f8H
	DB	0fcH
	DB	0f8H
	DB	00H
	DB	0f8H
	DB	0fcH
	DB	0f8H
	DB	00H
	DB	0f8H
	DB	0fcH
	DB	0f8H
	DB	00H
	DB	0f8H
	DB	0fcH
	DB	0f8H
	DB	00H
	DB	0f8H
	DB	0fcH
	DB	0f8H
	DB	00H
	DB	0f8H
	DB	0fcH
	DB	0f8H
	DB	00H
	DB	0f8H
	DB	0fcH
	DB	0f8H
	DB	00H
	DB	0f8H
	DB	0fcH
	DB	0f8H
	DB	00H
	DB	0f8H
	DB	0fcH
	DB	0f8H
	DB	00H
	DB	0f8H
	DB	0fcH
	DB	0f8H
	DB	00H
	DB	0f8H
	DB	0fcH
	DB	0f8H
	DB	00H
	DB	0f8H
	DB	0fcH
	DB	0f8H
	DB	00H
	DB	0f8H
	DB	0fcH
	DB	0f8H
	DB	00H
	DB	0f8H
	DB	0fcH
	DB	0f8H
	DB	00H
	DB	0f8H
	DB	0fcH
	DB	0f8H
	DB	00H
	DB	0f8H
	DB	0fcH
	DB	0f8H
	DB	00H
	DB	0f8H
	DB	0fcH
	DB	0f8H
	DB	00H
	DB	0f8H
	DB	0fcH
	DB	0f8H
	DB	00H
	DB	0f8H
	DB	0fcH
	DB	0f8H
	DB	00H
	DB	0f8H
	DB	0fcH
	DB	0f8H
	DB	00H
	DB	0f8H
	DB	0fcH
	DB	0f8H
	DB	00H
	DB	0f8H
	DB	0fcH
	DB	0f8H
	DB	00H
	DB	0f8H
	DB	0fcH
	DB	0f8H
	DB	00H
	DB	0f8H
	DB	0fcH
	DB	0f8H
	DB	00H
	DB	0f8H
	DB	0fcH
	DB	0f8H
	DB	00H
	DB	0f8H
	DB	0fcH
	DB	0f8H
	DB	00H
	DB	0f8H
	DB	0fcH
	DB	0f8H
	DB	00H
	DB	0f8H
	DB	0fcH
	DB	0f8H
	DB	00H
	DB	0f8H
	DB	0fcH
	DB	0f8H
	DB	00H
	DB	0f8H
	DB	0fcH
	DB	0f8H
	DB	00H
	DB	0f8H
	DB	0fcH
	DB	0f8H
	DB	00H
	DB	0f8H
	DB	0fcH
	DB	0f8H
	DB	00H
	DB	0f8H
	DB	0fcH
	DB	0f8H
	DB	00H
	DB	0f8H
	DB	0fcH
	DB	0f8H
	DB	00H
	DB	0f8H
	DB	0fcH
	DB	0f8H
	DB	00H
	DB	0f8H
	DB	0fcH
	DB	0f8H
	DB	00H
	DB	0f8H
	DB	0fcH
	DB	0f8H
	DB	00H
	DB	0f8H
	DB	0fcH
	DB	0f8H
	DB	00H
	DB	0f8H
	DB	0fcH
	DB	0f8H
	DB	00H
	DB	0f8H
	DB	0fcH
	DB	0f8H
	DB	00H
	DB	0f8H
	DB	0fcH
	DB	0f8H
	DB	00H
	DB	0f8H
	DB	0fcH
	DB	0f8H
	DB	00H
	DB	0f8H
	DB	0fcH
	DB	0f8H
	DB	00H
	DB	0f8H
	DB	0fcH
	DB	0f8H
	DB	00H
	DB	0f8H
	DB	0fcH
	DB	0f8H
	DB	00H
	DB	0f8H
	DB	0fcH
	DB	0f8H
	DB	00H
	DB	0e0H
	DB	0c8H
	DB	098H
	DB	04H
	DB	0e0H
	DB	0c8H
	DB	098H
	DB	010H
	DB	0d8H
	DB	0c8H
	DB	098H
	DB	010H
	DB	0e0H
	DB	0c8H
	DB	098H
	DB	01cH
	DB	0d8H
	DB	0c8H
	DB	098H
	DB	020H
	DB	0d8H
	DB	0c4H
	DB	098H
	DB	024H
	DB	0e0H
	DB	0c8H
	DB	098H
	DB	02cH
	DB	0d8H
	DB	0c4H
	DB	098H
	DB	02cH
	DB	0d8H
	DB	0c4H
	DB	098H
	DB	02cH
	DB	0e0H
	DB	0c4H
	DB	090H
	DB	02cH
	DB	0d8H
	DB	0c4H
	DB	090H
	DB	02cH
	DB	0d8H
	DB	0c4H
	DB	090H
	DB	038H
	DB	0d8H
	DB	0c4H
	DB	098H
	DB	03cH
	DB	0d8H
	DB	0c4H
	DB	090H
	DB	03cH
	DB	0d8H
	DB	0c4H
	DB	090H
	DB	03cH
	DB	0d8H
	DB	0c4H
	DB	090H
	DB	038H
	DB	0d8H
	DB	0c4H
	DB	090H
	DB	02cH
	DB	0d8H
	DB	0c4H
	DB	090H
	DB	02cH
	DB	0d8H
	DB	0c4H
	DB	090H
	DB	02cH
	DB	0d8H
	DB	0c0H
	DB	090H
	DB	02cH
	DB	0d8H
	DB	0c4H
	DB	090H
	DB	020H
	DB	0d8H
	DB	0c0H
	DB	090H
	DB	018H
	DB	0d0H
	DB	0c0H
	DB	090H
	DB	010H
	DB	0d8H
	DB	0c0H
	DB	088H
	DB	04H
	DB	0f8H
	DB	0fcH
	DB	0f8H
	DB	00H
	DB	0f8H
	DB	0fcH
	DB	0f8H
	DB	00H
	DB	0f8H
	DB	0fcH
	DB	0f8H
	DB	00H
	DB	0f8H
	DB	0fcH
	DB	0f8H
	DB	00H
	DB	0f8H
	DB	0fcH
	DB	0f8H
	DB	00H
	DB	0f8H
	DB	0fcH
	DB	0f8H
	DB	00H
	DB	0f8H
	DB	0fcH
	DB	0f8H
	DB	00H
	DB	0f8H
	DB	0fcH
	DB	0f8H
	DB	00H
	DB	0f8H
	DB	0fcH
	DB	0f8H
	DB	00H
	DB	0f8H
	DB	0fcH
	DB	0f8H
	DB	00H
	DB	0f8H
	DB	0fcH
	DB	0f8H
	DB	00H
	DB	0f8H
	DB	0fcH
	DB	0f8H
	DB	00H
	DB	0f8H
	DB	0fcH
	DB	0f8H
	DB	00H
	DB	0f8H
	DB	0fcH
	DB	0f8H
	DB	00H
	DB	0f8H
	DB	0fcH
	DB	0f8H
	DB	00H
	DB	0f8H
	DB	0fcH
	DB	0f8H
	DB	00H
	DB	0f8H
	DB	0fcH
	DB	0f8H
	DB	00H
	DB	0f8H
	DB	0fcH
	DB	0f8H
	DB	00H
	DB	0f8H
	DB	0fcH
	DB	0f8H
	DB	00H
	DB	0f8H
	DB	0fcH
	DB	0f8H
	DB	00H
	DB	0f8H
	DB	0fcH
	DB	0f8H
	DB	00H
	DB	0f8H
	DB	0fcH
	DB	0f8H
	DB	00H
	DB	0f8H
	DB	0fcH
	DB	0f8H
	DB	00H
	DB	0f8H
	DB	0fcH
	DB	0f8H
	DB	00H
	DB	0f8H
	DB	0fcH
	DB	0f8H
	DB	00H
	DB	0f8H
	DB	0fcH
	DB	0f8H
	DB	00H
	DB	0f8H
	DB	0fcH
	DB	0f8H
	DB	00H
	DB	0f8H
	DB	0fcH
	DB	0f8H
	DB	00H
	DB	0f8H
	DB	0fcH
	DB	0f8H
	DB	00H
	DB	0f8H
	DB	0fcH
	DB	0f8H
	DB	00H
	DB	0f8H
	DB	0fcH
	DB	0f8H
	DB	00H
	DB	0f8H
	DB	0fcH
	DB	0f8H
	DB	00H
	DB	0f8H
	DB	0fcH
	DB	0f8H
	DB	00H
	DB	0f8H
	DB	0fcH
	DB	0f8H
	DB	00H
	DB	0f8H
	DB	0fcH
	DB	0f8H
	DB	00H
	DB	0f8H
	DB	0fcH
	DB	0f8H
	DB	00H
	DB	0f8H
	DB	0fcH
	DB	0f8H
	DB	00H
	DB	0f8H
	DB	0fcH
	DB	0f8H
	DB	00H
	DB	0f8H
	DB	0fcH
	DB	0f8H
	DB	00H
	DB	0f8H
	DB	0fcH
	DB	0f8H
	DB	00H
	DB	0f8H
	DB	0fcH
	DB	0f8H
	DB	00H
	DB	0f8H
	DB	0fcH
	DB	0f8H
	DB	00H
	DB	0f8H
	DB	0fcH
	DB	0f8H
	DB	00H
	DB	0f8H
	DB	0fcH
	DB	0f8H
	DB	00H
	DB	0f8H
	DB	0fcH
	DB	0f8H
	DB	00H
	DB	0f8H
	DB	0fcH
	DB	0f8H
	DB	00H
	DB	0f8H
	DB	0fcH
	DB	0f8H
	DB	00H
	DB	0f8H
	DB	0fcH
	DB	0f8H
	DB	00H
	DB	0f8H
	DB	0fcH
	DB	0f8H
	DB	00H
	DB	0f8H
	DB	0fcH
	DB	0f8H
	DB	00H
	DB	0f8H
	DB	0fcH
	DB	0f8H
	DB	00H
	DB	0f8H
	DB	0fcH
	DB	0f8H
	DB	00H
	DB	0f8H
	DB	0fcH
	DB	0f8H
	DB	00H
	DB	0f8H
	DB	0fcH
	DB	0f8H
	DB	00H
	DB	0f8H
	DB	0fcH
	DB	0f8H
	DB	00H
	DB	0f8H
	DB	0fcH
	DB	0f8H
	DB	00H
	DB	0f8H
	DB	0fcH
	DB	0f8H
	DB	00H
	DB	0f8H
	DB	0fcH
	DB	0f8H
	DB	00H
	DB	0f8H
	DB	0fcH
	DB	0f8H
	DB	00H
	DB	0f8H
	DB	0fcH
	DB	0f8H
	DB	00H
	DB	0f8H
	DB	0fcH
	DB	0f8H
	DB	00H
	DB	0f8H
	DB	0fcH
	DB	0f8H
	DB	00H
	DB	0f8H
	DB	0fcH
	DB	0f8H
	DB	00H
	DB	0f8H
	DB	0fcH
	DB	0f8H
	DB	00H
	DB	0f8H
	DB	0fcH
	DB	0f8H
	DB	00H
	DB	0f8H
	DB	0fcH
	DB	0f8H
	DB	00H
	DB	0f8H
	DB	0fcH
	DB	0f8H
	DB	00H
	DB	0f8H
	DB	0fcH
	DB	0f8H
	DB	00H
	DB	0f8H
	DB	0fcH
	DB	0f8H
	DB	00H
	DB	0f8H
	DB	0fcH
	DB	0f8H
	DB	00H
	DB	0f8H
	DB	0fcH
	DB	0f8H
	DB	00H
	DB	0f8H
	DB	0fcH
	DB	0f8H
	DB	00H
	DB	0f8H
	DB	0fcH
	DB	0f8H
	DB	00H
	DB	0f8H
	DB	0fcH
	DB	0f8H
	DB	00H
	DB	0f8H
	DB	0fcH
	DB	0f8H
	DB	00H
	DB	0f8H
	DB	0fcH
	DB	0f8H
	DB	00H
	DB	0f8H
	DB	0fcH
	DB	0f8H
	DB	00H
	DB	0f8H
	DB	0fcH
	DB	0f8H
	DB	00H
	DB	0f8H
	DB	0fcH
	DB	0f8H
	DB	00H
	DB	0f8H
	DB	0fcH
	DB	0f8H
	DB	00H
	DB	0f8H
	DB	0fcH
	DB	0f8H
	DB	00H
	DB	0f8H
	DB	0fcH
	DB	0f8H
	DB	00H
	DB	0f8H
	DB	0fcH
	DB	0f8H
	DB	00H
	DB	0f8H
	DB	0fcH
	DB	0f8H
	DB	00H
	DB	0f8H
	DB	0fcH
	DB	0f8H
	DB	00H
	DB	0f8H
	DB	0fcH
	DB	0f8H
	DB	00H
	DB	0f8H
	DB	0fcH
	DB	0f8H
	DB	00H
	DB	0f8H
	DB	0fcH
	DB	0f8H
	DB	00H
	DB	0f8H
	DB	0fcH
	DB	0f8H
	DB	00H
	DB	0f8H
	DB	0fcH
	DB	0f8H
	DB	00H
	DB	0f8H
	DB	0fcH
	DB	0f8H
	DB	00H
	DB	0f8H
	DB	0fcH
	DB	0f8H
	DB	00H
	DB	0f8H
	DB	0fcH
	DB	0f8H
	DB	00H
	DB	0f8H
	DB	0fcH
	DB	0f8H
	DB	00H
	DB	0f8H
	DB	0fcH
	DB	0f8H
	DB	00H
	DB	0f8H
	DB	0fcH
	DB	0f8H
	DB	00H
	DB	0f8H
	DB	0fcH
	DB	0f8H
	DB	00H
	DB	0f8H
	DB	0fcH
	DB	0f8H
	DB	00H
	DB	0f8H
	DB	0fcH
	DB	0f8H
	DB	00H
	DB	0f8H
	DB	0fcH
	DB	0f8H
	DB	00H
	DB	0f8H
	DB	0fcH
	DB	0f8H
	DB	00H
	DB	0f8H
	DB	0fcH
	DB	0f8H
	DB	00H
	DB	0f8H
	DB	0fcH
	DB	0f8H
	DB	00H
	DB	0f8H
	DB	0fcH
	DB	0f8H
	DB	00H
	DB	0f8H
	DB	0fcH
	DB	0f8H
	DB	00H
	DB	0f8H
	DB	0fcH
	DB	0f8H
	DB	00H
	DB	0f8H
	DB	0fcH
	DB	0f8H
	DB	00H
	DB	0f8H
	DB	0fcH
	DB	0f8H
	DB	00H
	DB	0f8H
	DB	0fcH
	DB	0f8H
	DB	00H
	DB	0f8H
	DB	0fcH
	DB	0f8H
	DB	00H
	DB	0f8H
	DB	0fcH
	DB	0f8H
	DB	00H
	DB	0f8H
	DB	0fcH
	DB	0f8H
	DB	00H
	DB	0f8H
	DB	0fcH
	DB	0f8H
	DB	00H
	DB	0f8H
	DB	0fcH
	DB	0f8H
	DB	00H
	DB	0f8H
	DB	0fcH
	DB	0f8H
	DB	00H
	DB	0f8H
	DB	0fcH
	DB	0f8H
	DB	00H
	DB	0f8H
	DB	0fcH
	DB	0f8H
	DB	00H
	DB	0f8H
	DB	0fcH
	DB	0f8H
	DB	00H
	DB	0f8H
	DB	0fcH
	DB	0f8H
	DB	00H
	DB	0f8H
	DB	0fcH
	DB	0f8H
	DB	00H
	DB	0f8H
	DB	0fcH
	DB	0f8H
	DB	00H
	DB	0f8H
	DB	0fcH
	DB	0f8H
	DB	00H
	DB	0f8H
	DB	0fcH
	DB	0f8H
	DB	00H
	DB	0f8H
	DB	0fcH
	DB	0f8H
	DB	00H
	DB	0f8H
	DB	0fcH
	DB	0f8H
	DB	00H
	DB	0f8H
	DB	0fcH
	DB	0f8H
	DB	00H
	DB	0f8H
	DB	0fcH
	DB	0f8H
	DB	00H
	DB	0f8H
	DB	0fcH
	DB	0f8H
	DB	00H
	DB	0f8H
	DB	0fcH
	DB	0f8H
	DB	00H
	DB	0f8H
	DB	0fcH
	DB	0f8H
	DB	00H
	DB	0f8H
	DB	0fcH
	DB	0f8H
	DB	00H
	DB	0f8H
	DB	0fcH
	DB	0f8H
	DB	00H
	DB	0f8H
	DB	0fcH
	DB	0f8H
	DB	00H
	DB	0f8H
	DB	0fcH
	DB	0f8H
	DB	00H
	DB	0f8H
	DB	0fcH
	DB	0f8H
	DB	00H
	DB	0f8H
	DB	0fcH
	DB	0f8H
	DB	00H
	DB	0f8H
	DB	0fcH
	DB	0f8H
	DB	00H
	DB	0f8H
	DB	0fcH
	DB	0f8H
	DB	00H
	DB	0f8H
	DB	0fcH
	DB	0f8H
	DB	00H
	DB	0f8H
	DB	0fcH
	DB	0f8H
	DB	00H
	DB	0f8H
	DB	0fcH
	DB	0f8H
	DB	00H
	DB	0f8H
	DB	0fcH
	DB	0f8H
	DB	00H
	DB	0f8H
	DB	0fcH
	DB	0f8H
	DB	00H
	DB	0f8H
	DB	0fcH
	DB	0f8H
	DB	00H
	DB	0f8H
	DB	0fcH
	DB	0f8H
	DB	00H
	DB	0f8H
	DB	0fcH
	DB	0f8H
	DB	00H
	DB	0f8H
	DB	0fcH
	DB	0f8H
	DB	00H
	DB	0f8H
	DB	0fcH
	DB	0f8H
	DB	00H
	DB	0f8H
	DB	0fcH
	DB	0f8H
	DB	00H
	DB	0f8H
	DB	0fcH
	DB	0f8H
	DB	00H
	DB	0f8H
	DB	0fcH
	DB	0f8H
	DB	00H
	DB	0f8H
	DB	0fcH
	DB	0f8H
	DB	00H
	DB	0f8H
	DB	0fcH
	DB	0f8H
	DB	00H
	DB	0f8H
	DB	0fcH
	DB	0f8H
	DB	00H
	DB	0f8H
	DB	0fcH
	DB	0f8H
	DB	00H
	DB	0f8H
	DB	0fcH
	DB	0f8H
	DB	00H
	DB	0f8H
	DB	0fcH
	DB	0f8H
	DB	00H
	DB	0f8H
	DB	0fcH
	DB	0f8H
	DB	00H
	DB	0f8H
	DB	0fcH
	DB	0f8H
	DB	00H
	DB	0f8H
	DB	0fcH
	DB	0f8H
	DB	00H
	DB	0f8H
	DB	0fcH
	DB	0f8H
	DB	00H
	DB	0f8H
	DB	0fcH
	DB	0f8H
	DB	00H
	DB	0f8H
	DB	0fcH
	DB	0f8H
	DB	00H
	DB	0f8H
	DB	0fcH
	DB	0f8H
	DB	00H
	DB	0f8H
	DB	0fcH
	DB	0f8H
	DB	00H
	DB	0f8H
	DB	0fcH
	DB	0f8H
	DB	00H
	DB	0f8H
	DB	0fcH
	DB	0f8H
	DB	00H
	DB	0f8H
	DB	0fcH
	DB	0f8H
	DB	00H
	DB	0f8H
	DB	0fcH
	DB	0f8H
	DB	00H
	DB	0f8H
	DB	0fcH
	DB	0f8H
	DB	00H
	DB	0f8H
	DB	0fcH
	DB	0f8H
	DB	00H
	DB	0f8H
	DB	0fcH
	DB	0f8H
	DB	00H
	DB	0f8H
	DB	0fcH
	DB	0f8H
	DB	00H
	DB	0f8H
	DB	0fcH
	DB	0f8H
	DB	00H
	DB	0f8H
	DB	0fcH
	DB	0f8H
	DB	00H
	DB	0f8H
	DB	0fcH
	DB	0f8H
	DB	00H
	DB	0f8H
	DB	0fcH
	DB	0f8H
	DB	00H
	DB	0f8H
	DB	0fcH
	DB	0f8H
	DB	00H
	DB	0f8H
	DB	0fcH
	DB	0f8H
	DB	00H
	DB	0f8H
	DB	0fcH
	DB	0f8H
	DB	00H
	DB	0f8H
	DB	0fcH
	DB	0f8H
	DB	00H
CONST	ENDS
END
