; Listing generated by Microsoft (R) Optimizing Compiler Version 19.27.29112.0 

	TITLE	D:\hackTuesProject\project\TouchGFX\generated\images\src\Bathtub\image_temp_off.cpp
	.686P
	.XMM
	include listing.inc
	.model	flat

INCLUDELIB MSVCRTD
INCLUDELIB OLDNAMES

PUBLIC	?image_temp_off@@3QBEB				; image_temp_off
CONST	SEGMENT
?image_temp_off@@3QBEB DB 029H				; image_temp_off
	DB	04aH
	DB	029H
	DB	04aH
	DB	049H
	DB	04aH
	DB	029H
	DB	04aH
	DB	029H
	DB	04aH
	DB	049H
	DB	04aH
	DB	029H
	DB	04aH
	DB	029H
	DB	04aH
	DB	049H
	DB	04aH
	DB	029H
	DB	04aH
	DB	029H
	DB	04aH
	DB	049H
	DB	04aH
	DB	029H
	DB	04aH
	DB	029H
	DB	04aH
	DB	049H
	DB	04aH
	DB	029H
	DB	04aH
	DB	029H
	DB	04aH
	DB	049H
	DB	04aH
	DB	029H
	DB	04aH
	DB	029H
	DB	04aH
	DB	049H
	DB	04aH
	DB	029H
	DB	04aH
	DB	029H
	DB	04aH
	DB	049H
	DB	04aH
	DB	029H
	DB	04aH
	DB	029H
	DB	04aH
	DB	049H
	DB	04aH
	DB	029H
	DB	04aH
	DB	029H
	DB	04aH
	DB	049H
	DB	04aH
	DB	029H
	DB	04aH
	DB	029H
	DB	04aH
	DB	049H
	DB	04aH
	DB	029H
	DB	04aH
	DB	029H
	DB	04aH
	DB	049H
	DB	04aH
	DB	029H
	DB	04aH
	DB	029H
	DB	04aH
	DB	049H
	DB	04aH
	DB	029H
	DB	04aH
	DB	029H
	DB	04aH
	DB	049H
	DB	04aH
	DB	029H
	DB	04aH
	DB	029H
	DB	04aH
	DB	049H
	DB	04aH
	DB	029H
	DB	04aH
	DB	029H
	DB	04aH
	DB	049H
	DB	04aH
	DB	029H
	DB	04aH
	DB	029H
	DB	04aH
	DB	049H
	DB	04aH
	DB	029H
	DB	04aH
	DB	029H
	DB	04aH
	DB	049H
	DB	04aH
	DB	029H
	DB	04aH
	DB	029H
	DB	04aH
	DB	049H
	DB	04aH
	DB	029H
	DB	04aH
	DB	029H
	DB	04aH
	DB	049H
	DB	04aH
	DB	029H
	DB	04aH
	DB	029H
	DB	04aH
	DB	049H
	DB	04aH
	DB	029H
	DB	04aH
	DB	029H
	DB	04aH
	DB	049H
	DB	04aH
	DB	029H
	DB	04aH
	DB	029H
	DB	04aH
	DB	049H
	DB	04aH
	DB	029H
	DB	04aH
	DB	029H
	DB	04aH
	DB	049H
	DB	04aH
	DB	029H
	DB	04aH
	DB	029H
	DB	04aH
	DB	049H
	DB	04aH
	DB	029H
	DB	04aH
	DB	029H
	DB	04aH
	DB	049H
	DB	04aH
	DB	029H
	DB	04aH
	DB	029H
	DB	04aH
	DB	049H
	DB	04aH
	DB	029H
	DB	04aH
	DB	029H
	DB	04aH
	DB	049H
	DB	04aH
	DB	029H
	DB	04aH
	DB	029H
	DB	04aH
	DB	049H
	DB	04aH
	DB	029H
	DB	04aH
	DB	029H
	DB	04aH
	DB	049H
	DB	04aH
	DB	029H
	DB	04aH
	DB	029H
	DB	04aH
	DB	049H
	DB	04aH
	DB	029H
	DB	04aH
	DB	029H
	DB	04aH
	DB	049H
	DB	04aH
	DB	029H
	DB	04aH
	DB	029H
	DB	04aH
	DB	049H
	DB	04aH
	DB	029H
	DB	04aH
	DB	04H
	DB	021H
	DB	04H
	DB	021H
	DB	04H
	DB	021H
	DB	04H
	DB	021H
	DB	04H
	DB	021H
	DB	04H
	DB	021H
	DB	04H
	DB	021H
	DB	04H
	DB	021H
	DB	04H
	DB	021H
	DB	04H
	DB	021H
	DB	04H
	DB	021H
	DB	04H
	DB	021H
	DB	04H
	DB	021H
	DB	04H
	DB	021H
	DB	04H
	DB	021H
	DB	04H
	DB	021H
	DB	04H
	DB	021H
	DB	04H
	DB	021H
	DB	04H
	DB	021H
	DB	04H
	DB	021H
	DB	04H
	DB	021H
	DB	04H
	DB	021H
	DB	04H
	DB	021H
	DB	04H
	DB	021H
	DB	04H
	DB	021H
	DB	04H
	DB	021H
	DB	04H
	DB	021H
	DB	04H
	DB	021H
	DB	04H
	DB	021H
	DB	04H
	DB	021H
	DB	04H
	DB	021H
	DB	04H
	DB	021H
	DB	04H
	DB	021H
	DB	04H
	DB	021H
	DB	04H
	DB	021H
	DB	04H
	DB	021H
	DB	04H
	DB	021H
	DB	04H
	DB	021H
	DB	04H
	DB	021H
	DB	04H
	DB	021H
	DB	04H
	DB	021H
	DB	04H
	DB	021H
	DB	04H
	DB	021H
	DB	04H
	DB	021H
	DB	04H
	DB	021H
	DB	04H
	DB	021H
	DB	04H
	DB	021H
	DB	04H
	DB	021H
	DB	04H
	DB	021H
	DB	04H
	DB	021H
	DB	04H
	DB	021H
	DB	04H
	DB	021H
	DB	04H
	DB	021H
	DB	04H
	DB	021H
	DB	04H
	DB	021H
	DB	04H
	DB	021H
	DB	04H
	DB	021H
	DB	04H
	DB	021H
	DB	04H
	DB	021H
	DB	04H
	DB	021H
	DB	04H
	DB	021H
	DB	04H
	DB	021H
	DB	04H
	DB	021H
	DB	04H
	DB	021H
	DB	04H
	DB	021H
	DB	04H
	DB	021H
	DB	04H
	DB	021H
	DB	04H
	DB	021H
	DB	04H
	DB	021H
	DB	04H
	DB	021H
	DB	04H
	DB	021H
	DB	04H
	DB	021H
	DB	04H
	DB	021H
	DB	04H
	DB	021H
	DB	04H
	DB	021H
	DB	04H
	DB	021H
	DB	04H
	DB	021H
	DB	04H
	DB	021H
	DB	04H
	DB	021H
	DB	04H
	DB	021H
	DB	04H
	DB	021H
	DB	04H
	DB	021H
	DB	04H
	DB	021H
	DB	04H
	DB	021H
	DB	04H
	DB	021H
	DB	04H
	DB	021H
	DB	04H
	DB	021H
	DB	04H
	DB	021H
	DB	04H
	DB	021H
	DB	04H
	DB	021H
	DB	04H
	DB	021H
	DB	04H
	DB	021H
	DB	04H
	DB	021H
	DB	04H
	DB	021H
	DB	04H
	DB	021H
	DB	04H
	DB	021H
	DB	04H
	DB	021H
	DB	04H
	DB	021H
	DB	04H
	DB	021H
	DB	04H
	DB	021H
	DB	04H
	DB	021H
	DB	04H
	DB	021H
	DB	04H
	DB	021H
	DB	04H
	DB	021H
	DB	04H
	DB	021H
	DB	04H
	DB	021H
	DB	04H
	DB	021H
	DB	04H
	DB	021H
	DB	04H
	DB	021H
	DB	04H
	DB	021H
	DB	04H
	DB	021H
	DB	04H
	DB	021H
	DB	04H
	DB	021H
	DB	04H
	DB	021H
	DB	04H
	DB	021H
	DB	04H
	DB	021H
	DB	04H
	DB	021H
	DB	04H
	DB	021H
	DB	04H
	DB	021H
	DB	04H
	DB	021H
	DB	04H
	DB	021H
	DB	04H
	DB	021H
	DB	04H
	DB	021H
	DB	04H
	DB	021H
	DB	04H
	DB	021H
	DB	04H
	DB	021H
	DB	04H
	DB	021H
	DB	04H
	DB	021H
	DB	04H
	DB	021H
	DB	04H
	DB	021H
	DB	04H
	DB	021H
	DB	04H
	DB	021H
	DB	04H
	DB	021H
	DB	04H
	DB	021H
	DB	04H
	DB	021H
	DB	04H
	DB	021H
	DB	04H
	DB	021H
	DB	04H
	DB	021H
	DB	04H
	DB	021H
	DB	04H
	DB	021H
	DB	04H
	DB	021H
	DB	04H
	DB	021H
	DB	04H
	DB	021H
	DB	04H
	DB	021H
	DB	04H
	DB	021H
	DB	04H
	DB	021H
	DB	04H
	DB	021H
	DB	04H
	DB	021H
	DB	04H
	DB	021H
	DB	04H
	DB	021H
	DB	04H
	DB	021H
	DB	04H
	DB	021H
	DB	04H
	DB	021H
	DB	04H
	DB	021H
	DB	04H
	DB	021H
	DB	04H
	DB	021H
	DB	04H
	DB	021H
	DB	04H
	DB	021H
	DB	04H
	DB	021H
	DB	04H
	DB	021H
	DB	04H
	DB	021H
	DB	04H
	DB	021H
	DB	04H
	DB	021H
	DB	04H
	DB	021H
	DB	04H
	DB	021H
	DB	04H
	DB	021H
	DB	04H
	DB	021H
	DB	04H
	DB	021H
	DB	04H
	DB	021H
	DB	04H
	DB	021H
	DB	04H
	DB	021H
	DB	04H
	DB	021H
	DB	04H
	DB	021H
	DB	04H
	DB	021H
	DB	04H
	DB	021H
	DB	04H
	DB	021H
	DB	04H
	DB	021H
	DB	04H
	DB	021H
	DB	04H
	DB	021H
	DB	04H
	DB	021H
	DB	04H
	DB	021H
	DB	04H
	DB	021H
	DB	04H
	DB	021H
	DB	04H
	DB	021H
	DB	04H
	DB	021H
	DB	04H
	DB	021H
	DB	04H
	DB	021H
	DB	04H
	DB	021H
	DB	04H
	DB	021H
	DB	04H
	DB	021H
	DB	04H
	DB	021H
	DB	04H
	DB	021H
	DB	04H
	DB	021H
	DB	04H
	DB	021H
	DB	04H
	DB	021H
	DB	04H
	DB	021H
	DB	04H
	DB	021H
	DB	04H
	DB	021H
	DB	04H
	DB	021H
	DB	04H
	DB	021H
	DB	04H
	DB	021H
	DB	04H
	DB	021H
	DB	04H
	DB	021H
	DB	04H
	DB	021H
	DB	04H
	DB	021H
	DB	04H
	DB	021H
	DB	04H
	DB	021H
	DB	04H
	DB	021H
	DB	04H
	DB	021H
	DB	04H
	DB	021H
	DB	04H
	DB	021H
	DB	04H
	DB	021H
	DB	04H
	DB	021H
	DB	04H
	DB	021H
	DB	04H
	DB	021H
	DB	04H
	DB	021H
	DB	04H
	DB	021H
	DB	04H
	DB	021H
	DB	04H
	DB	021H
	DB	04H
	DB	021H
	DB	04H
	DB	021H
	DB	04H
	DB	021H
	DB	04H
	DB	021H
	DB	04H
	DB	021H
	DB	04H
	DB	021H
	DB	04H
	DB	021H
	DB	04H
	DB	021H
	DB	04H
	DB	021H
	DB	04H
	DB	021H
	DB	04H
	DB	021H
	DB	04H
	DB	021H
	DB	04H
	DB	021H
	DB	04H
	DB	021H
	DB	04H
	DB	021H
	DB	04H
	DB	021H
	DB	04H
	DB	021H
	DB	04H
	DB	021H
	DB	04H
	DB	021H
	DB	04H
	DB	021H
	DB	04H
	DB	021H
	DB	04H
	DB	021H
	DB	04H
	DB	021H
	DB	04H
	DB	021H
	DB	04H
	DB	021H
	DB	04H
	DB	021H
	DB	04H
	DB	021H
	DB	04H
	DB	021H
	DB	04H
	DB	021H
	DB	04H
	DB	021H
	DB	04H
	DB	021H
	DB	04H
	DB	021H
	DB	04H
	DB	021H
	DB	04H
	DB	021H
	DB	04H
	DB	021H
	DB	04H
	DB	021H
	DB	04H
	DB	021H
	DB	04H
	DB	021H
	DB	04H
	DB	021H
	DB	04H
	DB	021H
	DB	04H
	DB	021H
	DB	04H
	DB	021H
	DB	04H
	DB	021H
	DB	04H
	DB	021H
	DB	04H
	DB	021H
	DB	04H
	DB	021H
	DB	04H
	DB	021H
	DB	04H
	DB	021H
	DB	04H
	DB	021H
	DB	04H
	DB	021H
	DB	04H
	DB	021H
	DB	04H
	DB	021H
	DB	04H
	DB	021H
	DB	04H
	DB	021H
	DB	04H
	DB	021H
	DB	04H
	DB	021H
	DB	04H
	DB	021H
	DB	04H
	DB	021H
	DB	04H
	DB	021H
	DB	04H
	DB	021H
	DB	04H
	DB	021H
	DB	04H
	DB	021H
	DB	04H
	DB	021H
	DB	04H
	DB	021H
	DB	04H
	DB	021H
	DB	04H
	DB	021H
	DB	04H
	DB	021H
	DB	04H
	DB	021H
	DB	04H
	DB	021H
	DB	04H
	DB	021H
	DB	04H
	DB	021H
	DB	04H
	DB	021H
	DB	04H
	DB	021H
	DB	04H
	DB	021H
	DB	04H
	DB	021H
	DB	04H
	DB	021H
	DB	04H
	DB	021H
	DB	04H
	DB	021H
	DB	04H
	DB	021H
	DB	04H
	DB	021H
	DB	04H
	DB	021H
	DB	04H
	DB	021H
	DB	04H
	DB	021H
	DB	04H
	DB	021H
	DB	0e4H
	DB	020H
	DB	03H
	DB	019H
	DB	04H
	DB	021H
	DB	04H
	DB	021H
	DB	03H
	DB	019H
	DB	0e4H
	DB	020H
	DB	04H
	DB	021H
	DB	03H
	DB	019H
	DB	04H
	DB	021H
	DB	04H
	DB	021H
	DB	0e3H
	DB	018H
	DB	04H
	DB	021H
	DB	04H
	DB	021H
	DB	03H
	DB	019H
	DB	04H
	DB	021H
	DB	0e4H
	DB	020H
	DB	03H
	DB	019H
	DB	04H
	DB	021H
	DB	04H
	DB	021H
	DB	03H
	DB	019H
	DB	0e4H
	DB	020H
	DB	04H
	DB	021H
	DB	03H
	DB	019H
	DB	04H
	DB	021H
	DB	04H
	DB	021H
	DB	0e3H
	DB	018H
	DB	04H
	DB	021H
	DB	04H
	DB	021H
	DB	03H
	DB	019H
	DB	04H
	DB	021H
	DB	0e4H
	DB	020H
	DB	03H
	DB	019H
	DB	04H
	DB	021H
	DB	04H
	DB	021H
	DB	03H
	DB	019H
	DB	0e4H
	DB	020H
	DB	04H
	DB	021H
	DB	03H
	DB	019H
	DB	04H
	DB	021H
	DB	04H
	DB	021H
	DB	0e3H
	DB	018H
	DB	04H
	DB	021H
	DB	04H
	DB	021H
	DB	03H
	DB	019H
	DB	04H
	DB	021H
	DB	0e4H
	DB	020H
	DB	03H
	DB	019H
	DB	04H
	DB	021H
	DB	04H
	DB	021H
	DB	03H
	DB	019H
	DB	0e4H
	DB	020H
	DB	04H
	DB	021H
	DB	03H
	DB	019H
	DB	04H
	DB	021H
	DB	04H
	DB	021H
	DB	0e3H
	DB	018H
	DB	04H
	DB	021H
	DB	04H
	DB	021H
	DB	03H
	DB	019H
	DB	04H
	DB	021H
	DB	0e4H
	DB	020H
	DB	03H
	DB	019H
	DB	04H
	DB	021H
	DB	04H
	DB	021H
	DB	03H
	DB	019H
	DB	0e4H
	DB	020H
	DB	04H
	DB	021H
	DB	03H
	DB	019H
	DB	04H
	DB	021H
	DB	04H
	DB	021H
	DB	0e3H
	DB	018H
	DB	04H
	DB	021H
	DB	04H
	DB	021H
	DB	03H
	DB	019H
	DB	04H
	DB	021H
	DB	0e4H
	DB	020H
	DB	03H
	DB	019H
	DB	04H
	DB	021H
	DB	04H
	DB	021H
	DB	03H
	DB	019H
	DB	0e4H
	DB	020H
	DB	04H
	DB	021H
	DB	03H
	DB	019H
	DB	04H
	DB	021H
	DB	04H
	DB	021H
	DB	0e3H
	DB	018H
	DB	04H
	DB	021H
	DB	04H
	DB	021H
	DB	03H
	DB	019H
	DB	04H
	DB	021H
	DB	0e4H
	DB	020H
	DB	03H
	DB	019H
	DB	04H
	DB	021H
	DB	04H
	DB	021H
	DB	0e3H
	DB	018H
	DB	04H
	DB	021H
	DB	04H
	DB	021H
	DB	0e4H
	DB	020H
	DB	04H
	DB	021H
	DB	04H
	DB	021H
	DB	0e4H
	DB	020H
	DB	04H
	DB	021H
	DB	04H
	DB	021H
	DB	0e4H
	DB	020H
	DB	04H
	DB	021H
	DB	04H
	DB	021H
	DB	0e4H
	DB	020H
	DB	04H
	DB	021H
	DB	04H
	DB	021H
	DB	0e4H
	DB	020H
	DB	04H
	DB	021H
	DB	04H
	DB	021H
	DB	0e4H
	DB	020H
	DB	04H
	DB	021H
	DB	04H
	DB	021H
	DB	0e4H
	DB	020H
	DB	04H
	DB	021H
	DB	04H
	DB	021H
	DB	0e4H
	DB	020H
	DB	04H
	DB	021H
	DB	04H
	DB	021H
	DB	0e4H
	DB	020H
	DB	04H
	DB	021H
	DB	04H
	DB	021H
	DB	0e4H
	DB	020H
	DB	04H
	DB	021H
	DB	04H
	DB	021H
	DB	0e4H
	DB	020H
	DB	04H
	DB	021H
	DB	04H
	DB	021H
	DB	0e4H
	DB	020H
	DB	04H
	DB	021H
	DB	04H
	DB	021H
	DB	0e4H
	DB	020H
	DB	04H
	DB	021H
	DB	04H
	DB	021H
	DB	0e4H
	DB	020H
	DB	04H
	DB	021H
	DB	04H
	DB	021H
	DB	0e4H
	DB	020H
	DB	04H
	DB	021H
	DB	04H
	DB	021H
	DB	0e4H
	DB	020H
	DB	04H
	DB	021H
	DB	04H
	DB	021H
	DB	0e4H
	DB	020H
	DB	04H
	DB	021H
	DB	04H
	DB	021H
	DB	0e4H
	DB	020H
	DB	04H
	DB	021H
	DB	04H
	DB	021H
	DB	0e4H
	DB	020H
	DB	04H
	DB	021H
	DB	04H
	DB	021H
	DB	0e4H
	DB	020H
	DB	04H
	DB	021H
	DB	04H
	DB	021H
	DB	0e4H
	DB	020H
	DB	04H
	DB	021H
	DB	04H
	DB	021H
	DB	0e4H
	DB	020H
	DB	04H
	DB	021H
	DB	04H
	DB	021H
	DB	0e4H
	DB	020H
	DB	04H
	DB	021H
	DB	04H
	DB	021H
	DB	0e4H
	DB	020H
	DB	04H
	DB	021H
	DB	04H
	DB	021H
	DB	0e4H
	DB	020H
	DB	04H
	DB	021H
	DB	04H
	DB	021H
	DB	0e4H
	DB	020H
	DB	04H
	DB	021H
	DB	04H
	DB	021H
	DB	0e4H
	DB	020H
	DB	04H
	DB	021H
	DB	04H
	DB	021H
	DB	0e4H
	DB	020H
	DB	04H
	DB	021H
	DB	04H
	DB	021H
	DB	0e4H
	DB	020H
	DB	04H
	DB	021H
	DB	04H
	DB	021H
	DB	0e4H
	DB	020H
	DB	04H
	DB	021H
	DB	04H
	DB	021H
	DB	0e4H
	DB	020H
	DB	04H
	DB	021H
	DB	04H
	DB	021H
	DB	0e4H
	DB	020H
	DB	04H
	DB	021H
	DB	04H
	DB	021H
	DB	0e4H
	DB	020H
	DB	04H
	DB	021H
	DB	04H
	DB	021H
	DB	0e4H
	DB	020H
	DB	04H
	DB	021H
	DB	04H
	DB	021H
	DB	03H
	DB	019H
	DB	04H
	DB	021H
	DB	04H
	DB	021H
	DB	0e4H
	DB	020H
	DB	04H
	DB	021H
	DB	04H
	DB	021H
	DB	04H
	DB	021H
	DB	04H
	DB	021H
	DB	0e4H
	DB	020H
	DB	04H
	DB	021H
	DB	04H
	DB	021H
	DB	04H
	DB	021H
	DB	04H
	DB	021H
	DB	0e4H
	DB	020H
	DB	04H
	DB	021H
	DB	04H
	DB	021H
	DB	04H
	DB	021H
	DB	04H
	DB	021H
	DB	0e4H
	DB	020H
	DB	04H
	DB	021H
	DB	04H
	DB	021H
	DB	04H
	DB	021H
	DB	04H
	DB	021H
	DB	0e4H
	DB	020H
	DB	04H
	DB	021H
	DB	04H
	DB	021H
	DB	04H
	DB	021H
	DB	04H
	DB	021H
	DB	0e4H
	DB	020H
	DB	04H
	DB	021H
	DB	04H
	DB	021H
	DB	04H
	DB	021H
	DB	04H
	DB	021H
	DB	0e4H
	DB	020H
	DB	04H
	DB	021H
	DB	04H
	DB	021H
	DB	04H
	DB	021H
	DB	04H
	DB	021H
	DB	0e4H
	DB	020H
	DB	04H
	DB	021H
	DB	04H
	DB	021H
	DB	04H
	DB	021H
	DB	04H
	DB	021H
	DB	0e4H
	DB	020H
	DB	04H
	DB	021H
	DB	04H
	DB	021H
	DB	04H
	DB	021H
	DB	04H
	DB	021H
	DB	0e4H
	DB	020H
	DB	04H
	DB	021H
	DB	04H
	DB	021H
	DB	04H
	DB	021H
	DB	04H
	DB	021H
	DB	0e4H
	DB	020H
	DB	04H
	DB	021H
	DB	04H
	DB	021H
	DB	04H
	DB	021H
	DB	04H
	DB	021H
	DB	0e4H
	DB	020H
	DB	04H
	DB	021H
	DB	04H
	DB	021H
	DB	04H
	DB	021H
	DB	04H
	DB	021H
	DB	0e4H
	DB	020H
	DB	04H
	DB	021H
	DB	04H
	DB	021H
	DB	04H
	DB	021H
	DB	04H
	DB	021H
	DB	0e4H
	DB	020H
	DB	04H
	DB	021H
	DB	04H
	DB	021H
	DB	04H
	DB	021H
	DB	04H
	DB	021H
	DB	0e4H
	DB	020H
	DB	04H
	DB	021H
	DB	04H
	DB	021H
	DB	04H
	DB	021H
	DB	04H
	DB	021H
	DB	0e4H
	DB	020H
	DB	04H
	DB	021H
	DB	04H
	DB	021H
	DB	04H
	DB	021H
	DB	04H
	DB	021H
	DB	0e4H
	DB	020H
	DB	04H
	DB	021H
	DB	04H
	DB	021H
	DB	04H
	DB	021H
	DB	04H
	DB	021H
	DB	0e4H
	DB	020H
	DB	04H
	DB	021H
	DB	04H
	DB	021H
	DB	04H
	DB	021H
	DB	04H
	DB	021H
	DB	04H
	DB	021H
	DB	04H
	DB	021H
	DB	04H
	DB	021H
	DB	04H
	DB	021H
	DB	04H
	DB	021H
	DB	0e4H
	DB	020H
	DB	0e3H
	DB	018H
	DB	0e4H
	DB	020H
	DB	0e4H
	DB	020H
	DB	0e3H
	DB	018H
	DB	0e3H
	DB	018H
	DB	0e4H
	DB	020H
	DB	0e3H
	DB	018H
	DB	0e3H
	DB	018H
	DB	0e4H
	DB	020H
	DB	0e3H
	DB	018H
	DB	0e3H
	DB	018H
	DB	0e4H
	DB	020H
	DB	0e3H
	DB	018H
	DB	0e3H
	DB	018H
	DB	03H
	DB	019H
	DB	0e4H
	DB	020H
	DB	0e3H
	DB	018H
	DB	0e3H
	DB	018H
	DB	0e4H
	DB	020H
	DB	0e3H
	DB	018H
	DB	0e3H
	DB	018H
	DB	0e3H
	DB	018H
	DB	0e4H
	DB	020H
	DB	0e3H
	DB	018H
	DB	0e3H
	DB	018H
	DB	0e4H
	DB	020H
	DB	0e3H
	DB	018H
	DB	0e3H
	DB	018H
	DB	0e3H
	DB	018H
	DB	04H
	DB	021H
	DB	0e3H
	DB	018H
	DB	0e3H
	DB	018H
	DB	0e4H
	DB	020H
	DB	0e3H
	DB	018H
	DB	0e3H
	DB	018H
	DB	0e3H
	DB	018H
	DB	0e4H
	DB	020H
	DB	0e3H
	DB	018H
	DB	0e3H
	DB	018H
	DB	0e4H
	DB	020H
	DB	0e3H
	DB	018H
	DB	0e3H
	DB	018H
	DB	0e3H
	DB	018H
	DB	0e4H
	DB	020H
	DB	03H
	DB	019H
	DB	0e3H
	DB	018H
	DB	0e4H
	DB	020H
	DB	0e3H
	DB	018H
	DB	0e3H
	DB	018H
	DB	0e3H
	DB	018H
	DB	0e4H
	DB	020H
	DB	0e3H
	DB	018H
	DB	0e3H
	DB	018H
	DB	0e4H
	DB	020H
	DB	0e3H
	DB	018H
	DB	0e3H
	DB	018H
	DB	0e3H
	DB	018H
	DB	0e4H
	DB	020H
	DB	0e3H
	DB	018H
	DB	03H
	DB	019H
	DB	0e4H
	DB	020H
	DB	0e3H
	DB	018H
	DB	0e3H
	DB	018H
	DB	0e3H
	DB	018H
	DB	0e4H
	DB	020H
	DB	0e3H
	DB	018H
	DB	0e3H
	DB	018H
	DB	0e4H
	DB	020H
	DB	0e3H
	DB	018H
	DB	0e3H
	DB	018H
	DB	0e3H
	DB	018H
	DB	0e4H
	DB	020H
	DB	0e3H
	DB	018H
	DB	0e3H
	DB	018H
	DB	04H
	DB	021H
	DB	0e3H
	DB	018H
	DB	0e3H
	DB	018H
	DB	0e3H
	DB	018H
	DB	0e4H
	DB	020H
	DB	0e3H
	DB	018H
	DB	0e3H
	DB	018H
	DB	0e4H
	DB	020H
	DB	0e3H
	DB	018H
	DB	0e3H
	DB	018H
	DB	0e3H
	DB	018H
	DB	0e4H
	DB	020H
	DB	0e3H
	DB	018H
	DB	0e3H
	DB	018H
	DB	0e4H
	DB	020H
	DB	03H
	DB	019H
	DB	0e3H
	DB	018H
	DB	0e3H
	DB	018H
	DB	0e4H
	DB	020H
	DB	0e3H
	DB	018H
	DB	0e3H
	DB	018H
	DB	0e4H
	DB	020H
	DB	0e3H
	DB	018H
	DB	0e3H
	DB	018H
	DB	0e4H
	DB	020H
	DB	0e4H
	DB	020H
	DB	04H
	DB	021H
	DB	04H
	DB	021H
	DB	0e4H
	DB	020H
	DB	04H
	DB	021H
	DB	04H
	DB	021H
	DB	04H
	DB	021H
	DB	04H
	DB	021H
	DB	04H
	DB	021H
	DB	04H
	DB	021H
	DB	04H
	DB	021H
	DB	04H
	DB	021H
	DB	04H
	DB	021H
	DB	0e4H
	DB	020H
	DB	04H
	DB	021H
	DB	04H
	DB	021H
	DB	0e4H
	DB	020H
	DB	04H
	DB	021H
	DB	04H
	DB	021H
	DB	04H
	DB	021H
	DB	04H
	DB	021H
	DB	04H
	DB	021H
	DB	04H
	DB	021H
	DB	0e4H
	DB	020H
	DB	04H
	DB	021H
	DB	04H
	DB	021H
	DB	04H
	DB	021H
	DB	04H
	DB	021H
	DB	0e4H
	DB	020H
	DB	04H
	DB	021H
	DB	04H
	DB	021H
	DB	0e4H
	DB	020H
	DB	04H
	DB	021H
	DB	04H
	DB	021H
	DB	04H
	DB	021H
	DB	04H
	DB	021H
	DB	04H
	DB	021H
	DB	04H
	DB	021H
	DB	0e4H
	DB	020H
	DB	04H
	DB	021H
	DB	04H
	DB	021H
	DB	04H
	DB	021H
	DB	04H
	DB	021H
	DB	0e4H
	DB	020H
	DB	04H
	DB	021H
	DB	04H
	DB	021H
	DB	0e4H
	DB	020H
	DB	04H
	DB	021H
	DB	04H
	DB	021H
	DB	04H
	DB	021H
	DB	04H
	DB	021H
	DB	04H
	DB	021H
	DB	04H
	DB	021H
	DB	0e4H
	DB	020H
	DB	04H
	DB	021H
	DB	04H
	DB	021H
	DB	04H
	DB	021H
	DB	04H
	DB	021H
	DB	0e4H
	DB	020H
	DB	04H
	DB	021H
	DB	04H
	DB	021H
	DB	0e4H
	DB	020H
	DB	04H
	DB	021H
	DB	04H
	DB	021H
	DB	04H
	DB	021H
	DB	04H
	DB	021H
	DB	04H
	DB	021H
	DB	04H
	DB	021H
	DB	0e4H
	DB	020H
	DB	04H
	DB	021H
	DB	04H
	DB	021H
	DB	04H
	DB	021H
	DB	04H
	DB	021H
	DB	0e4H
	DB	020H
	DB	04H
	DB	021H
	DB	04H
	DB	021H
	DB	0e4H
	DB	020H
	DB	04H
	DB	021H
	DB	04H
	DB	021H
	DB	04H
	DB	021H
	DB	04H
	DB	021H
	DB	04H
	DB	021H
	DB	04H
	DB	021H
	DB	0e4H
	DB	020H
	DB	04H
	DB	021H
	DB	04H
	DB	021H
	DB	04H
	DB	021H
	DB	04H
	DB	021H
	DB	0e4H
	DB	020H
	DB	04H
	DB	021H
	DB	04H
	DB	021H
	DB	0e4H
	DB	020H
	DB	04H
	DB	021H
	DB	04H
	DB	021H
	DB	0e4H
	DB	020H
	DB	04H
	DB	021H
	DB	04H
	DB	021H
	DB	0e4H
	DB	020H
	DB	04H
	DB	021H
	DB	0e4H
	DB	020H
	DB	0e4H
	DB	020H
	DB	03H
	DB	019H
	DB	04H
	DB	021H
	DB	0e3H
	DB	018H
	DB	04H
	DB	021H
	DB	0e4H
	DB	020H
	DB	0e3H
	DB	018H
	DB	04H
	DB	021H
	DB	0e4H
	DB	020H
	DB	0e3H
	DB	018H
	DB	04H
	DB	021H
	DB	0e4H
	DB	020H
	DB	03H
	DB	019H
	DB	0e4H
	DB	020H
	DB	0e4H
	DB	020H
	DB	04H
	DB	021H
	DB	0e3H
	DB	018H
	DB	0e4H
	DB	020H
	DB	04H
	DB	021H
	DB	0e3H
	DB	018H
	DB	0e4H
	DB	020H
	DB	04H
	DB	021H
	DB	0e4H
	DB	020H
	DB	03H
	DB	019H
	DB	04H
	DB	021H
	DB	0e4H
	DB	020H
	DB	0e3H
	DB	018H
	DB	04H
	DB	021H
	DB	04H
	DB	021H
	DB	0e4H
	DB	020H
	DB	0e3H
	DB	018H
	DB	04H
	DB	021H
	DB	0e4H
	DB	020H
	DB	0e3H
	DB	018H
	DB	04H
	DB	021H
	DB	0e4H
	DB	020H
	DB	0e4H
	DB	020H
	DB	03H
	DB	019H
	DB	04H
	DB	021H
	DB	0e4H
	DB	020H
	DB	03H
	DB	019H
	DB	0e4H
	DB	020H
	DB	04H
	DB	021H
	DB	0e4H
	DB	020H
	DB	03H
	DB	019H
	DB	0e4H
	DB	020H
	DB	0e4H
	DB	020H
	DB	03H
	DB	019H
	DB	0e4H
	DB	020H
	DB	0e4H
	DB	020H
	DB	04H
	DB	021H
	DB	0e3H
	DB	018H
	DB	04H
	DB	021H
	DB	04H
	DB	021H
	DB	0e3H
	DB	018H
	DB	04H
	DB	021H
	DB	0e4H
	DB	020H
	DB	04H
	DB	021H
	DB	0e3H
	DB	018H
	DB	04H
	DB	021H
	DB	0e4H
	DB	020H
	DB	0e3H
	DB	018H
	DB	04H
	DB	021H
	DB	0e4H
	DB	020H
	DB	0e4H
	DB	020H
	DB	03H
	DB	019H
	DB	0e4H
	DB	020H
	DB	04H
	DB	021H
	DB	03H
	DB	019H
	DB	0e4H
	DB	020H
	DB	04H
	DB	021H
	DB	0e4H
	DB	020H
	DB	03H
	DB	019H
	DB	0e4H
	DB	020H
	DB	04H
	DB	021H
	DB	0e3H
	DB	018H
	DB	0e4H
	DB	020H
	DB	04H
	DB	021H
	DB	0e4H
	DB	020H
	DB	0e3H
	DB	018H
	DB	04H
	DB	021H
	DB	0e4H
	DB	020H
	DB	03H
	DB	019H
	DB	04H
	DB	021H
	DB	0e4H
	DB	020H
	DB	04H
	DB	021H
	DB	0e3H
	DB	018H
	DB	04H
	DB	021H
	DB	0e4H
	DB	020H
	DB	03H
	DB	019H
	DB	0e4H
	DB	020H
	DB	0e4H
	DB	020H
	DB	04H
	DB	021H
	DB	0e3H
	DB	018H
	DB	04H
	DB	021H
	DB	0e4H
	DB	020H
	DB	03H
	DB	019H
	DB	04H
	DB	021H
	DB	0e4H
	DB	020H
	DB	03H
	DB	019H
	DB	0e3H
	DB	018H
	DB	0e4H
	DB	020H
	DB	0e3H
	DB	018H
	DB	0e4H
	DB	020H
	DB	0e3H
	DB	018H
	DB	0e3H
	DB	018H
	DB	0e4H
	DB	020H
	DB	0e3H
	DB	018H
	DB	0e3H
	DB	018H
	DB	0e4H
	DB	020H
	DB	0e3H
	DB	018H
	DB	0e3H
	DB	018H
	DB	0e4H
	DB	020H
	DB	0e3H
	DB	018H
	DB	0e3H
	DB	018H
	DB	0e4H
	DB	020H
	DB	0e3H
	DB	018H
	DB	0e3H
	DB	018H
	DB	0e4H
	DB	020H
	DB	0e3H
	DB	018H
	DB	0e3H
	DB	018H
	DB	0e4H
	DB	020H
	DB	0e3H
	DB	018H
	DB	0e3H
	DB	018H
	DB	0e4H
	DB	020H
	DB	0e3H
	DB	018H
	DB	0e3H
	DB	018H
	DB	0e4H
	DB	020H
	DB	0e3H
	DB	018H
	DB	0e3H
	DB	018H
	DB	0e4H
	DB	020H
	DB	0e3H
	DB	018H
	DB	0e3H
	DB	018H
	DB	0e4H
	DB	020H
	DB	0e3H
	DB	018H
	DB	0e3H
	DB	018H
	DB	0e4H
	DB	020H
	DB	0e3H
	DB	018H
	DB	0e3H
	DB	018H
	DB	0e4H
	DB	020H
	DB	0e3H
	DB	018H
	DB	0e3H
	DB	018H
	DB	0e4H
	DB	020H
	DB	0e3H
	DB	018H
	DB	0e3H
	DB	018H
	DB	045H
	DB	029H
	DB	0c7H
	DB	039H
	DB	069H
	DB	04aH
	DB	0cbH
	DB	05aH
	DB	0cH
	DB	063H
	DB	0cH
	DB	063H
	DB	0ebH
	DB	05aH
	DB	08aH
	DB	052H
	DB	04H
	DB	021H
	DB	0e3H
	DB	018H
	DB	0e3H
	DB	018H
	DB	0e4H
	DB	020H
	DB	0e3H
	DB	018H
	DB	0e3H
	DB	018H
	DB	0e4H
	DB	020H
	DB	0e3H
	DB	018H
	DB	0e3H
	DB	018H
	DB	0e4H
	DB	020H
	DB	0e3H
	DB	018H
	DB	0e3H
	DB	018H
	DB	0e4H
	DB	020H
	DB	0e3H
	DB	018H
	DB	0e3H
	DB	018H
	DB	0e4H
	DB	020H
	DB	0e3H
	DB	018H
	DB	0e3H
	DB	018H
	DB	0e4H
	DB	020H
	DB	0e3H
	DB	018H
	DB	0e3H
	DB	018H
	DB	0e4H
	DB	020H
	DB	0e3H
	DB	018H
	DB	0e3H
	DB	018H
	DB	0e4H
	DB	020H
	DB	0e3H
	DB	018H
	DB	0e3H
	DB	018H
	DB	0e4H
	DB	020H
	DB	0e3H
	DB	018H
	DB	0e3H
	DB	018H
	DB	0e4H
	DB	020H
	DB	0e3H
	DB	018H
	DB	0e3H
	DB	018H
	DB	0e4H
	DB	020H
	DB	0e3H
	DB	018H
	DB	0e3H
	DB	018H
	DB	0e4H
	DB	020H
	DB	0e3H
	DB	018H
	DB	0e3H
	DB	018H
	DB	0e4H
	DB	020H
	DB	0e3H
	DB	018H
	DB	0e3H
	DB	018H
	DB	0e4H
	DB	020H
	DB	0e3H
	DB	018H
	DB	0e3H
	DB	018H
	DB	0e4H
	DB	020H
	DB	0e4H
	DB	020H
	DB	0e4H
	DB	020H
	DB	0e4H
	DB	020H
	DB	0e4H
	DB	020H
	DB	0e4H
	DB	020H
	DB	0e4H
	DB	020H
	DB	04H
	DB	021H
	DB	0e4H
	DB	020H
	DB	0e4H
	DB	020H
	DB	0e4H
	DB	020H
	DB	04H
	DB	021H
	DB	0e4H
	DB	020H
	DB	0e4H
	DB	020H
	DB	0e4H
	DB	020H
	DB	04H
	DB	021H
	DB	0e3H
	DB	018H
	DB	0e4H
	DB	020H
	DB	04H
	DB	021H
	DB	0e4H
	DB	020H
	DB	0e4H
	DB	020H
	DB	04H
	DB	021H
	DB	0e4H
	DB	020H
	DB	0e4H
	DB	020H
	DB	0e4H
	DB	020H
	DB	0e4H
	DB	020H
	DB	0e4H
	DB	020H
	DB	04H
	DB	021H
	DB	0e4H
	DB	020H
	DB	0e4H
	DB	020H
	DB	0e3H
	DB	018H
	DB	04H
	DB	021H
	DB	0e4H
	DB	020H
	DB	0e4H
	DB	020H
	DB	04H
	DB	021H
	DB	0e4H
	DB	020H
	DB	0e4H
	DB	020H
	DB	03H
	DB	019H
	DB	0e4H
	DB	020H
	DB	0e4H
	DB	020H
	DB	0e4H
	DB	020H
	DB	0e4H
	DB	020H
	DB	0e4H
	DB	020H
	DB	0e4H
	DB	020H
	DB	0e4H
	DB	020H
	DB	065H
	DB	029H
	DB	06aH
	DB	052H
	DB	02cH
	DB	063H
	DB	02cH
	DB	063H
	DB	02cH
	DB	063H
	DB	02cH
	DB	063H
	DB	02cH
	DB	063H
	DB	02cH
	DB	063H
	DB	02cH
	DB	063H
	DB	0a7H
	DB	039H
	DB	0e4H
	DB	020H
	DB	0e4H
	DB	020H
	DB	0e4H
	DB	020H
	DB	0e4H
	DB	020H
	DB	0e4H
	DB	020H
	DB	0e4H
	DB	020H
	DB	04H
	DB	021H
	DB	0e4H
	DB	020H
	DB	0e4H
	DB	020H
	DB	04H
	DB	021H
	DB	0e3H
	DB	018H
	DB	0e4H
	DB	020H
	DB	0e4H
	DB	020H
	DB	0e4H
	DB	020H
	DB	0e4H
	DB	020H
	DB	0e4H
	DB	020H
	DB	0e4H
	DB	020H
	DB	0e3H
	DB	018H
	DB	0e4H
	DB	020H
	DB	0e4H
	DB	020H
	DB	04H
	DB	021H
	DB	0e4H
	DB	020H
	DB	0e4H
	DB	020H
	DB	04H
	DB	021H
	DB	0e4H
	DB	020H
	DB	0e4H
	DB	020H
	DB	04H
	DB	021H
	DB	0e4H
	DB	020H
	DB	0e4H
	DB	020H
	DB	0e4H
	DB	020H
	DB	0e4H
	DB	020H
	DB	0e3H
	DB	018H
	DB	0e4H
	DB	020H
	DB	0e4H
	DB	020H
	DB	0e4H
	DB	020H
	DB	04H
	DB	021H
	DB	0e4H
	DB	020H
	DB	0e4H
	DB	020H
	DB	03H
	DB	019H
	DB	0e4H
	DB	020H
	DB	0e4H
	DB	020H
	DB	0e4H
	DB	020H
	DB	0e4H
	DB	020H
	DB	0e4H
	DB	020H
	DB	0e3H
	DB	018H
	DB	0e4H
	DB	020H
	DB	0e4H
	DB	020H
	DB	0e4H
	DB	020H
	DB	0e3H
	DB	018H
	DB	03H
	DB	019H
	DB	0e4H
	DB	020H
	DB	0e3H
	DB	018H
	DB	03H
	DB	019H
	DB	0e4H
	DB	020H
	DB	0e3H
	DB	018H
	DB	03H
	DB	019H
	DB	0e4H
	DB	020H
	DB	0e3H
	DB	018H
	DB	0e3H
	DB	018H
	DB	04H
	DB	021H
	DB	0e4H
	DB	020H
	DB	0e3H
	DB	018H
	DB	04H
	DB	021H
	DB	0e4H
	DB	020H
	DB	0e3H
	DB	018H
	DB	0e3H
	DB	018H
	DB	04H
	DB	021H
	DB	0e3H
	DB	018H
	DB	0e3H
	DB	018H
	DB	04H
	DB	021H
	DB	0e3H
	DB	018H
	DB	0e3H
	DB	018H
	DB	0e4H
	DB	020H
	DB	03H
	DB	019H
	DB	0e4H
	DB	020H
	DB	0e4H
	DB	020H
	DB	0e3H
	DB	018H
	DB	04H
	DB	021H
	DB	0e3H
	DB	018H
	DB	0e3H
	DB	018H
	DB	0e4H
	DB	020H
	DB	0e4H
	DB	020H
	DB	0e4H
	DB	020H
	DB	03H
	DB	019H
	DB	0e4H
	DB	020H
	DB	03H
	DB	019H
	DB	0e3H
	DB	018H
	DB	04H
	DB	021H
	DB	04H
	DB	021H
	DB	028H
	DB	042H
	DB	02cH
	DB	063H
	DB	02cH
	DB	063H
	DB	02dH
	DB	06bH
	DB	02cH
	DB	063H
	DB	0dH
	DB	06bH
	DB	02cH
	DB	063H
	DB	0dH
	DB	06bH
	DB	02cH
	DB	063H
	DB	029H
	DB	04aH
	DB	0e4H
	DB	020H
	DB	0e3H
	DB	018H
	DB	0e3H
	DB	018H
	DB	0e7H
	DB	039H
	DB	0cH
	DB	063H
	DB	049H
	DB	04aH
	DB	0e3H
	DB	018H
	DB	03H
	DB	019H
	DB	0e4H
	DB	020H
	DB	0e3H
	DB	018H
	DB	04H
	DB	021H
	DB	0e4H
	DB	020H
	DB	0e3H
	DB	018H
	DB	04H
	DB	021H
	DB	0e3H
	DB	018H
	DB	03H
	DB	019H
	DB	0e4H
	DB	020H
	DB	04H
	DB	021H
	DB	0e4H
	DB	020H
	DB	0e3H
	DB	018H
	DB	04H
	DB	021H
	DB	0e3H
	DB	018H
	DB	0e3H
	DB	018H
	DB	0e4H
	DB	020H
	DB	03H
	DB	019H
	DB	0e3H
	DB	018H
	DB	0e4H
	DB	020H
	DB	0e3H
	DB	018H
	DB	0e3H
	DB	018H
	DB	04H
	DB	021H
	DB	0e3H
	DB	018H
	DB	04H
	DB	021H
	DB	0e4H
	DB	020H
	DB	03H
	DB	019H
	DB	0e4H
	DB	020H
	DB	0e3H
	DB	018H
	DB	03H
	DB	019H
	DB	0e4H
	DB	020H
	DB	0e4H
	DB	020H
	DB	04H
	DB	021H
	DB	0e3H
	DB	018H
	DB	0e4H
	DB	020H
	DB	03H
	DB	019H
	DB	04H
	DB	021H
	DB	0e4H
	DB	020H
	DB	03H
	DB	019H
	DB	0e4H
	DB	020H
	DB	0e3H
	DB	018H
	DB	0e3H
	DB	018H
	DB	0e3H
	DB	018H
	DB	0e4H
	DB	020H
	DB	0e3H
	DB	018H
	DB	0e3H
	DB	018H
	DB	0e4H
	DB	020H
	DB	0e3H
	DB	018H
	DB	0e3H
	DB	018H
	DB	0e4H
	DB	020H
	DB	0e3H
	DB	018H
	DB	0e3H
	DB	018H
	DB	0e4H
	DB	020H
	DB	0e3H
	DB	018H
	DB	0e3H
	DB	018H
	DB	0e4H
	DB	020H
	DB	0e3H
	DB	018H
	DB	0e3H
	DB	018H
	DB	0e3H
	DB	018H
	DB	0e4H
	DB	020H
	DB	0e3H
	DB	018H
	DB	0e3H
	DB	018H
	DB	0e4H
	DB	020H
	DB	0e3H
	DB	018H
	DB	0e3H
	DB	018H
	DB	0e4H
	DB	020H
	DB	0e3H
	DB	018H
	DB	0e3H
	DB	018H
	DB	0e3H
	DB	018H
	DB	0e4H
	DB	020H
	DB	0e3H
	DB	018H
	DB	0e3H
	DB	018H
	DB	0e4H
	DB	020H
	DB	0e3H
	DB	018H
	DB	0e3H
	DB	018H
	DB	0e3H
	DB	018H
	DB	0e3H
	DB	018H
	DB	0e4H
	DB	020H
	DB	0e3H
	DB	018H
	DB	0e3H
	DB	018H
	DB	0e4H
	DB	020H
	DB	024H
	DB	021H
	DB	0aaH
	DB	052H
	DB	02cH
	DB	063H
	DB	02dH
	DB	06bH
	DB	02cH
	DB	063H
	DB	02cH
	DB	063H
	DB	02dH
	DB	06bH
	DB	0ebH
	DB	05aH
	DB	06aH
	DB	052H
	DB	029H
	DB	04aH
	DB	08H
	DB	042H
	DB	0e4H
	DB	020H
	DB	0e3H
	DB	018H
	DB	0e3H
	DB	018H
	DB	086H
	DB	031H
	DB	02cH
	DB	063H
	DB	02cH
	DB	063H
	DB	0cH
	DB	063H
	DB	0e3H
	DB	018H
	DB	0e4H
	DB	020H
	DB	0e3H
	DB	018H
	DB	0e3H
	DB	018H
	DB	0e3H
	DB	018H
	DB	0e4H
	DB	020H
	DB	0e3H
	DB	018H
	DB	0e3H
	DB	018H
	DB	0e4H
	DB	020H
	DB	0e3H
	DB	018H
	DB	0e3H
	DB	018H
	DB	0e3H
	DB	018H
	DB	0e3H
	DB	018H
	DB	0e4H
	DB	020H
	DB	0e3H
	DB	018H
	DB	0e3H
	DB	018H
	DB	0e4H
	DB	020H
	DB	0e3H
	DB	018H
	DB	0e3H
	DB	018H
	DB	0e4H
	DB	020H
	DB	0e3H
	DB	018H
	DB	0e3H
	DB	018H
	DB	0e4H
	DB	020H
	DB	0e3H
	DB	018H
	DB	0e3H
	DB	018H
	DB	0e3H
	DB	018H
	DB	0e4H
	DB	020H
	DB	0e3H
	DB	018H
	DB	0e3H
	DB	018H
	DB	0e4H
	DB	020H
	DB	0e3H
	DB	018H
	DB	0e3H
	DB	018H
	DB	0e3H
	DB	018H
	DB	0e3H
	DB	018H
	DB	0e4H
	DB	020H
	DB	0e3H
	DB	018H
	DB	0e3H
	DB	018H
	DB	0e3H
	DB	018H
	DB	0e3H
	DB	018H
	DB	0e4H
	DB	020H
	DB	0e3H
	DB	018H
	DB	0e3H
	DB	018H
	DB	0e4H
	DB	020H
	DB	0e4H
	DB	020H
	DB	0e3H
	DB	018H
	DB	0e4H
	DB	020H
	DB	0e4H
	DB	020H
	DB	0e4H
	DB	020H
	DB	0e3H
	DB	018H
	DB	0e4H
	DB	020H
	DB	0e4H
	DB	020H
	DB	0e4H
	DB	020H
	DB	0e3H
	DB	018H
	DB	0e4H
	DB	020H
	DB	0e4H
	DB	020H
	DB	0e3H
	DB	018H
	DB	0e4H
	DB	020H
	DB	0e4H
	DB	020H
	DB	0e3H
	DB	018H
	DB	0e4H
	DB	020H
	DB	0e4H
	DB	020H
	DB	0e4H
	DB	020H
	DB	0e3H
	DB	018H
	DB	0e4H
	DB	020H
	DB	0e4H
	DB	020H
	DB	0e4H
	DB	020H
	DB	0e4H
	DB	020H
	DB	0e3H
	DB	018H
	DB	0e4H
	DB	020H
	DB	0e4H
	DB	020H
	DB	0e3H
	DB	018H
	DB	0e4H
	DB	020H
	DB	0e4H
	DB	020H
	DB	0e4H
	DB	020H
	DB	0e4H
	DB	020H
	DB	0e3H
	DB	018H
	DB	0e4H
	DB	020H
	DB	0e4H
	DB	020H
	DB	0e3H
	DB	018H
	DB	0e4H
	DB	020H
	DB	0e4H
	DB	020H
	DB	04H
	DB	021H
	DB	0abH
	DB	05aH
	DB	02cH
	DB	063H
	DB	02dH
	DB	06bH
	DB	02cH
	DB	063H
	DB	0cH
	DB	063H
	DB	049H
	DB	04aH
	DB	066H
	DB	031H
	DB	0e3H
	DB	018H
	DB	0e3H
	DB	018H
	DB	0e3H
	DB	018H
	DB	0e3H
	DB	018H
	DB	0e4H
	DB	020H
	DB	0e4H
	DB	020H
	DB	025H
	DB	029H
	DB	0ecH
	DB	062H
	DB	02cH
	DB	063H
	DB	02cH
	DB	063H
	DB	029H
	DB	04aH
	DB	0e4H
	DB	020H
	DB	0e3H
	DB	018H
	DB	0e4H
	DB	020H
	DB	0e4H
	DB	020H
	DB	0e3H
	DB	018H
	DB	0e4H
	DB	020H
	DB	0e4H
	DB	020H
	DB	0e3H
	DB	018H
	DB	0e4H
	DB	020H
	DB	0e4H
	DB	020H
	DB	0e4H
	DB	020H
	DB	0e3H
	DB	018H
	DB	0e4H
	DB	020H
	DB	0e4H
	DB	020H
	DB	0e3H
	DB	018H
	DB	0e4H
	DB	020H
	DB	0e4H
	DB	020H
	DB	0e4H
	DB	020H
	DB	0e4H
	DB	020H
	DB	0e4H
	DB	020H
	DB	0e3H
	DB	018H
	DB	0e4H
	DB	020H
	DB	0e4H
	DB	020H
	DB	0e4H
	DB	020H
	DB	0e3H
	DB	018H
	DB	0e4H
	DB	020H
	DB	0e4H
	DB	020H
	DB	0e3H
	DB	018H
	DB	0e4H
	DB	020H
	DB	0e4H
	DB	020H
	DB	0e4H
	DB	020H
	DB	0e3H
	DB	018H
	DB	0e4H
	DB	020H
	DB	0e4H
	DB	020H
	DB	0e3H
	DB	018H
	DB	0e4H
	DB	020H
	DB	0e4H
	DB	020H
	DB	0e4H
	DB	020H
	DB	0e3H
	DB	018H
	DB	0e4H
	DB	020H
	DB	0e4H
	DB	020H
	DB	0e3H
	DB	018H
	DB	0e3H
	DB	018H
	DB	0e4H
	DB	020H
	DB	0e3H
	DB	018H
	DB	0e3H
	DB	018H
	DB	0e4H
	DB	020H
	DB	0e3H
	DB	018H
	DB	0e3H
	DB	018H
	DB	0e4H
	DB	020H
	DB	0e3H
	DB	018H
	DB	0e3H
	DB	018H
	DB	0e4H
	DB	020H
	DB	0e3H
	DB	018H
	DB	0e3H
	DB	018H
	DB	0e4H
	DB	020H
	DB	0e3H
	DB	018H
	DB	0e3H
	DB	018H
	DB	0e4H
	DB	020H
	DB	0e3H
	DB	018H
	DB	0e3H
	DB	018H
	DB	0e4H
	DB	020H
	DB	0e3H
	DB	018H
	DB	0e3H
	DB	018H
	DB	0e4H
	DB	020H
	DB	0e3H
	DB	018H
	DB	0e3H
	DB	018H
	DB	0e4H
	DB	020H
	DB	0e4H
	DB	020H
	DB	0e3H
	DB	018H
	DB	0e3H
	DB	018H
	DB	0e4H
	DB	020H
	DB	0e3H
	DB	018H
	DB	0e3H
	DB	018H
	DB	0e4H
	DB	020H
	DB	0e3H
	DB	018H
	DB	0e4H
	DB	020H
	DB	0e3H
	DB	018H
	DB	0e3H
	DB	018H
	DB	0e4H
	DB	020H
	DB	0e3H
	DB	018H
	DB	069H
	DB	04aH
	DB	02cH
	DB	063H
	DB	02dH
	DB	06bH
	DB	02cH
	DB	063H
	DB	0ecH
	DB	062H
	DB	066H
	DB	031H
	DB	0e4H
	DB	020H
	DB	0e4H
	DB	020H
	DB	0e3H
	DB	018H
	DB	0e4H
	DB	020H
	DB	0e4H
	DB	020H
	DB	0e3H
	DB	018H
	DB	0e3H
	DB	018H
	DB	0e4H
	DB	020H
	DB	0aaH
	DB	052H
	DB	02cH
	DB	063H
	DB	02dH
	DB	06bH
	DB	0cH
	DB	063H
	DB	04H
	DB	021H
	DB	0e4H
	DB	020H
	DB	0e3H
	DB	018H
	DB	0e4H
	DB	020H
	DB	0e4H
	DB	020H
	DB	0e3H
	DB	018H
	DB	0e3H
	DB	018H
	DB	0e4H
	DB	020H
	DB	0e3H
	DB	018H
	DB	0e3H
	DB	018H
	DB	0e4H
	DB	020H
	DB	0e3H
	DB	018H
	DB	0e4H
	DB	020H
	DB	0e3H
	DB	018H
	DB	0e3H
	DB	018H
	DB	0e4H
	DB	020H
	DB	0e3H
	DB	018H
	DB	0e3H
	DB	018H
	DB	0e3H
	DB	018H
	DB	0e3H
	DB	018H
	DB	0e4H
	DB	020H
	DB	0e3H
	DB	018H
	DB	0e3H
	DB	018H
	DB	0e4H
	DB	020H
	DB	0e3H
	DB	018H
	DB	0e4H
	DB	020H
	DB	0e3H
	DB	018H
	DB	0e3H
	DB	018H
	DB	0e4H
	DB	020H
	DB	0e3H
	DB	018H
	DB	0e3H
	DB	018H
	DB	0e4H
	DB	020H
	DB	0e4H
	DB	020H
	DB	0e3H
	DB	018H
	DB	0e4H
	DB	020H
	DB	0e3H
	DB	018H
	DB	0e3H
	DB	018H
	DB	0e4H
	DB	020H
	DB	0e3H
	DB	018H
	DB	0e4H
	DB	020H
	DB	0e3H
	DB	018H
	DB	0e4H
	DB	020H
	DB	0e4H
	DB	020H
	DB	0e3H
	DB	018H
	DB	0e3H
	DB	018H
	DB	0e4H
	DB	020H
	DB	0e3H
	DB	018H
	DB	0e3H
	DB	018H
	DB	0e3H
	DB	018H
	DB	0e4H
	DB	020H
	DB	0e3H
	DB	018H
	DB	0e3H
	DB	018H
	DB	0e3H
	DB	018H
	DB	0e4H
	DB	020H
	DB	0e3H
	DB	018H
	DB	0e3H
	DB	018H
	DB	0e4H
	DB	020H
	DB	0e3H
	DB	018H
	DB	0e3H
	DB	018H
	DB	0e4H
	DB	020H
	DB	0e3H
	DB	018H
	DB	0e3H
	DB	018H
	DB	0e4H
	DB	020H
	DB	0e3H
	DB	018H
	DB	0e3H
	DB	018H
	DB	0e3H
	DB	018H
	DB	0e3H
	DB	018H
	DB	0e3H
	DB	018H
	DB	0e3H
	DB	018H
	DB	0e3H
	DB	018H
	DB	0e3H
	DB	018H
	DB	0e4H
	DB	020H
	DB	0e3H
	DB	018H
	DB	0e3H
	DB	018H
	DB	0e3H
	DB	018H
	DB	0e3H
	DB	018H
	DB	0e3H
	DB	018H
	DB	0e3H
	DB	018H
	DB	0e4H
	DB	020H
	DB	0e3H
	DB	018H
	DB	0e3H
	DB	018H
	DB	086H
	DB	031H
	DB	02cH
	DB	063H
	DB	02dH
	DB	06bH
	DB	0cH
	DB	063H
	DB	0ebH
	DB	05aH
	DB	025H
	DB	029H
	DB	0e3H
	DB	018H
	DB	0e3H
	DB	018H
	DB	0c3H
	DB	018H
	DB	0e3H
	DB	018H
	DB	0e4H
	DB	020H
	DB	0c3H
	DB	018H
	DB	0e3H
	DB	018H
	DB	0e4H
	DB	020H
	DB	049H
	DB	04aH
	DB	02cH
	DB	063H
	DB	02cH
	DB	063H
	DB	02dH
	DB	06bH
	DB	0e8H
	DB	041H
	DB	0e3H
	DB	018H
	DB	0e3H
	DB	018H
	DB	0e3H
	DB	018H
	DB	0e3H
	DB	018H
	DB	0e3H
	DB	018H
	DB	0e3H
	DB	018H
	DB	0e4H
	DB	020H
	DB	0e3H
	DB	018H
	DB	0e3H
	DB	018H
	DB	0e4H
	DB	020H
	DB	0e3H
	DB	018H
	DB	0e3H
	DB	018H
	DB	0e3H
	DB	018H
	DB	0e4H
	DB	020H
	DB	0e3H
	DB	018H
	DB	0e3H
	DB	018H
	DB	0e4H
	DB	020H
	DB	0e3H
	DB	018H
	DB	0e3H
	DB	018H
	DB	0e3H
	DB	018H
	DB	0e3H
	DB	018H
	DB	0e4H
	DB	020H
	DB	0e3H
	DB	018H
	DB	0e3H
	DB	018H
	DB	0e3H
	DB	018H
	DB	0e3H
	DB	018H
	DB	0e4H
	DB	020H
	DB	0e3H
	DB	018H
	DB	0e3H
	DB	018H
	DB	0e3H
	DB	018H
	DB	0e3H
	DB	018H
	DB	0e3H
	DB	018H
	DB	0e3H
	DB	018H
	DB	0e3H
	DB	018H
	DB	0e3H
	DB	018H
	DB	0e4H
	DB	020H
	DB	0e3H
	DB	018H
	DB	0e3H
	DB	018H
	DB	0e3H
	DB	018H
	DB	0e3H
	DB	018H
	DB	0e3H
	DB	018H
	DB	0e3H
	DB	018H
	DB	0e3H
	DB	018H
	DB	0e3H
	DB	018H
	DB	0e4H
	DB	020H
	DB	0e3H
	DB	018H
	DB	0e4H
	DB	020H
	DB	0e3H
	DB	018H
	DB	0e4H
	DB	020H
	DB	0e3H
	DB	018H
	DB	0e4H
	DB	020H
	DB	0e3H
	DB	018H
	DB	0e4H
	DB	020H
	DB	0e3H
	DB	018H
	DB	0e4H
	DB	020H
	DB	0e3H
	DB	018H
	DB	0e3H
	DB	018H
	DB	0e4H
	DB	020H
	DB	0e3H
	DB	018H
	DB	0e3H
	DB	018H
	DB	0e4H
	DB	020H
	DB	0e3H
	DB	018H
	DB	0e3H
	DB	018H
	DB	0e4H
	DB	020H
	DB	0e4H
	DB	020H
	DB	0e3H
	DB	018H
	DB	0e4H
	DB	020H
	DB	0e4H
	DB	020H
	DB	0e3H
	DB	018H
	DB	0e4H
	DB	020H
	DB	0e3H
	DB	018H
	DB	0e3H
	DB	018H
	DB	0e4H
	DB	020H
	DB	0e4H
	DB	020H
	DB	0e3H
	DB	018H
	DB	0e4H
	DB	020H
	DB	0e4H
	DB	020H
	DB	0e3H
	DB	018H
	DB	0e4H
	DB	020H
	DB	0e4H
	DB	020H
	DB	0e3H
	DB	018H
	DB	0abH
	DB	05aH
	DB	02dH
	DB	06bH
	DB	02cH
	DB	063H
	DB	0cH
	DB	063H
	DB	025H
	DB	029H
	DB	0e3H
	DB	018H
	DB	0e3H
	DB	018H
	DB	0e4H
	DB	020H
	DB	0c3H
	DB	018H
	DB	0e3H
	DB	018H
	DB	0e4H
	DB	020H
	DB	0e3H
	DB	018H
	DB	0e3H
	DB	018H
	DB	0c7H
	DB	039H
	DB	02cH
	DB	063H
	DB	0cH
	DB	063H
	DB	02dH
	DB	06bH
	DB	0cbH
	DB	05aH
	DB	0e4H
	DB	020H
	DB	0e3H
	DB	018H
	DB	0e3H
	DB	018H
	DB	08H
	DB	042H
	DB	0cH
	DB	063H
	DB	08H
	DB	042H
	DB	0e4H
	DB	020H
	DB	0e3H
	DB	018H
	DB	0e3H
	DB	018H
	DB	0e4H
	DB	020H
	DB	0e3H
	DB	018H
	DB	0e4H
	DB	020H
	DB	0e3H
	DB	018H
	DB	0e3H
	DB	018H
	DB	0e4H
	DB	020H
	DB	0e3H
	DB	018H
	DB	0e3H
	DB	018H
	DB	0e4H
	DB	020H
	DB	0e4H
	DB	020H
	DB	0e4H
	DB	020H
	DB	0e3H
	DB	018H
	DB	0e4H
	DB	020H
	DB	0e3H
	DB	018H
	DB	0e4H
	DB	020H
	DB	0e3H
	DB	018H
	DB	0e4H
	DB	020H
	DB	0e3H
	DB	018H
	DB	0e4H
	DB	020H
	DB	0e4H
	DB	020H
	DB	0e3H
	DB	018H
	DB	0e4H
	DB	020H
	DB	0e4H
	DB	020H
	DB	0e3H
	DB	018H
	DB	0e4H
	DB	020H
	DB	0e3H
	DB	018H
	DB	0e3H
	DB	018H
	DB	0e4H
	DB	020H
	DB	0e4H
	DB	020H
	DB	0e3H
	DB	018H
	DB	0e4H
	DB	020H
	DB	0e4H
	DB	020H
	DB	0e3H
	DB	018H
	DB	0e3H
	DB	018H
	DB	0e4H
	DB	020H
	DB	0e3H
	DB	018H
	DB	0c3H
	DB	018H
	DB	0c4H
	DB	020H
	DB	0e3H
	DB	018H
	DB	0c3H
	DB	018H
	DB	0e4H
	DB	020H
	DB	0c3H
	DB	018H
	DB	0e3H
	DB	018H
	DB	0e4H
	DB	020H
	DB	0c3H
	DB	018H
	DB	0e3H
	DB	018H
	DB	0e4H
	DB	020H
	DB	0c3H
	DB	018H
	DB	0e3H
	DB	018H
	DB	0c4H
	DB	020H
	DB	0e3H
	DB	018H
	DB	0e4H
	DB	020H
	DB	0c3H
	DB	018H
	DB	0e4H
	DB	020H
	DB	0e3H
	DB	018H
	DB	0c3H
	DB	018H
	DB	0e4H
	DB	020H
	DB	0e3H
	DB	018H
	DB	0c3H
	DB	018H
	DB	0e4H
	DB	020H
	DB	0e3H
	DB	018H
	DB	0c4H
	DB	020H
	DB	0e3H
	DB	018H
	DB	0e3H
	DB	018H
	DB	0c4H
	DB	020H
	DB	0e3H
	DB	018H
	DB	0e3H
	DB	018H
	DB	0c4H
	DB	020H
	DB	0e3H
	DB	018H
	DB	0e3H
	DB	018H
	DB	0c3H
	DB	018H
	DB	0e3H
	DB	018H
	DB	066H
	DB	031H
	DB	02cH
	DB	063H
	DB	02cH
	DB	063H
	DB	02dH
	DB	06bH
	DB	0e7H
	DB	039H
	DB	0e3H
	DB	018H
	DB	0c4H
	DB	020H
	DB	0e3H
	DB	018H
	DB	0e4H
	DB	020H
	DB	0e3H
	DB	018H
	DB	0c4H
	DB	020H
	DB	0e3H
	DB	018H
	DB	0e4H
	DB	020H
	DB	045H
	DB	029H
	DB	0cH
	DB	063H
	DB	02dH
	DB	06bH
	DB	02cH
	DB	063H
	DB	02cH
	DB	063H
	DB	0a7H
	DB	039H
	DB	0e3H
	DB	018H
	DB	0e3H
	DB	018H
	DB	0c4H
	DB	020H
	DB	0cH
	DB	063H
	DB	02dH
	DB	06bH
	DB	0cH
	DB	063H
	DB	0c3H
	DB	018H
	DB	0e4H
	DB	020H
	DB	0e3H
	DB	018H
	DB	0c3H
	DB	018H
	DB	0e4H
	DB	020H
	DB	0c3H
	DB	018H
	DB	0e4H
	DB	020H
	DB	0e3H
	DB	018H
	DB	0c4H
	DB	020H
	DB	0e3H
	DB	018H
	DB	0e3H
	DB	018H
	DB	0c3H
	DB	018H
	DB	0e3H
	DB	018H
	DB	0e3H
	DB	018H
	DB	0c4H
	DB	020H
	DB	0e3H
	DB	018H
	DB	0e3H
	DB	018H
	DB	0c4H
	DB	020H
	DB	0e3H
	DB	018H
	DB	0e3H
	DB	018H
	DB	0c4H
	DB	020H
	DB	0e3H
	DB	018H
	DB	0c3H
	DB	018H
	DB	0e3H
	DB	018H
	DB	0c4H
	DB	020H
	DB	0e3H
	DB	018H
	DB	0c3H
	DB	018H
	DB	0e4H
	DB	020H
	DB	0c4H
	DB	020H
	DB	0e3H
	DB	018H
	DB	0c3H
	DB	018H
	DB	0e3H
	DB	018H
	DB	0c3H
	DB	018H
	DB	0c4H
	DB	020H
	DB	0e3H
	DB	018H
	DB	0c4H
	DB	020H
	DB	0e3H
	DB	018H
	DB	0e3H
	DB	018H
	DB	0c3H
	DB	018H
	DB	0c3H
	DB	018H
	DB	0e3H
	DB	018H
	DB	0c3H
	DB	018H
	DB	0c3H
	DB	018H
	DB	0c3H
	DB	018H
	DB	0c3H
	DB	018H
	DB	0c3H
	DB	018H
	DB	0c3H
	DB	018H
	DB	0c3H
	DB	018H
	DB	0c3H
	DB	018H
	DB	0c3H
	DB	018H
	DB	0c3H
	DB	018H
	DB	0c3H
	DB	018H
	DB	0c3H
	DB	018H
	DB	0c3H
	DB	018H
	DB	0c3H
	DB	018H
	DB	0c3H
	DB	018H
	DB	0c3H
	DB	018H
	DB	0c3H
	DB	018H
	DB	0c3H
	DB	018H
	DB	0c3H
	DB	018H
	DB	0c3H
	DB	018H
	DB	0c3H
	DB	018H
	DB	0c3H
	DB	018H
	DB	0c3H
	DB	018H
	DB	0c3H
	DB	018H
	DB	0c3H
	DB	018H
	DB	0c3H
	DB	018H
	DB	0c3H
	DB	018H
	DB	0c3H
	DB	018H
	DB	0c3H
	DB	018H
	DB	0c3H
	DB	018H
	DB	0c3H
	DB	018H
	DB	0c3H
	DB	018H
	DB	0c3H
	DB	018H
	DB	0c3H
	DB	018H
	DB	08H
	DB	042H
	DB	02dH
	DB	06bH
	DB	02cH
	DB	063H
	DB	0ecH
	DB	062H
	DB	0e4H
	DB	020H
	DB	0c3H
	DB	018H
	DB	0c3H
	DB	018H
	DB	0c3H
	DB	018H
	DB	0c3H
	DB	018H
	DB	0c3H
	DB	018H
	DB	0c3H
	DB	018H
	DB	025H
	DB	029H
	DB	08H
	DB	042H
	DB	0ebH
	DB	05aH
	DB	0dH
	DB	06bH
	DB	02dH
	DB	06bH
	DB	02cH
	DB	063H
	DB	0abH
	DB	05aH
	DB	0c3H
	DB	018H
	DB	0c3H
	DB	018H
	DB	0c3H
	DB	018H
	DB	0e3H
	DB	018H
	DB	08H
	DB	042H
	DB	0cH
	DB	063H
	DB	028H
	DB	042H
	DB	0c3H
	DB	018H
	DB	0c3H
	DB	018H
	DB	0c3H
	DB	018H
	DB	0c3H
	DB	018H
	DB	0c3H
	DB	018H
	DB	0c3H
	DB	018H
	DB	0c3H
	DB	018H
	DB	0c3H
	DB	018H
	DB	0c3H
	DB	018H
	DB	0c4H
	DB	020H
	DB	0c3H
	DB	018H
	DB	0c3H
	DB	018H
	DB	0c3H
	DB	018H
	DB	0c3H
	DB	018H
	DB	0c3H
	DB	018H
	DB	0c3H
	DB	018H
	DB	0c3H
	DB	018H
	DB	0c3H
	DB	018H
	DB	0c3H
	DB	018H
	DB	0c3H
	DB	018H
	DB	0c3H
	DB	018H
	DB	0c3H
	DB	018H
	DB	0e3H
	DB	018H
	DB	0c3H
	DB	018H
	DB	0c3H
	DB	018H
	DB	0c3H
	DB	018H
	DB	0e3H
	DB	018H
	DB	0c3H
	DB	018H
	DB	0c3H
	DB	018H
	DB	0c3H
	DB	018H
	DB	0e3H
	DB	018H
	DB	0c3H
	DB	018H
	DB	0c3H
	DB	018H
	DB	0e3H
	DB	018H
	DB	0c3H
	DB	018H
	DB	0c3H
	DB	018H
	DB	0c3H
	DB	018H
	DB	0c3H
	DB	018H
	DB	0c3H
	DB	018H
	DB	0e3H
	DB	018H
	DB	0e4H
	DB	020H
	DB	0e3H
	DB	018H
	DB	0e4H
	DB	020H
	DB	0e3H
	DB	018H
	DB	0e4H
	DB	020H
	DB	0e3H
	DB	018H
	DB	0e3H
	DB	018H
	DB	0e4H
	DB	020H
	DB	0e3H
	DB	018H
	DB	0e4H
	DB	020H
	DB	0e4H
	DB	020H
	DB	0e3H
	DB	018H
	DB	0e3H
	DB	018H
	DB	0e4H
	DB	020H
	DB	0e3H
	DB	018H
	DB	0e3H
	DB	018H
	DB	0e4H
	DB	020H
	DB	0e3H
	DB	018H
	DB	0e4H
	DB	020H
	DB	0e3H
	DB	018H
	DB	0e3H
	DB	018H
	DB	0e4H
	DB	020H
	DB	0e3H
	DB	018H
	DB	0e3H
	DB	018H
	DB	0e4H
	DB	020H
	DB	0e3H
	DB	018H
	DB	0e4H
	DB	020H
	DB	0e3H
	DB	018H
	DB	0e3H
	DB	018H
	DB	0e4H
	DB	020H
	DB	0e3H
	DB	018H
	DB	0e4H
	DB	020H
	DB	0e4H
	DB	020H
	DB	0e3H
	DB	018H
	DB	0e3H
	DB	018H
	DB	08bH
	DB	05aH
	DB	02cH
	DB	063H
	DB	02cH
	DB	063H
	DB	049H
	DB	04aH
	DB	0c3H
	DB	018H
	DB	0e3H
	DB	018H
	DB	0e4H
	DB	020H
	DB	0e3H
	DB	018H
	DB	0e3H
	DB	018H
	DB	0e4H
	DB	020H
	DB	045H
	DB	029H
	DB	0cH
	DB	063H
	DB	02cH
	DB	063H
	DB	02cH
	DB	063H
	DB	02cH
	DB	063H
	DB	0cH
	DB	063H
	DB	02cH
	DB	063H
	DB	066H
	DB	031H
	DB	0c3H
	DB	018H
	DB	0e3H
	DB	018H
	DB	0e4H
	DB	020H
	DB	0c3H
	DB	018H
	DB	0e3H
	DB	018H
	DB	0c4H
	DB	020H
	DB	0e3H
	DB	018H
	DB	0e3H
	DB	018H
	DB	0e4H
	DB	020H
	DB	0e4H
	DB	020H
	DB	0e3H
	DB	018H
	DB	0e3H
	DB	018H
	DB	0e4H
	DB	020H
	DB	0e3H
	DB	018H
	DB	0e3H
	DB	018H
	DB	0e3H
	DB	018H
	DB	0e4H
	DB	020H
	DB	0e3H
	DB	018H
	DB	0e4H
	DB	020H
	DB	0e4H
	DB	020H
	DB	0e3H
	DB	018H
	DB	0e4H
	DB	020H
	DB	0e3H
	DB	018H
	DB	0e4H
	DB	020H
	DB	0e3H
	DB	018H
	DB	0e4H
	DB	020H
	DB	0e3H
	DB	018H
	DB	0e3H
	DB	018H
	DB	0c4H
	DB	020H
	DB	0e4H
	DB	020H
	DB	0e3H
	DB	018H
	DB	0c3H
	DB	018H
	DB	0e4H
	DB	020H
	DB	0e3H
	DB	018H
	DB	0c3H
	DB	018H
	DB	0e4H
	DB	020H
	DB	0e3H
	DB	018H
	DB	0c4H
	DB	020H
	DB	0e4H
	DB	020H
	DB	0e3H
	DB	018H
	DB	0e3H
	DB	018H
	DB	0e4H
	DB	020H
	DB	0e3H
	DB	018H
	DB	0c3H
	DB	018H
	DB	0e4H
	DB	020H
	DB	0e3H
	DB	018H
	DB	0c3H
	DB	018H
	DB	0c3H
	DB	018H
	DB	0c4H
	DB	020H
	DB	0e3H
	DB	018H
	DB	0c3H
	DB	018H
	DB	0c3H
	DB	018H
	DB	0e4H
	DB	020H
	DB	0c3H
	DB	018H
	DB	0c3H
	DB	018H
	DB	0c3H
	DB	018H
	DB	0e3H
	DB	018H
	DB	0c3H
	DB	018H
	DB	0c3H
	DB	018H
	DB	0e4H
	DB	020H
	DB	0c3H
	DB	018H
	DB	0c3H
	DB	018H
	DB	0e4H
	DB	020H
	DB	0c3H
	DB	018H
	DB	0c3H
	DB	018H
	DB	0c3H
	DB	018H
	DB	0e4H
	DB	020H
	DB	0c3H
	DB	018H
	DB	0c3H
	DB	018H
	DB	0e4H
	DB	020H
	DB	0c3H
	DB	018H
	DB	0c3H
	DB	018H
	DB	0e3H
	DB	018H
	DB	0c4H
	DB	020H
	DB	0c3H
	DB	018H
	DB	0e3H
	DB	018H
	DB	0c3H
	DB	018H
	DB	0c3H
	DB	018H
	DB	0e3H
	DB	018H
	DB	0c3H
	DB	018H
	DB	0c3H
	DB	018H
	DB	0e4H
	DB	020H
	DB	0ecH
	DB	062H
	DB	02cH
	DB	063H
	DB	02dH
	DB	06bH
	DB	0c7H
	DB	039H
	DB	0e3H
	DB	018H
	DB	0c4H
	DB	020H
	DB	0c3H
	DB	018H
	DB	0e3H
	DB	018H
	DB	0c3H
	DB	018H
	DB	0c3H
	DB	018H
	DB	08aH
	DB	052H
	DB	02dH
	DB	06bH
	DB	0e8H
	DB	041H
	DB	0e4H
	DB	020H
	DB	08H
	DB	042H
	DB	02cH
	DB	063H
	DB	0abH
	DB	05aH
	DB	0c3H
	DB	018H
	DB	0e3H
	DB	018H
	DB	0e3H
	DB	018H
	DB	0c4H
	DB	020H
	DB	0c3H
	DB	018H
	DB	0e3H
	DB	018H
	DB	0c4H
	DB	020H
	DB	0c3H
	DB	018H
	DB	0c3H
	DB	018H
	DB	0c3H
	DB	018H
	DB	0e3H
	DB	018H
	DB	0c3H
	DB	018H
	DB	0c4H
	DB	020H
	DB	0e3H
	DB	018H
	DB	0c3H
	DB	018H
	DB	0c4H
	DB	020H
	DB	0e3H
	DB	018H
	DB	0c3H
	DB	018H
	DB	0c3H
	DB	018H
	DB	0c3H
	DB	018H
	DB	0e3H
	DB	018H
	DB	0c3H
	DB	018H
	DB	0c3H
	DB	018H
	DB	0e3H
	DB	018H
	DB	0c3H
	DB	018H
	DB	0c4H
	DB	020H
	DB	0e3H
	DB	018H
	DB	0c3H
	DB	018H
	DB	0c3H
	DB	018H
	DB	0e3H
	DB	018H
	DB	0c3H
	DB	018H
	DB	0e3H
	DB	018H
	DB	0c4H
	DB	020H
	DB	0e3H
	DB	018H
	DB	0c3H
	DB	018H
	DB	0e4H
	DB	020H
	DB	0e3H
	DB	018H
	DB	0c3H
	DB	018H
	DB	0c3H
	DB	018H
	DB	0e3H
	DB	018H
	DB	0c3H
	DB	018H
	DB	0c4H
	DB	020H
	DB	0c3H
	DB	018H
	DB	0e3H
	DB	018H
	DB	0e4H
	DB	020H
	DB	0c3H
	DB	018H
	DB	0c3H
	DB	018H
	DB	0c3H
	DB	018H
	DB	0c3H
	DB	018H
	DB	0c3H
	DB	018H
	DB	0c3H
	DB	018H
	DB	0c3H
	DB	018H
	DB	0c3H
	DB	018H
	DB	0c3H
	DB	018H
	DB	0c3H
	DB	018H
	DB	0c3H
	DB	018H
	DB	0c3H
	DB	018H
	DB	0c3H
	DB	018H
	DB	0c3H
	DB	018H
	DB	0c3H
	DB	018H
	DB	0c3H
	DB	018H
	DB	0c3H
	DB	018H
	DB	0c3H
	DB	018H
	DB	0c3H
	DB	018H
	DB	0c3H
	DB	018H
	DB	0c3H
	DB	018H
	DB	0c3H
	DB	018H
	DB	0c3H
	DB	018H
	DB	0c3H
	DB	018H
	DB	0c3H
	DB	018H
	DB	0c3H
	DB	018H
	DB	0c3H
	DB	018H
	DB	0c3H
	DB	018H
	DB	0c3H
	DB	018H
	DB	0c3H
	DB	018H
	DB	0c3H
	DB	018H
	DB	0c3H
	DB	018H
	DB	0c3H
	DB	018H
	DB	0c3H
	DB	018H
	DB	0c3H
	DB	018H
	DB	0c3H
	DB	018H
	DB	0c3H
	DB	018H
	DB	0c3H
	DB	018H
	DB	0cH
	DB	063H
	DB	02cH
	DB	063H
	DB	02dH
	DB	06bH
	DB	086H
	DB	031H
	DB	0c3H
	DB	018H
	DB	0c3H
	DB	018H
	DB	0c3H
	DB	018H
	DB	0c3H
	DB	018H
	DB	0c3H
	DB	018H
	DB	0c3H
	DB	018H
	DB	0cH
	DB	063H
	DB	02cH
	DB	063H
	DB	0e3H
	DB	018H
	DB	0c3H
	DB	018H
	DB	04H
	DB	021H
	DB	02dH
	DB	06bH
	DB	0ecH
	DB	062H
	DB	0c3H
	DB	018H
	DB	0c3H
	DB	018H
	DB	0c3H
	DB	018H
	DB	0c3H
	DB	018H
	DB	0c3H
	DB	018H
	DB	0c3H
	DB	018H
	DB	0c3H
	DB	018H
	DB	0c3H
	DB	018H
	DB	0c3H
	DB	018H
	DB	0c3H
	DB	018H
	DB	0c3H
	DB	018H
	DB	0c3H
	DB	018H
	DB	0c3H
	DB	018H
	DB	0c3H
	DB	018H
	DB	0c3H
	DB	018H
	DB	0c3H
	DB	018H
	DB	0c3H
	DB	018H
	DB	0c3H
	DB	018H
	DB	0c3H
	DB	018H
	DB	0c3H
	DB	018H
	DB	0c3H
	DB	018H
	DB	0c3H
	DB	018H
	DB	0c3H
	DB	018H
	DB	0c3H
	DB	018H
	DB	0c3H
	DB	018H
	DB	0c3H
	DB	018H
	DB	0c3H
	DB	018H
	DB	0c3H
	DB	018H
	DB	0c3H
	DB	018H
	DB	0c3H
	DB	018H
	DB	0c3H
	DB	018H
	DB	0c3H
	DB	018H
	DB	0c3H
	DB	018H
	DB	0c3H
	DB	018H
	DB	0c3H
	DB	018H
	DB	0c3H
	DB	018H
	DB	0c3H
	DB	018H
	DB	0c3H
	DB	018H
	DB	0c3H
	DB	018H
	DB	0c3H
	DB	018H
	DB	0c3H
	DB	018H
	DB	0c3H
	DB	018H
	DB	0c3H
	DB	018H
	DB	0c3H
	DB	018H
	DB	0c3H
	DB	018H
	DB	0c3H
	DB	018H
	DB	0c3H
	DB	018H
	DB	0c3H
	DB	018H
	DB	0e3H
	DB	018H
	DB	0c3H
	DB	018H
	DB	0c3H
	DB	018H
	DB	0e3H
	DB	018H
	DB	0c3H
	DB	018H
	DB	0c3H
	DB	018H
	DB	0e3H
	DB	018H
	DB	0c4H
	DB	020H
	DB	0c3H
	DB	018H
	DB	0e3H
	DB	018H
	DB	0c4H
	DB	020H
	DB	0c3H
	DB	018H
	DB	0e3H
	DB	018H
	DB	0c3H
	DB	018H
	DB	0c3H
	DB	018H
	DB	0c3H
	DB	018H
	DB	0e3H
	DB	018H
	DB	0c3H
	DB	018H
	DB	0c3H
	DB	018H
	DB	0e3H
	DB	018H
	DB	0c3H
	DB	018H
	DB	0c3H
	DB	018H
	DB	0c3H
	DB	018H
	DB	0e3H
	DB	018H
	DB	0c3H
	DB	018H
	DB	0c3H
	DB	018H
	DB	0e3H
	DB	018H
	DB	0c3H
	DB	018H
	DB	0c4H
	DB	020H
	DB	0e3H
	DB	018H
	DB	0c3H
	DB	018H
	DB	0c4H
	DB	020H
	DB	0e3H
	DB	018H
	DB	0c3H
	DB	018H
	DB	0c3H
	DB	018H
	DB	0cH
	DB	063H
	DB	02cH
	DB	063H
	DB	02cH
	DB	063H
	DB	086H
	DB	031H
	DB	0c3H
	DB	018H
	DB	0c3H
	DB	018H
	DB	0e3H
	DB	018H
	DB	0c4H
	DB	020H
	DB	0c3H
	DB	018H
	DB	0e3H
	DB	018H
	DB	0cbH
	DB	05aH
	DB	02dH
	DB	06bH
	DB	0e8H
	DB	041H
	DB	0e4H
	DB	020H
	DB	08H
	DB	042H
	DB	02cH
	DB	063H
	DB	0abH
	DB	05aH
	DB	0c3H
	DB	018H
	DB	0c3H
	DB	018H
	DB	0c3H
	DB	018H
	DB	0c3H
	DB	018H
	DB	0e3H
	DB	018H
	DB	0c3H
	DB	018H
	DB	0e8H
	DB	041H
	DB	0cH
	DB	063H
	DB	029H
	DB	04aH
	DB	0e3H
	DB	018H
	DB	0c3H
	DB	018H
	DB	0c3H
	DB	018H
	DB	0e3H
	DB	018H
	DB	0c3H
	DB	018H
	DB	0c3H
	DB	018H
	DB	0e3H
	DB	018H
	DB	0c3H
	DB	018H
	DB	0c3H
	DB	018H
	DB	0e4H
	DB	020H
	DB	0c3H
	DB	018H
	DB	0c3H
	DB	018H
	DB	0e4H
	DB	020H
	DB	0c3H
	DB	018H
	DB	0c3H
	DB	018H
	DB	0c3H
	DB	018H
	DB	0e3H
	DB	018H
	DB	0c3H
	DB	018H
	DB	0c4H
	DB	020H
	DB	0e3H
	DB	018H
	DB	0c3H
	DB	018H
	DB	0c4H
	DB	020H
	DB	0e3H
	DB	018H
	DB	0c3H
	DB	018H
	DB	0c3H
	DB	018H
	DB	0c3H
	DB	018H
	DB	0c3H
	DB	018H
	DB	0c3H
	DB	018H
	DB	0e3H
	DB	018H
	DB	0c4H
	DB	020H
	DB	0c3H
	DB	018H
	DB	0e3H
	DB	018H
	DB	0c3H
	DB	018H
	DB	0c3H
	DB	018H
	DB	0c3H
	DB	018H
	DB	0c3H
	DB	018H
	DB	0c3H
	DB	018H
	DB	0c3H
	DB	018H
	DB	0c3H
	DB	018H
	DB	0c3H
	DB	018H
	DB	0e4H
	DB	020H
	DB	0c3H
	DB	018H
	DB	0c3H
	DB	018H
	DB	0c4H
	DB	020H
	DB	0c3H
	DB	018H
	DB	0e3H
	DB	018H
	DB	0c3H
	DB	018H
	DB	0c3H
	DB	018H
	DB	0e3H
	DB	018H
	DB	0c3H
	DB	018H
	DB	0c3H
	DB	018H
	DB	0c3H
	DB	018H
	DB	0e4H
	DB	020H
	DB	0c3H
	DB	018H
	DB	0c3H
	DB	018H
	DB	0e4H
	DB	020H
	DB	0c3H
	DB	018H
	DB	0c3H
	DB	018H
	DB	0c4H
	DB	020H
	DB	0e3H
	DB	018H
	DB	0c3H
	DB	018H
	DB	0c4H
	DB	020H
	DB	0c3H
	DB	018H
	DB	0c3H
	DB	018H
	DB	0c4H
	DB	020H
	DB	0c3H
	DB	018H
	DB	0c3H
	DB	018H
	DB	0c3H
	DB	018H
	DB	0c3H
	DB	018H
	DB	0c3H
	DB	018H
	DB	0c3H
	DB	018H
	DB	0c3H
	DB	018H
	DB	0e3H
	DB	018H
	DB	0c3H
	DB	018H
	DB	0cbH
	DB	05aH
	DB	02dH
	DB	06bH
	DB	02dH
	DB	06bH
	DB	0c7H
	DB	039H
	DB	0c3H
	DB	018H
	DB	0c3H
	DB	018H
	DB	0c3H
	DB	018H
	DB	0e3H
	DB	018H
	DB	0c3H
	DB	018H
	DB	0c3H
	DB	018H
	DB	0a7H
	DB	039H
	DB	02cH
	DB	063H
	DB	02cH
	DB	063H
	DB	02cH
	DB	063H
	DB	02cH
	DB	063H
	DB	0cH
	DB	063H
	DB	086H
	DB	031H
	DB	0c3H
	DB	018H
	DB	0c3H
	DB	018H
	DB	0e3H
	DB	018H
	DB	0c3H
	DB	018H
	DB	0c3H
	DB	018H
	DB	0e3H
	DB	018H
	DB	0cH
	DB	063H
	DB	02dH
	DB	06bH
	DB	0cH
	DB	063H
	DB	0c3H
	DB	018H
	DB	0c3H
	DB	018H
	DB	0c4H
	DB	020H
	DB	0c3H
	DB	018H
	DB	0c3H
	DB	018H
	DB	0c4H
	DB	020H
	DB	0c3H
	DB	018H
	DB	0c3H
	DB	018H
	DB	0c3H
	DB	018H
	DB	0e3H
	DB	018H
	DB	0c3H
	DB	018H
	DB	0c3H
	DB	018H
	DB	0c3H
	DB	018H
	DB	0e3H
	DB	018H
	DB	0c3H
	DB	018H
	DB	0c4H
	DB	020H
	DB	0c3H
	DB	018H
	DB	0c3H
	DB	018H
	DB	0c3H
	DB	018H
	DB	0e3H
	DB	018H
	DB	0c3H
	DB	018H
	DB	0c3H
	DB	018H
	DB	0c3H
	DB	018H
	DB	0e3H
	DB	018H
	DB	0c4H
	DB	020H
	DB	0e3H
	DB	018H
	DB	0c3H
	DB	018H
	DB	0c3H
	DB	018H
	DB	0e3H
	DB	018H
	DB	0c3H
	DB	018H
	DB	0c3H
	DB	018H
	DB	0e3H
	DB	018H
	DB	0c4H
	DB	020H
	DB	0c3H
	DB	018H
	DB	0e3H
	DB	018H
	DB	0c3H
	DB	018H
	DB	0c3H
	DB	018H
	DB	0c3H
	DB	018H
	DB	0c3H
	DB	018H
	DB	0c3H
	DB	018H
	DB	0c3H
	DB	018H
	DB	0c3H
	DB	018H
	DB	0c3H
	DB	018H
	DB	0c3H
	DB	018H
	DB	0c3H
	DB	018H
	DB	0c3H
	DB	018H
	DB	0c3H
	DB	018H
	DB	0c3H
	DB	018H
	DB	0c3H
	DB	018H
	DB	0c3H
	DB	018H
	DB	0c3H
	DB	018H
	DB	0c3H
	DB	018H
	DB	0c3H
	DB	018H
	DB	0c3H
	DB	018H
	DB	0c3H
	DB	018H
	DB	0c3H
	DB	018H
	DB	0c3H
	DB	018H
	DB	0c3H
	DB	018H
	DB	0c3H
	DB	018H
	DB	0c3H
	DB	018H
	DB	0c3H
	DB	018H
	DB	0c3H
	DB	018H
	DB	0c3H
	DB	018H
	DB	0c3H
	DB	018H
	DB	0c3H
	DB	018H
	DB	0c3H
	DB	018H
	DB	0c3H
	DB	018H
	DB	0c3H
	DB	018H
	DB	0c3H
	DB	018H
	DB	0c3H
	DB	018H
	DB	0c3H
	DB	018H
	DB	0c3H
	DB	018H
	DB	0c3H
	DB	018H
	DB	0c3H
	DB	018H
	DB	049H
	DB	04aH
	DB	02dH
	DB	06bH
	DB	02cH
	DB	063H
	DB	029H
	DB	04aH
	DB	0c3H
	DB	018H
	DB	0c3H
	DB	018H
	DB	0c3H
	DB	018H
	DB	0c3H
	DB	018H
	DB	0c3H
	DB	018H
	DB	0c3H
	DB	018H
	DB	0c3H
	DB	018H
	DB	0a7H
	DB	039H
	DB	0abH
	DB	05aH
	DB	0cH
	DB	063H
	DB	0abH
	DB	05aH
	DB	086H
	DB	031H
	DB	0c3H
	DB	018H
	DB	0c3H
	DB	018H
	DB	0c3H
	DB	018H
	DB	0c3H
	DB	018H
	DB	0c3H
	DB	018H
	DB	0c3H
	DB	018H
	DB	0c3H
	DB	018H
	DB	08H
	DB	042H
	DB	0cH
	DB	063H
	DB	028H
	DB	042H
	DB	0c3H
	DB	018H
	DB	0c3H
	DB	018H
	DB	0c3H
	DB	018H
	DB	0c3H
	DB	018H
	DB	0c3H
	DB	018H
	DB	0c3H
	DB	018H
	DB	0c3H
	DB	018H
	DB	0c3H
	DB	018H
	DB	0c3H
	DB	018H
	DB	0c3H
	DB	018H
	DB	0c3H
	DB	018H
	DB	0c3H
	DB	018H
	DB	0c3H
	DB	018H
	DB	0c3H
	DB	018H
	DB	0c3H
	DB	018H
	DB	0c3H
	DB	018H
	DB	0c3H
	DB	018H
	DB	0c3H
	DB	018H
	DB	0c3H
	DB	018H
	DB	0c3H
	DB	018H
	DB	0c3H
	DB	018H
	DB	0c3H
	DB	018H
	DB	0c3H
	DB	018H
	DB	0c3H
	DB	018H
	DB	0c3H
	DB	018H
	DB	0c3H
	DB	018H
	DB	0c3H
	DB	018H
	DB	0c3H
	DB	018H
	DB	0c3H
	DB	018H
	DB	0c3H
	DB	018H
	DB	0c3H
	DB	018H
	DB	0c3H
	DB	018H
	DB	0c3H
	DB	018H
	DB	0c3H
	DB	018H
	DB	0c3H
	DB	018H
	DB	0c3H
	DB	018H
	DB	0c3H
	DB	018H
	DB	0c3H
	DB	018H
	DB	0c3H
	DB	018H
	DB	0c3H
	DB	018H
	DB	0c3H
	DB	018H
	DB	0c3H
	DB	018H
	DB	0c3H
	DB	018H
	DB	0c3H
	DB	018H
	DB	0c3H
	DB	018H
	DB	0c3H
	DB	018H
	DB	0c3H
	DB	018H
	DB	0c3H
	DB	018H
	DB	0c3H
	DB	018H
	DB	0c3H
	DB	018H
	DB	0c3H
	DB	018H
	DB	0c3H
	DB	018H
	DB	0c3H
	DB	018H
	DB	0c3H
	DB	018H
	DB	0c3H
	DB	018H
	DB	0c3H
	DB	018H
	DB	0c3H
	DB	018H
	DB	0c3H
	DB	018H
	DB	0c3H
	DB	018H
	DB	0c3H
	DB	018H
	DB	0c3H
	DB	018H
	DB	0c3H
	DB	018H
	DB	0c3H
	DB	018H
	DB	0c3H
	DB	018H
	DB	0c3H
	DB	018H
	DB	0c3H
	DB	018H
	DB	0c3H
	DB	018H
	DB	0c3H
	DB	018H
	DB	0c3H
	DB	018H
	DB	0c3H
	DB	018H
	DB	0c3H
	DB	018H
	DB	0c3H
	DB	018H
	DB	0c3H
	DB	018H
	DB	0c3H
	DB	018H
	DB	0c7H
	DB	039H
	DB	02cH
	DB	063H
	DB	02cH
	DB	063H
	DB	0ecH
	DB	062H
	DB	0e3H
	DB	018H
	DB	0c3H
	DB	018H
	DB	0c3H
	DB	018H
	DB	0c3H
	DB	018H
	DB	0c3H
	DB	018H
	DB	0c3H
	DB	018H
	DB	0c3H
	DB	018H
	DB	0c3H
	DB	018H
	DB	0c3H
	DB	018H
	DB	0c3H
	DB	018H
	DB	0c3H
	DB	018H
	DB	0c3H
	DB	018H
	DB	0c3H
	DB	018H
	DB	0c3H
	DB	018H
	DB	0c3H
	DB	018H
	DB	0c3H
	DB	018H
	DB	0c3H
	DB	018H
	DB	0c3H
	DB	018H
	DB	0c3H
	DB	018H
	DB	0c3H
	DB	018H
	DB	0c3H
	DB	018H
	DB	0c3H
	DB	018H
	DB	0c3H
	DB	018H
	DB	0c3H
	DB	018H
	DB	0c3H
	DB	018H
	DB	0c3H
	DB	018H
	DB	0c3H
	DB	018H
	DB	0c3H
	DB	018H
	DB	0c3H
	DB	018H
	DB	0c3H
	DB	018H
	DB	0c3H
	DB	018H
	DB	0c3H
	DB	018H
	DB	0c3H
	DB	018H
	DB	0c3H
	DB	018H
	DB	0c3H
	DB	018H
	DB	0c3H
	DB	018H
	DB	0c3H
	DB	018H
	DB	0c3H
	DB	018H
	DB	0c3H
	DB	018H
	DB	0c3H
	DB	018H
	DB	0c3H
	DB	018H
	DB	0c3H
	DB	018H
	DB	0c3H
	DB	018H
	DB	0c3H
	DB	018H
	DB	0c3H
	DB	018H
	DB	0c3H
	DB	018H
	DB	0c3H
	DB	018H
	DB	0c3H
	DB	018H
	DB	0c3H
	DB	018H
	DB	0c3H
	DB	018H
	DB	0c3H
	DB	018H
	DB	0c3H
	DB	018H
	DB	0c3H
	DB	018H
	DB	0c3H
	DB	018H
	DB	0c3H
	DB	018H
	DB	0c3H
	DB	018H
	DB	0c3H
	DB	018H
	DB	0c3H
	DB	018H
	DB	0c3H
	DB	018H
	DB	0c3H
	DB	018H
	DB	0c3H
	DB	018H
	DB	0c3H
	DB	018H
	DB	0c3H
	DB	018H
	DB	0c3H
	DB	018H
	DB	0c3H
	DB	018H
	DB	0c3H
	DB	018H
	DB	0c3H
	DB	018H
	DB	0c3H
	DB	018H
	DB	0c3H
	DB	018H
	DB	0c3H
	DB	018H
	DB	0c3H
	DB	018H
	DB	0c3H
	DB	018H
	DB	0c3H
	DB	018H
	DB	0c3H
	DB	018H
	DB	0c3H
	DB	018H
	DB	0c3H
	DB	018H
	DB	0c3H
	DB	018H
	DB	0c3H
	DB	018H
	DB	0c3H
	DB	018H
	DB	0c3H
	DB	018H
	DB	0c3H
	DB	018H
	DB	0c3H
	DB	018H
	DB	0c3H
	DB	018H
	DB	0c3H
	DB	018H
	DB	0c3H
	DB	018H
	DB	0c3H
	DB	018H
	DB	0c3H
	DB	018H
	DB	0c3H
	DB	018H
	DB	0c3H
	DB	018H
	DB	0c3H
	DB	018H
	DB	0c3H
	DB	018H
	DB	0c3H
	DB	018H
	DB	0c3H
	DB	018H
	DB	0c3H
	DB	018H
	DB	0c3H
	DB	018H
	DB	0c3H
	DB	018H
	DB	0e4H
	DB	020H
	DB	0cH
	DB	063H
	DB	02cH
	DB	063H
	DB	02dH
	DB	06bH
	DB	0c7H
	DB	039H
	DB	0c3H
	DB	018H
	DB	0c3H
	DB	018H
	DB	0c3H
	DB	018H
	DB	0c3H
	DB	018H
	DB	0c3H
	DB	018H
	DB	0c3H
	DB	018H
	DB	0c3H
	DB	018H
	DB	0c3H
	DB	018H
	DB	0c3H
	DB	018H
	DB	0c3H
	DB	018H
	DB	0c3H
	DB	018H
	DB	0c3H
	DB	018H
	DB	0c3H
	DB	018H
	DB	0c3H
	DB	018H
	DB	0c3H
	DB	018H
	DB	0c3H
	DB	018H
	DB	0c3H
	DB	018H
	DB	0c3H
	DB	018H
	DB	0c3H
	DB	018H
	DB	0c3H
	DB	018H
	DB	0c3H
	DB	018H
	DB	0c3H
	DB	018H
	DB	0c3H
	DB	018H
	DB	0c3H
	DB	018H
	DB	0c3H
	DB	018H
	DB	0c3H
	DB	018H
	DB	0c3H
	DB	018H
	DB	0c3H
	DB	018H
	DB	0c3H
	DB	018H
	DB	0c3H
	DB	018H
	DB	0c3H
	DB	018H
	DB	0c3H
	DB	018H
	DB	0c3H
	DB	018H
	DB	0c3H
	DB	018H
	DB	0c3H
	DB	018H
	DB	0c3H
	DB	018H
	DB	0c3H
	DB	018H
	DB	0c3H
	DB	018H
	DB	0c3H
	DB	018H
	DB	0c3H
	DB	018H
	DB	0c3H
	DB	018H
	DB	0c3H
	DB	018H
	DB	0c3H
	DB	018H
	DB	0c3H
	DB	018H
	DB	0c3H
	DB	018H
	DB	0c3H
	DB	018H
	DB	0c3H
	DB	018H
	DB	0c3H
	DB	018H
	DB	0c3H
	DB	018H
	DB	0c3H
	DB	018H
	DB	0c3H
	DB	018H
	DB	0c3H
	DB	018H
	DB	0c3H
	DB	018H
	DB	0c3H
	DB	018H
	DB	0c3H
	DB	018H
	DB	0c3H
	DB	018H
	DB	0c3H
	DB	018H
	DB	0c3H
	DB	018H
	DB	0c3H
	DB	018H
	DB	0c3H
	DB	018H
	DB	0c3H
	DB	018H
	DB	0c3H
	DB	018H
	DB	0c3H
	DB	018H
	DB	0c3H
	DB	018H
	DB	0c3H
	DB	018H
	DB	0c3H
	DB	018H
	DB	0c3H
	DB	018H
	DB	0c3H
	DB	018H
	DB	0c3H
	DB	018H
	DB	0c3H
	DB	018H
	DB	0c3H
	DB	018H
	DB	0c3H
	DB	018H
	DB	0c3H
	DB	018H
	DB	0c3H
	DB	018H
	DB	0c3H
	DB	018H
	DB	0c3H
	DB	018H
	DB	0c3H
	DB	018H
	DB	0c3H
	DB	018H
	DB	0c3H
	DB	018H
	DB	0c3H
	DB	018H
	DB	0c3H
	DB	018H
	DB	0c3H
	DB	018H
	DB	0c3H
	DB	018H
	DB	0c3H
	DB	018H
	DB	0c3H
	DB	018H
	DB	0c3H
	DB	018H
	DB	0c3H
	DB	018H
	DB	0c3H
	DB	018H
	DB	0c3H
	DB	018H
	DB	0c3H
	DB	018H
	DB	0c3H
	DB	018H
	DB	0c3H
	DB	018H
	DB	0c3H
	DB	018H
	DB	0c3H
	DB	018H
	DB	0c3H
	DB	018H
	DB	0a3H
	DB	018H
	DB	08H
	DB	042H
	DB	0cH
	DB	063H
	DB	02cH
	DB	063H
	DB	0ecH
	DB	062H
	DB	04H
	DB	021H
	DB	0c3H
	DB	018H
	DB	0c3H
	DB	018H
	DB	0c3H
	DB	018H
	DB	0c3H
	DB	018H
	DB	0c3H
	DB	018H
	DB	0a3H
	DB	018H
	DB	0c3H
	DB	018H
	DB	0c3H
	DB	018H
	DB	0a3H
	DB	018H
	DB	0c3H
	DB	018H
	DB	0c3H
	DB	018H
	DB	0c3H
	DB	018H
	DB	0c3H
	DB	018H
	DB	0c3H
	DB	018H
	DB	0c3H
	DB	018H
	DB	0c3H
	DB	018H
	DB	0c3H
	DB	018H
	DB	0c3H
	DB	018H
	DB	0c3H
	DB	018H
	DB	0c3H
	DB	018H
	DB	0c3H
	DB	018H
	DB	0c3H
	DB	018H
	DB	0c3H
	DB	018H
	DB	0c3H
	DB	018H
	DB	0c3H
	DB	018H
	DB	0c3H
	DB	018H
	DB	0c3H
	DB	018H
	DB	0c3H
	DB	018H
	DB	0c3H
	DB	018H
	DB	0c3H
	DB	018H
	DB	0c3H
	DB	018H
	DB	0c3H
	DB	018H
	DB	0c3H
	DB	018H
	DB	0c3H
	DB	018H
	DB	0c3H
	DB	018H
	DB	0c3H
	DB	018H
	DB	0c3H
	DB	018H
	DB	0c3H
	DB	018H
	DB	0c3H
	DB	018H
	DB	0c3H
	DB	018H
	DB	0c3H
	DB	018H
	DB	0c3H
	DB	018H
	DB	0c3H
	DB	018H
	DB	0c3H
	DB	018H
	DB	0c3H
	DB	018H
	DB	0c3H
	DB	018H
	DB	0c3H
	DB	018H
	DB	0c3H
	DB	018H
	DB	0c3H
	DB	018H
	DB	0c3H
	DB	018H
	DB	0c3H
	DB	018H
	DB	0c3H
	DB	018H
	DB	0c3H
	DB	018H
	DB	0c3H
	DB	018H
	DB	0c3H
	DB	018H
	DB	0c3H
	DB	018H
	DB	0c3H
	DB	018H
	DB	0c3H
	DB	018H
	DB	0a3H
	DB	018H
	DB	0c3H
	DB	018H
	DB	0a3H
	DB	018H
	DB	0c3H
	DB	018H
	DB	0c3H
	DB	018H
	DB	0a3H
	DB	018H
	DB	0c3H
	DB	018H
	DB	0c3H
	DB	018H
	DB	0a3H
	DB	018H
	DB	0c3H
	DB	018H
	DB	0a3H
	DB	018H
	DB	0c3H
	DB	018H
	DB	0a3H
	DB	018H
	DB	0c3H
	DB	018H
	DB	0a3H
	DB	018H
	DB	0c3H
	DB	018H
	DB	0a3H
	DB	018H
	DB	0c3H
	DB	018H
	DB	0c3H
	DB	018H
	DB	0a3H
	DB	018H
	DB	0c3H
	DB	018H
	DB	0c3H
	DB	018H
	DB	0a3H
	DB	018H
	DB	0c3H
	DB	018H
	DB	0c3H
	DB	018H
	DB	0c3H
	DB	018H
	DB	0c3H
	DB	018H
	DB	0c3H
	DB	018H
	DB	0c3H
	DB	018H
	DB	0c3H
	DB	018H
	DB	0c3H
	DB	018H
	DB	0c3H
	DB	018H
	DB	0c3H
	DB	018H
	DB	0a3H
	DB	018H
	DB	0c3H
	DB	018H
	DB	0c3H
	DB	018H
	DB	0c3H
	DB	018H
	DB	0e3H
	DB	018H
	DB	0cbH
	DB	05aH
	DB	02dH
	DB	06bH
	DB	02cH
	DB	063H
	DB	0abH
	DB	05aH
	DB	0c3H
	DB	018H
	DB	0c3H
	DB	018H
	DB	0a3H
	DB	018H
	DB	0c3H
	DB	018H
	DB	0c3H
	DB	018H
	DB	0a3H
	DB	018H
	DB	0c3H
	DB	018H
	DB	0c3H
	DB	018H
	DB	0a3H
	DB	018H
	DB	0c3H
	DB	018H
	DB	0a3H
	DB	018H
	DB	0a3H
	DB	018H
	DB	0c3H
	DB	018H
	DB	0a3H
	DB	018H
	DB	0e8H
	DB	041H
	DB	0cH
	DB	063H
	DB	0e8H
	DB	041H
	DB	0a3H
	DB	018H
	DB	0c3H
	DB	018H
	DB	0c3H
	DB	018H
	DB	0a3H
	DB	018H
	DB	0c3H
	DB	018H
	DB	0c3H
	DB	018H
	DB	0c3H
	DB	018H
	DB	0c3H
	DB	018H
	DB	0c3H
	DB	018H
	DB	0c3H
	DB	018H
	DB	0c3H
	DB	018H
	DB	0a3H
	DB	018H
	DB	0c3H
	DB	018H
	DB	0c3H
	DB	018H
	DB	0a3H
	DB	018H
	DB	0c3H
	DB	018H
	DB	0c3H
	DB	018H
	DB	0a3H
	DB	018H
	DB	0c3H
	DB	018H
	DB	0c3H
	DB	018H
	DB	0a3H
	DB	018H
	DB	0c3H
	DB	018H
	DB	0c3H
	DB	018H
	DB	0a3H
	DB	018H
	DB	0c3H
	DB	018H
	DB	0c3H
	DB	018H
	DB	0a3H
	DB	018H
	DB	0c3H
	DB	018H
	DB	0a3H
	DB	018H
	DB	0c3H
	DB	018H
	DB	0a3H
	DB	018H
	DB	0c3H
	DB	018H
	DB	0a3H
	DB	018H
	DB	0c3H
	DB	018H
	DB	0a3H
	DB	018H
	DB	0c3H
	DB	018H
	DB	0c3H
	DB	018H
	DB	0a3H
	DB	018H
	DB	0c3H
	DB	018H
	DB	0c3H
	DB	018H
	DB	0a3H
	DB	018H
	DB	0a3H
	DB	018H
	DB	0a3H
	DB	018H
	DB	0a2H
	DB	010H
	DB	0a3H
	DB	018H
	DB	0a3H
	DB	018H
	DB	0a3H
	DB	018H
	DB	0a3H
	DB	018H
	DB	0a3H
	DB	018H
	DB	0a3H
	DB	018H
	DB	0a3H
	DB	018H
	DB	0c3H
	DB	018H
	DB	0a3H
	DB	018H
	DB	0a3H
	DB	018H
	DB	0a3H
	DB	018H
	DB	0c3H
	DB	018H
	DB	0a3H
	DB	018H
	DB	0a3H
	DB	018H
	DB	0a3H
	DB	018H
	DB	0a3H
	DB	018H
	DB	0a3H
	DB	018H
	DB	0a3H
	DB	018H
	DB	0a3H
	DB	018H
	DB	0a3H
	DB	018H
	DB	0a3H
	DB	018H
	DB	0a3H
	DB	018H
	DB	0a3H
	DB	018H
	DB	0a3H
	DB	018H
	DB	0a3H
	DB	018H
	DB	0a3H
	DB	018H
	DB	0a3H
	DB	018H
	DB	0a3H
	DB	018H
	DB	0a3H
	DB	018H
	DB	0a3H
	DB	018H
	DB	0a3H
	DB	018H
	DB	0a3H
	DB	018H
	DB	0a3H
	DB	018H
	DB	0a3H
	DB	018H
	DB	0a3H
	DB	018H
	DB	045H
	DB	029H
	DB	0cH
	DB	063H
	DB	02cH
	DB	063H
	DB	02cH
	DB	063H
	DB	086H
	DB	031H
	DB	0a3H
	DB	018H
	DB	0a3H
	DB	018H
	DB	0a3H
	DB	018H
	DB	0a3H
	DB	018H
	DB	0c2H
	DB	010H
	DB	0a3H
	DB	018H
	DB	0a2H
	DB	010H
	DB	0c3H
	DB	018H
	DB	0a3H
	DB	018H
	DB	0c2H
	DB	010H
	DB	0a3H
	DB	018H
	DB	0a3H
	DB	018H
	DB	0c3H
	DB	018H
	DB	0cH
	DB	063H
	DB	02cH
	DB	063H
	DB	0ebH
	DB	05aH
	DB	0a3H
	DB	018H
	DB	0a3H
	DB	018H
	DB	0a3H
	DB	018H
	DB	0a3H
	DB	018H
	DB	0a3H
	DB	018H
	DB	0a3H
	DB	018H
	DB	0a3H
	DB	018H
	DB	0a3H
	DB	018H
	DB	0a3H
	DB	018H
	DB	0a3H
	DB	018H
	DB	0a3H
	DB	018H
	DB	0a3H
	DB	018H
	DB	0a3H
	DB	018H
	DB	0a3H
	DB	018H
	DB	0a3H
	DB	018H
	DB	0a3H
	DB	018H
	DB	0a3H
	DB	018H
	DB	0a3H
	DB	018H
	DB	0a3H
	DB	018H
	DB	0a3H
	DB	018H
	DB	0a3H
	DB	018H
	DB	0a3H
	DB	018H
	DB	0a3H
	DB	018H
	DB	0a3H
	DB	018H
	DB	0a3H
	DB	018H
	DB	0a3H
	DB	018H
	DB	0a3H
	DB	018H
	DB	0a3H
	DB	018H
	DB	0c3H
	DB	018H
	DB	0a3H
	DB	018H
	DB	0a3H
	DB	018H
	DB	0a3H
	DB	018H
	DB	0c3H
	DB	018H
	DB	0a3H
	DB	018H
	DB	0a3H
	DB	018H
	DB	0a3H
	DB	018H
	DB	0a3H
	DB	018H
	DB	0a3H
	DB	018H
	DB	0a3H
	DB	018H
	DB	0a3H
	DB	018H
	DB	0c3H
	DB	018H
	DB	0c2H
	DB	010H
	DB	0c3H
	DB	018H
	DB	0c3H
	DB	018H
	DB	0c2H
	DB	010H
	DB	0c3H
	DB	018H
	DB	0c2H
	DB	010H
	DB	0c3H
	DB	018H
	DB	0c2H
	DB	010H
	DB	0c3H
	DB	018H
	DB	0a2H
	DB	010H
	DB	0c3H
	DB	018H
	DB	0c2H
	DB	010H
	DB	0c3H
	DB	018H
	DB	0a2H
	DB	010H
	DB	0c3H
	DB	018H
	DB	0c2H
	DB	010H
	DB	0c3H
	DB	018H
	DB	0c2H
	DB	010H
	DB	0c2H
	DB	010H
	DB	0c3H
	DB	018H
	DB	0c2H
	DB	010H
	DB	0c2H
	DB	010H
	DB	0c3H
	DB	018H
	DB	0c2H
	DB	010H
	DB	0a2H
	DB	010H
	DB	0c3H
	DB	018H
	DB	0c2H
	DB	010H
	DB	0a2H
	DB	010H
	DB	0c3H
	DB	018H
	DB	0c2H
	DB	010H
	DB	0a3H
	DB	018H
	DB	0c3H
	DB	018H
	DB	0c2H
	DB	010H
	DB	0c3H
	DB	018H
	DB	0c3H
	DB	018H
	DB	0c2H
	DB	010H
	DB	0a3H
	DB	018H
	DB	0c3H
	DB	018H
	DB	0c3H
	DB	018H
	DB	045H
	DB	029H
	DB	0ecH
	DB	062H
	DB	0cbH
	DB	05aH
	DB	04H
	DB	021H
	DB	0c3H
	DB	018H
	DB	0c3H
	DB	018H
	DB	0c2H
	DB	010H
	DB	0a3H
	DB	018H
	DB	0c3H
	DB	018H
	DB	0c3H
	DB	018H
	DB	0a3H
	DB	018H
	DB	0c2H
	DB	010H
	DB	0c3H
	DB	018H
	DB	0a3H
	DB	018H
	DB	0c2H
	DB	010H
	DB	0c3H
	DB	018H
	DB	0a2H
	DB	010H
	DB	08H
	DB	042H
	DB	0cH
	DB	063H
	DB	0e8H
	DB	041H
	DB	0c3H
	DB	018H
	DB	0c2H
	DB	010H
	DB	0c3H
	DB	018H
	DB	0c2H
	DB	010H
	DB	0c3H
	DB	018H
	DB	0a2H
	DB	010H
	DB	0c2H
	DB	010H
	DB	0c3H
	DB	018H
	DB	0a2H
	DB	010H
	DB	0c3H
	DB	018H
	DB	0c2H
	DB	010H
	DB	0c3H
	DB	018H
	DB	0c3H
	DB	018H
	DB	0c2H
	DB	010H
	DB	0c3H
	DB	018H
	DB	0c3H
	DB	018H
	DB	0c2H
	DB	010H
	DB	0c3H
	DB	018H
	DB	0c3H
	DB	018H
	DB	0c2H
	DB	010H
	DB	0c3H
	DB	018H
	DB	0c2H
	DB	010H
	DB	0c3H
	DB	018H
	DB	0c3H
	DB	018H
	DB	0c2H
	DB	010H
	DB	0c3H
	DB	018H
	DB	0c2H
	DB	010H
	DB	0a3H
	DB	018H
	DB	0c3H
	DB	018H
	DB	0c2H
	DB	010H
	DB	0c3H
	DB	018H
	DB	0a3H
	DB	018H
	DB	0c2H
	DB	010H
	DB	0c3H
	DB	018H
	DB	0c3H
	DB	018H
	DB	0c2H
	DB	010H
	DB	0c3H
	DB	018H
	DB	0c2H
	DB	010H
	DB	0a3H
	DB	018H
	DB	0c3H
	DB	018H
	DB	0a3H
	DB	018H
	DB	0a3H
	DB	018H
	DB	0c3H
	DB	018H
	DB	0a3H
	DB	018H
	DB	0a3H
	DB	018H
	DB	0c3H
	DB	018H
	DB	0a3H
	DB	018H
	DB	0a2H
	DB	010H
	DB	0c3H
	DB	018H
	DB	0a3H
	DB	018H
	DB	0c3H
	DB	018H
	DB	0a3H
	DB	018H
	DB	0a3H
	DB	018H
	DB	0c2H
	DB	010H
	DB	0a3H
	DB	018H
	DB	0a3H
	DB	018H
	DB	0c3H
	DB	018H
	DB	0a3H
	DB	018H
	DB	0a3H
	DB	018H
	DB	0a3H
	DB	018H
	DB	0c3H
	DB	018H
	DB	0a3H
	DB	018H
	DB	0a3H
	DB	018H
	DB	0c3H
	DB	018H
	DB	0a3H
	DB	018H
	DB	0c3H
	DB	018H
	DB	0c3H
	DB	018H
	DB	0a3H
	DB	018H
	DB	0a3H
	DB	018H
	DB	0c3H
	DB	018H
	DB	0c3H
	DB	018H
	DB	0a2H
	DB	010H
	DB	0a3H
	DB	018H
	DB	0c3H
	DB	018H
	DB	0a2H
	DB	010H
	DB	0a3H
	DB	018H
	DB	0c3H
	DB	018H
	DB	0c2H
	DB	010H
	DB	0a3H
	DB	018H
	DB	0a3H
	DB	018H
	DB	0c3H
	DB	018H
	DB	0a3H
	DB	018H
	DB	0c3H
	DB	018H
	DB	0a3H
	DB	018H
	DB	0c3H
	DB	018H
	DB	0a3H
	DB	018H
	DB	0c3H
	DB	018H
	DB	0a2H
	DB	010H
	DB	0a3H
	DB	018H
	DB	0c3H
	DB	018H
	DB	0a3H
	DB	018H
	DB	0a3H
	DB	018H
	DB	0c3H
	DB	018H
	DB	0a3H
	DB	018H
	DB	0c3H
	DB	018H
	DB	0a3H
	DB	018H
	DB	0a3H
	DB	018H
	DB	0c3H
	DB	018H
	DB	0a3H
	DB	018H
	DB	0a3H
	DB	018H
	DB	0c3H
	DB	018H
	DB	0a3H
	DB	018H
	DB	0a3H
	DB	018H
	DB	0c3H
	DB	018H
	DB	0a3H
	DB	018H
	DB	0c3H
	DB	018H
	DB	0a3H
	DB	018H
	DB	0c3H
	DB	018H
	DB	0a3H
	DB	018H
	DB	0a2H
	DB	010H
	DB	0c3H
	DB	018H
	DB	0a3H
	DB	018H
	DB	0a2H
	DB	010H
	DB	0c3H
	DB	018H
	DB	0a3H
	DB	018H
	DB	0a2H
	DB	010H
	DB	0c3H
	DB	018H
	DB	0a3H
	DB	018H
	DB	0a2H
	DB	010H
	DB	0c3H
	DB	018H
	DB	0a3H
	DB	018H
	DB	0a3H
	DB	018H
	DB	0c2H
	DB	010H
	DB	0a3H
	DB	018H
	DB	0a3H
	DB	018H
	DB	0c3H
	DB	018H
	DB	0a2H
	DB	010H
	DB	0c3H
	DB	018H
	DB	0a3H
	DB	018H
	DB	0a2H
	DB	010H
	DB	0c3H
	DB	018H
	DB	0a3H
	DB	018H
	DB	0a2H
	DB	010H
	DB	0c3H
	DB	018H
	DB	0a3H
	DB	018H
	DB	0a2H
	DB	010H
	DB	0c3H
	DB	018H
	DB	0a3H
	DB	018H
	DB	0c2H
	DB	010H
	DB	0a3H
	DB	018H
	DB	0a2H
	DB	010H
	DB	0a2H
	DB	010H
	DB	0a2H
	DB	010H
	DB	0a3H
	DB	018H
	DB	0a2H
	DB	010H
	DB	0a2H
	DB	010H
	DB	0a3H
	DB	018H
	DB	0a3H
	DB	018H
	DB	0a2H
	DB	010H
	DB	0a2H
	DB	010H
	DB	0a3H
	DB	018H
	DB	0a2H
	DB	010H
	DB	0a3H
	DB	018H
	DB	0a3H
	DB	018H
	DB	0a2H
	DB	010H
	DB	0a2H
	DB	010H
	DB	0a3H
	DB	018H
	DB	0a2H
	DB	010H
	DB	0a2H
	DB	010H
	DB	0a3H
	DB	018H
	DB	0a2H
	DB	010H
	DB	0a3H
	DB	018H
	DB	0a2H
	DB	010H
	DB	0a2H
	DB	010H
	DB	0a3H
	DB	018H
	DB	0a2H
	DB	010H
	DB	0a2H
	DB	010H
	DB	0a3H
	DB	018H
	DB	0a2H
	DB	010H
	DB	0a3H
	DB	018H
	DB	0a2H
	DB	010H
	DB	0a3H
	DB	018H
	DB	0a2H
	DB	010H
	DB	0a3H
	DB	018H
	DB	0a2H
	DB	010H
	DB	0a3H
	DB	018H
	DB	0a3H
	DB	018H
	DB	0a2H
	DB	010H
	DB	0a2H
	DB	010H
	DB	0a3H
	DB	018H
	DB	0a2H
	DB	010H
	DB	0a3H
	DB	018H
	DB	0a2H
	DB	010H
	DB	0a2H
	DB	010H
	DB	0a3H
	DB	018H
	DB	0a2H
	DB	010H
	DB	0a3H
	DB	018H
	DB	0a2H
	DB	010H
	DB	0a2H
	DB	010H
	DB	0a2H
	DB	010H
	DB	0a2H
	DB	010H
	DB	0a2H
	DB	010H
	DB	0a2H
	DB	010H
	DB	0a2H
	DB	010H
	DB	0a3H
	DB	018H
	DB	0a2H
	DB	010H
	DB	0a2H
	DB	010H
	DB	0a3H
	DB	018H
	DB	0a2H
	DB	010H
	DB	0a2H
	DB	010H
	DB	0a2H
	DB	010H
	DB	0a3H
	DB	018H
	DB	0a2H
	DB	010H
	DB	0a2H
	DB	010H
	DB	0a3H
	DB	018H
	DB	0a2H
	DB	010H
	DB	0a2H
	DB	010H
	DB	0a3H
	DB	018H
	DB	0a3H
	DB	018H
	DB	0a2H
	DB	010H
	DB	0a3H
	DB	018H
	DB	0a3H
	DB	018H
	DB	0a2H
	DB	010H
	DB	0a3H
	DB	018H
	DB	0a2H
	DB	010H
	DB	0a3H
	DB	018H
	DB	0a3H
	DB	018H
	DB	0a2H
	DB	010H
	DB	0a2H
	DB	010H
	DB	0a3H
	DB	018H
	DB	0a3H
	DB	018H
	DB	0a2H
	DB	010H
	DB	0a3H
	DB	018H
	DB	0a2H
	DB	010H
	DB	0a3H
	DB	018H
	DB	0a2H
	DB	010H
	DB	0a3H
	DB	018H
	DB	0a3H
	DB	018H
	DB	0a2H
	DB	010H
	DB	0a3H
	DB	018H
	DB	0a2H
	DB	010H
	DB	0a3H
	DB	018H
	DB	0a2H
	DB	010H
	DB	0a3H
	DB	018H
	DB	0a2H
	DB	010H
	DB	0a3H
	DB	018H
	DB	0a3H
	DB	018H
	DB	0a2H
	DB	010H
	DB	0a3H
	DB	018H
	DB	0a2H
	DB	010H
	DB	0a3H
	DB	018H
	DB	0a3H
	DB	018H
	DB	0a3H
	DB	018H
	DB	0c2H
	DB	010H
	DB	0a3H
	DB	018H
	DB	0a3H
	DB	018H
	DB	0a2H
	DB	010H
	DB	0c3H
	DB	018H
	DB	0a3H
	DB	018H
	DB	0a3H
	DB	018H
	DB	0a2H
	DB	010H
	DB	0c3H
	DB	018H
	DB	0a2H
	DB	010H
	DB	0a3H
	DB	018H
	DB	0c3H
	DB	018H
	DB	0a3H
	DB	018H
	DB	0a2H
	DB	010H
	DB	0c3H
	DB	018H
	DB	0a3H
	DB	018H
	DB	0a2H
	DB	010H
	DB	0c3H
	DB	018H
	DB	0a3H
	DB	018H
	DB	0a2H
	DB	010H
	DB	0a3H
	DB	018H
	DB	0a3H
	DB	018H
	DB	0a3H
	DB	018H
	DB	0a2H
	DB	010H
	DB	0c3H
	DB	018H
	DB	0a3H
	DB	018H
	DB	0a2H
	DB	010H
	DB	0a3H
	DB	018H
	DB	0c3H
	DB	018H
	DB	0a3H
	DB	018H
	DB	0a2H
	DB	010H
	DB	0c3H
	DB	018H
	DB	0a2H
	DB	010H
	DB	0a3H
	DB	018H
	DB	0a3H
	DB	018H
	DB	0c3H
	DB	018H
	DB	0a2H
	DB	010H
	DB	0a3H
	DB	018H
	DB	0c3H
	DB	018H
	DB	0a3H
	DB	018H
	DB	0a3H
	DB	018H
	DB	0a2H
	DB	010H
	DB	0c3H
	DB	018H
	DB	0a3H
	DB	018H
	DB	0a3H
	DB	018H
	DB	0c3H
	DB	018H
	DB	0a3H
	DB	018H
	DB	0a3H
	DB	018H
	DB	0c3H
	DB	018H
	DB	0a3H
	DB	018H
	DB	0a3H
	DB	018H
	DB	0c2H
	DB	010H
	DB	0a3H
	DB	018H
	DB	0a3H
	DB	018H
	DB	0c2H
	DB	010H
	DB	0a3H
	DB	018H
	DB	0c3H
	DB	018H
	DB	0a3H
	DB	018H
	DB	0a2H
	DB	010H
	DB	0c3H
	DB	018H
	DB	0a3H
	DB	018H
	DB	0a2H
	DB	010H
	DB	0a3H
	DB	018H
	DB	0c3H
	DB	018H
	DB	0a2H
	DB	010H
	DB	0a3H
	DB	018H
	DB	0c2H
	DB	010H
	DB	0a3H
	DB	018H
	DB	0a2H
	DB	010H
	DB	0c3H
	DB	018H
	DB	0a3H
	DB	018H
	DB	0a2H
	DB	010H
	DB	0c3H
	DB	018H
	DB	0a3H
	DB	018H
	DB	0a2H
	DB	010H
	DB	0c3H
	DB	018H
	DB	0a3H
	DB	018H
	DB	0a2H
	DB	010H
	DB	0c3H
	DB	018H
	DB	0a3H
	DB	018H
	DB	0a2H
	DB	010H
	DB	0c3H
	DB	018H
	DB	0a3H
	DB	018H
	DB	0a2H
	DB	010H
	DB	0a3H
	DB	018H
	DB	0c3H
	DB	018H
	DB	0a2H
	DB	010H
	DB	0a3H
	DB	018H
	DB	0c3H
	DB	018H
	DB	0a3H
	DB	018H
	DB	0a2H
	DB	010H
	DB	0c3H
	DB	018H
	DB	0a3H
	DB	018H
	DB	0a2H
	DB	010H
	DB	0a3H
	DB	018H
	DB	0a3H
	DB	018H
	DB	0a3H
	DB	018H
	DB	0a3H
	DB	018H
	DB	0a3H
	DB	018H
	DB	0c2H
	DB	010H
	DB	0a3H
	DB	018H
	DB	0a3H
	DB	018H
	DB	0c2H
	DB	010H
	DB	0a3H
	DB	018H
	DB	0a2H
	DB	010H
	DB	0c3H
	DB	018H
	DB	0a3H
	DB	018H
	DB	0a2H
	DB	010H
	DB	0c3H
	DB	018H
	DB	0a3H
	DB	018H
	DB	0a2H
	DB	010H
	DB	0c3H
	DB	018H
	DB	0a3H
	DB	018H
	DB	0a2H
	DB	010H
	DB	0c3H
	DB	018H
	DB	0a3H
	DB	018H
	DB	0a2H
	DB	010H
	DB	0a3H
	DB	018H
	DB	0c3H
	DB	018H
	DB	0a2H
	DB	010H
	DB	0c3H
	DB	018H
	DB	0a3H
	DB	018H
	DB	0a2H
	DB	010H
	DB	0c3H
	DB	018H
	DB	0a3H
	DB	018H
	DB	0a2H
	DB	010H
	DB	0a3H
	DB	018H
	DB	0c2H
	DB	010H
	DB	0a3H
	DB	018H
	DB	0a2H
	DB	010H
	DB	0a3H
	DB	018H
	DB	0c3H
	DB	018H
	DB	0a2H
	DB	010H
	DB	0a3H
	DB	018H
	DB	0c3H
	DB	018H
	DB	0a2H
	DB	010H
	DB	0a3H
	DB	018H
	DB	0a3H
	DB	018H
	DB	0c2H
	DB	010H
	DB	0a3H
	DB	018H
	DB	0a3H
	DB	018H
	DB	0c2H
	DB	010H
	DB	0a3H
	DB	018H
	DB	0a2H
	DB	010H
	DB	0a3H
	DB	018H
	DB	0c3H
	DB	018H
	DB	0a2H
	DB	010H
	DB	0a3H
	DB	018H
	DB	0c3H
	DB	018H
	DB	0a2H
	DB	010H
	DB	0a3H
	DB	018H
	DB	0c3H
	DB	018H
	DB	0a2H
	DB	010H
	DB	0a3H
	DB	018H
	DB	0a3H
	DB	018H
	DB	0c2H
	DB	010H
	DB	0a3H
	DB	018H
	DB	0a3H
	DB	018H
	DB	0c2H
	DB	010H
	DB	0a3H
	DB	018H
	DB	0a3H
	DB	018H
	DB	0c2H
	DB	010H
	DB	0a3H
	DB	018H
	DB	0a3H
	DB	018H
	DB	0c2H
	DB	010H
	DB	0a3H
	DB	018H
	DB	0a3H
	DB	018H
	DB	0c2H
	DB	010H
	DB	0a3H
	DB	018H
	DB	0a3H
	DB	018H
	DB	0a2H
	DB	010H
	DB	0a3H
	DB	018H
	DB	0c2H
	DB	010H
	DB	0a3H
	DB	018H
	DB	0a3H
	DB	018H
	DB	0a2H
	DB	010H
	DB	0a3H
	DB	018H
	DB	0a2H
	DB	010H
	DB	0c3H
	DB	018H
	DB	0a3H
	DB	018H
	DB	0a2H
	DB	010H
	DB	0a3H
	DB	018H
	DB	0c3H
	DB	018H
	DB	0a2H
	DB	010H
	DB	0a2H
	DB	010H
	DB	0c3H
	DB	018H
	DB	0a3H
	DB	018H
	DB	0a2H
	DB	010H
	DB	0c3H
	DB	018H
	DB	0a2H
	DB	010H
	DB	0a3H
	DB	018H
	DB	0a3H
	DB	018H
	DB	0c2H
	DB	010H
	DB	0a3H
	DB	018H
	DB	0c2H
	DB	010H
	DB	0a3H
	DB	018H
	DB	0a2H
	DB	010H
	DB	0a2H
	DB	010H
	DB	0a2H
	DB	010H
	DB	0a2H
	DB	010H
	DB	0a3H
	DB	018H
	DB	0a2H
	DB	010H
	DB	0a2H
	DB	010H
	DB	0a3H
	DB	018H
	DB	0a2H
	DB	010H
	DB	0a2H
	DB	010H
	DB	0a2H
	DB	010H
	DB	0a3H
	DB	018H
	DB	0a2H
	DB	010H
	DB	0a2H
	DB	010H
	DB	0a2H
	DB	010H
	DB	0a2H
	DB	010H
	DB	0a2H
	DB	010H
	DB	0a3H
	DB	018H
	DB	0a2H
	DB	010H
	DB	0a2H
	DB	010H
	DB	0a3H
	DB	018H
	DB	0a2H
	DB	010H
	DB	0a2H
	DB	010H
	DB	0a3H
	DB	018H
	DB	0a2H
	DB	010H
	DB	0a2H
	DB	010H
	DB	0a2H
	DB	010H
	DB	0a3H
	DB	018H
	DB	0a2H
	DB	010H
	DB	0a2H
	DB	010H
	DB	0a3H
	DB	018H
	DB	0a2H
	DB	010H
	DB	0a2H
	DB	010H
	DB	0a3H
	DB	018H
	DB	0a2H
	DB	010H
	DB	0a2H
	DB	010H
	DB	0a3H
	DB	018H
	DB	0a2H
	DB	010H
	DB	0a2H
	DB	010H
	DB	0a2H
	DB	010H
	DB	0a3H
	DB	018H
	DB	0a2H
	DB	010H
	DB	0a2H
	DB	010H
	DB	0a2H
	DB	010H
	DB	0a2H
	DB	010H
	DB	0a3H
	DB	018H
	DB	0a2H
	DB	010H
	DB	0a2H
	DB	010H
	DB	0a2H
	DB	010H
	DB	0a2H
	DB	010H
	DB	0a2H
	DB	010H
	DB	0a2H
	DB	010H
	DB	0a2H
	DB	010H
	DB	0a2H
	DB	010H
	DB	0a2H
	DB	010H
	DB	0a3H
	DB	018H
	DB	0a2H
	DB	010H
	DB	0a2H
	DB	010H
	DB	0a3H
	DB	018H
	DB	0a2H
	DB	010H
	DB	0a2H
	DB	010H
	DB	0a2H
	DB	010H
	DB	0a3H
	DB	018H
	DB	0a2H
	DB	010H
	DB	0a2H
	DB	010H
	DB	0a3H
	DB	018H
	DB	0a2H
	DB	010H
	DB	0a2H
	DB	010H
	DB	0a3H
	DB	018H
	DB	0a2H
	DB	010H
	DB	0a2H
	DB	010H
	DB	0a3H
	DB	018H
	DB	0a2H
	DB	010H
	DB	0a2H
	DB	010H
	DB	0a3H
	DB	018H
	DB	0a2H
	DB	010H
	DB	0a2H
	DB	010H
	DB	0a3H
	DB	018H
	DB	0a2H
	DB	010H
	DB	0a2H
	DB	010H
	DB	0a3H
	DB	018H
	DB	0a2H
	DB	010H
	DB	0a2H
	DB	010H
	DB	0a2H
	DB	010H
	DB	0a2H
	DB	010H
	DB	0a2H
	DB	010H
	DB	0a3H
	DB	018H
	DB	0a2H
	DB	010H
	DB	0a2H
	DB	010H
	DB	0a3H
	DB	018H
	DB	0a2H
	DB	010H
	DB	0a2H
	DB	010H
	DB	0a2H
	DB	010H
	DB	0a3H
	DB	018H
	DB	0a2H
	DB	010H
	DB	0a2H
	DB	010H
	DB	0a3H
	DB	018H
	DB	0a2H
	DB	010H
	DB	0a2H
	DB	010H
	DB	0a3H
	DB	018H
	DB	0a2H
	DB	010H
	DB	0a3H
	DB	018H
	DB	0a2H
	DB	010H
	DB	0a3H
	DB	018H
	DB	0a3H
	DB	018H
	DB	0a2H
	DB	010H
	DB	0a3H
	DB	018H
	DB	0a3H
	DB	018H
	DB	0a3H
	DB	018H
	DB	0a2H
	DB	010H
	DB	0a3H
	DB	018H
	DB	0a3H
	DB	018H
	DB	0a2H
	DB	010H
	DB	0a3H
	DB	018H
	DB	0a3H
	DB	018H
	DB	0a3H
	DB	018H
	DB	0a2H
	DB	010H
	DB	0a3H
	DB	018H
	DB	0a3H
	DB	018H
	DB	0a2H
	DB	010H
	DB	0a3H
	DB	018H
	DB	0a2H
	DB	010H
	DB	0a3H
	DB	018H
	DB	0a3H
	DB	018H
	DB	0a2H
	DB	010H
	DB	0a3H
	DB	018H
	DB	0a3H
	DB	018H
	DB	0a2H
	DB	010H
	DB	0a3H
	DB	018H
	DB	0a3H
	DB	018H
	DB	0a2H
	DB	010H
	DB	0a3H
	DB	018H
	DB	0a3H
	DB	018H
	DB	0a2H
	DB	010H
	DB	0a3H
	DB	018H
	DB	0a2H
	DB	010H
	DB	0a3H
	DB	018H
	DB	0a3H
	DB	018H
	DB	0a2H
	DB	010H
	DB	0a3H
	DB	018H
	DB	0a2H
	DB	010H
	DB	0a3H
	DB	018H
	DB	0a3H
	DB	018H
	DB	0a2H
	DB	010H
	DB	0a3H
	DB	018H
	DB	0a3H
	DB	018H
	DB	0a2H
	DB	010H
	DB	0a3H
	DB	018H
	DB	0a3H
	DB	018H
	DB	0a3H
	DB	018H
	DB	0a3H
	DB	018H
	DB	0a3H
	DB	018H
	DB	0a3H
	DB	018H
	DB	0a3H
	DB	018H
	DB	0a2H
	DB	010H
	DB	0a3H
	DB	018H
	DB	0a3H
	DB	018H
	DB	0a2H
	DB	010H
	DB	0a3H
	DB	018H
	DB	0a3H
	DB	018H
	DB	0a2H
	DB	010H
	DB	0a3H
	DB	018H
	DB	0a3H
	DB	018H
	DB	0a2H
	DB	010H
	DB	0a3H
	DB	018H
	DB	0a3H
	DB	018H
	DB	0a2H
	DB	010H
	DB	0a3H
	DB	018H
	DB	0a3H
	DB	018H
	DB	0a2H
	DB	010H
	DB	0a3H
	DB	018H
	DB	0a3H
	DB	018H
	DB	0a2H
	DB	010H
	DB	0a3H
	DB	018H
	DB	0a3H
	DB	018H
	DB	0a2H
	DB	010H
	DB	0a3H
	DB	018H
	DB	0a3H
	DB	018H
	DB	0a2H
	DB	010H
	DB	0a3H
	DB	018H
	DB	0a3H
	DB	018H
	DB	0a2H
	DB	010H
	DB	0a3H
	DB	018H
	DB	0a3H
	DB	018H
	DB	0a3H
	DB	018H
	DB	0a2H
	DB	010H
	DB	0a3H
	DB	018H
	DB	0a3H
	DB	018H
	DB	0a2H
	DB	010H
	DB	0a3H
	DB	018H
	DB	0a3H
	DB	018H
	DB	0a2H
	DB	010H
	DB	0a3H
	DB	018H
	DB	0a3H
	DB	018H
	DB	0a2H
	DB	010H
	DB	0a3H
	DB	018H
	DB	0a3H
	DB	018H
	DB	0a2H
	DB	010H
	DB	0a3H
	DB	018H
	DB	0a3H
	DB	018H
	DB	0a2H
	DB	010H
	DB	0a2H
	DB	010H
	DB	0a2H
	DB	010H
	DB	0a2H
	DB	010H
	DB	0a2H
	DB	010H
	DB	0a2H
	DB	010H
	DB	0a2H
	DB	010H
	DB	0a2H
	DB	010H
	DB	0a2H
	DB	010H
	DB	0a2H
	DB	010H
	DB	0a2H
	DB	010H
	DB	0a2H
	DB	010H
	DB	0a2H
	DB	010H
	DB	0a2H
	DB	010H
	DB	0a3H
	DB	018H
	DB	0a2H
	DB	010H
	DB	0a2H
	DB	010H
	DB	0a2H
	DB	010H
	DB	0a2H
	DB	010H
	DB	0a2H
	DB	010H
	DB	0a2H
	DB	010H
	DB	0a2H
	DB	010H
	DB	0a2H
	DB	010H
	DB	0a2H
	DB	010H
	DB	0a2H
	DB	010H
	DB	0a2H
	DB	010H
	DB	0a2H
	DB	010H
	DB	0a2H
	DB	010H
	DB	0a2H
	DB	010H
	DB	0a2H
	DB	010H
	DB	0a2H
	DB	010H
	DB	0a2H
	DB	010H
	DB	0a2H
	DB	010H
	DB	0a2H
	DB	010H
	DB	0a3H
	DB	018H
	DB	0a2H
	DB	010H
	DB	0a2H
	DB	010H
	DB	0a2H
	DB	010H
	DB	0a3H
	DB	018H
	DB	0a2H
	DB	010H
	DB	0a2H
	DB	010H
	DB	0a2H
	DB	010H
	DB	0a2H
	DB	010H
	DB	0a2H
	DB	010H
	DB	0a2H
	DB	010H
	DB	0a2H
	DB	010H
	DB	0a2H
	DB	010H
	DB	0a2H
	DB	010H
	DB	0a2H
	DB	010H
	DB	0a2H
	DB	010H
	DB	0a2H
	DB	010H
	DB	0a2H
	DB	010H
	DB	0a2H
	DB	010H
	DB	0a2H
	DB	010H
	DB	0a2H
	DB	010H
	DB	0a2H
	DB	010H
	DB	0a2H
	DB	010H
	DB	0a2H
	DB	010H
	DB	0a2H
	DB	010H
	DB	0a2H
	DB	010H
	DB	0a2H
	DB	010H
	DB	0a2H
	DB	010H
	DB	0a2H
	DB	010H
	DB	0a2H
	DB	010H
	DB	0a2H
	DB	010H
	DB	0a2H
	DB	010H
	DB	0a2H
	DB	010H
	DB	0a2H
	DB	010H
	DB	0a2H
	DB	010H
	DB	0a2H
	DB	010H
	DB	0a2H
	DB	010H
	DB	0a2H
	DB	010H
	DB	0a2H
	DB	010H
	DB	0a2H
	DB	010H
	DB	0a2H
	DB	010H
	DB	0a2H
	DB	010H
	DB	0a2H
	DB	010H
	DB	0a2H
	DB	010H
	DB	0a2H
	DB	010H
	DB	0a2H
	DB	010H
	DB	0a2H
	DB	010H
	DB	0a2H
	DB	010H
	DB	0a2H
	DB	010H
	DB	0a3H
	DB	018H
	DB	0a2H
	DB	010H
	DB	0a2H
	DB	010H
	DB	0a2H
	DB	010H
	DB	0a2H
	DB	010H
	DB	0a2H
	DB	010H
	DB	0a2H
	DB	010H
	DB	0a2H
	DB	010H
	DB	0a3H
	DB	018H
	DB	0a2H
	DB	010H
	DB	0a2H
	DB	010H
	DB	0a2H
	DB	010H
	DB	0a2H
	DB	010H
	DB	0a2H
	DB	010H
	DB	0a2H
	DB	010H
	DB	0a2H
	DB	010H
	DB	0a2H
	DB	010H
	DB	0a2H
	DB	010H
	DB	0a2H
	DB	010H
	DB	0a3H
	DB	018H
	DB	0a3H
	DB	018H
	DB	0a2H
	DB	010H
	DB	0a3H
	DB	018H
	DB	0a2H
	DB	010H
	DB	0a3H
	DB	018H
	DB	0a2H
	DB	010H
	DB	0a3H
	DB	018H
	DB	0a3H
	DB	018H
	DB	0a2H
	DB	010H
	DB	0a3H
	DB	018H
	DB	0a2H
	DB	010H
	DB	0a2H
	DB	010H
	DB	0a3H
	DB	018H
	DB	0a2H
	DB	010H
	DB	0a3H
	DB	018H
	DB	0a3H
	DB	018H
	DB	0a2H
	DB	010H
	DB	0a3H
	DB	018H
	DB	0a3H
	DB	018H
	DB	0a2H
	DB	010H
	DB	0a3H
	DB	018H
	DB	0a3H
	DB	018H
	DB	0a2H
	DB	010H
	DB	0a3H
	DB	018H
	DB	0a3H
	DB	018H
	DB	0a2H
	DB	010H
	DB	0a3H
	DB	018H
	DB	0a3H
	DB	018H
	DB	0a2H
	DB	010H
	DB	0a3H
	DB	018H
	DB	0a2H
	DB	010H
	DB	0a2H
	DB	010H
	DB	0a3H
	DB	018H
	DB	0a2H
	DB	010H
	DB	0c3H
	DB	018H
	DB	0c3H
	DB	018H
	DB	0a2H
	DB	010H
	DB	0a3H
	DB	018H
	DB	0a3H
	DB	018H
	DB	0a2H
	DB	010H
	DB	0a3H
	DB	018H
	DB	0a3H
	DB	018H
	DB	0a2H
	DB	010H
	DB	0a3H
	DB	018H
	DB	0a3H
	DB	018H
	DB	0a2H
	DB	010H
	DB	0a2H
	DB	010H
	DB	0a3H
	DB	018H
	DB	0c3H
	DB	018H
	DB	0c3H
	DB	018H
	DB	0a3H
	DB	018H
	DB	0a3H
	DB	018H
	DB	0a2H
	DB	010H
	DB	0a3H
	DB	018H
	DB	0a3H
	DB	018H
	DB	0a2H
	DB	010H
	DB	0a3H
	DB	018H
	DB	0a3H
	DB	018H
	DB	0a2H
	DB	010H
	DB	0a3H
	DB	018H
	DB	0a3H
	DB	018H
	DB	0a2H
	DB	010H
	DB	0a3H
	DB	018H
	DB	0a3H
	DB	018H
	DB	0a2H
	DB	010H
	DB	0a3H
	DB	018H
	DB	0a3H
	DB	018H
	DB	0a2H
	DB	010H
	DB	0a3H
	DB	018H
	DB	0a3H
	DB	018H
	DB	0a2H
	DB	010H
	DB	0a3H
	DB	018H
	DB	0a3H
	DB	018H
	DB	0a2H
	DB	010H
	DB	0a3H
	DB	018H
	DB	0a3H
	DB	018H
	DB	0c3H
	DB	018H
	DB	0c3H
	DB	018H
	DB	0a3H
	DB	018H
	DB	0a2H
	DB	010H
	DB	0a2H
	DB	010H
	DB	0a3H
	DB	018H
	DB	0a2H
	DB	010H
	DB	0a3H
	DB	018H
	DB	0a3H
	DB	018H
	DB	0a2H
	DB	010H
	DB	0a3H
	DB	018H
	DB	0a2H
	DB	010H
	DB	0a2H
	DB	010H
	DB	0a3H
	DB	018H
	DB	0a2H
	DB	010H
	DB	0a3H
	DB	018H
	DB	0a2H
	DB	010H
	DB	0a3H
	DB	018H
	DB	0a3H
	DB	018H
	DB	0a2H
	DB	010H
	DB	0a3H
	DB	018H
	DB	0a2H
	DB	010H
	DB	0a2H
	DB	010H
	DB	082H
	DB	010H
	DB	083H
	DB	018H
	DB	0a2H
	DB	010H
	DB	082H
	DB	010H
	DB	0a3H
	DB	018H
	DB	082H
	DB	010H
	DB	0a2H
	DB	010H
	DB	083H
	DB	018H
	DB	0a2H
	DB	010H
	DB	082H
	DB	010H
	DB	09H
	DB	04aH
	DB	02cH
	DB	063H
	DB	0cH
	DB	063H
	DB	02dH
	DB	06bH
	DB	0cH
	DB	063H
	DB	02cH
	DB	063H
	DB	0a3H
	DB	018H
	DB	0c3H
	DB	018H
	DB	08aH
	DB	052H
	DB	02dH
	DB	06bH
	DB	0cH
	DB	063H
	DB	02cH
	DB	063H
	DB	066H
	DB	031H
	DB	082H
	DB	010H
	DB	0e8H
	DB	041H
	DB	02cH
	DB	063H
	DB	08aH
	DB	052H
	DB	082H
	DB	010H
	DB	082H
	DB	010H
	DB	06aH
	DB	052H
	DB	02dH
	DB	06bH
	DB	08H
	DB	042H
	DB	082H
	DB	010H
	DB	082H
	DB	010H
	DB	0abH
	DB	05aH
	DB	02cH
	DB	063H
	DB	0cH
	DB	063H
	DB	02dH
	DB	06bH
	DB	06aH
	DB	052H
	DB	082H
	DB	010H
	DB	082H
	DB	010H
	DB	029H
	DB	04aH
	DB	02cH
	DB	063H
	DB	0cH
	DB	063H
	DB	02dH
	DB	06bH
	DB	0e8H
	DB	041H
	DB	082H
	DB	010H
	DB	045H
	DB	029H
	DB	02dH
	DB	06bH
	DB	0cH
	DB	063H
	DB	02cH
	DB	063H
	DB	0ecH
	DB	062H
	DB	066H
	DB	031H
	DB	082H
	DB	010H
	DB	082H
	DB	010H
	DB	082H
	DB	010H
	DB	06aH
	DB	052H
	DB	02cH
	DB	063H
	DB	049H
	DB	04aH
	DB	082H
	DB	010H
	DB	082H
	DB	010H
	DB	0abH
	DB	05aH
	DB	0cH
	DB	063H
	DB	02cH
	DB	063H
	DB	0cH
	DB	063H
	DB	02dH
	DB	06bH
	DB	08aH
	DB	052H
	DB	082H
	DB	010H
	DB	028H
	DB	042H
	DB	0ecH
	DB	062H
	DB	082H
	DB	010H
	DB	082H
	DB	010H
	DB	028H
	DB	042H
	DB	0ecH
	DB	062H
	DB	082H
	DB	010H
	DB	0c3H
	DB	018H
	DB	02cH
	DB	063H
	DB	02cH
	DB	063H
	DB	02dH
	DB	06bH
	DB	02cH
	DB	063H
	DB	0e8H
	DB	041H
	DB	082H
	DB	010H
	DB	082H
	DB	010H
	DB	086H
	DB	031H
	DB	0ecH
	DB	062H
	DB	02cH
	DB	063H
	DB	0dH
	DB	06bH
	DB	0aaH
	DB	052H
	DB	082H
	DB	010H
	DB	083H
	DB	018H
	DB	0a2H
	DB	010H
	DB	0a2H
	DB	010H
	DB	083H
	DB	018H
	DB	0a2H
	DB	010H
	DB	082H
	DB	010H
	DB	0a3H
	DB	018H
	DB	082H
	DB	010H
	DB	0a2H
	DB	010H
	DB	0a3H
	DB	018H
	DB	082H
	DB	010H
	DB	082H
	DB	010H
	DB	0a2H
	DB	010H
	DB	082H
	DB	010H
	DB	082H
	DB	010H
	DB	082H
	DB	010H
	DB	0a2H
	DB	010H
	DB	082H
	DB	010H
	DB	082H
	DB	010H
	DB	082H
	DB	010H
	DB	0a2H
	DB	010H
	DB	04H
	DB	021H
	DB	045H
	DB	029H
	DB	049H
	DB	04aH
	DB	02cH
	DB	063H
	DB	066H
	DB	031H
	DB	045H
	DB	029H
	DB	082H
	DB	010H
	DB	066H
	DB	031H
	DB	02cH
	DB	063H
	DB	0c7H
	DB	039H
	DB	045H
	DB	029H
	DB	045H
	DB	029H
	DB	0c3H
	DB	018H
	DB	082H
	DB	010H
	DB	06aH
	DB	052H
	DB	0aaH
	DB	052H
	DB	02dH
	DB	06bH
	DB	04H
	DB	021H
	DB	0e4H
	DB	020H
	DB	02cH
	DB	063H
	DB	0aaH
	DB	052H
	DB	0abH
	DB	05aH
	DB	082H
	DB	010H
	DB	082H
	DB	010H
	DB	0abH
	DB	05aH
	DB	06aH
	DB	052H
	DB	0e3H
	DB	018H
	DB	0e8H
	DB	041H
	DB	02cH
	DB	063H
	DB	045H
	DB	029H
	DB	0a3H
	DB	018H
	DB	02cH
	DB	063H
	DB	049H
	DB	04aH
	DB	045H
	DB	029H
	DB	045H
	DB	029H
	DB	0e3H
	DB	018H
	DB	082H
	DB	010H
	DB	045H
	DB	029H
	DB	02cH
	DB	063H
	DB	025H
	DB	029H
	DB	04H
	DB	021H
	DB	0cbH
	DB	05aH
	DB	0aaH
	DB	052H
	DB	082H
	DB	010H
	DB	082H
	DB	010H
	DB	0c3H
	DB	018H
	DB	02cH
	DB	063H
	DB	049H
	DB	04aH
	DB	02cH
	DB	063H
	DB	0a3H
	DB	018H
	DB	082H
	DB	010H
	DB	045H
	DB	029H
	DB	045H
	DB	029H
	DB	08aH
	DB	052H
	DB	0cbH
	DB	05aH
	DB	045H
	DB	029H
	DB	045H
	DB	029H
	DB	082H
	DB	010H
	DB	08H
	DB	042H
	DB	0cH
	DB	063H
	DB	082H
	DB	010H
	DB	082H
	DB	010H
	DB	08H
	DB	042H
	DB	0cH
	DB	063H
	DB	082H
	DB	010H
	DB	0a3H
	DB	018H
	DB	02cH
	DB	063H
	DB	0e8H
	DB	041H
	DB	0c3H
	DB	018H
	DB	049H
	DB	04aH
	DB	02cH
	DB	063H
	DB	0c3H
	DB	018H
	DB	082H
	DB	010H
	DB	0abH
	DB	05aH
	DB	0aaH
	DB	052H
	DB	045H
	DB	029H
	DB	045H
	DB	029H
	DB	04H
	DB	021H
	DB	082H
	DB	010H
	DB	082H
	DB	010H
	DB	082H
	DB	010H
	DB	082H
	DB	010H
	DB	082H
	DB	010H
	DB	082H
	DB	010H
	DB	0a2H
	DB	010H
	DB	082H
	DB	010H
	DB	082H
	DB	010H
	DB	082H
	DB	010H
	DB	082H
	DB	010H
	DB	082H
	DB	010H
	DB	0a2H
	DB	010H
	DB	0a3H
	DB	018H
	DB	0a2H
	DB	010H
	DB	0a3H
	DB	018H
	DB	082H
	DB	010H
	DB	0a3H
	DB	018H
	DB	0a2H
	DB	010H
	DB	082H
	DB	010H
	DB	0a3H
	DB	018H
	DB	082H
	DB	010H
	DB	082H
	DB	010H
	DB	082H
	DB	010H
	DB	0e8H
	DB	041H
	DB	02cH
	DB	063H
	DB	082H
	DB	010H
	DB	082H
	DB	010H
	DB	082H
	DB	010H
	DB	065H
	DB	029H
	DB	02cH
	DB	063H
	DB	025H
	DB	029H
	DB	0a3H
	DB	018H
	DB	0a3H
	DB	018H
	DB	082H
	DB	010H
	DB	082H
	DB	010H
	DB	06aH
	DB	052H
	DB	049H
	DB	04aH
	DB	08aH
	DB	052H
	DB	086H
	DB	031H
	DB	065H
	DB	029H
	DB	0ecH
	DB	062H
	DB	08H
	DB	042H
	DB	0cbH
	DB	05aH
	DB	082H
	DB	010H
	DB	082H
	DB	010H
	DB	08aH
	DB	052H
	DB	06aH
	DB	052H
	DB	082H
	DB	010H
	DB	025H
	DB	029H
	DB	02cH
	DB	063H
	DB	065H
	DB	029H
	DB	0e3H
	DB	018H
	DB	02cH
	DB	063H
	DB	0a7H
	DB	039H
	DB	0a3H
	DB	018H
	DB	0a3H
	DB	018H
	DB	082H
	DB	010H
	DB	082H
	DB	010H
	DB	025H
	DB	029H
	DB	02cH
	DB	063H
	DB	04H
	DB	021H
	DB	082H
	DB	010H
	DB	06aH
	DB	052H
	DB	0aaH
	DB	052H
	DB	082H
	DB	010H
	DB	082H
	DB	010H
	DB	086H
	DB	031H
	DB	02dH
	DB	06bH
	DB	0e3H
	DB	018H
	DB	02dH
	DB	06bH
	DB	086H
	DB	031H
	DB	082H
	DB	010H
	DB	082H
	DB	010H
	DB	082H
	DB	010H
	DB	06aH
	DB	052H
	DB	08aH
	DB	052H
	DB	082H
	DB	010H
	DB	082H
	DB	010H
	DB	082H
	DB	010H
	DB	08H
	DB	042H
	DB	0ecH
	DB	062H
	DB	082H
	DB	010H
	DB	082H
	DB	010H
	DB	028H
	DB	042H
	DB	0ecH
	DB	062H
	DB	082H
	DB	010H
	DB	0a3H
	DB	018H
	DB	02cH
	DB	063H
	DB	0a7H
	DB	039H
	DB	082H
	DB	010H
	DB	0e8H
	DB	041H
	DB	02cH
	DB	063H
	DB	0a3H
	DB	018H
	DB	082H
	DB	010H
	DB	0cbH
	DB	05aH
	DB	049H
	DB	04aH
	DB	0a3H
	DB	018H
	DB	0a3H
	DB	018H
	DB	0c3H
	DB	018H
	DB	082H
	DB	010H
	DB	0a2H
	DB	010H
	DB	0a3H
	DB	018H
	DB	0a3H
	DB	018H
	DB	0a2H
	DB	010H
	DB	082H
	DB	010H
	DB	0a3H
	DB	018H
	DB	0a2H
	DB	010H
	DB	0a3H
	DB	018H
	DB	082H
	DB	010H
	DB	0a2H
	DB	010H
	DB	0a2H
	DB	010H
	DB	082H
	DB	010H
	DB	082H
	DB	010H
	DB	0a3H
	DB	018H
	DB	082H
	DB	010H
	DB	082H
	DB	010H
	DB	0a2H
	DB	010H
	DB	083H
	DB	018H
	DB	0a2H
	DB	010H
	DB	082H
	DB	010H
	DB	082H
	DB	010H
	DB	082H
	DB	010H
	DB	082H
	DB	010H
	DB	0e8H
	DB	041H
	DB	0cH
	DB	063H
	DB	082H
	DB	010H
	DB	082H
	DB	010H
	DB	062H
	DB	010H
	DB	065H
	DB	029H
	DB	02cH
	DB	063H
	DB	0cH
	DB	063H
	DB	02cH
	DB	063H
	DB	0ecH
	DB	062H
	DB	082H
	DB	010H
	DB	082H
	DB	010H
	DB	08aH
	DB	052H
	DB	08H
	DB	042H
	DB	08H
	DB	042H
	DB	049H
	DB	04aH
	DB	08H
	DB	042H
	DB	049H
	DB	04aH
	DB	0e7H
	DB	039H
	DB	0ecH
	DB	062H
	DB	082H
	DB	010H
	DB	082H
	DB	010H
	DB	0aaH
	DB	052H
	DB	0cbH
	DB	05aH
	DB	08H
	DB	042H
	DB	0cbH
	DB	05aH
	DB	02cH
	DB	063H
	DB	0c3H
	DB	018H
	DB	0c3H
	DB	018H
	DB	02dH
	DB	06bH
	DB	02cH
	DB	063H
	DB	02cH
	DB	063H
	DB	02cH
	DB	063H
	DB	04H
	DB	021H
	DB	082H
	DB	010H
	DB	025H
	DB	029H
	DB	02cH
	DB	063H
	DB	0cbH
	DB	05aH
	DB	0cbH
	DB	05aH
	DB	0cbH
	DB	05aH
	DB	025H
	DB	029H
	DB	082H
	DB	010H
	DB	082H
	DB	010H
	DB	049H
	DB	04aH
	DB	08aH
	DB	052H
	DB	062H
	DB	010H
	DB	08aH
	DB	052H
	DB	049H
	DB	04aH
	DB	082H
	DB	010H
	DB	082H
	DB	010H
	DB	082H
	DB	010H
	DB	069H
	DB	04aH
	DB	08aH
	DB	052H
	DB	082H
	DB	010H
	DB	082H
	DB	010H
	DB	082H
	DB	010H
	DB	08H
	DB	042H
	DB	0ecH
	DB	062H
	DB	082H
	DB	010H
	DB	082H
	DB	010H
	DB	08H
	DB	042H
	DB	0ecH
	DB	062H
	DB	082H
	DB	010H
	DB	0a2H
	DB	010H
	DB	02cH
	DB	063H
	DB	0ecH
	DB	062H
	DB	0cbH
	DB	05aH
	DB	0ecH
	DB	062H
	DB	086H
	DB	031H
	DB	082H
	DB	010H
	DB	082H
	DB	010H
	DB	0cbH
	DB	05aH
	DB	02cH
	DB	063H
	DB	02cH
	DB	063H
	DB	02cH
	DB	063H
	DB	086H
	DB	031H
	DB	082H
	DB	010H
	DB	082H
	DB	010H
	DB	0a2H
	DB	010H
	DB	082H
	DB	010H
	DB	0a2H
	DB	010H
	DB	083H
	DB	018H
	DB	082H
	DB	010H
	DB	0a2H
	DB	010H
	DB	082H
	DB	010H
	DB	0a3H
	DB	018H
	DB	082H
	DB	010H
	DB	082H
	DB	010H
	DB	082H
	DB	010H
	DB	082H
	DB	010H
	DB	082H
	DB	010H
	DB	082H
	DB	010H
	DB	082H
	DB	010H
	DB	082H
	DB	010H
	DB	082H
	DB	010H
	DB	082H
	DB	010H
	DB	082H
	DB	010H
	DB	082H
	DB	010H
	DB	082H
	DB	010H
	DB	082H
	DB	010H
	DB	0e7H
	DB	039H
	DB	02cH
	DB	063H
	DB	062H
	DB	010H
	DB	082H
	DB	010H
	DB	082H
	DB	010H
	DB	046H
	DB	031H
	DB	02dH
	DB	06bH
	DB	04H
	DB	021H
	DB	062H
	DB	010H
	DB	082H
	DB	010H
	DB	082H
	DB	010H
	DB	082H
	DB	010H
	DB	0cbH
	DB	05aH
	DB	08H
	DB	042H
	DB	065H
	DB	029H
	DB	0cbH
	DB	05aH
	DB	0aaH
	DB	052H
	DB	086H
	DB	031H
	DB	0a7H
	DB	039H
	DB	0ecH
	DB	062H
	DB	082H
	DB	010H
	DB	062H
	DB	010H
	DB	08aH
	DB	052H
	DB	0cbH
	DB	05aH
	DB	0e7H
	DB	039H
	DB	0a7H
	DB	039H
	DB	025H
	DB	029H
	DB	062H
	DB	010H
	DB	0c3H
	DB	018H
	DB	02dH
	DB	06bH
	DB	086H
	DB	031H
	DB	062H
	DB	010H
	DB	082H
	DB	010H
	DB	082H
	DB	010H
	DB	082H
	DB	010H
	DB	025H
	DB	029H
	DB	02cH
	DB	063H
	DB	0a7H
	DB	039H
	DB	0a7H
	DB	039H
	DB	0ecH
	DB	062H
	DB	04H
	DB	021H
	DB	082H
	DB	010H
	DB	082H
	DB	010H
	DB	0ecH
	DB	062H
	DB	02cH
	DB	063H
	DB	0ecH
	DB	062H
	DB	02cH
	DB	063H
	DB	0ecH
	DB	062H
	DB	082H
	DB	010H
	DB	082H
	DB	010H
	DB	082H
	DB	010H
	DB	06aH
	DB	052H
	DB	08aH
	DB	052H
	DB	082H
	DB	010H
	DB	082H
	DB	010H
	DB	082H
	DB	010H
	DB	08H
	DB	042H
	DB	0ecH
	DB	062H
	DB	082H
	DB	010H
	DB	082H
	DB	010H
	DB	049H
	DB	04aH
	DB	0cbH
	DB	05aH
	DB	062H
	DB	010H
	DB	0a3H
	DB	018H
	DB	02cH
	DB	063H
	DB	08H
	DB	042H
	DB	086H
	DB	031H
	DB	0ecH
	DB	062H
	DB	086H
	DB	031H
	DB	062H
	DB	010H
	DB	062H
	DB	010H
	DB	0cbH
	DB	05aH
	DB	049H
	DB	04aH
	DB	062H
	DB	010H
	DB	082H
	DB	010H
	DB	082H
	DB	010H
	DB	082H
	DB	010H
	DB	082H
	DB	010H
	DB	082H
	DB	010H
	DB	082H
	DB	010H
	DB	082H
	DB	010H
	DB	082H
	DB	010H
	DB	082H
	DB	010H
	DB	082H
	DB	010H
	DB	082H
	DB	010H
	DB	082H
	DB	010H
	DB	082H
	DB	010H
	DB	082H
	DB	010H
	DB	082H
	DB	010H
	DB	082H
	DB	010H
	DB	0a2H
	DB	010H
	DB	082H
	DB	010H
	DB	082H
	DB	010H
	DB	0a2H
	DB	010H
	DB	082H
	DB	010H
	DB	082H
	DB	010H
	DB	0a2H
	DB	010H
	DB	082H
	DB	010H
	DB	082H
	DB	010H
	DB	082H
	DB	010H
	DB	0e8H
	DB	041H
	DB	02cH
	DB	063H
	DB	062H
	DB	010H
	DB	082H
	DB	010H
	DB	082H
	DB	010H
	DB	045H
	DB	029H
	DB	02cH
	DB	063H
	DB	086H
	DB	031H
	DB	04H
	DB	021H
	DB	04H
	DB	021H
	DB	0a2H
	DB	010H
	DB	062H
	DB	010H
	DB	0cbH
	DB	05aH
	DB	0e7H
	DB	039H
	DB	0a2H
	DB	010H
	DB	0ecH
	DB	062H
	DB	0ecH
	DB	062H
	DB	0c3H
	DB	018H
	DB	0a7H
	DB	039H
	DB	02cH
	DB	063H
	DB	082H
	DB	010H
	DB	062H
	DB	010H
	DB	0aaH
	DB	052H
	DB	069H
	DB	04aH
	DB	062H
	DB	010H
	DB	062H
	DB	010H
	DB	082H
	DB	010H
	DB	082H
	DB	010H
	DB	0a2H
	DB	010H
	DB	02cH
	DB	063H
	DB	08H
	DB	042H
	DB	04H
	DB	021H
	DB	0e4H
	DB	020H
	DB	0a2H
	DB	010H
	DB	082H
	DB	010H
	DB	025H
	DB	029H
	DB	02cH
	DB	063H
	DB	0e4H
	DB	020H
	DB	062H
	DB	010H
	DB	0cbH
	DB	05aH
	DB	069H
	DB	04aH
	DB	062H
	DB	010H
	DB	025H
	DB	029H
	DB	02cH
	DB	063H
	DB	086H
	DB	031H
	DB	04H
	DB	021H
	DB	045H
	DB	029H
	DB	02cH
	DB	063H
	DB	025H
	DB	029H
	DB	082H
	DB	010H
	DB	062H
	DB	010H
	DB	069H
	DB	04aH
	DB	0aaH
	DB	052H
	DB	062H
	DB	010H
	DB	082H
	DB	010H
	DB	082H
	DB	010H
	DB	086H
	DB	031H
	DB	02cH
	DB	063H
	DB	086H
	DB	031H
	DB	04H
	DB	021H
	DB	0cbH
	DB	05aH
	DB	069H
	DB	04aH
	DB	082H
	DB	010H
	DB	0a2H
	DB	010H
	DB	02cH
	DB	063H
	DB	0a7H
	DB	039H
	DB	062H
	DB	010H
	DB	08H
	DB	042H
	DB	0ebH
	DB	05aH
	DB	082H
	DB	010H
	DB	062H
	DB	010H
	DB	0cbH
	DB	05aH
	DB	08aH
	DB	052H
	DB	0e4H
	DB	020H
	DB	04H
	DB	021H
	DB	0e3H
	DB	018H
	DB	082H
	DB	010H
	DB	082H
	DB	010H
	DB	082H
	DB	010H
	DB	083H
	DB	018H
	DB	0a2H
	DB	010H
	DB	082H
	DB	010H
	DB	082H
	DB	010H
	DB	0a2H
	DB	010H
	DB	082H
	DB	010H
	DB	082H
	DB	010H
	DB	082H
	DB	010H
	DB	082H
	DB	010H
	DB	082H
	DB	010H
	DB	0a2H
	DB	010H
	DB	083H
	DB	018H
	DB	082H
	DB	010H
	DB	0a2H
	DB	010H
	DB	083H
	DB	018H
	DB	082H
	DB	010H
	DB	0a2H
	DB	010H
	DB	083H
	DB	018H
	DB	082H
	DB	010H
	DB	082H
	DB	010H
	DB	082H
	DB	010H
	DB	0e7H
	DB	039H
	DB	0dH
	DB	06bH
	DB	082H
	DB	010H
	DB	082H
	DB	010H
	DB	082H
	DB	010H
	DB	0a2H
	DB	010H
	DB	08aH
	DB	052H
	DB	02cH
	DB	063H
	DB	02cH
	DB	063H
	DB	0cH
	DB	063H
	DB	065H
	DB	029H
	DB	062H
	DB	010H
	DB	0ecH
	DB	062H
	DB	0e7H
	DB	039H
	DB	062H
	DB	010H
	DB	062H
	DB	010H
	DB	062H
	DB	010H
	DB	061H
	DB	08H
	DB	086H
	DB	031H
	DB	02cH
	DB	063H
	DB	062H
	DB	010H
	DB	082H
	DB	010H
	DB	0aaH
	DB	052H
	DB	06aH
	DB	052H
	DB	062H
	DB	010H
	DB	081H
	DB	08H
	DB	062H
	DB	010H
	DB	062H
	DB	010H
	DB	062H
	DB	010H
	DB	08H
	DB	042H
	DB	02cH
	DB	063H
	DB	02cH
	DB	063H
	DB	02cH
	DB	063H
	DB	0e8H
	DB	041H
	DB	082H
	DB	010H
	DB	024H
	DB	021H
	DB	02cH
	DB	063H
	DB	04H
	DB	021H
	DB	061H
	DB	08H
	DB	08H
	DB	042H
	DB	0ecH
	DB	062H
	DB	082H
	DB	010H
	DB	08H
	DB	042H
	DB	0ebH
	DB	05aH
	DB	062H
	DB	010H
	DB	062H
	DB	010H
	DB	062H
	DB	010H
	DB	0ecH
	DB	062H
	DB	08H
	DB	042H
	DB	062H
	DB	010H
	DB	062H
	DB	010H
	DB	069H
	DB	04aH
	DB	0aaH
	DB	052H
	DB	082H
	DB	010H
	DB	082H
	DB	010H
	DB	082H
	DB	010H
	DB	0a2H
	DB	010H
	DB	069H
	DB	04aH
	DB	02cH
	DB	063H
	DB	02cH
	DB	063H
	DB	0ecH
	DB	062H
	DB	024H
	DB	021H
	DB	062H
	DB	010H
	DB	0a2H
	DB	010H
	DB	02cH
	DB	063H
	DB	0a7H
	DB	039H
	DB	062H
	DB	010H
	DB	065H
	DB	029H
	DB	02cH
	DB	063H
	DB	025H
	DB	029H
	DB	082H
	DB	010H
	DB	086H
	DB	031H
	DB	0ebH
	DB	05aH
	DB	02cH
	DB	063H
	DB	02cH
	DB	063H
	DB	08aH
	DB	052H
	DB	082H
	DB	010H
	DB	082H
	DB	010H
	DB	082H
	DB	010H
	DB	0a2H
	DB	010H
	DB	082H
	DB	010H
	DB	082H
	DB	010H
	DB	0a3H
	DB	018H
	DB	082H
	DB	010H
	DB	082H
	DB	010H
	DB	0a2H
	DB	010H
	DB	082H
	DB	010H
	DB	082H
	DB	010H
	DB	082H
	DB	010H
	DB	082H
	DB	010H
	DB	082H
	DB	010H
	DB	082H
	DB	010H
	DB	082H
	DB	010H
	DB	082H
	DB	010H
	DB	082H
	DB	010H
	DB	082H
	DB	010H
	DB	082H
	DB	010H
	DB	082H
	DB	010H
	DB	082H
	DB	010H
	DB	082H
	DB	010H
	DB	062H
	DB	010H
	DB	062H
	DB	010H
	DB	082H
	DB	010H
	DB	082H
	DB	010H
	DB	082H
	DB	010H
	DB	062H
	DB	010H
	DB	062H
	DB	010H
	DB	062H
	DB	010H
	DB	062H
	DB	010H
	DB	062H
	DB	010H
	DB	082H
	DB	010H
	DB	082H
	DB	010H
	DB	062H
	DB	010H
	DB	062H
	DB	010H
	DB	061H
	DB	08H
	DB	062H
	DB	010H
	DB	062H
	DB	010H
	DB	061H
	DB	08H
	DB	082H
	DB	010H
	DB	062H
	DB	010H
	DB	062H
	DB	010H
	DB	082H
	DB	010H
	DB	062H
	DB	010H
	DB	062H
	DB	010H
	DB	082H
	DB	010H
	DB	081H
	DB	08H
	DB	082H
	DB	010H
	DB	082H
	DB	010H
	DB	062H
	DB	010H
	DB	062H
	DB	010H
	DB	062H
	DB	010H
	DB	062H
	DB	010H
	DB	062H
	DB	010H
	DB	062H
	DB	010H
	DB	062H
	DB	010H
	DB	062H
	DB	010H
	DB	082H
	DB	010H
	DB	062H
	DB	010H
	DB	062H
	DB	010H
	DB	061H
	DB	08H
	DB	082H
	DB	010H
	DB	082H
	DB	010H
	DB	082H
	DB	010H
	DB	062H
	DB	010H
	DB	061H
	DB	08H
	DB	062H
	DB	010H
	DB	061H
	DB	08H
	DB	082H
	DB	010H
	DB	082H
	DB	010H
	DB	081H
	DB	08H
	DB	062H
	DB	010H
	DB	062H
	DB	010H
	DB	062H
	DB	010H
	DB	082H
	DB	010H
	DB	062H
	DB	010H
	DB	082H
	DB	010H
	DB	062H
	DB	010H
	DB	062H
	DB	010H
	DB	0a2H
	DB	010H
	DB	0a3H
	DB	018H
	DB	062H
	DB	010H
	DB	062H
	DB	010H
	DB	062H
	DB	010H
	DB	062H
	DB	010H
	DB	062H
	DB	010H
	DB	062H
	DB	010H
	DB	061H
	DB	08H
	DB	062H
	DB	010H
	DB	082H
	DB	010H
	DB	061H
	DB	08H
	DB	082H
	DB	010H
	DB	062H
	DB	010H
	DB	062H
	DB	010H
	DB	062H
	DB	010H
	DB	082H
	DB	010H
	DB	082H
	DB	010H
	DB	082H
	DB	010H
	DB	082H
	DB	010H
	DB	082H
	DB	010H
	DB	082H
	DB	010H
	DB	082H
	DB	010H
	DB	082H
	DB	010H
	DB	082H
	DB	010H
	DB	082H
	DB	010H
	DB	082H
	DB	010H
	DB	082H
	DB	010H
	DB	082H
	DB	010H
	DB	082H
	DB	010H
	DB	082H
	DB	010H
	DB	082H
	DB	010H
	DB	082H
	DB	010H
	DB	082H
	DB	010H
	DB	082H
	DB	010H
	DB	082H
	DB	010H
	DB	082H
	DB	010H
	DB	082H
	DB	010H
	DB	082H
	DB	010H
	DB	082H
	DB	010H
	DB	082H
	DB	010H
	DB	082H
	DB	010H
	DB	082H
	DB	010H
	DB	062H
	DB	010H
	DB	082H
	DB	010H
	DB	082H
	DB	010H
	DB	062H
	DB	010H
	DB	062H
	DB	010H
	DB	082H
	DB	010H
	DB	082H
	DB	010H
	DB	062H
	DB	010H
	DB	082H
	DB	010H
	DB	062H
	DB	010H
	DB	081H
	DB	08H
	DB	082H
	DB	010H
	DB	082H
	DB	010H
	DB	082H
	DB	010H
	DB	082H
	DB	010H
	DB	082H
	DB	010H
	DB	082H
	DB	010H
	DB	062H
	DB	010H
	DB	082H
	DB	010H
	DB	081H
	DB	08H
	DB	061H
	DB	08H
	DB	062H
	DB	010H
	DB	082H
	DB	010H
	DB	061H
	DB	08H
	DB	082H
	DB	010H
	DB	082H
	DB	010H
	DB	082H
	DB	010H
	DB	081H
	DB	08H
	DB	082H
	DB	010H
	DB	082H
	DB	010H
	DB	062H
	DB	010H
	DB	082H
	DB	010H
	DB	082H
	DB	010H
	DB	062H
	DB	010H
	DB	082H
	DB	010H
	DB	062H
	DB	010H
	DB	082H
	DB	010H
	DB	082H
	DB	010H
	DB	082H
	DB	010H
	DB	061H
	DB	08H
	DB	062H
	DB	010H
	DB	082H
	DB	010H
	DB	082H
	DB	010H
	DB	082H
	DB	010H
	DB	082H
	DB	010H
	DB	082H
	DB	010H
	DB	061H
	DB	08H
	DB	082H
	DB	010H
	DB	082H
	DB	010H
	DB	082H
	DB	010H
	DB	062H
	DB	010H
	DB	082H
	DB	010H
	DB	082H
	DB	010H
	DB	082H
	DB	010H
	DB	082H
	DB	010H
	DB	062H
	DB	010H
	DB	062H
	DB	010H
	DB	062H
	DB	010H
	DB	062H
	DB	010H
	DB	082H
	DB	010H
	DB	082H
	DB	010H
	DB	082H
	DB	010H
	DB	082H
	DB	010H
	DB	082H
	DB	010H
	DB	082H
	DB	010H
	DB	062H
	DB	010H
	DB	082H
	DB	010H
	DB	062H
	DB	010H
	DB	082H
	DB	010H
	DB	061H
	DB	08H
	DB	082H
	DB	010H
	DB	082H
	DB	010H
	DB	062H
	DB	010H
	DB	062H
	DB	010H
	DB	082H
	DB	010H
	DB	082H
	DB	010H
	DB	082H
	DB	010H
	DB	082H
	DB	010H
	DB	082H
	DB	010H
	DB	082H
	DB	010H
	DB	082H
	DB	010H
	DB	082H
	DB	010H
	DB	082H
	DB	010H
	DB	082H
	DB	010H
	DB	082H
	DB	010H
	DB	082H
	DB	010H
	DB	082H
	DB	010H
	DB	082H
	DB	010H
	DB	082H
	DB	010H
	DB	082H
	DB	010H
	DB	082H
	DB	010H
	DB	082H
	DB	010H
	DB	082H
	DB	010H
	DB	082H
	DB	010H
	DB	082H
	DB	010H
	DB	082H
	DB	010H
	DB	082H
	DB	010H
	DB	082H
	DB	010H
	DB	082H
	DB	010H
	DB	082H
	DB	010H
	DB	082H
	DB	010H
	DB	082H
	DB	010H
	DB	081H
	DB	08H
	DB	082H
	DB	010H
	DB	082H
	DB	010H
	DB	061H
	DB	08H
	DB	081H
	DB	08H
	DB	082H
	DB	010H
	DB	062H
	DB	010H
	DB	082H
	DB	010H
	DB	082H
	DB	010H
	DB	082H
	DB	010H
	DB	062H
	DB	010H
	DB	082H
	DB	010H
	DB	081H
	DB	08H
	DB	082H
	DB	010H
	DB	082H
	DB	010H
	DB	082H
	DB	010H
	DB	082H
	DB	010H
	DB	082H
	DB	010H
	DB	082H
	DB	010H
	DB	082H
	DB	010H
	DB	082H
	DB	010H
	DB	082H
	DB	010H
	DB	062H
	DB	010H
	DB	082H
	DB	010H
	DB	082H
	DB	010H
	DB	062H
	DB	010H
	DB	062H
	DB	010H
	DB	081H
	DB	08H
	DB	082H
	DB	010H
	DB	061H
	DB	08H
	DB	082H
	DB	010H
	DB	082H
	DB	010H
	DB	081H
	DB	08H
	DB	082H
	DB	010H
	DB	082H
	DB	010H
	DB	061H
	DB	08H
	DB	082H
	DB	010H
	DB	062H
	DB	010H
	DB	061H
	DB	08H
	DB	082H
	DB	010H
	DB	061H
	DB	08H
	DB	062H
	DB	010H
	DB	082H
	DB	010H
	DB	082H
	DB	010H
	DB	082H
	DB	010H
	DB	062H
	DB	010H
	DB	082H
	DB	010H
	DB	082H
	DB	010H
	DB	082H
	DB	010H
	DB	082H
	DB	010H
	DB	082H
	DB	010H
	DB	082H
	DB	010H
	DB	082H
	DB	010H
	DB	082H
	DB	010H
	DB	081H
	DB	08H
	DB	062H
	DB	010H
	DB	061H
	DB	08H
	DB	061H
	DB	08H
	DB	082H
	DB	010H
	DB	082H
	DB	010H
	DB	081H
	DB	08H
	DB	082H
	DB	010H
	DB	061H
	DB	08H
	DB	082H
	DB	010H
	DB	081H
	DB	08H
	DB	082H
	DB	010H
	DB	082H
	DB	010H
	DB	082H
	DB	010H
	DB	061H
	DB	08H
	DB	082H
	DB	010H
	DB	082H
	DB	010H
	DB	061H
	DB	08H
	DB	082H
	DB	010H
	DB	082H
	DB	010H
	DB	082H
	DB	010H
	DB	082H
	DB	010H
	DB	082H
	DB	010H
	DB	082H
	DB	010H
	DB	082H
	DB	010H
	DB	082H
	DB	010H
	DB	082H
	DB	010H
	DB	082H
	DB	010H
	DB	082H
	DB	010H
	DB	082H
	DB	010H
	DB	082H
	DB	010H
	DB	082H
	DB	010H
	DB	082H
	DB	010H
	DB	082H
	DB	010H
	DB	082H
	DB	010H
	DB	082H
	DB	010H
	DB	082H
	DB	010H
	DB	082H
	DB	010H
	DB	082H
	DB	010H
	DB	082H
	DB	010H
	DB	082H
	DB	010H
	DB	082H
	DB	010H
	DB	062H
	DB	010H
	DB	082H
	DB	010H
	DB	082H
	DB	010H
	DB	062H
	DB	010H
	DB	082H
	DB	010H
	DB	082H
	DB	010H
	DB	082H
	DB	010H
	DB	082H
	DB	010H
	DB	082H
	DB	010H
	DB	082H
	DB	010H
	DB	082H
	DB	010H
	DB	081H
	DB	08H
	DB	062H
	DB	010H
	DB	082H
	DB	010H
	DB	082H
	DB	010H
	DB	062H
	DB	010H
	DB	082H
	DB	010H
	DB	062H
	DB	010H
	DB	082H
	DB	010H
	DB	081H
	DB	08H
	DB	062H
	DB	010H
	DB	082H
	DB	010H
	DB	082H
	DB	010H
	DB	082H
	DB	010H
	DB	082H
	DB	010H
	DB	082H
	DB	010H
	DB	082H
	DB	010H
	DB	082H
	DB	010H
	DB	082H
	DB	010H
	DB	082H
	DB	010H
	DB	082H
	DB	010H
	DB	082H
	DB	010H
	DB	082H
	DB	010H
	DB	082H
	DB	010H
	DB	082H
	DB	010H
	DB	082H
	DB	010H
	DB	082H
	DB	010H
	DB	082H
	DB	010H
	DB	062H
	DB	010H
	DB	082H
	DB	010H
	DB	082H
	DB	010H
	DB	082H
	DB	010H
	DB	082H
	DB	010H
	DB	082H
	DB	010H
	DB	082H
	DB	010H
	DB	082H
	DB	010H
	DB	062H
	DB	010H
	DB	082H
	DB	010H
	DB	082H
	DB	010H
	DB	082H
	DB	010H
	DB	061H
	DB	08H
	DB	082H
	DB	010H
	DB	082H
	DB	010H
	DB	061H
	DB	08H
	DB	062H
	DB	010H
	DB	082H
	DB	010H
	DB	062H
	DB	010H
	DB	082H
	DB	010H
	DB	082H
	DB	010H
	DB	082H
	DB	010H
	DB	082H
	DB	010H
	DB	082H
	DB	010H
	DB	062H
	DB	010H
	DB	082H
	DB	010H
	DB	062H
	DB	010H
	DB	082H
	DB	010H
	DB	082H
	DB	010H
	DB	082H
	DB	010H
	DB	062H
	DB	010H
	DB	082H
	DB	010H
	DB	082H
	DB	010H
	DB	082H
	DB	010H
	DB	082H
	DB	010H
	DB	082H
	DB	010H
	DB	082H
	DB	010H
	DB	082H
	DB	010H
	DB	082H
	DB	010H
	DB	082H
	DB	010H
	DB	062H
	DB	010H
	DB	082H
	DB	010H
	DB	082H
	DB	010H
	DB	082H
	DB	010H
	DB	082H
	DB	010H
	DB	082H
	DB	010H
	DB	082H
	DB	010H
	DB	082H
	DB	010H
	DB	082H
	DB	010H
	DB	082H
	DB	010H
	DB	082H
	DB	010H
	DB	082H
	DB	010H
	DB	082H
	DB	010H
	DB	082H
	DB	010H
	DB	082H
	DB	010H
	DB	082H
	DB	010H
	DB	082H
	DB	010H
	DB	082H
	DB	010H
	DB	082H
	DB	010H
	DB	062H
	DB	010H
	DB	082H
	DB	010H
	DB	082H
	DB	010H
	DB	062H
	DB	010H
	DB	082H
	DB	010H
	DB	081H
	DB	08H
	DB	062H
	DB	010H
	DB	082H
	DB	010H
	DB	062H
	DB	010H
	DB	082H
	DB	010H
	DB	082H
	DB	010H
	DB	062H
	DB	010H
	DB	062H
	DB	010H
	DB	082H
	DB	010H
	DB	082H
	DB	010H
	DB	082H
	DB	010H
	DB	082H
	DB	010H
	DB	081H
	DB	08H
	DB	082H
	DB	010H
	DB	082H
	DB	010H
	DB	082H
	DB	010H
	DB	062H
	DB	010H
	DB	082H
	DB	010H
	DB	082H
	DB	010H
	DB	062H
	DB	010H
	DB	082H
	DB	010H
	DB	061H
	DB	08H
	DB	062H
	DB	010H
	DB	082H
	DB	010H
	DB	082H
	DB	010H
	DB	062H
	DB	010H
	DB	061H
	DB	08H
	DB	082H
	DB	010H
	DB	082H
	DB	010H
	DB	062H
	DB	010H
	DB	082H
	DB	010H
	DB	082H
	DB	010H
	DB	062H
	DB	010H
	DB	082H
	DB	010H
	DB	082H
	DB	010H
	DB	062H
	DB	010H
	DB	082H
	DB	010H
	DB	082H
	DB	010H
	DB	082H
	DB	010H
	DB	082H
	DB	010H
	DB	082H
	DB	010H
	DB	082H
	DB	010H
	DB	082H
	DB	010H
	DB	082H
	DB	010H
	DB	081H
	DB	08H
	DB	062H
	DB	010H
	DB	082H
	DB	010H
	DB	082H
	DB	010H
	DB	082H
	DB	010H
	DB	082H
	DB	010H
	DB	082H
	DB	010H
	DB	082H
	DB	010H
	DB	082H
	DB	010H
	DB	081H
	DB	08H
	DB	082H
	DB	010H
	DB	062H
	DB	010H
	DB	082H
	DB	010H
	DB	082H
	DB	010H
	DB	082H
	DB	010H
	DB	082H
	DB	010H
	DB	082H
	DB	010H
	DB	082H
	DB	010H
	DB	082H
	DB	010H
	DB	062H
	DB	010H
	DB	082H
	DB	010H
	DB	082H
	DB	010H
	DB	062H
	DB	010H
	DB	082H
	DB	010H
	DB	062H
	DB	010H
	DB	082H
	DB	010H
	DB	062H
	DB	010H
	DB	062H
	DB	010H
	DB	082H
	DB	010H
	DB	082H
	DB	010H
	DB	062H
	DB	010H
	DB	082H
	DB	010H
	DB	082H
	DB	010H
	DB	082H
	DB	010H
	DB	082H
	DB	010H
	DB	082H
	DB	010H
	DB	082H
	DB	010H
	DB	082H
	DB	010H
	DB	082H
	DB	010H
	DB	082H
	DB	010H
	DB	082H
	DB	010H
	DB	082H
	DB	010H
	DB	062H
	DB	010H
	DB	082H
	DB	010H
	DB	062H
	DB	010H
	DB	062H
	DB	010H
	DB	082H
	DB	010H
	DB	062H
	DB	010H
	DB	062H
	DB	010H
	DB	082H
	DB	010H
	DB	082H
	DB	010H
	DB	062H
	DB	010H
	DB	082H
	DB	010H
	DB	082H
	DB	010H
	DB	082H
	DB	010H
	DB	082H
	DB	010H
	DB	082H
	DB	010H
	DB	082H
	DB	010H
	DB	082H
	DB	010H
	DB	081H
	DB	08H
	DB	062H
	DB	010H
	DB	082H
	DB	010H
	DB	082H
	DB	010H
	DB	081H
	DB	08H
	DB	062H
	DB	010H
	DB	082H
	DB	010H
	DB	062H
	DB	010H
	DB	082H
	DB	010H
	DB	062H
	DB	010H
	DB	082H
	DB	010H
	DB	081H
	DB	08H
	DB	082H
	DB	010H
	DB	082H
	DB	010H
	DB	082H
	DB	010H
	DB	082H
	DB	010H
	DB	082H
	DB	010H
	DB	082H
	DB	010H
	DB	082H
	DB	010H
	DB	082H
	DB	010H
	DB	082H
	DB	010H
	DB	061H
	DB	08H
	DB	082H
	DB	010H
	DB	082H
	DB	010H
	DB	082H
	DB	010H
	DB	062H
	DB	010H
	DB	082H
	DB	010H
	DB	081H
	DB	08H
	DB	062H
	DB	010H
	DB	082H
	DB	010H
	DB	081H
	DB	08H
	DB	062H
	DB	010H
	DB	082H
	DB	010H
	DB	081H
	DB	08H
	DB	062H
	DB	010H
	DB	082H
	DB	010H
	DB	061H
	DB	08H
	DB	062H
	DB	010H
	DB	082H
	DB	010H
	DB	062H
	DB	010H
	DB	082H
	DB	010H
	DB	082H
	DB	010H
	DB	082H
	DB	010H
	DB	062H
	DB	010H
	DB	081H
	DB	08H
	DB	062H
	DB	010H
	DB	082H
	DB	010H
	DB	062H
	DB	010H
	DB	082H
	DB	010H
	DB	082H
	DB	010H
	DB	082H
	DB	010H
	DB	082H
	DB	010H
	DB	082H
	DB	010H
	DB	061H
	DB	08H
	DB	082H
	DB	010H
	DB	062H
	DB	010H
	DB	082H
	DB	010H
	DB	081H
	DB	08H
	DB	062H
	DB	010H
	DB	082H
	DB	010H
	DB	081H
	DB	08H
	DB	082H
	DB	010H
	DB	082H
	DB	010H
	DB	081H
	DB	08H
	DB	082H
	DB	010H
	DB	082H
	DB	010H
	DB	081H
	DB	08H
	DB	082H
	DB	010H
	DB	082H
	DB	010H
	DB	081H
	DB	08H
	DB	062H
	DB	010H
	DB	082H
	DB	010H
	DB	082H
	DB	010H
	DB	062H
	DB	010H
	DB	082H
	DB	010H
	DB	062H
	DB	010H
	DB	062H
	DB	010H
	DB	082H
	DB	010H
	DB	062H
	DB	010H
	DB	062H
	DB	010H
	DB	082H
	DB	010H
	DB	062H
	DB	010H
	DB	082H
	DB	010H
	DB	062H
	DB	010H
	DB	062H
	DB	010H
	DB	081H
	DB	08H
	DB	062H
	DB	010H
	DB	062H
	DB	010H
	DB	082H
	DB	010H
	DB	062H
	DB	010H
	DB	061H
	DB	08H
	DB	082H
	DB	010H
	DB	062H
	DB	010H
	DB	061H
	DB	08H
	DB	062H
	DB	010H
	DB	061H
	DB	08H
	DB	062H
	DB	010H
	DB	062H
	DB	010H
	DB	061H
	DB	08H
	DB	062H
	DB	010H
	DB	062H
	DB	010H
	DB	061H
	DB	08H
	DB	062H
	DB	010H
	DB	082H
	DB	010H
	DB	061H
	DB	08H
	DB	062H
	DB	010H
	DB	081H
	DB	08H
	DB	061H
	DB	08H
	DB	062H
	DB	010H
	DB	062H
	DB	010H
	DB	061H
	DB	08H
	DB	062H
	DB	010H
	DB	062H
	DB	010H
	DB	061H
	DB	08H
	DB	061H
	DB	08H
	DB	062H
	DB	010H
	DB	061H
	DB	08H
	DB	061H
	DB	08H
	DB	062H
	DB	010H
	DB	062H
	DB	010H
	DB	061H
	DB	08H
	DB	082H
	DB	010H
	DB	062H
	DB	010H
	DB	062H
	DB	010H
	DB	061H
	DB	08H
	DB	082H
	DB	010H
	DB	062H
	DB	010H
	DB	061H
	DB	08H
	DB	062H
	DB	010H
	DB	062H
	DB	010H
	DB	081H
	DB	08H
	DB	062H
	DB	010H
	DB	062H
	DB	010H
	DB	081H
	DB	08H
	DB	062H
	DB	010H
	DB	062H
	DB	010H
	DB	081H
	DB	08H
	DB	062H
	DB	010H
	DB	061H
	DB	08H
	DB	061H
	DB	08H
	DB	062H
	DB	010H
	DB	061H
	DB	08H
	DB	062H
	DB	010H
	DB	082H
	DB	010H
	DB	061H
	DB	08H
	DB	062H
	DB	010H
	DB	061H
	DB	08H
	DB	061H
	DB	08H
	DB	062H
	DB	010H
	DB	061H
	DB	08H
	DB	062H
	DB	010H
	DB	062H
	DB	010H
	DB	061H
	DB	08H
	DB	082H
	DB	010H
	DB	062H
	DB	010H
	DB	061H
	DB	08H
	DB	062H
	DB	010H
	DB	062H
	DB	010H
	DB	061H
	DB	08H
	DB	062H
	DB	010H
	DB	062H
	DB	010H
	DB	062H
	DB	010H
	DB	061H
	DB	08H
	DB	062H
	DB	010H
	DB	062H
	DB	010H
	DB	061H
	DB	08H
	DB	062H
	DB	010H
	DB	062H
	DB	010H
	DB	061H
	DB	08H
	DB	062H
	DB	010H
	DB	062H
	DB	010H
	DB	081H
	DB	08H
	DB	062H
	DB	010H
	DB	061H
	DB	08H
	DB	082H
	DB	010H
	DB	062H
	DB	010H
	DB	062H
	DB	010H
	DB	082H
	DB	010H
	DB	062H
	DB	010H
	DB	062H
	DB	010H
	DB	082H
	DB	010H
	DB	062H
	DB	010H
	DB	062H
	DB	010H
	DB	082H
	DB	010H
	DB	082H
	DB	010H
	DB	082H
	DB	010H
	DB	081H
	DB	08H
	DB	062H
	DB	010H
	DB	082H
	DB	010H
	DB	081H
	DB	08H
	DB	062H
	DB	010H
	DB	082H
	DB	010H
	DB	082H
	DB	010H
	DB	062H
	DB	010H
	DB	082H
	DB	010H
	DB	082H
	DB	010H
	DB	061H
	DB	08H
	DB	082H
	DB	010H
	DB	082H
	DB	010H
	DB	062H
	DB	010H
	DB	082H
	DB	010H
	DB	081H
	DB	08H
	DB	062H
	DB	010H
	DB	082H
	DB	010H
	DB	062H
	DB	010H
	DB	082H
	DB	010H
	DB	082H
	DB	010H
	DB	082H
	DB	010H
	DB	062H
	DB	010H
	DB	081H
	DB	08H
	DB	082H
	DB	010H
	DB	062H
	DB	010H
	DB	082H
	DB	010H
	DB	062H
	DB	010H
	DB	082H
	DB	010H
	DB	082H
	DB	010H
	DB	062H
	DB	010H
	DB	082H
	DB	010H
	DB	082H
	DB	010H
	DB	061H
	DB	08H
	DB	082H
	DB	010H
	DB	082H
	DB	010H
	DB	062H
	DB	010H
	DB	081H
	DB	08H
	DB	082H
	DB	010H
	DB	062H
	DB	010H
	DB	082H
	DB	010H
	DB	082H
	DB	010H
	DB	082H
	DB	010H
	DB	062H
	DB	010H
	DB	082H
	DB	010H
	DB	082H
	DB	010H
	DB	062H
	DB	010H
	DB	082H
	DB	010H
	DB	082H
	DB	010H
	DB	062H
	DB	010H
	DB	082H
	DB	010H
	DB	082H
	DB	010H
	DB	082H
	DB	010H
	DB	082H
	DB	010H
	DB	082H
	DB	010H
	DB	061H
	DB	08H
	DB	082H
	DB	010H
	DB	082H
	DB	010H
	DB	062H
	DB	010H
	DB	082H
	DB	010H
	DB	082H
	DB	010H
	DB	082H
	DB	010H
	DB	082H
	DB	010H
	DB	062H
	DB	010H
	DB	081H
	DB	08H
	DB	062H
	DB	010H
	DB	082H
	DB	010H
	DB	082H
	DB	010H
	DB	062H
	DB	010H
	DB	081H
	DB	08H
	DB	082H
	DB	010H
	DB	082H
	DB	010H
	DB	082H
	DB	010H
	DB	082H
	DB	010H
	DB	062H
	DB	010H
	DB	081H
	DB	08H
	DB	082H
	DB	010H
	DB	062H
	DB	010H
	DB	082H
	DB	010H
	DB	082H
	DB	010H
	DB	062H
	DB	010H
	DB	082H
	DB	010H
	DB	082H
	DB	010H
	DB	082H
	DB	010H
	DB	062H
	DB	010H
	DB	082H
	DB	010H
	DB	062H
	DB	010H
	DB	082H
	DB	010H
	DB	081H
	DB	08H
	DB	082H
	DB	010H
	DB	081H
	DB	08H
	DB	081H
	DB	08H
	DB	082H
	DB	010H
	DB	061H
	DB	08H
	DB	082H
	DB	010H
	DB	081H
	DB	08H
	DB	062H
	DB	010H
	DB	062H
	DB	010H
	DB	061H
	DB	08H
	DB	062H
	DB	010H
	DB	082H
	DB	010H
	DB	061H
	DB	08H
	DB	082H
	DB	010H
	DB	062H
	DB	010H
	DB	062H
	DB	010H
	DB	081H
	DB	08H
	DB	062H
	DB	010H
	DB	082H
	DB	010H
	DB	081H
	DB	08H
	DB	062H
	DB	010H
	DB	082H
	DB	010H
	DB	081H
	DB	08H
	DB	062H
	DB	010H
	DB	082H
	DB	010H
	DB	081H
	DB	08H
	DB	062H
	DB	010H
	DB	082H
	DB	010H
	DB	081H
	DB	08H
	DB	062H
	DB	010H
	DB	062H
	DB	010H
	DB	082H
	DB	010H
	DB	062H
	DB	010H
	DB	082H
	DB	010H
	DB	082H
	DB	010H
	DB	062H
	DB	010H
	DB	081H
	DB	08H
	DB	082H
	DB	010H
	DB	062H
	DB	010H
	DB	081H
	DB	08H
	DB	082H
	DB	010H
	DB	062H
	DB	010H
	DB	082H
	DB	010H
	DB	081H
	DB	08H
	DB	062H
	DB	010H
	DB	082H
	DB	010H
	DB	062H
	DB	010H
	DB	061H
	DB	08H
	DB	082H
	DB	010H
	DB	082H
	DB	010H
	DB	061H
	DB	08H
	DB	061H
	DB	08H
	DB	082H
	DB	010H
	DB	061H
	DB	08H
	DB	062H
	DB	010H
	DB	081H
	DB	08H
	DB	062H
	DB	010H
	DB	061H
	DB	08H
	DB	082H
	DB	010H
	DB	061H
	DB	08H
	DB	062H
	DB	010H
	DB	082H
	DB	010H
	DB	061H
	DB	08H
	DB	062H
	DB	010H
	DB	082H
	DB	010H
	DB	062H
	DB	010H
	DB	082H
	DB	010H
	DB	061H
	DB	08H
	DB	062H
	DB	010H
	DB	082H
	DB	010H
	DB	081H
	DB	08H
	DB	062H
	DB	010H
	DB	062H
	DB	010H
	DB	082H
	DB	010H
	DB	082H
	DB	010H
	DB	062H
	DB	010H
	DB	081H
	DB	08H
	DB	062H
	DB	010H
	DB	062H
	DB	010H
	DB	081H
	DB	08H
	DB	062H
	DB	010H
	DB	062H
	DB	010H
	DB	081H
	DB	08H
	DB	062H
	DB	010H
	DB	082H
	DB	010H
	DB	061H
	DB	08H
	DB	082H
	DB	010H
	DB	082H
	DB	010H
	DB	061H
	DB	08H
	DB	082H
	DB	010H
	DB	082H
	DB	010H
	DB	061H
	DB	08H
	DB	082H
	DB	010H
	DB	081H
	DB	08H
	DB	062H
	DB	010H
	DB	081H
	DB	08H
	DB	062H
	DB	010H
	DB	082H
	DB	010H
	DB	061H
	DB	08H
	DB	062H
	DB	010H
	DB	062H
	DB	010H
	DB	062H
	DB	010H
	DB	062H
	DB	010H
	DB	082H
	DB	010H
	DB	062H
	DB	010H
	DB	061H
	DB	08H
	DB	082H
	DB	010H
	DB	062H
	DB	010H
	DB	062H
	DB	010H
	DB	082H
	DB	010H
	DB	062H
	DB	010H
	DB	062H
	DB	010H
	DB	082H
	DB	010H
	DB	061H
	DB	08H
	DB	082H
	DB	010H
	DB	082H
	DB	010H
	DB	061H
	DB	08H
	DB	062H
	DB	010H
	DB	082H
	DB	010H
	DB	061H
	DB	08H
	DB	062H
	DB	010H
	DB	062H
	DB	010H
	DB	062H
	DB	010H
	DB	061H
	DB	08H
	DB	082H
	DB	010H
	DB	062H
	DB	010H
	DB	062H
	DB	010H
	DB	082H
	DB	010H
	DB	062H
	DB	010H
	DB	081H
	DB	08H
	DB	062H
	DB	010H
	DB	061H
	DB	08H
	DB	081H
	DB	08H
	DB	062H
	DB	010H
	DB	062H
	DB	010H
	DB	061H
	DB	08H
	DB	082H
	DB	010H
	DB	062H
	DB	010H
	DB	061H
	DB	08H
	DB	062H
	DB	010H
	DB	062H
	DB	010H
	DB	061H
	DB	08H
	DB	082H
	DB	010H
	DB	062H
	DB	010H
	DB	062H
	DB	010H
	DB	082H
	DB	010H
	DB	081H
	DB	08H
	DB	062H
	DB	010H
	DB	062H
	DB	010H
	DB	082H
	DB	010H
	DB	062H
	DB	010H
	DB	082H
	DB	010H
	DB	062H
	DB	010H
	DB	082H
	DB	010H
	DB	081H
	DB	08H
	DB	062H
	DB	010H
	DB	082H
	DB	010H
	DB	082H
	DB	010H
	DB	061H
	DB	08H
	DB	082H
	DB	010H
	DB	082H
	DB	010H
	DB	061H
	DB	08H
	DB	062H
	DB	010H
	DB	082H
	DB	010H
	DB	061H
	DB	08H
	DB	062H
	DB	010H
	DB	082H
	DB	010H
	DB	082H
	DB	010H
	DB	062H
	DB	010H
	DB	061H
	DB	08H
	DB	082H
	DB	010H
	DB	062H
	DB	010H
	DB	061H
	DB	08H
	DB	081H
	DB	08H
	DB	062H
	DB	010H
	DB	062H
	DB	010H
	DB	082H
	DB	010H
	DB	081H
	DB	08H
	DB	062H
	DB	010H
	DB	082H
	DB	010H
	DB	082H
	DB	010H
	DB	062H
	DB	010H
	DB	061H
	DB	08H
	DB	082H
	DB	010H
	DB	062H
	DB	010H
	DB	062H
	DB	010H
	DB	062H
	DB	010H
	DB	082H
	DB	010H
	DB	061H
	DB	08H
	DB	062H
	DB	010H
	DB	062H
	DB	010H
	DB	061H
	DB	08H
	DB	062H
	DB	010H
	DB	062H
	DB	010H
	DB	082H
	DB	010H
	DB	061H
	DB	08H
	DB	082H
	DB	010H
	DB	062H
	DB	010H
	DB	082H
	DB	010H
	DB	082H
	DB	010H
	DB	062H
	DB	010H
	DB	081H
	DB	08H
	DB	062H
	DB	010H
	DB	082H
	DB	010H
	DB	082H
	DB	010H
	DB	062H
	DB	010H
	DB	082H
	DB	010H
	DB	082H
	DB	010H
	DB	061H
	DB	08H
	DB	061H
	DB	08H
	DB	061H
	DB	08H
	DB	062H
	DB	010H
	DB	061H
	DB	08H
	DB	062H
	DB	010H
	DB	061H
	DB	08H
	DB	062H
	DB	010H
	DB	062H
	DB	010H
	DB	061H
	DB	08H
	DB	062H
	DB	010H
	DB	062H
	DB	010H
	DB	061H
	DB	08H
	DB	082H
	DB	010H
	DB	061H
	DB	08H
	DB	062H
	DB	010H
	DB	061H
	DB	08H
	DB	061H
	DB	08H
	DB	062H
	DB	010H
	DB	061H
	DB	08H
	DB	061H
	DB	08H
	DB	062H
	DB	010H
	DB	062H
	DB	010H
	DB	061H
	DB	08H
	DB	062H
	DB	010H
	DB	061H
	DB	08H
	DB	061H
	DB	08H
	DB	062H
	DB	010H
	DB	062H
	DB	010H
	DB	061H
	DB	08H
	DB	062H
	DB	010H
	DB	082H
	DB	010H
	DB	061H
	DB	08H
	DB	061H
	DB	08H
	DB	062H
	DB	010H
	DB	061H
	DB	08H
	DB	061H
	DB	08H
	DB	062H
	DB	010H
	DB	061H
	DB	08H
	DB	062H
	DB	010H
	DB	061H
	DB	08H
	DB	061H
	DB	08H
	DB	062H
	DB	010H
	DB	061H
	DB	08H
	DB	062H
	DB	010H
	DB	062H
	DB	010H
	DB	061H
	DB	08H
	DB	062H
	DB	010H
	DB	062H
	DB	010H
	DB	061H
	DB	08H
	DB	062H
	DB	010H
	DB	062H
	DB	010H
	DB	061H
	DB	08H
	DB	062H
	DB	010H
	DB	062H
	DB	010H
	DB	061H
	DB	08H
	DB	061H
	DB	08H
	DB	062H
	DB	010H
	DB	061H
	DB	08H
	DB	061H
	DB	08H
	DB	062H
	DB	010H
	DB	061H
	DB	08H
	DB	062H
	DB	010H
	DB	062H
	DB	010H
	DB	061H
	DB	08H
	DB	062H
	DB	010H
	DB	061H
	DB	08H
	DB	061H
	DB	08H
	DB	062H
	DB	010H
	DB	061H
	DB	08H
	DB	062H
	DB	010H
	DB	061H
	DB	08H
	DB	061H
	DB	08H
	DB	062H
	DB	010H
	DB	062H
	DB	010H
	DB	061H
	DB	08H
	DB	061H
	DB	08H
	DB	061H
	DB	08H
	DB	062H
	DB	010H
	DB	061H
	DB	08H
	DB	062H
	DB	010H
	DB	062H
	DB	010H
	DB	081H
	DB	08H
	DB	062H
	DB	010H
	DB	061H
	DB	08H
	DB	062H
	DB	010H
	DB	061H
	DB	08H
	DB	062H
	DB	010H
	DB	061H
	DB	08H
	DB	061H
	DB	08H
	DB	061H
	DB	08H
	DB	062H
	DB	010H
	DB	061H
	DB	08H
	DB	061H
	DB	08H
	DB	062H
	DB	010H
	DB	061H
	DB	08H
	DB	061H
	DB	08H
	DB	061H
	DB	08H
	DB	062H
	DB	010H
	DB	061H
	DB	08H
	DB	062H
	DB	010H
	DB	062H
	DB	010H
	DB	082H
	DB	010H
	DB	081H
	DB	08H
	DB	062H
	DB	010H
	DB	062H
	DB	010H
	DB	061H
	DB	08H
	DB	082H
	DB	010H
	DB	062H
	DB	010H
	DB	061H
	DB	08H
	DB	081H
	DB	08H
	DB	062H
	DB	010H
	DB	062H
	DB	010H
	DB	081H
	DB	08H
	DB	062H
	DB	010H
	DB	062H
	DB	010H
	DB	082H
	DB	010H
	DB	062H
	DB	010H
	DB	061H
	DB	08H
	DB	082H
	DB	010H
	DB	062H
	DB	010H
	DB	062H
	DB	010H
	DB	081H
	DB	08H
	DB	062H
	DB	010H
	DB	062H
	DB	010H
	DB	082H
	DB	010H
	DB	082H
	DB	010H
	DB	061H
	DB	08H
	DB	062H
	DB	010H
	DB	081H
	DB	08H
	DB	062H
	DB	010H
	DB	062H
	DB	010H
	DB	081H
	DB	08H
	DB	062H
	DB	010H
	DB	062H
	DB	010H
	DB	081H
	DB	08H
	DB	062H
	DB	010H
	DB	062H
	DB	010H
	DB	062H
	DB	010H
	DB	081H
	DB	08H
	DB	062H
	DB	010H
	DB	062H
	DB	010H
	DB	081H
	DB	08H
	DB	062H
	DB	010H
	DB	061H
	DB	08H
	DB	062H
	DB	010H
	DB	061H
	DB	08H
	DB	062H
	DB	010H
	DB	061H
	DB	08H
	DB	061H
	DB	08H
	DB	062H
	DB	010H
	DB	062H
	DB	010H
	DB	061H
	DB	08H
	DB	082H
	DB	010H
	DB	062H
	DB	010H
	DB	081H
	DB	08H
	DB	062H
	DB	010H
	DB	082H
	DB	010H
	DB	061H
	DB	08H
	DB	062H
	DB	010H
	DB	082H
	DB	010H
	DB	061H
	DB	08H
	DB	082H
	DB	010H
	DB	062H
	DB	010H
	DB	081H
	DB	08H
	DB	062H
	DB	010H
	DB	082H
	DB	010H
	DB	062H
	DB	010H
	DB	061H
	DB	08H
	DB	062H
	DB	010H
	DB	062H
	DB	010H
	DB	062H
	DB	010H
	DB	061H
	DB	08H
	DB	082H
	DB	010H
	DB	062H
	DB	010H
	DB	062H
	DB	010H
	DB	082H
	DB	010H
	DB	081H
	DB	08H
	DB	062H
	DB	010H
	DB	062H
	DB	010H
	DB	081H
	DB	08H
	DB	062H
	DB	010H
	DB	062H
	DB	010H
	DB	081H
	DB	08H
	DB	062H
	DB	010H
	DB	082H
	DB	010H
	DB	062H
	DB	010H
	DB	062H
	DB	010H
	DB	082H
	DB	010H
	DB	062H
	DB	010H
	DB	062H
	DB	010H
	DB	061H
	DB	08H
	DB	082H
	DB	010H
	DB	062H
	DB	010H
	DB	062H
	DB	010H
	DB	062H
	DB	010H
	DB	061H
	DB	08H
	DB	062H
	DB	010H
	DB	062H
	DB	010H
	DB	061H
	DB	08H
	DB	062H
	DB	010H
	DB	062H
	DB	010H
	DB	061H
	DB	08H
	DB	062H
	DB	010H
	DB	082H
	DB	010H
	DB	061H
	DB	08H
	DB	062H
	DB	010H
	DB	081H
	DB	08H
	DB	062H
	DB	010H
	DB	062H
	DB	010H
	DB	081H
	DB	08H
	DB	062H
	DB	010H
	DB	062H
	DB	010H
	DB	061H
	DB	08H
	DB	062H
	DB	010H
	DB	081H
	DB	08H
	DB	062H
	DB	010H
	DB	062H
	DB	010H
	DB	081H
	DB	08H
	DB	062H
	DB	010H
	DB	062H
	DB	010H
	DB	081H
	DB	08H
	DB	062H
	DB	010H
	DB	061H
	DB	08H
	DB	082H
	DB	010H
	DB	062H
	DB	010H
	DB	061H
	DB	08H
	DB	062H
	DB	010H
	DB	082H
	DB	010H
	DB	061H
	DB	08H
	DB	062H
	DB	010H
	DB	062H
	DB	010H
	DB	061H
	DB	08H
	DB	082H
	DB	010H
	DB	062H
	DB	010H
	DB	062H
	DB	010H
	DB	081H
	DB	08H
	DB	062H
	DB	010H
	DB	062H
	DB	010H
	DB	081H
	DB	08H
	DB	062H
	DB	010H
	DB	062H
	DB	010H
	DB	082H
	DB	010H
	DB	061H
	DB	08H
	DB	062H
	DB	010H
	DB	082H
	DB	010H
	DB	082H
	DB	010H
	DB	061H
	DB	08H
	DB	082H
	DB	010H
	DB	082H
	DB	010H
	DB	061H
	DB	08H
	DB	082H
	DB	010H
	DB	061H
	DB	08H
	DB	061H
	DB	08H
	DB	082H
	DB	010H
	DB	062H
	DB	010H
	DB	062H
	DB	010H
	DB	061H
	DB	08H
	DB	082H
	DB	010H
	DB	062H
	DB	010H
	DB	062H
	DB	010H
	DB	061H
	DB	08H
	DB	062H
	DB	010H
	DB	082H
	DB	010H
	DB	061H
	DB	08H
	DB	062H
	DB	010H
	DB	062H
	DB	010H
	DB	081H
	DB	08H
	DB	062H
	DB	010H
	DB	082H
	DB	010H
	DB	081H
	DB	08H
	DB	062H
	DB	010H
	DB	062H
	DB	010H
	DB	081H
	DB	08H
	DB	061H
	DB	08H
	DB	062H
	DB	010H
	DB	062H
	DB	010H
	DB	062H
	DB	010H
	DB	061H
	DB	08H
	DB	082H
	DB	010H
	DB	061H
	DB	08H
	DB	062H
	DB	010H
	DB	062H
	DB	010H
	DB	061H
	DB	08H
	DB	062H
	DB	010H
	DB	061H
	DB	08H
	DB	081H
	DB	08H
	DB	062H
	DB	010H
	DB	061H
	DB	08H
	DB	082H
	DB	010H
	DB	062H
	DB	010H
	DB	061H
	DB	08H
	DB	082H
	DB	010H
	DB	062H
	DB	010H
	DB	081H
	DB	08H
	DB	082H
	DB	010H
	DB	062H
	DB	010H
	DB	082H
	DB	010H
	DB	061H
	DB	08H
	DB	062H
	DB	010H
CONST	ENDS
END
