; Listing generated by Microsoft (R) Optimizing Compiler Version 19.27.29112.0 

	TITLE	D:\hackTuesProject\project\TouchGFX\generated\images\src\Device_boxes\image_food_recipies.cpp
	.686P
	.XMM
	include listing.inc
	.model	flat

INCLUDELIB MSVCRTD
INCLUDELIB OLDNAMES

PUBLIC	?image_food_recipies@@3QBEB			; image_food_recipies
CONST	SEGMENT
?image_food_recipies@@3QBEB DB 0f8H			; image_food_recipies
	DB	0fcH
	DB	0f8H
	DB	00H
	DB	0f8H
	DB	0fcH
	DB	0f8H
	DB	00H
	DB	0f8H
	DB	0fcH
	DB	0f8H
	DB	00H
	DB	0f8H
	DB	0fcH
	DB	0f8H
	DB	00H
	DB	0f8H
	DB	0fcH
	DB	0f8H
	DB	00H
	DB	0f8H
	DB	0fcH
	DB	0f8H
	DB	00H
	DB	0f8H
	DB	0fcH
	DB	0f8H
	DB	00H
	DB	0f8H
	DB	0fcH
	DB	0f8H
	DB	00H
	DB	0f8H
	DB	0fcH
	DB	0f8H
	DB	00H
	DB	0f8H
	DB	0fcH
	DB	0f8H
	DB	00H
	DB	0f8H
	DB	0fcH
	DB	0f8H
	DB	00H
	DB	0f8H
	DB	0fcH
	DB	0f8H
	DB	00H
	DB	0f8H
	DB	0fcH
	DB	0f8H
	DB	00H
	DB	0f8H
	DB	0fcH
	DB	0f8H
	DB	00H
	DB	0f8H
	DB	0fcH
	DB	0f8H
	DB	00H
	DB	0f8H
	DB	0fcH
	DB	0f8H
	DB	00H
	DB	0f8H
	DB	0fcH
	DB	0f8H
	DB	00H
	DB	0f8H
	DB	0fcH
	DB	0f8H
	DB	00H
	DB	0f8H
	DB	0fcH
	DB	0f8H
	DB	00H
	DB	0f8H
	DB	0fcH
	DB	0f8H
	DB	00H
	DB	0f8H
	DB	0fcH
	DB	0f8H
	DB	00H
	DB	0f8H
	DB	0fcH
	DB	0f8H
	DB	00H
	DB	0f8H
	DB	0fcH
	DB	0f8H
	DB	00H
	DB	0f8H
	DB	0fcH
	DB	0f8H
	DB	00H
	DB	0f8H
	DB	0fcH
	DB	0f8H
	DB	00H
	DB	0f8H
	DB	0fcH
	DB	0f8H
	DB	00H
	DB	0f8H
	DB	0fcH
	DB	0f8H
	DB	00H
	DB	0f8H
	DB	0fcH
	DB	0f8H
	DB	00H
	DB	0f8H
	DB	0fcH
	DB	0f8H
	DB	00H
	DB	0f8H
	DB	0fcH
	DB	0f8H
	DB	00H
	DB	0f8H
	DB	0fcH
	DB	0f8H
	DB	00H
	DB	0f8H
	DB	0fcH
	DB	0f8H
	DB	00H
	DB	0f8H
	DB	0fcH
	DB	0f8H
	DB	00H
	DB	0f8H
	DB	0fcH
	DB	0f8H
	DB	00H
	DB	0f8H
	DB	0fcH
	DB	0f8H
	DB	00H
	DB	0f8H
	DB	0fcH
	DB	0f8H
	DB	00H
	DB	0f8H
	DB	0fcH
	DB	0f8H
	DB	00H
	DB	0f8H
	DB	0fcH
	DB	0f8H
	DB	00H
	DB	0f8H
	DB	0fcH
	DB	0f8H
	DB	00H
	DB	0f8H
	DB	0fcH
	DB	0f8H
	DB	00H
	DB	0f8H
	DB	0fcH
	DB	0f8H
	DB	00H
	DB	0f8H
	DB	0fcH
	DB	0f8H
	DB	00H
	DB	0f8H
	DB	0fcH
	DB	0f8H
	DB	00H
	DB	0f8H
	DB	0fcH
	DB	0f8H
	DB	00H
	DB	0f8H
	DB	0fcH
	DB	0f8H
	DB	00H
	DB	0f8H
	DB	0fcH
	DB	0f8H
	DB	00H
	DB	0f8H
	DB	0fcH
	DB	0f8H
	DB	00H
	DB	0f8H
	DB	0fcH
	DB	0f8H
	DB	00H
	DB	0f8H
	DB	0fcH
	DB	0f8H
	DB	00H
	DB	0f8H
	DB	0fcH
	DB	0f8H
	DB	00H
	DB	0f8H
	DB	0fcH
	DB	0f8H
	DB	00H
	DB	0f8H
	DB	0fcH
	DB	0f8H
	DB	00H
	DB	0f8H
	DB	0fcH
	DB	0f8H
	DB	00H
	DB	0f8H
	DB	0fcH
	DB	0f8H
	DB	00H
	DB	0f8H
	DB	0fcH
	DB	0f8H
	DB	00H
	DB	0f8H
	DB	0fcH
	DB	0f8H
	DB	00H
	DB	0f8H
	DB	0fcH
	DB	0f8H
	DB	00H
	DB	0f8H
	DB	0fcH
	DB	0f8H
	DB	00H
	DB	0f8H
	DB	0fcH
	DB	0f8H
	DB	00H
	DB	0f8H
	DB	0fcH
	DB	0f8H
	DB	00H
	DB	0f8H
	DB	0fcH
	DB	0f8H
	DB	00H
	DB	0f8H
	DB	0fcH
	DB	0f8H
	DB	00H
	DB	0f8H
	DB	0fcH
	DB	0f8H
	DB	00H
	DB	0f8H
	DB	0fcH
	DB	0f8H
	DB	00H
	DB	0f8H
	DB	0fcH
	DB	0f8H
	DB	00H
	DB	0f8H
	DB	0fcH
	DB	0f8H
	DB	00H
	DB	0f8H
	DB	0fcH
	DB	0f8H
	DB	00H
	DB	0f8H
	DB	0fcH
	DB	0f8H
	DB	00H
	DB	0f8H
	DB	0fcH
	DB	0f8H
	DB	00H
	DB	0f8H
	DB	0fcH
	DB	0f8H
	DB	00H
	DB	0f8H
	DB	0fcH
	DB	0f8H
	DB	00H
	DB	0f8H
	DB	0fcH
	DB	0f8H
	DB	00H
	DB	0f8H
	DB	0fcH
	DB	0f8H
	DB	00H
	DB	0f8H
	DB	0fcH
	DB	0f8H
	DB	00H
	DB	0f8H
	DB	0fcH
	DB	0f8H
	DB	00H
	DB	0f8H
	DB	0fcH
	DB	0f8H
	DB	00H
	DB	0f8H
	DB	0fcH
	DB	0f8H
	DB	00H
	DB	0f8H
	DB	0fcH
	DB	0f8H
	DB	00H
	DB	0f8H
	DB	0fcH
	DB	0f8H
	DB	00H
	DB	0f8H
	DB	0fcH
	DB	0f8H
	DB	00H
	DB	0f8H
	DB	0fcH
	DB	0f8H
	DB	00H
	DB	0f8H
	DB	0fcH
	DB	0f8H
	DB	00H
	DB	0f8H
	DB	0fcH
	DB	0f8H
	DB	00H
	DB	0f8H
	DB	0fcH
	DB	0f8H
	DB	00H
	DB	0f8H
	DB	0fcH
	DB	0f8H
	DB	00H
	DB	0f8H
	DB	0fcH
	DB	0f8H
	DB	00H
	DB	0f8H
	DB	0fcH
	DB	0f8H
	DB	00H
	DB	0f8H
	DB	0fcH
	DB	0f8H
	DB	00H
	DB	0f8H
	DB	0fcH
	DB	0f8H
	DB	00H
	DB	0f8H
	DB	0fcH
	DB	0f8H
	DB	00H
	DB	0f8H
	DB	0fcH
	DB	0f8H
	DB	00H
	DB	0f8H
	DB	0fcH
	DB	0f8H
	DB	00H
	DB	0f8H
	DB	0fcH
	DB	0f8H
	DB	00H
	DB	0f8H
	DB	0fcH
	DB	0f8H
	DB	00H
	DB	0f8H
	DB	0fcH
	DB	0f8H
	DB	00H
	DB	0f8H
	DB	0fcH
	DB	0f8H
	DB	00H
	DB	0f8H
	DB	0fcH
	DB	0f8H
	DB	00H
	DB	0f8H
	DB	0fcH
	DB	0f8H
	DB	00H
	DB	0f8H
	DB	0fcH
	DB	0f8H
	DB	00H
	DB	0f8H
	DB	0fcH
	DB	0f8H
	DB	00H
	DB	0f8H
	DB	0fcH
	DB	0f8H
	DB	00H
	DB	0f8H
	DB	0fcH
	DB	0f8H
	DB	00H
	DB	0f8H
	DB	0fcH
	DB	0f8H
	DB	00H
	DB	0f8H
	DB	0fcH
	DB	0f8H
	DB	00H
	DB	0f8H
	DB	0fcH
	DB	0f8H
	DB	00H
	DB	0f8H
	DB	0fcH
	DB	0f8H
	DB	00H
	DB	0f8H
	DB	0fcH
	DB	0f8H
	DB	00H
	DB	0f8H
	DB	0fcH
	DB	0f8H
	DB	00H
	DB	0f8H
	DB	0fcH
	DB	0f8H
	DB	00H
	DB	0f8H
	DB	0fcH
	DB	0f8H
	DB	00H
	DB	0f8H
	DB	0fcH
	DB	0f8H
	DB	00H
	DB	0f8H
	DB	0fcH
	DB	0f8H
	DB	00H
	DB	0f8H
	DB	0fcH
	DB	0f8H
	DB	00H
	DB	0f8H
	DB	0fcH
	DB	0f8H
	DB	00H
	DB	0f8H
	DB	0fcH
	DB	0f8H
	DB	00H
	DB	0f8H
	DB	0fcH
	DB	0f8H
	DB	00H
	DB	0f8H
	DB	0fcH
	DB	0f8H
	DB	00H
	DB	0f8H
	DB	0fcH
	DB	0f8H
	DB	00H
	DB	0f8H
	DB	0fcH
	DB	0f8H
	DB	00H
	DB	0f8H
	DB	0fcH
	DB	0f8H
	DB	00H
	DB	0f8H
	DB	0fcH
	DB	0f8H
	DB	00H
	DB	0f8H
	DB	0fcH
	DB	0f8H
	DB	00H
	DB	0f8H
	DB	0fcH
	DB	0f8H
	DB	00H
	DB	0f8H
	DB	0fcH
	DB	0f8H
	DB	00H
	DB	0f8H
	DB	0fcH
	DB	0f8H
	DB	00H
	DB	0f8H
	DB	0fcH
	DB	0f8H
	DB	00H
	DB	0f8H
	DB	0fcH
	DB	0f8H
	DB	00H
	DB	0f8H
	DB	0fcH
	DB	0f8H
	DB	00H
	DB	0f8H
	DB	0fcH
	DB	0f8H
	DB	00H
	DB	0f8H
	DB	0fcH
	DB	0f8H
	DB	00H
	DB	0f8H
	DB	0fcH
	DB	0f8H
	DB	00H
	DB	0f8H
	DB	0fcH
	DB	0f8H
	DB	00H
	DB	0f8H
	DB	0fcH
	DB	0f8H
	DB	00H
	DB	0f8H
	DB	0fcH
	DB	0f8H
	DB	00H
	DB	0f8H
	DB	0fcH
	DB	0f8H
	DB	00H
	DB	0f8H
	DB	0fcH
	DB	0f8H
	DB	00H
	DB	0f8H
	DB	0fcH
	DB	0f8H
	DB	00H
	DB	0f8H
	DB	0fcH
	DB	0f8H
	DB	00H
	DB	0f8H
	DB	0fcH
	DB	0f8H
	DB	00H
	DB	0f8H
	DB	0fcH
	DB	0f8H
	DB	00H
	DB	0f8H
	DB	0fcH
	DB	0f8H
	DB	00H
	DB	0f8H
	DB	0fcH
	DB	0f8H
	DB	00H
	DB	0f8H
	DB	0fcH
	DB	0f8H
	DB	00H
	DB	0f8H
	DB	0fcH
	DB	0f8H
	DB	00H
	DB	0f8H
	DB	0fcH
	DB	0f8H
	DB	00H
	DB	0f8H
	DB	0fcH
	DB	0f8H
	DB	00H
	DB	0f8H
	DB	0fcH
	DB	0f8H
	DB	00H
	DB	0f8H
	DB	0fcH
	DB	0f8H
	DB	00H
	DB	0f8H
	DB	0fcH
	DB	0f8H
	DB	00H
	DB	0f8H
	DB	0fcH
	DB	0f8H
	DB	00H
	DB	0f8H
	DB	0fcH
	DB	0f8H
	DB	00H
	DB	0f8H
	DB	0fcH
	DB	0f8H
	DB	00H
	DB	0f8H
	DB	0fcH
	DB	0f8H
	DB	00H
	DB	0f8H
	DB	0fcH
	DB	0f8H
	DB	00H
	DB	0f8H
	DB	0fcH
	DB	0f8H
	DB	00H
	DB	0f8H
	DB	0fcH
	DB	0f8H
	DB	00H
	DB	0f8H
	DB	0fcH
	DB	0f8H
	DB	00H
	DB	0f8H
	DB	0fcH
	DB	0f8H
	DB	00H
	DB	0f8H
	DB	0fcH
	DB	0f8H
	DB	00H
	DB	0f8H
	DB	0fcH
	DB	0f8H
	DB	00H
	DB	0f8H
	DB	0fcH
	DB	0f8H
	DB	00H
	DB	0f8H
	DB	0fcH
	DB	0f8H
	DB	00H
	DB	0f8H
	DB	0fcH
	DB	0f8H
	DB	00H
	DB	0f8H
	DB	0fcH
	DB	0f8H
	DB	00H
	DB	0f8H
	DB	0fcH
	DB	0f8H
	DB	00H
	DB	0f8H
	DB	0fcH
	DB	0f8H
	DB	00H
	DB	0f8H
	DB	0fcH
	DB	0f8H
	DB	00H
	DB	0f8H
	DB	0fcH
	DB	0f8H
	DB	00H
	DB	0f8H
	DB	0fcH
	DB	0f8H
	DB	00H
	DB	0f8H
	DB	0fcH
	DB	0f8H
	DB	00H
	DB	0f8H
	DB	0fcH
	DB	0f8H
	DB	00H
	DB	0f8H
	DB	0fcH
	DB	0f8H
	DB	00H
	DB	0f8H
	DB	0fcH
	DB	0f8H
	DB	00H
	DB	0f8H
	DB	0fcH
	DB	0f8H
	DB	00H
	DB	0f8H
	DB	0fcH
	DB	0f8H
	DB	00H
	DB	0f8H
	DB	0fcH
	DB	0f8H
	DB	00H
	DB	0f8H
	DB	0fcH
	DB	0f8H
	DB	00H
	DB	0f8H
	DB	0fcH
	DB	0f8H
	DB	00H
	DB	0f8H
	DB	0fcH
	DB	0f8H
	DB	00H
	DB	0f8H
	DB	0fcH
	DB	0f8H
	DB	00H
	DB	0f8H
	DB	0fcH
	DB	0f8H
	DB	00H
	DB	0f8H
	DB	0fcH
	DB	0f8H
	DB	00H
	DB	0f8H
	DB	0fcH
	DB	0f8H
	DB	00H
	DB	0f8H
	DB	0fcH
	DB	0f8H
	DB	00H
	DB	0f8H
	DB	0fcH
	DB	0f8H
	DB	00H
	DB	0f8H
	DB	0fcH
	DB	0f8H
	DB	00H
	DB	0f8H
	DB	0fcH
	DB	0f8H
	DB	00H
	DB	0f8H
	DB	0fcH
	DB	0f8H
	DB	00H
	DB	0f8H
	DB	0fcH
	DB	0f8H
	DB	00H
	DB	0f8H
	DB	0fcH
	DB	0f8H
	DB	00H
	DB	0f8H
	DB	0fcH
	DB	0f8H
	DB	00H
	DB	0f8H
	DB	0fcH
	DB	0f8H
	DB	00H
	DB	0f8H
	DB	0fcH
	DB	0f8H
	DB	00H
	DB	0f8H
	DB	0fcH
	DB	0f8H
	DB	00H
	DB	0f8H
	DB	0fcH
	DB	0f8H
	DB	00H
	DB	0f8H
	DB	0fcH
	DB	0f8H
	DB	00H
	DB	0f8H
	DB	0fcH
	DB	0f8H
	DB	00H
	DB	0f8H
	DB	0fcH
	DB	0f8H
	DB	00H
	DB	0f8H
	DB	0fcH
	DB	0f8H
	DB	00H
	DB	0f8H
	DB	0fcH
	DB	0f8H
	DB	00H
	DB	0f8H
	DB	0fcH
	DB	0f8H
	DB	00H
	DB	0f8H
	DB	0fcH
	DB	0f8H
	DB	00H
	DB	0f8H
	DB	0fcH
	DB	0f8H
	DB	00H
	DB	0f8H
	DB	0fcH
	DB	0f8H
	DB	00H
	DB	0f8H
	DB	0fcH
	DB	0f8H
	DB	00H
	DB	0f8H
	DB	0fcH
	DB	0f8H
	DB	00H
	DB	0f8H
	DB	0fcH
	DB	0f8H
	DB	00H
	DB	0f8H
	DB	0fcH
	DB	0f8H
	DB	00H
	DB	0f8H
	DB	0fcH
	DB	0f8H
	DB	00H
	DB	0f8H
	DB	0fcH
	DB	0f8H
	DB	00H
	DB	0f8H
	DB	0fcH
	DB	0f8H
	DB	00H
	DB	0f8H
	DB	0fcH
	DB	0f8H
	DB	00H
	DB	0f8H
	DB	0fcH
	DB	0f8H
	DB	00H
	DB	0f8H
	DB	0fcH
	DB	0f8H
	DB	00H
	DB	0f8H
	DB	0fcH
	DB	0f8H
	DB	00H
	DB	0f8H
	DB	0fcH
	DB	0f8H
	DB	00H
	DB	0f8H
	DB	0fcH
	DB	0f8H
	DB	00H
	DB	0f8H
	DB	0fcH
	DB	0f8H
	DB	00H
	DB	0f8H
	DB	0fcH
	DB	0f8H
	DB	00H
	DB	0f8H
	DB	0fcH
	DB	0f8H
	DB	00H
	DB	0f8H
	DB	0fcH
	DB	0f8H
	DB	00H
	DB	0f8H
	DB	0fcH
	DB	0f8H
	DB	00H
	DB	0f8H
	DB	0fcH
	DB	0f8H
	DB	00H
	DB	0f8H
	DB	0fcH
	DB	0f8H
	DB	00H
	DB	0f8H
	DB	0fcH
	DB	0f8H
	DB	00H
	DB	0f8H
	DB	0fcH
	DB	0f8H
	DB	00H
	DB	0f8H
	DB	0fcH
	DB	0f8H
	DB	00H
	DB	0f8H
	DB	0fcH
	DB	0f8H
	DB	00H
	DB	0f8H
	DB	0fcH
	DB	0f8H
	DB	00H
	DB	0f8H
	DB	0fcH
	DB	0f8H
	DB	00H
	DB	0f8H
	DB	0fcH
	DB	0f8H
	DB	00H
	DB	0f8H
	DB	0fcH
	DB	0f8H
	DB	00H
	DB	0f8H
	DB	0fcH
	DB	0f8H
	DB	00H
	DB	0f8H
	DB	0fcH
	DB	0f8H
	DB	00H
	DB	0f8H
	DB	0fcH
	DB	0f8H
	DB	00H
	DB	0f8H
	DB	0fcH
	DB	0f8H
	DB	00H
	DB	0f8H
	DB	0fcH
	DB	0f8H
	DB	00H
	DB	0f8H
	DB	0fcH
	DB	0f8H
	DB	00H
	DB	0f8H
	DB	0fcH
	DB	0f8H
	DB	00H
	DB	0f8H
	DB	0fcH
	DB	0f8H
	DB	00H
	DB	0f8H
	DB	0fcH
	DB	0f8H
	DB	00H
	DB	0f8H
	DB	0fcH
	DB	0f8H
	DB	00H
	DB	0f8H
	DB	0fcH
	DB	0f8H
	DB	00H
	DB	0f8H
	DB	0fcH
	DB	0f8H
	DB	00H
	DB	0f8H
	DB	0fcH
	DB	0f8H
	DB	00H
	DB	0f8H
	DB	0fcH
	DB	0f8H
	DB	00H
	DB	0f8H
	DB	0fcH
	DB	0f8H
	DB	00H
	DB	0f8H
	DB	0fcH
	DB	0f8H
	DB	00H
	DB	0f8H
	DB	0fcH
	DB	0f8H
	DB	00H
	DB	0f8H
	DB	0fcH
	DB	0f8H
	DB	00H
	DB	0f8H
	DB	0fcH
	DB	0f8H
	DB	00H
	DB	0f8H
	DB	0fcH
	DB	0f8H
	DB	00H
	DB	0f8H
	DB	0fcH
	DB	0f8H
	DB	00H
	DB	0f8H
	DB	0fcH
	DB	0f8H
	DB	00H
	DB	0f8H
	DB	0fcH
	DB	0f8H
	DB	00H
	DB	0f8H
	DB	0fcH
	DB	0f8H
	DB	00H
	DB	0f8H
	DB	0fcH
	DB	0f8H
	DB	00H
	DB	0f8H
	DB	0fcH
	DB	0f8H
	DB	00H
	DB	0f8H
	DB	0fcH
	DB	0f8H
	DB	00H
	DB	0f8H
	DB	0fcH
	DB	0f8H
	DB	00H
	DB	0f8H
	DB	0fcH
	DB	0f8H
	DB	00H
	DB	0f8H
	DB	0fcH
	DB	0f8H
	DB	00H
	DB	0f8H
	DB	0fcH
	DB	0f8H
	DB	00H
	DB	0f8H
	DB	0fcH
	DB	0f8H
	DB	00H
	DB	0f8H
	DB	0fcH
	DB	0f8H
	DB	00H
	DB	0f8H
	DB	0fcH
	DB	0f8H
	DB	00H
	DB	0f8H
	DB	0fcH
	DB	0f8H
	DB	00H
	DB	0f8H
	DB	0fcH
	DB	0f8H
	DB	00H
	DB	0f8H
	DB	0fcH
	DB	0f8H
	DB	00H
	DB	0f8H
	DB	0fcH
	DB	0f8H
	DB	00H
	DB	0f8H
	DB	0fcH
	DB	0f8H
	DB	00H
	DB	0f8H
	DB	0fcH
	DB	0f8H
	DB	00H
	DB	0f8H
	DB	0fcH
	DB	0f8H
	DB	00H
	DB	0f8H
	DB	0fcH
	DB	0f8H
	DB	00H
	DB	0f8H
	DB	0fcH
	DB	0f8H
	DB	00H
	DB	0f8H
	DB	0fcH
	DB	0f8H
	DB	00H
	DB	0f8H
	DB	0fcH
	DB	0f8H
	DB	00H
	DB	0f8H
	DB	0fcH
	DB	0f8H
	DB	00H
	DB	0f8H
	DB	0fcH
	DB	0f8H
	DB	00H
	DB	0f8H
	DB	0fcH
	DB	0f8H
	DB	00H
	DB	0f8H
	DB	0fcH
	DB	0f8H
	DB	00H
	DB	0f8H
	DB	0fcH
	DB	0f8H
	DB	00H
	DB	0f8H
	DB	0fcH
	DB	0f8H
	DB	00H
	DB	0f8H
	DB	0fcH
	DB	0f8H
	DB	00H
	DB	0f8H
	DB	0fcH
	DB	0f8H
	DB	00H
	DB	0f8H
	DB	0fcH
	DB	0f8H
	DB	00H
	DB	0f8H
	DB	0fcH
	DB	0f8H
	DB	00H
	DB	0f8H
	DB	0fcH
	DB	0f8H
	DB	00H
	DB	0f8H
	DB	0fcH
	DB	0f8H
	DB	00H
	DB	0f8H
	DB	0fcH
	DB	0f8H
	DB	00H
	DB	0f8H
	DB	0fcH
	DB	0f8H
	DB	00H
	DB	0f8H
	DB	0fcH
	DB	0f8H
	DB	00H
	DB	0f8H
	DB	0fcH
	DB	0f8H
	DB	00H
	DB	0f8H
	DB	0fcH
	DB	0f8H
	DB	00H
	DB	0f8H
	DB	0fcH
	DB	0f8H
	DB	00H
	DB	0f8H
	DB	0fcH
	DB	0f8H
	DB	00H
	DB	0f8H
	DB	0fcH
	DB	0f8H
	DB	00H
	DB	0f8H
	DB	0fcH
	DB	0f8H
	DB	00H
	DB	0f8H
	DB	0fcH
	DB	0f8H
	DB	00H
	DB	0f8H
	DB	0fcH
	DB	0f8H
	DB	00H
	DB	0f8H
	DB	0fcH
	DB	0f8H
	DB	00H
	DB	0f8H
	DB	0fcH
	DB	0f8H
	DB	00H
	DB	0f8H
	DB	0fcH
	DB	0f8H
	DB	00H
	DB	0f8H
	DB	0fcH
	DB	0f8H
	DB	00H
	DB	0f8H
	DB	0fcH
	DB	0f8H
	DB	00H
	DB	0f8H
	DB	0fcH
	DB	0f8H
	DB	00H
	DB	0f8H
	DB	0fcH
	DB	0f8H
	DB	00H
	DB	0f8H
	DB	0fcH
	DB	0f8H
	DB	00H
	DB	0f8H
	DB	0fcH
	DB	0f8H
	DB	00H
	DB	0f8H
	DB	0fcH
	DB	0f8H
	DB	00H
	DB	0f8H
	DB	0fcH
	DB	0f8H
	DB	00H
	DB	0f8H
	DB	0fcH
	DB	0f8H
	DB	00H
	DB	0f8H
	DB	0fcH
	DB	0f8H
	DB	00H
	DB	0f8H
	DB	0fcH
	DB	0f8H
	DB	00H
	DB	0f8H
	DB	0fcH
	DB	0f8H
	DB	00H
	DB	0f8H
	DB	0fcH
	DB	0f8H
	DB	00H
	DB	0f8H
	DB	0fcH
	DB	0f8H
	DB	00H
	DB	0f8H
	DB	0fcH
	DB	0f8H
	DB	00H
	DB	0f8H
	DB	0fcH
	DB	0f8H
	DB	00H
	DB	0f8H
	DB	0fcH
	DB	0f8H
	DB	00H
	DB	0f8H
	DB	0fcH
	DB	0f8H
	DB	00H
	DB	0f8H
	DB	0fcH
	DB	0f8H
	DB	00H
	DB	0f8H
	DB	0fcH
	DB	0f8H
	DB	00H
	DB	0f8H
	DB	0fcH
	DB	0f8H
	DB	00H
	DB	0f8H
	DB	0fcH
	DB	0f8H
	DB	00H
	DB	0f8H
	DB	0fcH
	DB	0f8H
	DB	00H
	DB	0f8H
	DB	0fcH
	DB	0f8H
	DB	00H
	DB	0f8H
	DB	0fcH
	DB	0f8H
	DB	00H
	DB	0f8H
	DB	0fcH
	DB	0f8H
	DB	00H
	DB	0f8H
	DB	0fcH
	DB	0f8H
	DB	00H
	DB	0f8H
	DB	0fcH
	DB	0f8H
	DB	00H
	DB	0f8H
	DB	0fcH
	DB	0f8H
	DB	00H
	DB	0f8H
	DB	0fcH
	DB	0f8H
	DB	00H
	DB	0f8H
	DB	0fcH
	DB	0f8H
	DB	00H
	DB	0f8H
	DB	0fcH
	DB	0f8H
	DB	00H
	DB	0f8H
	DB	0fcH
	DB	0f8H
	DB	00H
	DB	0f8H
	DB	0fcH
	DB	0f8H
	DB	00H
	DB	0f8H
	DB	0fcH
	DB	0f8H
	DB	00H
	DB	0f8H
	DB	0fcH
	DB	0f8H
	DB	00H
	DB	0f8H
	DB	0fcH
	DB	0f8H
	DB	00H
	DB	0f8H
	DB	0fcH
	DB	0f8H
	DB	00H
	DB	0f8H
	DB	0fcH
	DB	0f8H
	DB	00H
	DB	0f8H
	DB	0fcH
	DB	0f8H
	DB	00H
	DB	0f8H
	DB	0fcH
	DB	0f8H
	DB	00H
	DB	0f8H
	DB	0fcH
	DB	0f8H
	DB	00H
	DB	0f8H
	DB	0fcH
	DB	0f8H
	DB	00H
	DB	0f8H
	DB	0fcH
	DB	0f8H
	DB	00H
	DB	0f8H
	DB	0fcH
	DB	0f8H
	DB	00H
	DB	0f8H
	DB	0fcH
	DB	0f8H
	DB	00H
	DB	0f8H
	DB	0fcH
	DB	0f8H
	DB	00H
	DB	0f8H
	DB	0fcH
	DB	0f8H
	DB	00H
	DB	0f8H
	DB	0fcH
	DB	0f8H
	DB	00H
	DB	0f8H
	DB	0fcH
	DB	0f8H
	DB	00H
	DB	0f8H
	DB	0fcH
	DB	0f8H
	DB	00H
	DB	0f8H
	DB	0fcH
	DB	0f8H
	DB	00H
	DB	0f8H
	DB	0fcH
	DB	0f8H
	DB	00H
	DB	0f8H
	DB	0fcH
	DB	0f8H
	DB	00H
	DB	0f8H
	DB	0fcH
	DB	0f8H
	DB	00H
	DB	0f8H
	DB	0fcH
	DB	0f8H
	DB	00H
	DB	0f8H
	DB	0fcH
	DB	0f8H
	DB	00H
	DB	0f8H
	DB	0fcH
	DB	0f8H
	DB	00H
	DB	0f8H
	DB	0fcH
	DB	0f8H
	DB	00H
	DB	0f8H
	DB	0fcH
	DB	0f8H
	DB	00H
	DB	0f8H
	DB	0fcH
	DB	0f8H
	DB	00H
	DB	0f8H
	DB	0fcH
	DB	0f8H
	DB	00H
	DB	0f8H
	DB	0fcH
	DB	0f8H
	DB	00H
	DB	0f8H
	DB	0fcH
	DB	0f8H
	DB	00H
	DB	0f8H
	DB	0fcH
	DB	0f8H
	DB	00H
	DB	0f8H
	DB	0fcH
	DB	0f8H
	DB	00H
	DB	0f8H
	DB	0fcH
	DB	0f8H
	DB	00H
	DB	0f8H
	DB	0fcH
	DB	0f8H
	DB	00H
	DB	0f8H
	DB	0fcH
	DB	0f8H
	DB	00H
	DB	0f8H
	DB	0fcH
	DB	0f8H
	DB	00H
	DB	0f8H
	DB	0fcH
	DB	0f8H
	DB	00H
	DB	0f8H
	DB	0fcH
	DB	0f8H
	DB	00H
	DB	0f8H
	DB	0fcH
	DB	0f8H
	DB	00H
	DB	0f8H
	DB	0fcH
	DB	0f8H
	DB	00H
	DB	0f8H
	DB	0fcH
	DB	0f8H
	DB	00H
	DB	0f8H
	DB	0fcH
	DB	0f8H
	DB	00H
	DB	0f8H
	DB	0fcH
	DB	0f8H
	DB	00H
	DB	0f8H
	DB	0fcH
	DB	0f8H
	DB	00H
	DB	0f8H
	DB	0fcH
	DB	0f8H
	DB	00H
	DB	0f8H
	DB	0fcH
	DB	0f8H
	DB	00H
	DB	0f8H
	DB	0fcH
	DB	0f8H
	DB	00H
	DB	0f8H
	DB	0fcH
	DB	0f8H
	DB	00H
	DB	0f8H
	DB	0fcH
	DB	0f8H
	DB	00H
	DB	0f8H
	DB	0fcH
	DB	0f8H
	DB	00H
	DB	0f8H
	DB	0fcH
	DB	0f8H
	DB	00H
	DB	0f8H
	DB	0fcH
	DB	0f8H
	DB	00H
	DB	0f8H
	DB	0fcH
	DB	0f8H
	DB	00H
	DB	0f8H
	DB	0fcH
	DB	0f8H
	DB	00H
	DB	0f8H
	DB	0fcH
	DB	0f8H
	DB	00H
	DB	0f8H
	DB	0fcH
	DB	0f8H
	DB	00H
	DB	0f8H
	DB	0fcH
	DB	0f8H
	DB	00H
	DB	0f8H
	DB	0fcH
	DB	0f8H
	DB	00H
	DB	0f8H
	DB	0fcH
	DB	0f8H
	DB	00H
	DB	0f8H
	DB	0fcH
	DB	0f8H
	DB	00H
	DB	0f8H
	DB	0fcH
	DB	0f8H
	DB	00H
	DB	0f8H
	DB	0fcH
	DB	0f8H
	DB	00H
	DB	0f8H
	DB	0fcH
	DB	0f8H
	DB	00H
	DB	0f8H
	DB	0fcH
	DB	0f8H
	DB	00H
	DB	0f8H
	DB	0fcH
	DB	0f8H
	DB	00H
	DB	0f8H
	DB	0fcH
	DB	0f8H
	DB	00H
	DB	0f8H
	DB	0fcH
	DB	0f8H
	DB	00H
	DB	0f8H
	DB	0fcH
	DB	0f8H
	DB	00H
	DB	0f8H
	DB	0fcH
	DB	0f8H
	DB	00H
	DB	0f8H
	DB	0fcH
	DB	0f8H
	DB	00H
	DB	0f8H
	DB	0fcH
	DB	0f8H
	DB	00H
	DB	0f8H
	DB	0fcH
	DB	0f8H
	DB	00H
	DB	0f8H
	DB	0fcH
	DB	0f8H
	DB	00H
	DB	0f8H
	DB	0fcH
	DB	0f8H
	DB	00H
	DB	0f8H
	DB	0fcH
	DB	0f8H
	DB	00H
	DB	0f8H
	DB	0fcH
	DB	0f8H
	DB	00H
	DB	0f8H
	DB	0fcH
	DB	0f8H
	DB	00H
	DB	0f8H
	DB	0fcH
	DB	0f8H
	DB	00H
	DB	0f8H
	DB	0fcH
	DB	0f8H
	DB	00H
	DB	0f8H
	DB	0fcH
	DB	0f8H
	DB	00H
	DB	0f8H
	DB	0fcH
	DB	0f8H
	DB	00H
	DB	0f8H
	DB	0fcH
	DB	0f8H
	DB	00H
	DB	0f8H
	DB	0fcH
	DB	0f8H
	DB	00H
	DB	0f8H
	DB	0fcH
	DB	0f8H
	DB	00H
	DB	0f8H
	DB	0fcH
	DB	0f8H
	DB	00H
	DB	0f8H
	DB	0fcH
	DB	0f8H
	DB	00H
	DB	0f8H
	DB	0fcH
	DB	0f8H
	DB	00H
	DB	0f8H
	DB	0fcH
	DB	0f8H
	DB	00H
	DB	0f8H
	DB	0fcH
	DB	0f8H
	DB	00H
	DB	0f8H
	DB	0fcH
	DB	0f8H
	DB	00H
	DB	0f8H
	DB	0fcH
	DB	0f8H
	DB	00H
	DB	0f8H
	DB	0fcH
	DB	0f8H
	DB	00H
	DB	0f8H
	DB	0fcH
	DB	0f8H
	DB	00H
	DB	0f8H
	DB	0fcH
	DB	0f8H
	DB	00H
	DB	0f8H
	DB	0fcH
	DB	0f8H
	DB	00H
	DB	0f8H
	DB	0fcH
	DB	0f8H
	DB	00H
	DB	0f8H
	DB	0fcH
	DB	0f8H
	DB	00H
	DB	0f8H
	DB	0fcH
	DB	0f8H
	DB	00H
	DB	0f8H
	DB	0fcH
	DB	0f8H
	DB	00H
	DB	0f8H
	DB	0fcH
	DB	0f8H
	DB	00H
	DB	0f8H
	DB	0fcH
	DB	0f8H
	DB	00H
	DB	0f8H
	DB	0fcH
	DB	0f8H
	DB	00H
	DB	0f8H
	DB	0fcH
	DB	0f8H
	DB	00H
	DB	0f8H
	DB	0fcH
	DB	0f8H
	DB	00H
	DB	0f8H
	DB	0fcH
	DB	0f8H
	DB	00H
	DB	0f8H
	DB	0fcH
	DB	0f8H
	DB	00H
	DB	0f8H
	DB	0fcH
	DB	0f8H
	DB	00H
	DB	0f8H
	DB	0fcH
	DB	0f8H
	DB	00H
	DB	0f8H
	DB	0fcH
	DB	0f8H
	DB	00H
	DB	0f8H
	DB	0fcH
	DB	0f8H
	DB	00H
	DB	0f8H
	DB	0fcH
	DB	0f8H
	DB	00H
	DB	0f8H
	DB	0fcH
	DB	0f8H
	DB	00H
	DB	0f8H
	DB	0fcH
	DB	0f8H
	DB	00H
	DB	0f8H
	DB	0fcH
	DB	0f8H
	DB	00H
	DB	0f8H
	DB	0fcH
	DB	0f8H
	DB	00H
	DB	0f8H
	DB	0fcH
	DB	0f8H
	DB	00H
	DB	0f8H
	DB	0fcH
	DB	0f8H
	DB	00H
	DB	0f8H
	DB	0fcH
	DB	0f8H
	DB	00H
	DB	0f8H
	DB	0fcH
	DB	0f8H
	DB	00H
	DB	0f8H
	DB	0fcH
	DB	0f8H
	DB	00H
	DB	0f8H
	DB	0fcH
	DB	0f8H
	DB	00H
	DB	0f8H
	DB	0fcH
	DB	0f8H
	DB	00H
	DB	0f8H
	DB	0fcH
	DB	0f8H
	DB	00H
	DB	0f8H
	DB	0fcH
	DB	0f8H
	DB	00H
	DB	0f8H
	DB	0fcH
	DB	0f8H
	DB	00H
	DB	0f8H
	DB	0fcH
	DB	0f8H
	DB	00H
	DB	0f8H
	DB	0fcH
	DB	0f8H
	DB	00H
	DB	0f8H
	DB	0fcH
	DB	0f8H
	DB	00H
	DB	0f8H
	DB	0fcH
	DB	0f8H
	DB	00H
	DB	0f8H
	DB	0fcH
	DB	0f8H
	DB	00H
	DB	0f8H
	DB	0fcH
	DB	0f8H
	DB	00H
	DB	0f8H
	DB	0fcH
	DB	0f8H
	DB	00H
	DB	0f8H
	DB	0fcH
	DB	0f8H
	DB	00H
	DB	0f8H
	DB	0fcH
	DB	0f8H
	DB	00H
	DB	0f8H
	DB	0fcH
	DB	0f8H
	DB	00H
	DB	0f8H
	DB	0fcH
	DB	0f8H
	DB	00H
	DB	0f8H
	DB	0fcH
	DB	0f8H
	DB	00H
	DB	0f8H
	DB	0fcH
	DB	0f8H
	DB	00H
	DB	0f8H
	DB	0fcH
	DB	0f8H
	DB	00H
	DB	0f8H
	DB	0fcH
	DB	0f8H
	DB	00H
	DB	0f8H
	DB	0fcH
	DB	0f8H
	DB	00H
	DB	0f8H
	DB	0fcH
	DB	0f8H
	DB	00H
	DB	0f8H
	DB	0fcH
	DB	0f8H
	DB	00H
	DB	0f8H
	DB	0fcH
	DB	0f8H
	DB	00H
	DB	0f8H
	DB	0fcH
	DB	0f8H
	DB	00H
	DB	0f8H
	DB	0fcH
	DB	0f8H
	DB	00H
	DB	0f8H
	DB	0fcH
	DB	0f8H
	DB	00H
	DB	0f8H
	DB	0fcH
	DB	0f8H
	DB	00H
	DB	0f8H
	DB	0fcH
	DB	0f8H
	DB	00H
	DB	0f8H
	DB	0fcH
	DB	0f8H
	DB	00H
	DB	0f8H
	DB	0fcH
	DB	0f8H
	DB	00H
	DB	0f8H
	DB	0fcH
	DB	0f8H
	DB	00H
	DB	0f8H
	DB	0fcH
	DB	0f8H
	DB	00H
	DB	0f8H
	DB	0fcH
	DB	0f8H
	DB	00H
	DB	0f8H
	DB	0fcH
	DB	0f8H
	DB	00H
	DB	0f8H
	DB	0fcH
	DB	0f8H
	DB	00H
	DB	0f8H
	DB	0fcH
	DB	0f8H
	DB	00H
	DB	0f8H
	DB	0fcH
	DB	0f8H
	DB	00H
	DB	0f8H
	DB	0fcH
	DB	0f8H
	DB	00H
	DB	0f8H
	DB	0fcH
	DB	0f8H
	DB	00H
	DB	0f8H
	DB	0fcH
	DB	0f8H
	DB	00H
	DB	0f8H
	DB	0fcH
	DB	0f8H
	DB	00H
	DB	0f8H
	DB	0fcH
	DB	0f8H
	DB	00H
	DB	0f8H
	DB	0fcH
	DB	0f8H
	DB	00H
	DB	0f8H
	DB	0fcH
	DB	0f8H
	DB	00H
	DB	0f8H
	DB	0fcH
	DB	0f8H
	DB	00H
	DB	0f8H
	DB	0fcH
	DB	0f8H
	DB	00H
	DB	0f8H
	DB	0fcH
	DB	0f8H
	DB	00H
	DB	0f8H
	DB	0fcH
	DB	0f8H
	DB	00H
	DB	0f8H
	DB	0fcH
	DB	0f8H
	DB	00H
	DB	0f8H
	DB	0fcH
	DB	0f8H
	DB	00H
	DB	0f8H
	DB	0fcH
	DB	0f8H
	DB	00H
	DB	0f8H
	DB	0fcH
	DB	0f8H
	DB	00H
	DB	0f8H
	DB	0fcH
	DB	0f8H
	DB	00H
	DB	0f8H
	DB	0fcH
	DB	0f8H
	DB	00H
	DB	0f8H
	DB	0fcH
	DB	0f8H
	DB	00H
	DB	0f8H
	DB	0fcH
	DB	0f8H
	DB	00H
	DB	0f8H
	DB	0fcH
	DB	0f8H
	DB	00H
	DB	0f8H
	DB	0fcH
	DB	0f8H
	DB	00H
	DB	0f8H
	DB	0fcH
	DB	0f8H
	DB	00H
	DB	0f8H
	DB	0fcH
	DB	0f8H
	DB	00H
	DB	0f8H
	DB	0fcH
	DB	0f8H
	DB	00H
	DB	0f8H
	DB	0fcH
	DB	0f8H
	DB	00H
	DB	0f8H
	DB	0fcH
	DB	0f8H
	DB	00H
	DB	0f8H
	DB	0fcH
	DB	0f8H
	DB	00H
	DB	0f8H
	DB	0fcH
	DB	0f8H
	DB	00H
	DB	0f8H
	DB	0fcH
	DB	0f8H
	DB	00H
	DB	0f8H
	DB	0fcH
	DB	0f8H
	DB	00H
	DB	0f8H
	DB	0fcH
	DB	0f8H
	DB	00H
	DB	0f8H
	DB	0fcH
	DB	0f8H
	DB	00H
	DB	0f8H
	DB	0fcH
	DB	0f8H
	DB	00H
	DB	0f8H
	DB	0fcH
	DB	0f8H
	DB	00H
	DB	0f8H
	DB	0fcH
	DB	0f8H
	DB	00H
	DB	0f8H
	DB	0fcH
	DB	0f8H
	DB	00H
	DB	0f8H
	DB	0fcH
	DB	0f8H
	DB	00H
	DB	0f8H
	DB	0fcH
	DB	0f8H
	DB	00H
	DB	0f8H
	DB	0fcH
	DB	0f8H
	DB	00H
	DB	0f8H
	DB	0fcH
	DB	0f8H
	DB	00H
	DB	0f8H
	DB	0fcH
	DB	0f8H
	DB	00H
	DB	0f8H
	DB	0fcH
	DB	0f8H
	DB	00H
	DB	0f8H
	DB	0fcH
	DB	0f8H
	DB	00H
	DB	0f8H
	DB	0fcH
	DB	0f8H
	DB	00H
	DB	0f8H
	DB	0fcH
	DB	0f8H
	DB	00H
	DB	0f8H
	DB	0fcH
	DB	0f8H
	DB	00H
	DB	0f8H
	DB	0fcH
	DB	0f8H
	DB	00H
	DB	0f8H
	DB	0fcH
	DB	0f8H
	DB	00H
	DB	0f8H
	DB	0fcH
	DB	0f8H
	DB	00H
	DB	0f8H
	DB	0fcH
	DB	0f8H
	DB	00H
	DB	0f8H
	DB	0fcH
	DB	0f8H
	DB	00H
	DB	0f8H
	DB	0fcH
	DB	0f8H
	DB	00H
	DB	0f8H
	DB	0fcH
	DB	0f8H
	DB	00H
	DB	0f8H
	DB	0fcH
	DB	0f8H
	DB	00H
	DB	0f8H
	DB	0fcH
	DB	0f8H
	DB	00H
	DB	0f8H
	DB	0fcH
	DB	0f8H
	DB	00H
	DB	0f8H
	DB	0fcH
	DB	0f8H
	DB	00H
	DB	0f8H
	DB	0fcH
	DB	0f8H
	DB	00H
	DB	0f8H
	DB	0fcH
	DB	0f8H
	DB	00H
	DB	0f8H
	DB	0fcH
	DB	0f8H
	DB	00H
	DB	0f8H
	DB	0fcH
	DB	0f8H
	DB	00H
	DB	0f8H
	DB	0fcH
	DB	0f8H
	DB	00H
	DB	0f8H
	DB	0fcH
	DB	0f8H
	DB	00H
	DB	0f8H
	DB	0fcH
	DB	0f8H
	DB	00H
	DB	0f8H
	DB	0fcH
	DB	0f8H
	DB	00H
	DB	0f8H
	DB	0fcH
	DB	0f8H
	DB	00H
	DB	0f8H
	DB	0fcH
	DB	0f8H
	DB	00H
	DB	0f8H
	DB	0fcH
	DB	0f8H
	DB	00H
	DB	0f8H
	DB	0fcH
	DB	0f8H
	DB	00H
	DB	0f8H
	DB	0fcH
	DB	0f8H
	DB	00H
	DB	0f8H
	DB	0fcH
	DB	0f8H
	DB	00H
	DB	0f8H
	DB	0fcH
	DB	0f8H
	DB	00H
	DB	0f8H
	DB	0fcH
	DB	0f8H
	DB	00H
	DB	0f8H
	DB	0fcH
	DB	0f8H
	DB	00H
	DB	0f8H
	DB	0fcH
	DB	0f8H
	DB	00H
	DB	0f8H
	DB	0fcH
	DB	0f8H
	DB	00H
	DB	0f8H
	DB	0fcH
	DB	0f8H
	DB	00H
	DB	0f8H
	DB	0fcH
	DB	0f8H
	DB	00H
	DB	0f8H
	DB	0fcH
	DB	0f8H
	DB	00H
	DB	0f8H
	DB	0fcH
	DB	0f8H
	DB	00H
	DB	0f8H
	DB	0fcH
	DB	0f8H
	DB	00H
	DB	0f8H
	DB	0fcH
	DB	0f8H
	DB	00H
	DB	0f8H
	DB	0fcH
	DB	0f8H
	DB	00H
	DB	0f8H
	DB	0fcH
	DB	0f8H
	DB	00H
	DB	0f8H
	DB	0fcH
	DB	0f8H
	DB	00H
	DB	0f8H
	DB	0fcH
	DB	0f8H
	DB	00H
	DB	0f8H
	DB	0fcH
	DB	0f8H
	DB	00H
	DB	0f8H
	DB	0fcH
	DB	0f8H
	DB	00H
	DB	0f8H
	DB	0fcH
	DB	0f8H
	DB	00H
	DB	0f8H
	DB	0fcH
	DB	0f8H
	DB	00H
	DB	0f8H
	DB	0fcH
	DB	0f8H
	DB	00H
	DB	0f8H
	DB	0fcH
	DB	0f8H
	DB	00H
	DB	0f8H
	DB	0fcH
	DB	0f8H
	DB	00H
	DB	0f8H
	DB	0fcH
	DB	0f8H
	DB	00H
	DB	0f8H
	DB	0fcH
	DB	0f8H
	DB	00H
	DB	0f8H
	DB	0fcH
	DB	0f8H
	DB	00H
	DB	0f8H
	DB	0fcH
	DB	0f8H
	DB	00H
	DB	0f8H
	DB	0fcH
	DB	0f8H
	DB	00H
	DB	0f8H
	DB	0fcH
	DB	0f8H
	DB	00H
	DB	0f8H
	DB	0fcH
	DB	0f8H
	DB	00H
	DB	0f8H
	DB	0fcH
	DB	0f8H
	DB	00H
	DB	0f8H
	DB	0fcH
	DB	0f8H
	DB	00H
	DB	0f8H
	DB	0fcH
	DB	0f8H
	DB	00H
	DB	0f8H
	DB	0fcH
	DB	0f8H
	DB	00H
	DB	0f8H
	DB	0fcH
	DB	0f8H
	DB	00H
	DB	0f8H
	DB	0fcH
	DB	0f8H
	DB	00H
	DB	0f8H
	DB	0fcH
	DB	0f8H
	DB	00H
	DB	0f8H
	DB	0fcH
	DB	0f8H
	DB	00H
	DB	0f8H
	DB	0fcH
	DB	0f8H
	DB	00H
	DB	0f8H
	DB	0fcH
	DB	0f8H
	DB	00H
	DB	0f8H
	DB	0fcH
	DB	0f8H
	DB	00H
	DB	0f8H
	DB	0fcH
	DB	0f8H
	DB	00H
	DB	0f8H
	DB	0fcH
	DB	0f8H
	DB	00H
	DB	0f8H
	DB	0fcH
	DB	0f8H
	DB	00H
	DB	0f8H
	DB	0fcH
	DB	0f8H
	DB	00H
	DB	0f8H
	DB	0fcH
	DB	0f8H
	DB	00H
	DB	0f8H
	DB	0fcH
	DB	0f8H
	DB	00H
	DB	0f8H
	DB	0fcH
	DB	0f8H
	DB	00H
	DB	0f8H
	DB	0fcH
	DB	0f8H
	DB	00H
	DB	0f8H
	DB	0fcH
	DB	0f8H
	DB	00H
	DB	0f8H
	DB	0fcH
	DB	0f8H
	DB	00H
	DB	0f8H
	DB	0fcH
	DB	0f8H
	DB	00H
	DB	0f8H
	DB	0fcH
	DB	0f8H
	DB	00H
	DB	0f8H
	DB	0fcH
	DB	0f8H
	DB	00H
	DB	0f8H
	DB	0fcH
	DB	0f8H
	DB	00H
	DB	0f8H
	DB	0fcH
	DB	0f8H
	DB	00H
	DB	0f8H
	DB	0fcH
	DB	0f8H
	DB	00H
	DB	0f8H
	DB	0fcH
	DB	0f8H
	DB	00H
	DB	0f8H
	DB	0fcH
	DB	0f8H
	DB	00H
	DB	0f8H
	DB	0fcH
	DB	0f8H
	DB	00H
	DB	0f8H
	DB	0fcH
	DB	0f8H
	DB	00H
	DB	0f8H
	DB	0fcH
	DB	0f8H
	DB	00H
	DB	0f8H
	DB	0fcH
	DB	0f8H
	DB	00H
	DB	0f8H
	DB	0fcH
	DB	0f8H
	DB	00H
	DB	0f8H
	DB	0fcH
	DB	0f8H
	DB	00H
	DB	0f8H
	DB	0fcH
	DB	0f8H
	DB	00H
	DB	0f8H
	DB	0fcH
	DB	0f8H
	DB	00H
	DB	0f8H
	DB	0fcH
	DB	0f8H
	DB	00H
	DB	0f8H
	DB	0fcH
	DB	0f8H
	DB	00H
	DB	0f8H
	DB	0fcH
	DB	0f8H
	DB	00H
	DB	0f8H
	DB	0fcH
	DB	0f8H
	DB	00H
	DB	0f8H
	DB	0fcH
	DB	0f8H
	DB	00H
	DB	0f8H
	DB	0fcH
	DB	0f8H
	DB	00H
	DB	0f8H
	DB	0fcH
	DB	0f8H
	DB	00H
	DB	0f8H
	DB	0fcH
	DB	0f8H
	DB	00H
	DB	0f8H
	DB	0fcH
	DB	0f8H
	DB	00H
	DB	0f8H
	DB	0fcH
	DB	0f8H
	DB	00H
	DB	0f8H
	DB	0fcH
	DB	0f8H
	DB	00H
	DB	0f8H
	DB	0fcH
	DB	0f8H
	DB	00H
	DB	0f8H
	DB	0fcH
	DB	0f8H
	DB	00H
	DB	0f8H
	DB	0fcH
	DB	0f8H
	DB	00H
	DB	0f8H
	DB	0fcH
	DB	0f8H
	DB	00H
	DB	0f8H
	DB	0fcH
	DB	0f8H
	DB	00H
	DB	0f8H
	DB	0fcH
	DB	0f8H
	DB	00H
	DB	0f8H
	DB	0fcH
	DB	0f8H
	DB	00H
	DB	0f8H
	DB	0fcH
	DB	0f8H
	DB	00H
	DB	0f8H
	DB	0fcH
	DB	0f8H
	DB	00H
	DB	0f8H
	DB	0fcH
	DB	0f8H
	DB	00H
	DB	0f8H
	DB	0fcH
	DB	0f8H
	DB	00H
	DB	0f8H
	DB	0fcH
	DB	0f8H
	DB	00H
	DB	0f8H
	DB	0fcH
	DB	0f8H
	DB	00H
	DB	0f8H
	DB	0fcH
	DB	0f8H
	DB	00H
	DB	0f8H
	DB	0fcH
	DB	0f8H
	DB	00H
	DB	0f8H
	DB	0fcH
	DB	0f8H
	DB	00H
	DB	0f8H
	DB	0fcH
	DB	0f8H
	DB	00H
	DB	0f8H
	DB	0fcH
	DB	0f8H
	DB	00H
	DB	0f8H
	DB	0fcH
	DB	0f8H
	DB	00H
	DB	0f8H
	DB	0fcH
	DB	0f8H
	DB	00H
	DB	0f8H
	DB	0fcH
	DB	0f8H
	DB	00H
	DB	0f8H
	DB	0fcH
	DB	0f8H
	DB	00H
	DB	0f8H
	DB	0fcH
	DB	0f8H
	DB	00H
	DB	0f8H
	DB	0fcH
	DB	0f8H
	DB	00H
	DB	0f8H
	DB	0fcH
	DB	0f8H
	DB	00H
	DB	0f8H
	DB	0fcH
	DB	0f8H
	DB	00H
	DB	0f8H
	DB	0fcH
	DB	0f8H
	DB	00H
	DB	0f8H
	DB	0fcH
	DB	0f8H
	DB	00H
	DB	0f8H
	DB	0fcH
	DB	0f8H
	DB	00H
	DB	0f8H
	DB	0fcH
	DB	0f8H
	DB	00H
	DB	0f8H
	DB	0fcH
	DB	0f8H
	DB	00H
	DB	0f8H
	DB	0fcH
	DB	0f8H
	DB	00H
	DB	0f8H
	DB	0fcH
	DB	0f8H
	DB	00H
	DB	0f8H
	DB	0fcH
	DB	0f8H
	DB	00H
	DB	0f8H
	DB	0fcH
	DB	0f8H
	DB	00H
	DB	0f8H
	DB	0fcH
	DB	0f8H
	DB	00H
	DB	0f8H
	DB	0fcH
	DB	0f8H
	DB	00H
	DB	0f8H
	DB	0fcH
	DB	0f8H
	DB	00H
	DB	0f8H
	DB	0fcH
	DB	0f8H
	DB	00H
	DB	0f8H
	DB	0fcH
	DB	0f8H
	DB	00H
	DB	0f8H
	DB	0fcH
	DB	0f8H
	DB	00H
	DB	0f8H
	DB	0fcH
	DB	0f8H
	DB	00H
	DB	0f8H
	DB	0fcH
	DB	0f8H
	DB	00H
	DB	0f8H
	DB	0fcH
	DB	0f8H
	DB	00H
	DB	0f8H
	DB	0fcH
	DB	0f8H
	DB	00H
	DB	0f8H
	DB	0fcH
	DB	0f8H
	DB	00H
	DB	0f8H
	DB	0fcH
	DB	0f8H
	DB	00H
	DB	0f8H
	DB	0fcH
	DB	0f8H
	DB	00H
	DB	0f8H
	DB	0fcH
	DB	0f8H
	DB	00H
	DB	0f8H
	DB	0fcH
	DB	0f8H
	DB	00H
	DB	0f8H
	DB	0fcH
	DB	0f8H
	DB	00H
	DB	0f8H
	DB	0fcH
	DB	0f8H
	DB	00H
	DB	0f8H
	DB	0fcH
	DB	0f8H
	DB	00H
	DB	0f8H
	DB	0fcH
	DB	0f8H
	DB	00H
	DB	0f8H
	DB	0fcH
	DB	0f8H
	DB	00H
	DB	0f8H
	DB	0fcH
	DB	0f8H
	DB	00H
	DB	0f8H
	DB	0fcH
	DB	0f8H
	DB	00H
	DB	0f8H
	DB	0fcH
	DB	0f8H
	DB	00H
	DB	0f8H
	DB	0fcH
	DB	0f8H
	DB	00H
	DB	0f8H
	DB	0fcH
	DB	0f8H
	DB	00H
	DB	0f8H
	DB	0fcH
	DB	0f8H
	DB	00H
	DB	0f8H
	DB	0fcH
	DB	0f8H
	DB	00H
	DB	0f8H
	DB	0fcH
	DB	0f8H
	DB	00H
	DB	0f8H
	DB	0fcH
	DB	0f8H
	DB	00H
	DB	0f8H
	DB	0fcH
	DB	0f8H
	DB	00H
	DB	0f8H
	DB	0fcH
	DB	0f8H
	DB	00H
	DB	0f8H
	DB	0fcH
	DB	0f8H
	DB	00H
	DB	0f8H
	DB	0fcH
	DB	0f8H
	DB	00H
	DB	0f8H
	DB	0fcH
	DB	0f8H
	DB	00H
	DB	0f8H
	DB	0fcH
	DB	0f8H
	DB	00H
	DB	0f8H
	DB	0fcH
	DB	0f8H
	DB	00H
	DB	0f8H
	DB	0fcH
	DB	0f8H
	DB	00H
	DB	0f8H
	DB	0fcH
	DB	0f8H
	DB	00H
	DB	0f8H
	DB	0fcH
	DB	0f8H
	DB	00H
	DB	0f8H
	DB	0fcH
	DB	0f8H
	DB	00H
	DB	0f8H
	DB	0fcH
	DB	0f8H
	DB	00H
	DB	0f8H
	DB	0fcH
	DB	0f8H
	DB	00H
	DB	0f8H
	DB	0fcH
	DB	0f8H
	DB	00H
	DB	0f8H
	DB	0fcH
	DB	0f8H
	DB	00H
	DB	0f8H
	DB	0fcH
	DB	0f8H
	DB	00H
	DB	0f8H
	DB	0fcH
	DB	0f8H
	DB	00H
	DB	0f8H
	DB	0fcH
	DB	0f8H
	DB	00H
	DB	0f8H
	DB	0fcH
	DB	0f8H
	DB	00H
	DB	0f8H
	DB	0fcH
	DB	0f8H
	DB	00H
	DB	0f8H
	DB	0fcH
	DB	0f8H
	DB	00H
	DB	0f8H
	DB	0fcH
	DB	0f8H
	DB	00H
	DB	0f8H
	DB	0fcH
	DB	0f8H
	DB	00H
	DB	0f8H
	DB	0fcH
	DB	0f8H
	DB	00H
	DB	0f8H
	DB	0fcH
	DB	0f8H
	DB	00H
	DB	0f8H
	DB	0fcH
	DB	0f8H
	DB	00H
	DB	0f8H
	DB	0fcH
	DB	0f8H
	DB	00H
	DB	0f8H
	DB	0fcH
	DB	0f8H
	DB	00H
	DB	0f8H
	DB	0fcH
	DB	0f8H
	DB	00H
	DB	0f8H
	DB	0fcH
	DB	0f8H
	DB	00H
	DB	0f8H
	DB	0fcH
	DB	0f8H
	DB	00H
	DB	0f8H
	DB	0fcH
	DB	0f8H
	DB	00H
	DB	0f8H
	DB	0fcH
	DB	0f8H
	DB	00H
	DB	0f8H
	DB	0fcH
	DB	0f8H
	DB	00H
	DB	0f8H
	DB	0fcH
	DB	0f8H
	DB	00H
	DB	0f8H
	DB	0fcH
	DB	0f8H
	DB	00H
	DB	0f8H
	DB	0fcH
	DB	0f8H
	DB	00H
	DB	0f8H
	DB	0fcH
	DB	0f8H
	DB	00H
	DB	0f8H
	DB	0fcH
	DB	0f8H
	DB	00H
	DB	0f8H
	DB	0fcH
	DB	0f8H
	DB	00H
	DB	0f8H
	DB	0fcH
	DB	0f8H
	DB	00H
	DB	0f8H
	DB	0fcH
	DB	0f8H
	DB	00H
	DB	0f8H
	DB	0fcH
	DB	0f8H
	DB	00H
	DB	0f8H
	DB	0fcH
	DB	0f8H
	DB	00H
	DB	0f8H
	DB	0fcH
	DB	0f8H
	DB	00H
	DB	0f8H
	DB	0fcH
	DB	0f8H
	DB	00H
	DB	0f8H
	DB	0fcH
	DB	0f8H
	DB	00H
	DB	0f8H
	DB	0fcH
	DB	0f8H
	DB	00H
	DB	0f8H
	DB	0fcH
	DB	0f8H
	DB	00H
	DB	0f8H
	DB	0fcH
	DB	0f8H
	DB	00H
	DB	0f8H
	DB	0fcH
	DB	0f8H
	DB	00H
	DB	0f8H
	DB	0fcH
	DB	0f8H
	DB	00H
	DB	0f8H
	DB	0fcH
	DB	0f8H
	DB	00H
	DB	0f8H
	DB	0fcH
	DB	0f8H
	DB	00H
	DB	0f8H
	DB	0fcH
	DB	0f8H
	DB	00H
	DB	058H
	DB	034H
	DB	00H
	DB	00H
	DB	058H
	DB	034H
	DB	00H
	DB	00H
	DB	050H
	DB	034H
	DB	00H
	DB	00H
	DB	058H
	DB	034H
	DB	00H
	DB	00H
	DB	058H
	DB	034H
	DB	00H
	DB	00H
	DB	050H
	DB	034H
	DB	00H
	DB	00H
	DB	058H
	DB	034H
	DB	00H
	DB	00H
	DB	058H
	DB	034H
	DB	00H
	DB	00H
	DB	050H
	DB	034H
	DB	00H
	DB	00H
	DB	058H
	DB	034H
	DB	00H
	DB	00H
	DB	058H
	DB	034H
	DB	00H
	DB	00H
	DB	050H
	DB	034H
	DB	00H
	DB	00H
	DB	058H
	DB	034H
	DB	00H
	DB	00H
	DB	058H
	DB	034H
	DB	00H
	DB	00H
	DB	050H
	DB	034H
	DB	00H
	DB	00H
	DB	058H
	DB	034H
	DB	00H
	DB	00H
	DB	058H
	DB	034H
	DB	00H
	DB	00H
	DB	050H
	DB	034H
	DB	00H
	DB	00H
	DB	058H
	DB	034H
	DB	00H
	DB	00H
	DB	058H
	DB	034H
	DB	00H
	DB	00H
	DB	050H
	DB	034H
	DB	00H
	DB	00H
	DB	058H
	DB	034H
	DB	00H
	DB	00H
	DB	058H
	DB	034H
	DB	00H
	DB	00H
	DB	050H
	DB	034H
	DB	00H
	DB	00H
	DB	058H
	DB	034H
	DB	00H
	DB	00H
	DB	058H
	DB	034H
	DB	00H
	DB	00H
	DB	050H
	DB	034H
	DB	00H
	DB	00H
	DB	058H
	DB	034H
	DB	00H
	DB	00H
	DB	058H
	DB	034H
	DB	00H
	DB	00H
	DB	050H
	DB	034H
	DB	00H
	DB	00H
	DB	058H
	DB	034H
	DB	00H
	DB	00H
	DB	058H
	DB	034H
	DB	00H
	DB	00H
	DB	050H
	DB	034H
	DB	00H
	DB	00H
	DB	058H
	DB	034H
	DB	00H
	DB	00H
	DB	058H
	DB	034H
	DB	00H
	DB	00H
	DB	050H
	DB	034H
	DB	00H
	DB	00H
	DB	058H
	DB	034H
	DB	00H
	DB	00H
	DB	058H
	DB	034H
	DB	00H
	DB	00H
	DB	050H
	DB	034H
	DB	00H
	DB	00H
	DB	058H
	DB	034H
	DB	00H
	DB	00H
	DB	058H
	DB	034H
	DB	00H
	DB	00H
	DB	050H
	DB	034H
	DB	00H
	DB	00H
	DB	058H
	DB	034H
	DB	00H
	DB	00H
	DB	058H
	DB	034H
	DB	00H
	DB	00H
	DB	050H
	DB	034H
	DB	00H
	DB	00H
	DB	058H
	DB	034H
	DB	00H
	DB	00H
	DB	058H
	DB	034H
	DB	00H
	DB	00H
	DB	050H
	DB	034H
	DB	00H
	DB	00H
	DB	058H
	DB	034H
	DB	00H
	DB	00H
	DB	058H
	DB	034H
	DB	00H
	DB	00H
	DB	050H
	DB	034H
	DB	00H
	DB	00H
	DB	058H
	DB	034H
	DB	00H
	DB	00H
	DB	058H
	DB	034H
	DB	00H
	DB	00H
	DB	050H
	DB	034H
	DB	00H
	DB	00H
	DB	058H
	DB	034H
	DB	00H
	DB	00H
	DB	058H
	DB	034H
	DB	00H
	DB	00H
	DB	050H
	DB	034H
	DB	00H
	DB	00H
	DB	058H
	DB	034H
	DB	00H
	DB	00H
	DB	058H
	DB	034H
	DB	00H
	DB	00H
	DB	050H
	DB	034H
	DB	00H
	DB	00H
	DB	058H
	DB	034H
	DB	00H
	DB	00H
	DB	058H
	DB	034H
	DB	00H
	DB	00H
	DB	050H
	DB	034H
	DB	00H
	DB	00H
	DB	058H
	DB	034H
	DB	00H
	DB	00H
	DB	058H
	DB	034H
	DB	00H
	DB	00H
	DB	050H
	DB	034H
	DB	00H
	DB	00H
	DB	058H
	DB	034H
	DB	00H
	DB	00H
	DB	058H
	DB	034H
	DB	00H
	DB	00H
	DB	050H
	DB	034H
	DB	00H
	DB	00H
	DB	058H
	DB	034H
	DB	00H
	DB	00H
	DB	058H
	DB	034H
	DB	00H
	DB	00H
	DB	050H
	DB	034H
	DB	00H
	DB	00H
	DB	058H
	DB	034H
	DB	00H
	DB	00H
	DB	058H
	DB	034H
	DB	00H
	DB	00H
	DB	050H
	DB	034H
	DB	00H
	DB	00H
	DB	058H
	DB	034H
	DB	00H
	DB	00H
	DB	058H
	DB	034H
	DB	00H
	DB	00H
	DB	050H
	DB	034H
	DB	00H
	DB	00H
	DB	058H
	DB	034H
	DB	00H
	DB	00H
	DB	058H
	DB	034H
	DB	00H
	DB	00H
	DB	050H
	DB	034H
	DB	00H
	DB	00H
	DB	058H
	DB	034H
	DB	00H
	DB	00H
	DB	058H
	DB	034H
	DB	00H
	DB	00H
	DB	050H
	DB	034H
	DB	00H
	DB	00H
	DB	058H
	DB	034H
	DB	00H
	DB	00H
	DB	058H
	DB	034H
	DB	00H
	DB	00H
	DB	050H
	DB	034H
	DB	00H
	DB	00H
	DB	058H
	DB	034H
	DB	00H
	DB	00H
	DB	058H
	DB	034H
	DB	00H
	DB	00H
	DB	050H
	DB	034H
	DB	00H
	DB	00H
	DB	058H
	DB	034H
	DB	00H
	DB	00H
	DB	058H
	DB	034H
	DB	00H
	DB	00H
	DB	050H
	DB	034H
	DB	00H
	DB	00H
	DB	058H
	DB	034H
	DB	00H
	DB	00H
	DB	058H
	DB	034H
	DB	00H
	DB	00H
	DB	050H
	DB	034H
	DB	00H
	DB	00H
	DB	058H
	DB	034H
	DB	00H
	DB	00H
	DB	058H
	DB	034H
	DB	00H
	DB	00H
	DB	050H
	DB	034H
	DB	00H
	DB	00H
	DB	058H
	DB	034H
	DB	00H
	DB	00H
	DB	058H
	DB	034H
	DB	00H
	DB	00H
	DB	050H
	DB	034H
	DB	00H
	DB	00H
	DB	058H
	DB	034H
	DB	00H
	DB	00H
	DB	058H
	DB	034H
	DB	00H
	DB	00H
	DB	050H
	DB	034H
	DB	00H
	DB	00H
	DB	058H
	DB	034H
	DB	00H
	DB	00H
	DB	058H
	DB	034H
	DB	00H
	DB	00H
	DB	050H
	DB	034H
	DB	00H
	DB	00H
	DB	058H
	DB	034H
	DB	00H
	DB	00H
	DB	058H
	DB	034H
	DB	00H
	DB	00H
	DB	050H
	DB	034H
	DB	00H
	DB	00H
	DB	058H
	DB	034H
	DB	00H
	DB	00H
	DB	058H
	DB	034H
	DB	00H
	DB	00H
	DB	050H
	DB	034H
	DB	00H
	DB	00H
	DB	058H
	DB	034H
	DB	00H
	DB	00H
	DB	058H
	DB	034H
	DB	00H
	DB	00H
	DB	050H
	DB	034H
	DB	00H
	DB	00H
	DB	058H
	DB	034H
	DB	00H
	DB	00H
	DB	058H
	DB	034H
	DB	00H
	DB	00H
	DB	050H
	DB	034H
	DB	00H
	DB	00H
	DB	058H
	DB	034H
	DB	00H
	DB	00H
	DB	058H
	DB	034H
	DB	00H
	DB	00H
	DB	050H
	DB	034H
	DB	00H
	DB	00H
	DB	058H
	DB	034H
	DB	00H
	DB	00H
	DB	058H
	DB	034H
	DB	00H
	DB	00H
	DB	050H
	DB	034H
	DB	00H
	DB	00H
	DB	058H
	DB	034H
	DB	00H
	DB	00H
	DB	058H
	DB	034H
	DB	00H
	DB	00H
	DB	050H
	DB	034H
	DB	00H
	DB	00H
	DB	058H
	DB	034H
	DB	00H
	DB	00H
	DB	058H
	DB	034H
	DB	00H
	DB	00H
	DB	050H
	DB	034H
	DB	00H
	DB	00H
	DB	058H
	DB	034H
	DB	00H
	DB	00H
	DB	058H
	DB	034H
	DB	00H
	DB	00H
	DB	050H
	DB	034H
	DB	00H
	DB	00H
	DB	058H
	DB	034H
	DB	00H
	DB	00H
	DB	058H
	DB	034H
	DB	00H
	DB	00H
	DB	050H
	DB	034H
	DB	00H
	DB	00H
	DB	058H
	DB	034H
	DB	00H
	DB	00H
	DB	058H
	DB	034H
	DB	00H
	DB	00H
	DB	050H
	DB	034H
	DB	00H
	DB	00H
	DB	058H
	DB	034H
	DB	00H
	DB	00H
	DB	058H
	DB	034H
	DB	00H
	DB	00H
	DB	050H
	DB	034H
	DB	00H
	DB	00H
	DB	058H
	DB	034H
	DB	00H
	DB	00H
	DB	058H
	DB	034H
	DB	00H
	DB	00H
	DB	050H
	DB	034H
	DB	00H
	DB	00H
	DB	058H
	DB	034H
	DB	00H
	DB	00H
	DB	058H
	DB	034H
	DB	00H
	DB	00H
	DB	050H
	DB	034H
	DB	00H
	DB	00H
	DB	058H
	DB	034H
	DB	00H
	DB	00H
	DB	058H
	DB	034H
	DB	00H
	DB	00H
	DB	050H
	DB	034H
	DB	00H
	DB	00H
	DB	058H
	DB	034H
	DB	00H
	DB	00H
	DB	058H
	DB	034H
	DB	00H
	DB	00H
	DB	050H
	DB	034H
	DB	00H
	DB	00H
	DB	058H
	DB	034H
	DB	00H
	DB	00H
	DB	058H
	DB	034H
	DB	00H
	DB	00H
	DB	050H
	DB	034H
	DB	00H
	DB	00H
	DB	058H
	DB	034H
	DB	00H
	DB	00H
	DB	058H
	DB	034H
	DB	00H
	DB	00H
	DB	050H
	DB	034H
	DB	00H
	DB	00H
	DB	058H
	DB	034H
	DB	00H
	DB	00H
	DB	058H
	DB	034H
	DB	00H
	DB	00H
	DB	050H
	DB	034H
	DB	00H
	DB	00H
	DB	058H
	DB	034H
	DB	00H
	DB	00H
	DB	058H
	DB	034H
	DB	00H
	DB	00H
	DB	050H
	DB	034H
	DB	00H
	DB	00H
	DB	058H
	DB	034H
	DB	00H
	DB	00H
	DB	058H
	DB	034H
	DB	00H
	DB	00H
	DB	050H
	DB	034H
	DB	00H
	DB	00H
	DB	058H
	DB	034H
	DB	00H
	DB	00H
	DB	058H
	DB	034H
	DB	00H
	DB	00H
	DB	050H
	DB	034H
	DB	00H
	DB	00H
	DB	058H
	DB	034H
	DB	00H
	DB	00H
	DB	058H
	DB	034H
	DB	00H
	DB	00H
	DB	050H
	DB	034H
	DB	00H
	DB	00H
	DB	058H
	DB	034H
	DB	00H
	DB	00H
	DB	058H
	DB	034H
	DB	00H
	DB	00H
	DB	050H
	DB	034H
	DB	00H
	DB	00H
	DB	058H
	DB	034H
	DB	00H
	DB	00H
	DB	058H
	DB	034H
	DB	00H
	DB	00H
	DB	050H
	DB	034H
	DB	00H
	DB	00H
	DB	058H
	DB	034H
	DB	00H
	DB	00H
	DB	058H
	DB	034H
	DB	00H
	DB	00H
	DB	050H
	DB	034H
	DB	00H
	DB	00H
	DB	058H
	DB	034H
	DB	00H
	DB	00H
	DB	058H
	DB	034H
	DB	00H
	DB	00H
	DB	050H
	DB	034H
	DB	00H
	DB	00H
	DB	058H
	DB	034H
	DB	00H
	DB	00H
	DB	058H
	DB	034H
	DB	00H
	DB	00H
	DB	050H
	DB	034H
	DB	00H
	DB	00H
	DB	058H
	DB	034H
	DB	00H
	DB	00H
	DB	058H
	DB	034H
	DB	00H
	DB	00H
	DB	050H
	DB	034H
	DB	00H
	DB	00H
	DB	058H
	DB	034H
	DB	00H
	DB	00H
	DB	058H
	DB	034H
	DB	00H
	DB	00H
	DB	050H
	DB	034H
	DB	00H
	DB	00H
	DB	058H
	DB	034H
	DB	00H
	DB	00H
	DB	058H
	DB	034H
	DB	00H
	DB	00H
	DB	050H
	DB	034H
	DB	00H
	DB	00H
	DB	058H
	DB	034H
	DB	00H
	DB	00H
	DB	058H
	DB	034H
	DB	00H
	DB	00H
	DB	050H
	DB	034H
	DB	00H
	DB	00H
	DB	058H
	DB	034H
	DB	00H
	DB	00H
	DB	058H
	DB	034H
	DB	00H
	DB	00H
	DB	050H
	DB	034H
	DB	00H
	DB	00H
	DB	058H
	DB	034H
	DB	00H
	DB	00H
	DB	058H
	DB	034H
	DB	00H
	DB	00H
	DB	050H
	DB	034H
	DB	00H
	DB	00H
	DB	058H
	DB	034H
	DB	00H
	DB	00H
	DB	058H
	DB	034H
	DB	00H
	DB	00H
	DB	050H
	DB	034H
	DB	00H
	DB	00H
	DB	058H
	DB	034H
	DB	00H
	DB	00H
	DB	058H
	DB	034H
	DB	00H
	DB	00H
	DB	050H
	DB	034H
	DB	00H
	DB	00H
	DB	058H
	DB	034H
	DB	00H
	DB	00H
	DB	058H
	DB	034H
	DB	00H
	DB	00H
	DB	050H
	DB	034H
	DB	00H
	DB	00H
	DB	058H
	DB	034H
	DB	00H
	DB	00H
	DB	058H
	DB	034H
	DB	00H
	DB	00H
	DB	050H
	DB	034H
	DB	00H
	DB	00H
	DB	058H
	DB	034H
	DB	00H
	DB	00H
	DB	058H
	DB	034H
	DB	00H
	DB	00H
	DB	050H
	DB	034H
	DB	00H
	DB	00H
	DB	058H
	DB	034H
	DB	00H
	DB	00H
	DB	058H
	DB	034H
	DB	00H
	DB	00H
	DB	050H
	DB	034H
	DB	00H
	DB	00H
	DB	058H
	DB	034H
	DB	00H
	DB	00H
	DB	058H
	DB	034H
	DB	00H
	DB	00H
	DB	050H
	DB	034H
	DB	00H
	DB	00H
	DB	058H
	DB	034H
	DB	00H
	DB	00H
	DB	058H
	DB	034H
	DB	00H
	DB	00H
	DB	050H
	DB	034H
	DB	00H
	DB	00H
	DB	058H
	DB	034H
	DB	00H
	DB	00H
	DB	058H
	DB	034H
	DB	00H
	DB	00H
	DB	050H
	DB	034H
	DB	00H
	DB	00H
	DB	058H
	DB	034H
	DB	00H
	DB	00H
	DB	058H
	DB	034H
	DB	00H
	DB	00H
	DB	050H
	DB	034H
	DB	00H
	DB	00H
	DB	058H
	DB	034H
	DB	00H
	DB	00H
	DB	058H
	DB	034H
	DB	00H
	DB	00H
	DB	050H
	DB	034H
	DB	00H
	DB	00H
	DB	058H
	DB	034H
	DB	00H
	DB	00H
	DB	058H
	DB	034H
	DB	00H
	DB	00H
	DB	050H
	DB	034H
	DB	00H
	DB	00H
	DB	058H
	DB	034H
	DB	00H
	DB	00H
	DB	058H
	DB	034H
	DB	00H
	DB	00H
	DB	050H
	DB	034H
	DB	00H
	DB	00H
	DB	058H
	DB	034H
	DB	00H
	DB	00H
	DB	058H
	DB	034H
	DB	00H
	DB	00H
	DB	050H
	DB	034H
	DB	00H
	DB	00H
	DB	058H
	DB	034H
	DB	00H
	DB	00H
	DB	058H
	DB	034H
	DB	00H
	DB	00H
	DB	050H
	DB	034H
	DB	00H
	DB	00H
	DB	058H
	DB	034H
	DB	00H
	DB	00H
	DB	058H
	DB	034H
	DB	00H
	DB	00H
	DB	050H
	DB	034H
	DB	00H
	DB	00H
	DB	058H
	DB	034H
	DB	00H
	DB	00H
	DB	058H
	DB	034H
	DB	00H
	DB	00H
	DB	050H
	DB	034H
	DB	00H
	DB	00H
	DB	058H
	DB	034H
	DB	00H
	DB	00H
	DB	058H
	DB	034H
	DB	00H
	DB	00H
	DB	050H
	DB	034H
	DB	00H
	DB	00H
	DB	058H
	DB	034H
	DB	00H
	DB	00H
	DB	058H
	DB	034H
	DB	00H
	DB	00H
	DB	050H
	DB	034H
	DB	00H
	DB	00H
	DB	058H
	DB	034H
	DB	00H
	DB	00H
	DB	058H
	DB	034H
	DB	00H
	DB	00H
	DB	050H
	DB	034H
	DB	00H
	DB	00H
	DB	058H
	DB	034H
	DB	00H
	DB	00H
	DB	058H
	DB	034H
	DB	00H
	DB	00H
	DB	050H
	DB	034H
	DB	00H
	DB	00H
	DB	058H
	DB	034H
	DB	00H
	DB	00H
	DB	058H
	DB	034H
	DB	00H
	DB	00H
	DB	050H
	DB	034H
	DB	00H
	DB	00H
	DB	058H
	DB	034H
	DB	00H
	DB	00H
	DB	058H
	DB	034H
	DB	00H
	DB	00H
	DB	050H
	DB	034H
	DB	00H
	DB	00H
	DB	058H
	DB	034H
	DB	00H
	DB	00H
	DB	058H
	DB	034H
	DB	00H
	DB	00H
	DB	050H
	DB	034H
	DB	00H
	DB	00H
	DB	058H
	DB	034H
	DB	00H
	DB	00H
	DB	058H
	DB	034H
	DB	00H
	DB	00H
	DB	050H
	DB	034H
	DB	00H
	DB	00H
	DB	058H
	DB	034H
	DB	00H
	DB	00H
	DB	058H
	DB	034H
	DB	00H
	DB	00H
	DB	050H
	DB	034H
	DB	00H
	DB	00H
	DB	058H
	DB	034H
	DB	00H
	DB	00H
	DB	058H
	DB	034H
	DB	00H
	DB	00H
	DB	050H
	DB	034H
	DB	00H
	DB	00H
	DB	058H
	DB	034H
	DB	00H
	DB	00H
	DB	058H
	DB	034H
	DB	00H
	DB	00H
	DB	050H
	DB	034H
	DB	00H
	DB	00H
	DB	058H
	DB	034H
	DB	00H
	DB	00H
	DB	058H
	DB	034H
	DB	00H
	DB	00H
	DB	050H
	DB	034H
	DB	00H
	DB	00H
	DB	058H
	DB	034H
	DB	00H
	DB	00H
	DB	058H
	DB	034H
	DB	00H
	DB	00H
	DB	050H
	DB	034H
	DB	00H
	DB	00H
	DB	058H
	DB	034H
	DB	00H
	DB	00H
	DB	058H
	DB	034H
	DB	00H
	DB	00H
	DB	050H
	DB	034H
	DB	00H
	DB	00H
	DB	058H
	DB	034H
	DB	00H
	DB	00H
	DB	058H
	DB	034H
	DB	00H
	DB	00H
	DB	050H
	DB	034H
	DB	00H
	DB	00H
	DB	058H
	DB	034H
	DB	00H
	DB	00H
	DB	058H
	DB	034H
	DB	00H
	DB	00H
	DB	050H
	DB	034H
	DB	00H
	DB	00H
	DB	058H
	DB	034H
	DB	00H
	DB	00H
	DB	058H
	DB	034H
	DB	00H
	DB	00H
	DB	050H
	DB	034H
	DB	00H
	DB	00H
	DB	058H
	DB	034H
	DB	00H
	DB	00H
	DB	058H
	DB	034H
	DB	00H
	DB	00H
	DB	050H
	DB	034H
	DB	00H
	DB	00H
	DB	058H
	DB	034H
	DB	00H
	DB	00H
	DB	058H
	DB	034H
	DB	00H
	DB	00H
	DB	050H
	DB	034H
	DB	00H
	DB	00H
	DB	058H
	DB	034H
	DB	00H
	DB	00H
	DB	058H
	DB	034H
	DB	00H
	DB	00H
	DB	050H
	DB	034H
	DB	00H
	DB	00H
	DB	058H
	DB	034H
	DB	00H
	DB	00H
	DB	058H
	DB	034H
	DB	00H
	DB	00H
	DB	050H
	DB	034H
	DB	00H
	DB	00H
	DB	058H
	DB	034H
	DB	00H
	DB	00H
	DB	058H
	DB	034H
	DB	00H
	DB	00H
	DB	050H
	DB	034H
	DB	00H
	DB	00H
	DB	058H
	DB	034H
	DB	00H
	DB	00H
	DB	058H
	DB	034H
	DB	00H
	DB	00H
	DB	050H
	DB	034H
	DB	00H
	DB	00H
	DB	058H
	DB	034H
	DB	00H
	DB	00H
	DB	058H
	DB	034H
	DB	00H
	DB	00H
	DB	050H
	DB	034H
	DB	00H
	DB	00H
	DB	058H
	DB	034H
	DB	00H
	DB	00H
	DB	058H
	DB	034H
	DB	00H
	DB	00H
	DB	050H
	DB	034H
	DB	00H
	DB	00H
	DB	058H
	DB	034H
	DB	00H
	DB	00H
	DB	058H
	DB	034H
	DB	00H
	DB	00H
	DB	050H
	DB	034H
	DB	00H
	DB	00H
	DB	058H
	DB	034H
	DB	00H
	DB	00H
	DB	058H
	DB	034H
	DB	00H
	DB	00H
	DB	050H
	DB	034H
	DB	00H
	DB	00H
	DB	058H
	DB	034H
	DB	00H
	DB	00H
	DB	058H
	DB	034H
	DB	00H
	DB	00H
	DB	050H
	DB	034H
	DB	00H
	DB	00H
	DB	058H
	DB	034H
	DB	00H
	DB	00H
	DB	058H
	DB	034H
	DB	00H
	DB	00H
	DB	050H
	DB	034H
	DB	00H
	DB	00H
	DB	058H
	DB	034H
	DB	00H
	DB	00H
	DB	058H
	DB	034H
	DB	00H
	DB	00H
	DB	050H
	DB	034H
	DB	00H
	DB	00H
	DB	058H
	DB	034H
	DB	00H
	DB	00H
	DB	058H
	DB	034H
	DB	00H
	DB	00H
	DB	050H
	DB	034H
	DB	00H
	DB	00H
	DB	058H
	DB	034H
	DB	00H
	DB	00H
	DB	058H
	DB	034H
	DB	00H
	DB	00H
	DB	050H
	DB	034H
	DB	00H
	DB	00H
	DB	058H
	DB	034H
	DB	00H
	DB	00H
	DB	058H
	DB	034H
	DB	00H
	DB	00H
	DB	050H
	DB	034H
	DB	00H
	DB	00H
	DB	058H
	DB	034H
	DB	00H
	DB	00H
	DB	058H
	DB	034H
	DB	00H
	DB	00H
	DB	050H
	DB	034H
	DB	00H
	DB	00H
	DB	058H
	DB	034H
	DB	00H
	DB	00H
	DB	058H
	DB	034H
	DB	00H
	DB	00H
	DB	050H
	DB	034H
	DB	00H
	DB	00H
	DB	058H
	DB	034H
	DB	00H
	DB	00H
	DB	058H
	DB	034H
	DB	00H
	DB	00H
	DB	050H
	DB	034H
	DB	00H
	DB	00H
	DB	058H
	DB	034H
	DB	00H
	DB	00H
	DB	058H
	DB	034H
	DB	00H
	DB	00H
	DB	050H
	DB	034H
	DB	00H
	DB	00H
	DB	058H
	DB	034H
	DB	00H
	DB	00H
	DB	058H
	DB	034H
	DB	00H
	DB	00H
	DB	050H
	DB	034H
	DB	00H
	DB	00H
	DB	058H
	DB	034H
	DB	00H
	DB	00H
	DB	058H
	DB	034H
	DB	00H
	DB	00H
	DB	0f8H
	DB	0fcH
	DB	0f8H
	DB	00H
	DB	0f8H
	DB	0fcH
	DB	0f8H
	DB	00H
	DB	0f8H
	DB	0fcH
	DB	0f8H
	DB	00H
	DB	050H
	DB	034H
	DB	00H
	DB	00H
	DB	058H
	DB	030H
	DB	00H
	DB	00H
	DB	058H
	DB	034H
	DB	00H
	DB	00H
	DB	050H
	DB	030H
	DB	00H
	DB	00H
	DB	058H
	DB	034H
	DB	00H
	DB	00H
	DB	058H
	DB	030H
	DB	00H
	DB	00H
	DB	050H
	DB	034H
	DB	00H
	DB	00H
	DB	058H
	DB	030H
	DB	00H
	DB	00H
	DB	058H
	DB	034H
	DB	00H
	DB	00H
	DB	050H
	DB	030H
	DB	00H
	DB	00H
	DB	058H
	DB	034H
	DB	00H
	DB	00H
	DB	058H
	DB	030H
	DB	00H
	DB	00H
	DB	050H
	DB	034H
	DB	00H
	DB	00H
	DB	058H
	DB	030H
	DB	00H
	DB	00H
	DB	058H
	DB	034H
	DB	00H
	DB	00H
	DB	050H
	DB	030H
	DB	00H
	DB	00H
	DB	058H
	DB	034H
	DB	00H
	DB	00H
	DB	058H
	DB	030H
	DB	00H
	DB	00H
	DB	050H
	DB	034H
	DB	00H
	DB	00H
	DB	058H
	DB	030H
	DB	00H
	DB	04H
	DB	058H
	DB	034H
	DB	00H
	DB	00H
	DB	050H
	DB	030H
	DB	00H
	DB	00H
	DB	058H
	DB	034H
	DB	00H
	DB	04H
	DB	058H
	DB	030H
	DB	00H
	DB	00H
	DB	050H
	DB	034H
	DB	00H
	DB	00H
	DB	058H
	DB	030H
	DB	00H
	DB	04H
	DB	058H
	DB	034H
	DB	00H
	DB	00H
	DB	050H
	DB	030H
	DB	00H
	DB	00H
	DB	058H
	DB	034H
	DB	00H
	DB	04H
	DB	058H
	DB	030H
	DB	00H
	DB	00H
	DB	050H
	DB	034H
	DB	00H
	DB	00H
	DB	058H
	DB	030H
	DB	00H
	DB	04H
	DB	058H
	DB	034H
	DB	00H
	DB	00H
	DB	050H
	DB	030H
	DB	00H
	DB	00H
	DB	058H
	DB	034H
	DB	00H
	DB	04H
	DB	058H
	DB	030H
	DB	00H
	DB	00H
	DB	050H
	DB	034H
	DB	00H
	DB	00H
	DB	058H
	DB	030H
	DB	00H
	DB	04H
	DB	058H
	DB	034H
	DB	00H
	DB	00H
	DB	050H
	DB	030H
	DB	00H
	DB	00H
	DB	058H
	DB	034H
	DB	00H
	DB	04H
	DB	058H
	DB	030H
	DB	00H
	DB	00H
	DB	050H
	DB	034H
	DB	00H
	DB	00H
	DB	058H
	DB	030H
	DB	00H
	DB	04H
	DB	058H
	DB	034H
	DB	00H
	DB	00H
	DB	050H
	DB	030H
	DB	00H
	DB	00H
	DB	058H
	DB	034H
	DB	00H
	DB	04H
	DB	058H
	DB	030H
	DB	00H
	DB	00H
	DB	050H
	DB	034H
	DB	00H
	DB	00H
	DB	058H
	DB	030H
	DB	00H
	DB	04H
	DB	058H
	DB	034H
	DB	00H
	DB	00H
	DB	050H
	DB	030H
	DB	00H
	DB	00H
	DB	058H
	DB	034H
	DB	00H
	DB	04H
	DB	058H
	DB	030H
	DB	00H
	DB	00H
	DB	050H
	DB	034H
	DB	00H
	DB	00H
	DB	058H
	DB	030H
	DB	00H
	DB	04H
	DB	058H
	DB	034H
	DB	00H
	DB	00H
	DB	050H
	DB	030H
	DB	00H
	DB	00H
	DB	058H
	DB	034H
	DB	00H
	DB	04H
	DB	058H
	DB	030H
	DB	00H
	DB	00H
	DB	050H
	DB	034H
	DB	00H
	DB	00H
	DB	058H
	DB	030H
	DB	00H
	DB	04H
	DB	058H
	DB	034H
	DB	00H
	DB	00H
	DB	050H
	DB	030H
	DB	00H
	DB	00H
	DB	058H
	DB	034H
	DB	00H
	DB	04H
	DB	058H
	DB	030H
	DB	00H
	DB	00H
	DB	050H
	DB	034H
	DB	00H
	DB	00H
	DB	058H
	DB	030H
	DB	00H
	DB	04H
	DB	058H
	DB	034H
	DB	00H
	DB	00H
	DB	050H
	DB	030H
	DB	00H
	DB	00H
	DB	058H
	DB	034H
	DB	00H
	DB	04H
	DB	058H
	DB	030H
	DB	00H
	DB	00H
	DB	050H
	DB	034H
	DB	00H
	DB	00H
	DB	058H
	DB	030H
	DB	00H
	DB	04H
	DB	058H
	DB	034H
	DB	00H
	DB	00H
	DB	050H
	DB	030H
	DB	00H
	DB	00H
	DB	058H
	DB	034H
	DB	00H
	DB	04H
	DB	058H
	DB	030H
	DB	00H
	DB	00H
	DB	050H
	DB	034H
	DB	00H
	DB	00H
	DB	058H
	DB	030H
	DB	00H
	DB	04H
	DB	058H
	DB	034H
	DB	00H
	DB	00H
	DB	050H
	DB	030H
	DB	00H
	DB	00H
	DB	058H
	DB	034H
	DB	00H
	DB	04H
	DB	058H
	DB	030H
	DB	00H
	DB	00H
	DB	050H
	DB	034H
	DB	00H
	DB	00H
	DB	058H
	DB	030H
	DB	00H
	DB	04H
	DB	058H
	DB	034H
	DB	00H
	DB	00H
	DB	050H
	DB	030H
	DB	00H
	DB	00H
	DB	058H
	DB	034H
	DB	00H
	DB	04H
	DB	058H
	DB	030H
	DB	00H
	DB	00H
	DB	050H
	DB	034H
	DB	00H
	DB	00H
	DB	058H
	DB	030H
	DB	00H
	DB	04H
	DB	058H
	DB	034H
	DB	00H
	DB	00H
	DB	050H
	DB	030H
	DB	00H
	DB	00H
	DB	058H
	DB	034H
	DB	00H
	DB	04H
	DB	058H
	DB	030H
	DB	00H
	DB	00H
	DB	050H
	DB	034H
	DB	00H
	DB	00H
	DB	058H
	DB	030H
	DB	00H
	DB	04H
	DB	058H
	DB	034H
	DB	00H
	DB	00H
	DB	050H
	DB	030H
	DB	00H
	DB	00H
	DB	058H
	DB	034H
	DB	00H
	DB	04H
	DB	058H
	DB	030H
	DB	00H
	DB	00H
	DB	050H
	DB	034H
	DB	00H
	DB	00H
	DB	058H
	DB	030H
	DB	00H
	DB	04H
	DB	058H
	DB	034H
	DB	00H
	DB	00H
	DB	050H
	DB	030H
	DB	00H
	DB	00H
	DB	058H
	DB	034H
	DB	00H
	DB	04H
	DB	058H
	DB	030H
	DB	00H
	DB	00H
	DB	050H
	DB	034H
	DB	00H
	DB	00H
	DB	058H
	DB	030H
	DB	00H
	DB	04H
	DB	058H
	DB	034H
	DB	00H
	DB	00H
	DB	050H
	DB	030H
	DB	00H
	DB	00H
	DB	058H
	DB	034H
	DB	00H
	DB	04H
	DB	058H
	DB	030H
	DB	00H
	DB	00H
	DB	050H
	DB	034H
	DB	00H
	DB	00H
	DB	058H
	DB	030H
	DB	00H
	DB	04H
	DB	058H
	DB	034H
	DB	00H
	DB	00H
	DB	050H
	DB	030H
	DB	00H
	DB	00H
	DB	058H
	DB	034H
	DB	00H
	DB	04H
	DB	058H
	DB	030H
	DB	00H
	DB	00H
	DB	050H
	DB	034H
	DB	00H
	DB	00H
	DB	058H
	DB	030H
	DB	00H
	DB	04H
	DB	058H
	DB	034H
	DB	00H
	DB	00H
	DB	050H
	DB	030H
	DB	00H
	DB	00H
	DB	058H
	DB	034H
	DB	00H
	DB	04H
	DB	058H
	DB	030H
	DB	00H
	DB	00H
	DB	050H
	DB	034H
	DB	00H
	DB	00H
	DB	058H
	DB	030H
	DB	00H
	DB	04H
	DB	058H
	DB	034H
	DB	00H
	DB	00H
	DB	050H
	DB	030H
	DB	00H
	DB	00H
	DB	058H
	DB	034H
	DB	00H
	DB	04H
	DB	058H
	DB	030H
	DB	00H
	DB	00H
	DB	050H
	DB	034H
	DB	00H
	DB	00H
	DB	058H
	DB	030H
	DB	00H
	DB	04H
	DB	058H
	DB	034H
	DB	00H
	DB	00H
	DB	050H
	DB	030H
	DB	00H
	DB	00H
	DB	058H
	DB	034H
	DB	00H
	DB	04H
	DB	058H
	DB	030H
	DB	00H
	DB	00H
	DB	050H
	DB	034H
	DB	00H
	DB	00H
	DB	058H
	DB	030H
	DB	00H
	DB	04H
	DB	058H
	DB	034H
	DB	00H
	DB	00H
	DB	050H
	DB	030H
	DB	00H
	DB	00H
	DB	058H
	DB	034H
	DB	00H
	DB	04H
	DB	058H
	DB	030H
	DB	00H
	DB	00H
	DB	050H
	DB	034H
	DB	00H
	DB	00H
	DB	058H
	DB	030H
	DB	00H
	DB	04H
	DB	058H
	DB	034H
	DB	00H
	DB	00H
	DB	050H
	DB	030H
	DB	00H
	DB	00H
	DB	058H
	DB	034H
	DB	00H
	DB	04H
	DB	058H
	DB	030H
	DB	00H
	DB	00H
	DB	050H
	DB	034H
	DB	00H
	DB	00H
	DB	058H
	DB	030H
	DB	00H
	DB	04H
	DB	058H
	DB	034H
	DB	00H
	DB	00H
	DB	050H
	DB	030H
	DB	00H
	DB	00H
	DB	058H
	DB	034H
	DB	00H
	DB	04H
	DB	058H
	DB	030H
	DB	00H
	DB	00H
	DB	050H
	DB	034H
	DB	00H
	DB	00H
	DB	058H
	DB	030H
	DB	00H
	DB	04H
	DB	058H
	DB	034H
	DB	00H
	DB	00H
	DB	050H
	DB	030H
	DB	00H
	DB	00H
	DB	058H
	DB	034H
	DB	00H
	DB	04H
	DB	058H
	DB	030H
	DB	00H
	DB	00H
	DB	050H
	DB	034H
	DB	00H
	DB	00H
	DB	058H
	DB	030H
	DB	00H
	DB	04H
	DB	058H
	DB	034H
	DB	00H
	DB	00H
	DB	050H
	DB	030H
	DB	00H
	DB	00H
	DB	058H
	DB	034H
	DB	00H
	DB	04H
	DB	058H
	DB	030H
	DB	00H
	DB	00H
	DB	050H
	DB	034H
	DB	00H
	DB	00H
	DB	058H
	DB	030H
	DB	00H
	DB	04H
	DB	058H
	DB	034H
	DB	00H
	DB	00H
	DB	050H
	DB	030H
	DB	00H
	DB	00H
	DB	058H
	DB	034H
	DB	00H
	DB	04H
	DB	058H
	DB	030H
	DB	00H
	DB	00H
	DB	050H
	DB	034H
	DB	00H
	DB	00H
	DB	058H
	DB	030H
	DB	00H
	DB	04H
	DB	058H
	DB	034H
	DB	00H
	DB	00H
	DB	050H
	DB	030H
	DB	00H
	DB	00H
	DB	058H
	DB	034H
	DB	00H
	DB	04H
	DB	058H
	DB	030H
	DB	00H
	DB	00H
	DB	050H
	DB	034H
	DB	00H
	DB	00H
	DB	058H
	DB	030H
	DB	00H
	DB	04H
	DB	058H
	DB	034H
	DB	00H
	DB	00H
	DB	050H
	DB	030H
	DB	00H
	DB	00H
	DB	058H
	DB	034H
	DB	00H
	DB	04H
	DB	058H
	DB	030H
	DB	00H
	DB	00H
	DB	050H
	DB	034H
	DB	00H
	DB	00H
	DB	058H
	DB	030H
	DB	00H
	DB	04H
	DB	058H
	DB	034H
	DB	00H
	DB	00H
	DB	050H
	DB	030H
	DB	00H
	DB	00H
	DB	058H
	DB	034H
	DB	00H
	DB	04H
	DB	058H
	DB	030H
	DB	00H
	DB	00H
	DB	050H
	DB	034H
	DB	00H
	DB	00H
	DB	058H
	DB	030H
	DB	00H
	DB	04H
	DB	058H
	DB	034H
	DB	00H
	DB	00H
	DB	050H
	DB	030H
	DB	00H
	DB	00H
	DB	058H
	DB	034H
	DB	00H
	DB	04H
	DB	058H
	DB	030H
	DB	00H
	DB	00H
	DB	050H
	DB	034H
	DB	00H
	DB	00H
	DB	058H
	DB	030H
	DB	00H
	DB	04H
	DB	058H
	DB	034H
	DB	00H
	DB	00H
	DB	050H
	DB	030H
	DB	00H
	DB	00H
	DB	058H
	DB	034H
	DB	00H
	DB	04H
	DB	058H
	DB	030H
	DB	00H
	DB	00H
	DB	050H
	DB	034H
	DB	00H
	DB	00H
	DB	058H
	DB	030H
	DB	00H
	DB	04H
	DB	058H
	DB	034H
	DB	00H
	DB	00H
	DB	050H
	DB	030H
	DB	00H
	DB	00H
	DB	058H
	DB	034H
	DB	00H
	DB	04H
	DB	058H
	DB	030H
	DB	00H
	DB	00H
	DB	050H
	DB	034H
	DB	00H
	DB	00H
	DB	058H
	DB	030H
	DB	00H
	DB	04H
	DB	058H
	DB	034H
	DB	00H
	DB	00H
	DB	050H
	DB	030H
	DB	00H
	DB	00H
	DB	058H
	DB	034H
	DB	00H
	DB	04H
	DB	058H
	DB	030H
	DB	00H
	DB	00H
	DB	050H
	DB	034H
	DB	00H
	DB	00H
	DB	058H
	DB	030H
	DB	00H
	DB	04H
	DB	058H
	DB	034H
	DB	00H
	DB	00H
	DB	050H
	DB	030H
	DB	00H
	DB	00H
	DB	058H
	DB	034H
	DB	00H
	DB	04H
	DB	058H
	DB	030H
	DB	00H
	DB	00H
	DB	050H
	DB	034H
	DB	00H
	DB	00H
	DB	058H
	DB	030H
	DB	00H
	DB	04H
	DB	058H
	DB	034H
	DB	00H
	DB	00H
	DB	050H
	DB	030H
	DB	00H
	DB	00H
	DB	058H
	DB	034H
	DB	00H
	DB	04H
	DB	058H
	DB	030H
	DB	00H
	DB	00H
	DB	050H
	DB	034H
	DB	00H
	DB	00H
	DB	058H
	DB	030H
	DB	00H
	DB	04H
	DB	058H
	DB	034H
	DB	00H
	DB	00H
	DB	050H
	DB	030H
	DB	00H
	DB	00H
	DB	058H
	DB	034H
	DB	00H
	DB	04H
	DB	058H
	DB	030H
	DB	00H
	DB	00H
	DB	050H
	DB	034H
	DB	00H
	DB	00H
	DB	058H
	DB	030H
	DB	00H
	DB	04H
	DB	058H
	DB	034H
	DB	00H
	DB	00H
	DB	050H
	DB	030H
	DB	00H
	DB	00H
	DB	058H
	DB	034H
	DB	00H
	DB	04H
	DB	058H
	DB	030H
	DB	00H
	DB	00H
	DB	050H
	DB	034H
	DB	00H
	DB	00H
	DB	058H
	DB	030H
	DB	00H
	DB	04H
	DB	058H
	DB	034H
	DB	00H
	DB	00H
	DB	050H
	DB	030H
	DB	00H
	DB	00H
	DB	058H
	DB	034H
	DB	00H
	DB	04H
	DB	058H
	DB	030H
	DB	00H
	DB	00H
	DB	050H
	DB	034H
	DB	00H
	DB	00H
	DB	058H
	DB	030H
	DB	00H
	DB	04H
	DB	058H
	DB	034H
	DB	00H
	DB	00H
	DB	050H
	DB	030H
	DB	00H
	DB	00H
	DB	058H
	DB	034H
	DB	00H
	DB	04H
	DB	058H
	DB	030H
	DB	00H
	DB	00H
	DB	050H
	DB	034H
	DB	00H
	DB	00H
	DB	058H
	DB	030H
	DB	00H
	DB	04H
	DB	058H
	DB	034H
	DB	00H
	DB	00H
	DB	050H
	DB	030H
	DB	00H
	DB	00H
	DB	058H
	DB	034H
	DB	00H
	DB	04H
	DB	058H
	DB	030H
	DB	00H
	DB	00H
	DB	050H
	DB	034H
	DB	00H
	DB	00H
	DB	058H
	DB	030H
	DB	00H
	DB	04H
	DB	058H
	DB	034H
	DB	00H
	DB	00H
	DB	050H
	DB	030H
	DB	00H
	DB	00H
	DB	058H
	DB	034H
	DB	00H
	DB	04H
	DB	058H
	DB	030H
	DB	00H
	DB	00H
	DB	050H
	DB	034H
	DB	00H
	DB	00H
	DB	058H
	DB	030H
	DB	00H
	DB	04H
	DB	058H
	DB	034H
	DB	00H
	DB	00H
	DB	050H
	DB	030H
	DB	00H
	DB	00H
	DB	058H
	DB	034H
	DB	00H
	DB	04H
	DB	058H
	DB	030H
	DB	00H
	DB	00H
	DB	050H
	DB	034H
	DB	00H
	DB	00H
	DB	058H
	DB	030H
	DB	00H
	DB	04H
	DB	058H
	DB	034H
	DB	00H
	DB	00H
	DB	050H
	DB	030H
	DB	00H
	DB	00H
	DB	058H
	DB	034H
	DB	00H
	DB	04H
	DB	058H
	DB	030H
	DB	00H
	DB	00H
	DB	050H
	DB	034H
	DB	00H
	DB	00H
	DB	058H
	DB	030H
	DB	00H
	DB	04H
	DB	058H
	DB	034H
	DB	00H
	DB	00H
	DB	050H
	DB	030H
	DB	00H
	DB	00H
	DB	058H
	DB	034H
	DB	00H
	DB	04H
	DB	058H
	DB	030H
	DB	00H
	DB	00H
	DB	050H
	DB	034H
	DB	00H
	DB	00H
	DB	058H
	DB	030H
	DB	00H
	DB	04H
	DB	058H
	DB	034H
	DB	00H
	DB	00H
	DB	050H
	DB	030H
	DB	00H
	DB	00H
	DB	058H
	DB	034H
	DB	00H
	DB	04H
	DB	058H
	DB	030H
	DB	00H
	DB	00H
	DB	050H
	DB	034H
	DB	00H
	DB	00H
	DB	058H
	DB	030H
	DB	00H
	DB	04H
	DB	058H
	DB	034H
	DB	00H
	DB	00H
	DB	050H
	DB	030H
	DB	00H
	DB	00H
	DB	058H
	DB	034H
	DB	00H
	DB	04H
	DB	058H
	DB	030H
	DB	00H
	DB	00H
	DB	050H
	DB	034H
	DB	00H
	DB	00H
	DB	058H
	DB	030H
	DB	00H
	DB	04H
	DB	058H
	DB	034H
	DB	00H
	DB	00H
	DB	050H
	DB	030H
	DB	00H
	DB	00H
	DB	058H
	DB	034H
	DB	00H
	DB	04H
	DB	058H
	DB	030H
	DB	00H
	DB	00H
	DB	050H
	DB	034H
	DB	00H
	DB	00H
	DB	058H
	DB	030H
	DB	00H
	DB	04H
	DB	058H
	DB	034H
	DB	00H
	DB	00H
	DB	050H
	DB	030H
	DB	00H
	DB	00H
	DB	058H
	DB	034H
	DB	00H
	DB	04H
	DB	058H
	DB	030H
	DB	00H
	DB	00H
	DB	050H
	DB	034H
	DB	00H
	DB	00H
	DB	058H
	DB	030H
	DB	00H
	DB	04H
	DB	058H
	DB	034H
	DB	00H
	DB	00H
	DB	050H
	DB	030H
	DB	00H
	DB	00H
	DB	058H
	DB	034H
	DB	00H
	DB	04H
	DB	058H
	DB	030H
	DB	00H
	DB	00H
	DB	050H
	DB	034H
	DB	00H
	DB	00H
	DB	058H
	DB	030H
	DB	00H
	DB	04H
	DB	058H
	DB	034H
	DB	00H
	DB	00H
	DB	050H
	DB	030H
	DB	00H
	DB	00H
	DB	058H
	DB	034H
	DB	00H
	DB	04H
	DB	058H
	DB	030H
	DB	00H
	DB	00H
	DB	050H
	DB	034H
	DB	00H
	DB	00H
	DB	058H
	DB	030H
	DB	00H
	DB	04H
	DB	058H
	DB	034H
	DB	00H
	DB	00H
	DB	050H
	DB	030H
	DB	00H
	DB	00H
	DB	058H
	DB	034H
	DB	00H
	DB	04H
	DB	058H
	DB	030H
	DB	00H
	DB	00H
	DB	050H
	DB	034H
	DB	00H
	DB	00H
	DB	058H
	DB	030H
	DB	00H
	DB	04H
	DB	058H
	DB	034H
	DB	00H
	DB	00H
	DB	050H
	DB	030H
	DB	00H
	DB	00H
	DB	058H
	DB	034H
	DB	00H
	DB	04H
	DB	058H
	DB	030H
	DB	00H
	DB	00H
	DB	050H
	DB	034H
	DB	00H
	DB	00H
	DB	058H
	DB	030H
	DB	00H
	DB	04H
	DB	058H
	DB	034H
	DB	00H
	DB	00H
	DB	050H
	DB	030H
	DB	00H
	DB	00H
	DB	058H
	DB	034H
	DB	00H
	DB	04H
	DB	058H
	DB	030H
	DB	00H
	DB	00H
	DB	050H
	DB	034H
	DB	00H
	DB	00H
	DB	058H
	DB	030H
	DB	00H
	DB	04H
	DB	058H
	DB	034H
	DB	00H
	DB	00H
	DB	050H
	DB	030H
	DB	00H
	DB	00H
	DB	058H
	DB	034H
	DB	00H
	DB	04H
	DB	058H
	DB	030H
	DB	00H
	DB	00H
	DB	050H
	DB	034H
	DB	00H
	DB	00H
	DB	058H
	DB	030H
	DB	00H
	DB	04H
	DB	058H
	DB	034H
	DB	00H
	DB	00H
	DB	050H
	DB	030H
	DB	00H
	DB	00H
	DB	058H
	DB	034H
	DB	00H
	DB	04H
	DB	058H
	DB	030H
	DB	00H
	DB	00H
	DB	050H
	DB	034H
	DB	00H
	DB	00H
	DB	058H
	DB	030H
	DB	00H
	DB	04H
	DB	058H
	DB	034H
	DB	00H
	DB	00H
	DB	050H
	DB	030H
	DB	00H
	DB	00H
	DB	058H
	DB	034H
	DB	00H
	DB	04H
	DB	058H
	DB	030H
	DB	00H
	DB	00H
	DB	050H
	DB	034H
	DB	00H
	DB	00H
	DB	058H
	DB	030H
	DB	00H
	DB	04H
	DB	058H
	DB	034H
	DB	00H
	DB	00H
	DB	050H
	DB	030H
	DB	00H
	DB	00H
	DB	058H
	DB	034H
	DB	00H
	DB	04H
	DB	058H
	DB	030H
	DB	00H
	DB	00H
	DB	050H
	DB	034H
	DB	00H
	DB	00H
	DB	058H
	DB	030H
	DB	00H
	DB	00H
	DB	058H
	DB	034H
	DB	00H
	DB	00H
	DB	050H
	DB	030H
	DB	00H
	DB	00H
	DB	058H
	DB	034H
	DB	00H
	DB	00H
	DB	058H
	DB	030H
	DB	00H
	DB	00H
	DB	050H
	DB	034H
	DB	00H
	DB	00H
	DB	058H
	DB	030H
	DB	00H
	DB	00H
	DB	058H
	DB	034H
	DB	00H
	DB	00H
	DB	050H
	DB	030H
	DB	00H
	DB	00H
	DB	058H
	DB	034H
	DB	00H
	DB	00H
	DB	058H
	DB	030H
	DB	00H
	DB	00H
	DB	050H
	DB	034H
	DB	00H
	DB	00H
	DB	058H
	DB	030H
	DB	00H
	DB	00H
	DB	058H
	DB	034H
	DB	00H
	DB	00H
	DB	050H
	DB	030H
	DB	00H
	DB	00H
	DB	058H
	DB	034H
	DB	00H
	DB	00H
	DB	0f8H
	DB	0fcH
	DB	0f8H
	DB	00H
	DB	0f8H
	DB	0fcH
	DB	0f8H
	DB	00H
	DB	0f8H
	DB	0fcH
	DB	0f8H
	DB	00H
	DB	058H
	DB	034H
	DB	00H
	DB	00H
	DB	050H
	DB	034H
	DB	00H
	DB	00H
	DB	058H
	DB	030H
	DB	00H
	DB	00H
	DB	050H
	DB	034H
	DB	00H
	DB	00H
	DB	058H
	DB	034H
	DB	00H
	DB	00H
	DB	058H
	DB	034H
	DB	00H
	DB	00H
	DB	050H
	DB	030H
	DB	00H
	DB	00H
	DB	058H
	DB	034H
	DB	00H
	DB	00H
	DB	058H
	DB	034H
	DB	00H
	DB	00H
	DB	050H
	DB	034H
	DB	00H
	DB	00H
	DB	058H
	DB	030H
	DB	00H
	DB	00H
	DB	058H
	DB	034H
	DB	00H
	DB	04H
	DB	050H
	DB	034H
	DB	00H
	DB	04H
	DB	058H
	DB	034H
	DB	00H
	DB	04H
	DB	058H
	DB	030H
	DB	00H
	DB	04H
	DB	050H
	DB	034H
	DB	00H
	DB	04H
	DB	058H
	DB	034H
	DB	00H
	DB	04H
	DB	058H
	DB	034H
	DB	00H
	DB	04H
	DB	050H
	DB	030H
	DB	00H
	DB	04H
	DB	058H
	DB	034H
	DB	00H
	DB	04H
	DB	058H
	DB	034H
	DB	00H
	DB	04H
	DB	050H
	DB	034H
	DB	00H
	DB	04H
	DB	058H
	DB	030H
	DB	00H
	DB	04H
	DB	058H
	DB	034H
	DB	00H
	DB	04H
	DB	050H
	DB	034H
	DB	00H
	DB	04H
	DB	058H
	DB	034H
	DB	00H
	DB	04H
	DB	058H
	DB	030H
	DB	00H
	DB	04H
	DB	050H
	DB	034H
	DB	00H
	DB	04H
	DB	058H
	DB	034H
	DB	00H
	DB	04H
	DB	058H
	DB	034H
	DB	00H
	DB	04H
	DB	050H
	DB	030H
	DB	00H
	DB	04H
	DB	058H
	DB	034H
	DB	00H
	DB	04H
	DB	058H
	DB	034H
	DB	00H
	DB	04H
	DB	050H
	DB	034H
	DB	00H
	DB	04H
	DB	058H
	DB	030H
	DB	00H
	DB	04H
	DB	058H
	DB	034H
	DB	00H
	DB	04H
	DB	050H
	DB	034H
	DB	00H
	DB	04H
	DB	058H
	DB	034H
	DB	00H
	DB	04H
	DB	058H
	DB	030H
	DB	00H
	DB	04H
	DB	050H
	DB	034H
	DB	00H
	DB	04H
	DB	058H
	DB	034H
	DB	00H
	DB	04H
	DB	058H
	DB	034H
	DB	00H
	DB	04H
	DB	050H
	DB	030H
	DB	00H
	DB	04H
	DB	058H
	DB	034H
	DB	00H
	DB	04H
	DB	058H
	DB	034H
	DB	00H
	DB	04H
	DB	050H
	DB	034H
	DB	00H
	DB	04H
	DB	058H
	DB	030H
	DB	00H
	DB	04H
	DB	058H
	DB	034H
	DB	00H
	DB	04H
	DB	050H
	DB	034H
	DB	00H
	DB	04H
	DB	058H
	DB	034H
	DB	00H
	DB	04H
	DB	058H
	DB	030H
	DB	00H
	DB	04H
	DB	050H
	DB	034H
	DB	00H
	DB	04H
	DB	058H
	DB	034H
	DB	00H
	DB	04H
	DB	058H
	DB	034H
	DB	00H
	DB	04H
	DB	050H
	DB	030H
	DB	00H
	DB	04H
	DB	058H
	DB	034H
	DB	00H
	DB	04H
	DB	058H
	DB	034H
	DB	00H
	DB	04H
	DB	050H
	DB	034H
	DB	00H
	DB	04H
	DB	058H
	DB	030H
	DB	00H
	DB	04H
	DB	058H
	DB	034H
	DB	00H
	DB	04H
	DB	050H
	DB	034H
	DB	00H
	DB	04H
	DB	058H
	DB	034H
	DB	00H
	DB	04H
	DB	058H
	DB	030H
	DB	00H
	DB	04H
	DB	050H
	DB	034H
	DB	00H
	DB	04H
	DB	058H
	DB	034H
	DB	00H
	DB	04H
	DB	058H
	DB	034H
	DB	00H
	DB	04H
	DB	050H
	DB	030H
	DB	00H
	DB	04H
	DB	058H
	DB	034H
	DB	00H
	DB	04H
	DB	058H
	DB	034H
	DB	00H
	DB	04H
	DB	050H
	DB	034H
	DB	00H
	DB	04H
	DB	058H
	DB	030H
	DB	00H
	DB	04H
	DB	058H
	DB	034H
	DB	00H
	DB	04H
	DB	050H
	DB	034H
	DB	00H
	DB	04H
	DB	058H
	DB	034H
	DB	00H
	DB	04H
	DB	058H
	DB	030H
	DB	00H
	DB	04H
	DB	050H
	DB	034H
	DB	00H
	DB	04H
	DB	058H
	DB	034H
	DB	00H
	DB	04H
	DB	058H
	DB	034H
	DB	00H
	DB	04H
	DB	050H
	DB	030H
	DB	00H
	DB	04H
	DB	058H
	DB	034H
	DB	00H
	DB	04H
	DB	058H
	DB	034H
	DB	00H
	DB	04H
	DB	050H
	DB	034H
	DB	00H
	DB	04H
	DB	058H
	DB	030H
	DB	00H
	DB	04H
	DB	058H
	DB	034H
	DB	00H
	DB	04H
	DB	050H
	DB	034H
	DB	00H
	DB	04H
	DB	058H
	DB	034H
	DB	00H
	DB	04H
	DB	058H
	DB	030H
	DB	00H
	DB	04H
	DB	050H
	DB	034H
	DB	00H
	DB	04H
	DB	058H
	DB	034H
	DB	00H
	DB	04H
	DB	058H
	DB	034H
	DB	00H
	DB	04H
	DB	050H
	DB	030H
	DB	00H
	DB	04H
	DB	058H
	DB	034H
	DB	00H
	DB	04H
	DB	058H
	DB	034H
	DB	00H
	DB	08H
	DB	050H
	DB	034H
	DB	00H
	DB	04H
	DB	058H
	DB	030H
	DB	00H
	DB	08H
	DB	058H
	DB	034H
	DB	00H
	DB	04H
	DB	050H
	DB	034H
	DB	00H
	DB	08H
	DB	058H
	DB	034H
	DB	00H
	DB	08H
	DB	058H
	DB	030H
	DB	00H
	DB	08H
	DB	050H
	DB	034H
	DB	00H
	DB	08H
	DB	058H
	DB	034H
	DB	00H
	DB	04H
	DB	058H
	DB	034H
	DB	00H
	DB	08H
	DB	050H
	DB	030H
	DB	00H
	DB	04H
	DB	058H
	DB	034H
	DB	00H
	DB	08H
	DB	058H
	DB	034H
	DB	00H
	DB	04H
	DB	050H
	DB	034H
	DB	00H
	DB	08H
	DB	058H
	DB	030H
	DB	00H
	DB	04H
	DB	058H
	DB	034H
	DB	00H
	DB	04H
	DB	050H
	DB	034H
	DB	00H
	DB	04H
	DB	058H
	DB	034H
	DB	00H
	DB	04H
	DB	058H
	DB	030H
	DB	00H
	DB	04H
	DB	050H
	DB	034H
	DB	00H
	DB	04H
	DB	058H
	DB	034H
	DB	00H
	DB	04H
	DB	058H
	DB	034H
	DB	00H
	DB	04H
	DB	050H
	DB	030H
	DB	00H
	DB	04H
	DB	058H
	DB	034H
	DB	00H
	DB	04H
	DB	058H
	DB	034H
	DB	00H
	DB	04H
	DB	050H
	DB	034H
	DB	00H
	DB	04H
	DB	058H
	DB	030H
	DB	00H
	DB	04H
	DB	058H
	DB	034H
	DB	00H
	DB	04H
	DB	050H
	DB	034H
	DB	00H
	DB	04H
	DB	058H
	DB	034H
	DB	00H
	DB	04H
	DB	058H
	DB	030H
	DB	00H
	DB	04H
	DB	050H
	DB	034H
	DB	00H
	DB	04H
	DB	058H
	DB	034H
	DB	00H
	DB	04H
	DB	058H
	DB	034H
	DB	00H
	DB	04H
	DB	050H
	DB	030H
	DB	00H
	DB	04H
	DB	058H
	DB	034H
	DB	00H
	DB	04H
	DB	058H
	DB	034H
	DB	00H
	DB	04H
	DB	050H
	DB	034H
	DB	00H
	DB	04H
	DB	058H
	DB	030H
	DB	00H
	DB	04H
	DB	058H
	DB	034H
	DB	00H
	DB	04H
	DB	050H
	DB	034H
	DB	00H
	DB	04H
	DB	058H
	DB	034H
	DB	00H
	DB	04H
	DB	058H
	DB	030H
	DB	00H
	DB	04H
	DB	050H
	DB	034H
	DB	00H
	DB	04H
	DB	058H
	DB	034H
	DB	00H
	DB	04H
	DB	058H
	DB	034H
	DB	00H
	DB	04H
	DB	050H
	DB	030H
	DB	00H
	DB	04H
	DB	058H
	DB	034H
	DB	00H
	DB	04H
	DB	058H
	DB	034H
	DB	00H
	DB	04H
	DB	050H
	DB	034H
	DB	00H
	DB	04H
	DB	058H
	DB	030H
	DB	00H
	DB	04H
	DB	058H
	DB	034H
	DB	00H
	DB	04H
	DB	050H
	DB	034H
	DB	00H
	DB	04H
	DB	058H
	DB	034H
	DB	00H
	DB	04H
	DB	058H
	DB	030H
	DB	00H
	DB	04H
	DB	050H
	DB	034H
	DB	00H
	DB	04H
	DB	058H
	DB	034H
	DB	00H
	DB	04H
	DB	058H
	DB	034H
	DB	00H
	DB	04H
	DB	050H
	DB	030H
	DB	00H
	DB	04H
	DB	058H
	DB	034H
	DB	00H
	DB	04H
	DB	058H
	DB	034H
	DB	00H
	DB	04H
	DB	050H
	DB	034H
	DB	00H
	DB	04H
	DB	058H
	DB	030H
	DB	00H
	DB	04H
	DB	058H
	DB	034H
	DB	00H
	DB	04H
	DB	050H
	DB	034H
	DB	00H
	DB	04H
	DB	058H
	DB	034H
	DB	00H
	DB	04H
	DB	058H
	DB	030H
	DB	00H
	DB	04H
	DB	050H
	DB	034H
	DB	00H
	DB	04H
	DB	058H
	DB	034H
	DB	00H
	DB	04H
	DB	058H
	DB	034H
	DB	00H
	DB	04H
	DB	050H
	DB	030H
	DB	00H
	DB	04H
	DB	058H
	DB	034H
	DB	00H
	DB	04H
	DB	058H
	DB	034H
	DB	00H
	DB	04H
	DB	050H
	DB	034H
	DB	00H
	DB	04H
	DB	058H
	DB	030H
	DB	00H
	DB	04H
	DB	058H
	DB	034H
	DB	00H
	DB	04H
	DB	050H
	DB	034H
	DB	00H
	DB	04H
	DB	058H
	DB	034H
	DB	00H
	DB	04H
	DB	058H
	DB	030H
	DB	00H
	DB	04H
	DB	050H
	DB	034H
	DB	00H
	DB	04H
	DB	058H
	DB	034H
	DB	00H
	DB	04H
	DB	058H
	DB	034H
	DB	00H
	DB	04H
	DB	050H
	DB	030H
	DB	00H
	DB	04H
	DB	058H
	DB	034H
	DB	00H
	DB	04H
	DB	058H
	DB	034H
	DB	00H
	DB	04H
	DB	050H
	DB	034H
	DB	00H
	DB	04H
	DB	058H
	DB	030H
	DB	00H
	DB	04H
	DB	058H
	DB	034H
	DB	00H
	DB	04H
	DB	050H
	DB	034H
	DB	00H
	DB	04H
	DB	058H
	DB	034H
	DB	00H
	DB	04H
	DB	058H
	DB	030H
	DB	00H
	DB	04H
	DB	050H
	DB	034H
	DB	00H
	DB	04H
	DB	058H
	DB	034H
	DB	00H
	DB	04H
	DB	058H
	DB	034H
	DB	00H
	DB	04H
	DB	050H
	DB	030H
	DB	00H
	DB	04H
	DB	058H
	DB	034H
	DB	00H
	DB	04H
	DB	058H
	DB	034H
	DB	00H
	DB	04H
	DB	050H
	DB	034H
	DB	00H
	DB	04H
	DB	058H
	DB	030H
	DB	00H
	DB	04H
	DB	058H
	DB	034H
	DB	00H
	DB	04H
	DB	050H
	DB	034H
	DB	00H
	DB	04H
	DB	058H
	DB	034H
	DB	00H
	DB	04H
	DB	058H
	DB	030H
	DB	00H
	DB	04H
	DB	050H
	DB	034H
	DB	00H
	DB	04H
	DB	058H
	DB	034H
	DB	00H
	DB	04H
	DB	058H
	DB	034H
	DB	00H
	DB	04H
	DB	050H
	DB	030H
	DB	00H
	DB	04H
	DB	058H
	DB	034H
	DB	00H
	DB	04H
	DB	058H
	DB	034H
	DB	00H
	DB	04H
	DB	050H
	DB	034H
	DB	00H
	DB	04H
	DB	058H
	DB	030H
	DB	00H
	DB	04H
	DB	058H
	DB	034H
	DB	00H
	DB	04H
	DB	050H
	DB	034H
	DB	00H
	DB	04H
	DB	058H
	DB	034H
	DB	00H
	DB	04H
	DB	058H
	DB	030H
	DB	00H
	DB	04H
	DB	050H
	DB	034H
	DB	00H
	DB	04H
	DB	058H
	DB	034H
	DB	00H
	DB	04H
	DB	058H
	DB	034H
	DB	00H
	DB	04H
	DB	050H
	DB	030H
	DB	00H
	DB	04H
	DB	058H
	DB	034H
	DB	00H
	DB	04H
	DB	058H
	DB	034H
	DB	00H
	DB	04H
	DB	050H
	DB	034H
	DB	00H
	DB	04H
	DB	058H
	DB	030H
	DB	00H
	DB	04H
	DB	058H
	DB	034H
	DB	00H
	DB	04H
	DB	050H
	DB	034H
	DB	00H
	DB	04H
	DB	058H
	DB	034H
	DB	00H
	DB	04H
	DB	058H
	DB	030H
	DB	00H
	DB	04H
	DB	050H
	DB	034H
	DB	00H
	DB	04H
	DB	058H
	DB	034H
	DB	00H
	DB	04H
	DB	058H
	DB	034H
	DB	00H
	DB	04H
	DB	050H
	DB	030H
	DB	00H
	DB	04H
	DB	058H
	DB	034H
	DB	00H
	DB	04H
	DB	058H
	DB	034H
	DB	00H
	DB	04H
	DB	050H
	DB	034H
	DB	00H
	DB	04H
	DB	058H
	DB	030H
	DB	00H
	DB	04H
	DB	058H
	DB	034H
	DB	00H
	DB	04H
	DB	050H
	DB	034H
	DB	00H
	DB	04H
	DB	058H
	DB	034H
	DB	00H
	DB	04H
	DB	058H
	DB	030H
	DB	00H
	DB	04H
	DB	050H
	DB	034H
	DB	00H
	DB	04H
	DB	058H
	DB	034H
	DB	00H
	DB	04H
	DB	058H
	DB	034H
	DB	00H
	DB	04H
	DB	050H
	DB	030H
	DB	00H
	DB	04H
	DB	058H
	DB	034H
	DB	00H
	DB	04H
	DB	058H
	DB	034H
	DB	00H
	DB	04H
	DB	050H
	DB	034H
	DB	00H
	DB	04H
	DB	058H
	DB	030H
	DB	00H
	DB	04H
	DB	058H
	DB	034H
	DB	00H
	DB	04H
	DB	050H
	DB	034H
	DB	00H
	DB	04H
	DB	058H
	DB	034H
	DB	00H
	DB	04H
	DB	058H
	DB	030H
	DB	00H
	DB	04H
	DB	050H
	DB	034H
	DB	00H
	DB	04H
	DB	058H
	DB	034H
	DB	00H
	DB	04H
	DB	058H
	DB	034H
	DB	00H
	DB	04H
	DB	050H
	DB	030H
	DB	00H
	DB	04H
	DB	058H
	DB	034H
	DB	00H
	DB	04H
	DB	058H
	DB	034H
	DB	00H
	DB	04H
	DB	050H
	DB	034H
	DB	00H
	DB	04H
	DB	058H
	DB	030H
	DB	00H
	DB	04H
	DB	058H
	DB	034H
	DB	00H
	DB	04H
	DB	050H
	DB	034H
	DB	00H
	DB	04H
	DB	058H
	DB	034H
	DB	00H
	DB	04H
	DB	058H
	DB	030H
	DB	00H
	DB	04H
	DB	050H
	DB	034H
	DB	00H
	DB	04H
	DB	058H
	DB	034H
	DB	00H
	DB	04H
	DB	058H
	DB	034H
	DB	00H
	DB	04H
	DB	050H
	DB	030H
	DB	00H
	DB	04H
	DB	058H
	DB	034H
	DB	00H
	DB	04H
	DB	058H
	DB	034H
	DB	00H
	DB	04H
	DB	050H
	DB	034H
	DB	00H
	DB	04H
	DB	058H
	DB	030H
	DB	00H
	DB	04H
	DB	058H
	DB	034H
	DB	00H
	DB	04H
	DB	050H
	DB	034H
	DB	00H
	DB	04H
	DB	058H
	DB	034H
	DB	00H
	DB	04H
	DB	058H
	DB	030H
	DB	00H
	DB	04H
	DB	050H
	DB	034H
	DB	00H
	DB	04H
	DB	058H
	DB	034H
	DB	00H
	DB	04H
	DB	058H
	DB	034H
	DB	00H
	DB	04H
	DB	050H
	DB	030H
	DB	00H
	DB	04H
	DB	058H
	DB	034H
	DB	00H
	DB	04H
	DB	058H
	DB	034H
	DB	00H
	DB	04H
	DB	050H
	DB	034H
	DB	00H
	DB	04H
	DB	058H
	DB	030H
	DB	00H
	DB	04H
	DB	058H
	DB	034H
	DB	00H
	DB	04H
	DB	050H
	DB	034H
	DB	00H
	DB	04H
	DB	058H
	DB	034H
	DB	00H
	DB	04H
	DB	058H
	DB	030H
	DB	00H
	DB	04H
	DB	050H
	DB	034H
	DB	00H
	DB	04H
	DB	058H
	DB	034H
	DB	00H
	DB	04H
	DB	058H
	DB	034H
	DB	00H
	DB	04H
	DB	050H
	DB	030H
	DB	00H
	DB	04H
	DB	058H
	DB	034H
	DB	00H
	DB	04H
	DB	058H
	DB	034H
	DB	00H
	DB	04H
	DB	050H
	DB	034H
	DB	00H
	DB	04H
	DB	058H
	DB	030H
	DB	00H
	DB	04H
	DB	058H
	DB	034H
	DB	00H
	DB	04H
	DB	050H
	DB	034H
	DB	00H
	DB	04H
	DB	058H
	DB	034H
	DB	00H
	DB	04H
	DB	058H
	DB	030H
	DB	00H
	DB	04H
	DB	050H
	DB	034H
	DB	00H
	DB	04H
	DB	058H
	DB	034H
	DB	00H
	DB	04H
	DB	058H
	DB	034H
	DB	00H
	DB	04H
	DB	050H
	DB	030H
	DB	00H
	DB	04H
	DB	058H
	DB	034H
	DB	00H
	DB	04H
	DB	058H
	DB	034H
	DB	00H
	DB	04H
	DB	050H
	DB	034H
	DB	00H
	DB	04H
	DB	058H
	DB	030H
	DB	00H
	DB	04H
	DB	058H
	DB	034H
	DB	00H
	DB	04H
	DB	050H
	DB	034H
	DB	00H
	DB	04H
	DB	058H
	DB	034H
	DB	00H
	DB	04H
	DB	058H
	DB	030H
	DB	00H
	DB	04H
	DB	050H
	DB	034H
	DB	00H
	DB	04H
	DB	058H
	DB	034H
	DB	00H
	DB	04H
	DB	058H
	DB	034H
	DB	00H
	DB	04H
	DB	050H
	DB	030H
	DB	00H
	DB	04H
	DB	058H
	DB	034H
	DB	00H
	DB	04H
	DB	058H
	DB	034H
	DB	00H
	DB	04H
	DB	050H
	DB	034H
	DB	00H
	DB	04H
	DB	058H
	DB	030H
	DB	00H
	DB	04H
	DB	058H
	DB	034H
	DB	00H
	DB	04H
	DB	050H
	DB	034H
	DB	00H
	DB	04H
	DB	058H
	DB	034H
	DB	00H
	DB	04H
	DB	058H
	DB	030H
	DB	00H
	DB	04H
	DB	050H
	DB	034H
	DB	00H
	DB	04H
	DB	058H
	DB	034H
	DB	00H
	DB	04H
	DB	058H
	DB	034H
	DB	00H
	DB	04H
	DB	050H
	DB	030H
	DB	00H
	DB	04H
	DB	058H
	DB	034H
	DB	00H
	DB	04H
	DB	058H
	DB	034H
	DB	00H
	DB	04H
	DB	050H
	DB	034H
	DB	00H
	DB	04H
	DB	058H
	DB	030H
	DB	00H
	DB	04H
	DB	058H
	DB	034H
	DB	00H
	DB	04H
	DB	050H
	DB	034H
	DB	00H
	DB	04H
	DB	058H
	DB	034H
	DB	00H
	DB	04H
	DB	058H
	DB	030H
	DB	00H
	DB	04H
	DB	050H
	DB	034H
	DB	00H
	DB	04H
	DB	058H
	DB	034H
	DB	00H
	DB	04H
	DB	058H
	DB	034H
	DB	00H
	DB	04H
	DB	050H
	DB	030H
	DB	00H
	DB	04H
	DB	058H
	DB	034H
	DB	00H
	DB	04H
	DB	058H
	DB	034H
	DB	00H
	DB	04H
	DB	050H
	DB	034H
	DB	00H
	DB	04H
	DB	058H
	DB	030H
	DB	00H
	DB	04H
	DB	058H
	DB	034H
	DB	00H
	DB	04H
	DB	050H
	DB	034H
	DB	00H
	DB	04H
	DB	058H
	DB	034H
	DB	00H
	DB	04H
	DB	058H
	DB	030H
	DB	00H
	DB	04H
	DB	050H
	DB	034H
	DB	00H
	DB	04H
	DB	058H
	DB	034H
	DB	00H
	DB	04H
	DB	058H
	DB	034H
	DB	00H
	DB	04H
	DB	050H
	DB	030H
	DB	00H
	DB	04H
	DB	058H
	DB	034H
	DB	00H
	DB	04H
	DB	058H
	DB	034H
	DB	00H
	DB	04H
	DB	050H
	DB	034H
	DB	00H
	DB	04H
	DB	058H
	DB	030H
	DB	00H
	DB	04H
	DB	058H
	DB	034H
	DB	00H
	DB	04H
	DB	050H
	DB	034H
	DB	00H
	DB	04H
	DB	058H
	DB	034H
	DB	00H
	DB	04H
	DB	058H
	DB	030H
	DB	00H
	DB	04H
	DB	050H
	DB	034H
	DB	00H
	DB	04H
	DB	058H
	DB	034H
	DB	00H
	DB	04H
	DB	058H
	DB	034H
	DB	00H
	DB	04H
	DB	050H
	DB	030H
	DB	00H
	DB	04H
	DB	058H
	DB	034H
	DB	00H
	DB	04H
	DB	058H
	DB	034H
	DB	00H
	DB	04H
	DB	050H
	DB	034H
	DB	00H
	DB	04H
	DB	058H
	DB	030H
	DB	00H
	DB	04H
	DB	058H
	DB	034H
	DB	00H
	DB	04H
	DB	050H
	DB	034H
	DB	00H
	DB	04H
	DB	058H
	DB	034H
	DB	00H
	DB	04H
	DB	058H
	DB	030H
	DB	00H
	DB	04H
	DB	050H
	DB	034H
	DB	00H
	DB	04H
	DB	058H
	DB	034H
	DB	00H
	DB	00H
	DB	058H
	DB	034H
	DB	00H
	DB	00H
	DB	050H
	DB	030H
	DB	00H
	DB	00H
	DB	058H
	DB	034H
	DB	00H
	DB	00H
	DB	058H
	DB	034H
	DB	00H
	DB	00H
	DB	050H
	DB	034H
	DB	00H
	DB	00H
	DB	058H
	DB	030H
	DB	00H
	DB	00H
	DB	058H
	DB	034H
	DB	00H
	DB	00H
	DB	050H
	DB	034H
	DB	00H
	DB	00H
	DB	058H
	DB	034H
	DB	00H
	DB	00H
	DB	058H
	DB	030H
	DB	00H
	DB	00H
	DB	050H
	DB	034H
	DB	00H
	DB	00H
	DB	050H
	DB	034H
	DB	00H
	DB	00H
	DB	0f8H
	DB	0fcH
	DB	0f8H
	DB	00H
	DB	0f8H
	DB	0fcH
	DB	0f8H
	DB	00H
	DB	0f8H
	DB	0fcH
	DB	0f8H
	DB	00H
	DB	058H
	DB	034H
	DB	00H
	DB	00H
	DB	058H
	DB	034H
	DB	00H
	DB	00H
	DB	050H
	DB	034H
	DB	00H
	DB	00H
	DB	058H
	DB	034H
	DB	00H
	DB	00H
	DB	050H
	DB	034H
	DB	00H
	DB	00H
	DB	058H
	DB	034H
	DB	00H
	DB	00H
	DB	050H
	DB	034H
	DB	00H
	DB	00H
	DB	058H
	DB	034H
	DB	00H
	DB	00H
	DB	050H
	DB	034H
	DB	00H
	DB	04H
	DB	058H
	DB	034H
	DB	00H
	DB	04H
	DB	050H
	DB	034H
	DB	00H
	DB	04H
	DB	058H
	DB	034H
	DB	00H
	DB	04H
	DB	050H
	DB	034H
	DB	00H
	DB	04H
	DB	058H
	DB	034H
	DB	00H
	DB	08H
	DB	050H
	DB	034H
	DB	00H
	DB	08H
	DB	058H
	DB	034H
	DB	00H
	DB	08H
	DB	050H
	DB	034H
	DB	00H
	DB	0cH
	DB	058H
	DB	034H
	DB	00H
	DB	0cH
	DB	050H
	DB	034H
	DB	00H
	DB	0cH
	DB	058H
	DB	034H
	DB	00H
	DB	0cH
	DB	050H
	DB	034H
	DB	00H
	DB	0cH
	DB	058H
	DB	034H
	DB	00H
	DB	0cH
	DB	050H
	DB	034H
	DB	00H
	DB	0cH
	DB	058H
	DB	034H
	DB	00H
	DB	0cH
	DB	050H
	DB	034H
	DB	00H
	DB	0cH
	DB	058H
	DB	034H
	DB	00H
	DB	0cH
	DB	050H
	DB	034H
	DB	00H
	DB	0cH
	DB	058H
	DB	034H
	DB	00H
	DB	0cH
	DB	050H
	DB	034H
	DB	00H
	DB	0cH
	DB	058H
	DB	034H
	DB	00H
	DB	0cH
	DB	050H
	DB	034H
	DB	00H
	DB	0cH
	DB	058H
	DB	034H
	DB	00H
	DB	0cH
	DB	050H
	DB	034H
	DB	00H
	DB	0cH
	DB	058H
	DB	034H
	DB	00H
	DB	0cH
	DB	050H
	DB	034H
	DB	00H
	DB	0cH
	DB	058H
	DB	034H
	DB	00H
	DB	0cH
	DB	050H
	DB	034H
	DB	00H
	DB	0cH
	DB	058H
	DB	034H
	DB	00H
	DB	0cH
	DB	050H
	DB	034H
	DB	00H
	DB	0cH
	DB	058H
	DB	034H
	DB	00H
	DB	0cH
	DB	050H
	DB	034H
	DB	00H
	DB	0cH
	DB	058H
	DB	034H
	DB	00H
	DB	0cH
	DB	050H
	DB	034H
	DB	00H
	DB	0cH
	DB	058H
	DB	034H
	DB	00H
	DB	0cH
	DB	050H
	DB	034H
	DB	00H
	DB	0cH
	DB	058H
	DB	034H
	DB	00H
	DB	0cH
	DB	050H
	DB	034H
	DB	00H
	DB	0cH
	DB	058H
	DB	034H
	DB	00H
	DB	0cH
	DB	050H
	DB	034H
	DB	00H
	DB	0cH
	DB	058H
	DB	034H
	DB	00H
	DB	0cH
	DB	050H
	DB	034H
	DB	00H
	DB	0cH
	DB	058H
	DB	034H
	DB	00H
	DB	0cH
	DB	050H
	DB	034H
	DB	00H
	DB	0cH
	DB	058H
	DB	034H
	DB	00H
	DB	0cH
	DB	050H
	DB	034H
	DB	00H
	DB	0cH
	DB	058H
	DB	034H
	DB	00H
	DB	0cH
	DB	050H
	DB	034H
	DB	00H
	DB	0cH
	DB	058H
	DB	034H
	DB	00H
	DB	0cH
	DB	050H
	DB	034H
	DB	00H
	DB	0cH
	DB	058H
	DB	034H
	DB	00H
	DB	0cH
	DB	050H
	DB	034H
	DB	00H
	DB	0cH
	DB	058H
	DB	034H
	DB	00H
	DB	0cH
	DB	050H
	DB	034H
	DB	00H
	DB	0cH
	DB	058H
	DB	034H
	DB	00H
	DB	0cH
	DB	050H
	DB	034H
	DB	00H
	DB	0cH
	DB	058H
	DB	034H
	DB	00H
	DB	0cH
	DB	050H
	DB	034H
	DB	00H
	DB	0cH
	DB	058H
	DB	034H
	DB	00H
	DB	0cH
	DB	050H
	DB	034H
	DB	00H
	DB	0cH
	DB	058H
	DB	034H
	DB	00H
	DB	0cH
	DB	050H
	DB	034H
	DB	00H
	DB	0cH
	DB	058H
	DB	034H
	DB	00H
	DB	0cH
	DB	050H
	DB	034H
	DB	00H
	DB	0cH
	DB	058H
	DB	034H
	DB	00H
	DB	0cH
	DB	050H
	DB	034H
	DB	00H
	DB	0cH
	DB	058H
	DB	034H
	DB	00H
	DB	0cH
	DB	050H
	DB	034H
	DB	00H
	DB	0cH
	DB	058H
	DB	034H
	DB	00H
	DB	0cH
	DB	050H
	DB	034H
	DB	00H
	DB	0cH
	DB	058H
	DB	034H
	DB	00H
	DB	0cH
	DB	050H
	DB	034H
	DB	00H
	DB	0cH
	DB	058H
	DB	034H
	DB	00H
	DB	0cH
	DB	050H
	DB	034H
	DB	00H
	DB	0cH
	DB	058H
	DB	034H
	DB	00H
	DB	0cH
	DB	050H
	DB	034H
	DB	00H
	DB	0cH
	DB	058H
	DB	034H
	DB	00H
	DB	0cH
	DB	050H
	DB	034H
	DB	00H
	DB	0cH
	DB	058H
	DB	034H
	DB	00H
	DB	0cH
	DB	050H
	DB	034H
	DB	00H
	DB	0cH
	DB	058H
	DB	034H
	DB	00H
	DB	0cH
	DB	050H
	DB	034H
	DB	00H
	DB	0cH
	DB	058H
	DB	034H
	DB	00H
	DB	0cH
	DB	050H
	DB	034H
	DB	00H
	DB	0cH
	DB	058H
	DB	034H
	DB	00H
	DB	0cH
	DB	050H
	DB	034H
	DB	00H
	DB	0cH
	DB	058H
	DB	034H
	DB	00H
	DB	0cH
	DB	050H
	DB	034H
	DB	00H
	DB	0cH
	DB	058H
	DB	034H
	DB	00H
	DB	0cH
	DB	050H
	DB	034H
	DB	00H
	DB	0cH
	DB	058H
	DB	034H
	DB	00H
	DB	0cH
	DB	050H
	DB	034H
	DB	00H
	DB	0cH
	DB	058H
	DB	034H
	DB	00H
	DB	0cH
	DB	050H
	DB	034H
	DB	00H
	DB	0cH
	DB	058H
	DB	034H
	DB	00H
	DB	0cH
	DB	050H
	DB	034H
	DB	00H
	DB	0cH
	DB	058H
	DB	034H
	DB	00H
	DB	0cH
	DB	050H
	DB	034H
	DB	00H
	DB	0cH
	DB	058H
	DB	034H
	DB	00H
	DB	0cH
	DB	050H
	DB	034H
	DB	00H
	DB	0cH
	DB	058H
	DB	034H
	DB	00H
	DB	0cH
	DB	050H
	DB	034H
	DB	00H
	DB	0cH
	DB	058H
	DB	034H
	DB	00H
	DB	0cH
	DB	050H
	DB	034H
	DB	00H
	DB	0cH
	DB	058H
	DB	034H
	DB	00H
	DB	0cH
	DB	050H
	DB	034H
	DB	00H
	DB	0cH
	DB	058H
	DB	034H
	DB	00H
	DB	0cH
	DB	050H
	DB	034H
	DB	00H
	DB	0cH
	DB	058H
	DB	034H
	DB	00H
	DB	0cH
	DB	050H
	DB	034H
	DB	00H
	DB	0cH
	DB	058H
	DB	034H
	DB	00H
	DB	0cH
	DB	050H
	DB	034H
	DB	00H
	DB	0cH
	DB	058H
	DB	034H
	DB	00H
	DB	0cH
	DB	050H
	DB	034H
	DB	00H
	DB	0cH
	DB	058H
	DB	034H
	DB	00H
	DB	0cH
	DB	050H
	DB	034H
	DB	00H
	DB	0cH
	DB	058H
	DB	034H
	DB	00H
	DB	0cH
	DB	050H
	DB	034H
	DB	00H
	DB	0cH
	DB	058H
	DB	034H
	DB	00H
	DB	0cH
	DB	050H
	DB	034H
	DB	00H
	DB	0cH
	DB	058H
	DB	034H
	DB	00H
	DB	0cH
	DB	050H
	DB	034H
	DB	00H
	DB	0cH
	DB	058H
	DB	034H
	DB	00H
	DB	0cH
	DB	050H
	DB	034H
	DB	00H
	DB	0cH
	DB	058H
	DB	034H
	DB	00H
	DB	0cH
	DB	050H
	DB	034H
	DB	00H
	DB	0cH
	DB	058H
	DB	034H
	DB	00H
	DB	0cH
	DB	050H
	DB	034H
	DB	00H
	DB	0cH
	DB	058H
	DB	034H
	DB	00H
	DB	0cH
	DB	050H
	DB	034H
	DB	00H
	DB	0cH
	DB	058H
	DB	034H
	DB	00H
	DB	0cH
	DB	050H
	DB	034H
	DB	00H
	DB	0cH
	DB	058H
	DB	034H
	DB	00H
	DB	0cH
	DB	050H
	DB	034H
	DB	00H
	DB	0cH
	DB	058H
	DB	034H
	DB	00H
	DB	0cH
	DB	050H
	DB	034H
	DB	00H
	DB	0cH
	DB	058H
	DB	034H
	DB	00H
	DB	0cH
	DB	050H
	DB	034H
	DB	00H
	DB	0cH
	DB	058H
	DB	034H
	DB	00H
	DB	0cH
	DB	050H
	DB	034H
	DB	00H
	DB	0cH
	DB	058H
	DB	034H
	DB	00H
	DB	0cH
	DB	050H
	DB	034H
	DB	00H
	DB	0cH
	DB	058H
	DB	034H
	DB	00H
	DB	0cH
	DB	050H
	DB	034H
	DB	00H
	DB	0cH
	DB	058H
	DB	034H
	DB	00H
	DB	0cH
	DB	050H
	DB	034H
	DB	00H
	DB	0cH
	DB	058H
	DB	034H
	DB	00H
	DB	0cH
	DB	050H
	DB	034H
	DB	00H
	DB	0cH
	DB	058H
	DB	034H
	DB	00H
	DB	0cH
	DB	050H
	DB	034H
	DB	00H
	DB	0cH
	DB	058H
	DB	034H
	DB	00H
	DB	0cH
	DB	050H
	DB	034H
	DB	00H
	DB	0cH
	DB	058H
	DB	034H
	DB	00H
	DB	0cH
	DB	050H
	DB	034H
	DB	00H
	DB	0cH
	DB	058H
	DB	034H
	DB	00H
	DB	0cH
	DB	050H
	DB	034H
	DB	00H
	DB	0cH
	DB	058H
	DB	034H
	DB	00H
	DB	0cH
	DB	050H
	DB	034H
	DB	00H
	DB	0cH
	DB	058H
	DB	034H
	DB	00H
	DB	0cH
	DB	050H
	DB	034H
	DB	00H
	DB	0cH
	DB	058H
	DB	034H
	DB	00H
	DB	0cH
	DB	050H
	DB	034H
	DB	00H
	DB	0cH
	DB	058H
	DB	034H
	DB	00H
	DB	0cH
	DB	050H
	DB	034H
	DB	00H
	DB	0cH
	DB	058H
	DB	034H
	DB	00H
	DB	0cH
	DB	050H
	DB	034H
	DB	00H
	DB	0cH
	DB	058H
	DB	034H
	DB	00H
	DB	0cH
	DB	050H
	DB	034H
	DB	00H
	DB	0cH
	DB	058H
	DB	034H
	DB	00H
	DB	0cH
	DB	050H
	DB	034H
	DB	00H
	DB	0cH
	DB	058H
	DB	034H
	DB	00H
	DB	0cH
	DB	050H
	DB	034H
	DB	00H
	DB	0cH
	DB	058H
	DB	034H
	DB	00H
	DB	0cH
	DB	050H
	DB	034H
	DB	00H
	DB	0cH
	DB	058H
	DB	034H
	DB	00H
	DB	0cH
	DB	050H
	DB	034H
	DB	00H
	DB	0cH
	DB	058H
	DB	034H
	DB	00H
	DB	0cH
	DB	050H
	DB	034H
	DB	00H
	DB	0cH
	DB	058H
	DB	034H
	DB	00H
	DB	0cH
	DB	050H
	DB	034H
	DB	00H
	DB	0cH
	DB	058H
	DB	034H
	DB	00H
	DB	0cH
	DB	050H
	DB	034H
	DB	00H
	DB	0cH
	DB	058H
	DB	034H
	DB	00H
	DB	0cH
	DB	050H
	DB	034H
	DB	00H
	DB	0cH
	DB	058H
	DB	034H
	DB	00H
	DB	0cH
	DB	050H
	DB	034H
	DB	00H
	DB	0cH
	DB	058H
	DB	034H
	DB	00H
	DB	0cH
	DB	050H
	DB	034H
	DB	00H
	DB	0cH
	DB	058H
	DB	034H
	DB	00H
	DB	0cH
	DB	050H
	DB	034H
	DB	00H
	DB	0cH
	DB	058H
	DB	034H
	DB	00H
	DB	0cH
	DB	050H
	DB	034H
	DB	00H
	DB	0cH
	DB	058H
	DB	034H
	DB	00H
	DB	0cH
	DB	050H
	DB	034H
	DB	00H
	DB	0cH
	DB	058H
	DB	034H
	DB	00H
	DB	0cH
	DB	050H
	DB	034H
	DB	00H
	DB	0cH
	DB	058H
	DB	034H
	DB	00H
	DB	0cH
	DB	050H
	DB	034H
	DB	00H
	DB	0cH
	DB	058H
	DB	034H
	DB	00H
	DB	0cH
	DB	050H
	DB	034H
	DB	00H
	DB	0cH
	DB	058H
	DB	034H
	DB	00H
	DB	0cH
	DB	050H
	DB	034H
	DB	00H
	DB	0cH
	DB	058H
	DB	034H
	DB	00H
	DB	0cH
	DB	050H
	DB	034H
	DB	00H
	DB	0cH
	DB	058H
	DB	034H
	DB	00H
	DB	0cH
	DB	050H
	DB	034H
	DB	00H
	DB	0cH
	DB	058H
	DB	034H
	DB	00H
	DB	0cH
	DB	050H
	DB	034H
	DB	00H
	DB	0cH
	DB	058H
	DB	034H
	DB	00H
	DB	0cH
	DB	050H
	DB	034H
	DB	00H
	DB	0cH
	DB	058H
	DB	034H
	DB	00H
	DB	0cH
	DB	050H
	DB	034H
	DB	00H
	DB	0cH
	DB	058H
	DB	034H
	DB	00H
	DB	0cH
	DB	050H
	DB	034H
	DB	00H
	DB	0cH
	DB	058H
	DB	034H
	DB	00H
	DB	0cH
	DB	050H
	DB	034H
	DB	00H
	DB	0cH
	DB	058H
	DB	034H
	DB	00H
	DB	0cH
	DB	050H
	DB	034H
	DB	00H
	DB	0cH
	DB	058H
	DB	034H
	DB	00H
	DB	0cH
	DB	050H
	DB	034H
	DB	00H
	DB	0cH
	DB	058H
	DB	034H
	DB	00H
	DB	0cH
	DB	050H
	DB	034H
	DB	00H
	DB	0cH
	DB	058H
	DB	034H
	DB	00H
	DB	0cH
	DB	050H
	DB	034H
	DB	00H
	DB	0cH
	DB	058H
	DB	034H
	DB	00H
	DB	0cH
	DB	050H
	DB	034H
	DB	00H
	DB	0cH
	DB	058H
	DB	034H
	DB	00H
	DB	0cH
	DB	050H
	DB	034H
	DB	00H
	DB	0cH
	DB	058H
	DB	034H
	DB	00H
	DB	0cH
	DB	050H
	DB	034H
	DB	00H
	DB	0cH
	DB	058H
	DB	034H
	DB	00H
	DB	0cH
	DB	050H
	DB	034H
	DB	00H
	DB	0cH
	DB	058H
	DB	034H
	DB	00H
	DB	0cH
	DB	050H
	DB	034H
	DB	00H
	DB	0cH
	DB	058H
	DB	034H
	DB	00H
	DB	0cH
	DB	050H
	DB	034H
	DB	00H
	DB	0cH
	DB	058H
	DB	034H
	DB	00H
	DB	0cH
	DB	050H
	DB	034H
	DB	00H
	DB	0cH
	DB	058H
	DB	034H
	DB	00H
	DB	0cH
	DB	050H
	DB	034H
	DB	00H
	DB	0cH
	DB	058H
	DB	034H
	DB	00H
	DB	0cH
	DB	050H
	DB	034H
	DB	00H
	DB	0cH
	DB	058H
	DB	034H
	DB	00H
	DB	0cH
	DB	050H
	DB	034H
	DB	00H
	DB	0cH
	DB	058H
	DB	034H
	DB	00H
	DB	0cH
	DB	050H
	DB	034H
	DB	00H
	DB	0cH
	DB	058H
	DB	034H
	DB	00H
	DB	0cH
	DB	050H
	DB	034H
	DB	00H
	DB	0cH
	DB	058H
	DB	034H
	DB	00H
	DB	0cH
	DB	050H
	DB	034H
	DB	00H
	DB	0cH
	DB	058H
	DB	034H
	DB	00H
	DB	0cH
	DB	050H
	DB	034H
	DB	00H
	DB	0cH
	DB	058H
	DB	034H
	DB	00H
	DB	0cH
	DB	050H
	DB	034H
	DB	00H
	DB	0cH
	DB	058H
	DB	034H
	DB	00H
	DB	0cH
	DB	050H
	DB	034H
	DB	00H
	DB	0cH
	DB	058H
	DB	034H
	DB	00H
	DB	0cH
	DB	050H
	DB	034H
	DB	00H
	DB	0cH
	DB	058H
	DB	034H
	DB	00H
	DB	0cH
	DB	050H
	DB	034H
	DB	00H
	DB	0cH
	DB	058H
	DB	034H
	DB	00H
	DB	0cH
	DB	050H
	DB	034H
	DB	00H
	DB	0cH
	DB	058H
	DB	034H
	DB	00H
	DB	0cH
	DB	050H
	DB	034H
	DB	00H
	DB	0cH
	DB	058H
	DB	034H
	DB	00H
	DB	0cH
	DB	050H
	DB	034H
	DB	00H
	DB	0cH
	DB	058H
	DB	034H
	DB	00H
	DB	0cH
	DB	050H
	DB	034H
	DB	00H
	DB	0cH
	DB	058H
	DB	034H
	DB	00H
	DB	0cH
	DB	050H
	DB	034H
	DB	00H
	DB	0cH
	DB	058H
	DB	034H
	DB	00H
	DB	0cH
	DB	050H
	DB	034H
	DB	00H
	DB	0cH
	DB	058H
	DB	034H
	DB	00H
	DB	0cH
	DB	050H
	DB	034H
	DB	00H
	DB	0cH
	DB	058H
	DB	034H
	DB	00H
	DB	0cH
	DB	050H
	DB	034H
	DB	00H
	DB	0cH
	DB	058H
	DB	034H
	DB	00H
	DB	0cH
	DB	050H
	DB	034H
	DB	00H
	DB	0cH
	DB	058H
	DB	034H
	DB	00H
	DB	0cH
	DB	050H
	DB	034H
	DB	00H
	DB	0cH
	DB	058H
	DB	034H
	DB	00H
	DB	0cH
	DB	050H
	DB	034H
	DB	00H
	DB	0cH
	DB	058H
	DB	034H
	DB	00H
	DB	0cH
	DB	050H
	DB	034H
	DB	00H
	DB	0cH
	DB	058H
	DB	034H
	DB	00H
	DB	0cH
	DB	050H
	DB	034H
	DB	00H
	DB	0cH
	DB	058H
	DB	034H
	DB	00H
	DB	0cH
	DB	050H
	DB	034H
	DB	00H
	DB	0cH
	DB	058H
	DB	034H
	DB	00H
	DB	0cH
	DB	050H
	DB	034H
	DB	00H
	DB	0cH
	DB	058H
	DB	034H
	DB	00H
	DB	0cH
	DB	050H
	DB	034H
	DB	00H
	DB	0cH
	DB	058H
	DB	034H
	DB	00H
	DB	0cH
	DB	050H
	DB	034H
	DB	00H
	DB	0cH
	DB	058H
	DB	034H
	DB	00H
	DB	0cH
	DB	050H
	DB	034H
	DB	00H
	DB	0cH
	DB	058H
	DB	034H
	DB	00H
	DB	0cH
	DB	050H
	DB	034H
	DB	00H
	DB	0cH
	DB	058H
	DB	034H
	DB	00H
	DB	0cH
	DB	050H
	DB	034H
	DB	00H
	DB	0cH
	DB	058H
	DB	034H
	DB	00H
	DB	0cH
	DB	050H
	DB	034H
	DB	00H
	DB	0cH
	DB	058H
	DB	034H
	DB	00H
	DB	0cH
	DB	050H
	DB	034H
	DB	00H
	DB	0cH
	DB	058H
	DB	034H
	DB	00H
	DB	0cH
	DB	050H
	DB	034H
	DB	00H
	DB	0cH
	DB	058H
	DB	034H
	DB	00H
	DB	0cH
	DB	050H
	DB	034H
	DB	00H
	DB	0cH
	DB	058H
	DB	034H
	DB	00H
	DB	0cH
	DB	050H
	DB	034H
	DB	00H
	DB	0cH
	DB	058H
	DB	034H
	DB	00H
	DB	0cH
	DB	050H
	DB	034H
	DB	00H
	DB	0cH
	DB	058H
	DB	034H
	DB	00H
	DB	0cH
	DB	050H
	DB	034H
	DB	00H
	DB	0cH
	DB	058H
	DB	034H
	DB	00H
	DB	0cH
	DB	050H
	DB	034H
	DB	00H
	DB	0cH
	DB	058H
	DB	034H
	DB	00H
	DB	0cH
	DB	050H
	DB	034H
	DB	00H
	DB	0cH
	DB	058H
	DB	034H
	DB	00H
	DB	0cH
	DB	050H
	DB	034H
	DB	00H
	DB	0cH
	DB	058H
	DB	034H
	DB	00H
	DB	0cH
	DB	050H
	DB	034H
	DB	00H
	DB	0cH
	DB	058H
	DB	034H
	DB	00H
	DB	0cH
	DB	050H
	DB	034H
	DB	00H
	DB	0cH
	DB	058H
	DB	034H
	DB	00H
	DB	0cH
	DB	050H
	DB	034H
	DB	00H
	DB	0cH
	DB	058H
	DB	034H
	DB	00H
	DB	0cH
	DB	050H
	DB	034H
	DB	00H
	DB	0cH
	DB	058H
	DB	034H
	DB	00H
	DB	0cH
	DB	050H
	DB	034H
	DB	00H
	DB	0cH
	DB	058H
	DB	034H
	DB	00H
	DB	0cH
	DB	050H
	DB	034H
	DB	00H
	DB	0cH
	DB	058H
	DB	034H
	DB	00H
	DB	0cH
	DB	050H
	DB	034H
	DB	00H
	DB	0cH
	DB	058H
	DB	034H
	DB	00H
	DB	0cH
	DB	050H
	DB	034H
	DB	00H
	DB	0cH
	DB	058H
	DB	034H
	DB	00H
	DB	0cH
	DB	050H
	DB	034H
	DB	00H
	DB	0cH
	DB	058H
	DB	034H
	DB	00H
	DB	0cH
	DB	050H
	DB	034H
	DB	00H
	DB	0cH
	DB	058H
	DB	034H
	DB	00H
	DB	0cH
	DB	050H
	DB	034H
	DB	00H
	DB	0cH
	DB	058H
	DB	034H
	DB	00H
	DB	0cH
	DB	050H
	DB	034H
	DB	00H
	DB	0cH
	DB	058H
	DB	034H
	DB	00H
	DB	0cH
	DB	050H
	DB	034H
	DB	00H
	DB	0cH
	DB	058H
	DB	034H
	DB	00H
	DB	0cH
	DB	050H
	DB	034H
	DB	00H
	DB	0cH
	DB	058H
	DB	034H
	DB	00H
	DB	0cH
	DB	050H
	DB	034H
	DB	00H
	DB	0cH
	DB	058H
	DB	034H
	DB	00H
	DB	08H
	DB	050H
	DB	034H
	DB	00H
	DB	08H
	DB	058H
	DB	034H
	DB	00H
	DB	08H
	DB	050H
	DB	034H
	DB	00H
	DB	08H
	DB	058H
	DB	034H
	DB	00H
	DB	08H
	DB	050H
	DB	034H
	DB	00H
	DB	04H
	DB	058H
	DB	034H
	DB	00H
	DB	04H
	DB	050H
	DB	034H
	DB	00H
	DB	04H
	DB	058H
	DB	034H
	DB	00H
	DB	04H
	DB	050H
	DB	034H
	DB	00H
	DB	00H
	DB	058H
	DB	034H
	DB	00H
	DB	00H
	DB	050H
	DB	034H
	DB	00H
	DB	00H
	DB	058H
	DB	034H
	DB	00H
	DB	00H
	DB	050H
	DB	034H
	DB	00H
	DB	00H
	DB	058H
	DB	034H
	DB	00H
	DB	00H
	DB	058H
	DB	034H
	DB	00H
	DB	00H
	DB	050H
	DB	034H
	DB	00H
	DB	00H
	DB	058H
	DB	034H
	DB	00H
	DB	00H
	DB	0f8H
	DB	0fcH
	DB	0f8H
	DB	00H
	DB	0f8H
	DB	0fcH
	DB	0f8H
	DB	00H
	DB	0f8H
	DB	0fcH
	DB	0f8H
	DB	00H
	DB	050H
	DB	030H
	DB	00H
	DB	00H
	DB	058H
	DB	034H
	DB	00H
	DB	00H
	DB	058H
	DB	034H
	DB	00H
	DB	00H
	DB	050H
	DB	030H
	DB	00H
	DB	00H
	DB	058H
	DB	030H
	DB	00H
	DB	00H
	DB	058H
	DB	034H
	DB	00H
	DB	00H
	DB	058H
	DB	034H
	DB	00H
	DB	00H
	DB	050H
	DB	030H
	DB	00H
	DB	04H
	DB	058H
	DB	030H
	DB	00H
	DB	04H
	DB	058H
	DB	034H
	DB	00H
	DB	04H
	DB	050H
	DB	034H
	DB	00H
	DB	08H
	DB	058H
	DB	030H
	DB	00H
	DB	08H
	DB	058H
	DB	030H
	DB	00H
	DB	08H
	DB	050H
	DB	034H
	DB	00H
	DB	0cH
	DB	058H
	DB	034H
	DB	00H
	DB	010H
	DB	058H
	DB	030H
	DB	00H
	DB	010H
	DB	050H
	DB	030H
	DB	00H
	DB	010H
	DB	058H
	DB	034H
	DB	00H
	DB	010H
	DB	058H
	DB	034H
	DB	00H
	DB	010H
	DB	050H
	DB	030H
	DB	00H
	DB	014H
	DB	058H
	DB	030H
	DB	00H
	DB	014H
	DB	058H
	DB	034H
	DB	00H
	DB	010H
	DB	050H
	DB	034H
	DB	00H
	DB	014H
	DB	058H
	DB	030H
	DB	00H
	DB	014H
	DB	058H
	DB	030H
	DB	00H
	DB	010H
	DB	050H
	DB	034H
	DB	00H
	DB	014H
	DB	058H
	DB	034H
	DB	00H
	DB	014H
	DB	058H
	DB	030H
	DB	00H
	DB	010H
	DB	050H
	DB	030H
	DB	00H
	DB	014H
	DB	058H
	DB	034H
	DB	00H
	DB	014H
	DB	058H
	DB	034H
	DB	00H
	DB	010H
	DB	050H
	DB	030H
	DB	00H
	DB	014H
	DB	058H
	DB	030H
	DB	00H
	DB	014H
	DB	058H
	DB	034H
	DB	00H
	DB	010H
	DB	050H
	DB	034H
	DB	00H
	DB	014H
	DB	058H
	DB	030H
	DB	00H
	DB	014H
	DB	058H
	DB	030H
	DB	00H
	DB	010H
	DB	050H
	DB	034H
	DB	00H
	DB	014H
	DB	058H
	DB	034H
	DB	00H
	DB	014H
	DB	058H
	DB	030H
	DB	00H
	DB	010H
	DB	050H
	DB	030H
	DB	00H
	DB	014H
	DB	058H
	DB	034H
	DB	00H
	DB	014H
	DB	058H
	DB	034H
	DB	00H
	DB	010H
	DB	050H
	DB	030H
	DB	00H
	DB	014H
	DB	058H
	DB	030H
	DB	00H
	DB	014H
	DB	058H
	DB	034H
	DB	00H
	DB	010H
	DB	050H
	DB	034H
	DB	00H
	DB	014H
	DB	058H
	DB	030H
	DB	00H
	DB	014H
	DB	058H
	DB	030H
	DB	00H
	DB	010H
	DB	050H
	DB	034H
	DB	00H
	DB	014H
	DB	058H
	DB	034H
	DB	00H
	DB	014H
	DB	058H
	DB	030H
	DB	00H
	DB	010H
	DB	050H
	DB	030H
	DB	00H
	DB	014H
	DB	058H
	DB	034H
	DB	00H
	DB	014H
	DB	058H
	DB	034H
	DB	00H
	DB	010H
	DB	050H
	DB	030H
	DB	00H
	DB	014H
	DB	058H
	DB	030H
	DB	00H
	DB	014H
	DB	058H
	DB	034H
	DB	00H
	DB	010H
	DB	050H
	DB	034H
	DB	00H
	DB	014H
	DB	058H
	DB	030H
	DB	00H
	DB	014H
	DB	058H
	DB	030H
	DB	00H
	DB	010H
	DB	050H
	DB	034H
	DB	00H
	DB	014H
	DB	058H
	DB	034H
	DB	00H
	DB	014H
	DB	058H
	DB	030H
	DB	00H
	DB	010H
	DB	050H
	DB	030H
	DB	00H
	DB	014H
	DB	058H
	DB	034H
	DB	00H
	DB	014H
	DB	058H
	DB	034H
	DB	00H
	DB	010H
	DB	050H
	DB	030H
	DB	00H
	DB	014H
	DB	058H
	DB	030H
	DB	00H
	DB	014H
	DB	058H
	DB	034H
	DB	00H
	DB	010H
	DB	050H
	DB	034H
	DB	00H
	DB	014H
	DB	058H
	DB	030H
	DB	00H
	DB	014H
	DB	058H
	DB	030H
	DB	00H
	DB	010H
	DB	050H
	DB	034H
	DB	00H
	DB	014H
	DB	058H
	DB	034H
	DB	00H
	DB	014H
	DB	058H
	DB	030H
	DB	00H
	DB	010H
	DB	050H
	DB	030H
	DB	00H
	DB	014H
	DB	058H
	DB	034H
	DB	00H
	DB	014H
	DB	058H
	DB	034H
	DB	00H
	DB	010H
	DB	050H
	DB	030H
	DB	00H
	DB	014H
	DB	058H
	DB	030H
	DB	00H
	DB	014H
	DB	058H
	DB	034H
	DB	00H
	DB	010H
	DB	050H
	DB	034H
	DB	00H
	DB	014H
	DB	058H
	DB	030H
	DB	00H
	DB	014H
	DB	058H
	DB	030H
	DB	00H
	DB	010H
	DB	050H
	DB	034H
	DB	00H
	DB	014H
	DB	058H
	DB	034H
	DB	00H
	DB	014H
	DB	058H
	DB	030H
	DB	00H
	DB	010H
	DB	050H
	DB	030H
	DB	00H
	DB	014H
	DB	058H
	DB	034H
	DB	00H
	DB	014H
	DB	058H
	DB	034H
	DB	00H
	DB	010H
	DB	050H
	DB	030H
	DB	00H
	DB	010H
	DB	058H
	DB	030H
	DB	00H
	DB	014H
	DB	058H
	DB	034H
	DB	00H
	DB	014H
	DB	050H
	DB	034H
	DB	00H
	DB	014H
	DB	058H
	DB	030H
	DB	00H
	DB	014H
	DB	058H
	DB	030H
	DB	00H
	DB	014H
	DB	050H
	DB	034H
	DB	00H
	DB	014H
	DB	058H
	DB	034H
	DB	00H
	DB	018H
	DB	058H
	DB	030H
	DB	00H
	DB	018H
	DB	050H
	DB	030H
	DB	00H
	DB	014H
	DB	058H
	DB	034H
	DB	00H
	DB	014H
	DB	058H
	DB	034H
	DB	00H
	DB	014H
	DB	050H
	DB	030H
	DB	00H
	DB	014H
	DB	058H
	DB	030H
	DB	00H
	DB	014H
	DB	058H
	DB	034H
	DB	00H
	DB	014H
	DB	050H
	DB	034H
	DB	00H
	DB	010H
	DB	058H
	DB	030H
	DB	00H
	DB	014H
	DB	058H
	DB	030H
	DB	00H
	DB	010H
	DB	050H
	DB	034H
	DB	00H
	DB	014H
	DB	058H
	DB	034H
	DB	00H
	DB	014H
	DB	058H
	DB	030H
	DB	00H
	DB	010H
	DB	050H
	DB	030H
	DB	00H
	DB	014H
	DB	058H
	DB	034H
	DB	00H
	DB	014H
	DB	058H
	DB	034H
	DB	00H
	DB	010H
	DB	050H
	DB	030H
	DB	00H
	DB	014H
	DB	058H
	DB	030H
	DB	00H
	DB	014H
	DB	058H
	DB	034H
	DB	00H
	DB	010H
	DB	050H
	DB	034H
	DB	00H
	DB	014H
	DB	058H
	DB	030H
	DB	00H
	DB	014H
	DB	058H
	DB	030H
	DB	00H
	DB	010H
	DB	050H
	DB	034H
	DB	00H
	DB	014H
	DB	058H
	DB	034H
	DB	00H
	DB	014H
	DB	058H
	DB	030H
	DB	00H
	DB	010H
	DB	050H
	DB	030H
	DB	00H
	DB	014H
	DB	058H
	DB	034H
	DB	00H
	DB	014H
	DB	058H
	DB	034H
	DB	00H
	DB	010H
	DB	050H
	DB	030H
	DB	00H
	DB	014H
	DB	058H
	DB	030H
	DB	00H
	DB	014H
	DB	058H
	DB	034H
	DB	00H
	DB	010H
	DB	050H
	DB	034H
	DB	00H
	DB	014H
	DB	058H
	DB	030H
	DB	00H
	DB	014H
	DB	058H
	DB	030H
	DB	00H
	DB	010H
	DB	050H
	DB	034H
	DB	00H
	DB	014H
	DB	058H
	DB	034H
	DB	00H
	DB	014H
	DB	058H
	DB	030H
	DB	00H
	DB	010H
	DB	050H
	DB	030H
	DB	00H
	DB	014H
	DB	058H
	DB	034H
	DB	00H
	DB	014H
	DB	058H
	DB	034H
	DB	00H
	DB	010H
	DB	050H
	DB	030H
	DB	00H
	DB	014H
	DB	058H
	DB	030H
	DB	00H
	DB	014H
	DB	058H
	DB	034H
	DB	00H
	DB	010H
	DB	050H
	DB	034H
	DB	00H
	DB	014H
	DB	058H
	DB	030H
	DB	00H
	DB	014H
	DB	058H
	DB	030H
	DB	00H
	DB	010H
	DB	050H
	DB	034H
	DB	00H
	DB	014H
	DB	058H
	DB	034H
	DB	00H
	DB	014H
	DB	058H
	DB	030H
	DB	00H
	DB	010H
	DB	050H
	DB	030H
	DB	00H
	DB	014H
	DB	058H
	DB	034H
	DB	00H
	DB	014H
	DB	058H
	DB	034H
	DB	00H
	DB	010H
	DB	050H
	DB	030H
	DB	00H
	DB	014H
	DB	058H
	DB	030H
	DB	00H
	DB	014H
	DB	058H
	DB	034H
	DB	00H
	DB	010H
	DB	050H
	DB	034H
	DB	00H
	DB	014H
	DB	058H
	DB	030H
	DB	00H
	DB	014H
	DB	058H
	DB	030H
	DB	00H
	DB	010H
	DB	050H
	DB	034H
	DB	00H
	DB	014H
	DB	058H
	DB	034H
	DB	00H
	DB	014H
	DB	058H
	DB	030H
	DB	00H
	DB	010H
	DB	050H
	DB	030H
	DB	00H
	DB	014H
	DB	058H
	DB	034H
	DB	00H
	DB	014H
	DB	058H
	DB	034H
	DB	00H
	DB	010H
	DB	050H
	DB	030H
	DB	00H
	DB	014H
	DB	058H
	DB	030H
	DB	00H
	DB	014H
	DB	058H
	DB	034H
	DB	00H
	DB	010H
	DB	050H
	DB	034H
	DB	00H
	DB	014H
	DB	058H
	DB	030H
	DB	00H
	DB	014H
	DB	058H
	DB	030H
	DB	00H
	DB	010H
	DB	050H
	DB	034H
	DB	00H
	DB	014H
	DB	058H
	DB	034H
	DB	00H
	DB	014H
	DB	058H
	DB	030H
	DB	00H
	DB	010H
	DB	050H
	DB	030H
	DB	00H
	DB	014H
	DB	058H
	DB	034H
	DB	00H
	DB	014H
	DB	058H
	DB	034H
	DB	00H
	DB	010H
	DB	050H
	DB	030H
	DB	00H
	DB	014H
	DB	058H
	DB	030H
	DB	00H
	DB	014H
	DB	058H
	DB	034H
	DB	00H
	DB	010H
	DB	050H
	DB	034H
	DB	00H
	DB	014H
	DB	058H
	DB	030H
	DB	00H
	DB	014H
	DB	058H
	DB	030H
	DB	00H
	DB	010H
	DB	050H
	DB	034H
	DB	00H
	DB	014H
	DB	058H
	DB	034H
	DB	00H
	DB	014H
	DB	058H
	DB	030H
	DB	00H
	DB	010H
	DB	050H
	DB	030H
	DB	00H
	DB	014H
	DB	058H
	DB	034H
	DB	00H
	DB	014H
	DB	058H
	DB	034H
	DB	00H
	DB	010H
	DB	050H
	DB	030H
	DB	00H
	DB	014H
	DB	058H
	DB	030H
	DB	00H
	DB	014H
	DB	058H
	DB	034H
	DB	00H
	DB	010H
	DB	050H
	DB	034H
	DB	00H
	DB	014H
	DB	058H
	DB	030H
	DB	00H
	DB	014H
	DB	058H
	DB	030H
	DB	00H
	DB	010H
	DB	050H
	DB	034H
	DB	00H
	DB	014H
	DB	058H
	DB	034H
	DB	00H
	DB	014H
	DB	058H
	DB	030H
	DB	00H
	DB	010H
	DB	050H
	DB	030H
	DB	00H
	DB	014H
	DB	058H
	DB	034H
	DB	00H
	DB	014H
	DB	058H
	DB	034H
	DB	00H
	DB	010H
	DB	050H
	DB	030H
	DB	00H
	DB	014H
	DB	058H
	DB	030H
	DB	00H
	DB	014H
	DB	058H
	DB	034H
	DB	00H
	DB	010H
	DB	050H
	DB	034H
	DB	00H
	DB	014H
	DB	058H
	DB	030H
	DB	00H
	DB	014H
	DB	058H
	DB	030H
	DB	00H
	DB	010H
	DB	050H
	DB	034H
	DB	00H
	DB	014H
	DB	058H
	DB	034H
	DB	00H
	DB	014H
	DB	058H
	DB	030H
	DB	00H
	DB	010H
	DB	050H
	DB	030H
	DB	00H
	DB	014H
	DB	058H
	DB	034H
	DB	00H
	DB	014H
	DB	058H
	DB	034H
	DB	00H
	DB	010H
	DB	050H
	DB	030H
	DB	00H
	DB	014H
	DB	058H
	DB	030H
	DB	00H
	DB	014H
	DB	058H
	DB	034H
	DB	00H
	DB	010H
	DB	050H
	DB	034H
	DB	00H
	DB	014H
	DB	058H
	DB	030H
	DB	00H
	DB	014H
	DB	058H
	DB	030H
	DB	00H
	DB	010H
	DB	050H
	DB	034H
	DB	00H
	DB	014H
	DB	058H
	DB	034H
	DB	00H
	DB	014H
	DB	058H
	DB	030H
	DB	00H
	DB	010H
	DB	050H
	DB	030H
	DB	00H
	DB	014H
	DB	058H
	DB	034H
	DB	00H
	DB	014H
	DB	058H
	DB	034H
	DB	00H
	DB	010H
	DB	050H
	DB	030H
	DB	00H
	DB	014H
	DB	058H
	DB	030H
	DB	00H
	DB	014H
	DB	058H
	DB	034H
	DB	00H
	DB	010H
	DB	050H
	DB	034H
	DB	00H
	DB	014H
	DB	058H
	DB	030H
	DB	00H
	DB	014H
	DB	058H
	DB	030H
	DB	00H
	DB	010H
	DB	050H
	DB	034H
	DB	00H
	DB	014H
	DB	058H
	DB	034H
	DB	00H
	DB	014H
	DB	058H
	DB	030H
	DB	00H
	DB	010H
	DB	050H
	DB	030H
	DB	00H
	DB	014H
	DB	058H
	DB	034H
	DB	00H
	DB	014H
	DB	058H
	DB	034H
	DB	00H
	DB	010H
	DB	050H
	DB	030H
	DB	00H
	DB	014H
	DB	058H
	DB	030H
	DB	00H
	DB	014H
	DB	058H
	DB	034H
	DB	00H
	DB	010H
	DB	050H
	DB	034H
	DB	00H
	DB	014H
	DB	058H
	DB	030H
	DB	00H
	DB	014H
	DB	058H
	DB	030H
	DB	00H
	DB	010H
	DB	050H
	DB	034H
	DB	00H
	DB	014H
	DB	058H
	DB	034H
	DB	00H
	DB	014H
	DB	058H
	DB	030H
	DB	00H
	DB	010H
	DB	050H
	DB	030H
	DB	00H
	DB	014H
	DB	058H
	DB	034H
	DB	00H
	DB	014H
	DB	058H
	DB	034H
	DB	00H
	DB	010H
	DB	050H
	DB	030H
	DB	00H
	DB	014H
	DB	058H
	DB	030H
	DB	00H
	DB	014H
	DB	058H
	DB	034H
	DB	00H
	DB	010H
	DB	050H
	DB	034H
	DB	00H
	DB	014H
	DB	058H
	DB	030H
	DB	00H
	DB	014H
	DB	058H
	DB	030H
	DB	00H
	DB	010H
	DB	050H
	DB	034H
	DB	00H
	DB	014H
	DB	058H
	DB	034H
	DB	00H
	DB	014H
	DB	058H
	DB	030H
	DB	00H
	DB	010H
	DB	050H
	DB	030H
	DB	00H
	DB	014H
	DB	058H
	DB	034H
	DB	00H
	DB	014H
	DB	058H
	DB	034H
	DB	00H
	DB	010H
	DB	050H
	DB	030H
	DB	00H
	DB	014H
	DB	058H
	DB	030H
	DB	00H
	DB	014H
	DB	058H
	DB	034H
	DB	00H
	DB	010H
	DB	050H
	DB	034H
	DB	00H
	DB	014H
	DB	058H
	DB	030H
	DB	00H
	DB	014H
	DB	058H
	DB	030H
	DB	00H
	DB	010H
	DB	050H
	DB	034H
	DB	00H
	DB	014H
	DB	058H
	DB	034H
	DB	00H
	DB	014H
	DB	058H
	DB	030H
	DB	00H
	DB	010H
	DB	050H
	DB	030H
	DB	00H
	DB	014H
	DB	058H
	DB	034H
	DB	00H
	DB	014H
	DB	058H
	DB	034H
	DB	00H
	DB	010H
	DB	050H
	DB	030H
	DB	00H
	DB	014H
	DB	058H
	DB	030H
	DB	00H
	DB	014H
	DB	058H
	DB	034H
	DB	00H
	DB	010H
	DB	050H
	DB	034H
	DB	00H
	DB	014H
	DB	058H
	DB	030H
	DB	00H
	DB	014H
	DB	058H
	DB	030H
	DB	00H
	DB	010H
	DB	050H
	DB	034H
	DB	00H
	DB	014H
	DB	058H
	DB	034H
	DB	00H
	DB	014H
	DB	058H
	DB	030H
	DB	00H
	DB	010H
	DB	050H
	DB	030H
	DB	00H
	DB	014H
	DB	058H
	DB	034H
	DB	00H
	DB	014H
	DB	058H
	DB	034H
	DB	00H
	DB	010H
	DB	050H
	DB	030H
	DB	00H
	DB	014H
	DB	058H
	DB	030H
	DB	00H
	DB	014H
	DB	058H
	DB	034H
	DB	00H
	DB	010H
	DB	050H
	DB	034H
	DB	00H
	DB	014H
	DB	058H
	DB	030H
	DB	00H
	DB	014H
	DB	058H
	DB	030H
	DB	00H
	DB	010H
	DB	050H
	DB	034H
	DB	00H
	DB	014H
	DB	058H
	DB	034H
	DB	00H
	DB	014H
	DB	058H
	DB	030H
	DB	00H
	DB	010H
	DB	050H
	DB	030H
	DB	00H
	DB	014H
	DB	058H
	DB	034H
	DB	00H
	DB	014H
	DB	058H
	DB	034H
	DB	00H
	DB	010H
	DB	050H
	DB	030H
	DB	00H
	DB	014H
	DB	058H
	DB	030H
	DB	00H
	DB	014H
	DB	058H
	DB	034H
	DB	00H
	DB	010H
	DB	050H
	DB	034H
	DB	00H
	DB	014H
	DB	058H
	DB	030H
	DB	00H
	DB	014H
	DB	058H
	DB	030H
	DB	00H
	DB	010H
	DB	050H
	DB	034H
	DB	00H
	DB	014H
	DB	058H
	DB	034H
	DB	00H
	DB	014H
	DB	058H
	DB	030H
	DB	00H
	DB	010H
	DB	050H
	DB	030H
	DB	00H
	DB	014H
	DB	058H
	DB	034H
	DB	00H
	DB	014H
	DB	058H
	DB	034H
	DB	00H
	DB	010H
	DB	050H
	DB	030H
	DB	00H
	DB	014H
	DB	058H
	DB	030H
	DB	00H
	DB	014H
	DB	058H
	DB	034H
	DB	00H
	DB	010H
	DB	050H
	DB	034H
	DB	00H
	DB	014H
	DB	058H
	DB	030H
	DB	00H
	DB	014H
	DB	058H
	DB	030H
	DB	00H
	DB	010H
	DB	050H
	DB	034H
	DB	00H
	DB	014H
	DB	058H
	DB	034H
	DB	00H
	DB	014H
	DB	058H
	DB	030H
	DB	00H
	DB	010H
	DB	050H
	DB	030H
	DB	00H
	DB	014H
	DB	058H
	DB	034H
	DB	00H
	DB	014H
	DB	058H
	DB	034H
	DB	00H
	DB	010H
	DB	050H
	DB	030H
	DB	00H
	DB	014H
	DB	058H
	DB	030H
	DB	00H
	DB	014H
	DB	058H
	DB	034H
	DB	00H
	DB	010H
	DB	050H
	DB	034H
	DB	00H
	DB	014H
	DB	058H
	DB	030H
	DB	00H
	DB	014H
	DB	058H
	DB	030H
	DB	00H
	DB	010H
	DB	050H
	DB	034H
	DB	00H
	DB	014H
	DB	058H
	DB	034H
	DB	00H
	DB	014H
	DB	058H
	DB	030H
	DB	00H
	DB	010H
	DB	050H
	DB	030H
	DB	00H
	DB	014H
	DB	058H
	DB	034H
	DB	00H
	DB	014H
	DB	058H
	DB	034H
	DB	00H
	DB	010H
	DB	050H
	DB	030H
	DB	00H
	DB	014H
	DB	058H
	DB	030H
	DB	00H
	DB	014H
	DB	058H
	DB	034H
	DB	00H
	DB	010H
	DB	050H
	DB	034H
	DB	00H
	DB	014H
	DB	058H
	DB	030H
	DB	00H
	DB	014H
	DB	058H
	DB	030H
	DB	00H
	DB	010H
	DB	050H
	DB	034H
	DB	00H
	DB	014H
	DB	058H
	DB	034H
	DB	00H
	DB	014H
	DB	058H
	DB	030H
	DB	00H
	DB	010H
	DB	050H
	DB	030H
	DB	00H
	DB	014H
	DB	058H
	DB	034H
	DB	00H
	DB	014H
	DB	058H
	DB	034H
	DB	00H
	DB	010H
	DB	050H
	DB	030H
	DB	00H
	DB	014H
	DB	058H
	DB	030H
	DB	00H
	DB	014H
	DB	058H
	DB	034H
	DB	00H
	DB	010H
	DB	050H
	DB	034H
	DB	00H
	DB	014H
	DB	058H
	DB	030H
	DB	00H
	DB	014H
	DB	058H
	DB	030H
	DB	00H
	DB	010H
	DB	050H
	DB	034H
	DB	00H
	DB	014H
	DB	058H
	DB	034H
	DB	00H
	DB	014H
	DB	058H
	DB	030H
	DB	00H
	DB	010H
	DB	050H
	DB	030H
	DB	00H
	DB	014H
	DB	058H
	DB	034H
	DB	00H
	DB	014H
	DB	058H
	DB	034H
	DB	00H
	DB	010H
	DB	050H
	DB	030H
	DB	00H
	DB	014H
	DB	058H
	DB	030H
	DB	00H
	DB	010H
	DB	058H
	DB	034H
	DB	00H
	DB	010H
	DB	050H
	DB	034H
	DB	00H
	DB	010H
	DB	058H
	DB	030H
	DB	00H
	DB	010H
	DB	058H
	DB	030H
	DB	00H
	DB	010H
	DB	050H
	DB	034H
	DB	00H
	DB	010H
	DB	058H
	DB	034H
	DB	00H
	DB	0cH
	DB	058H
	DB	030H
	DB	00H
	DB	08H
	DB	050H
	DB	030H
	DB	00H
	DB	08H
	DB	058H
	DB	034H
	DB	00H
	DB	08H
	DB	058H
	DB	034H
	DB	00H
	DB	04H
	DB	050H
	DB	030H
	DB	00H
	DB	04H
	DB	058H
	DB	030H
	DB	00H
	DB	00H
	DB	058H
	DB	034H
	DB	00H
	DB	00H
	DB	050H
	DB	034H
	DB	00H
	DB	00H
	DB	058H
	DB	030H
	DB	00H
	DB	00H
	DB	058H
	DB	030H
	DB	00H
	DB	00H
	DB	050H
	DB	034H
	DB	00H
	DB	00H
	DB	058H
	DB	034H
	DB	00H
	DB	00H
	DB	058H
	DB	030H
	DB	00H
	DB	00H
	DB	058H
	DB	030H
	DB	00H
	DB	00H
	DB	0f8H
	DB	0fcH
	DB	0f8H
	DB	00H
	DB	0f8H
	DB	0fcH
	DB	0f8H
	DB	00H
	DB	0f8H
	DB	0fcH
	DB	0f8H
	DB	00H
	DB	058H
	DB	034H
	DB	00H
	DB	00H
	DB	050H
	DB	030H
	DB	00H
	DB	00H
	DB	058H
	DB	034H
	DB	00H
	DB	00H
	DB	058H
	DB	034H
	DB	00H
	DB	00H
	DB	050H
	DB	034H
	DB	00H
	DB	00H
	DB	058H
	DB	034H
	DB	00H
	DB	00H
	DB	050H
	DB	030H
	DB	00H
	DB	04H
	DB	058H
	DB	034H
	DB	00H
	DB	04H
	DB	058H
	DB	034H
	DB	00H
	DB	04H
	DB	050H
	DB	034H
	DB	00H
	DB	08H
	DB	058H
	DB	034H
	DB	00H
	DB	0cH
	DB	058H
	DB	034H
	DB	00H
	DB	0cH
	DB	050H
	DB	034H
	DB	00H
	DB	010H
	DB	058H
	DB	030H
	DB	00H
	DB	014H
	DB	058H
	DB	034H
	DB	00H
	DB	014H
	DB	050H
	DB	034H
	DB	00H
	DB	018H
	DB	058H
	DB	034H
	DB	00H
	DB	018H
	DB	058H
	DB	034H
	DB	00H
	DB	018H
	DB	050H
	DB	030H
	DB	00H
	DB	018H
	DB	058H
	DB	034H
	DB	00H
	DB	01cH
	DB	058H
	DB	034H
	DB	00H
	DB	01cH
	DB	050H
	DB	034H
	DB	00H
	DB	01cH
	DB	058H
	DB	034H
	DB	00H
	DB	01cH
	DB	058H
	DB	034H
	DB	00H
	DB	01cH
	DB	050H
	DB	034H
	DB	00H
	DB	01cH
	DB	058H
	DB	030H
	DB	00H
	DB	01cH
	DB	058H
	DB	034H
	DB	00H
	DB	01cH
	DB	050H
	DB	034H
	DB	00H
	DB	01cH
	DB	058H
	DB	034H
	DB	00H
	DB	01cH
	DB	058H
	DB	034H
	DB	00H
	DB	01cH
	DB	050H
	DB	030H
	DB	00H
	DB	01cH
	DB	058H
	DB	034H
	DB	00H
	DB	01cH
	DB	058H
	DB	034H
	DB	00H
	DB	01cH
	DB	050H
	DB	034H
	DB	00H
	DB	01cH
	DB	058H
	DB	034H
	DB	00H
	DB	01cH
	DB	058H
	DB	034H
	DB	00H
	DB	01cH
	DB	050H
	DB	034H
	DB	00H
	DB	01cH
	DB	058H
	DB	030H
	DB	00H
	DB	01cH
	DB	058H
	DB	034H
	DB	00H
	DB	01cH
	DB	050H
	DB	034H
	DB	00H
	DB	01cH
	DB	058H
	DB	034H
	DB	00H
	DB	01cH
	DB	058H
	DB	034H
	DB	00H
	DB	01cH
	DB	050H
	DB	030H
	DB	00H
	DB	01cH
	DB	058H
	DB	034H
	DB	00H
	DB	01cH
	DB	058H
	DB	034H
	DB	00H
	DB	01cH
	DB	050H
	DB	034H
	DB	00H
	DB	01cH
	DB	058H
	DB	034H
	DB	00H
	DB	01cH
	DB	058H
	DB	034H
	DB	00H
	DB	01cH
	DB	050H
	DB	034H
	DB	00H
	DB	01cH
	DB	058H
	DB	030H
	DB	00H
	DB	01cH
	DB	058H
	DB	034H
	DB	00H
	DB	01cH
	DB	050H
	DB	034H
	DB	00H
	DB	01cH
	DB	058H
	DB	034H
	DB	00H
	DB	01cH
	DB	058H
	DB	034H
	DB	00H
	DB	01cH
	DB	050H
	DB	030H
	DB	00H
	DB	01cH
	DB	058H
	DB	034H
	DB	00H
	DB	01cH
	DB	058H
	DB	034H
	DB	00H
	DB	01cH
	DB	050H
	DB	034H
	DB	00H
	DB	01cH
	DB	058H
	DB	034H
	DB	00H
	DB	01cH
	DB	058H
	DB	034H
	DB	00H
	DB	01cH
	DB	050H
	DB	034H
	DB	00H
	DB	01cH
	DB	058H
	DB	030H
	DB	00H
	DB	01cH
	DB	058H
	DB	034H
	DB	00H
	DB	01cH
	DB	050H
	DB	034H
	DB	00H
	DB	01cH
	DB	058H
	DB	034H
	DB	00H
	DB	01cH
	DB	058H
	DB	034H
	DB	00H
	DB	01cH
	DB	050H
	DB	030H
	DB	00H
	DB	01cH
	DB	058H
	DB	034H
	DB	00H
	DB	01cH
	DB	058H
	DB	034H
	DB	00H
	DB	01cH
	DB	050H
	DB	034H
	DB	00H
	DB	01cH
	DB	058H
	DB	034H
	DB	00H
	DB	01cH
	DB	058H
	DB	034H
	DB	00H
	DB	01cH
	DB	050H
	DB	034H
	DB	00H
	DB	01cH
	DB	058H
	DB	030H
	DB	00H
	DB	01cH
	DB	058H
	DB	034H
	DB	00H
	DB	01cH
	DB	050H
	DB	034H
	DB	00H
	DB	01cH
	DB	058H
	DB	034H
	DB	00H
	DB	01cH
	DB	058H
	DB	034H
	DB	00H
	DB	01cH
	DB	050H
	DB	030H
	DB	00H
	DB	01cH
	DB	058H
	DB	034H
	DB	00H
	DB	01cH
	DB	058H
	DB	034H
	DB	00H
	DB	01cH
	DB	050H
	DB	034H
	DB	00H
	DB	01cH
	DB	058H
	DB	034H
	DB	00H
	DB	01cH
	DB	058H
	DB	034H
	DB	00H
	DB	01cH
	DB	050H
	DB	034H
	DB	00H
	DB	01cH
	DB	058H
	DB	030H
	DB	00H
	DB	01cH
	DB	058H
	DB	034H
	DB	00H
	DB	01cH
	DB	050H
	DB	034H
	DB	00H
	DB	01cH
	DB	058H
	DB	034H
	DB	00H
	DB	01cH
	DB	058H
	DB	034H
	DB	00H
	DB	01cH
	DB	050H
	DB	030H
	DB	00H
	DB	01cH
	DB	058H
	DB	034H
	DB	00H
	DB	01cH
	DB	058H
	DB	034H
	DB	00H
	DB	01cH
	DB	050H
	DB	034H
	DB	00H
	DB	01cH
	DB	058H
	DB	034H
	DB	00H
	DB	01cH
	DB	058H
	DB	034H
	DB	00H
	DB	020H
	DB	050H
	DB	034H
	DB	00H
	DB	020H
	DB	058H
	DB	030H
	DB	00H
	DB	020H
	DB	058H
	DB	034H
	DB	00H
	DB	020H
	DB	050H
	DB	034H
	DB	00H
	DB	020H
	DB	058H
	DB	034H
	DB	00H
	DB	020H
	DB	058H
	DB	034H
	DB	00H
	DB	020H
	DB	050H
	DB	030H
	DB	00H
	DB	020H
	DB	058H
	DB	034H
	DB	00H
	DB	01cH
	DB	058H
	DB	034H
	DB	00H
	DB	01cH
	DB	050H
	DB	034H
	DB	00H
	DB	01cH
	DB	058H
	DB	034H
	DB	00H
	DB	01cH
	DB	058H
	DB	034H
	DB	00H
	DB	01cH
	DB	050H
	DB	034H
	DB	00H
	DB	01cH
	DB	058H
	DB	030H
	DB	00H
	DB	01cH
	DB	058H
	DB	034H
	DB	00H
	DB	01cH
	DB	050H
	DB	034H
	DB	00H
	DB	01cH
	DB	058H
	DB	034H
	DB	00H
	DB	01cH
	DB	058H
	DB	034H
	DB	00H
	DB	01cH
	DB	050H
	DB	030H
	DB	00H
	DB	01cH
	DB	058H
	DB	034H
	DB	00H
	DB	01cH
	DB	058H
	DB	034H
	DB	00H
	DB	01cH
	DB	050H
	DB	034H
	DB	00H
	DB	01cH
	DB	058H
	DB	034H
	DB	00H
	DB	01cH
	DB	058H
	DB	034H
	DB	00H
	DB	01cH
	DB	050H
	DB	034H
	DB	00H
	DB	01cH
	DB	058H
	DB	030H
	DB	00H
	DB	01cH
	DB	058H
	DB	034H
	DB	00H
	DB	01cH
	DB	050H
	DB	034H
	DB	00H
	DB	01cH
	DB	058H
	DB	034H
	DB	00H
	DB	01cH
	DB	058H
	DB	034H
	DB	00H
	DB	01cH
	DB	050H
	DB	030H
	DB	00H
	DB	01cH
	DB	058H
	DB	034H
	DB	00H
	DB	01cH
	DB	058H
	DB	034H
	DB	00H
	DB	01cH
	DB	050H
	DB	034H
	DB	00H
	DB	01cH
	DB	058H
	DB	034H
	DB	00H
	DB	01cH
	DB	058H
	DB	034H
	DB	00H
	DB	01cH
	DB	050H
	DB	034H
	DB	00H
	DB	01cH
	DB	058H
	DB	030H
	DB	00H
	DB	01cH
	DB	058H
	DB	034H
	DB	00H
	DB	01cH
	DB	050H
	DB	034H
	DB	00H
	DB	01cH
	DB	058H
	DB	034H
	DB	00H
	DB	01cH
	DB	058H
	DB	034H
	DB	00H
	DB	01cH
	DB	050H
	DB	030H
	DB	00H
	DB	01cH
	DB	058H
	DB	034H
	DB	00H
	DB	01cH
	DB	058H
	DB	034H
	DB	00H
	DB	01cH
	DB	050H
	DB	034H
	DB	00H
	DB	01cH
	DB	058H
	DB	034H
	DB	00H
	DB	01cH
	DB	058H
	DB	034H
	DB	00H
	DB	01cH
	DB	050H
	DB	034H
	DB	00H
	DB	01cH
	DB	058H
	DB	030H
	DB	00H
	DB	01cH
	DB	058H
	DB	034H
	DB	00H
	DB	01cH
	DB	050H
	DB	034H
	DB	00H
	DB	01cH
	DB	058H
	DB	034H
	DB	00H
	DB	01cH
	DB	058H
	DB	034H
	DB	00H
	DB	01cH
	DB	050H
	DB	030H
	DB	00H
	DB	01cH
	DB	058H
	DB	034H
	DB	00H
	DB	01cH
	DB	058H
	DB	034H
	DB	00H
	DB	01cH
	DB	050H
	DB	034H
	DB	00H
	DB	01cH
	DB	058H
	DB	034H
	DB	00H
	DB	01cH
	DB	058H
	DB	034H
	DB	00H
	DB	01cH
	DB	050H
	DB	034H
	DB	00H
	DB	01cH
	DB	058H
	DB	030H
	DB	00H
	DB	01cH
	DB	058H
	DB	034H
	DB	00H
	DB	01cH
	DB	050H
	DB	034H
	DB	00H
	DB	01cH
	DB	058H
	DB	034H
	DB	00H
	DB	01cH
	DB	058H
	DB	034H
	DB	00H
	DB	01cH
	DB	050H
	DB	030H
	DB	00H
	DB	01cH
	DB	058H
	DB	034H
	DB	00H
	DB	01cH
	DB	058H
	DB	034H
	DB	00H
	DB	01cH
	DB	050H
	DB	034H
	DB	00H
	DB	01cH
	DB	058H
	DB	034H
	DB	00H
	DB	01cH
	DB	058H
	DB	034H
	DB	00H
	DB	01cH
	DB	050H
	DB	034H
	DB	00H
	DB	01cH
	DB	058H
	DB	030H
	DB	00H
	DB	01cH
	DB	058H
	DB	034H
	DB	00H
	DB	01cH
	DB	050H
	DB	034H
	DB	00H
	DB	01cH
	DB	058H
	DB	034H
	DB	00H
	DB	01cH
	DB	058H
	DB	034H
	DB	00H
	DB	01cH
	DB	050H
	DB	030H
	DB	00H
	DB	01cH
	DB	058H
	DB	034H
	DB	00H
	DB	01cH
	DB	058H
	DB	034H
	DB	00H
	DB	01cH
	DB	050H
	DB	034H
	DB	00H
	DB	01cH
	DB	058H
	DB	034H
	DB	00H
	DB	01cH
	DB	058H
	DB	034H
	DB	00H
	DB	01cH
	DB	050H
	DB	034H
	DB	00H
	DB	01cH
	DB	058H
	DB	030H
	DB	00H
	DB	01cH
	DB	058H
	DB	034H
	DB	00H
	DB	01cH
	DB	050H
	DB	034H
	DB	00H
	DB	01cH
	DB	058H
	DB	034H
	DB	00H
	DB	01cH
	DB	058H
	DB	034H
	DB	00H
	DB	01cH
	DB	050H
	DB	030H
	DB	00H
	DB	01cH
	DB	058H
	DB	034H
	DB	00H
	DB	01cH
	DB	058H
	DB	034H
	DB	00H
	DB	01cH
	DB	050H
	DB	034H
	DB	00H
	DB	01cH
	DB	058H
	DB	034H
	DB	00H
	DB	01cH
	DB	058H
	DB	034H
	DB	00H
	DB	01cH
	DB	050H
	DB	034H
	DB	00H
	DB	01cH
	DB	058H
	DB	030H
	DB	00H
	DB	01cH
	DB	058H
	DB	034H
	DB	00H
	DB	01cH
	DB	050H
	DB	034H
	DB	00H
	DB	01cH
	DB	058H
	DB	034H
	DB	00H
	DB	01cH
	DB	058H
	DB	034H
	DB	00H
	DB	01cH
	DB	050H
	DB	030H
	DB	00H
	DB	01cH
	DB	058H
	DB	034H
	DB	00H
	DB	01cH
	DB	058H
	DB	034H
	DB	00H
	DB	01cH
	DB	050H
	DB	034H
	DB	00H
	DB	01cH
	DB	058H
	DB	034H
	DB	00H
	DB	01cH
	DB	058H
	DB	034H
	DB	00H
	DB	01cH
	DB	050H
	DB	034H
	DB	00H
	DB	01cH
	DB	058H
	DB	030H
	DB	00H
	DB	01cH
	DB	058H
	DB	034H
	DB	00H
	DB	01cH
	DB	050H
	DB	034H
	DB	00H
	DB	01cH
	DB	058H
	DB	034H
	DB	00H
	DB	01cH
	DB	058H
	DB	034H
	DB	00H
	DB	01cH
	DB	050H
	DB	030H
	DB	00H
	DB	01cH
	DB	058H
	DB	034H
	DB	00H
	DB	01cH
	DB	058H
	DB	034H
	DB	00H
	DB	01cH
	DB	050H
	DB	034H
	DB	00H
	DB	01cH
	DB	058H
	DB	034H
	DB	00H
	DB	01cH
	DB	058H
	DB	034H
	DB	00H
	DB	01cH
	DB	050H
	DB	034H
	DB	00H
	DB	01cH
	DB	058H
	DB	030H
	DB	00H
	DB	01cH
	DB	058H
	DB	034H
	DB	00H
	DB	01cH
	DB	050H
	DB	034H
	DB	00H
	DB	01cH
	DB	058H
	DB	034H
	DB	00H
	DB	01cH
	DB	058H
	DB	034H
	DB	00H
	DB	01cH
	DB	050H
	DB	030H
	DB	00H
	DB	01cH
	DB	058H
	DB	034H
	DB	00H
	DB	01cH
	DB	058H
	DB	034H
	DB	00H
	DB	01cH
	DB	050H
	DB	034H
	DB	00H
	DB	01cH
	DB	058H
	DB	034H
	DB	00H
	DB	01cH
	DB	058H
	DB	034H
	DB	00H
	DB	01cH
	DB	050H
	DB	034H
	DB	00H
	DB	01cH
	DB	058H
	DB	030H
	DB	00H
	DB	01cH
	DB	058H
	DB	034H
	DB	00H
	DB	01cH
	DB	050H
	DB	034H
	DB	00H
	DB	01cH
	DB	058H
	DB	034H
	DB	00H
	DB	01cH
	DB	058H
	DB	034H
	DB	00H
	DB	01cH
	DB	050H
	DB	030H
	DB	00H
	DB	01cH
	DB	058H
	DB	034H
	DB	00H
	DB	01cH
	DB	058H
	DB	034H
	DB	00H
	DB	01cH
	DB	050H
	DB	034H
	DB	00H
	DB	01cH
	DB	058H
	DB	034H
	DB	00H
	DB	01cH
	DB	058H
	DB	034H
	DB	00H
	DB	01cH
	DB	050H
	DB	034H
	DB	00H
	DB	01cH
	DB	058H
	DB	030H
	DB	00H
	DB	01cH
	DB	058H
	DB	034H
	DB	00H
	DB	01cH
	DB	050H
	DB	034H
	DB	00H
	DB	01cH
	DB	058H
	DB	034H
	DB	00H
	DB	01cH
	DB	058H
	DB	034H
	DB	00H
	DB	01cH
	DB	050H
	DB	030H
	DB	00H
	DB	01cH
	DB	058H
	DB	034H
	DB	00H
	DB	01cH
	DB	058H
	DB	034H
	DB	00H
	DB	01cH
	DB	050H
	DB	034H
	DB	00H
	DB	01cH
	DB	058H
	DB	034H
	DB	00H
	DB	01cH
	DB	058H
	DB	034H
	DB	00H
	DB	01cH
	DB	050H
	DB	034H
	DB	00H
	DB	01cH
	DB	058H
	DB	030H
	DB	00H
	DB	01cH
	DB	058H
	DB	034H
	DB	00H
	DB	01cH
	DB	050H
	DB	034H
	DB	00H
	DB	01cH
	DB	058H
	DB	034H
	DB	00H
	DB	01cH
	DB	058H
	DB	034H
	DB	00H
	DB	01cH
	DB	050H
	DB	030H
	DB	00H
	DB	01cH
	DB	058H
	DB	034H
	DB	00H
	DB	01cH
	DB	058H
	DB	034H
	DB	00H
	DB	01cH
	DB	050H
	DB	034H
	DB	00H
	DB	01cH
	DB	058H
	DB	034H
	DB	00H
	DB	01cH
	DB	058H
	DB	034H
	DB	00H
	DB	01cH
	DB	050H
	DB	034H
	DB	00H
	DB	01cH
	DB	058H
	DB	030H
	DB	00H
	DB	01cH
	DB	058H
	DB	034H
	DB	00H
	DB	01cH
	DB	050H
	DB	034H
	DB	00H
	DB	01cH
	DB	058H
	DB	034H
	DB	00H
	DB	01cH
	DB	058H
	DB	034H
	DB	00H
	DB	01cH
	DB	050H
	DB	030H
	DB	00H
	DB	01cH
	DB	058H
	DB	034H
	DB	00H
	DB	01cH
	DB	058H
	DB	034H
	DB	00H
	DB	01cH
	DB	050H
	DB	034H
	DB	00H
	DB	01cH
	DB	058H
	DB	034H
	DB	00H
	DB	01cH
	DB	058H
	DB	034H
	DB	00H
	DB	01cH
	DB	050H
	DB	034H
	DB	00H
	DB	01cH
	DB	058H
	DB	030H
	DB	00H
	DB	01cH
	DB	058H
	DB	034H
	DB	00H
	DB	01cH
	DB	050H
	DB	034H
	DB	00H
	DB	01cH
	DB	058H
	DB	034H
	DB	00H
	DB	01cH
	DB	058H
	DB	034H
	DB	00H
	DB	01cH
	DB	050H
	DB	030H
	DB	00H
	DB	01cH
	DB	058H
	DB	034H
	DB	00H
	DB	01cH
	DB	058H
	DB	034H
	DB	00H
	DB	01cH
	DB	050H
	DB	034H
	DB	00H
	DB	01cH
	DB	058H
	DB	034H
	DB	00H
	DB	01cH
	DB	058H
	DB	034H
	DB	00H
	DB	01cH
	DB	050H
	DB	034H
	DB	00H
	DB	01cH
	DB	058H
	DB	030H
	DB	00H
	DB	01cH
	DB	058H
	DB	034H
	DB	00H
	DB	01cH
	DB	050H
	DB	034H
	DB	00H
	DB	01cH
	DB	058H
	DB	034H
	DB	00H
	DB	01cH
	DB	058H
	DB	034H
	DB	00H
	DB	01cH
	DB	050H
	DB	030H
	DB	00H
	DB	01cH
	DB	058H
	DB	034H
	DB	00H
	DB	01cH
	DB	058H
	DB	034H
	DB	00H
	DB	01cH
	DB	050H
	DB	034H
	DB	00H
	DB	01cH
	DB	058H
	DB	034H
	DB	00H
	DB	01cH
	DB	058H
	DB	034H
	DB	00H
	DB	01cH
	DB	050H
	DB	034H
	DB	00H
	DB	01cH
	DB	058H
	DB	030H
	DB	00H
	DB	01cH
	DB	058H
	DB	034H
	DB	00H
	DB	01cH
	DB	050H
	DB	034H
	DB	00H
	DB	01cH
	DB	058H
	DB	034H
	DB	00H
	DB	01cH
	DB	058H
	DB	034H
	DB	00H
	DB	01cH
	DB	050H
	DB	030H
	DB	00H
	DB	01cH
	DB	058H
	DB	034H
	DB	00H
	DB	01cH
	DB	058H
	DB	034H
	DB	00H
	DB	01cH
	DB	050H
	DB	034H
	DB	00H
	DB	01cH
	DB	058H
	DB	034H
	DB	00H
	DB	01cH
	DB	058H
	DB	034H
	DB	00H
	DB	01cH
	DB	050H
	DB	034H
	DB	00H
	DB	01cH
	DB	058H
	DB	030H
	DB	00H
	DB	01cH
	DB	058H
	DB	034H
	DB	00H
	DB	01cH
	DB	050H
	DB	034H
	DB	00H
	DB	01cH
	DB	058H
	DB	034H
	DB	00H
	DB	01cH
	DB	058H
	DB	034H
	DB	00H
	DB	01cH
	DB	050H
	DB	030H
	DB	00H
	DB	01cH
	DB	058H
	DB	034H
	DB	00H
	DB	01cH
	DB	058H
	DB	034H
	DB	00H
	DB	01cH
	DB	050H
	DB	034H
	DB	00H
	DB	01cH
	DB	058H
	DB	034H
	DB	00H
	DB	01cH
	DB	058H
	DB	034H
	DB	00H
	DB	01cH
	DB	050H
	DB	034H
	DB	00H
	DB	01cH
	DB	058H
	DB	030H
	DB	00H
	DB	01cH
	DB	058H
	DB	034H
	DB	00H
	DB	01cH
	DB	050H
	DB	034H
	DB	00H
	DB	01cH
	DB	058H
	DB	034H
	DB	00H
	DB	01cH
	DB	058H
	DB	034H
	DB	00H
	DB	01cH
	DB	050H
	DB	030H
	DB	00H
	DB	01cH
	DB	058H
	DB	034H
	DB	00H
	DB	01cH
	DB	058H
	DB	034H
	DB	00H
	DB	01cH
	DB	050H
	DB	034H
	DB	00H
	DB	01cH
	DB	058H
	DB	034H
	DB	00H
	DB	01cH
	DB	058H
	DB	034H
	DB	00H
	DB	01cH
	DB	050H
	DB	034H
	DB	00H
	DB	01cH
	DB	058H
	DB	030H
	DB	00H
	DB	01cH
	DB	058H
	DB	034H
	DB	00H
	DB	01cH
	DB	050H
	DB	034H
	DB	00H
	DB	01cH
	DB	058H
	DB	034H
	DB	00H
	DB	01cH
	DB	058H
	DB	034H
	DB	00H
	DB	01cH
	DB	050H
	DB	030H
	DB	00H
	DB	01cH
	DB	058H
	DB	034H
	DB	00H
	DB	01cH
	DB	058H
	DB	034H
	DB	00H
	DB	01cH
	DB	050H
	DB	034H
	DB	00H
	DB	01cH
	DB	058H
	DB	034H
	DB	00H
	DB	01cH
	DB	058H
	DB	034H
	DB	00H
	DB	01cH
	DB	050H
	DB	034H
	DB	00H
	DB	01cH
	DB	058H
	DB	030H
	DB	00H
	DB	01cH
	DB	058H
	DB	034H
	DB	00H
	DB	01cH
	DB	050H
	DB	034H
	DB	00H
	DB	01cH
	DB	058H
	DB	034H
	DB	00H
	DB	01cH
	DB	058H
	DB	034H
	DB	00H
	DB	01cH
	DB	050H
	DB	030H
	DB	00H
	DB	01cH
	DB	058H
	DB	034H
	DB	00H
	DB	01cH
	DB	058H
	DB	034H
	DB	00H
	DB	01cH
	DB	050H
	DB	034H
	DB	00H
	DB	018H
	DB	058H
	DB	034H
	DB	00H
	DB	01cH
	DB	058H
	DB	034H
	DB	00H
	DB	018H
	DB	050H
	DB	034H
	DB	00H
	DB	018H
	DB	058H
	DB	030H
	DB	00H
	DB	014H
	DB	058H
	DB	034H
	DB	00H
	DB	014H
	DB	050H
	DB	034H
	DB	00H
	DB	010H
	DB	058H
	DB	034H
	DB	00H
	DB	010H
	DB	058H
	DB	034H
	DB	00H
	DB	0cH
	DB	050H
	DB	030H
	DB	00H
	DB	08H
	DB	058H
	DB	034H
	DB	00H
	DB	04H
	DB	058H
	DB	034H
	DB	00H
	DB	04H
	DB	050H
	DB	034H
	DB	00H
	DB	04H
	DB	058H
	DB	034H
	DB	00H
	DB	04H
	DB	058H
	DB	034H
	DB	00H
	DB	00H
	DB	050H
	DB	034H
	DB	00H
	DB	00H
	DB	050H
	DB	030H
	DB	00H
	DB	00H
	DB	058H
	DB	034H
	DB	00H
	DB	00H
	DB	050H
	DB	034H
	DB	00H
	DB	00H
	DB	050H
	DB	034H
	DB	00H
	DB	00H
	DB	0f8H
	DB	0fcH
	DB	0f8H
	DB	00H
	DB	0f8H
	DB	0fcH
	DB	0f8H
	DB	00H
	DB	0f8H
	DB	0fcH
	DB	0f8H
	DB	00H
	DB	058H
	DB	034H
	DB	00H
	DB	00H
	DB	050H
	DB	034H
	DB	00H
	DB	00H
	DB	058H
	DB	034H
	DB	00H
	DB	00H
	DB	058H
	DB	034H
	DB	00H
	DB	00H
	DB	050H
	DB	034H
	DB	00H
	DB	00H
	DB	058H
	DB	030H
	DB	00H
	DB	04H
	DB	050H
	DB	034H
	DB	00H
	DB	04H
	DB	058H
	DB	034H
	DB	00H
	DB	08H
	DB	058H
	DB	034H
	DB	00H
	DB	08H
	DB	050H
	DB	030H
	DB	00H
	DB	0cH
	DB	058H
	DB	034H
	DB	00H
	DB	010H
	DB	050H
	DB	034H
	DB	00H
	DB	014H
	DB	058H
	DB	034H
	DB	00H
	DB	018H
	DB	058H
	DB	034H
	DB	00H
	DB	01cH
	DB	050H
	DB	034H
	DB	00H
	DB	020H
	DB	058H
	DB	034H
	DB	00H
	DB	020H
	DB	058H
	DB	034H
	DB	00H
	DB	024H
	DB	050H
	DB	030H
	DB	00H
	DB	024H
	DB	058H
	DB	034H
	DB	00H
	DB	024H
	DB	058H
	DB	034H
	DB	00H
	DB	024H
	DB	050H
	DB	034H
	DB	00H
	DB	024H
	DB	058H
	DB	030H
	DB	00H
	DB	024H
	DB	058H
	DB	034H
	DB	00H
	DB	024H
	DB	050H
	DB	034H
	DB	00H
	DB	024H
	DB	058H
	DB	034H
	DB	00H
	DB	024H
	DB	058H
	DB	034H
	DB	00H
	DB	024H
	DB	050H
	DB	034H
	DB	00H
	DB	024H
	DB	058H
	DB	034H
	DB	00H
	DB	024H
	DB	058H
	DB	034H
	DB	00H
	DB	024H
	DB	050H
	DB	030H
	DB	00H
	DB	024H
	DB	058H
	DB	034H
	DB	00H
	DB	024H
	DB	058H
	DB	034H
	DB	00H
	DB	024H
	DB	050H
	DB	034H
	DB	00H
	DB	024H
	DB	058H
	DB	030H
	DB	00H
	DB	024H
	DB	058H
	DB	034H
	DB	00H
	DB	024H
	DB	050H
	DB	034H
	DB	00H
	DB	024H
	DB	058H
	DB	034H
	DB	00H
	DB	024H
	DB	058H
	DB	034H
	DB	00H
	DB	024H
	DB	050H
	DB	034H
	DB	00H
	DB	024H
	DB	058H
	DB	034H
	DB	00H
	DB	024H
	DB	058H
	DB	034H
	DB	00H
	DB	024H
	DB	050H
	DB	030H
	DB	00H
	DB	024H
	DB	058H
	DB	034H
	DB	00H
	DB	024H
	DB	058H
	DB	034H
	DB	00H
	DB	024H
	DB	050H
	DB	034H
	DB	00H
	DB	024H
	DB	058H
	DB	030H
	DB	00H
	DB	024H
	DB	058H
	DB	034H
	DB	00H
	DB	024H
	DB	050H
	DB	034H
	DB	00H
	DB	024H
	DB	058H
	DB	034H
	DB	00H
	DB	024H
	DB	058H
	DB	034H
	DB	00H
	DB	024H
	DB	050H
	DB	034H
	DB	00H
	DB	024H
	DB	058H
	DB	034H
	DB	00H
	DB	024H
	DB	058H
	DB	034H
	DB	00H
	DB	024H
	DB	050H
	DB	030H
	DB	00H
	DB	024H
	DB	058H
	DB	034H
	DB	00H
	DB	024H
	DB	058H
	DB	034H
	DB	00H
	DB	024H
	DB	050H
	DB	034H
	DB	00H
	DB	024H
	DB	058H
	DB	030H
	DB	00H
	DB	024H
	DB	058H
	DB	034H
	DB	00H
	DB	024H
	DB	050H
	DB	034H
	DB	00H
	DB	024H
	DB	058H
	DB	034H
	DB	00H
	DB	024H
	DB	058H
	DB	034H
	DB	00H
	DB	024H
	DB	050H
	DB	034H
	DB	00H
	DB	024H
	DB	058H
	DB	034H
	DB	00H
	DB	024H
	DB	058H
	DB	034H
	DB	00H
	DB	024H
	DB	050H
	DB	030H
	DB	00H
	DB	024H
	DB	058H
	DB	034H
	DB	00H
	DB	024H
	DB	058H
	DB	034H
	DB	00H
	DB	024H
	DB	050H
	DB	034H
	DB	00H
	DB	024H
	DB	058H
	DB	030H
	DB	00H
	DB	024H
	DB	058H
	DB	034H
	DB	00H
	DB	024H
	DB	050H
	DB	034H
	DB	00H
	DB	024H
	DB	058H
	DB	034H
	DB	00H
	DB	024H
	DB	058H
	DB	034H
	DB	00H
	DB	024H
	DB	050H
	DB	034H
	DB	00H
	DB	024H
	DB	058H
	DB	034H
	DB	00H
	DB	024H
	DB	058H
	DB	034H
	DB	00H
	DB	024H
	DB	050H
	DB	030H
	DB	00H
	DB	024H
	DB	058H
	DB	034H
	DB	00H
	DB	024H
	DB	058H
	DB	034H
	DB	00H
	DB	024H
	DB	050H
	DB	034H
	DB	00H
	DB	024H
	DB	058H
	DB	030H
	DB	00H
	DB	024H
	DB	058H
	DB	034H
	DB	00H
	DB	024H
	DB	050H
	DB	034H
	DB	00H
	DB	024H
	DB	058H
	DB	034H
	DB	00H
	DB	024H
	DB	058H
	DB	034H
	DB	00H
	DB	024H
	DB	050H
	DB	034H
	DB	00H
	DB	024H
	DB	058H
	DB	034H
	DB	00H
	DB	024H
	DB	058H
	DB	034H
	DB	00H
	DB	024H
	DB	050H
	DB	030H
	DB	00H
	DB	024H
	DB	058H
	DB	034H
	DB	00H
	DB	024H
	DB	058H
	DB	034H
	DB	00H
	DB	028H
	DB	050H
	DB	034H
	DB	00H
	DB	028H
	DB	058H
	DB	030H
	DB	00H
	DB	028H
	DB	058H
	DB	034H
	DB	00H
	DB	028H
	DB	050H
	DB	034H
	DB	00H
	DB	028H
	DB	058H
	DB	034H
	DB	00H
	DB	02cH
	DB	058H
	DB	034H
	DB	00H
	DB	02cH
	DB	050H
	DB	034H
	DB	00H
	DB	02cH
	DB	058H
	DB	034H
	DB	00H
	DB	02cH
	DB	058H
	DB	034H
	DB	00H
	DB	02cH
	DB	050H
	DB	030H
	DB	00H
	DB	02cH
	DB	058H
	DB	034H
	DB	00H
	DB	028H
	DB	058H
	DB	034H
	DB	00H
	DB	028H
	DB	050H
	DB	034H
	DB	00H
	DB	028H
	DB	058H
	DB	030H
	DB	00H
	DB	028H
	DB	058H
	DB	034H
	DB	00H
	DB	024H
	DB	050H
	DB	034H
	DB	00H
	DB	024H
	DB	058H
	DB	034H
	DB	00H
	DB	024H
	DB	058H
	DB	034H
	DB	00H
	DB	024H
	DB	050H
	DB	034H
	DB	00H
	DB	024H
	DB	058H
	DB	034H
	DB	00H
	DB	024H
	DB	058H
	DB	034H
	DB	00H
	DB	024H
	DB	050H
	DB	030H
	DB	00H
	DB	024H
	DB	058H
	DB	034H
	DB	00H
	DB	024H
	DB	058H
	DB	034H
	DB	00H
	DB	024H
	DB	050H
	DB	034H
	DB	00H
	DB	024H
	DB	058H
	DB	030H
	DB	00H
	DB	024H
	DB	058H
	DB	034H
	DB	00H
	DB	024H
	DB	050H
	DB	034H
	DB	00H
	DB	024H
	DB	058H
	DB	034H
	DB	00H
	DB	024H
	DB	058H
	DB	034H
	DB	00H
	DB	024H
	DB	050H
	DB	034H
	DB	00H
	DB	024H
	DB	058H
	DB	034H
	DB	00H
	DB	024H
	DB	058H
	DB	034H
	DB	00H
	DB	024H
	DB	050H
	DB	030H
	DB	00H
	DB	024H
	DB	058H
	DB	034H
	DB	00H
	DB	024H
	DB	058H
	DB	034H
	DB	00H
	DB	024H
	DB	050H
	DB	034H
	DB	00H
	DB	024H
	DB	058H
	DB	030H
	DB	00H
	DB	024H
	DB	058H
	DB	034H
	DB	00H
	DB	024H
	DB	050H
	DB	034H
	DB	00H
	DB	024H
	DB	058H
	DB	034H
	DB	00H
	DB	024H
	DB	058H
	DB	034H
	DB	00H
	DB	024H
	DB	050H
	DB	034H
	DB	00H
	DB	024H
	DB	058H
	DB	034H
	DB	00H
	DB	024H
	DB	058H
	DB	034H
	DB	00H
	DB	024H
	DB	050H
	DB	030H
	DB	00H
	DB	024H
	DB	058H
	DB	034H
	DB	00H
	DB	024H
	DB	058H
	DB	034H
	DB	00H
	DB	024H
	DB	050H
	DB	034H
	DB	00H
	DB	024H
	DB	058H
	DB	030H
	DB	00H
	DB	024H
	DB	058H
	DB	034H
	DB	00H
	DB	024H
	DB	050H
	DB	034H
	DB	00H
	DB	024H
	DB	058H
	DB	034H
	DB	00H
	DB	024H
	DB	058H
	DB	034H
	DB	00H
	DB	024H
	DB	050H
	DB	034H
	DB	00H
	DB	024H
	DB	058H
	DB	034H
	DB	00H
	DB	024H
	DB	058H
	DB	034H
	DB	00H
	DB	024H
	DB	050H
	DB	030H
	DB	00H
	DB	024H
	DB	058H
	DB	034H
	DB	00H
	DB	024H
	DB	058H
	DB	034H
	DB	00H
	DB	024H
	DB	050H
	DB	034H
	DB	00H
	DB	024H
	DB	058H
	DB	030H
	DB	00H
	DB	024H
	DB	058H
	DB	034H
	DB	00H
	DB	024H
	DB	050H
	DB	034H
	DB	00H
	DB	024H
	DB	058H
	DB	034H
	DB	00H
	DB	024H
	DB	058H
	DB	034H
	DB	00H
	DB	024H
	DB	050H
	DB	034H
	DB	00H
	DB	024H
	DB	058H
	DB	034H
	DB	00H
	DB	024H
	DB	058H
	DB	034H
	DB	00H
	DB	024H
	DB	050H
	DB	030H
	DB	00H
	DB	024H
	DB	058H
	DB	034H
	DB	00H
	DB	024H
	DB	058H
	DB	034H
	DB	00H
	DB	024H
	DB	050H
	DB	034H
	DB	00H
	DB	024H
	DB	058H
	DB	030H
	DB	00H
	DB	024H
	DB	058H
	DB	034H
	DB	00H
	DB	024H
	DB	050H
	DB	034H
	DB	00H
	DB	024H
	DB	058H
	DB	034H
	DB	00H
	DB	024H
	DB	058H
	DB	034H
	DB	00H
	DB	024H
	DB	050H
	DB	034H
	DB	00H
	DB	024H
	DB	058H
	DB	034H
	DB	00H
	DB	024H
	DB	058H
	DB	034H
	DB	00H
	DB	024H
	DB	050H
	DB	030H
	DB	00H
	DB	024H
	DB	058H
	DB	034H
	DB	00H
	DB	024H
	DB	058H
	DB	034H
	DB	00H
	DB	024H
	DB	050H
	DB	034H
	DB	00H
	DB	024H
	DB	058H
	DB	030H
	DB	00H
	DB	024H
	DB	058H
	DB	034H
	DB	00H
	DB	024H
	DB	050H
	DB	034H
	DB	00H
	DB	024H
	DB	058H
	DB	034H
	DB	00H
	DB	024H
	DB	058H
	DB	034H
	DB	00H
	DB	024H
	DB	050H
	DB	034H
	DB	00H
	DB	024H
	DB	058H
	DB	034H
	DB	00H
	DB	024H
	DB	058H
	DB	034H
	DB	00H
	DB	024H
	DB	050H
	DB	030H
	DB	00H
	DB	024H
	DB	058H
	DB	034H
	DB	00H
	DB	024H
	DB	058H
	DB	034H
	DB	00H
	DB	024H
	DB	050H
	DB	034H
	DB	00H
	DB	024H
	DB	058H
	DB	030H
	DB	00H
	DB	024H
	DB	058H
	DB	034H
	DB	00H
	DB	024H
	DB	050H
	DB	034H
	DB	00H
	DB	024H
	DB	058H
	DB	034H
	DB	00H
	DB	024H
	DB	058H
	DB	034H
	DB	00H
	DB	024H
	DB	050H
	DB	034H
	DB	00H
	DB	024H
	DB	058H
	DB	034H
	DB	00H
	DB	024H
	DB	058H
	DB	034H
	DB	00H
	DB	024H
	DB	050H
	DB	030H
	DB	00H
	DB	024H
	DB	058H
	DB	034H
	DB	00H
	DB	024H
	DB	058H
	DB	034H
	DB	00H
	DB	024H
	DB	050H
	DB	034H
	DB	00H
	DB	024H
	DB	058H
	DB	030H
	DB	00H
	DB	024H
	DB	058H
	DB	034H
	DB	00H
	DB	024H
	DB	050H
	DB	034H
	DB	00H
	DB	024H
	DB	058H
	DB	034H
	DB	00H
	DB	024H
	DB	058H
	DB	034H
	DB	00H
	DB	024H
	DB	050H
	DB	034H
	DB	00H
	DB	024H
	DB	058H
	DB	034H
	DB	00H
	DB	024H
	DB	058H
	DB	034H
	DB	00H
	DB	024H
	DB	050H
	DB	030H
	DB	00H
	DB	024H
	DB	058H
	DB	034H
	DB	00H
	DB	024H
	DB	058H
	DB	034H
	DB	00H
	DB	024H
	DB	050H
	DB	034H
	DB	00H
	DB	024H
	DB	058H
	DB	030H
	DB	00H
	DB	024H
	DB	058H
	DB	034H
	DB	00H
	DB	024H
	DB	050H
	DB	034H
	DB	00H
	DB	024H
	DB	058H
	DB	034H
	DB	00H
	DB	024H
	DB	058H
	DB	034H
	DB	00H
	DB	024H
	DB	050H
	DB	034H
	DB	00H
	DB	024H
	DB	058H
	DB	034H
	DB	00H
	DB	024H
	DB	058H
	DB	034H
	DB	00H
	DB	024H
	DB	050H
	DB	030H
	DB	00H
	DB	024H
	DB	058H
	DB	034H
	DB	00H
	DB	024H
	DB	058H
	DB	034H
	DB	00H
	DB	024H
	DB	050H
	DB	034H
	DB	00H
	DB	024H
	DB	058H
	DB	030H
	DB	00H
	DB	024H
	DB	058H
	DB	034H
	DB	00H
	DB	024H
	DB	050H
	DB	034H
	DB	00H
	DB	024H
	DB	058H
	DB	034H
	DB	00H
	DB	024H
	DB	058H
	DB	034H
	DB	00H
	DB	024H
	DB	050H
	DB	034H
	DB	00H
	DB	024H
	DB	058H
	DB	034H
	DB	00H
	DB	024H
	DB	058H
	DB	034H
	DB	00H
	DB	024H
	DB	050H
	DB	030H
	DB	00H
	DB	024H
	DB	058H
	DB	034H
	DB	00H
	DB	024H
	DB	058H
	DB	034H
	DB	00H
	DB	024H
	DB	050H
	DB	034H
	DB	00H
	DB	024H
	DB	058H
	DB	030H
	DB	00H
	DB	024H
	DB	058H
	DB	034H
	DB	00H
	DB	024H
	DB	050H
	DB	034H
	DB	00H
	DB	024H
	DB	058H
	DB	034H
	DB	00H
	DB	024H
	DB	058H
	DB	034H
	DB	00H
	DB	024H
	DB	050H
	DB	034H
	DB	00H
	DB	024H
	DB	058H
	DB	034H
	DB	00H
	DB	024H
	DB	058H
	DB	034H
	DB	00H
	DB	024H
	DB	050H
	DB	030H
	DB	00H
	DB	024H
	DB	058H
	DB	034H
	DB	00H
	DB	024H
	DB	058H
	DB	034H
	DB	00H
	DB	024H
	DB	050H
	DB	034H
	DB	00H
	DB	024H
	DB	058H
	DB	030H
	DB	00H
	DB	024H
	DB	058H
	DB	034H
	DB	00H
	DB	024H
	DB	050H
	DB	034H
	DB	00H
	DB	024H
	DB	058H
	DB	034H
	DB	00H
	DB	024H
	DB	058H
	DB	034H
	DB	00H
	DB	024H
	DB	050H
	DB	034H
	DB	00H
	DB	024H
	DB	058H
	DB	034H
	DB	00H
	DB	024H
	DB	058H
	DB	034H
	DB	00H
	DB	024H
	DB	050H
	DB	030H
	DB	00H
	DB	024H
	DB	058H
	DB	034H
	DB	00H
	DB	024H
	DB	058H
	DB	034H
	DB	00H
	DB	024H
	DB	050H
	DB	034H
	DB	00H
	DB	024H
	DB	058H
	DB	030H
	DB	00H
	DB	024H
	DB	058H
	DB	034H
	DB	00H
	DB	024H
	DB	050H
	DB	034H
	DB	00H
	DB	024H
	DB	058H
	DB	034H
	DB	00H
	DB	024H
	DB	058H
	DB	034H
	DB	00H
	DB	024H
	DB	050H
	DB	034H
	DB	00H
	DB	024H
	DB	058H
	DB	034H
	DB	00H
	DB	024H
	DB	058H
	DB	034H
	DB	00H
	DB	024H
	DB	050H
	DB	030H
	DB	00H
	DB	024H
	DB	058H
	DB	034H
	DB	00H
	DB	024H
	DB	058H
	DB	034H
	DB	00H
	DB	024H
	DB	050H
	DB	034H
	DB	00H
	DB	024H
	DB	058H
	DB	030H
	DB	00H
	DB	024H
	DB	058H
	DB	034H
	DB	00H
	DB	024H
	DB	050H
	DB	034H
	DB	00H
	DB	024H
	DB	058H
	DB	034H
	DB	00H
	DB	024H
	DB	058H
	DB	034H
	DB	00H
	DB	024H
	DB	050H
	DB	034H
	DB	00H
	DB	024H
	DB	058H
	DB	034H
	DB	00H
	DB	024H
	DB	058H
	DB	034H
	DB	00H
	DB	024H
	DB	050H
	DB	030H
	DB	00H
	DB	024H
	DB	058H
	DB	034H
	DB	00H
	DB	024H
	DB	058H
	DB	034H
	DB	00H
	DB	024H
	DB	050H
	DB	034H
	DB	00H
	DB	024H
	DB	058H
	DB	030H
	DB	00H
	DB	024H
	DB	058H
	DB	034H
	DB	00H
	DB	024H
	DB	050H
	DB	034H
	DB	00H
	DB	024H
	DB	058H
	DB	034H
	DB	00H
	DB	024H
	DB	058H
	DB	034H
	DB	00H
	DB	024H
	DB	050H
	DB	034H
	DB	00H
	DB	024H
	DB	058H
	DB	034H
	DB	00H
	DB	024H
	DB	058H
	DB	034H
	DB	00H
	DB	024H
	DB	050H
	DB	030H
	DB	00H
	DB	024H
	DB	058H
	DB	034H
	DB	00H
	DB	024H
	DB	058H
	DB	034H
	DB	00H
	DB	024H
	DB	050H
	DB	034H
	DB	00H
	DB	024H
	DB	058H
	DB	030H
	DB	00H
	DB	024H
	DB	058H
	DB	034H
	DB	00H
	DB	024H
	DB	050H
	DB	034H
	DB	00H
	DB	024H
	DB	058H
	DB	034H
	DB	00H
	DB	024H
	DB	058H
	DB	034H
	DB	00H
	DB	024H
	DB	050H
	DB	034H
	DB	00H
	DB	024H
	DB	058H
	DB	034H
	DB	00H
	DB	024H
	DB	058H
	DB	034H
	DB	00H
	DB	024H
	DB	050H
	DB	030H
	DB	00H
	DB	024H
	DB	058H
	DB	034H
	DB	00H
	DB	024H
	DB	058H
	DB	034H
	DB	00H
	DB	024H
	DB	050H
	DB	034H
	DB	00H
	DB	024H
	DB	058H
	DB	030H
	DB	00H
	DB	024H
	DB	058H
	DB	034H
	DB	00H
	DB	024H
	DB	050H
	DB	034H
	DB	00H
	DB	024H
	DB	058H
	DB	034H
	DB	00H
	DB	024H
	DB	058H
	DB	034H
	DB	00H
	DB	024H
	DB	050H
	DB	034H
	DB	00H
	DB	024H
	DB	058H
	DB	034H
	DB	00H
	DB	024H
	DB	058H
	DB	034H
	DB	00H
	DB	024H
	DB	050H
	DB	030H
	DB	00H
	DB	024H
	DB	058H
	DB	034H
	DB	00H
	DB	024H
	DB	058H
	DB	034H
	DB	00H
	DB	024H
	DB	050H
	DB	034H
	DB	00H
	DB	024H
	DB	058H
	DB	030H
	DB	00H
	DB	024H
	DB	058H
	DB	034H
	DB	00H
	DB	024H
	DB	050H
	DB	034H
	DB	00H
	DB	024H
	DB	058H
	DB	034H
	DB	00H
	DB	024H
	DB	058H
	DB	034H
	DB	00H
	DB	024H
	DB	050H
	DB	034H
	DB	00H
	DB	024H
	DB	058H
	DB	034H
	DB	00H
	DB	024H
	DB	058H
	DB	034H
	DB	00H
	DB	024H
	DB	050H
	DB	030H
	DB	00H
	DB	024H
	DB	058H
	DB	034H
	DB	00H
	DB	024H
	DB	058H
	DB	034H
	DB	00H
	DB	024H
	DB	050H
	DB	034H
	DB	00H
	DB	024H
	DB	058H
	DB	030H
	DB	00H
	DB	024H
	DB	058H
	DB	034H
	DB	00H
	DB	024H
	DB	050H
	DB	034H
	DB	00H
	DB	024H
	DB	058H
	DB	034H
	DB	00H
	DB	024H
	DB	058H
	DB	034H
	DB	00H
	DB	024H
	DB	050H
	DB	034H
	DB	00H
	DB	024H
	DB	058H
	DB	034H
	DB	00H
	DB	024H
	DB	058H
	DB	034H
	DB	00H
	DB	024H
	DB	050H
	DB	030H
	DB	00H
	DB	024H
	DB	058H
	DB	034H
	DB	00H
	DB	024H
	DB	058H
	DB	034H
	DB	00H
	DB	024H
	DB	050H
	DB	034H
	DB	00H
	DB	024H
	DB	058H
	DB	030H
	DB	00H
	DB	024H
	DB	058H
	DB	034H
	DB	00H
	DB	024H
	DB	050H
	DB	034H
	DB	00H
	DB	024H
	DB	058H
	DB	034H
	DB	00H
	DB	024H
	DB	058H
	DB	034H
	DB	00H
	DB	024H
	DB	050H
	DB	034H
	DB	00H
	DB	024H
	DB	058H
	DB	034H
	DB	00H
	DB	024H
	DB	058H
	DB	034H
	DB	00H
	DB	024H
	DB	050H
	DB	030H
	DB	00H
	DB	024H
	DB	058H
	DB	034H
	DB	00H
	DB	024H
	DB	058H
	DB	034H
	DB	00H
	DB	024H
	DB	050H
	DB	034H
	DB	00H
	DB	024H
	DB	058H
	DB	030H
	DB	00H
	DB	024H
	DB	058H
	DB	034H
	DB	00H
	DB	024H
	DB	050H
	DB	034H
	DB	00H
	DB	024H
	DB	058H
	DB	034H
	DB	00H
	DB	020H
	DB	058H
	DB	034H
	DB	00H
	DB	020H
	DB	050H
	DB	034H
	DB	00H
	DB	01cH
	DB	058H
	DB	034H
	DB	00H
	DB	018H
	DB	058H
	DB	034H
	DB	00H
	DB	014H
	DB	050H
	DB	030H
	DB	00H
	DB	010H
	DB	058H
	DB	034H
	DB	00H
	DB	0cH
	DB	058H
	DB	034H
	DB	00H
	DB	0cH
	DB	050H
	DB	034H
	DB	00H
	DB	08H
	DB	058H
	DB	030H
	DB	00H
	DB	04H
	DB	058H
	DB	034H
	DB	00H
	DB	04H
	DB	050H
	DB	034H
	DB	00H
	DB	00H
	DB	058H
	DB	034H
	DB	00H
	DB	00H
	DB	058H
	DB	034H
	DB	00H
	DB	00H
	DB	058H
	DB	034H
	DB	00H
	DB	00H
	DB	058H
	DB	034H
	DB	00H
	DB	00H
	DB	058H
	DB	034H
	DB	00H
	DB	00H
	DB	0f8H
	DB	0fcH
	DB	0f8H
	DB	00H
	DB	0f8H
	DB	0fcH
	DB	0f8H
	DB	00H
	DB	0f8H
	DB	0fcH
	DB	0f8H
	DB	00H
	DB	050H
	DB	034H
	DB	00H
	DB	00H
	DB	058H
	DB	030H
	DB	00H
	DB	00H
	DB	050H
	DB	034H
	DB	00H
	DB	00H
	DB	058H
	DB	030H
	DB	00H
	DB	00H
	DB	058H
	DB	034H
	DB	00H
	DB	04H
	DB	050H
	DB	034H
	DB	00H
	DB	04H
	DB	058H
	DB	034H
	DB	00H
	DB	08H
	DB	050H
	DB	034H
	DB	00H
	DB	08H
	DB	058H
	DB	030H
	DB	00H
	DB	010H
	DB	058H
	DB	034H
	DB	00H
	DB	014H
	DB	050H
	DB	030H
	DB	00H
	DB	018H
	DB	058H
	DB	030H
	DB	00H
	DB	01cH
	DB	058H
	DB	034H
	DB	00H
	DB	024H
	DB	050H
	DB	030H
	DB	00H
	DB	024H
	DB	050H
	DB	030H
	DB	00H
	DB	028H
	DB	058H
	DB	034H
	DB	00H
	DB	02cH
	DB	050H
	DB	034H
	DB	00H
	DB	030H
	DB	058H
	DB	034H
	DB	00H
	DB	030H
	DB	050H
	DB	034H
	DB	00H
	DB	030H
	DB	058H
	DB	034H
	DB	00H
	DB	034H
	DB	050H
	DB	030H
	DB	00H
	DB	034H
	DB	058H
	DB	034H
	DB	00H
	DB	030H
	DB	050H
	DB	030H
	DB	00H
	DB	034H
	DB	050H
	DB	030H
	DB	00H
	DB	034H
	DB	058H
	DB	034H
	DB	00H
	DB	030H
	DB	050H
	DB	030H
	DB	00H
	DB	034H
	DB	058H
	DB	030H
	DB	00H
	DB	034H
	DB	050H
	DB	034H
	DB	00H
	DB	030H
	DB	058H
	DB	034H
	DB	00H
	DB	034H
	DB	050H
	DB	034H
	DB	00H
	DB	034H
	DB	058H
	DB	034H
	DB	00H
	DB	030H
	DB	050H
	DB	034H
	DB	00H
	DB	034H
	DB	050H
	DB	030H
	DB	00H
	DB	034H
	DB	058H
	DB	034H
	DB	00H
	DB	030H
	DB	050H
	DB	030H
	DB	00H
	DB	034H
	DB	058H
	DB	030H
	DB	00H
	DB	034H
	DB	050H
	DB	034H
	DB	00H
	DB	030H
	DB	058H
	DB	030H
	DB	00H
	DB	034H
	DB	050H
	DB	030H
	DB	00H
	DB	034H
	DB	058H
	DB	034H
	DB	00H
	DB	030H
	DB	050H
	DB	034H
	DB	00H
	DB	034H
	DB	050H
	DB	034H
	DB	00H
	DB	034H
	DB	058H
	DB	034H
	DB	00H
	DB	030H
	DB	050H
	DB	034H
	DB	00H
	DB	034H
	DB	058H
	DB	030H
	DB	00H
	DB	034H
	DB	050H
	DB	034H
	DB	00H
	DB	030H
	DB	058H
	DB	030H
	DB	00H
	DB	034H
	DB	050H
	DB	030H
	DB	00H
	DB	034H
	DB	058H
	DB	034H
	DB	00H
	DB	030H
	DB	050H
	DB	030H
	DB	00H
	DB	034H
	DB	050H
	DB	030H
	DB	00H
	DB	034H
	DB	058H
	DB	034H
	DB	00H
	DB	030H
	DB	050H
	DB	034H
	DB	00H
	DB	034H
	DB	058H
	DB	034H
	DB	00H
	DB	034H
	DB	050H
	DB	034H
	DB	00H
	DB	030H
	DB	058H
	DB	034H
	DB	00H
	DB	034H
	DB	050H
	DB	030H
	DB	00H
	DB	034H
	DB	058H
	DB	034H
	DB	00H
	DB	030H
	DB	050H
	DB	030H
	DB	00H
	DB	034H
	DB	050H
	DB	030H
	DB	00H
	DB	034H
	DB	058H
	DB	034H
	DB	00H
	DB	030H
	DB	050H
	DB	030H
	DB	00H
	DB	034H
	DB	058H
	DB	030H
	DB	00H
	DB	034H
	DB	050H
	DB	034H
	DB	00H
	DB	030H
	DB	058H
	DB	034H
	DB	00H
	DB	034H
	DB	050H
	DB	034H
	DB	00H
	DB	034H
	DB	058H
	DB	034H
	DB	00H
	DB	030H
	DB	050H
	DB	034H
	DB	00H
	DB	034H
	DB	050H
	DB	030H
	DB	00H
	DB	034H
	DB	058H
	DB	034H
	DB	00H
	DB	030H
	DB	050H
	DB	030H
	DB	00H
	DB	034H
	DB	058H
	DB	030H
	DB	00H
	DB	034H
	DB	050H
	DB	034H
	DB	00H
	DB	030H
	DB	058H
	DB	030H
	DB	00H
	DB	034H
	DB	050H
	DB	030H
	DB	00H
	DB	034H
	DB	058H
	DB	034H
	DB	00H
	DB	030H
	DB	050H
	DB	034H
	DB	00H
	DB	034H
	DB	050H
	DB	034H
	DB	00H
	DB	034H
	DB	058H
	DB	034H
	DB	00H
	DB	030H
	DB	050H
	DB	034H
	DB	00H
	DB	034H
	DB	058H
	DB	030H
	DB	00H
	DB	034H
	DB	050H
	DB	034H
	DB	00H
	DB	030H
	DB	058H
	DB	030H
	DB	00H
	DB	034H
	DB	050H
	DB	030H
	DB	00H
	DB	034H
	DB	058H
	DB	034H
	DB	00H
	DB	030H
	DB	050H
	DB	030H
	DB	00H
	DB	034H
	DB	050H
	DB	030H
	DB	00H
	DB	034H
	DB	058H
	DB	034H
	DB	00H
	DB	030H
	DB	050H
	DB	034H
	DB	00H
	DB	034H
	DB	058H
	DB	034H
	DB	00H
	DB	030H
	DB	050H
	DB	034H
	DB	00H
	DB	030H
	DB	058H
	DB	034H
	DB	00H
	DB	034H
	DB	050H
	DB	030H
	DB	00H
	DB	034H
	DB	058H
	DB	034H
	DB	00H
	DB	034H
	DB	050H
	DB	030H
	DB	00H
	DB	038H
	DB	050H
	DB	030H
	DB	00H
	DB	038H
	DB	058H
	DB	034H
	DB	00H
	DB	038H
	DB	050H
	DB	030H
	DB	00H
	DB	038H
	DB	058H
	DB	030H
	DB	00H
	DB	038H
	DB	050H
	DB	034H
	DB	00H
	DB	038H
	DB	058H
	DB	034H
	DB	00H
	DB	038H
	DB	050H
	DB	034H
	DB	00H
	DB	038H
	DB	058H
	DB	034H
	DB	00H
	DB	038H
	DB	050H
	DB	034H
	DB	00H
	DB	038H
	DB	050H
	DB	030H
	DB	00H
	DB	034H
	DB	058H
	DB	034H
	DB	00H
	DB	034H
	DB	050H
	DB	030H
	DB	00H
	DB	034H
	DB	058H
	DB	030H
	DB	00H
	DB	034H
	DB	050H
	DB	034H
	DB	00H
	DB	030H
	DB	058H
	DB	030H
	DB	00H
	DB	034H
	DB	050H
	DB	030H
	DB	00H
	DB	034H
	DB	058H
	DB	034H
	DB	00H
	DB	030H
	DB	050H
	DB	034H
	DB	00H
	DB	034H
	DB	050H
	DB	034H
	DB	00H
	DB	034H
	DB	058H
	DB	034H
	DB	00H
	DB	030H
	DB	050H
	DB	034H
	DB	00H
	DB	034H
	DB	058H
	DB	030H
	DB	00H
	DB	034H
	DB	050H
	DB	034H
	DB	00H
	DB	030H
	DB	058H
	DB	030H
	DB	00H
	DB	034H
	DB	050H
	DB	030H
	DB	00H
	DB	034H
	DB	058H
	DB	034H
	DB	00H
	DB	030H
	DB	050H
	DB	030H
	DB	00H
	DB	034H
	DB	050H
	DB	030H
	DB	00H
	DB	034H
	DB	058H
	DB	034H
	DB	00H
	DB	030H
	DB	050H
	DB	034H
	DB	00H
	DB	034H
	DB	058H
	DB	034H
	DB	00H
	DB	034H
	DB	050H
	DB	034H
	DB	00H
	DB	030H
	DB	058H
	DB	034H
	DB	00H
	DB	034H
	DB	050H
	DB	030H
	DB	00H
	DB	034H
	DB	058H
	DB	034H
	DB	00H
	DB	030H
	DB	050H
	DB	030H
	DB	00H
	DB	034H
	DB	050H
	DB	030H
	DB	00H
	DB	034H
	DB	058H
	DB	034H
	DB	00H
	DB	030H
	DB	050H
	DB	030H
	DB	00H
	DB	034H
	DB	058H
	DB	030H
	DB	00H
	DB	034H
	DB	050H
	DB	034H
	DB	00H
	DB	030H
	DB	058H
	DB	034H
	DB	00H
	DB	034H
	DB	050H
	DB	034H
	DB	00H
	DB	034H
	DB	058H
	DB	034H
	DB	00H
	DB	030H
	DB	050H
	DB	034H
	DB	00H
	DB	034H
	DB	050H
	DB	030H
	DB	00H
	DB	034H
	DB	058H
	DB	034H
	DB	00H
	DB	030H
	DB	050H
	DB	030H
	DB	00H
	DB	034H
	DB	058H
	DB	030H
	DB	00H
	DB	034H
	DB	050H
	DB	034H
	DB	00H
	DB	030H
	DB	058H
	DB	030H
	DB	00H
	DB	034H
	DB	050H
	DB	030H
	DB	00H
	DB	034H
	DB	058H
	DB	034H
	DB	00H
	DB	030H
	DB	050H
	DB	034H
	DB	00H
	DB	034H
	DB	050H
	DB	034H
	DB	00H
	DB	034H
	DB	058H
	DB	034H
	DB	00H
	DB	030H
	DB	050H
	DB	034H
	DB	00H
	DB	034H
	DB	058H
	DB	030H
	DB	00H
	DB	034H
	DB	050H
	DB	034H
	DB	00H
	DB	030H
	DB	058H
	DB	030H
	DB	00H
	DB	034H
	DB	050H
	DB	030H
	DB	00H
	DB	034H
	DB	058H
	DB	034H
	DB	00H
	DB	030H
	DB	050H
	DB	030H
	DB	00H
	DB	034H
	DB	050H
	DB	030H
	DB	00H
	DB	034H
	DB	058H
	DB	034H
	DB	00H
	DB	030H
	DB	050H
	DB	034H
	DB	00H
	DB	034H
	DB	058H
	DB	034H
	DB	00H
	DB	034H
	DB	050H
	DB	034H
	DB	00H
	DB	030H
	DB	058H
	DB	034H
	DB	00H
	DB	034H
	DB	050H
	DB	030H
	DB	00H
	DB	034H
	DB	058H
	DB	034H
	DB	00H
	DB	030H
	DB	050H
	DB	030H
	DB	00H
	DB	034H
	DB	050H
	DB	030H
	DB	00H
	DB	034H
	DB	058H
	DB	034H
	DB	00H
	DB	030H
	DB	050H
	DB	030H
	DB	00H
	DB	034H
	DB	058H
	DB	030H
	DB	00H
	DB	034H
	DB	050H
	DB	034H
	DB	00H
	DB	030H
	DB	058H
	DB	034H
	DB	00H
	DB	034H
	DB	050H
	DB	034H
	DB	00H
	DB	034H
	DB	058H
	DB	034H
	DB	00H
	DB	030H
	DB	050H
	DB	034H
	DB	00H
	DB	034H
	DB	050H
	DB	030H
	DB	00H
	DB	034H
	DB	058H
	DB	034H
	DB	00H
	DB	030H
	DB	050H
	DB	030H
	DB	00H
	DB	034H
	DB	058H
	DB	030H
	DB	00H
	DB	034H
	DB	050H
	DB	034H
	DB	00H
	DB	030H
	DB	058H
	DB	030H
	DB	00H
	DB	034H
	DB	050H
	DB	030H
	DB	00H
	DB	034H
	DB	058H
	DB	034H
	DB	00H
	DB	030H
	DB	050H
	DB	034H
	DB	00H
	DB	034H
	DB	050H
	DB	034H
	DB	00H
	DB	034H
	DB	058H
	DB	034H
	DB	00H
	DB	030H
	DB	050H
	DB	034H
	DB	00H
	DB	034H
	DB	058H
	DB	030H
	DB	00H
	DB	034H
	DB	050H
	DB	034H
	DB	00H
	DB	030H
	DB	058H
	DB	030H
	DB	00H
	DB	034H
	DB	050H
	DB	030H
	DB	00H
	DB	034H
	DB	058H
	DB	034H
	DB	00H
	DB	030H
	DB	050H
	DB	030H
	DB	00H
	DB	034H
	DB	050H
	DB	030H
	DB	00H
	DB	034H
	DB	058H
	DB	034H
	DB	00H
	DB	030H
	DB	050H
	DB	034H
	DB	00H
	DB	034H
	DB	058H
	DB	034H
	DB	00H
	DB	034H
	DB	050H
	DB	034H
	DB	00H
	DB	030H
	DB	058H
	DB	034H
	DB	00H
	DB	034H
	DB	050H
	DB	030H
	DB	00H
	DB	034H
	DB	058H
	DB	034H
	DB	00H
	DB	030H
	DB	050H
	DB	030H
	DB	00H
	DB	034H
	DB	050H
	DB	030H
	DB	00H
	DB	034H
	DB	058H
	DB	034H
	DB	00H
	DB	030H
	DB	050H
	DB	030H
	DB	00H
	DB	034H
	DB	058H
	DB	030H
	DB	00H
	DB	034H
	DB	050H
	DB	034H
	DB	00H
	DB	030H
	DB	058H
	DB	034H
	DB	00H
	DB	034H
	DB	050H
	DB	034H
	DB	00H
	DB	034H
	DB	058H
	DB	034H
	DB	00H
	DB	030H
	DB	050H
	DB	034H
	DB	00H
	DB	034H
	DB	050H
	DB	030H
	DB	00H
	DB	034H
	DB	058H
	DB	034H
	DB	00H
	DB	030H
	DB	050H
	DB	030H
	DB	00H
	DB	034H
	DB	058H
	DB	030H
	DB	00H
	DB	034H
	DB	050H
	DB	034H
	DB	00H
	DB	030H
	DB	058H
	DB	030H
	DB	00H
	DB	034H
	DB	050H
	DB	030H
	DB	00H
	DB	034H
	DB	058H
	DB	034H
	DB	00H
	DB	030H
	DB	050H
	DB	034H
	DB	00H
	DB	034H
	DB	050H
	DB	034H
	DB	00H
	DB	034H
	DB	058H
	DB	034H
	DB	00H
	DB	030H
	DB	050H
	DB	034H
	DB	00H
	DB	034H
	DB	058H
	DB	030H
	DB	00H
	DB	034H
	DB	050H
	DB	034H
	DB	00H
	DB	030H
	DB	058H
	DB	030H
	DB	00H
	DB	034H
	DB	050H
	DB	030H
	DB	00H
	DB	034H
	DB	058H
	DB	034H
	DB	00H
	DB	030H
	DB	050H
	DB	030H
	DB	00H
	DB	034H
	DB	050H
	DB	030H
	DB	00H
	DB	034H
	DB	058H
	DB	034H
	DB	00H
	DB	030H
	DB	050H
	DB	034H
	DB	00H
	DB	034H
	DB	058H
	DB	034H
	DB	00H
	DB	034H
	DB	050H
	DB	034H
	DB	00H
	DB	030H
	DB	058H
	DB	034H
	DB	00H
	DB	034H
	DB	050H
	DB	030H
	DB	00H
	DB	034H
	DB	058H
	DB	034H
	DB	00H
	DB	030H
	DB	050H
	DB	030H
	DB	00H
	DB	034H
	DB	050H
	DB	030H
	DB	00H
	DB	034H
	DB	058H
	DB	034H
	DB	00H
	DB	030H
	DB	050H
	DB	030H
	DB	00H
	DB	034H
	DB	058H
	DB	030H
	DB	00H
	DB	034H
	DB	050H
	DB	034H
	DB	00H
	DB	030H
	DB	058H
	DB	034H
	DB	00H
	DB	034H
	DB	050H
	DB	034H
	DB	00H
	DB	034H
	DB	058H
	DB	034H
	DB	00H
	DB	030H
	DB	050H
	DB	034H
	DB	00H
	DB	034H
	DB	050H
	DB	030H
	DB	00H
	DB	034H
	DB	058H
	DB	034H
	DB	00H
	DB	030H
	DB	050H
	DB	030H
	DB	00H
	DB	034H
	DB	058H
	DB	030H
	DB	00H
	DB	034H
	DB	050H
	DB	034H
	DB	00H
	DB	030H
	DB	058H
	DB	030H
	DB	00H
	DB	034H
	DB	050H
	DB	030H
	DB	00H
	DB	034H
	DB	058H
	DB	034H
	DB	00H
	DB	030H
	DB	050H
	DB	034H
	DB	00H
	DB	034H
	DB	050H
	DB	034H
	DB	00H
	DB	034H
	DB	058H
	DB	034H
	DB	00H
	DB	030H
	DB	050H
	DB	034H
	DB	00H
	DB	034H
	DB	058H
	DB	030H
	DB	00H
	DB	034H
	DB	050H
	DB	034H
	DB	00H
	DB	030H
	DB	058H
	DB	030H
	DB	00H
	DB	034H
	DB	050H
	DB	030H
	DB	00H
	DB	034H
	DB	058H
	DB	034H
	DB	00H
	DB	030H
	DB	050H
	DB	030H
	DB	00H
	DB	034H
	DB	050H
	DB	030H
	DB	00H
	DB	034H
	DB	058H
	DB	034H
	DB	00H
	DB	030H
	DB	050H
	DB	034H
	DB	00H
	DB	034H
	DB	058H
	DB	034H
	DB	00H
	DB	034H
	DB	050H
	DB	034H
	DB	00H
	DB	030H
	DB	058H
	DB	034H
	DB	00H
	DB	034H
	DB	050H
	DB	030H
	DB	00H
	DB	034H
	DB	058H
	DB	034H
	DB	00H
	DB	030H
	DB	050H
	DB	030H
	DB	00H
	DB	034H
	DB	050H
	DB	030H
	DB	00H
	DB	034H
	DB	058H
	DB	034H
	DB	00H
	DB	030H
	DB	050H
	DB	030H
	DB	00H
	DB	034H
	DB	058H
	DB	030H
	DB	00H
	DB	034H
	DB	050H
	DB	034H
	DB	00H
	DB	030H
	DB	058H
	DB	034H
	DB	00H
	DB	034H
	DB	050H
	DB	034H
	DB	00H
	DB	034H
	DB	058H
	DB	034H
	DB	00H
	DB	030H
	DB	050H
	DB	034H
	DB	00H
	DB	034H
	DB	050H
	DB	030H
	DB	00H
	DB	034H
	DB	058H
	DB	034H
	DB	00H
	DB	030H
	DB	050H
	DB	030H
	DB	00H
	DB	034H
	DB	058H
	DB	030H
	DB	00H
	DB	034H
	DB	050H
	DB	034H
	DB	00H
	DB	030H
	DB	058H
	DB	030H
	DB	00H
	DB	034H
	DB	050H
	DB	030H
	DB	00H
	DB	034H
	DB	058H
	DB	034H
	DB	00H
	DB	030H
	DB	050H
	DB	034H
	DB	00H
	DB	034H
	DB	050H
	DB	034H
	DB	00H
	DB	034H
	DB	058H
	DB	034H
	DB	00H
	DB	030H
	DB	050H
	DB	034H
	DB	00H
	DB	034H
	DB	058H
	DB	030H
	DB	00H
	DB	034H
	DB	050H
	DB	034H
	DB	00H
	DB	030H
	DB	058H
	DB	030H
	DB	00H
	DB	034H
	DB	050H
	DB	030H
	DB	00H
	DB	034H
	DB	058H
	DB	034H
	DB	00H
	DB	030H
	DB	050H
	DB	030H
	DB	00H
	DB	034H
	DB	050H
	DB	030H
	DB	00H
	DB	034H
	DB	058H
	DB	034H
	DB	00H
	DB	030H
	DB	050H
	DB	034H
	DB	00H
	DB	034H
	DB	058H
	DB	034H
	DB	00H
	DB	034H
	DB	050H
	DB	034H
	DB	00H
	DB	030H
	DB	058H
	DB	034H
	DB	00H
	DB	034H
	DB	050H
	DB	030H
	DB	00H
	DB	034H
	DB	058H
	DB	034H
	DB	00H
	DB	030H
	DB	050H
	DB	030H
	DB	00H
	DB	034H
	DB	050H
	DB	030H
	DB	00H
	DB	034H
	DB	058H
	DB	034H
	DB	00H
	DB	030H
	DB	050H
	DB	030H
	DB	00H
	DB	034H
	DB	058H
	DB	030H
	DB	00H
	DB	034H
	DB	050H
	DB	034H
	DB	00H
	DB	030H
	DB	058H
	DB	034H
	DB	00H
	DB	034H
	DB	050H
	DB	034H
	DB	00H
	DB	034H
	DB	058H
	DB	034H
	DB	00H
	DB	030H
	DB	050H
	DB	034H
	DB	00H
	DB	034H
	DB	050H
	DB	030H
	DB	00H
	DB	034H
	DB	058H
	DB	034H
	DB	00H
	DB	030H
	DB	050H
	DB	030H
	DB	00H
	DB	034H
	DB	058H
	DB	030H
	DB	00H
	DB	034H
	DB	050H
	DB	034H
	DB	00H
	DB	030H
	DB	058H
	DB	030H
	DB	00H
	DB	034H
	DB	050H
	DB	030H
	DB	00H
	DB	034H
	DB	058H
	DB	034H
	DB	00H
	DB	030H
	DB	050H
	DB	034H
	DB	00H
	DB	034H
	DB	050H
	DB	034H
	DB	00H
	DB	034H
	DB	058H
	DB	034H
	DB	00H
	DB	030H
	DB	050H
	DB	034H
	DB	00H
	DB	034H
	DB	058H
	DB	030H
	DB	00H
	DB	034H
	DB	050H
	DB	034H
	DB	00H
	DB	030H
	DB	058H
	DB	030H
	DB	00H
	DB	034H
	DB	050H
	DB	030H
	DB	00H
	DB	034H
	DB	058H
	DB	034H
	DB	00H
	DB	030H
	DB	050H
	DB	030H
	DB	00H
	DB	034H
	DB	050H
	DB	030H
	DB	00H
	DB	034H
	DB	058H
	DB	034H
	DB	00H
	DB	030H
	DB	050H
	DB	034H
	DB	00H
	DB	034H
	DB	058H
	DB	034H
	DB	00H
	DB	034H
	DB	050H
	DB	034H
	DB	00H
	DB	030H
	DB	058H
	DB	034H
	DB	00H
	DB	034H
	DB	050H
	DB	030H
	DB	00H
	DB	034H
	DB	058H
	DB	034H
	DB	00H
	DB	030H
	DB	050H
	DB	030H
	DB	00H
	DB	034H
	DB	050H
	DB	030H
	DB	00H
	DB	034H
	DB	058H
	DB	034H
	DB	00H
	DB	030H
	DB	050H
	DB	030H
	DB	00H
	DB	034H
	DB	058H
	DB	030H
	DB	00H
	DB	034H
	DB	050H
	DB	034H
	DB	00H
	DB	030H
	DB	058H
	DB	034H
	DB	00H
	DB	034H
	DB	050H
	DB	034H
	DB	00H
	DB	034H
	DB	058H
	DB	034H
	DB	00H
	DB	030H
	DB	050H
	DB	034H
	DB	00H
	DB	034H
	DB	050H
	DB	030H
	DB	00H
	DB	034H
	DB	058H
	DB	034H
	DB	00H
	DB	030H
	DB	050H
	DB	030H
	DB	00H
	DB	030H
	DB	058H
	DB	030H
	DB	00H
	DB	030H
	DB	050H
	DB	034H
	DB	00H
	DB	02cH
	DB	058H
	DB	030H
	DB	00H
	DB	028H
	DB	050H
	DB	030H
	DB	00H
	DB	028H
	DB	058H
	DB	034H
	DB	00H
	DB	020H
	DB	050H
	DB	034H
	DB	00H
	DB	01cH
	DB	050H
	DB	034H
	DB	00H
	DB	018H
	DB	058H
	DB	034H
	DB	00H
	DB	014H
	DB	050H
	DB	034H
	DB	00H
	DB	0cH
	DB	058H
	DB	030H
	DB	00H
	DB	0cH
	DB	050H
	DB	034H
	DB	00H
	DB	08H
	DB	058H
	DB	030H
	DB	00H
	DB	04H
	DB	050H
	DB	030H
	DB	00H
	DB	00H
	DB	058H
	DB	034H
	DB	00H
	DB	00H
	DB	058H
	DB	034H
	DB	00H
	DB	00H
	DB	050H
	DB	030H
	DB	00H
	DB	00H
	DB	050H
	DB	030H
	DB	00H
	DB	00H
	DB	058H
	DB	034H
	DB	00H
	DB	00H
	DB	0f8H
	DB	0fcH
	DB	0f8H
	DB	00H
	DB	0f8H
	DB	0fcH
	DB	0f8H
	DB	00H
	DB	0f8H
	DB	0fcH
	DB	0f8H
	DB	00H
	DB	058H
	DB	034H
	DB	00H
	DB	00H
	DB	058H
	DB	034H
	DB	00H
	DB	00H
	DB	050H
	DB	030H
	DB	00H
	DB	00H
	DB	058H
	DB	034H
	DB	00H
	DB	04H
	DB	058H
	DB	034H
	DB	00H
	DB	04H
	DB	050H
	DB	030H
	DB	00H
	DB	04H
	DB	058H
	DB	034H
	DB	00H
	DB	08H
	DB	058H
	DB	034H
	DB	00H
	DB	010H
	DB	050H
	DB	034H
	DB	00H
	DB	014H
	DB	058H
	DB	034H
	DB	00H
	DB	018H
	DB	050H
	DB	034H
	DB	00H
	DB	020H
	DB	058H
	DB	034H
	DB	00H
	DB	028H
	DB	058H
	DB	034H
	DB	00H
	DB	051H
	DB	050H
	DB	034H
	DB	00H
	DB	0a6H
	DB	058H
	DB	034H
	DB	00H
	DB	0dfH
	DB	058H
	DB	030H
	DB	00H
	DB	0fbH
	DB	058H
	DB	034H
	DB	00H
	DB	0ffH
	DB	050H
	DB	030H
	DB	00H
	DB	0ffH
	DB	058H
	DB	034H
	DB	00H
	DB	0ffH
	DB	058H
	DB	034H
	DB	00H
	DB	0ffH
	DB	050H
	DB	034H
	DB	00H
	DB	0ffH
	DB	058H
	DB	034H
	DB	00H
	DB	0ffH
	DB	058H
	DB	034H
	DB	00H
	DB	0ffH
	DB	058H
	DB	034H
	DB	00H
	DB	0ffH
	DB	058H
	DB	034H
	DB	00H
	DB	0ffH
	DB	050H
	DB	034H
	DB	00H
	DB	0ffH
	DB	058H
	DB	034H
	DB	00H
	DB	0ffH
	DB	058H
	DB	030H
	DB	00H
	DB	0ffH
	DB	050H
	DB	034H
	DB	00H
	DB	0ffH
	DB	058H
	DB	030H
	DB	00H
	DB	0ffH
	DB	058H
	DB	034H
	DB	00H
	DB	0ffH
	DB	058H
	DB	034H
	DB	00H
	DB	0ffH
	DB	058H
	DB	034H
	DB	00H
	DB	0ffH
	DB	050H
	DB	034H
	DB	00H
	DB	0ffH
	DB	058H
	DB	034H
	DB	00H
	DB	0ffH
	DB	058H
	DB	034H
	DB	00H
	DB	0ffH
	DB	050H
	DB	034H
	DB	00H
	DB	0ffH
	DB	058H
	DB	034H
	DB	00H
	DB	0ffH
	DB	058H
	DB	034H
	DB	00H
	DB	0ffH
	DB	050H
	DB	030H
	DB	00H
	DB	0ffH
	DB	058H
	DB	034H
	DB	00H
	DB	0ffH
	DB	058H
	DB	030H
	DB	00H
	DB	0ffH
	DB	058H
	DB	034H
	DB	00H
	DB	0ffH
	DB	058H
	DB	034H
	DB	00H
	DB	0ffH
	DB	050H
	DB	034H
	DB	00H
	DB	0ffH
	DB	058H
	DB	034H
	DB	00H
	DB	0ffH
	DB	058H
	DB	034H
	DB	00H
	DB	0ffH
	DB	050H
	DB	034H
	DB	00H
	DB	0ffH
	DB	058H
	DB	034H
	DB	00H
	DB	0ffH
	DB	058H
	DB	034H
	DB	00H
	DB	0ffH
	DB	058H
	DB	034H
	DB	00H
	DB	0ffH
	DB	058H
	DB	030H
	DB	00H
	DB	0ffH
	DB	050H
	DB	034H
	DB	00H
	DB	0ffH
	DB	058H
	DB	030H
	DB	00H
	DB	0ffH
	DB	058H
	DB	034H
	DB	00H
	DB	0ffH
	DB	050H
	DB	034H
	DB	00H
	DB	0ffH
	DB	058H
	DB	034H
	DB	00H
	DB	0ffH
	DB	058H
	DB	034H
	DB	00H
	DB	0ffH
	DB	058H
	DB	034H
	DB	00H
	DB	0ffH
	DB	058H
	DB	034H
	DB	00H
	DB	0ffH
	DB	050H
	DB	034H
	DB	00H
	DB	0ffH
	DB	058H
	DB	034H
	DB	00H
	DB	0ffH
	DB	058H
	DB	034H
	DB	00H
	DB	0ffH
	DB	050H
	DB	030H
	DB	00H
	DB	0ffH
	DB	058H
	DB	034H
	DB	00H
	DB	0ffH
	DB	058H
	DB	030H
	DB	00H
	DB	0ffH
	DB	050H
	DB	034H
	DB	00H
	DB	0ffH
	DB	058H
	DB	034H
	DB	00H
	DB	0ffH
	DB	058H
	DB	034H
	DB	00H
	DB	0ffH
	DB	058H
	DB	034H
	DB	00H
	DB	0ffH
	DB	058H
	DB	034H
	DB	00H
	DB	0ffH
	DB	050H
	DB	034H
	DB	00H
	DB	0ffH
	DB	058H
	DB	034H
	DB	00H
	DB	0ffH
	DB	058H
	DB	034H
	DB	00H
	DB	0ffH
	DB	050H
	DB	034H
	DB	00H
	DB	0ffH
	DB	058H
	DB	030H
	DB	00H
	DB	0ffH
	DB	058H
	DB	034H
	DB	00H
	DB	0ffH
	DB	058H
	DB	030H
	DB	00H
	DB	0ffH
	DB	058H
	DB	034H
	DB	00H
	DB	0ffH
	DB	050H
	DB	034H
	DB	00H
	DB	0ffH
	DB	058H
	DB	034H
	DB	00H
	DB	0ffH
	DB	058H
	DB	034H
	DB	00H
	DB	0ffH
	DB	050H
	DB	034H
	DB	00H
	DB	0ffH
	DB	058H
	DB	034H
	DB	00H
	DB	0ffH
	DB	058H
	DB	034H
	DB	00H
	DB	0ffH
	DB	058H
	DB	034H
	DB	00H
	DB	0ffH
	DB	058H
	DB	034H
	DB	00H
	DB	0ffH
	DB	050H
	DB	030H
	DB	00H
	DB	0ffH
	DB	058H
	DB	034H
	DB	00H
	DB	0ffH
	DB	058H
	DB	030H
	DB	00H
	DB	0ffH
	DB	050H
	DB	034H
	DB	00H
	DB	0ffH
	DB	058H
	DB	034H
	DB	00H
	DB	0ffH
	DB	058H
	DB	034H
	DB	00H
	DB	0ffH
	DB	050H
	DB	034H
	DB	00H
	DB	0ffH
	DB	058H
	DB	034H
	DB	00H
	DB	0ffH
	DB	058H
	DB	034H
	DB	00H
	DB	0ffH
	DB	058H
	DB	034H
	DB	00H
	DB	0ffH
	DB	058H
	DB	034H
	DB	00H
	DB	0ffH
	DB	050H
	DB	034H
	DB	00H
	DB	0ffH
	DB	058H
	DB	030H
	DB	00H
	DB	0ffH
	DB	058H
	DB	034H
	DB	00H
	DB	0ffH
	DB	050H
	DB	030H
	DB	00H
	DB	0ffH
	DB	058H
	DB	034H
	DB	00H
	DB	0ffH
	DB	058H
	DB	034H
	DB	00H
	DB	0ffH
	DB	058H
	DB	034H
	DB	00H
	DB	0ffH
	DB	058H
	DB	034H
	DB	00H
	DB	0ffH
	DB	050H
	DB	034H
	DB	00H
	DB	0ffH
	DB	058H
	DB	034H
	DB	00H
	DB	0ffH
	DB	058H
	DB	034H
	DB	00H
	DB	0ffH
	DB	050H
	DB	034H
	DB	00H
	DB	0ffH
	DB	058H
	DB	034H
	DB	00H
	DB	0ffH
	DB	058H
	DB	030H
	DB	00H
	DB	0ffH
	DB	058H
	DB	034H
	DB	00H
	DB	0ffH
	DB	058H
	DB	030H
	DB	00H
	DB	0ffH
	DB	050H
	DB	034H
	DB	00H
	DB	0ffH
	DB	058H
	DB	034H
	DB	00H
	DB	0ffH
	DB	058H
	DB	034H
	DB	00H
	DB	0ffH
	DB	050H
	DB	034H
	DB	00H
	DB	0ffH
	DB	058H
	DB	034H
	DB	00H
	DB	0ffH
	DB	058H
	DB	034H
	DB	00H
	DB	0ffH
	DB	050H
	DB	034H
	DB	00H
	DB	0ffH
	DB	058H
	DB	034H
	DB	00H
	DB	0ffH
	DB	058H
	DB	034H
	DB	00H
	DB	0ffH
	DB	058H
	DB	030H
	DB	00H
	DB	0ffH
	DB	058H
	DB	034H
	DB	00H
	DB	0ffH
	DB	050H
	DB	030H
	DB	00H
	DB	0ffH
	DB	058H
	DB	034H
	DB	00H
	DB	0ffH
	DB	058H
	DB	034H
	DB	00H
	DB	0ffH
	DB	050H
	DB	034H
	DB	00H
	DB	0ffH
	DB	058H
	DB	034H
	DB	00H
	DB	0ffH
	DB	058H
	DB	034H
	DB	00H
	DB	0ffH
	DB	058H
	DB	034H
	DB	00H
	DB	0ffH
	DB	058H
	DB	034H
	DB	00H
	DB	0ffH
	DB	050H
	DB	034H
	DB	00H
	DB	0ffH
	DB	058H
	DB	034H
	DB	00H
	DB	0ffH
	DB	058H
	DB	030H
	DB	00H
	DB	0ffH
	DB	050H
	DB	034H
	DB	00H
	DB	0ffH
	DB	058H
	DB	030H
	DB	00H
	DB	0ffH
	DB	058H
	DB	034H
	DB	00H
	DB	0ffH
	DB	058H
	DB	034H
	DB	00H
	DB	0ffH
	DB	058H
	DB	034H
	DB	00H
	DB	0ffH
	DB	050H
	DB	034H
	DB	00H
	DB	0ffH
	DB	058H
	DB	034H
	DB	00H
	DB	0ffH
	DB	058H
	DB	034H
	DB	00H
	DB	0ffH
	DB	050H
	DB	034H
	DB	00H
	DB	0ffH
	DB	058H
	DB	034H
	DB	00H
	DB	0ffH
	DB	058H
	DB	034H
	DB	00H
	DB	0ffH
	DB	050H
	DB	030H
	DB	00H
	DB	0ffH
	DB	058H
	DB	034H
	DB	00H
	DB	0ffH
	DB	058H
	DB	030H
	DB	00H
	DB	0ffH
	DB	058H
	DB	034H
	DB	00H
	DB	0ffH
	DB	058H
	DB	034H
	DB	00H
	DB	0ffH
	DB	050H
	DB	034H
	DB	00H
	DB	0ffH
	DB	058H
	DB	034H
	DB	00H
	DB	0ffH
	DB	058H
	DB	034H
	DB	00H
	DB	0ffH
	DB	050H
	DB	034H
	DB	00H
	DB	0ffH
	DB	058H
	DB	034H
	DB	00H
	DB	0ffH
	DB	058H
	DB	034H
	DB	00H
	DB	0ffH
	DB	058H
	DB	034H
	DB	00H
	DB	0ffH
	DB	058H
	DB	030H
	DB	00H
	DB	0ffH
	DB	050H
	DB	034H
	DB	00H
	DB	0ffH
	DB	058H
	DB	030H
	DB	00H
	DB	0ffH
	DB	058H
	DB	034H
	DB	00H
	DB	0ffH
	DB	050H
	DB	034H
	DB	00H
	DB	0ffH
	DB	058H
	DB	034H
	DB	00H
	DB	0ffH
	DB	058H
	DB	034H
	DB	00H
	DB	0ffH
	DB	058H
	DB	034H
	DB	00H
	DB	0ffH
	DB	058H
	DB	034H
	DB	00H
	DB	0ffH
	DB	050H
	DB	034H
	DB	00H
	DB	0ffH
	DB	058H
	DB	034H
	DB	00H
	DB	0ffH
	DB	058H
	DB	034H
	DB	00H
	DB	0ffH
	DB	050H
	DB	030H
	DB	00H
	DB	0ffH
	DB	058H
	DB	034H
	DB	00H
	DB	0ffH
	DB	058H
	DB	030H
	DB	00H
	DB	0ffH
	DB	050H
	DB	034H
	DB	00H
	DB	0ffH
	DB	058H
	DB	034H
	DB	00H
	DB	0ffH
	DB	058H
	DB	034H
	DB	00H
	DB	0ffH
	DB	058H
	DB	034H
	DB	00H
	DB	0ffH
	DB	058H
	DB	034H
	DB	00H
	DB	0ffH
	DB	050H
	DB	034H
	DB	00H
	DB	0ffH
	DB	058H
	DB	034H
	DB	00H
	DB	0ffH
	DB	058H
	DB	034H
	DB	00H
	DB	0ffH
	DB	050H
	DB	034H
	DB	00H
	DB	0ffH
	DB	058H
	DB	030H
	DB	00H
	DB	0ffH
	DB	058H
	DB	034H
	DB	00H
	DB	0ffH
	DB	058H
	DB	030H
	DB	00H
	DB	0ffH
	DB	058H
	DB	034H
	DB	00H
	DB	0ffH
	DB	050H
	DB	034H
	DB	00H
	DB	0ffH
	DB	058H
	DB	034H
	DB	00H
	DB	0ffH
	DB	058H
	DB	034H
	DB	00H
	DB	0ffH
	DB	050H
	DB	034H
	DB	00H
	DB	0ffH
	DB	058H
	DB	034H
	DB	00H
	DB	0ffH
	DB	058H
	DB	034H
	DB	00H
	DB	0ffH
	DB	058H
	DB	034H
	DB	00H
	DB	0ffH
	DB	058H
	DB	034H
	DB	00H
	DB	0ffH
	DB	050H
	DB	030H
	DB	00H
	DB	0ffH
	DB	058H
	DB	034H
	DB	00H
	DB	0ffH
	DB	058H
	DB	030H
	DB	00H
	DB	0ffH
	DB	050H
	DB	034H
	DB	00H
	DB	0ffH
	DB	058H
	DB	034H
	DB	00H
	DB	0ffH
	DB	058H
	DB	034H
	DB	00H
	DB	0ffH
	DB	050H
	DB	034H
	DB	00H
	DB	0ffH
	DB	058H
	DB	034H
	DB	00H
	DB	0ffH
	DB	058H
	DB	034H
	DB	00H
	DB	0ffH
	DB	058H
	DB	034H
	DB	00H
	DB	0ffH
	DB	058H
	DB	034H
	DB	00H
	DB	0ffH
	DB	050H
	DB	034H
	DB	00H
	DB	0ffH
	DB	058H
	DB	030H
	DB	00H
	DB	0ffH
	DB	058H
	DB	034H
	DB	00H
	DB	0ffH
	DB	050H
	DB	030H
	DB	00H
	DB	0ffH
	DB	058H
	DB	034H
	DB	00H
	DB	0ffH
	DB	058H
	DB	034H
	DB	00H
	DB	0ffH
	DB	058H
	DB	034H
	DB	00H
	DB	0ffH
	DB	058H
	DB	034H
	DB	00H
	DB	0ffH
	DB	050H
	DB	034H
	DB	00H
	DB	0ffH
	DB	058H
	DB	034H
	DB	00H
	DB	0ffH
	DB	058H
	DB	034H
	DB	00H
	DB	0ffH
	DB	050H
	DB	034H
	DB	00H
	DB	0ffH
	DB	058H
	DB	034H
	DB	00H
	DB	0ffH
	DB	058H
	DB	030H
	DB	00H
	DB	0ffH
	DB	058H
	DB	034H
	DB	00H
	DB	0ffH
	DB	058H
	DB	030H
	DB	00H
	DB	0ffH
	DB	050H
	DB	034H
	DB	00H
	DB	0ffH
	DB	058H
	DB	034H
	DB	00H
	DB	0ffH
	DB	058H
	DB	034H
	DB	00H
	DB	0ffH
	DB	050H
	DB	034H
	DB	00H
	DB	0ffH
	DB	058H
	DB	034H
	DB	00H
	DB	0ffH
	DB	058H
	DB	034H
	DB	00H
	DB	0ffH
	DB	050H
	DB	034H
	DB	00H
	DB	0ffH
	DB	058H
	DB	034H
	DB	00H
	DB	0ffH
	DB	058H
	DB	034H
	DB	00H
	DB	0ffH
	DB	058H
	DB	030H
	DB	00H
	DB	0ffH
	DB	058H
	DB	034H
	DB	00H
	DB	0ffH
	DB	050H
	DB	030H
	DB	00H
	DB	0ffH
	DB	058H
	DB	034H
	DB	00H
	DB	0ffH
	DB	058H
	DB	034H
	DB	00H
	DB	0ffH
	DB	050H
	DB	034H
	DB	00H
	DB	0ffH
	DB	058H
	DB	034H
	DB	00H
	DB	0ffH
	DB	058H
	DB	034H
	DB	00H
	DB	0ffH
	DB	058H
	DB	034H
	DB	00H
	DB	0ffH
	DB	058H
	DB	034H
	DB	00H
	DB	0ffH
	DB	050H
	DB	034H
	DB	00H
	DB	0ffH
	DB	058H
	DB	034H
	DB	00H
	DB	0ffH
	DB	058H
	DB	030H
	DB	00H
	DB	0ffH
	DB	050H
	DB	034H
	DB	00H
	DB	0ffH
	DB	058H
	DB	030H
	DB	00H
	DB	0ffH
	DB	058H
	DB	034H
	DB	00H
	DB	0ffH
	DB	058H
	DB	034H
	DB	00H
	DB	0ffH
	DB	058H
	DB	034H
	DB	00H
	DB	0ffH
	DB	050H
	DB	034H
	DB	00H
	DB	0ffH
	DB	058H
	DB	034H
	DB	00H
	DB	0ffH
	DB	058H
	DB	034H
	DB	00H
	DB	0ffH
	DB	050H
	DB	034H
	DB	00H
	DB	0ffH
	DB	058H
	DB	034H
	DB	00H
	DB	0ffH
	DB	058H
	DB	034H
	DB	00H
	DB	0ffH
	DB	050H
	DB	030H
	DB	00H
	DB	0ffH
	DB	058H
	DB	034H
	DB	00H
	DB	0ffH
	DB	058H
	DB	030H
	DB	00H
	DB	0ffH
	DB	058H
	DB	034H
	DB	00H
	DB	0ffH
	DB	058H
	DB	034H
	DB	00H
	DB	0ffH
	DB	050H
	DB	034H
	DB	00H
	DB	0ffH
	DB	058H
	DB	034H
	DB	00H
	DB	0ffH
	DB	058H
	DB	034H
	DB	00H
	DB	0ffH
	DB	050H
	DB	034H
	DB	00H
	DB	0ffH
	DB	058H
	DB	034H
	DB	00H
	DB	0ffH
	DB	058H
	DB	034H
	DB	00H
	DB	0ffH
	DB	058H
	DB	034H
	DB	00H
	DB	0ffH
	DB	058H
	DB	030H
	DB	00H
	DB	0ffH
	DB	050H
	DB	034H
	DB	00H
	DB	0ffH
	DB	058H
	DB	030H
	DB	00H
	DB	0ffH
	DB	058H
	DB	034H
	DB	00H
	DB	0ffH
	DB	050H
	DB	034H
	DB	00H
	DB	0ffH
	DB	058H
	DB	034H
	DB	00H
	DB	0ffH
	DB	058H
	DB	034H
	DB	00H
	DB	0ffH
	DB	058H
	DB	034H
	DB	00H
	DB	0ffH
	DB	058H
	DB	034H
	DB	00H
	DB	0ffH
	DB	050H
	DB	034H
	DB	00H
	DB	0ffH
	DB	058H
	DB	034H
	DB	00H
	DB	0ffH
	DB	058H
	DB	034H
	DB	00H
	DB	0ffH
	DB	050H
	DB	030H
	DB	00H
	DB	0ffH
	DB	058H
	DB	034H
	DB	00H
	DB	0ffH
	DB	058H
	DB	030H
	DB	00H
	DB	0ffH
	DB	050H
	DB	034H
	DB	00H
	DB	0ffH
	DB	058H
	DB	034H
	DB	00H
	DB	0ffH
	DB	058H
	DB	034H
	DB	00H
	DB	0ffH
	DB	058H
	DB	034H
	DB	00H
	DB	0ffH
	DB	058H
	DB	034H
	DB	00H
	DB	0ffH
	DB	050H
	DB	034H
	DB	00H
	DB	0ffH
	DB	058H
	DB	034H
	DB	00H
	DB	0ffH
	DB	058H
	DB	034H
	DB	00H
	DB	0ffH
	DB	050H
	DB	034H
	DB	00H
	DB	0ffH
	DB	058H
	DB	030H
	DB	00H
	DB	0ffH
	DB	058H
	DB	034H
	DB	00H
	DB	0ffH
	DB	058H
	DB	030H
	DB	00H
	DB	0ffH
	DB	058H
	DB	034H
	DB	00H
	DB	0ffH
	DB	050H
	DB	034H
	DB	00H
	DB	0ffH
	DB	058H
	DB	034H
	DB	00H
	DB	0ffH
	DB	058H
	DB	034H
	DB	00H
	DB	0ffH
	DB	050H
	DB	034H
	DB	00H
	DB	0ffH
	DB	058H
	DB	034H
	DB	00H
	DB	0ffH
	DB	058H
	DB	034H
	DB	00H
	DB	0ffH
	DB	058H
	DB	034H
	DB	00H
	DB	0ffH
	DB	058H
	DB	034H
	DB	00H
	DB	0ffH
	DB	050H
	DB	030H
	DB	00H
	DB	0ffH
	DB	058H
	DB	034H
	DB	00H
	DB	0ffH
	DB	058H
	DB	030H
	DB	00H
	DB	0ffH
	DB	050H
	DB	034H
	DB	00H
	DB	0ffH
	DB	058H
	DB	034H
	DB	00H
	DB	0ffH
	DB	058H
	DB	034H
	DB	00H
	DB	0ffH
	DB	050H
	DB	034H
	DB	00H
	DB	0ffH
	DB	058H
	DB	034H
	DB	00H
	DB	0ffH
	DB	058H
	DB	034H
	DB	00H
	DB	0ffH
	DB	058H
	DB	034H
	DB	00H
	DB	0ffH
	DB	058H
	DB	034H
	DB	00H
	DB	0ffH
	DB	050H
	DB	034H
	DB	00H
	DB	0ffH
	DB	058H
	DB	030H
	DB	00H
	DB	0ffH
	DB	058H
	DB	034H
	DB	00H
	DB	0ffH
	DB	050H
	DB	030H
	DB	00H
	DB	0ffH
	DB	058H
	DB	034H
	DB	00H
	DB	0ffH
	DB	058H
	DB	034H
	DB	00H
	DB	0ffH
	DB	058H
	DB	034H
	DB	00H
	DB	0ffH
	DB	058H
	DB	034H
	DB	00H
	DB	0ffH
	DB	050H
	DB	034H
	DB	00H
	DB	0ffH
	DB	058H
	DB	034H
	DB	00H
	DB	0ffH
	DB	058H
	DB	034H
	DB	00H
	DB	0ffH
	DB	050H
	DB	034H
	DB	00H
	DB	0ffH
	DB	058H
	DB	034H
	DB	00H
	DB	0ffH
	DB	058H
	DB	030H
	DB	00H
	DB	0ffH
	DB	058H
	DB	034H
	DB	00H
	DB	0ffH
	DB	058H
	DB	030H
	DB	00H
	DB	0ffH
	DB	050H
	DB	034H
	DB	00H
	DB	0ffH
	DB	058H
	DB	034H
	DB	00H
	DB	0ffH
	DB	058H
	DB	034H
	DB	00H
	DB	0ffH
	DB	050H
	DB	034H
	DB	00H
	DB	0ffH
	DB	058H
	DB	034H
	DB	00H
	DB	0ffH
	DB	058H
	DB	034H
	DB	00H
	DB	0ffH
	DB	050H
	DB	034H
	DB	00H
	DB	0ffH
	DB	058H
	DB	034H
	DB	00H
	DB	0ffH
	DB	058H
	DB	034H
	DB	00H
	DB	0ffH
	DB	058H
	DB	030H
	DB	00H
	DB	0ffH
	DB	058H
	DB	034H
	DB	00H
	DB	0ffH
	DB	050H
	DB	030H
	DB	00H
	DB	0ffH
	DB	058H
	DB	034H
	DB	00H
	DB	0ffH
	DB	058H
	DB	034H
	DB	00H
	DB	0ffH
	DB	050H
	DB	034H
	DB	00H
	DB	0ffH
	DB	058H
	DB	034H
	DB	00H
	DB	0ffH
	DB	058H
	DB	034H
	DB	00H
	DB	0ffH
	DB	058H
	DB	034H
	DB	00H
	DB	0ffH
	DB	058H
	DB	034H
	DB	00H
	DB	0ffH
	DB	050H
	DB	034H
	DB	00H
	DB	0ffH
	DB	058H
	DB	034H
	DB	00H
	DB	0ffH
	DB	058H
	DB	030H
	DB	00H
	DB	0ffH
	DB	050H
	DB	034H
	DB	00H
	DB	0ffH
	DB	058H
	DB	030H
	DB	00H
	DB	0ffH
	DB	058H
	DB	034H
	DB	00H
	DB	0ffH
	DB	058H
	DB	034H
	DB	00H
	DB	0ffH
	DB	058H
	DB	034H
	DB	00H
	DB	0ffH
	DB	050H
	DB	034H
	DB	00H
	DB	0ffH
	DB	058H
	DB	034H
	DB	00H
	DB	0ffH
	DB	058H
	DB	034H
	DB	00H
	DB	0ffH
	DB	050H
	DB	034H
	DB	00H
	DB	0fbH
	DB	058H
	DB	034H
	DB	00H
	DB	0dfH
	DB	058H
	DB	034H
	DB	00H
	DB	0a6H
	DB	050H
	DB	030H
	DB	00H
	DB	051H
	DB	058H
	DB	034H
	DB	00H
	DB	028H
	DB	058H
	DB	030H
	DB	00H
	DB	020H
	DB	058H
	DB	034H
	DB	00H
	DB	01cH
	DB	058H
	DB	034H
	DB	00H
	DB	014H
	DB	050H
	DB	034H
	DB	00H
	DB	0cH
	DB	058H
	DB	034H
	DB	00H
	DB	08H
	DB	058H
	DB	034H
	DB	00H
	DB	08H
	DB	050H
	DB	034H
	DB	00H
	DB	04H
	DB	058H
	DB	034H
	DB	00H
	DB	04H
	DB	050H
	DB	030H
	DB	00H
	DB	00H
	DB	058H
	DB	034H
	DB	00H
	DB	00H
	DB	058H
	DB	034H
	DB	00H
	DB	00H
	DB	050H
	DB	034H
	DB	00H
	DB	00H
	DB	0f8H
	DB	0fcH
	DB	0f8H
	DB	00H
	DB	0f8H
	DB	0fcH
	DB	0f8H
	DB	00H
	DB	0f8H
	DB	0fcH
	DB	0f8H
	DB	00H
	DB	058H
	DB	034H
	DB	00H
	DB	00H
	DB	050H
	DB	034H
	DB	00H
	DB	00H
	DB	058H
	DB	034H
	DB	00H
	DB	00H
	DB	050H
	DB	034H
	DB	00H
	DB	04H
	DB	058H
	DB	034H
	DB	00H
	DB	04H
	DB	058H
	DB	030H
	DB	00H
	DB	08H
	DB	050H
	DB	034H
	DB	00H
	DB	0cH
	DB	058H
	DB	034H
	DB	00H
	DB	014H
	DB	058H
	DB	030H
	DB	00H
	DB	018H
	DB	050H
	DB	034H
	DB	00H
	DB	020H
	DB	058H
	DB	034H
	DB	00H
	DB	030H
	DB	050H
	DB	034H
	DB	00H
	DB	0a6H
	DB	058H
	DB	034H
	DB	00H
	DB	0fbH
	DB	058H
	DB	034H
	DB	00H
	DB	0ffH
	DB	050H
	DB	034H
	DB	00H
	DB	0ffH
	DB	058H
	DB	034H
	DB	00H
	DB	0ffH
	DB	058H
	DB	034H
	DB	00H
	DB	0ffH
	DB	050H
	DB	030H
	DB	00H
	DB	0ffH
	DB	058H
	DB	034H
	DB	00H
	DB	0ffH
	DB	058H
	DB	034H
	DB	00H
	DB	0ffH
	DB	050H
	DB	030H
	DB	00H
	DB	0ffH
	DB	058H
	DB	034H
	DB	00H
	DB	0ffH
	DB	058H
	DB	034H
	DB	00H
	DB	0ffH
	DB	050H
	DB	034H
	DB	00H
	DB	0ffH
	DB	058H
	DB	034H
	DB	00H
	DB	0ffH
	DB	058H
	DB	034H
	DB	00H
	DB	0ffH
	DB	050H
	DB	034H
	DB	00H
	DB	0ffH
	DB	058H
	DB	034H
	DB	00H
	DB	0ffH
	DB	058H
	DB	034H
	DB	00H
	DB	0ffH
	DB	050H
	DB	030H
	DB	00H
	DB	0ffH
	DB	050H
	DB	034H
	DB	00H
	DB	0ffH
	DB	058H
	DB	034H
	DB	00H
	DB	0ffH
	DB	058H
	DB	030H
	DB	00H
	DB	0ffH
	DB	050H
	DB	034H
	DB	00H
	DB	0ffH
	DB	058H
	DB	034H
	DB	00H
	DB	0ffH
	DB	058H
	DB	034H
	DB	00H
	DB	0ffH
	DB	050H
	DB	034H
	DB	00H
	DB	0ffH
	DB	058H
	DB	034H
	DB	00H
	DB	0ffH
	DB	058H
	DB	034H
	DB	00H
	DB	0ffH
	DB	050H
	DB	034H
	DB	00H
	DB	0ffH
	DB	058H
	DB	034H
	DB	00H
	DB	0ffH
	DB	058H
	DB	030H
	DB	00H
	DB	0ffH
	DB	050H
	DB	034H
	DB	00H
	DB	0ffH
	DB	058H
	DB	034H
	DB	00H
	DB	0ffH
	DB	050H
	DB	030H
	DB	00H
	DB	0ffH
	DB	058H
	DB	034H
	DB	00H
	DB	0ffH
	DB	058H
	DB	034H
	DB	00H
	DB	0ffH
	DB	050H
	DB	034H
	DB	00H
	DB	0ffH
	DB	058H
	DB	034H
	DB	00H
	DB	0ffH
	DB	058H
	DB	034H
	DB	00H
	DB	0ffH
	DB	050H
	DB	034H
	DB	00H
	DB	0ffH
	DB	058H
	DB	034H
	DB	00H
	DB	0ffH
	DB	058H
	DB	034H
	DB	00H
	DB	0ffH
	DB	050H
	DB	030H
	DB	00H
	DB	0ffH
	DB	058H
	DB	034H
	DB	00H
	DB	0ffH
	DB	058H
	DB	034H
	DB	00H
	DB	0ffH
	DB	050H
	DB	030H
	DB	00H
	DB	0ffH
	DB	050H
	DB	034H
	DB	00H
	DB	0ffH
	DB	058H
	DB	034H
	DB	00H
	DB	0ffH
	DB	058H
	DB	034H
	DB	00H
	DB	0ffH
	DB	050H
	DB	034H
	DB	00H
	DB	0ffH
	DB	058H
	DB	034H
	DB	00H
	DB	0ffH
	DB	058H
	DB	034H
	DB	00H
	DB	0ffH
	DB	050H
	DB	034H
	DB	00H
	DB	0ffH
	DB	058H
	DB	034H
	DB	00H
	DB	0ffH
	DB	058H
	DB	030H
	DB	00H
	DB	0ffH
	DB	050H
	DB	034H
	DB	00H
	DB	0ffH
	DB	058H
	DB	034H
	DB	00H
	DB	0ffH
	DB	058H
	DB	030H
	DB	00H
	DB	0ffH
	DB	050H
	DB	034H
	DB	00H
	DB	0ffH
	DB	058H
	DB	034H
	DB	00H
	DB	0ffH
	DB	050H
	DB	034H
	DB	00H
	DB	0ffH
	DB	058H
	DB	034H
	DB	00H
	DB	0ffH
	DB	058H
	DB	034H
	DB	00H
	DB	0ffH
	DB	050H
	DB	034H
	DB	00H
	DB	0ffH
	DB	058H
	DB	034H
	DB	00H
	DB	0ffH
	DB	058H
	DB	034H
	DB	00H
	DB	0ffH
	DB	050H
	DB	030H
	DB	00H
	DB	0ffH
	DB	058H
	DB	034H
	DB	00H
	DB	0ffH
	DB	058H
	DB	034H
	DB	00H
	DB	0ffH
	DB	050H
	DB	030H
	DB	00H
	DB	0ffH
	DB	058H
	DB	034H
	DB	00H
	DB	0ffH
	DB	058H
	DB	034H
	DB	00H
	DB	0ffH
	DB	050H
	DB	034H
	DB	00H
	DB	0ffH
	DB	050H
	DB	034H
	DB	00H
	DB	0ffH
	DB	058H
	DB	034H
	DB	00H
	DB	0ffH
	DB	058H
	DB	034H
	DB	00H
	DB	0ffH
	DB	050H
	DB	034H
	DB	00H
	DB	0ffH
	DB	058H
	DB	034H
	DB	00H
	DB	0ffH
	DB	058H
	DB	030H
	DB	00H
	DB	0ffH
	DB	050H
	DB	034H
	DB	00H
	DB	0ffH
	DB	058H
	DB	034H
	DB	00H
	DB	0ffH
	DB	058H
	DB	030H
	DB	00H
	DB	0ffH
	DB	050H
	DB	034H
	DB	00H
	DB	0ffH
	DB	058H
	DB	034H
	DB	00H
	DB	0ffH
	DB	058H
	DB	034H
	DB	00H
	DB	0ffH
	DB	050H
	DB	034H
	DB	00H
	DB	0ffH
	DB	058H
	DB	034H
	DB	00H
	DB	0ffH
	DB	050H
	DB	034H
	DB	00H
	DB	0ffH
	DB	058H
	DB	034H
	DB	00H
	DB	0ffH
	DB	058H
	DB	034H
	DB	00H
	DB	0ffH
	DB	050H
	DB	030H
	DB	00H
	DB	0ffH
	DB	058H
	DB	034H
	DB	00H
	DB	0ffH
	DB	058H
	DB	034H
	DB	00H
	DB	0ffH
	DB	050H
	DB	030H
	DB	00H
	DB	0ffH
	DB	058H
	DB	034H
	DB	00H
	DB	0ffH
	DB	058H
	DB	034H
	DB	00H
	DB	0ffH
	DB	050H
	DB	034H
	DB	00H
	DB	0ffH
	DB	058H
	DB	034H
	DB	00H
	DB	0ffH
	DB	058H
	DB	034H
	DB	00H
	DB	0ffH
	DB	050H
	DB	034H
	DB	00H
	DB	0ffH
	DB	050H
	DB	034H
	DB	00H
	DB	0ffH
	DB	058H
	DB	034H
	DB	00H
	DB	0ffH
	DB	058H
	DB	030H
	DB	00H
	DB	0ffH
	DB	050H
	DB	034H
	DB	00H
	DB	0ffH
	DB	058H
	DB	034H
	DB	00H
	DB	0ffH
	DB	058H
	DB	030H
	DB	00H
	DB	0ffH
	DB	050H
	DB	034H
	DB	00H
	DB	0ffH
	DB	058H
	DB	034H
	DB	00H
	DB	0ffH
	DB	058H
	DB	034H
	DB	00H
	DB	0ffH
	DB	050H
	DB	034H
	DB	00H
	DB	0ffH
	DB	058H
	DB	034H
	DB	00H
	DB	0ffH
	DB	058H
	DB	034H
	DB	00H
	DB	0ffH
	DB	050H
	DB	034H
	DB	00H
	DB	0ffH
	DB	058H
	DB	034H
	DB	00H
	DB	0ffH
	DB	050H
	DB	030H
	DB	00H
	DB	0ffH
	DB	058H
	DB	034H
	DB	00H
	DB	0ffH
	DB	058H
	DB	034H
	DB	00H
	DB	0ffH
	DB	050H
	DB	030H
	DB	00H
	DB	0ffH
	DB	058H
	DB	034H
	DB	00H
	DB	0ffH
	DB	058H
	DB	034H
	DB	00H
	DB	0ffH
	DB	050H
	DB	034H
	DB	00H
	DB	0ffH
	DB	058H
	DB	034H
	DB	00H
	DB	0ffH
	DB	058H
	DB	034H
	DB	00H
	DB	0ffH
	DB	050H
	DB	034H
	DB	00H
	DB	0ffH
	DB	058H
	DB	034H
	DB	00H
	DB	0ffH
	DB	058H
	DB	034H
	DB	00H
	DB	0ffH
	DB	050H
	DB	030H
	DB	00H
	DB	0ffH
	DB	050H
	DB	034H
	DB	00H
	DB	0ffH
	DB	058H
	DB	034H
	DB	00H
	DB	0ffH
	DB	058H
	DB	030H
	DB	00H
	DB	0ffH
	DB	050H
	DB	034H
	DB	00H
	DB	0ffH
	DB	058H
	DB	034H
	DB	00H
	DB	0ffH
	DB	058H
	DB	034H
	DB	00H
	DB	0ffH
	DB	050H
	DB	034H
	DB	00H
	DB	0ffH
	DB	058H
	DB	034H
	DB	00H
	DB	0ffH
	DB	058H
	DB	034H
	DB	00H
	DB	0ffH
	DB	050H
	DB	034H
	DB	00H
	DB	0ffH
	DB	058H
	DB	034H
	DB	00H
	DB	0ffH
	DB	058H
	DB	030H
	DB	00H
	DB	0ffH
	DB	050H
	DB	034H
	DB	00H
	DB	0ffH
	DB	058H
	DB	034H
	DB	00H
	DB	0ffH
	DB	050H
	DB	030H
	DB	00H
	DB	0ffH
	DB	058H
	DB	034H
	DB	00H
	DB	0ffH
	DB	058H
	DB	034H
	DB	00H
	DB	0ffH
	DB	050H
	DB	034H
	DB	00H
	DB	0ffH
	DB	058H
	DB	034H
	DB	00H
	DB	0ffH
	DB	058H
	DB	034H
	DB	00H
	DB	0ffH
	DB	050H
	DB	034H
	DB	00H
	DB	0ffH
	DB	058H
	DB	034H
	DB	00H
	DB	0ffH
	DB	058H
	DB	034H
	DB	00H
	DB	0ffH
	DB	050H
	DB	030H
	DB	00H
	DB	0ffH
	DB	058H
	DB	034H
	DB	00H
	DB	0ffH
	DB	058H
	DB	034H
	DB	00H
	DB	0ffH
	DB	050H
	DB	030H
	DB	00H
	DB	0ffH
	DB	050H
	DB	034H
	DB	00H
	DB	0ffH
	DB	058H
	DB	034H
	DB	00H
	DB	0ffH
	DB	058H
	DB	034H
	DB	00H
	DB	0ffH
	DB	050H
	DB	034H
	DB	00H
	DB	0ffH
	DB	058H
	DB	034H
	DB	00H
	DB	0ffH
	DB	058H
	DB	034H
	DB	00H
	DB	0ffH
	DB	050H
	DB	034H
	DB	00H
	DB	0ffH
	DB	058H
	DB	034H
	DB	00H
	DB	0ffH
	DB	058H
	DB	030H
	DB	00H
	DB	0ffH
	DB	050H
	DB	034H
	DB	00H
	DB	0ffH
	DB	058H
	DB	034H
	DB	00H
	DB	0ffH
	DB	058H
	DB	030H
	DB	00H
	DB	0ffH
	DB	050H
	DB	034H
	DB	00H
	DB	0ffH
	DB	058H
	DB	034H
	DB	00H
	DB	0ffH
	DB	050H
	DB	034H
	DB	00H
	DB	0ffH
	DB	058H
	DB	034H
	DB	00H
	DB	0ffH
	DB	058H
	DB	034H
	DB	00H
	DB	0ffH
	DB	050H
	DB	034H
	DB	00H
	DB	0ffH
	DB	058H
	DB	034H
	DB	00H
	DB	0ffH
	DB	058H
	DB	034H
	DB	00H
	DB	0ffH
	DB	050H
	DB	030H
	DB	00H
	DB	0ffH
	DB	058H
	DB	034H
	DB	00H
	DB	0ffH
	DB	058H
	DB	034H
	DB	00H
	DB	0ffH
	DB	050H
	DB	030H
	DB	00H
	DB	0ffH
	DB	058H
	DB	034H
	DB	00H
	DB	0ffH
	DB	058H
	DB	034H
	DB	00H
	DB	0ffH
	DB	050H
	DB	034H
	DB	00H
	DB	0ffH
	DB	050H
	DB	034H
	DB	00H
	DB	0ffH
	DB	058H
	DB	034H
	DB	00H
	DB	0ffH
	DB	058H
	DB	034H
	DB	00H
	DB	0ffH
	DB	050H
	DB	034H
	DB	00H
	DB	0ffH
	DB	058H
	DB	034H
	DB	00H
	DB	0ffH
	DB	058H
	DB	030H
	DB	00H
	DB	0ffH
	DB	050H
	DB	034H
	DB	00H
	DB	0ffH
	DB	058H
	DB	034H
	DB	00H
	DB	0ffH
	DB	058H
	DB	030H
	DB	00H
	DB	0ffH
	DB	050H
	DB	034H
	DB	00H
	DB	0ffH
	DB	058H
	DB	034H
	DB	00H
	DB	0ffH
	DB	058H
	DB	034H
	DB	00H
	DB	0ffH
	DB	050H
	DB	034H
	DB	00H
	DB	0ffH
	DB	058H
	DB	034H
	DB	00H
	DB	0ffH
	DB	050H
	DB	034H
	DB	00H
	DB	0ffH
	DB	058H
	DB	034H
	DB	00H
	DB	0ffH
	DB	058H
	DB	034H
	DB	00H
	DB	0ffH
	DB	050H
	DB	030H
	DB	00H
	DB	0ffH
	DB	058H
	DB	034H
	DB	00H
	DB	0ffH
	DB	058H
	DB	034H
	DB	00H
	DB	0ffH
	DB	050H
	DB	030H
	DB	00H
	DB	0ffH
	DB	058H
	DB	034H
	DB	00H
	DB	0ffH
	DB	058H
	DB	034H
	DB	00H
	DB	0ffH
	DB	050H
	DB	034H
	DB	00H
	DB	0ffH
	DB	058H
	DB	034H
	DB	00H
	DB	0ffH
	DB	058H
	DB	034H
	DB	00H
	DB	0ffH
	DB	050H
	DB	034H
	DB	00H
	DB	0ffH
	DB	050H
	DB	034H
	DB	00H
	DB	0ffH
	DB	058H
	DB	034H
	DB	00H
	DB	0ffH
	DB	058H
	DB	030H
	DB	00H
	DB	0ffH
	DB	050H
	DB	034H
	DB	00H
	DB	0ffH
	DB	058H
	DB	034H
	DB	00H
	DB	0ffH
	DB	058H
	DB	030H
	DB	00H
	DB	0ffH
	DB	050H
	DB	034H
	DB	00H
	DB	0ffH
	DB	058H
	DB	034H
	DB	00H
	DB	0ffH
	DB	058H
	DB	034H
	DB	00H
	DB	0ffH
	DB	050H
	DB	034H
	DB	00H
	DB	0ffH
	DB	058H
	DB	034H
	DB	00H
	DB	0ffH
	DB	058H
	DB	034H
	DB	00H
	DB	0ffH
	DB	050H
	DB	034H
	DB	00H
	DB	0ffH
	DB	058H
	DB	034H
	DB	00H
	DB	0ffH
	DB	050H
	DB	030H
	DB	00H
	DB	0ffH
	DB	058H
	DB	034H
	DB	00H
	DB	0ffH
	DB	058H
	DB	034H
	DB	00H
	DB	0ffH
	DB	050H
	DB	030H
	DB	00H
	DB	0ffH
	DB	058H
	DB	034H
	DB	00H
	DB	0ffH
	DB	058H
	DB	034H
	DB	00H
	DB	0ffH
	DB	050H
	DB	034H
	DB	00H
	DB	0ffH
	DB	058H
	DB	034H
	DB	00H
	DB	0ffH
	DB	058H
	DB	034H
	DB	00H
	DB	0ffH
	DB	050H
	DB	034H
	DB	00H
	DB	0ffH
	DB	058H
	DB	034H
	DB	00H
	DB	0ffH
	DB	058H
	DB	034H
	DB	00H
	DB	0ffH
	DB	050H
	DB	030H
	DB	00H
	DB	0ffH
	DB	050H
	DB	034H
	DB	00H
	DB	0ffH
	DB	058H
	DB	034H
	DB	00H
	DB	0ffH
	DB	058H
	DB	030H
	DB	00H
	DB	0ffH
	DB	050H
	DB	034H
	DB	00H
	DB	0ffH
	DB	058H
	DB	034H
	DB	00H
	DB	0ffH
	DB	058H
	DB	034H
	DB	00H
	DB	0ffH
	DB	050H
	DB	034H
	DB	00H
	DB	0ffH
	DB	058H
	DB	034H
	DB	00H
	DB	0ffH
	DB	058H
	DB	034H
	DB	00H
	DB	0ffH
	DB	050H
	DB	034H
	DB	00H
	DB	0ffH
	DB	058H
	DB	034H
	DB	00H
	DB	0ffH
	DB	058H
	DB	030H
	DB	00H
	DB	0ffH
	DB	050H
	DB	034H
	DB	00H
	DB	0ffH
	DB	058H
	DB	034H
	DB	00H
	DB	0ffH
	DB	050H
	DB	030H
	DB	00H
	DB	0ffH
	DB	058H
	DB	034H
	DB	00H
	DB	0ffH
	DB	058H
	DB	034H
	DB	00H
	DB	0ffH
	DB	050H
	DB	034H
	DB	00H
	DB	0ffH
	DB	058H
	DB	034H
	DB	00H
	DB	0ffH
	DB	058H
	DB	034H
	DB	00H
	DB	0ffH
	DB	050H
	DB	034H
	DB	00H
	DB	0ffH
	DB	058H
	DB	034H
	DB	00H
	DB	0ffH
	DB	058H
	DB	034H
	DB	00H
	DB	0ffH
	DB	050H
	DB	030H
	DB	00H
	DB	0ffH
	DB	058H
	DB	034H
	DB	00H
	DB	0ffH
	DB	058H
	DB	034H
	DB	00H
	DB	0ffH
	DB	050H
	DB	030H
	DB	00H
	DB	0ffH
	DB	050H
	DB	034H
	DB	00H
	DB	0ffH
	DB	058H
	DB	034H
	DB	00H
	DB	0ffH
	DB	058H
	DB	034H
	DB	00H
	DB	0ffH
	DB	050H
	DB	034H
	DB	00H
	DB	0ffH
	DB	058H
	DB	034H
	DB	00H
	DB	0ffH
	DB	058H
	DB	034H
	DB	00H
	DB	0ffH
	DB	050H
	DB	034H
	DB	00H
	DB	0ffH
	DB	058H
	DB	034H
	DB	00H
	DB	0ffH
	DB	058H
	DB	030H
	DB	00H
	DB	0ffH
	DB	050H
	DB	034H
	DB	00H
	DB	0ffH
	DB	058H
	DB	034H
	DB	00H
	DB	0ffH
	DB	058H
	DB	030H
	DB	00H
	DB	0ffH
	DB	050H
	DB	034H
	DB	00H
	DB	0ffH
	DB	058H
	DB	034H
	DB	00H
	DB	0ffH
	DB	050H
	DB	034H
	DB	00H
	DB	0ffH
	DB	058H
	DB	034H
	DB	00H
	DB	0ffH
	DB	058H
	DB	034H
	DB	00H
	DB	0ffH
	DB	050H
	DB	034H
	DB	00H
	DB	0ffH
	DB	058H
	DB	034H
	DB	00H
	DB	0ffH
	DB	058H
	DB	034H
	DB	00H
	DB	0ffH
	DB	050H
	DB	030H
	DB	00H
	DB	0ffH
	DB	058H
	DB	034H
	DB	00H
	DB	0ffH
	DB	058H
	DB	034H
	DB	00H
	DB	0ffH
	DB	050H
	DB	030H
	DB	00H
	DB	0ffH
	DB	058H
	DB	034H
	DB	00H
	DB	0ffH
	DB	058H
	DB	034H
	DB	00H
	DB	0ffH
	DB	050H
	DB	034H
	DB	00H
	DB	0ffH
	DB	050H
	DB	034H
	DB	00H
	DB	0ffH
	DB	058H
	DB	034H
	DB	00H
	DB	0ffH
	DB	058H
	DB	034H
	DB	00H
	DB	0ffH
	DB	050H
	DB	034H
	DB	00H
	DB	0ffH
	DB	058H
	DB	034H
	DB	00H
	DB	0ffH
	DB	058H
	DB	030H
	DB	00H
	DB	0ffH
	DB	050H
	DB	034H
	DB	00H
	DB	0ffH
	DB	058H
	DB	034H
	DB	00H
	DB	0ffH
	DB	058H
	DB	030H
	DB	00H
	DB	0ffH
	DB	050H
	DB	034H
	DB	00H
	DB	0ffH
	DB	058H
	DB	034H
	DB	00H
	DB	0ffH
	DB	058H
	DB	034H
	DB	00H
	DB	0ffH
	DB	050H
	DB	034H
	DB	00H
	DB	0ffH
	DB	058H
	DB	034H
	DB	00H
	DB	0ffH
	DB	050H
	DB	034H
	DB	00H
	DB	0ffH
	DB	058H
	DB	034H
	DB	00H
	DB	0ffH
	DB	058H
	DB	034H
	DB	00H
	DB	0ffH
	DB	050H
	DB	030H
	DB	00H
	DB	0ffH
	DB	058H
	DB	034H
	DB	00H
	DB	0ffH
	DB	058H
	DB	034H
	DB	00H
	DB	0ffH
	DB	050H
	DB	030H
	DB	00H
	DB	0ffH
	DB	058H
	DB	034H
	DB	00H
	DB	0ffH
	DB	058H
	DB	034H
	DB	00H
	DB	0ffH
	DB	050H
	DB	034H
	DB	00H
	DB	0ffH
	DB	058H
	DB	034H
	DB	00H
	DB	0ffH
	DB	058H
	DB	034H
	DB	00H
	DB	0ffH
	DB	050H
	DB	034H
	DB	00H
	DB	0ffH
	DB	050H
	DB	034H
	DB	00H
	DB	0ffH
	DB	058H
	DB	034H
	DB	00H
	DB	0ffH
	DB	058H
	DB	030H
	DB	00H
	DB	0ffH
	DB	050H
	DB	034H
	DB	00H
	DB	0ffH
	DB	058H
	DB	034H
	DB	00H
	DB	0ffH
	DB	058H
	DB	030H
	DB	00H
	DB	0ffH
	DB	050H
	DB	034H
	DB	00H
	DB	0ffH
	DB	058H
	DB	034H
	DB	00H
	DB	0ffH
	DB	058H
	DB	034H
	DB	00H
	DB	0ffH
	DB	050H
	DB	034H
	DB	00H
	DB	0ffH
	DB	058H
	DB	034H
	DB	00H
	DB	0ffH
	DB	058H
	DB	034H
	DB	00H
	DB	0ffH
	DB	050H
	DB	034H
	DB	00H
	DB	0ffH
	DB	058H
	DB	034H
	DB	00H
	DB	0ffH
	DB	050H
	DB	030H
	DB	00H
	DB	0ffH
	DB	058H
	DB	034H
	DB	00H
	DB	0ffH
	DB	058H
	DB	034H
	DB	00H
	DB	0ffH
	DB	050H
	DB	030H
	DB	00H
	DB	0ffH
	DB	058H
	DB	034H
	DB	00H
	DB	0ffH
	DB	058H
	DB	034H
	DB	00H
	DB	0ffH
	DB	050H
	DB	034H
	DB	00H
	DB	0ffH
	DB	058H
	DB	034H
	DB	00H
	DB	0ffH
	DB	058H
	DB	034H
	DB	00H
	DB	0ffH
	DB	050H
	DB	034H
	DB	00H
	DB	0ffH
	DB	058H
	DB	034H
	DB	00H
	DB	0ffH
	DB	058H
	DB	034H
	DB	00H
	DB	0ffH
	DB	050H
	DB	030H
	DB	00H
	DB	0ffH
	DB	050H
	DB	034H
	DB	00H
	DB	0ffH
	DB	058H
	DB	034H
	DB	00H
	DB	0ffH
	DB	058H
	DB	030H
	DB	00H
	DB	0ffH
	DB	050H
	DB	034H
	DB	00H
	DB	0ffH
	DB	058H
	DB	034H
	DB	00H
	DB	0ffH
	DB	058H
	DB	034H
	DB	00H
	DB	0ffH
	DB	050H
	DB	034H
	DB	00H
	DB	0ffH
	DB	058H
	DB	034H
	DB	00H
	DB	0ffH
	DB	058H
	DB	034H
	DB	00H
	DB	0ffH
	DB	050H
	DB	034H
	DB	00H
	DB	0fbH
	DB	058H
	DB	034H
	DB	00H
	DB	0aaH
	DB	058H
	DB	030H
	DB	00H
	DB	030H
	DB	050H
	DB	034H
	DB	00H
	DB	020H
	DB	058H
	DB	034H
	DB	00H
	DB	01cH
	DB	058H
	DB	030H
	DB	00H
	DB	014H
	DB	050H
	DB	034H
	DB	00H
	DB	0cH
	DB	058H
	DB	034H
	DB	00H
	DB	08H
	DB	058H
	DB	034H
	DB	00H
	DB	04H
	DB	050H
	DB	034H
	DB	00H
	DB	04H
	DB	058H
	DB	034H
	DB	00H
	DB	00H
	DB	058H
	DB	034H
	DB	00H
	DB	00H
	DB	058H
	DB	034H
	DB	00H
	DB	00H
	DB	050H
	DB	030H
	DB	00H
	DB	00H
	DB	0f8H
	DB	0fcH
	DB	0f8H
	DB	00H
	DB	0f8H
	DB	0fcH
	DB	0f8H
	DB	00H
	DB	0f8H
	DB	0fcH
	DB	0f8H
	DB	00H
	DB	050H
	DB	030H
	DB	00H
	DB	00H
	DB	058H
	DB	034H
	DB	00H
	DB	00H
	DB	058H
	DB	030H
	DB	00H
	DB	00H
	DB	050H
	DB	034H
	DB	00H
	DB	04H
	DB	058H
	DB	034H
	DB	00H
	DB	08H
	DB	058H
	DB	034H
	DB	00H
	DB	0cH
	DB	050H
	DB	034H
	DB	00H
	DB	010H
	DB	058H
	DB	030H
	DB	00H
	DB	018H
	DB	058H
	DB	034H
	DB	00H
	DB	020H
	DB	050H
	DB	034H
	DB	00H
	DB	030H
	DB	058H
	DB	030H
	DB	00H
	DB	0c7H
	DB	058H
	DB	030H
	DB	00H
	DB	0ffH
	DB	058H
	DB	038H
	DB	08H
	DB	0ffH
	DB	098H
	DB	080H
	DB	060H
	DB	0ffH
	DB	0d0H
	DB	0c0H
	DB	0a8H
	DB	0ffH
	DB	0e8H
	DB	0e0H
	DB	0d0H
	DB	0ffH
	DB	0f0H
	DB	0e8H
	DB	0d8H
	DB	0ffH
	DB	0f0H
	DB	0e8H
	DB	0d8H
	DB	0ffH
	DB	0f0H
	DB	0e8H
	DB	0d8H
	DB	0ffH
	DB	0f0H
	DB	0e8H
	DB	0d8H
	DB	0ffH
	DB	0f0H
	DB	0e8H
	DB	0d8H
	DB	0ffH
	DB	0f0H
	DB	0e8H
	DB	0d8H
	DB	0ffH
	DB	0f0H
	DB	0e8H
	DB	0d8H
	DB	0ffH
	DB	0f0H
	DB	0e8H
	DB	0d8H
	DB	0ffH
	DB	0f0H
	DB	0e8H
	DB	0d8H
	DB	0ffH
	DB	0f0H
	DB	0e8H
	DB	0d8H
	DB	0ffH
	DB	0f0H
	DB	0e8H
	DB	0d8H
	DB	0ffH
	DB	0f0H
	DB	0e8H
	DB	0d8H
	DB	0ffH
	DB	0f0H
	DB	0e8H
	DB	0d8H
	DB	0ffH
	DB	0f0H
	DB	0e8H
	DB	0d8H
	DB	0ffH
	DB	0f0H
	DB	0e8H
	DB	0d8H
	DB	0ffH
	DB	0f0H
	DB	0e8H
	DB	0d8H
	DB	0ffH
	DB	0f0H
	DB	0e8H
	DB	0d8H
	DB	0ffH
	DB	0f0H
	DB	0e8H
	DB	0d8H
	DB	0ffH
	DB	0f0H
	DB	0e8H
	DB	0d8H
	DB	0ffH
	DB	0f0H
	DB	0e8H
	DB	0d8H
	DB	0ffH
	DB	0f0H
	DB	0e8H
	DB	0d8H
	DB	0ffH
	DB	0f0H
	DB	0e8H
	DB	0d8H
	DB	0ffH
	DB	0f0H
	DB	0e8H
	DB	0d8H
	DB	0ffH
	DB	0f0H
	DB	0e8H
	DB	0d8H
	DB	0ffH
	DB	0f0H
	DB	0e8H
	DB	0d8H
	DB	0ffH
	DB	0f0H
	DB	0e8H
	DB	0d8H
	DB	0ffH
	DB	0f0H
	DB	0e8H
	DB	0d8H
	DB	0ffH
	DB	0f0H
	DB	0e8H
	DB	0d8H
	DB	0ffH
	DB	0f0H
	DB	0e8H
	DB	0d8H
	DB	0ffH
	DB	0f0H
	DB	0e8H
	DB	0d8H
	DB	0ffH
	DB	0f0H
	DB	0e8H
	DB	0d8H
	DB	0ffH
	DB	0f0H
	DB	0e8H
	DB	0d8H
	DB	0ffH
	DB	0f0H
	DB	0e8H
	DB	0d8H
	DB	0ffH
	DB	0f0H
	DB	0e8H
	DB	0d8H
	DB	0ffH
	DB	0f0H
	DB	0e8H
	DB	0d8H
	DB	0ffH
	DB	0f0H
	DB	0e8H
	DB	0d8H
	DB	0ffH
	DB	0f0H
	DB	0e8H
	DB	0d8H
	DB	0ffH
	DB	0f0H
	DB	0e8H
	DB	0d8H
	DB	0ffH
	DB	0f0H
	DB	0e8H
	DB	0d8H
	DB	0ffH
	DB	0f0H
	DB	0e8H
	DB	0d8H
	DB	0ffH
	DB	0f0H
	DB	0e8H
	DB	0d8H
	DB	0ffH
	DB	0f0H
	DB	0e8H
	DB	0d8H
	DB	0ffH
	DB	0f0H
	DB	0e8H
	DB	0d8H
	DB	0ffH
	DB	0f0H
	DB	0e8H
	DB	0d8H
	DB	0ffH
	DB	0f0H
	DB	0e8H
	DB	0d8H
	DB	0ffH
	DB	0f0H
	DB	0e8H
	DB	0d8H
	DB	0ffH
	DB	0f0H
	DB	0e8H
	DB	0d8H
	DB	0ffH
	DB	0f0H
	DB	0e8H
	DB	0d8H
	DB	0ffH
	DB	0f0H
	DB	0e8H
	DB	0d8H
	DB	0ffH
	DB	0f0H
	DB	0e8H
	DB	0d8H
	DB	0ffH
	DB	0f0H
	DB	0e8H
	DB	0d8H
	DB	0ffH
	DB	0f0H
	DB	0e8H
	DB	0d8H
	DB	0ffH
	DB	0f0H
	DB	0e8H
	DB	0d8H
	DB	0ffH
	DB	0f0H
	DB	0e8H
	DB	0d8H
	DB	0ffH
	DB	0f0H
	DB	0e8H
	DB	0d8H
	DB	0ffH
	DB	0f0H
	DB	0e8H
	DB	0d8H
	DB	0ffH
	DB	0f0H
	DB	0e8H
	DB	0d8H
	DB	0ffH
	DB	0f0H
	DB	0e8H
	DB	0d8H
	DB	0ffH
	DB	0f0H
	DB	0e8H
	DB	0d8H
	DB	0ffH
	DB	0f0H
	DB	0e8H
	DB	0d8H
	DB	0ffH
	DB	0f0H
	DB	0e8H
	DB	0d8H
	DB	0ffH
	DB	0f0H
	DB	0e8H
	DB	0d8H
	DB	0ffH
	DB	0f0H
	DB	0e8H
	DB	0d8H
	DB	0ffH
	DB	0f0H
	DB	0e8H
	DB	0d8H
	DB	0ffH
	DB	0f0H
	DB	0e8H
	DB	0d8H
	DB	0ffH
	DB	0f0H
	DB	0e8H
	DB	0d8H
	DB	0ffH
	DB	0f0H
	DB	0e8H
	DB	0d8H
	DB	0ffH
	DB	0f0H
	DB	0e8H
	DB	0d8H
	DB	0ffH
	DB	0f0H
	DB	0e8H
	DB	0d8H
	DB	0ffH
	DB	0f0H
	DB	0e8H
	DB	0d8H
	DB	0ffH
	DB	0f0H
	DB	0e8H
	DB	0d8H
	DB	0ffH
	DB	0f0H
	DB	0e8H
	DB	0d8H
	DB	0ffH
	DB	0f0H
	DB	0e8H
	DB	0d8H
	DB	0ffH
	DB	0f0H
	DB	0e8H
	DB	0d8H
	DB	0ffH
	DB	0f0H
	DB	0e8H
	DB	0d8H
	DB	0ffH
	DB	0f0H
	DB	0e8H
	DB	0d8H
	DB	0ffH
	DB	0f0H
	DB	0e8H
	DB	0d8H
	DB	0ffH
	DB	0f0H
	DB	0e8H
	DB	0d8H
	DB	0ffH
	DB	0f0H
	DB	0e8H
	DB	0d8H
	DB	0ffH
	DB	0f0H
	DB	0e8H
	DB	0d8H
	DB	0ffH
	DB	0f0H
	DB	0e8H
	DB	0d8H
	DB	0ffH
	DB	0f0H
	DB	0e8H
	DB	0d8H
	DB	0ffH
	DB	058H
	DB	030H
	DB	00H
	DB	0ffH
	DB	050H
	DB	034H
	DB	00H
	DB	0ffH
	DB	0e0H
	DB	0dcH
	DB	0d0H
	DB	0ffH
	DB	0e8H
	DB	0e4H
	DB	0d8H
	DB	0ffH
	DB	0f0H
	DB	0e8H
	DB	0e0H
	DB	0ffH
	DB	0f0H
	DB	0ecH
	DB	0e8H
	DB	0ffH
	DB	0f8H
	DB	0f4H
	DB	0f0H
	DB	0ffH
	DB	0f8H
	DB	0f4H
	DB	0f0H
	DB	0ffH
	DB	0f8H
	DB	0f8H
	DB	0f8H
	DB	0ffH
	DB	0f8H
	DB	0f8H
	DB	0f8H
	DB	0ffH
	DB	0f8H
	DB	0f8H
	DB	0f8H
	DB	0ffH
	DB	0f8H
	DB	0f8H
	DB	0f8H
	DB	0ffH
	DB	0f8H
	DB	0f8H
	DB	0f8H
	DB	0ffH
	DB	0f8H
	DB	0f8H
	DB	0f8H
	DB	0ffH
	DB	0f8H
	DB	0f8H
	DB	0f8H
	DB	0ffH
	DB	0f8H
	DB	0f8H
	DB	0f8H
	DB	0ffH
	DB	0f8H
	DB	0f8H
	DB	0f8H
	DB	0ffH
	DB	0f8H
	DB	0f8H
	DB	0f8H
	DB	0ffH
	DB	0f8H
	DB	0f8H
	DB	0f8H
	DB	0ffH
	DB	0f8H
	DB	0f8H
	DB	0f8H
	DB	0ffH
	DB	0f8H
	DB	0f8H
	DB	0f8H
	DB	0ffH
	DB	0f8H
	DB	0f8H
	DB	0f8H
	DB	0ffH
	DB	0f8H
	DB	0f8H
	DB	0f8H
	DB	0ffH
	DB	0f8H
	DB	0f8H
	DB	0f8H
	DB	0ffH
	DB	0f8H
	DB	0f8H
	DB	0f8H
	DB	0ffH
	DB	0f8H
	DB	0f8H
	DB	0f8H
	DB	0ffH
	DB	0f8H
	DB	0f8H
	DB	0f8H
	DB	0ffH
	DB	0f8H
	DB	0f8H
	DB	0f8H
	DB	0ffH
	DB	0f8H
	DB	0f8H
	DB	0f8H
	DB	0ffH
	DB	0f8H
	DB	0f8H
	DB	0f8H
	DB	0ffH
	DB	0f8H
	DB	0f8H
	DB	0f8H
	DB	0ffH
	DB	0f8H
	DB	0f8H
	DB	0f8H
	DB	0ffH
	DB	0f8H
	DB	0f8H
	DB	0f8H
	DB	0ffH
	DB	0f8H
	DB	0f8H
	DB	0f8H
	DB	0ffH
	DB	0f8H
	DB	0f8H
	DB	0f8H
	DB	0ffH
	DB	0f8H
	DB	0f8H
	DB	0f8H
	DB	0ffH
	DB	0f8H
	DB	0f8H
	DB	0f8H
	DB	0ffH
	DB	0f8H
	DB	0f8H
	DB	0f8H
	DB	0ffH
	DB	0f8H
	DB	0f8H
	DB	0f8H
	DB	0ffH
	DB	0f8H
	DB	0f8H
	DB	0f8H
	DB	0ffH
	DB	0f8H
	DB	0f8H
	DB	0f8H
	DB	0ffH
	DB	0f8H
	DB	0f8H
	DB	0f8H
	DB	0ffH
	DB	0f8H
	DB	0f8H
	DB	0f8H
	DB	0ffH
	DB	0f8H
	DB	0f8H
	DB	0f8H
	DB	0ffH
	DB	0f8H
	DB	0f8H
	DB	0f8H
	DB	0ffH
	DB	0f8H
	DB	0f8H
	DB	0f8H
	DB	0ffH
	DB	0f8H
	DB	0f8H
	DB	0f8H
	DB	0ffH
	DB	0f8H
	DB	0f8H
	DB	0f8H
	DB	0ffH
	DB	0f8H
	DB	0f8H
	DB	0f8H
	DB	0ffH
	DB	0f8H
	DB	0f8H
	DB	0f8H
	DB	0ffH
	DB	0f8H
	DB	0f8H
	DB	0f8H
	DB	0ffH
	DB	0f8H
	DB	0f8H
	DB	0f8H
	DB	0ffH
	DB	0f8H
	DB	0f8H
	DB	0f8H
	DB	0ffH
	DB	0f8H
	DB	0f8H
	DB	0f8H
	DB	0ffH
	DB	0f8H
	DB	0f8H
	DB	0f8H
	DB	0ffH
	DB	0f8H
	DB	0f8H
	DB	0f8H
	DB	0ffH
	DB	0f8H
	DB	0f8H
	DB	0f8H
	DB	0ffH
	DB	0f8H
	DB	0f8H
	DB	0f8H
	DB	0ffH
	DB	0f8H
	DB	0f8H
	DB	0f8H
	DB	0ffH
	DB	0f8H
	DB	0f8H
	DB	0f8H
	DB	0ffH
	DB	0f8H
	DB	0f8H
	DB	0f8H
	DB	0ffH
	DB	0f8H
	DB	0f8H
	DB	0f8H
	DB	0ffH
	DB	0f8H
	DB	0f8H
	DB	0f8H
	DB	0ffH
	DB	0f8H
	DB	0f8H
	DB	0f8H
	DB	0ffH
	DB	0f8H
	DB	0f8H
	DB	0f8H
	DB	0ffH
	DB	0f8H
	DB	0f8H
	DB	0f8H
	DB	0ffH
	DB	0f8H
	DB	0f8H
	DB	0f8H
	DB	0ffH
	DB	0f8H
	DB	0f8H
	DB	0f8H
	DB	0ffH
	DB	0f8H
	DB	0f8H
	DB	0f8H
	DB	0ffH
	DB	0f8H
	DB	0f8H
	DB	0f8H
	DB	0ffH
	DB	0f8H
	DB	0f8H
	DB	0f8H
	DB	0ffH
	DB	0f8H
	DB	0f8H
	DB	0f8H
	DB	0ffH
	DB	0f8H
	DB	0f8H
	DB	0f8H
	DB	0ffH
	DB	0f8H
	DB	0f8H
	DB	0f8H
	DB	0ffH
	DB	0f8H
	DB	0f8H
	DB	0f8H
	DB	0ffH
	DB	0f8H
	DB	0f8H
	DB	0f8H
	DB	0ffH
	DB	0f8H
	DB	0f8H
	DB	0f8H
	DB	0ffH
	DB	0f8H
	DB	0f8H
	DB	0f8H
	DB	0ffH
	DB	0f8H
	DB	0f8H
	DB	0f8H
	DB	0ffH
	DB	0f8H
	DB	0f8H
	DB	0f8H
	DB	0ffH
	DB	0f8H
	DB	0f8H
	DB	0f8H
	DB	0ffH
	DB	0f8H
	DB	0f8H
	DB	0f8H
	DB	0ffH
	DB	0f8H
	DB	0f8H
	DB	0f8H
	DB	0ffH
	DB	0f8H
	DB	0f8H
	DB	0f8H
	DB	0ffH
	DB	0f8H
	DB	0f8H
	DB	0f8H
	DB	0ffH
	DB	0f8H
	DB	0f8H
	DB	0f8H
	DB	0ffH
	DB	0f8H
	DB	0f8H
	DB	0f8H
	DB	0ffH
	DB	0f8H
	DB	0f8H
	DB	0f8H
	DB	0ffH
	DB	0f8H
	DB	0f8H
	DB	0f8H
	DB	0ffH
	DB	0f8H
	DB	0f8H
	DB	0f8H
	DB	0ffH
	DB	0f8H
	DB	0f8H
	DB	0f8H
	DB	0ffH
	DB	0f8H
	DB	0f8H
	DB	0f8H
	DB	0ffH
	DB	0f8H
	DB	0f8H
	DB	0f8H
	DB	0ffH
	DB	0f8H
	DB	0f8H
	DB	0f8H
	DB	0ffH
	DB	0f8H
	DB	0f8H
	DB	0f8H
	DB	0ffH
	DB	0f8H
	DB	0f8H
	DB	0f8H
	DB	0ffH
	DB	0f8H
	DB	0f8H
	DB	0f8H
	DB	0ffH
	DB	0f8H
	DB	0f8H
	DB	0f8H
	DB	0ffH
	DB	0f8H
	DB	0f8H
	DB	0f8H
	DB	0ffH
	DB	0f8H
	DB	0f8H
	DB	0f8H
	DB	0ffH
	DB	0f8H
	DB	0f8H
	DB	0f8H
	DB	0ffH
	DB	0f8H
	DB	0f8H
	DB	0f8H
	DB	0ffH
	DB	0f8H
	DB	0f8H
	DB	0f8H
	DB	0ffH
	DB	0f8H
	DB	0f8H
	DB	0f8H
	DB	0ffH
	DB	0f8H
	DB	0f8H
	DB	0f8H
	DB	0ffH
	DB	0f8H
	DB	0f8H
	DB	0f8H
	DB	0ffH
	DB	0f8H
	DB	0f8H
	DB	0f8H
	DB	0ffH
	DB	0f8H
	DB	0f8H
	DB	0f8H
	DB	0ffH
	DB	0f8H
	DB	0f8H
	DB	0f8H
	DB	0ffH
	DB	0f8H
	DB	0f8H
	DB	0f8H
	DB	0ffH
	DB	0f8H
	DB	0f8H
	DB	0f8H
	DB	0ffH
	DB	0f8H
	DB	0f8H
	DB	0f8H
	DB	0ffH
	DB	0f8H
	DB	0f8H
	DB	0f8H
	DB	0ffH
	DB	0f8H
	DB	0f8H
	DB	0f8H
	DB	0ffH
	DB	0f8H
	DB	0f8H
	DB	0f8H
	DB	0ffH
	DB	0f8H
	DB	0f8H
	DB	0f8H
	DB	0ffH
	DB	0f8H
	DB	0f8H
	DB	0f8H
	DB	0ffH
	DB	0f8H
	DB	0f8H
	DB	0f8H
	DB	0ffH
	DB	0f8H
	DB	0f8H
	DB	0f8H
	DB	0ffH
	DB	0f8H
	DB	0f8H
	DB	0f8H
	DB	0ffH
	DB	0f8H
	DB	0f8H
	DB	0f8H
	DB	0ffH
	DB	0f8H
	DB	0f8H
	DB	0f8H
	DB	0ffH
	DB	0f8H
	DB	0f8H
	DB	0f8H
	DB	0ffH
	DB	0f8H
	DB	0f8H
	DB	0f8H
	DB	0ffH
	DB	0f8H
	DB	0f8H
	DB	0f8H
	DB	0ffH
	DB	0f8H
	DB	0f8H
	DB	0f8H
	DB	0ffH
	DB	0f8H
	DB	0f8H
	DB	0f8H
	DB	0ffH
	DB	0f8H
	DB	0f8H
	DB	0f8H
	DB	0ffH
	DB	0f8H
	DB	0f8H
	DB	0f8H
	DB	0ffH
	DB	0f8H
	DB	0f8H
	DB	0f8H
	DB	0ffH
	DB	0f8H
	DB	0f8H
	DB	0f8H
	DB	0ffH
	DB	0f8H
	DB	0f8H
	DB	0f8H
	DB	0ffH
	DB	0f8H
	DB	0f8H
	DB	0f8H
	DB	0ffH
	DB	0f8H
	DB	0f8H
	DB	0f8H
	DB	0ffH
	DB	0f8H
	DB	0f8H
	DB	0f8H
	DB	0ffH
	DB	0f8H
	DB	0f8H
	DB	0f8H
	DB	0ffH
	DB	0f8H
	DB	0f8H
	DB	0f8H
	DB	0ffH
	DB	0f8H
	DB	0f8H
	DB	0f8H
	DB	0ffH
	DB	0f8H
	DB	0f8H
	DB	0f8H
	DB	0ffH
	DB	0f8H
	DB	0f8H
	DB	0f8H
	DB	0ffH
	DB	0f8H
	DB	0f8H
	DB	0f8H
	DB	0ffH
	DB	0f8H
	DB	0f8H
	DB	0f8H
	DB	0ffH
	DB	0f8H
	DB	0f8H
	DB	0f8H
	DB	0ffH
	DB	0f8H
	DB	0f8H
	DB	0f8H
	DB	0ffH
	DB	0f8H
	DB	0f8H
	DB	0f8H
	DB	0ffH
	DB	0f8H
	DB	0f8H
	DB	0f8H
	DB	0ffH
	DB	0f8H
	DB	0f8H
	DB	0f8H
	DB	0ffH
	DB	0f8H
	DB	0f8H
	DB	0f8H
	DB	0ffH
	DB	0f8H
	DB	0f8H
	DB	0f8H
	DB	0ffH
	DB	0f8H
	DB	0f8H
	DB	0f8H
	DB	0ffH
	DB	0f8H
	DB	0f8H
	DB	0f8H
	DB	0ffH
	DB	0f8H
	DB	0f8H
	DB	0f8H
	DB	0ffH
	DB	0f8H
	DB	0f8H
	DB	0f8H
	DB	0ffH
	DB	0f8H
	DB	0f8H
	DB	0f8H
	DB	0ffH
	DB	0f8H
	DB	0f8H
	DB	0f8H
	DB	0ffH
	DB	0f8H
	DB	0f8H
	DB	0f8H
	DB	0ffH
	DB	0f8H
	DB	0f8H
	DB	0f8H
	DB	0ffH
	DB	0f8H
	DB	0f8H
	DB	0f8H
	DB	0ffH
	DB	0f8H
	DB	0f8H
	DB	0f8H
	DB	0ffH
	DB	0f8H
	DB	0f8H
	DB	0f8H
	DB	0ffH
	DB	0f8H
	DB	0f8H
	DB	0f8H
	DB	0ffH
	DB	0f8H
	DB	0f8H
	DB	0f8H
	DB	0ffH
	DB	0f8H
	DB	0f8H
	DB	0f8H
	DB	0ffH
	DB	0f8H
	DB	0f8H
	DB	0f8H
	DB	0ffH
	DB	0f8H
	DB	0f8H
	DB	0f8H
	DB	0ffH
	DB	0f8H
	DB	0f8H
	DB	0f8H
	DB	0ffH
	DB	0f8H
	DB	0f8H
	DB	0f8H
	DB	0ffH
	DB	0f8H
	DB	0f8H
	DB	0f8H
	DB	0ffH
	DB	0f8H
	DB	0f8H
	DB	0f8H
	DB	0ffH
	DB	0f8H
	DB	0f8H
	DB	0f8H
	DB	0ffH
	DB	0f8H
	DB	0f8H
	DB	0f8H
	DB	0ffH
	DB	0f8H
	DB	0f8H
	DB	0f8H
	DB	0ffH
	DB	0f8H
	DB	0f8H
	DB	0f8H
	DB	0ffH
	DB	0f8H
	DB	0f8H
	DB	0f8H
	DB	0ffH
	DB	0f8H
	DB	0f8H
	DB	0f8H
	DB	0ffH
	DB	0f8H
	DB	0f8H
	DB	0f8H
	DB	0ffH
	DB	0f8H
	DB	0f8H
	DB	0f8H
	DB	0ffH
	DB	0f8H
	DB	0f8H
	DB	0f8H
	DB	0ffH
	DB	0f8H
	DB	0f8H
	DB	0f8H
	DB	0ffH
	DB	0f8H
	DB	0f8H
	DB	0f8H
	DB	0ffH
	DB	0f8H
	DB	0f8H
	DB	0f8H
	DB	0ffH
	DB	0f8H
	DB	0f8H
	DB	0f8H
	DB	0ffH
	DB	0f8H
	DB	0f8H
	DB	0f8H
	DB	0ffH
	DB	0f8H
	DB	0f8H
	DB	0f8H
	DB	0ffH
	DB	0f8H
	DB	0f8H
	DB	0f8H
	DB	0ffH
	DB	0f8H
	DB	0f8H
	DB	0f8H
	DB	0ffH
	DB	0f8H
	DB	0f8H
	DB	0f8H
	DB	0ffH
	DB	0f8H
	DB	0f8H
	DB	0f8H
	DB	0ffH
	DB	0f8H
	DB	0f8H
	DB	0f8H
	DB	0ffH
	DB	0f8H
	DB	0f8H
	DB	0f8H
	DB	0ffH
	DB	0f8H
	DB	0f8H
	DB	0f8H
	DB	0ffH
	DB	0f8H
	DB	0f8H
	DB	0f8H
	DB	0ffH
	DB	0f8H
	DB	0f8H
	DB	0f8H
	DB	0ffH
	DB	0f8H
	DB	0f8H
	DB	0f8H
	DB	0ffH
	DB	0f8H
	DB	0f8H
	DB	0f8H
	DB	0ffH
	DB	0f8H
	DB	0f8H
	DB	0f8H
	DB	0ffH
	DB	0f8H
	DB	0f8H
	DB	0f8H
	DB	0ffH
	DB	0f8H
	DB	0f8H
	DB	0f8H
	DB	0ffH
	DB	0f8H
	DB	0f8H
	DB	0f8H
	DB	0ffH
	DB	0f8H
	DB	0f8H
	DB	0f8H
	DB	0ffH
	DB	0f8H
	DB	0f8H
	DB	0f8H
	DB	0ffH
	DB	0f8H
	DB	0f8H
	DB	0f8H
	DB	0ffH
	DB	0f8H
	DB	0f8H
	DB	0f8H
	DB	0ffH
	DB	0f8H
	DB	0f8H
	DB	0f8H
	DB	0ffH
	DB	0f8H
	DB	0f8H
	DB	0f8H
	DB	0ffH
	DB	0f8H
	DB	0f8H
	DB	0f8H
	DB	0ffH
	DB	0f8H
	DB	0f8H
	DB	0f8H
	DB	0ffH
	DB	0f8H
	DB	0f8H
	DB	0f8H
	DB	0ffH
	DB	0f8H
	DB	0f8H
	DB	0f8H
	DB	0ffH
	DB	0f8H
	DB	0f8H
	DB	0f8H
	DB	0ffH
	DB	0f8H
	DB	0f8H
	DB	0f8H
	DB	0ffH
	DB	0f8H
	DB	0f8H
	DB	0f8H
	DB	0ffH
	DB	0f8H
	DB	0f8H
	DB	0f8H
	DB	0ffH
	DB	0f8H
	DB	0f8H
	DB	0f8H
	DB	0ffH
	DB	0f8H
	DB	0f8H
	DB	0f8H
	DB	0ffH
	DB	0f8H
	DB	0f8H
	DB	0f8H
	DB	0ffH
	DB	0f8H
	DB	0f8H
	DB	0f8H
	DB	0ffH
	DB	0f8H
	DB	0f8H
	DB	0f8H
	DB	0ffH
	DB	0f8H
	DB	0f8H
	DB	0f8H
	DB	0ffH
	DB	0f8H
	DB	0f8H
	DB	0f8H
	DB	0ffH
	DB	0f8H
	DB	0f8H
	DB	0f8H
	DB	0ffH
	DB	0f8H
	DB	0f8H
	DB	0f8H
	DB	0ffH
	DB	0f8H
	DB	0f8H
	DB	0f8H
	DB	0ffH
	DB	0f8H
	DB	0f8H
	DB	0f8H
	DB	0ffH
	DB	0f8H
	DB	0f8H
	DB	0f8H
	DB	0ffH
	DB	0f8H
	DB	0f8H
	DB	0f8H
	DB	0ffH
	DB	0f8H
	DB	0f8H
	DB	0f8H
	DB	0ffH
	DB	0f8H
	DB	0f8H
	DB	0f8H
	DB	0ffH
	DB	0f8H
	DB	0f8H
	DB	0f8H
	DB	0ffH
	DB	0f8H
	DB	0f8H
	DB	0f8H
	DB	0ffH
	DB	0f8H
	DB	0f8H
	DB	0f8H
	DB	0ffH
	DB	0f8H
	DB	0f8H
	DB	0f8H
	DB	0ffH
	DB	0f8H
	DB	0f8H
	DB	0f8H
	DB	0ffH
	DB	0f8H
	DB	0f8H
	DB	0f8H
	DB	0ffH
	DB	0f8H
	DB	0f8H
	DB	0f8H
	DB	0ffH
	DB	0f8H
	DB	0f8H
	DB	0f8H
	DB	0ffH
	DB	0f8H
	DB	0f8H
	DB	0f8H
	DB	0ffH
	DB	0f8H
	DB	0f8H
	DB	0f8H
	DB	0ffH
	DB	0f8H
	DB	0f8H
	DB	0f8H
	DB	0ffH
	DB	0f8H
	DB	0f8H
	DB	0f8H
	DB	0ffH
	DB	0f8H
	DB	0f8H
	DB	0f8H
	DB	0ffH
	DB	0f8H
	DB	0f8H
	DB	0f8H
	DB	0ffH
	DB	0f8H
	DB	0f8H
	DB	0f8H
	DB	0ffH
	DB	0f8H
	DB	0f8H
	DB	0f8H
	DB	0ffH
	DB	0f8H
	DB	0f8H
	DB	0f8H
	DB	0ffH
	DB	0f8H
	DB	0f8H
	DB	0f8H
	DB	0ffH
	DB	0f8H
	DB	0f8H
	DB	0f8H
	DB	0ffH
	DB	0f8H
	DB	0f8H
	DB	0f8H
	DB	0ffH
	DB	0f8H
	DB	0f8H
	DB	0f8H
	DB	0ffH
	DB	0f8H
	DB	0f8H
	DB	0f8H
	DB	0ffH
	DB	0f8H
	DB	0f8H
	DB	0f8H
	DB	0ffH
	DB	0f8H
	DB	0f8H
	DB	0f8H
	DB	0ffH
	DB	0f8H
	DB	0f8H
	DB	0f8H
	DB	0ffH
	DB	0f8H
	DB	0f8H
	DB	0f8H
	DB	0ffH
	DB	0f8H
	DB	0f8H
	DB	0f8H
	DB	0ffH
	DB	0f8H
	DB	0f8H
	DB	0f8H
	DB	0ffH
	DB	0f8H
	DB	0f8H
	DB	0f8H
	DB	0ffH
	DB	0f8H
	DB	0f8H
	DB	0f8H
	DB	0ffH
	DB	0f8H
	DB	0f8H
	DB	0f8H
	DB	0ffH
	DB	0f8H
	DB	0f8H
	DB	0f8H
	DB	0ffH
	DB	0f8H
	DB	0f8H
	DB	0f8H
	DB	0ffH
	DB	0f8H
	DB	0f8H
	DB	0f8H
	DB	0ffH
	DB	0f0H
	DB	0f0H
	DB	0e8H
	DB	0ffH
	DB	0d8H
	DB	0ccH
	DB	0c0H
	DB	0ffH
	DB	098H
	DB	084H
	DB	068H
	DB	0ffH
	DB	058H
	DB	038H
	DB	08H
	DB	0ffH
	DB	058H
	DB	034H
	DB	00H
	DB	0ffH
	DB	050H
	DB	034H
	DB	00H
	DB	0cbH
	DB	050H
	DB	034H
	DB	00H
	DB	02cH
	DB	058H
	DB	030H
	DB	00H
	DB	020H
	DB	058H
	DB	034H
	DB	00H
	DB	018H
	DB	050H
	DB	034H
	DB	00H
	DB	010H
	DB	058H
	DB	030H
	DB	00H
	DB	0cH
	DB	058H
	DB	030H
	DB	00H
	DB	08H
	DB	050H
	DB	034H
	DB	00H
	DB	04H
	DB	058H
	DB	030H
	DB	00H
	DB	00H
	DB	050H
	DB	034H
	DB	00H
	DB	00H
	DB	050H
	DB	034H
	DB	00H
	DB	00H
	DB	058H
	DB	034H
	DB	00H
	DB	00H
	DB	0f8H
	DB	0fcH
	DB	0f8H
	DB	00H
	DB	0f8H
	DB	0fcH
	DB	0f8H
	DB	00H
	DB	0f8H
	DB	0fcH
	DB	0f8H
	DB	00H
	DB	058H
	DB	034H
	DB	00H
	DB	00H
	DB	058H
	DB	034H
	DB	00H
	DB	00H
	DB	050H
	DB	034H
	DB	00H
	DB	00H
	DB	058H
	DB	030H
	DB	00H
	DB	04H
	DB	050H
	DB	034H
	DB	00H
	DB	08H
	DB	058H
	DB	034H
	DB	00H
	DB	0cH
	DB	050H
	DB	030H
	DB	00H
	DB	014H
	DB	058H
	DB	034H
	DB	00H
	DB	01cH
	DB	050H
	DB	034H
	DB	00H
	DB	028H
	DB	058H
	DB	034H
	DB	00H
	DB	0aaH
	DB	058H
	DB	034H
	DB	00H
	DB	0ffH
	DB	060H
	DB	044H
	DB	018H
	DB	0ffH
	DB	0d0H
	DB	0c4H
	DB	0b0H
	DB	0ffH
	DB	0f0H
	DB	0e8H
	DB	0d8H
	DB	0ffH
	DB	0f0H
	DB	0e8H
	DB	0d8H
	DB	0ffH
	DB	0f0H
	DB	0e8H
	DB	0e0H
	DB	0ffH
	DB	0f0H
	DB	0e8H
	DB	0d8H
	DB	0ffH
	DB	0f0H
	DB	0e8H
	DB	0e0H
	DB	0ffH
	DB	0f0H
	DB	0e8H
	DB	0e0H
	DB	0ffH
	DB	0f0H
	DB	0e8H
	DB	0d8H
	DB	0ffH
	DB	0f0H
	DB	0e8H
	DB	0e0H
	DB	0ffH
	DB	0f0H
	DB	0e8H
	DB	0e0H
	DB	0ffH
	DB	0f0H
	DB	0e8H
	DB	0d8H
	DB	0ffH
	DB	0f0H
	DB	0e8H
	DB	0e0H
	DB	0ffH
	DB	0f0H
	DB	0e8H
	DB	0e0H
	DB	0ffH
	DB	0f0H
	DB	0e8H
	DB	0d8H
	DB	0ffH
	DB	0f0H
	DB	0e8H
	DB	0e0H
	DB	0ffH
	DB	0f0H
	DB	0e8H
	DB	0e0H
	DB	0ffH
	DB	0f0H
	DB	0e8H
	DB	0d8H
	DB	0ffH
	DB	0f0H
	DB	0e8H
	DB	0e0H
	DB	0ffH
	DB	0f0H
	DB	0e8H
	DB	0e0H
	DB	0ffH
	DB	0f0H
	DB	0e8H
	DB	0d8H
	DB	0ffH
	DB	0f0H
	DB	0e8H
	DB	0e0H
	DB	0ffH
	DB	0f0H
	DB	0e8H
	DB	0e0H
	DB	0ffH
	DB	0f0H
	DB	0e8H
	DB	0d8H
	DB	0ffH
	DB	0f0H
	DB	0e8H
	DB	0e0H
	DB	0ffH
	DB	0f0H
	DB	0e8H
	DB	0e0H
	DB	0ffH
	DB	0f0H
	DB	0e8H
	DB	0d8H
	DB	0ffH
	DB	0f0H
	DB	0e8H
	DB	0e0H
	DB	0ffH
	DB	0f0H
	DB	0e8H
	DB	0e0H
	DB	0ffH
	DB	0f0H
	DB	0e8H
	DB	0d8H
	DB	0ffH
	DB	0f0H
	DB	0e8H
	DB	0e0H
	DB	0ffH
	DB	0f0H
	DB	0e8H
	DB	0e0H
	DB	0ffH
	DB	0f0H
	DB	0e8H
	DB	0d8H
	DB	0ffH
	DB	0f0H
	DB	0e8H
	DB	0e0H
	DB	0ffH
	DB	0f0H
	DB	0e8H
	DB	0e0H
	DB	0ffH
	DB	0f0H
	DB	0e8H
	DB	0d8H
	DB	0ffH
	DB	0f0H
	DB	0e8H
	DB	0e0H
	DB	0ffH
	DB	0f0H
	DB	0e8H
	DB	0e0H
	DB	0ffH
	DB	0f0H
	DB	0e8H
	DB	0d8H
	DB	0ffH
	DB	0f0H
	DB	0e8H
	DB	0e0H
	DB	0ffH
	DB	0f0H
	DB	0e8H
	DB	0e0H
	DB	0ffH
	DB	0f0H
	DB	0e8H
	DB	0d8H
	DB	0ffH
	DB	0f0H
	DB	0e8H
	DB	0e0H
	DB	0ffH
	DB	0f0H
	DB	0e8H
	DB	0e0H
	DB	0ffH
	DB	0f0H
	DB	0e8H
	DB	0d8H
	DB	0ffH
	DB	0f0H
	DB	0e8H
	DB	0e0H
	DB	0ffH
	DB	0f0H
	DB	0e8H
	DB	0e0H
	DB	0ffH
	DB	0f0H
	DB	0e8H
	DB	0d8H
	DB	0ffH
	DB	0f0H
	DB	0e8H
	DB	0e0H
	DB	0ffH
	DB	0f0H
	DB	0e8H
	DB	0e0H
	DB	0ffH
	DB	0f0H
	DB	0e8H
	DB	0d8H
	DB	0ffH
	DB	0f0H
	DB	0e8H
	DB	0e0H
	DB	0ffH
	DB	0f0H
	DB	0e8H
	DB	0e0H
	DB	0ffH
	DB	0f0H
	DB	0e8H
	DB	0d8H
	DB	0ffH
	DB	0f0H
	DB	0e8H
	DB	0e0H
	DB	0ffH
	DB	0f0H
	DB	0e8H
	DB	0e0H
	DB	0ffH
	DB	0f0H
	DB	0e8H
	DB	0d8H
	DB	0ffH
	DB	0f0H
	DB	0e8H
	DB	0e0H
	DB	0ffH
	DB	0f0H
	DB	0e8H
	DB	0e0H
	DB	0ffH
	DB	0f0H
	DB	0e8H
	DB	0d8H
	DB	0ffH
	DB	0f0H
	DB	0e8H
	DB	0e0H
	DB	0ffH
	DB	0f0H
	DB	0e8H
	DB	0e0H
	DB	0ffH
	DB	0f0H
	DB	0e8H
	DB	0d8H
	DB	0ffH
	DB	0f0H
	DB	0e8H
	DB	0e0H
	DB	0ffH
	DB	0f0H
	DB	0e8H
	DB	0e0H
	DB	0ffH
	DB	0f0H
	DB	0e8H
	DB	0d8H
	DB	0ffH
	DB	0f0H
	DB	0e8H
	DB	0e0H
	DB	0ffH
	DB	0f0H
	DB	0e8H
	DB	0e0H
	DB	0ffH
	DB	0f0H
	DB	0e8H
	DB	0d8H
	DB	0ffH
	DB	0f0H
	DB	0e8H
	DB	0e0H
	DB	0ffH
	DB	0f0H
	DB	0e8H
	DB	0e0H
	DB	0ffH
	DB	0f0H
	DB	0e8H
	DB	0d8H
	DB	0ffH
	DB	0f0H
	DB	0e8H
	DB	0e0H
	DB	0ffH
	DB	0f0H
	DB	0e8H
	DB	0e0H
	DB	0ffH
	DB	0f0H
	DB	0e8H
	DB	0d8H
	DB	0ffH
	DB	0f0H
	DB	0e8H
	DB	0e0H
	DB	0ffH
	DB	0f0H
	DB	0e8H
	DB	0e0H
	DB	0ffH
	DB	0f0H
	DB	0e8H
	DB	0d8H
	DB	0ffH
	DB	0f0H
	DB	0e8H
	DB	0e0H
	DB	0ffH
	DB	0f0H
	DB	0e8H
	DB	0e0H
	DB	0ffH
	DB	0f0H
	DB	0e8H
	DB	0d8H
	DB	0ffH
	DB	0f0H
	DB	0e8H
	DB	0e0H
	DB	0ffH
	DB	0f0H
	DB	0e8H
	DB	0e0H
	DB	0ffH
	DB	0f0H
	DB	0e8H
	DB	0d8H
	DB	0ffH
	DB	0f0H
	DB	0e8H
	DB	0e0H
	DB	0ffH
	DB	0f0H
	DB	0e8H
	DB	0e0H
	DB	0ffH
	DB	0f0H
	DB	0e8H
	DB	0d8H
	DB	0ffH
	DB	058H
	DB	030H
	DB	00H
	DB	0ffH
	DB	058H
	DB	034H
	DB	00H
	DB	0ffH
	DB	0e0H
	DB	0d8H
	DB	0d0H
	DB	0ffH
	DB	0e8H
	DB	0e0H
	DB	0d8H
	DB	0ffH
	DB	0f0H
	DB	0e8H
	DB	0e0H
	DB	0ffH
	DB	0f0H
	DB	0ecH
	DB	0e8H
	DB	0ffH
	DB	0f8H
	DB	0f0H
	DB	0f0H
	DB	0ffH
	DB	0f8H
	DB	0f4H
	DB	0f0H
	DB	0ffH
	DB	0f8H
	DB	0f8H
	DB	0f0H
	DB	0ffH
	DB	0f8H
	DB	0f8H
	DB	0f8H
	DB	0ffH
	DB	0f8H
	DB	0f8H
	DB	0f8H
	DB	0ffH
	DB	0f8H
	DB	0f8H
	DB	0f0H
	DB	0ffH
	DB	0f8H
	DB	0f8H
	DB	0f8H
	DB	0ffH
	DB	0f8H
	DB	0f8H
	DB	0f8H
	DB	0ffH
	DB	0f8H
	DB	0f8H
	DB	0f0H
	DB	0ffH
	DB	0f8H
	DB	0f8H
	DB	0f8H
	DB	0ffH
	DB	0f8H
	DB	0f8H
	DB	0f8H
	DB	0ffH
	DB	0f8H
	DB	0f8H
	DB	0f0H
	DB	0ffH
	DB	0f8H
	DB	0f8H
	DB	0f8H
	DB	0ffH
	DB	0f8H
	DB	0f8H
	DB	0f8H
	DB	0ffH
	DB	0f8H
	DB	0f8H
	DB	0f0H
	DB	0ffH
	DB	0f8H
	DB	0f8H
	DB	0f8H
	DB	0ffH
	DB	0f8H
	DB	0f8H
	DB	0f8H
	DB	0ffH
	DB	0f8H
	DB	0f8H
	DB	0f0H
	DB	0ffH
	DB	0f8H
	DB	0f8H
	DB	0f8H
	DB	0ffH
	DB	0f8H
	DB	0f8H
	DB	0f8H
	DB	0ffH
	DB	0f8H
	DB	0f8H
	DB	0f0H
	DB	0ffH
	DB	0f8H
	DB	0f8H
	DB	0f8H
	DB	0ffH
	DB	0f8H
	DB	0f8H
	DB	0f8H
	DB	0ffH
	DB	0f8H
	DB	0f8H
	DB	0f0H
	DB	0ffH
	DB	0f8H
	DB	0f8H
	DB	0f8H
	DB	0ffH
	DB	0f8H
	DB	0f8H
	DB	0f8H
	DB	0ffH
	DB	0f8H
	DB	0f8H
	DB	0f0H
	DB	0ffH
	DB	0f8H
	DB	0f8H
	DB	0f8H
	DB	0ffH
	DB	0f8H
	DB	0f8H
	DB	0f8H
	DB	0ffH
	DB	0f8H
	DB	0f8H
	DB	0f0H
	DB	0ffH
	DB	0f8H
	DB	0f8H
	DB	0f8H
	DB	0ffH
	DB	0f8H
	DB	0f8H
	DB	0f8H
	DB	0ffH
	DB	0f8H
	DB	0f8H
	DB	0f0H
	DB	0ffH
	DB	0f8H
	DB	0f8H
	DB	0f8H
	DB	0ffH
	DB	0f8H
	DB	0f8H
	DB	0f8H
	DB	0ffH
	DB	0f8H
	DB	0f8H
	DB	0f0H
	DB	0ffH
	DB	0f8H
	DB	0f8H
	DB	0f8H
	DB	0ffH
	DB	0f8H
	DB	0f8H
	DB	0f8H
	DB	0ffH
	DB	0f8H
	DB	0f8H
	DB	0f0H
	DB	0ffH
	DB	0f8H
	DB	0f8H
	DB	0f8H
	DB	0ffH
	DB	0f8H
	DB	0f8H
	DB	0f8H
	DB	0ffH
	DB	0f8H
	DB	0f8H
	DB	0f0H
	DB	0ffH
	DB	0f8H
	DB	0f8H
	DB	0f8H
	DB	0ffH
	DB	0f8H
	DB	0f8H
	DB	0f8H
	DB	0ffH
	DB	0f8H
	DB	0f8H
	DB	0f0H
	DB	0ffH
	DB	0f8H
	DB	0f8H
	DB	0f8H
	DB	0ffH
	DB	0f8H
	DB	0f8H
	DB	0f8H
	DB	0ffH
	DB	0f8H
	DB	0f8H
	DB	0f0H
	DB	0ffH
	DB	0f8H
	DB	0f8H
	DB	0f8H
	DB	0ffH
	DB	0f8H
	DB	0f8H
	DB	0f8H
	DB	0ffH
	DB	0f8H
	DB	0f8H
	DB	0f0H
	DB	0ffH
	DB	0f8H
	DB	0f8H
	DB	0f8H
	DB	0ffH
	DB	0f8H
	DB	0f8H
	DB	0f8H
	DB	0ffH
	DB	0f8H
	DB	0f8H
	DB	0f0H
	DB	0ffH
	DB	0f8H
	DB	0f8H
	DB	0f8H
	DB	0ffH
	DB	0f8H
	DB	0f8H
	DB	0f8H
	DB	0ffH
	DB	0f8H
	DB	0f8H
	DB	0f0H
	DB	0ffH
	DB	0f8H
	DB	0f8H
	DB	0f8H
	DB	0ffH
	DB	0f8H
	DB	0f8H
	DB	0f8H
	DB	0ffH
	DB	0f8H
	DB	0f8H
	DB	0f0H
	DB	0ffH
	DB	0f8H
	DB	0f8H
	DB	0f8H
	DB	0ffH
	DB	0f8H
	DB	0f8H
	DB	0f8H
	DB	0ffH
	DB	0f8H
	DB	0f8H
	DB	0f0H
	DB	0ffH
	DB	0f8H
	DB	0f8H
	DB	0f8H
	DB	0ffH
	DB	0f8H
	DB	0f8H
	DB	0f8H
	DB	0ffH
	DB	0f8H
	DB	0f8H
	DB	0f0H
	DB	0ffH
	DB	0f8H
	DB	0f8H
	DB	0f8H
	DB	0ffH
	DB	0f8H
	DB	0f8H
	DB	0f8H
	DB	0ffH
	DB	0f8H
	DB	0f8H
	DB	0f0H
	DB	0ffH
	DB	0f8H
	DB	0f8H
	DB	0f8H
	DB	0ffH
	DB	0f8H
	DB	0f8H
	DB	0f8H
	DB	0ffH
	DB	0f8H
	DB	0f8H
	DB	0f0H
	DB	0ffH
	DB	0f8H
	DB	0f8H
	DB	0f8H
	DB	0ffH
	DB	0f8H
	DB	0f8H
	DB	0f8H
	DB	0ffH
	DB	0f8H
	DB	0f8H
	DB	0f0H
	DB	0ffH
	DB	0f8H
	DB	0f8H
	DB	0f8H
	DB	0ffH
	DB	0f8H
	DB	0f8H
	DB	0f8H
	DB	0ffH
	DB	0f8H
	DB	0f8H
	DB	0f0H
	DB	0ffH
	DB	0f8H
	DB	0f8H
	DB	0f8H
	DB	0ffH
	DB	0f8H
	DB	0f8H
	DB	0f8H
	DB	0ffH
	DB	0f8H
	DB	0f8H
	DB	0f0H
	DB	0ffH
	DB	0f8H
	DB	0f8H
	DB	0f8H
	DB	0ffH
	DB	0f8H
	DB	0f8H
	DB	0f8H
	DB	0ffH
	DB	0f8H
	DB	0f8H
	DB	0f0H
	DB	0ffH
	DB	0f8H
	DB	0f8H
	DB	0f8H
	DB	0ffH
	DB	0f8H
	DB	0f8H
	DB	0f8H
	DB	0ffH
	DB	0f8H
	DB	0f8H
	DB	0f0H
	DB	0ffH
	DB	0f8H
	DB	0f8H
	DB	0f8H
	DB	0ffH
	DB	0f8H
	DB	0f8H
	DB	0f8H
	DB	0ffH
	DB	0f8H
	DB	0f8H
	DB	0f0H
	DB	0ffH
	DB	0f8H
	DB	0f8H
	DB	0f8H
	DB	0ffH
	DB	0f8H
	DB	0f8H
	DB	0f8H
	DB	0ffH
	DB	0f8H
	DB	0f8H
	DB	0f0H
	DB	0ffH
	DB	0f8H
	DB	0f8H
	DB	0f8H
	DB	0ffH
	DB	0f8H
	DB	0f8H
	DB	0f8H
	DB	0ffH
	DB	0f8H
	DB	0f8H
	DB	0f0H
	DB	0ffH
	DB	0f8H
	DB	0f8H
	DB	0f8H
	DB	0ffH
	DB	0f8H
	DB	0f8H
	DB	0f8H
	DB	0ffH
	DB	0f8H
	DB	0f8H
	DB	0f0H
	DB	0ffH
	DB	0f8H
	DB	0f8H
	DB	0f8H
	DB	0ffH
	DB	0f8H
	DB	0f8H
	DB	0f8H
	DB	0ffH
	DB	0f8H
	DB	0f8H
	DB	0f0H
	DB	0ffH
	DB	0f8H
	DB	0f8H
	DB	0f8H
	DB	0ffH
	DB	0f8H
	DB	0f8H
	DB	0f8H
	DB	0ffH
	DB	0f8H
	DB	0f8H
	DB	0f0H
	DB	0ffH
	DB	0f8H
	DB	0f8H
	DB	0f8H
	DB	0ffH
	DB	0f8H
	DB	0f8H
	DB	0f8H
	DB	0ffH
	DB	0f8H
	DB	0f8H
	DB	0f0H
	DB	0ffH
	DB	0f8H
	DB	0f8H
	DB	0f8H
	DB	0ffH
	DB	0f8H
	DB	0f8H
	DB	0f8H
	DB	0ffH
	DB	0f8H
	DB	0f8H
	DB	0f0H
	DB	0ffH
	DB	0f8H
	DB	0f8H
	DB	0f8H
	DB	0ffH
	DB	0f8H
	DB	0f8H
	DB	0f8H
	DB	0ffH
	DB	0f8H
	DB	0f8H
	DB	0f0H
	DB	0ffH
	DB	0f8H
	DB	0f8H
	DB	0f8H
	DB	0ffH
	DB	0f8H
	DB	0f8H
	DB	0f8H
	DB	0ffH
	DB	0f8H
	DB	0f8H
	DB	0f0H
	DB	0ffH
	DB	0f8H
	DB	0f8H
	DB	0f8H
	DB	0ffH
	DB	0f8H
	DB	0f8H
	DB	0f8H
	DB	0ffH
	DB	0f8H
	DB	0f8H
	DB	0f0H
	DB	0ffH
	DB	0f8H
	DB	0f8H
	DB	0f8H
	DB	0ffH
	DB	0f8H
	DB	0f8H
	DB	0f8H
	DB	0ffH
	DB	0f8H
	DB	0f8H
	DB	0f0H
	DB	0ffH
	DB	0f8H
	DB	0f8H
	DB	0f8H
	DB	0ffH
	DB	0f8H
	DB	0f8H
	DB	0f8H
	DB	0ffH
	DB	0f8H
	DB	0f8H
	DB	0f0H
	DB	0ffH
	DB	0f8H
	DB	0f8H
	DB	0f8H
	DB	0ffH
	DB	0f8H
	DB	0f8H
	DB	0f8H
	DB	0ffH
	DB	0f8H
	DB	0f8H
	DB	0f0H
	DB	0ffH
	DB	0f8H
	DB	0f8H
	DB	0f8H
	DB	0ffH
	DB	0f8H
	DB	0f8H
	DB	0f8H
	DB	0ffH
	DB	0f8H
	DB	0f8H
	DB	0f0H
	DB	0ffH
	DB	0f8H
	DB	0f8H
	DB	0f8H
	DB	0ffH
	DB	0f8H
	DB	0f8H
	DB	0f8H
	DB	0ffH
	DB	0f8H
	DB	0f8H
	DB	0f0H
	DB	0ffH
	DB	0f8H
	DB	0f8H
	DB	0f8H
	DB	0ffH
	DB	0f8H
	DB	0f8H
	DB	0f8H
	DB	0ffH
	DB	0f8H
	DB	0f8H
	DB	0f0H
	DB	0ffH
	DB	0f8H
	DB	0f8H
	DB	0f8H
	DB	0ffH
	DB	0f8H
	DB	0f8H
	DB	0f8H
	DB	0ffH
	DB	0f8H
	DB	0f8H
	DB	0f0H
	DB	0ffH
	DB	0f8H
	DB	0f8H
	DB	0f8H
	DB	0ffH
	DB	0f8H
	DB	0f8H
	DB	0f8H
	DB	0ffH
	DB	0f8H
	DB	0f8H
	DB	0f0H
	DB	0ffH
	DB	0f8H
	DB	0f8H
	DB	0f8H
	DB	0ffH
	DB	0f8H
	DB	0f8H
	DB	0f8H
	DB	0ffH
	DB	0f8H
	DB	0f8H
	DB	0f0H
	DB	0ffH
	DB	0f8H
	DB	0f8H
	DB	0f8H
	DB	0ffH
	DB	0f8H
	DB	0f8H
	DB	0f8H
	DB	0ffH
	DB	0f8H
	DB	0f8H
	DB	0f0H
	DB	0ffH
	DB	0f8H
	DB	0f8H
	DB	0f8H
	DB	0ffH
	DB	0f8H
	DB	0f8H
	DB	0f8H
	DB	0ffH
	DB	0f8H
	DB	0f8H
	DB	0f0H
	DB	0ffH
	DB	0f8H
	DB	0f8H
	DB	0f8H
	DB	0ffH
	DB	0f8H
	DB	0f8H
	DB	0f8H
	DB	0ffH
	DB	0f8H
	DB	0f8H
	DB	0f0H
	DB	0ffH
	DB	0f8H
	DB	0f8H
	DB	0f8H
	DB	0ffH
	DB	0f8H
	DB	0f8H
	DB	0f8H
	DB	0ffH
	DB	0f8H
	DB	0f8H
	DB	0f0H
	DB	0ffH
	DB	0f8H
	DB	0f8H
	DB	0f8H
	DB	0ffH
	DB	0f8H
	DB	0f8H
	DB	0f8H
	DB	0ffH
	DB	0f8H
	DB	0f8H
	DB	0f0H
	DB	0ffH
	DB	0f8H
	DB	0f8H
	DB	0f8H
	DB	0ffH
	DB	0f8H
	DB	0f8H
	DB	0f8H
	DB	0ffH
	DB	0f8H
	DB	0f8H
	DB	0f0H
	DB	0ffH
	DB	0f8H
	DB	0f8H
	DB	0f8H
	DB	0ffH
	DB	0f8H
	DB	0f8H
	DB	0f8H
	DB	0ffH
	DB	0f8H
	DB	0f8H
	DB	0f0H
	DB	0ffH
	DB	0f8H
	DB	0f8H
	DB	0f8H
	DB	0ffH
	DB	0f8H
	DB	0f8H
	DB	0f8H
	DB	0ffH
	DB	0f8H
	DB	0f8H
	DB	0f0H
	DB	0ffH
	DB	0f8H
	DB	0f8H
	DB	0f8H
	DB	0ffH
	DB	0f8H
	DB	0f8H
	DB	0f8H
	DB	0ffH
	DB	0f8H
	DB	0f8H
	DB	0f0H
	DB	0ffH
	DB	0f8H
	DB	0f8H
	DB	0f8H
	DB	0ffH
	DB	0f8H
	DB	0f8H
	DB	0f8H
	DB	0ffH
	DB	0f8H
	DB	0f8H
	DB	0f0H
	DB	0ffH
	DB	0f8H
	DB	0f8H
	DB	0f8H
	DB	0ffH
	DB	0f8H
	DB	0f8H
	DB	0f8H
	DB	0ffH
	DB	0f8H
	DB	0f8H
	DB	0f0H
	DB	0ffH
	DB	0f8H
	DB	0f8H
	DB	0f8H
	DB	0ffH
	DB	0f8H
	DB	0f8H
	DB	0f8H
	DB	0ffH
	DB	0f8H
	DB	0f8H
	DB	0f0H
	DB	0ffH
	DB	0f8H
	DB	0f8H
	DB	0f8H
	DB	0ffH
	DB	0f8H
	DB	0f8H
	DB	0f8H
	DB	0ffH
	DB	0f8H
	DB	0f8H
	DB	0f0H
	DB	0ffH
	DB	0f8H
	DB	0f8H
	DB	0f8H
	DB	0ffH
	DB	0f8H
	DB	0f8H
	DB	0f8H
	DB	0ffH
	DB	0f8H
	DB	0f8H
	DB	0f0H
	DB	0ffH
	DB	0f8H
	DB	0f8H
	DB	0f8H
	DB	0ffH
	DB	0f8H
	DB	0f8H
	DB	0f8H
	DB	0ffH
	DB	0f8H
	DB	0f8H
	DB	0f0H
	DB	0ffH
	DB	0f8H
	DB	0f8H
	DB	0f8H
	DB	0ffH
	DB	0f8H
	DB	0f8H
	DB	0f8H
	DB	0ffH
	DB	0f8H
	DB	0f8H
	DB	0f0H
	DB	0ffH
	DB	0f8H
	DB	0f8H
	DB	0f8H
	DB	0ffH
	DB	0f8H
	DB	0f8H
	DB	0f8H
	DB	0ffH
	DB	0f8H
	DB	0f8H
	DB	0f0H
	DB	0ffH
	DB	0f8H
	DB	0f8H
	DB	0f8H
	DB	0ffH
	DB	0f8H
	DB	0f8H
	DB	0f8H
	DB	0ffH
	DB	0f8H
	DB	0f8H
	DB	0f0H
	DB	0ffH
	DB	0f8H
	DB	0f8H
	DB	0f8H
	DB	0ffH
	DB	0f8H
	DB	0f8H
	DB	0f8H
	DB	0ffH
	DB	0f8H
	DB	0f8H
	DB	0f0H
	DB	0ffH
	DB	0f8H
	DB	0f8H
	DB	0f8H
	DB	0ffH
	DB	0f8H
	DB	0f8H
	DB	0f8H
	DB	0ffH
	DB	0f8H
	DB	0f8H
	DB	0f0H
	DB	0ffH
	DB	0f8H
	DB	0f8H
	DB	0f8H
	DB	0ffH
	DB	0f8H
	DB	0f8H
	DB	0f8H
	DB	0ffH
	DB	0f8H
	DB	0f8H
	DB	0f0H
	DB	0ffH
	DB	0f8H
	DB	0f8H
	DB	0f8H
	DB	0ffH
	DB	0f8H
	DB	0f8H
	DB	0f8H
	DB	0ffH
	DB	0f8H
	DB	0f8H
	DB	0f0H
	DB	0ffH
	DB	0f8H
	DB	0f8H
	DB	0f8H
	DB	0ffH
	DB	0f8H
	DB	0f8H
	DB	0f8H
	DB	0ffH
	DB	0f8H
	DB	0f8H
	DB	0f0H
	DB	0ffH
	DB	0f8H
	DB	0f8H
	DB	0f8H
	DB	0ffH
	DB	0f8H
	DB	0f8H
	DB	0f8H
	DB	0ffH
	DB	0f8H
	DB	0f8H
	DB	0f0H
	DB	0ffH
	DB	0f8H
	DB	0f8H
	DB	0f8H
	DB	0ffH
	DB	0f8H
	DB	0f8H
	DB	0f8H
	DB	0ffH
	DB	0f8H
	DB	0f8H
	DB	0f0H
	DB	0ffH
	DB	0f8H
	DB	0f8H
	DB	0f8H
	DB	0ffH
	DB	0f8H
	DB	0f8H
	DB	0f8H
	DB	0ffH
	DB	0f8H
	DB	0f8H
	DB	0f0H
	DB	0ffH
	DB	0f8H
	DB	0f8H
	DB	0f8H
	DB	0ffH
	DB	0f8H
	DB	0f8H
	DB	0f8H
	DB	0ffH
	DB	0f8H
	DB	0f8H
	DB	0f0H
	DB	0ffH
	DB	0f8H
	DB	0f8H
	DB	0f8H
	DB	0ffH
	DB	0f8H
	DB	0f8H
	DB	0f8H
	DB	0ffH
	DB	0f8H
	DB	0f8H
	DB	0f0H
	DB	0ffH
	DB	0f8H
	DB	0f8H
	DB	0f8H
	DB	0ffH
	DB	0f8H
	DB	0f8H
	DB	0f8H
	DB	0ffH
	DB	0f8H
	DB	0f8H
	DB	0f0H
	DB	0ffH
	DB	0f8H
	DB	0f8H
	DB	0f8H
	DB	0ffH
	DB	0f8H
	DB	0f8H
	DB	0f8H
	DB	0ffH
	DB	0f8H
	DB	0f8H
	DB	0f0H
	DB	0ffH
	DB	0f8H
	DB	0f8H
	DB	0f8H
	DB	0ffH
	DB	0f8H
	DB	0f8H
	DB	0f8H
	DB	0ffH
	DB	0f8H
	DB	0f8H
	DB	0f0H
	DB	0ffH
	DB	0f8H
	DB	0f8H
	DB	0f8H
	DB	0ffH
	DB	0f8H
	DB	0f8H
	DB	0f8H
	DB	0ffH
	DB	0f8H
	DB	0f8H
	DB	0f0H
	DB	0ffH
	DB	0f8H
	DB	0f8H
	DB	0f8H
	DB	0ffH
	DB	0f8H
	DB	0f8H
	DB	0f8H
	DB	0ffH
	DB	0f8H
	DB	0f8H
	DB	0f0H
	DB	0ffH
	DB	0f8H
	DB	0f8H
	DB	0f8H
	DB	0ffH
	DB	0f8H
	DB	0f8H
	DB	0f8H
	DB	0ffH
	DB	0f8H
	DB	0f8H
	DB	0f0H
	DB	0ffH
	DB	0f8H
	DB	0f8H
	DB	0f8H
	DB	0ffH
	DB	0f8H
	DB	0f8H
	DB	0f8H
	DB	0ffH
	DB	0f8H
	DB	0f8H
	DB	0f0H
	DB	0ffH
	DB	0f8H
	DB	0f8H
	DB	0f8H
	DB	0ffH
	DB	0f8H
	DB	0f8H
	DB	0f8H
	DB	0ffH
	DB	0f8H
	DB	0f8H
	DB	0f0H
	DB	0ffH
	DB	0f8H
	DB	0f8H
	DB	0f8H
	DB	0ffH
	DB	0f8H
	DB	0f8H
	DB	0f8H
	DB	0ffH
	DB	0f8H
	DB	0f8H
	DB	0f8H
	DB	0ffH
	DB	0f8H
	DB	0f8H
	DB	0f8H
	DB	0ffH
	DB	0e0H
	DB	0d4H
	DB	0c8H
	DB	0ffH
	DB	068H
	DB	048H
	DB	018H
	DB	0ffH
	DB	058H
	DB	034H
	DB	00H
	DB	0ffH
	DB	050H
	DB	030H
	DB	00H
	DB	0aaH
	DB	058H
	DB	034H
	DB	00H
	DB	028H
	DB	050H
	DB	034H
	DB	00H
	DB	01cH
	DB	058H
	DB	034H
	DB	00H
	DB	014H
	DB	050H
	DB	034H
	DB	00H
	DB	010H
	DB	058H
	DB	034H
	DB	00H
	DB	08H
	DB	058H
	DB	034H
	DB	00H
	DB	04H
	DB	050H
	DB	030H
	DB	00H
	DB	04H
	DB	058H
	DB	034H
	DB	00H
	DB	00H
	DB	058H
	DB	034H
	DB	00H
	DB	00H
	DB	058H
	DB	030H
	DB	00H
	DB	00H
	DB	0f8H
	DB	0fcH
	DB	0f8H
	DB	00H
	DB	0f8H
	DB	0fcH
	DB	0f8H
	DB	00H
	DB	0f8H
	DB	0fcH
	DB	0f8H
	DB	00H
	DB	058H
	DB	034H
	DB	00H
	DB	00H
	DB	050H
	DB	034H
	DB	00H
	DB	00H
	DB	058H
	DB	034H
	DB	00H
	DB	04H
	DB	058H
	DB	030H
	DB	00H
	DB	08H
	DB	050H
	DB	034H
	DB	00H
	DB	0cH
	DB	058H
	DB	034H
	DB	00H
	DB	010H
	DB	058H
	DB	034H
	DB	00H
	DB	018H
	DB	050H
	DB	034H
	DB	00H
	DB	024H
	DB	058H
	DB	030H
	DB	00H
	DB	051H
	DB	058H
	DB	034H
	DB	00H
	DB	0fbH
	DB	058H
	DB	038H
	DB	08H
	DB	0ffH
	DB	0d0H
	DB	0c4H
	DB	0b0H
	DB	0ffH
	DB	0f0H
	DB	0e8H
	DB	0d8H
	DB	0ffH
	DB	0f0H
	DB	0e8H
	DB	0d8H
	DB	0ffH
	DB	0f0H
	DB	0e8H
	DB	0e0H
	DB	0ffH
	DB	0f0H
	DB	0e8H
	DB	0d8H
	DB	0ffH
	DB	0f0H
	DB	0e8H
	DB	0d8H
	DB	0ffH
	DB	0f0H
	DB	0e8H
	DB	0e0H
	DB	0ffH
	DB	0f0H
	DB	0e8H
	DB	0d8H
	DB	0ffH
	DB	0f0H
	DB	0e8H
	DB	0d8H
	DB	0ffH
	DB	0f0H
	DB	0e8H
	DB	0e0H
	DB	0ffH
	DB	0f0H
	DB	0e8H
	DB	0d8H
	DB	0ffH
	DB	0f0H
	DB	0e8H
	DB	0d8H
	DB	0ffH
	DB	0f0H
	DB	0e8H
	DB	0e0H
	DB	0ffH
	DB	0f0H
	DB	0e8H
	DB	0d8H
	DB	0ffH
	DB	0f0H
	DB	0e8H
	DB	0d8H
	DB	0ffH
	DB	0f0H
	DB	0e8H
	DB	0e0H
	DB	0ffH
	DB	0f0H
	DB	0e8H
	DB	0d8H
	DB	0ffH
	DB	0f0H
	DB	0e8H
	DB	0d8H
	DB	0ffH
	DB	0f0H
	DB	0e8H
	DB	0e0H
	DB	0ffH
	DB	0f0H
	DB	0e8H
	DB	0d8H
	DB	0ffH
	DB	0f0H
	DB	0e8H
	DB	0d8H
	DB	0ffH
	DB	0f0H
	DB	0e8H
	DB	0e0H
	DB	0ffH
	DB	0f0H
	DB	0e8H
	DB	0d8H
	DB	0ffH
	DB	0f0H
	DB	0e8H
	DB	0d8H
	DB	0ffH
	DB	0f0H
	DB	0e8H
	DB	0e0H
	DB	0ffH
	DB	0f0H
	DB	0e8H
	DB	0d8H
	DB	0ffH
	DB	0f0H
	DB	0e8H
	DB	0d8H
	DB	0ffH
	DB	0f0H
	DB	0e8H
	DB	0e0H
	DB	0ffH
	DB	0f0H
	DB	0e8H
	DB	0d8H
	DB	0ffH
	DB	0f0H
	DB	0e8H
	DB	0d8H
	DB	0ffH
	DB	0f0H
	DB	0e8H
	DB	0e0H
	DB	0ffH
	DB	0f0H
	DB	0e8H
	DB	0d8H
	DB	0ffH
	DB	0f0H
	DB	0e8H
	DB	0d8H
	DB	0ffH
	DB	0f0H
	DB	0e8H
	DB	0e0H
	DB	0ffH
	DB	0f0H
	DB	0e8H
	DB	0d8H
	DB	0ffH
	DB	0f0H
	DB	0e8H
	DB	0d8H
	DB	0ffH
	DB	0f0H
	DB	0e8H
	DB	0e0H
	DB	0ffH
	DB	0f0H
	DB	0e8H
	DB	0d8H
	DB	0ffH
	DB	0f0H
	DB	0e8H
	DB	0d8H
	DB	0ffH
	DB	0f0H
	DB	0e8H
	DB	0e0H
	DB	0ffH
	DB	0f0H
	DB	0e8H
	DB	0d8H
	DB	0ffH
	DB	0f0H
	DB	0e8H
	DB	0d8H
	DB	0ffH
	DB	0f0H
	DB	0e8H
	DB	0e0H
	DB	0ffH
	DB	0f0H
	DB	0e8H
	DB	0d8H
	DB	0ffH
	DB	0f0H
	DB	0e8H
	DB	0d8H
	DB	0ffH
	DB	0f0H
	DB	0e8H
	DB	0e0H
	DB	0ffH
	DB	0f0H
	DB	0e8H
	DB	0d8H
	DB	0ffH
	DB	0f0H
	DB	0e8H
	DB	0d8H
	DB	0ffH
	DB	0f0H
	DB	0e8H
	DB	0e0H
	DB	0ffH
	DB	0f0H
	DB	0e8H
	DB	0d8H
	DB	0ffH
	DB	0f0H
	DB	0e8H
	DB	0d8H
	DB	0ffH
	DB	0f0H
	DB	0e8H
	DB	0e0H
	DB	0ffH
	DB	0f0H
	DB	0e8H
	DB	0d8H
	DB	0ffH
	DB	0f0H
	DB	0e8H
	DB	0d8H
	DB	0ffH
	DB	0f0H
	DB	0e8H
	DB	0e0H
	DB	0ffH
	DB	0f0H
	DB	0e8H
	DB	0d8H
	DB	0ffH
	DB	0f0H
	DB	0e8H
	DB	0d8H
	DB	0ffH
	DB	0f0H
	DB	0e8H
	DB	0e0H
	DB	0ffH
	DB	0f0H
	DB	0e8H
	DB	0d8H
	DB	0ffH
	DB	0f0H
	DB	0e8H
	DB	0d8H
	DB	0ffH
	DB	0f0H
	DB	0e8H
	DB	0e0H
	DB	0ffH
	DB	0f0H
	DB	0e8H
	DB	0d8H
	DB	0ffH
	DB	0f0H
	DB	0e8H
	DB	0d8H
	DB	0ffH
	DB	0f0H
	DB	0e8H
	DB	0e0H
	DB	0ffH
	DB	0f0H
	DB	0e8H
	DB	0d8H
	DB	0ffH
	DB	0f0H
	DB	0e8H
	DB	0d8H
	DB	0ffH
	DB	0f0H
	DB	0e8H
	DB	0e0H
	DB	0ffH
	DB	0f0H
	DB	0e8H
	DB	0d8H
	DB	0ffH
	DB	0f0H
	DB	0e8H
	DB	0d8H
	DB	0ffH
	DB	0f0H
	DB	0e8H
	DB	0e0H
	DB	0ffH
	DB	0f0H
	DB	0e8H
	DB	0d8H
	DB	0ffH
	DB	0f0H
	DB	0e8H
	DB	0d8H
	DB	0ffH
	DB	0f0H
	DB	0e8H
	DB	0e0H
	DB	0ffH
	DB	0f0H
	DB	0e8H
	DB	0d8H
	DB	0ffH
	DB	0f0H
	DB	0e8H
	DB	0d8H
	DB	0ffH
	DB	0f0H
	DB	0e8H
	DB	0e0H
	DB	0ffH
	DB	0f0H
	DB	0e8H
	DB	0d8H
	DB	0ffH
	DB	0f0H
	DB	0e8H
	DB	0d8H
	DB	0ffH
	DB	0f0H
	DB	0e8H
	DB	0e0H
	DB	0ffH
	DB	0f0H
	DB	0e8H
	DB	0d8H
	DB	0ffH
	DB	0f0H
	DB	0e8H
	DB	0d8H
	DB	0ffH
	DB	0f0H
	DB	0e8H
	DB	0e0H
	DB	0ffH
	DB	0f0H
	DB	0e8H
	DB	0d8H
	DB	0ffH
	DB	0f0H
	DB	0e8H
	DB	0d8H
	DB	0ffH
	DB	0f0H
	DB	0e8H
	DB	0e0H
	DB	0ffH
	DB	0f0H
	DB	0e8H
	DB	0d8H
	DB	0ffH
	DB	0f0H
	DB	0e8H
	DB	0d8H
	DB	0ffH
	DB	058H
	DB	034H
	DB	00H
	DB	0ffH
	DB	058H
	DB	034H
	DB	00H
	DB	0ffH
	DB	0e0H
	DB	0d4H
	DB	0c8H
	DB	0ffH
	DB	0e0H
	DB	0e0H
	DB	0d8H
	DB	0ffH
	DB	0e8H
	DB	0e4H
	DB	0e0H
	DB	0ffH
	DB	0f0H
	DB	0ecH
	DB	0e8H
	DB	0ffH
	DB	0f0H
	DB	0f4H
	DB	0e8H
	DB	0ffH
	DB	0f8H
	DB	0f4H
	DB	0f0H
	DB	0ffH
	DB	0f8H
	DB	0f8H
	DB	0f0H
	DB	0ffH
	DB	0f8H
	DB	0f8H
	DB	0f8H
	DB	0ffH
	DB	0f8H
	DB	0f8H
	DB	0f8H
	DB	0ffH
	DB	0f8H
	DB	0f8H
	DB	0f0H
	DB	0ffH
	DB	0f8H
	DB	0f8H
	DB	0f8H
	DB	0ffH
	DB	0f8H
	DB	0f8H
	DB	0f8H
	DB	0ffH
	DB	0f8H
	DB	0fcH
	DB	0f0H
	DB	0ffH
	DB	0f8H
	DB	0f8H
	DB	0f8H
	DB	0ffH
	DB	0f8H
	DB	0f8H
	DB	0f8H
	DB	0ffH
	DB	0f8H
	DB	0fcH
	DB	0f0H
	DB	0ffH
	DB	0f8H
	DB	0f8H
	DB	0f8H
	DB	0ffH
	DB	0f8H
	DB	0f8H
	DB	0f8H
	DB	0ffH
	DB	0f8H
	DB	0f8H
	DB	0f0H
	DB	0ffH
	DB	0f8H
	DB	0f8H
	DB	0f8H
	DB	0ffH
	DB	0f8H
	DB	0f8H
	DB	0f8H
	DB	0ffH
	DB	0f8H
	DB	0f8H
	DB	0f0H
	DB	0ffH
	DB	0f8H
	DB	0f8H
	DB	0f8H
	DB	0ffH
	DB	0f8H
	DB	0f8H
	DB	0f8H
	DB	0ffH
	DB	0f8H
	DB	0fcH
	DB	0f0H
	DB	0ffH
	DB	0f8H
	DB	0f8H
	DB	0f8H
	DB	0ffH
	DB	0f8H
	DB	0f8H
	DB	0f8H
	DB	0ffH
	DB	0f8H
	DB	0fcH
	DB	0f0H
	DB	0ffH
	DB	0f8H
	DB	0f8H
	DB	0f8H
	DB	0ffH
	DB	0f8H
	DB	0f8H
	DB	0f8H
	DB	0ffH
	DB	0f8H
	DB	0f8H
	DB	0f0H
	DB	0ffH
	DB	0f8H
	DB	0f8H
	DB	0f8H
	DB	0ffH
	DB	0f8H
	DB	0f8H
	DB	0f8H
	DB	0ffH
	DB	0f8H
	DB	0f8H
	DB	0f0H
	DB	0ffH
	DB	0f8H
	DB	0f8H
	DB	0f8H
	DB	0ffH
	DB	0f8H
	DB	0f8H
	DB	0f8H
	DB	0ffH
	DB	0f8H
	DB	0fcH
	DB	0f0H
	DB	0ffH
	DB	0f8H
	DB	0f8H
	DB	0f8H
	DB	0ffH
	DB	0f8H
	DB	0f8H
	DB	0f8H
	DB	0ffH
	DB	0f8H
	DB	0fcH
	DB	0f0H
	DB	0ffH
	DB	0f8H
	DB	0f8H
	DB	0f8H
	DB	0ffH
	DB	0f8H
	DB	0f8H
	DB	0f8H
	DB	0ffH
	DB	0f8H
	DB	0f8H
	DB	0f0H
	DB	0ffH
	DB	0f8H
	DB	0f8H
	DB	0f8H
	DB	0ffH
	DB	0f8H
	DB	0f8H
	DB	0f8H
	DB	0ffH
	DB	0f8H
	DB	0f8H
	DB	0f0H
	DB	0ffH
	DB	0f8H
	DB	0f8H
	DB	0f8H
	DB	0ffH
	DB	0f8H
	DB	0f8H
	DB	0f8H
	DB	0ffH
	DB	0f8H
	DB	0fcH
	DB	0f0H
	DB	0ffH
	DB	0f8H
	DB	0f8H
	DB	0f8H
	DB	0ffH
	DB	0f8H
	DB	0f8H
	DB	0f8H
	DB	0ffH
	DB	0f8H
	DB	0fcH
	DB	0f0H
	DB	0ffH
	DB	0f8H
	DB	0f8H
	DB	0f8H
	DB	0ffH
	DB	0f8H
	DB	0f8H
	DB	0f8H
	DB	0ffH
	DB	0f8H
	DB	0f8H
	DB	0f0H
	DB	0ffH
	DB	0f8H
	DB	0f8H
	DB	0f8H
	DB	0ffH
	DB	0f8H
	DB	0f8H
	DB	0f8H
	DB	0ffH
	DB	0f8H
	DB	0f8H
	DB	0f0H
	DB	0ffH
	DB	0f8H
	DB	0f8H
	DB	0f8H
	DB	0ffH
	DB	0f8H
	DB	0f8H
	DB	0f8H
	DB	0ffH
	DB	0f8H
	DB	0fcH
	DB	0f0H
	DB	0ffH
	DB	0f8H
	DB	0f8H
	DB	0f8H
	DB	0ffH
	DB	0f8H
	DB	0f8H
	DB	0f8H
	DB	0ffH
	DB	0f8H
	DB	0fcH
	DB	0f0H
	DB	0ffH
	DB	0f8H
	DB	0f8H
	DB	0f8H
	DB	0ffH
	DB	0f8H
	DB	0f8H
	DB	0f8H
	DB	0ffH
	DB	0f8H
	DB	0f8H
	DB	0f0H
	DB	0ffH
	DB	0f8H
	DB	0f8H
	DB	0f8H
	DB	0ffH
	DB	0f8H
	DB	0f8H
	DB	0f8H
	DB	0ffH
	DB	0f8H
	DB	0f8H
	DB	0f0H
	DB	0ffH
	DB	0f8H
	DB	0f8H
	DB	0f8H
	DB	0ffH
	DB	0f8H
	DB	0f8H
	DB	0f8H
	DB	0ffH
	DB	0f8H
	DB	0fcH
	DB	0f0H
	DB	0ffH
	DB	0f8H
	DB	0f8H
	DB	0f8H
	DB	0ffH
	DB	0f8H
	DB	0f8H
	DB	0f8H
	DB	0ffH
	DB	0f8H
	DB	0fcH
	DB	0f0H
	DB	0ffH
	DB	0f8H
	DB	0f8H
	DB	0f8H
	DB	0ffH
	DB	0f8H
	DB	0f8H
	DB	0f8H
	DB	0ffH
	DB	0f8H
	DB	0f8H
	DB	0f0H
	DB	0ffH
	DB	0f8H
	DB	0f8H
	DB	0f8H
	DB	0ffH
	DB	0f8H
	DB	0f8H
	DB	0f8H
	DB	0ffH
	DB	0f8H
	DB	0f8H
	DB	0f0H
	DB	0ffH
	DB	0f8H
	DB	0f8H
	DB	0f8H
	DB	0ffH
	DB	0f8H
	DB	0f8H
	DB	0f8H
	DB	0ffH
	DB	0f8H
	DB	0fcH
	DB	0f0H
	DB	0ffH
	DB	0f8H
	DB	0f8H
	DB	0f8H
	DB	0ffH
	DB	0f8H
	DB	0f8H
	DB	0f8H
	DB	0ffH
	DB	0f8H
	DB	0fcH
	DB	0f0H
	DB	0ffH
	DB	0f8H
	DB	0f8H
	DB	0f8H
	DB	0ffH
	DB	0f8H
	DB	0f8H
	DB	0f8H
	DB	0ffH
	DB	0f8H
	DB	0f8H
	DB	0f0H
	DB	0ffH
	DB	0f8H
	DB	0f8H
	DB	0f8H
	DB	0ffH
	DB	0f8H
	DB	0f8H
	DB	0f8H
	DB	0ffH
	DB	0f8H
	DB	0f8H
	DB	0f0H
	DB	0ffH
	DB	0f8H
	DB	0f8H
	DB	0f8H
	DB	0ffH
	DB	0f8H
	DB	0f8H
	DB	0f8H
	DB	0ffH
	DB	0f8H
	DB	0fcH
	DB	0f0H
	DB	0ffH
	DB	0f8H
	DB	0f8H
	DB	0f8H
	DB	0ffH
	DB	0f8H
	DB	0f8H
	DB	0f8H
	DB	0ffH
	DB	0f8H
	DB	0fcH
	DB	0f0H
	DB	0ffH
	DB	0f8H
	DB	0f8H
	DB	0f8H
	DB	0ffH
	DB	0f8H
	DB	0f8H
	DB	0f8H
	DB	0ffH
	DB	0f8H
	DB	0f8H
	DB	0f0H
	DB	0ffH
	DB	0f8H
	DB	0f8H
	DB	0f8H
	DB	0ffH
	DB	0f8H
	DB	0f8H
	DB	0f8H
	DB	0ffH
	DB	0f8H
	DB	0f8H
	DB	0f0H
	DB	0ffH
	DB	0f8H
	DB	0f8H
	DB	0f8H
	DB	0ffH
	DB	0f8H
	DB	0f8H
	DB	0f8H
	DB	0ffH
	DB	0f8H
	DB	0fcH
	DB	0f0H
	DB	0ffH
	DB	0f8H
	DB	0f8H
	DB	0f8H
	DB	0ffH
	DB	0f8H
	DB	0f8H
	DB	0f8H
	DB	0ffH
	DB	0f8H
	DB	0fcH
	DB	0f0H
	DB	0ffH
	DB	0f8H
	DB	0f8H
	DB	0f8H
	DB	0ffH
	DB	0f8H
	DB	0f8H
	DB	0f8H
	DB	0ffH
	DB	0f8H
	DB	0f8H
	DB	0f0H
	DB	0ffH
	DB	0f8H
	DB	0f8H
	DB	0f8H
	DB	0ffH
	DB	0f8H
	DB	0f8H
	DB	0f8H
	DB	0ffH
	DB	0f8H
	DB	0f8H
	DB	0f0H
	DB	0ffH
	DB	0f8H
	DB	0f8H
	DB	0f8H
	DB	0ffH
	DB	0f8H
	DB	0f8H
	DB	0f8H
	DB	0ffH
	DB	0f8H
	DB	0fcH
	DB	0f0H
	DB	0ffH
	DB	0f8H
	DB	0f8H
	DB	0f8H
	DB	0ffH
	DB	0f8H
	DB	0f8H
	DB	0f8H
	DB	0ffH
	DB	0f8H
	DB	0fcH
	DB	0f0H
	DB	0ffH
	DB	0f8H
	DB	0f8H
	DB	0f8H
	DB	0ffH
	DB	0f8H
	DB	0f8H
	DB	0f8H
	DB	0ffH
	DB	0f8H
	DB	0f8H
	DB	0f0H
	DB	0ffH
	DB	0f8H
	DB	0f8H
	DB	0f8H
	DB	0ffH
	DB	0f8H
	DB	0f8H
	DB	0f8H
	DB	0ffH
	DB	0f8H
	DB	0f8H
	DB	0f0H
	DB	0ffH
	DB	0f8H
	DB	0f8H
	DB	0f8H
	DB	0ffH
	DB	0f8H
	DB	0f8H
	DB	0f8H
	DB	0ffH
	DB	0f8H
	DB	0fcH
	DB	0f0H
	DB	0ffH
	DB	0f8H
	DB	0f8H
	DB	0f8H
	DB	0ffH
	DB	0f8H
	DB	0f8H
	DB	0f8H
	DB	0ffH
	DB	0f8H
	DB	0fcH
	DB	0f0H
	DB	0ffH
	DB	0f8H
	DB	0f8H
	DB	0f8H
	DB	0ffH
	DB	0f8H
	DB	0f8H
	DB	0f8H
	DB	0ffH
	DB	0f8H
	DB	0f8H
	DB	0f0H
	DB	0ffH
	DB	0f8H
	DB	0f8H
	DB	0f8H
	DB	0ffH
	DB	0f8H
	DB	0f8H
	DB	0f8H
	DB	0ffH
	DB	0f8H
	DB	0f8H
	DB	0f0H
	DB	0ffH
	DB	0f8H
	DB	0f8H
	DB	0f8H
	DB	0ffH
	DB	0f8H
	DB	0f8H
	DB	0f8H
	DB	0ffH
	DB	0f8H
	DB	0fcH
	DB	0f0H
	DB	0ffH
	DB	0f8H
	DB	0f8H
	DB	0f8H
	DB	0ffH
	DB	0f8H
	DB	0f8H
	DB	0f8H
	DB	0ffH
	DB	0f8H
	DB	0fcH
	DB	0f0H
	DB	0ffH
	DB	0f8H
	DB	0f8H
	DB	0f8H
	DB	0ffH
	DB	0f8H
	DB	0f8H
	DB	0f8H
	DB	0ffH
	DB	0f8H
	DB	0f8H
	DB	0f0H
	DB	0ffH
	DB	0f8H
	DB	0f8H
	DB	0f8H
	DB	0ffH
	DB	0f8H
	DB	0f8H
	DB	0f8H
	DB	0ffH
	DB	0f8H
	DB	0f8H
	DB	0f0H
	DB	0ffH
	DB	0f8H
	DB	0f8H
	DB	0f8H
	DB	0ffH
	DB	0f8H
	DB	0f8H
	DB	0f8H
	DB	0ffH
	DB	0f8H
	DB	0fcH
	DB	0f0H
	DB	0ffH
	DB	0f8H
	DB	0f8H
	DB	0f8H
	DB	0ffH
	DB	0f8H
	DB	0f8H
	DB	0f8H
	DB	0ffH
	DB	0f8H
	DB	0fcH
	DB	0f0H
	DB	0ffH
	DB	0f8H
	DB	0f8H
	DB	0f8H
	DB	0ffH
	DB	0f8H
	DB	0f8H
	DB	0f8H
	DB	0ffH
	DB	0f8H
	DB	0f8H
	DB	0f0H
	DB	0ffH
	DB	0f8H
	DB	0f8H
	DB	0f8H
	DB	0ffH
	DB	0f8H
	DB	0f8H
	DB	0f8H
	DB	0ffH
	DB	0f8H
	DB	0f8H
	DB	0f0H
	DB	0ffH
	DB	0f8H
	DB	0f8H
	DB	0f8H
	DB	0ffH
	DB	0f8H
	DB	0f8H
	DB	0f8H
	DB	0ffH
	DB	0f8H
	DB	0fcH
	DB	0f0H
	DB	0ffH
	DB	0f8H
	DB	0f8H
	DB	0f8H
	DB	0ffH
	DB	0f8H
	DB	0f8H
	DB	0f8H
	DB	0ffH
	DB	0f8H
	DB	0fcH
	DB	0f0H
	DB	0ffH
	DB	0f8H
	DB	0f8H
	DB	0f8H
	DB	0ffH
	DB	0f8H
	DB	0f8H
	DB	0f8H
	DB	0ffH
	DB	0f8H
	DB	0f8H
	DB	0f0H
	DB	0ffH
	DB	0f8H
	DB	0f8H
	DB	0f8H
	DB	0ffH
	DB	0f8H
	DB	0f8H
	DB	0f8H
	DB	0ffH
	DB	0f8H
	DB	0f8H
	DB	0f0H
	DB	0ffH
	DB	0f8H
	DB	0f8H
	DB	0f8H
	DB	0ffH
	DB	0f8H
	DB	0f8H
	DB	0f8H
	DB	0ffH
	DB	0f8H
	DB	0fcH
	DB	0f0H
	DB	0ffH
	DB	0f8H
	DB	0f8H
	DB	0f8H
	DB	0ffH
	DB	0f8H
	DB	0f8H
	DB	0f8H
	DB	0ffH
	DB	0f8H
	DB	0fcH
	DB	0f0H
	DB	0ffH
	DB	0f8H
	DB	0f8H
	DB	0f8H
	DB	0ffH
	DB	0f8H
	DB	0f8H
	DB	0f8H
	DB	0ffH
	DB	0f8H
	DB	0f8H
	DB	0f0H
	DB	0ffH
	DB	0f8H
	DB	0f8H
	DB	0f8H
	DB	0ffH
	DB	0f8H
	DB	0f8H
	DB	0f8H
	DB	0ffH
	DB	0f8H
	DB	0f8H
	DB	0f0H
	DB	0ffH
	DB	0f8H
	DB	0f8H
	DB	0f8H
	DB	0ffH
	DB	0f8H
	DB	0f8H
	DB	0f8H
	DB	0ffH
	DB	0f8H
	DB	0fcH
	DB	0f0H
	DB	0ffH
	DB	0f8H
	DB	0f8H
	DB	0f8H
	DB	0ffH
	DB	0f8H
	DB	0f8H
	DB	0f8H
	DB	0ffH
	DB	0f8H
	DB	0fcH
	DB	0f0H
	DB	0ffH
	DB	0f8H
	DB	0f8H
	DB	0f8H
	DB	0ffH
	DB	0f8H
	DB	0f8H
	DB	0f8H
	DB	0ffH
	DB	0f8H
	DB	0f8H
	DB	0f0H
	DB	0ffH
	DB	0f8H
	DB	0f8H
	DB	0f8H
	DB	0ffH
	DB	0f8H
	DB	0f8H
	DB	0f8H
	DB	0ffH
	DB	0f8H
	DB	0f8H
	DB	0f0H
	DB	0ffH
	DB	0f8H
	DB	0f8H
	DB	0f8H
	DB	0ffH
	DB	0f8H
	DB	0f8H
	DB	0f8H
	DB	0ffH
	DB	0f8H
	DB	0fcH
	DB	0f0H
	DB	0ffH
	DB	0f8H
	DB	0f8H
	DB	0f8H
	DB	0ffH
	DB	0f8H
	DB	0f8H
	DB	0f8H
	DB	0ffH
	DB	0f8H
	DB	0fcH
	DB	0f0H
	DB	0ffH
	DB	0f8H
	DB	0f8H
	DB	0f8H
	DB	0ffH
	DB	0f8H
	DB	0f8H
	DB	0f8H
	DB	0ffH
	DB	0f8H
	DB	0f8H
	DB	0f0H
	DB	0ffH
	DB	0f8H
	DB	0f8H
	DB	0f8H
	DB	0ffH
	DB	0f8H
	DB	0f8H
	DB	0f8H
	DB	0ffH
	DB	0f8H
	DB	0f8H
	DB	0f0H
	DB	0ffH
	DB	0f8H
	DB	0f8H
	DB	0f8H
	DB	0ffH
	DB	0f8H
	DB	0f8H
	DB	0f8H
	DB	0ffH
	DB	0f8H
	DB	0fcH
	DB	0f0H
	DB	0ffH
	DB	0f8H
	DB	0f8H
	DB	0f8H
	DB	0ffH
	DB	0f8H
	DB	0f8H
	DB	0f8H
	DB	0ffH
	DB	0f8H
	DB	0fcH
	DB	0f0H
	DB	0ffH
	DB	0f8H
	DB	0f8H
	DB	0f8H
	DB	0ffH
	DB	0f8H
	DB	0f8H
	DB	0f8H
	DB	0ffH
	DB	0f8H
	DB	0f8H
	DB	0f0H
	DB	0ffH
	DB	0f8H
	DB	0f8H
	DB	0f8H
	DB	0ffH
	DB	0f8H
	DB	0f8H
	DB	0f8H
	DB	0ffH
	DB	0f8H
	DB	0f8H
	DB	0f0H
	DB	0ffH
	DB	0f8H
	DB	0f8H
	DB	0f8H
	DB	0ffH
	DB	0f8H
	DB	0f8H
	DB	0f8H
	DB	0ffH
	DB	0f8H
	DB	0fcH
	DB	0f0H
	DB	0ffH
	DB	0f8H
	DB	0f8H
	DB	0f8H
	DB	0ffH
	DB	0f8H
	DB	0f8H
	DB	0f8H
	DB	0ffH
	DB	0f8H
	DB	0fcH
	DB	0f0H
	DB	0ffH
	DB	0f8H
	DB	0f8H
	DB	0f8H
	DB	0ffH
	DB	0f8H
	DB	0f8H
	DB	0f8H
	DB	0ffH
	DB	0f8H
	DB	0f8H
	DB	0f0H
	DB	0ffH
	DB	0f8H
	DB	0f8H
	DB	0f8H
	DB	0ffH
	DB	0f8H
	DB	0f8H
	DB	0f8H
	DB	0ffH
	DB	0f8H
	DB	0f8H
	DB	0f0H
	DB	0ffH
	DB	0f8H
	DB	0f8H
	DB	0f8H
	DB	0ffH
	DB	0f8H
	DB	0f8H
	DB	0f8H
	DB	0ffH
	DB	0f8H
	DB	0fcH
	DB	0f0H
	DB	0ffH
	DB	0f8H
	DB	0f8H
	DB	0f8H
	DB	0ffH
	DB	0f8H
	DB	0f8H
	DB	0f8H
	DB	0ffH
	DB	0f8H
	DB	0fcH
	DB	0f0H
	DB	0ffH
	DB	0f8H
	DB	0f8H
	DB	0f8H
	DB	0ffH
	DB	0f8H
	DB	0f8H
	DB	0f8H
	DB	0ffH
	DB	0f8H
	DB	0f8H
	DB	0f0H
	DB	0ffH
	DB	0f8H
	DB	0f8H
	DB	0f8H
	DB	0ffH
	DB	0f8H
	DB	0f8H
	DB	0f8H
	DB	0ffH
	DB	0f8H
	DB	0f8H
	DB	0f0H
	DB	0ffH
	DB	0f8H
	DB	0f8H
	DB	0f8H
	DB	0ffH
	DB	0f8H
	DB	0f8H
	DB	0f8H
	DB	0ffH
	DB	0f8H
	DB	0fcH
	DB	0f0H
	DB	0ffH
	DB	0f8H
	DB	0f8H
	DB	0f8H
	DB	0ffH
	DB	0f8H
	DB	0f8H
	DB	0f8H
	DB	0ffH
	DB	0f8H
	DB	0fcH
	DB	0f0H
	DB	0ffH
	DB	0f8H
	DB	0f8H
	DB	0f8H
	DB	0ffH
	DB	0f8H
	DB	0f8H
	DB	0f8H
	DB	0ffH
	DB	0f8H
	DB	0f8H
	DB	0f0H
	DB	0ffH
	DB	0f8H
	DB	0f8H
	DB	0f8H
	DB	0ffH
	DB	0f8H
	DB	0f8H
	DB	0f8H
	DB	0ffH
	DB	0f8H
	DB	0f8H
	DB	0f0H
	DB	0ffH
	DB	0f8H
	DB	0f8H
	DB	0f8H
	DB	0ffH
	DB	0f8H
	DB	0f8H
	DB	0f8H
	DB	0ffH
	DB	0d8H
	DB	0d4H
	DB	0c8H
	DB	0ffH
	DB	058H
	DB	038H
	DB	08H
	DB	0ffH
	DB	058H
	DB	034H
	DB	00H
	DB	0fbH
	DB	058H
	DB	034H
	DB	00H
	DB	051H
	DB	058H
	DB	030H
	DB	00H
	DB	024H
	DB	050H
	DB	034H
	DB	00H
	DB	018H
	DB	058H
	DB	034H
	DB	00H
	DB	010H
	DB	050H
	DB	034H
	DB	00H
	DB	08H
	DB	058H
	DB	034H
	DB	00H
	DB	04H
	DB	058H
	DB	034H
	DB	00H
	DB	04H
	DB	050H
	DB	034H
	DB	00H
	DB	00H
	DB	058H
	DB	030H
	DB	00H
	DB	00H
	DB	050H
	DB	034H
	DB	00H
	DB	00H
	DB	0f8H
	DB	0fcH
	DB	0f8H
	DB	00H
	DB	0f8H
	DB	0fcH
	DB	0f8H
	DB	00H
	DB	0f8H
	DB	0fcH
	DB	0f8H
	DB	00H
	DB	050H
	DB	030H
	DB	00H
	DB	00H
	DB	058H
	DB	034H
	DB	00H
	DB	00H
	DB	058H
	DB	034H
	DB	00H
	DB	04H
	DB	050H
	DB	034H
	DB	00H
	DB	08H
	DB	058H
	DB	030H
	DB	00H
	DB	0cH
	DB	058H
	DB	034H
	DB	00H
	DB	014H
	DB	050H
	DB	034H
	DB	00H
	DB	01cH
	DB	058H
	DB	030H
	DB	00H
	DB	024H
	DB	058H
	DB	034H
	DB	00H
	DB	0a6H
	DB	050H
	DB	034H
	DB	00H
	DB	0ffH
	DB	098H
	DB	080H
	DB	060H
	DB	0ffH
	DB	0f0H
	DB	0e8H
	DB	0d8H
	DB	0ffH
	DB	0f0H
	DB	0e8H
	DB	0d8H
	DB	0ffH
	DB	0f0H
	DB	0e8H
	DB	0e0H
	DB	0ffH
	DB	0f0H
	DB	0e8H
	DB	0d8H
	DB	0ffH
	DB	0f0H
	DB	0e8H
	DB	0d8H
	DB	0ffH
	DB	0f0H
	DB	0e8H
	DB	0e0H
	DB	0ffH
	DB	0f0H
	DB	0e8H
	DB	0d8H
	DB	0ffH
	DB	0f0H
	DB	0e8H
	DB	0d8H
	DB	0ffH
	DB	0f0H
	DB	0e8H
	DB	0d8H
	DB	0ffH
	DB	0f0H
	DB	0e8H
	DB	0e0H
	DB	0ffH
	DB	0f0H
	DB	0e8H
	DB	0d8H
	DB	0ffH
	DB	0f0H
	DB	0e8H
	DB	0d8H
	DB	0ffH
	DB	0f0H
	DB	0e8H
	DB	0e0H
	DB	0ffH
	DB	0f0H
	DB	0e8H
	DB	0d8H
	DB	0ffH
	DB	0f0H
	DB	0e8H
	DB	0d8H
	DB	0ffH
	DB	0f0H
	DB	0e8H
	DB	0e0H
	DB	0ffH
	DB	0f0H
	DB	0e8H
	DB	0d8H
	DB	0ffH
	DB	0f0H
	DB	0e8H
	DB	0d8H
	DB	0ffH
	DB	0f0H
	DB	0e8H
	DB	0e0H
	DB	0ffH
	DB	0f0H
	DB	0e8H
	DB	0d8H
	DB	0ffH
	DB	0f0H
	DB	0e8H
	DB	0d8H
	DB	0ffH
	DB	0f0H
	DB	0e8H
	DB	0e0H
	DB	0ffH
	DB	0f0H
	DB	0e8H
	DB	0d8H
	DB	0ffH
	DB	0f0H
	DB	0e8H
	DB	0d8H
	DB	0ffH
	DB	0f0H
	DB	0e8H
	DB	0e0H
	DB	0ffH
	DB	0f0H
	DB	0e8H
	DB	0d8H
	DB	0ffH
	DB	0f0H
	DB	0e8H
	DB	0d8H
	DB	0ffH
	DB	0f0H
	DB	0e8H
	DB	0e0H
	DB	0ffH
	DB	0f0H
	DB	0e8H
	DB	0d8H
	DB	0ffH
	DB	0f0H
	DB	0e8H
	DB	0d8H
	DB	0ffH
	DB	0f0H
	DB	0e8H
	DB	0e0H
	DB	0ffH
	DB	0f0H
	DB	0e8H
	DB	0d8H
	DB	0ffH
	DB	0f0H
	DB	0e8H
	DB	0d8H
	DB	0ffH
	DB	0f0H
	DB	0e8H
	DB	0e0H
	DB	0ffH
	DB	0f0H
	DB	0e8H
	DB	0d8H
	DB	0ffH
	DB	0f0H
	DB	0e8H
	DB	0d8H
	DB	0ffH
	DB	0f0H
	DB	0e8H
	DB	0e0H
	DB	0ffH
	DB	0f0H
	DB	0e8H
	DB	0d8H
	DB	0ffH
	DB	0f0H
	DB	0e8H
	DB	0d8H
	DB	0ffH
	DB	0f0H
	DB	0e8H
	DB	0e0H
	DB	0ffH
	DB	0f0H
	DB	0e8H
	DB	0d8H
	DB	0ffH
	DB	0f0H
	DB	0e8H
	DB	0d8H
	DB	0ffH
	DB	0f0H
	DB	0e8H
	DB	0e0H
	DB	0ffH
	DB	0f0H
	DB	0e8H
	DB	0d8H
	DB	0ffH
	DB	0f0H
	DB	0e8H
	DB	0d8H
	DB	0ffH
	DB	0f0H
	DB	0e8H
	DB	0e0H
	DB	0ffH
	DB	0f0H
	DB	0e8H
	DB	0d8H
	DB	0ffH
	DB	0f0H
	DB	0e8H
	DB	0d8H
	DB	0ffH
	DB	0f0H
	DB	0e8H
	DB	0e0H
	DB	0ffH
	DB	0f0H
	DB	0e8H
	DB	0d8H
	DB	0ffH
	DB	0f0H
	DB	0e8H
	DB	0d8H
	DB	0ffH
	DB	0f0H
	DB	0e8H
	DB	0e0H
	DB	0ffH
	DB	0f0H
	DB	0e8H
	DB	0d8H
	DB	0ffH
	DB	0f0H
	DB	0e8H
	DB	0d8H
	DB	0ffH
	DB	0f0H
	DB	0e8H
	DB	0e0H
	DB	0ffH
	DB	0f0H
	DB	0e8H
	DB	0d8H
	DB	0ffH
	DB	0f0H
	DB	0e8H
	DB	0d8H
	DB	0ffH
	DB	0f0H
	DB	0e8H
	DB	0e0H
	DB	0ffH
	DB	0f0H
	DB	0e8H
	DB	0d8H
	DB	0ffH
	DB	0f0H
	DB	0e8H
	DB	0d8H
	DB	0ffH
	DB	0f0H
	DB	0e8H
	DB	0e0H
	DB	0ffH
	DB	0f0H
	DB	0e8H
	DB	0d8H
	DB	0ffH
	DB	0f0H
	DB	0e8H
	DB	0d8H
	DB	0ffH
	DB	0f0H
	DB	0e8H
	DB	0e0H
	DB	0ffH
	DB	0f0H
	DB	0e8H
	DB	0d8H
	DB	0ffH
	DB	0f0H
	DB	0e8H
	DB	0d8H
	DB	0ffH
	DB	0f0H
	DB	0e8H
	DB	0e0H
	DB	0ffH
	DB	0f0H
	DB	0e8H
	DB	0d8H
	DB	0ffH
	DB	0f0H
	DB	0e8H
	DB	0d8H
	DB	0ffH
	DB	0f0H
	DB	0e8H
	DB	0e0H
	DB	0ffH
	DB	0f0H
	DB	0e8H
	DB	0d8H
	DB	0ffH
	DB	0f0H
	DB	0e8H
	DB	0d8H
	DB	0ffH
	DB	0f0H
	DB	0e8H
	DB	0e0H
	DB	0ffH
	DB	0f0H
	DB	0e8H
	DB	0d8H
	DB	0ffH
	DB	0f0H
	DB	0e8H
	DB	0d8H
	DB	0ffH
	DB	0f0H
	DB	0e8H
	DB	0e0H
	DB	0ffH
	DB	0f0H
	DB	0e8H
	DB	0d8H
	DB	0ffH
	DB	0f0H
	DB	0e8H
	DB	0d8H
	DB	0ffH
	DB	0f0H
	DB	0e8H
	DB	0e0H
	DB	0ffH
	DB	0f0H
	DB	0e8H
	DB	0d8H
	DB	0ffH
	DB	0f0H
	DB	0e8H
	DB	0d8H
	DB	0ffH
	DB	0f0H
	DB	0e8H
	DB	0e0H
	DB	0ffH
	DB	0f0H
	DB	0e8H
	DB	0d8H
	DB	0ffH
	DB	0f0H
	DB	0e8H
	DB	0d8H
	DB	0ffH
	DB	0f0H
	DB	0e8H
	DB	0e0H
	DB	0ffH
	DB	0f0H
	DB	0e8H
	DB	0d8H
	DB	0ffH
	DB	0f0H
	DB	0e8H
	DB	0e0H
	DB	0ffH
	DB	058H
	DB	034H
	DB	00H
	DB	0ffH
	DB	050H
	DB	030H
	DB	00H
	DB	0ffH
	DB	0d8H
	DB	0d4H
	DB	0c8H
	DB	0ffH
	DB	0e8H
	DB	0dcH
	DB	0d0H
	DB	0ffH
	DB	0e8H
	DB	0e4H
	DB	0e0H
	DB	0ffH
	DB	0f0H
	DB	0ecH
	DB	0e8H
	DB	0ffH
	DB	0f8H
	DB	0f0H
	DB	0e8H
	DB	0ffH
	DB	0f8H
	DB	0f4H
	DB	0f0H
	DB	0ffH
	DB	0f8H
	DB	0f8H
	DB	0f8H
	DB	0ffH
	DB	0f8H
	DB	0f8H
	DB	0f8H
	DB	0ffH
	DB	0f8H
	DB	0fcH
	DB	0f8H
	DB	0ffH
	DB	0f8H
	DB	0f8H
	DB	0f8H
	DB	0ffH
	DB	0f8H
	DB	0f8H
	DB	0f8H
	DB	0ffH
	DB	0f8H
	DB	0fcH
	DB	0f8H
	DB	0ffH
	DB	0f8H
	DB	0f8H
	DB	0f8H
	DB	0ffH
	DB	0f8H
	DB	0f8H
	DB	0f8H
	DB	0ffH
	DB	0f8H
	DB	0fcH
	DB	0f8H
	DB	0ffH
	DB	0f8H
	DB	0f8H
	DB	0f8H
	DB	0ffH
	DB	0f8H
	DB	0f8H
	DB	0f8H
	DB	0ffH
	DB	0f8H
	DB	0fcH
	DB	0f8H
	DB	0ffH
	DB	0f8H
	DB	0fcH
	DB	0f8H
	DB	0ffH
	DB	0f8H
	DB	0f8H
	DB	0f8H
	DB	0ffH
	DB	0f8H
	DB	0fcH
	DB	0f8H
	DB	0ffH
	DB	0f8H
	DB	0f8H
	DB	0f8H
	DB	0ffH
	DB	0f8H
	DB	0f8H
	DB	0f8H
	DB	0ffH
	DB	0f8H
	DB	0fcH
	DB	0f8H
	DB	0ffH
	DB	0f8H
	DB	0f8H
	DB	0f8H
	DB	0ffH
	DB	0f8H
	DB	0f8H
	DB	0f8H
	DB	0ffH
	DB	0f8H
	DB	0fcH
	DB	0f8H
	DB	0ffH
	DB	0f8H
	DB	0f8H
	DB	0f8H
	DB	0ffH
	DB	0f8H
	DB	0f8H
	DB	0f8H
	DB	0ffH
	DB	0f8H
	DB	0fcH
	DB	0f8H
	DB	0ffH
	DB	0f8H
	DB	0fcH
	DB	0f8H
	DB	0ffH
	DB	0f8H
	DB	0f8H
	DB	0f8H
	DB	0ffH
	DB	0f8H
	DB	0fcH
	DB	0f8H
	DB	0ffH
	DB	0f8H
	DB	0f8H
	DB	0f8H
	DB	0ffH
	DB	0f8H
	DB	0f8H
	DB	0f8H
	DB	0ffH
	DB	0f8H
	DB	0fcH
	DB	0f8H
	DB	0ffH
	DB	0f8H
	DB	0f8H
	DB	0f8H
	DB	0ffH
	DB	0f8H
	DB	0f8H
	DB	0f8H
	DB	0ffH
	DB	0f8H
	DB	0fcH
	DB	0f8H
	DB	0ffH
	DB	0f8H
	DB	0f8H
	DB	0f8H
	DB	0ffH
	DB	0f8H
	DB	0f8H
	DB	0f8H
	DB	0ffH
	DB	0f8H
	DB	0fcH
	DB	0f8H
	DB	0ffH
	DB	0f8H
	DB	0fcH
	DB	0f8H
	DB	0ffH
	DB	0f8H
	DB	0f8H
	DB	0f8H
	DB	0ffH
	DB	0f8H
	DB	0fcH
	DB	0f8H
	DB	0ffH
	DB	0f8H
	DB	0f8H
	DB	0f8H
	DB	0ffH
	DB	0f8H
	DB	0f8H
	DB	0f8H
	DB	0ffH
	DB	0f8H
	DB	0fcH
	DB	0f8H
	DB	0ffH
	DB	0f8H
	DB	0f8H
	DB	0f8H
	DB	0ffH
	DB	0f8H
	DB	0f8H
	DB	0f8H
	DB	0ffH
	DB	0f8H
	DB	0fcH
	DB	0f8H
	DB	0ffH
	DB	0f8H
	DB	0f8H
	DB	0f8H
	DB	0ffH
	DB	0f8H
	DB	0f8H
	DB	0f8H
	DB	0ffH
	DB	0f8H
	DB	0fcH
	DB	0f8H
	DB	0ffH
	DB	0f8H
	DB	0fcH
	DB	0f8H
	DB	0ffH
	DB	0f8H
	DB	0f8H
	DB	0f8H
	DB	0ffH
	DB	0f8H
	DB	0fcH
	DB	0f8H
	DB	0ffH
	DB	0f8H
	DB	0f8H
	DB	0f8H
	DB	0ffH
	DB	0f8H
	DB	0f8H
	DB	0f8H
	DB	0ffH
	DB	0f8H
	DB	0fcH
	DB	0f8H
	DB	0ffH
	DB	0f8H
	DB	0f8H
	DB	0f8H
	DB	0ffH
	DB	0f8H
	DB	0f8H
	DB	0f8H
	DB	0ffH
	DB	0f8H
	DB	0fcH
	DB	0f8H
	DB	0ffH
	DB	0f8H
	DB	0f8H
	DB	0f8H
	DB	0ffH
	DB	0f8H
	DB	0f8H
	DB	0f8H
	DB	0ffH
	DB	0f8H
	DB	0fcH
	DB	0f8H
	DB	0ffH
	DB	0f8H
	DB	0fcH
	DB	0f8H
	DB	0ffH
	DB	0f8H
	DB	0f8H
	DB	0f8H
	DB	0ffH
	DB	0f8H
	DB	0fcH
	DB	0f8H
	DB	0ffH
	DB	0f8H
	DB	0f8H
	DB	0f8H
	DB	0ffH
	DB	0f8H
	DB	0f8H
	DB	0f8H
	DB	0ffH
	DB	0f8H
	DB	0fcH
	DB	0f8H
	DB	0ffH
	DB	0f8H
	DB	0f8H
	DB	0f8H
	DB	0ffH
	DB	0f8H
	DB	0f8H
	DB	0f8H
	DB	0ffH
	DB	0f8H
	DB	0fcH
	DB	0f8H
	DB	0ffH
	DB	0f8H
	DB	0f8H
	DB	0f8H
	DB	0ffH
	DB	0f8H
	DB	0f8H
	DB	0f8H
	DB	0ffH
	DB	0f8H
	DB	0fcH
	DB	0f8H
	DB	0ffH
	DB	0f8H
	DB	0fcH
	DB	0f8H
	DB	0ffH
	DB	0f8H
	DB	0f8H
	DB	0f8H
	DB	0ffH
	DB	0f8H
	DB	0fcH
	DB	0f8H
	DB	0ffH
	DB	0f8H
	DB	0f8H
	DB	0f8H
	DB	0ffH
	DB	0f8H
	DB	0f8H
	DB	0f8H
	DB	0ffH
	DB	0f8H
	DB	0fcH
	DB	0f8H
	DB	0ffH
	DB	0f8H
	DB	0f8H
	DB	0f8H
	DB	0ffH
	DB	0f8H
	DB	0f8H
	DB	0f8H
	DB	0ffH
	DB	0f8H
	DB	0fcH
	DB	0f8H
	DB	0ffH
	DB	0f8H
	DB	0f8H
	DB	0f8H
	DB	0ffH
	DB	0f8H
	DB	0f8H
	DB	0f8H
	DB	0ffH
	DB	0f8H
	DB	0fcH
	DB	0f8H
	DB	0ffH
	DB	0f8H
	DB	0fcH
	DB	0f8H
	DB	0ffH
	DB	0f8H
	DB	0f8H
	DB	0f8H
	DB	0ffH
	DB	0f8H
	DB	0fcH
	DB	0f8H
	DB	0ffH
	DB	0f8H
	DB	0f8H
	DB	0f8H
	DB	0ffH
	DB	0f8H
	DB	0f8H
	DB	0f8H
	DB	0ffH
	DB	0f8H
	DB	0fcH
	DB	0f8H
	DB	0ffH
	DB	0f8H
	DB	0f8H
	DB	0f8H
	DB	0ffH
	DB	0f8H
	DB	0f8H
	DB	0f8H
	DB	0ffH
	DB	0f8H
	DB	0fcH
	DB	0f8H
	DB	0ffH
	DB	0f8H
	DB	0f8H
	DB	0f8H
	DB	0ffH
	DB	0f8H
	DB	0f8H
	DB	0f8H
	DB	0ffH
	DB	0f8H
	DB	0fcH
	DB	0f8H
	DB	0ffH
	DB	0f8H
	DB	0fcH
	DB	0f8H
	DB	0ffH
	DB	0f8H
	DB	0f8H
	DB	0f8H
	DB	0ffH
	DB	0f8H
	DB	0fcH
	DB	0f8H
	DB	0ffH
	DB	0f8H
	DB	0f8H
	DB	0f8H
	DB	0ffH
	DB	0f8H
	DB	0f8H
	DB	0f8H
	DB	0ffH
	DB	0f8H
	DB	0fcH
	DB	0f8H
	DB	0ffH
	DB	0f8H
	DB	0f8H
	DB	0f8H
	DB	0ffH
	DB	0f8H
	DB	0f8H
	DB	0f8H
	DB	0ffH
	DB	0f8H
	DB	0fcH
	DB	0f8H
	DB	0ffH
	DB	0f8H
	DB	0f8H
	DB	0f8H
	DB	0ffH
	DB	0f8H
	DB	0f8H
	DB	0f8H
	DB	0ffH
	DB	0f8H
	DB	0fcH
	DB	0f8H
	DB	0ffH
	DB	0f8H
	DB	0fcH
	DB	0f8H
	DB	0ffH
	DB	0f8H
	DB	0f8H
	DB	0f8H
	DB	0ffH
	DB	0f8H
	DB	0fcH
	DB	0f8H
	DB	0ffH
	DB	0f8H
	DB	0f8H
	DB	0f8H
	DB	0ffH
	DB	0f8H
	DB	0f8H
	DB	0f8H
	DB	0ffH
	DB	0f8H
	DB	0fcH
	DB	0f8H
	DB	0ffH
	DB	0f8H
	DB	0f8H
	DB	0f8H
	DB	0ffH
	DB	0f8H
	DB	0f8H
	DB	0f8H
	DB	0ffH
	DB	0f8H
	DB	0fcH
	DB	0f8H
	DB	0ffH
	DB	0f8H
	DB	0f8H
	DB	0f8H
	DB	0ffH
	DB	0f8H
	DB	0f8H
	DB	0f8H
	DB	0ffH
	DB	0f8H
	DB	0fcH
	DB	0f8H
	DB	0ffH
	DB	0f8H
	DB	0fcH
	DB	0f8H
	DB	0ffH
	DB	0f8H
	DB	0f8H
	DB	0f8H
	DB	0ffH
	DB	0f8H
	DB	0fcH
	DB	0f8H
	DB	0ffH
	DB	0f8H
	DB	0f8H
	DB	0f8H
	DB	0ffH
	DB	0f8H
	DB	0f8H
	DB	0f8H
	DB	0ffH
	DB	0f8H
	DB	0fcH
	DB	0f8H
	DB	0ffH
	DB	0f8H
	DB	0f8H
	DB	0f8H
	DB	0ffH
	DB	0f8H
	DB	0f8H
	DB	0f8H
	DB	0ffH
	DB	0f8H
	DB	0fcH
	DB	0f8H
	DB	0ffH
	DB	0f8H
	DB	0f8H
	DB	0f8H
	DB	0ffH
	DB	0f8H
	DB	0f8H
	DB	0f8H
	DB	0ffH
	DB	0f8H
	DB	0fcH
	DB	0f8H
	DB	0ffH
	DB	0f8H
	DB	0fcH
	DB	0f8H
	DB	0ffH
	DB	0f8H
	DB	0f8H
	DB	0f8H
	DB	0ffH
	DB	0f8H
	DB	0fcH
	DB	0f8H
	DB	0ffH
	DB	0f8H
	DB	0f8H
	DB	0f8H
	DB	0ffH
	DB	0f8H
	DB	0f8H
	DB	0f8H
	DB	0ffH
	DB	0f8H
	DB	0fcH
	DB	0f8H
	DB	0ffH
	DB	0f8H
	DB	0f8H
	DB	0f8H
	DB	0ffH
	DB	0f8H
	DB	0f8H
	DB	0f8H
	DB	0ffH
	DB	0f8H
	DB	0fcH
	DB	0f8H
	DB	0ffH
	DB	0f8H
	DB	0f8H
	DB	0f8H
	DB	0ffH
	DB	0f8H
	DB	0f8H
	DB	0f8H
	DB	0ffH
	DB	0f8H
	DB	0fcH
	DB	0f8H
	DB	0ffH
	DB	0f8H
	DB	0fcH
	DB	0f8H
	DB	0ffH
	DB	0f8H
	DB	0f8H
	DB	0f8H
	DB	0ffH
	DB	0f8H
	DB	0fcH
	DB	0f8H
	DB	0ffH
	DB	0f8H
	DB	0f8H
	DB	0f8H
	DB	0ffH
	DB	0f8H
	DB	0f8H
	DB	0f8H
	DB	0ffH
	DB	0f8H
	DB	0fcH
	DB	0f8H
	DB	0ffH
	DB	0f8H
	DB	0f8H
	DB	0f8H
	DB	0ffH
	DB	0f8H
	DB	0f8H
	DB	0f8H
	DB	0ffH
	DB	0f8H
	DB	0fcH
	DB	0f8H
	DB	0ffH
	DB	0f8H
	DB	0f8H
	DB	0f8H
	DB	0ffH
	DB	0f8H
	DB	0f8H
	DB	0f8H
	DB	0ffH
	DB	0f8H
	DB	0fcH
	DB	0f8H
	DB	0ffH
	DB	0f8H
	DB	0fcH
	DB	0f8H
	DB	0ffH
	DB	0f8H
	DB	0f8H
	DB	0f8H
	DB	0ffH
	DB	0f8H
	DB	0fcH
	DB	0f8H
	DB	0ffH
	DB	0f8H
	DB	0f8H
	DB	0f8H
	DB	0ffH
	DB	0f8H
	DB	0f8H
	DB	0f8H
	DB	0ffH
	DB	0f8H
	DB	0fcH
	DB	0f8H
	DB	0ffH
	DB	0f8H
	DB	0f8H
	DB	0f8H
	DB	0ffH
	DB	0f8H
	DB	0f8H
	DB	0f8H
	DB	0ffH
	DB	0f8H
	DB	0fcH
	DB	0f8H
	DB	0ffH
	DB	0f8H
	DB	0f8H
	DB	0f8H
	DB	0ffH
	DB	0f8H
	DB	0f8H
	DB	0f8H
	DB	0ffH
	DB	0f8H
	DB	0fcH
	DB	0f8H
	DB	0ffH
	DB	0f8H
	DB	0fcH
	DB	0f8H
	DB	0ffH
	DB	0f8H
	DB	0f8H
	DB	0f8H
	DB	0ffH
	DB	0f8H
	DB	0fcH
	DB	0f8H
	DB	0ffH
	DB	0f8H
	DB	0f8H
	DB	0f8H
	DB	0ffH
	DB	0f8H
	DB	0f8H
	DB	0f8H
	DB	0ffH
	DB	0f8H
	DB	0fcH
	DB	0f8H
	DB	0ffH
	DB	0f8H
	DB	0f8H
	DB	0f8H
	DB	0ffH
	DB	0f8H
	DB	0f8H
	DB	0f8H
	DB	0ffH
	DB	0f8H
	DB	0fcH
	DB	0f8H
	DB	0ffH
	DB	0f8H
	DB	0f8H
	DB	0f8H
	DB	0ffH
	DB	0f8H
	DB	0f8H
	DB	0f8H
	DB	0ffH
	DB	0f8H
	DB	0fcH
	DB	0f8H
	DB	0ffH
	DB	0f8H
	DB	0fcH
	DB	0f8H
	DB	0ffH
	DB	0f8H
	DB	0f8H
	DB	0f8H
	DB	0ffH
	DB	0f8H
	DB	0fcH
	DB	0f8H
	DB	0ffH
	DB	0f8H
	DB	0f8H
	DB	0f8H
	DB	0ffH
	DB	0f8H
	DB	0f8H
	DB	0f8H
	DB	0ffH
	DB	0f8H
	DB	0fcH
	DB	0f8H
	DB	0ffH
	DB	0f8H
	DB	0f8H
	DB	0f8H
	DB	0ffH
	DB	0f8H
	DB	0f8H
	DB	0f8H
	DB	0ffH
	DB	0f8H
	DB	0fcH
	DB	0f8H
	DB	0ffH
	DB	0f8H
	DB	0f8H
	DB	0f8H
	DB	0ffH
	DB	0f8H
	DB	0f8H
	DB	0f8H
	DB	0ffH
	DB	0f8H
	DB	0fcH
	DB	0f8H
	DB	0ffH
	DB	0f8H
	DB	0fcH
	DB	0f8H
	DB	0ffH
	DB	0f8H
	DB	0f8H
	DB	0f8H
	DB	0ffH
	DB	0f8H
	DB	0fcH
	DB	0f8H
	DB	0ffH
	DB	0f8H
	DB	0f8H
	DB	0f8H
	DB	0ffH
	DB	0f8H
	DB	0f8H
	DB	0f8H
	DB	0ffH
	DB	0f8H
	DB	0fcH
	DB	0f8H
	DB	0ffH
	DB	0f8H
	DB	0f8H
	DB	0f8H
	DB	0ffH
	DB	0f8H
	DB	0f8H
	DB	0f8H
	DB	0ffH
	DB	0f8H
	DB	0fcH
	DB	0f8H
	DB	0ffH
	DB	0f8H
	DB	0f8H
	DB	0f8H
	DB	0ffH
	DB	0f8H
	DB	0f8H
	DB	0f8H
	DB	0ffH
	DB	0f8H
	DB	0fcH
	DB	0f8H
	DB	0ffH
	DB	0f8H
	DB	0fcH
	DB	0f8H
	DB	0ffH
	DB	0f8H
	DB	0f8H
	DB	0f8H
	DB	0ffH
	DB	0f8H
	DB	0fcH
	DB	0f8H
	DB	0ffH
	DB	0f8H
	DB	0f8H
	DB	0f8H
	DB	0ffH
	DB	0f8H
	DB	0f8H
	DB	0f8H
	DB	0ffH
	DB	0f8H
	DB	0fcH
	DB	0f8H
	DB	0ffH
	DB	0f8H
	DB	0f8H
	DB	0f8H
	DB	0ffH
	DB	0f8H
	DB	0f8H
	DB	0f8H
	DB	0ffH
	DB	0f8H
	DB	0fcH
	DB	0f8H
	DB	0ffH
	DB	0f8H
	DB	0f8H
	DB	0f8H
	DB	0ffH
	DB	0f8H
	DB	0f8H
	DB	0f8H
	DB	0ffH
	DB	0f8H
	DB	0fcH
	DB	0f8H
	DB	0ffH
	DB	0f8H
	DB	0fcH
	DB	0f8H
	DB	0ffH
	DB	0f8H
	DB	0f8H
	DB	0f8H
	DB	0ffH
	DB	0f8H
	DB	0fcH
	DB	0f8H
	DB	0ffH
	DB	0f8H
	DB	0f8H
	DB	0f8H
	DB	0ffH
	DB	0f8H
	DB	0f8H
	DB	0f8H
	DB	0ffH
	DB	0f8H
	DB	0fcH
	DB	0f8H
	DB	0ffH
	DB	0f8H
	DB	0f8H
	DB	0f8H
	DB	0ffH
	DB	0f8H
	DB	0f8H
	DB	0f8H
	DB	0ffH
	DB	0f8H
	DB	0fcH
	DB	0f8H
	DB	0ffH
	DB	0f8H
	DB	0f8H
	DB	0f8H
	DB	0ffH
	DB	0f8H
	DB	0f8H
	DB	0f8H
	DB	0ffH
	DB	0f8H
	DB	0fcH
	DB	0f8H
	DB	0ffH
	DB	0f8H
	DB	0fcH
	DB	0f8H
	DB	0ffH
	DB	0f8H
	DB	0f8H
	DB	0f8H
	DB	0ffH
	DB	0f8H
	DB	0fcH
	DB	0f8H
	DB	0ffH
	DB	0f8H
	DB	0f8H
	DB	0f8H
	DB	0ffH
	DB	0f8H
	DB	0f8H
	DB	0f8H
	DB	0ffH
	DB	0f8H
	DB	0fcH
	DB	0f8H
	DB	0ffH
	DB	0f8H
	DB	0f8H
	DB	0f8H
	DB	0ffH
	DB	0f8H
	DB	0f8H
	DB	0f8H
	DB	0ffH
	DB	0f8H
	DB	0fcH
	DB	0f8H
	DB	0ffH
	DB	0f8H
	DB	0f8H
	DB	0f8H
	DB	0ffH
	DB	0f8H
	DB	0f8H
	DB	0f8H
	DB	0ffH
	DB	0f8H
	DB	0fcH
	DB	0f8H
	DB	0ffH
	DB	0f8H
	DB	0fcH
	DB	0f8H
	DB	0ffH
	DB	0f8H
	DB	0f8H
	DB	0f8H
	DB	0ffH
	DB	0f8H
	DB	0fcH
	DB	0f8H
	DB	0ffH
	DB	0f8H
	DB	0f8H
	DB	0f8H
	DB	0ffH
	DB	0f8H
	DB	0f8H
	DB	0f8H
	DB	0ffH
	DB	0f8H
	DB	0fcH
	DB	0f8H
	DB	0ffH
	DB	0f8H
	DB	0f8H
	DB	0f8H
	DB	0ffH
	DB	0f8H
	DB	0f8H
	DB	0f8H
	DB	0ffH
	DB	0f8H
	DB	0fcH
	DB	0f8H
	DB	0ffH
	DB	0f8H
	DB	0f8H
	DB	0f8H
	DB	0ffH
	DB	0f8H
	DB	0f8H
	DB	0f8H
	DB	0ffH
	DB	0f8H
	DB	0fcH
	DB	0f8H
	DB	0ffH
	DB	0f8H
	DB	0fcH
	DB	0f8H
	DB	0ffH
	DB	0f8H
	DB	0f8H
	DB	0f8H
	DB	0ffH
	DB	0f8H
	DB	0fcH
	DB	0f8H
	DB	0ffH
	DB	0f8H
	DB	0f8H
	DB	0f0H
	DB	0ffH
	DB	0f8H
	DB	0f8H
	DB	0f8H
	DB	0ffH
	DB	0f8H
	DB	0f8H
	DB	0f8H
	DB	0ffH
	DB	0f8H
	DB	0f8H
	DB	0f8H
	DB	0ffH
	DB	0a0H
	DB	08cH
	DB	068H
	DB	0ffH
	DB	058H
	DB	034H
	DB	00H
	DB	0ffH
	DB	050H
	DB	034H
	DB	00H
	DB	0a6H
	DB	058H
	DB	030H
	DB	00H
	DB	024H
	DB	058H
	DB	034H
	DB	00H
	DB	01cH
	DB	050H
	DB	030H
	DB	00H
	DB	014H
	DB	058H
	DB	030H
	DB	00H
	DB	0cH
	DB	058H
	DB	034H
	DB	00H
	DB	08H
	DB	050H
	DB	034H
	DB	00H
	DB	04H
	DB	058H
	DB	030H
	DB	00H
	DB	00H
	DB	058H
	DB	034H
	DB	00H
	DB	00H
	DB	050H
	DB	034H
	DB	00H
	DB	00H
	DB	0f8H
	DB	0fcH
	DB	0f8H
	DB	00H
	DB	0f8H
	DB	0fcH
	DB	0f8H
	DB	00H
	DB	0f8H
	DB	0fcH
	DB	0f8H
	DB	00H
	DB	058H
	DB	034H
	DB	00H
	DB	00H
	DB	050H
	DB	030H
	DB	00H
	DB	00H
	DB	058H
	DB	034H
	DB	00H
	DB	04H
	DB	050H
	DB	034H
	DB	00H
	DB	08H
	DB	058H
	DB	034H
	DB	00H
	DB	0cH
	DB	058H
	DB	030H
	DB	00H
	DB	014H
	DB	050H
	DB	034H
	DB	00H
	DB	020H
	DB	058H
	DB	034H
	DB	00H
	DB	028H
	DB	050H
	DB	034H
	DB	00H
	DB	0dfH
	DB	058H
	DB	034H
	DB	00H
	DB	0ffH
	DB	0d0H
	DB	0c0H
	DB	0a8H
	DB	0ffH
	DB	0f0H
	DB	0e8H
	DB	0d8H
	DB	0ffH
	DB	0f0H
	DB	0e8H
	DB	0e0H
	DB	0ffH
	DB	0f0H
	DB	0e8H
	DB	0d8H
	DB	0ffH
	DB	0f0H
	DB	0e8H
	DB	0d8H
	DB	0ffH
	DB	0f0H
	DB	0e8H
	DB	0e0H
	DB	0ffH
	DB	0f0H
	DB	0e8H
	DB	0d8H
	DB	0ffH
	DB	0f0H
	DB	0e8H
	DB	0e0H
	DB	0ffH
	DB	0f0H
	DB	0e8H
	DB	0d8H
	DB	0ffH
	DB	0f0H
	DB	0e8H
	DB	0e0H
	DB	0ffH
	DB	0f0H
	DB	0e8H
	DB	0d8H
	DB	0ffH
	DB	0f0H
	DB	0e8H
	DB	0d8H
	DB	0ffH
	DB	0f0H
	DB	0e8H
	DB	0e0H
	DB	0ffH
	DB	0f0H
	DB	0e8H
	DB	0d8H
	DB	0ffH
	DB	0f0H
	DB	0e8H
	DB	0d8H
	DB	0ffH
	DB	0f0H
	DB	0e8H
	DB	0e0H
	DB	0ffH
	DB	0f0H
	DB	0e8H
	DB	0d8H
	DB	0ffH
	DB	0f8H
	DB	0e8H
	DB	0d8H
	DB	0ffH
	DB	0f0H
	DB	0e8H
	DB	0e0H
	DB	0ffH
	DB	0f0H
	DB	0e8H
	DB	0d8H
	DB	0ffH
	DB	0f8H
	DB	0e8H
	DB	0d8H
	DB	0ffH
	DB	0f0H
	DB	0e8H
	DB	0e0H
	DB	0ffH
	DB	0f0H
	DB	0e8H
	DB	0d8H
	DB	0ffH
	DB	0f8H
	DB	0e8H
	DB	0d8H
	DB	0ffH
	DB	0f0H
	DB	0e8H
	DB	0e0H
	DB	0ffH
	DB	0f0H
	DB	0e8H
	DB	0d8H
	DB	0ffH
	DB	0f0H
	DB	0e8H
	DB	0d8H
	DB	0ffH
	DB	0f8H
	DB	0e8H
	DB	0e0H
	DB	0ffH
	DB	0f0H
	DB	0e8H
	DB	0d8H
	DB	0ffH
	DB	0f0H
	DB	0e8H
	DB	0d8H
	DB	0ffH
	DB	0f0H
	DB	0e8H
	DB	0e0H
	DB	0ffH
	DB	0f0H
	DB	0e8H
	DB	0d8H
	DB	0ffH
	DB	0f8H
	DB	0e8H
	DB	0d8H
	DB	0ffH
	DB	0f0H
	DB	0e8H
	DB	0e0H
	DB	0ffH
	DB	0f0H
	DB	0e8H
	DB	0d8H
	DB	0ffH
	DB	0f0H
	DB	0e8H
	DB	0d8H
	DB	0ffH
	DB	0f0H
	DB	0e8H
	DB	0e0H
	DB	0ffH
	DB	0f8H
	DB	0e8H
	DB	0d8H
	DB	0ffH
	DB	0f0H
	DB	0e8H
	DB	0d8H
	DB	0ffH
	DB	0f0H
	DB	0e8H
	DB	0e0H
	DB	0ffH
	DB	0f0H
	DB	0e8H
	DB	0d8H
	DB	0ffH
	DB	0f0H
	DB	0e8H
	DB	0d8H
	DB	0ffH
	DB	0f0H
	DB	0e8H
	DB	0e0H
	DB	0ffH
	DB	0f0H
	DB	0e8H
	DB	0d8H
	DB	0ffH
	DB	0f8H
	DB	0e8H
	DB	0d8H
	DB	0ffH
	DB	0f0H
	DB	0e8H
	DB	0e0H
	DB	0ffH
	DB	0f0H
	DB	0e8H
	DB	0d8H
	DB	0ffH
	DB	0f8H
	DB	0e8H
	DB	0d8H
	DB	0ffH
	DB	0f0H
	DB	0e8H
	DB	0e0H
	DB	0ffH
	DB	0f0H
	DB	0e8H
	DB	0d8H
	DB	0ffH
	DB	0f8H
	DB	0e8H
	DB	0d8H
	DB	0ffH
	DB	0f0H
	DB	0e8H
	DB	0e0H
	DB	0ffH
	DB	0f0H
	DB	0e8H
	DB	0d8H
	DB	0ffH
	DB	0f0H
	DB	0e8H
	DB	0d8H
	DB	0ffH
	DB	0f8H
	DB	0e8H
	DB	0e0H
	DB	0ffH
	DB	0f0H
	DB	0e8H
	DB	0d8H
	DB	0ffH
	DB	0f0H
	DB	0e8H
	DB	0d8H
	DB	0ffH
	DB	0f0H
	DB	0e8H
	DB	0e0H
	DB	0ffH
	DB	0f0H
	DB	0e8H
	DB	0d8H
	DB	0ffH
	DB	0f8H
	DB	0e8H
	DB	0d8H
	DB	0ffH
	DB	0f0H
	DB	0e8H
	DB	0e0H
	DB	0ffH
	DB	0f0H
	DB	0e8H
	DB	0d8H
	DB	0ffH
	DB	0f0H
	DB	0e8H
	DB	0d8H
	DB	0ffH
	DB	0f0H
	DB	0e8H
	DB	0e0H
	DB	0ffH
	DB	0f8H
	DB	0e8H
	DB	0d8H
	DB	0ffH
	DB	0f0H
	DB	0e8H
	DB	0d8H
	DB	0ffH
	DB	0f0H
	DB	0e8H
	DB	0e0H
	DB	0ffH
	DB	0f0H
	DB	0e8H
	DB	0d8H
	DB	0ffH
	DB	0f0H
	DB	0e8H
	DB	0d8H
	DB	0ffH
	DB	0f0H
	DB	0e8H
	DB	0e0H
	DB	0ffH
	DB	0f0H
	DB	0e8H
	DB	0d8H
	DB	0ffH
	DB	0f8H
	DB	0e8H
	DB	0d8H
	DB	0ffH
	DB	0f0H
	DB	0e8H
	DB	0e0H
	DB	0ffH
	DB	0f0H
	DB	0e8H
	DB	0d8H
	DB	0ffH
	DB	0f8H
	DB	0e8H
	DB	0d8H
	DB	0ffH
	DB	0f0H
	DB	0e8H
	DB	0e0H
	DB	0ffH
	DB	0f0H
	DB	0e8H
	DB	0d8H
	DB	0ffH
	DB	0f8H
	DB	0e8H
	DB	0d8H
	DB	0ffH
	DB	0f0H
	DB	0e8H
	DB	0e0H
	DB	0ffH
	DB	0f0H
	DB	0e8H
	DB	0d8H
	DB	0ffH
	DB	0f0H
	DB	0e8H
	DB	0d8H
	DB	0ffH
	DB	0f8H
	DB	0e8H
	DB	0e0H
	DB	0ffH
	DB	0f0H
	DB	0e8H
	DB	0d8H
	DB	0ffH
	DB	0f0H
	DB	0e8H
	DB	0d8H
	DB	0ffH
	DB	0f0H
	DB	0e8H
	DB	0e0H
	DB	0ffH
	DB	0f0H
	DB	0e8H
	DB	0d8H
	DB	0ffH
	DB	0f0H
	DB	0e8H
	DB	0d8H
	DB	0ffH
	DB	0f0H
	DB	0e8H
	DB	0e0H
	DB	0ffH
	DB	058H
	DB	034H
	DB	00H
	DB	0ffH
	DB	058H
	DB	034H
	DB	00H
	DB	0ffH
	DB	0d8H
	DB	0d4H
	DB	0c8H
	DB	0ffH
	DB	0e0H
	DB	0dcH
	DB	0d0H
	DB	0ffH
	DB	0e8H
	DB	0e4H
	DB	0d8H
	DB	0ffH
	DB	0f0H
	DB	0ecH
	DB	0e8H
	DB	0ffH
	DB	0f8H
	DB	0f0H
	DB	0f0H
	DB	0ffH
	DB	0f8H
	DB	0f4H
	DB	0f0H
	DB	0ffH
	DB	0f8H
	DB	0f8H
	DB	0f0H
	DB	0ffH
	DB	0f8H
	DB	0fcH
	DB	0f8H
	DB	0ffH
	DB	0f8H
	DB	0f8H
	DB	0f8H
	DB	0ffH
	DB	0f8H
	DB	0f8H
	DB	0f0H
	DB	0ffH
	DB	0f8H
	DB	0fcH
	DB	0f8H
	DB	0ffH
	DB	0f8H
	DB	0f8H
	DB	0f0H
	DB	0ffH
	DB	0f8H
	DB	0f8H
	DB	0f8H
	DB	0ffH
	DB	0f8H
	DB	0f8H
	DB	0f0H
	DB	0ffH
	DB	0f8H
	DB	0f8H
	DB	0f0H
	DB	0ffH
	DB	0f8H
	DB	0f8H
	DB	0f8H
	DB	0ffH
	DB	0f8H
	DB	0f8H
	DB	0f0H
	DB	0ffH
	DB	0f8H
	DB	0f8H
	DB	0f8H
	DB	0ffH
	DB	0f8H
	DB	0f8H
	DB	0f0H
	DB	0ffH
	DB	0f8H
	DB	0f8H
	DB	0f0H
	DB	0ffH
	DB	0f8H
	DB	0f8H
	DB	0f8H
	DB	0ffH
	DB	0f8H
	DB	0fcH
	DB	0f0H
	DB	0ffH
	DB	0f8H
	DB	0f8H
	DB	0f8H
	DB	0ffH
	DB	0f8H
	DB	0f8H
	DB	0f0H
	DB	0ffH
	DB	0f8H
	DB	0f8H
	DB	0f8H
	DB	0ffH
	DB	0f8H
	DB	0f8H
	DB	0f0H
	DB	0ffH
	DB	0f8H
	DB	0f8H
	DB	0f0H
	DB	0ffH
	DB	0f8H
	DB	0f8H
	DB	0f8H
	DB	0ffH
	DB	0f8H
	DB	0f8H
	DB	0f0H
	DB	0ffH
	DB	0f8H
	DB	0f8H
	DB	0f8H
	DB	0ffH
	DB	0f8H
	DB	0f8H
	DB	0f0H
	DB	0ffH
	DB	0f8H
	DB	0f8H
	DB	0f0H
	DB	0ffH
	DB	0f8H
	DB	0f8H
	DB	0f8H
	DB	0ffH
	DB	0f8H
	DB	0fcH
	DB	0f0H
	DB	0ffH
	DB	0f8H
	DB	0f8H
	DB	0f8H
	DB	0ffH
	DB	0f8H
	DB	0f8H
	DB	0f0H
	DB	0ffH
	DB	0f8H
	DB	0f8H
	DB	0f8H
	DB	0ffH
	DB	0f8H
	DB	0f8H
	DB	0f0H
	DB	0ffH
	DB	0f8H
	DB	0f8H
	DB	0f0H
	DB	0ffH
	DB	0f8H
	DB	0f8H
	DB	0f8H
	DB	0ffH
	DB	0f8H
	DB	0f8H
	DB	0f0H
	DB	0ffH
	DB	0f8H
	DB	0f8H
	DB	0f8H
	DB	0ffH
	DB	0f8H
	DB	0f8H
	DB	0f0H
	DB	0ffH
	DB	0f8H
	DB	0f8H
	DB	0f0H
	DB	0ffH
	DB	0f8H
	DB	0f8H
	DB	0f8H
	DB	0ffH
	DB	0f8H
	DB	0fcH
	DB	0f0H
	DB	0ffH
	DB	0f8H
	DB	0f8H
	DB	0f8H
	DB	0ffH
	DB	0f8H
	DB	0f8H
	DB	0f0H
	DB	0ffH
	DB	0f8H
	DB	0f8H
	DB	0f8H
	DB	0ffH
	DB	0f8H
	DB	0f8H
	DB	0f0H
	DB	0ffH
	DB	0f8H
	DB	0f8H
	DB	0f0H
	DB	0ffH
	DB	0f8H
	DB	0f8H
	DB	0f8H
	DB	0ffH
	DB	0f8H
	DB	0f8H
	DB	0f0H
	DB	0ffH
	DB	0f8H
	DB	0f8H
	DB	0f8H
	DB	0ffH
	DB	0f8H
	DB	0f8H
	DB	0f0H
	DB	0ffH
	DB	0f8H
	DB	0f8H
	DB	0f0H
	DB	0ffH
	DB	0f8H
	DB	0f8H
	DB	0f8H
	DB	0ffH
	DB	0f8H
	DB	0fcH
	DB	0f0H
	DB	0ffH
	DB	0f8H
	DB	0f8H
	DB	0f8H
	DB	0ffH
	DB	0f8H
	DB	0f8H
	DB	0f0H
	DB	0ffH
	DB	0f8H
	DB	0f8H
	DB	0f8H
	DB	0ffH
	DB	0f8H
	DB	0f8H
	DB	0f0H
	DB	0ffH
	DB	0f8H
	DB	0f8H
	DB	0f0H
	DB	0ffH
	DB	0f8H
	DB	0f8H
	DB	0f8H
	DB	0ffH
	DB	0f8H
	DB	0f8H
	DB	0f0H
	DB	0ffH
	DB	0f8H
	DB	0f8H
	DB	0f8H
	DB	0ffH
	DB	0f8H
	DB	0f8H
	DB	0f0H
	DB	0ffH
	DB	0f8H
	DB	0f8H
	DB	0f0H
	DB	0ffH
	DB	0f8H
	DB	0f8H
	DB	0f8H
	DB	0ffH
	DB	0f8H
	DB	0fcH
	DB	0f0H
	DB	0ffH
	DB	0f8H
	DB	0f8H
	DB	0f8H
	DB	0ffH
	DB	0f8H
	DB	0f8H
	DB	0f0H
	DB	0ffH
	DB	0f8H
	DB	0f8H
	DB	0f8H
	DB	0ffH
	DB	0f8H
	DB	0f8H
	DB	0f0H
	DB	0ffH
	DB	0f8H
	DB	0f8H
	DB	0f0H
	DB	0ffH
	DB	0f8H
	DB	0f8H
	DB	0f8H
	DB	0ffH
	DB	0f8H
	DB	0f8H
	DB	0f0H
	DB	0ffH
	DB	0f8H
	DB	0f8H
	DB	0f8H
	DB	0ffH
	DB	0f8H
	DB	0f8H
	DB	0f0H
	DB	0ffH
	DB	0f8H
	DB	0f8H
	DB	0f0H
	DB	0ffH
	DB	0f8H
	DB	0f8H
	DB	0f8H
	DB	0ffH
	DB	0f8H
	DB	0fcH
	DB	0f0H
	DB	0ffH
	DB	0f8H
	DB	0f8H
	DB	0f8H
	DB	0ffH
	DB	0f8H
	DB	0f8H
	DB	0f0H
	DB	0ffH
	DB	0f8H
	DB	0f8H
	DB	0f8H
	DB	0ffH
	DB	0f8H
	DB	0f8H
	DB	0f0H
	DB	0ffH
	DB	0f8H
	DB	0f8H
	DB	0f0H
	DB	0ffH
	DB	0f8H
	DB	0f8H
	DB	0f8H
	DB	0ffH
	DB	0f8H
	DB	0f8H
	DB	0f0H
	DB	0ffH
	DB	0f8H
	DB	0f8H
	DB	0f8H
	DB	0ffH
	DB	0f8H
	DB	0f8H
	DB	0f0H
	DB	0ffH
	DB	0f8H
	DB	0f8H
	DB	0f0H
	DB	0ffH
	DB	0f8H
	DB	0f8H
	DB	0f8H
	DB	0ffH
	DB	0f8H
	DB	0fcH
	DB	0f0H
	DB	0ffH
	DB	0f8H
	DB	0f8H
	DB	0f8H
	DB	0ffH
	DB	0f8H
	DB	0f8H
	DB	0f0H
	DB	0ffH
	DB	0f8H
	DB	0f8H
	DB	0f8H
	DB	0ffH
	DB	0f8H
	DB	0f8H
	DB	0f0H
	DB	0ffH
	DB	0f8H
	DB	0f8H
	DB	0f0H
	DB	0ffH
	DB	0f8H
	DB	0f8H
	DB	0f8H
	DB	0ffH
	DB	0f8H
	DB	0f8H
	DB	0f0H
	DB	0ffH
	DB	0f8H
	DB	0f8H
	DB	0f8H
	DB	0ffH
	DB	0f8H
	DB	0f8H
	DB	0f0H
	DB	0ffH
	DB	0f8H
	DB	0f8H
	DB	0f0H
	DB	0ffH
	DB	0f8H
	DB	0f8H
	DB	0f8H
	DB	0ffH
	DB	0f8H
	DB	0fcH
	DB	0f0H
	DB	0ffH
	DB	0f8H
	DB	0f8H
	DB	0f8H
	DB	0ffH
	DB	0f8H
	DB	0f8H
	DB	0f0H
	DB	0ffH
	DB	0f8H
	DB	0f8H
	DB	0f8H
	DB	0ffH
	DB	0f8H
	DB	0f8H
	DB	0f0H
	DB	0ffH
	DB	0f8H
	DB	0f8H
	DB	0f0H
	DB	0ffH
	DB	0f8H
	DB	0f8H
	DB	0f8H
	DB	0ffH
	DB	0f8H
	DB	0f8H
	DB	0f0H
	DB	0ffH
	DB	0f8H
	DB	0f8H
	DB	0f8H
	DB	0ffH
	DB	0f8H
	DB	0f8H
	DB	0f0H
	DB	0ffH
	DB	0f8H
	DB	0f8H
	DB	0f0H
	DB	0ffH
	DB	0f8H
	DB	0f8H
	DB	0f8H
	DB	0ffH
	DB	0f8H
	DB	0fcH
	DB	0f0H
	DB	0ffH
	DB	0f8H
	DB	0f8H
	DB	0f8H
	DB	0ffH
	DB	0f8H
	DB	0f8H
	DB	0f0H
	DB	0ffH
	DB	0f8H
	DB	0f8H
	DB	0f8H
	DB	0ffH
	DB	0f8H
	DB	0f8H
	DB	0f0H
	DB	0ffH
	DB	0f8H
	DB	0f8H
	DB	0f0H
	DB	0ffH
	DB	0f8H
	DB	0f8H
	DB	0f8H
	DB	0ffH
	DB	0f8H
	DB	0f8H
	DB	0f0H
	DB	0ffH
	DB	0f8H
	DB	0f8H
	DB	0f8H
	DB	0ffH
	DB	0f8H
	DB	0f8H
	DB	0f0H
	DB	0ffH
	DB	0f8H
	DB	0f8H
	DB	0f0H
	DB	0ffH
	DB	0f8H
	DB	0f8H
	DB	0f8H
	DB	0ffH
	DB	0f8H
	DB	0fcH
	DB	0f0H
	DB	0ffH
	DB	0f8H
	DB	0f8H
	DB	0f8H
	DB	0ffH
	DB	0f8H
	DB	0f8H
	DB	0f0H
	DB	0ffH
	DB	0f8H
	DB	0f8H
	DB	0f8H
	DB	0ffH
	DB	0f8H
	DB	0f8H
	DB	0f0H
	DB	0ffH
	DB	0f8H
	DB	0f8H
	DB	0f0H
	DB	0ffH
	DB	0f8H
	DB	0f8H
	DB	0f8H
	DB	0ffH
	DB	0f8H
	DB	0f8H
	DB	0f0H
	DB	0ffH
	DB	0f8H
	DB	0f8H
	DB	0f8H
	DB	0ffH
	DB	0f8H
	DB	0f8H
	DB	0f0H
	DB	0ffH
	DB	0f8H
	DB	0f8H
	DB	0f0H
	DB	0ffH
	DB	0f8H
	DB	0f8H
	DB	0f8H
	DB	0ffH
	DB	0f8H
	DB	0fcH
	DB	0f0H
	DB	0ffH
	DB	0f8H
	DB	0f8H
	DB	0f8H
	DB	0ffH
	DB	0f8H
	DB	0f8H
	DB	0f0H
	DB	0ffH
	DB	0f8H
	DB	0f8H
	DB	0f8H
	DB	0ffH
	DB	0f8H
	DB	0f8H
	DB	0f0H
	DB	0ffH
	DB	0f8H
	DB	0f8H
	DB	0f0H
	DB	0ffH
	DB	0f8H
	DB	0f8H
	DB	0f8H
	DB	0ffH
	DB	0f8H
	DB	0f8H
	DB	0f0H
	DB	0ffH
	DB	0f8H
	DB	0f8H
	DB	0f8H
	DB	0ffH
	DB	0f8H
	DB	0f8H
	DB	0f0H
	DB	0ffH
	DB	0f8H
	DB	0f8H
	DB	0f0H
	DB	0ffH
	DB	0f8H
	DB	0f8H
	DB	0f8H
	DB	0ffH
	DB	0f8H
	DB	0fcH
	DB	0f0H
	DB	0ffH
	DB	0f8H
	DB	0f8H
	DB	0f8H
	DB	0ffH
	DB	0f8H
	DB	0f8H
	DB	0f0H
	DB	0ffH
	DB	0f8H
	DB	0f8H
	DB	0f8H
	DB	0ffH
	DB	0f8H
	DB	0f8H
	DB	0f0H
	DB	0ffH
	DB	0f8H
	DB	0f8H
	DB	0f0H
	DB	0ffH
	DB	0f8H
	DB	0f8H
	DB	0f8H
	DB	0ffH
	DB	0f8H
	DB	0f8H
	DB	0f0H
	DB	0ffH
	DB	0f8H
	DB	0f8H
	DB	0f8H
	DB	0ffH
	DB	0f8H
	DB	0f8H
	DB	0f0H
	DB	0ffH
	DB	0f8H
	DB	0f8H
	DB	0f0H
	DB	0ffH
	DB	0f8H
	DB	0f8H
	DB	0f8H
	DB	0ffH
	DB	0f8H
	DB	0fcH
	DB	0f0H
	DB	0ffH
	DB	0f8H
	DB	0f8H
	DB	0f8H
	DB	0ffH
	DB	0f8H
	DB	0f8H
	DB	0f0H
	DB	0ffH
	DB	0f8H
	DB	0f8H
	DB	0f8H
	DB	0ffH
	DB	0f8H
	DB	0f8H
	DB	0f0H
	DB	0ffH
	DB	0f8H
	DB	0f8H
	DB	0f0H
	DB	0ffH
	DB	0f8H
	DB	0f8H
	DB	0f8H
	DB	0ffH
	DB	0f8H
	DB	0f8H
	DB	0f0H
	DB	0ffH
	DB	0f8H
	DB	0f8H
	DB	0f8H
	DB	0ffH
	DB	0f8H
	DB	0f8H
	DB	0f0H
	DB	0ffH
	DB	0f8H
	DB	0f8H
	DB	0f0H
	DB	0ffH
	DB	0f8H
	DB	0f8H
	DB	0f8H
	DB	0ffH
	DB	0f8H
	DB	0fcH
	DB	0f0H
	DB	0ffH
	DB	0f8H
	DB	0f8H
	DB	0f8H
	DB	0ffH
	DB	0f8H
	DB	0f8H
	DB	0f0H
	DB	0ffH
	DB	0f8H
	DB	0f8H
	DB	0f8H
	DB	0ffH
	DB	0f8H
	DB	0f8H
	DB	0f0H
	DB	0ffH
	DB	0f8H
	DB	0f8H
	DB	0f0H
	DB	0ffH
	DB	0f8H
	DB	0f8H
	DB	0f8H
	DB	0ffH
	DB	0f8H
	DB	0f8H
	DB	0f0H
	DB	0ffH
	DB	0f8H
	DB	0f8H
	DB	0f8H
	DB	0ffH
	DB	0f8H
	DB	0f8H
	DB	0f0H
	DB	0ffH
	DB	0f8H
	DB	0f8H
	DB	0f0H
	DB	0ffH
	DB	0f8H
	DB	0f8H
	DB	0f8H
	DB	0ffH
	DB	0f8H
	DB	0fcH
	DB	0f0H
	DB	0ffH
	DB	0f8H
	DB	0f8H
	DB	0f8H
	DB	0ffH
	DB	0f8H
	DB	0f8H
	DB	0f0H
	DB	0ffH
	DB	0f8H
	DB	0f8H
	DB	0f8H
	DB	0ffH
	DB	0f8H
	DB	0f8H
	DB	0f0H
	DB	0ffH
	DB	0f8H
	DB	0f8H
	DB	0f0H
	DB	0ffH
	DB	0f8H
	DB	0f8H
	DB	0f8H
	DB	0ffH
	DB	0f8H
	DB	0f8H
	DB	0f0H
	DB	0ffH
	DB	0f8H
	DB	0f8H
	DB	0f8H
	DB	0ffH
	DB	0f8H
	DB	0f8H
	DB	0f0H
	DB	0ffH
	DB	0f8H
	DB	0f8H
	DB	0f0H
	DB	0ffH
	DB	0f8H
	DB	0f8H
	DB	0f8H
	DB	0ffH
	DB	0f8H
	DB	0fcH
	DB	0f0H
	DB	0ffH
	DB	0f8H
	DB	0f8H
	DB	0f8H
	DB	0ffH
	DB	0f8H
	DB	0f8H
	DB	0f0H
	DB	0ffH
	DB	0f8H
	DB	0f8H
	DB	0f8H
	DB	0ffH
	DB	0f8H
	DB	0f8H
	DB	0f0H
	DB	0ffH
	DB	0f8H
	DB	0f8H
	DB	0f0H
	DB	0ffH
	DB	0f8H
	DB	0f8H
	DB	0f8H
	DB	0ffH
	DB	0f8H
	DB	0f8H
	DB	0f0H
	DB	0ffH
	DB	0f8H
	DB	0f8H
	DB	0f8H
	DB	0ffH
	DB	0f8H
	DB	0f8H
	DB	0f0H
	DB	0ffH
	DB	0f8H
	DB	0f8H
	DB	0f0H
	DB	0ffH
	DB	0f8H
	DB	0f8H
	DB	0f8H
	DB	0ffH
	DB	0f8H
	DB	0fcH
	DB	0f0H
	DB	0ffH
	DB	0f8H
	DB	0f8H
	DB	0f8H
	DB	0ffH
	DB	0f8H
	DB	0f8H
	DB	0f0H
	DB	0ffH
	DB	0f8H
	DB	0f8H
	DB	0f8H
	DB	0ffH
	DB	0f8H
	DB	0f8H
	DB	0f0H
	DB	0ffH
	DB	0f8H
	DB	0f8H
	DB	0f0H
	DB	0ffH
	DB	0f8H
	DB	0f8H
	DB	0f8H
	DB	0ffH
	DB	0f8H
	DB	0f8H
	DB	0f0H
	DB	0ffH
	DB	0f8H
	DB	0f8H
	DB	0f8H
	DB	0ffH
	DB	0f8H
	DB	0f8H
	DB	0f0H
	DB	0ffH
	DB	0f8H
	DB	0f8H
	DB	0f0H
	DB	0ffH
	DB	0f8H
	DB	0f8H
	DB	0f8H
	DB	0ffH
	DB	0f8H
	DB	0fcH
	DB	0f0H
	DB	0ffH
	DB	0f8H
	DB	0f8H
	DB	0f8H
	DB	0ffH
	DB	0f8H
	DB	0f8H
	DB	0f0H
	DB	0ffH
	DB	0f8H
	DB	0f8H
	DB	0f8H
	DB	0ffH
	DB	0f8H
	DB	0f8H
	DB	0f0H
	DB	0ffH
	DB	0f8H
	DB	0f8H
	DB	0f0H
	DB	0ffH
	DB	0f8H
	DB	0f8H
	DB	0f8H
	DB	0ffH
	DB	0f8H
	DB	0f8H
	DB	0f0H
	DB	0ffH
	DB	0f8H
	DB	0f8H
	DB	0f8H
	DB	0ffH
	DB	0f8H
	DB	0f8H
	DB	0f0H
	DB	0ffH
	DB	0f8H
	DB	0f8H
	DB	0f0H
	DB	0ffH
	DB	0f8H
	DB	0f8H
	DB	0f8H
	DB	0ffH
	DB	0f8H
	DB	0fcH
	DB	0f0H
	DB	0ffH
	DB	0f8H
	DB	0f8H
	DB	0f8H
	DB	0ffH
	DB	0f8H
	DB	0f8H
	DB	0f0H
	DB	0ffH
	DB	0f8H
	DB	0f8H
	DB	0f8H
	DB	0ffH
	DB	0f8H
	DB	0f8H
	DB	0f0H
	DB	0ffH
	DB	0f8H
	DB	0f8H
	DB	0f0H
	DB	0ffH
	DB	0f8H
	DB	0f8H
	DB	0f8H
	DB	0ffH
	DB	0f8H
	DB	0f8H
	DB	0f0H
	DB	0ffH
	DB	0f8H
	DB	0f8H
	DB	0f8H
	DB	0ffH
	DB	0f8H
	DB	0f8H
	DB	0f0H
	DB	0ffH
	DB	0f8H
	DB	0f8H
	DB	0f0H
	DB	0ffH
	DB	0f8H
	DB	0f8H
	DB	0f8H
	DB	0ffH
	DB	0f8H
	DB	0fcH
	DB	0f0H
	DB	0ffH
	DB	0f8H
	DB	0f8H
	DB	0f8H
	DB	0ffH
	DB	0f8H
	DB	0f8H
	DB	0f0H
	DB	0ffH
	DB	0f8H
	DB	0f8H
	DB	0f8H
	DB	0ffH
	DB	0f8H
	DB	0f8H
	DB	0f0H
	DB	0ffH
	DB	0f8H
	DB	0f8H
	DB	0f0H
	DB	0ffH
	DB	0f8H
	DB	0f8H
	DB	0f8H
	DB	0ffH
	DB	0f8H
	DB	0f8H
	DB	0f0H
	DB	0ffH
	DB	0f8H
	DB	0f8H
	DB	0f8H
	DB	0ffH
	DB	0f8H
	DB	0f8H
	DB	0f0H
	DB	0ffH
	DB	0f8H
	DB	0f8H
	DB	0f8H
	DB	0ffH
	DB	0f8H
	DB	0f8H
	DB	0f8H
	DB	0ffH
	DB	0f8H
	DB	0fcH
	DB	0f8H
	DB	0ffH
	DB	0f8H
	DB	0fcH
	DB	0f0H
	DB	0ffH
	DB	0f8H
	DB	0f8H
	DB	0f8H
	DB	0ffH
	DB	0f8H
	DB	0f8H
	DB	0f8H
	DB	0ffH
	DB	0d8H
	DB	0ccH
	DB	0c0H
	DB	0ffH
	DB	050H
	DB	034H
	DB	00H
	DB	0ffH
	DB	058H
	DB	034H
	DB	00H
	DB	0dfH
	DB	050H
	DB	034H
	DB	00H
	DB	028H
	DB	058H
	DB	034H
	DB	00H
	DB	020H
	DB	058H
	DB	034H
	DB	00H
	DB	014H
	DB	050H
	DB	034H
	DB	00H
	DB	010H
	DB	058H
	DB	034H
	DB	00H
	DB	08H
	DB	050H
	DB	030H
	DB	00H
	DB	04H
	DB	058H
	DB	034H
	DB	00H
	DB	00H
	DB	058H
	DB	034H
	DB	00H
	DB	00H
	DB	058H
	DB	034H
	DB	00H
	DB	00H
	DB	0f8H
	DB	0fcH
	DB	0f8H
	DB	00H
	DB	0f8H
	DB	0fcH
	DB	0f8H
	DB	00H
	DB	0f8H
	DB	0fcH
	DB	0f8H
	DB	00H
	DB	058H
	DB	034H
	DB	00H
	DB	00H
	DB	058H
	DB	034H
	DB	00H
	DB	00H
	DB	050H
	DB	030H
	DB	00H
	DB	04H
	DB	058H
	DB	034H
	DB	00H
	DB	08H
	DB	050H
	DB	034H
	DB	00H
	DB	010H
	DB	058H
	DB	034H
	DB	00H
	DB	018H
	DB	058H
	DB	030H
	DB	00H
	DB	020H
	DB	050H
	DB	034H
	DB	00H
	DB	02cH
	DB	058H
	DB	034H
	DB	00H
	DB	0fbH
	DB	058H
	DB	030H
	DB	00H
	DB	0ffH
	DB	0f0H
	DB	0e4H
	DB	0d8H
	DB	0ffH
	DB	0f0H
	DB	0e8H
	DB	0d8H
	DB	0ffH
	DB	0f0H
	DB	0e8H
	DB	0e0H
	DB	0ffH
	DB	0f0H
	DB	0e8H
	DB	0d8H
	DB	0ffH
	DB	0f8H
	DB	0e8H
	DB	0e0H
	DB	0ffH
	DB	0f0H
	DB	0e8H
	DB	0d8H
	DB	0ffH
	DB	0f0H
	DB	0e8H
	DB	0d8H
	DB	0ffH
	DB	0f8H
	DB	0e8H
	DB	0e0H
	DB	0ffH
	DB	0f0H
	DB	0e8H
	DB	0d8H
	DB	0ffH
	DB	0f0H
	DB	0e8H
	DB	0d8H
	DB	0ffH
	DB	0f8H
	DB	0e8H
	DB	0e0H
	DB	0ffH
	DB	0f0H
	DB	0e8H
	DB	0d8H
	DB	0ffH
	DB	0f0H
	DB	0e8H
	DB	0e0H
	DB	0ffH
	DB	0f8H
	DB	0e8H
	DB	0d8H
	DB	0ffH
	DB	0f0H
	DB	0e8H
	DB	0d8H
	DB	0ffH
	DB	0f0H
	DB	0e8H
	DB	0e0H
	DB	0ffH
	DB	0f0H
	DB	0e8H
	DB	0d8H
	DB	0ffH
	DB	0f0H
	DB	0e8H
	DB	0e0H
	DB	0ffH
	DB	0f0H
	DB	0e8H
	DB	0d8H
	DB	0ffH
	DB	0f0H
	DB	0e8H
	DB	0d8H
	DB	0ffH
	DB	0f0H
	DB	0e8H
	DB	0e0H
	DB	0ffH
	DB	0f0H
	DB	0e8H
	DB	0d8H
	DB	0ffH
	DB	0f0H
	DB	0e8H
	DB	0d8H
	DB	0ffH
	DB	0f0H
	DB	0e8H
	DB	0e0H
	DB	0ffH
	DB	0f0H
	DB	0e8H
	DB	0d8H
	DB	0ffH
	DB	0f0H
	DB	0e8H
	DB	0d8H
	DB	0ffH
	DB	0f0H
	DB	0e8H
	DB	0e0H
	DB	0ffH
	DB	0f0H
	DB	0e8H
	DB	0d8H
	DB	0ffH
	DB	0f0H
	DB	0e8H
	DB	0d8H
	DB	0ffH
	DB	0f0H
	DB	0e8H
	DB	0e0H
	DB	0ffH
	DB	0f8H
	DB	0e8H
	DB	0d8H
	DB	0ffH
	DB	0f0H
	DB	0e8H
	DB	0d8H
	DB	0ffH
	DB	0f0H
	DB	0e8H
	DB	0e0H
	DB	0ffH
	DB	0f0H
	DB	0e8H
	DB	0d8H
	DB	0ffH
	DB	0f0H
	DB	0e8H
	DB	0d8H
	DB	0ffH
	DB	0f8H
	DB	0e8H
	DB	0e0H
	DB	0ffH
	DB	0f0H
	DB	0e8H
	DB	0d8H
	DB	0ffH
	DB	0f0H
	DB	0e8H
	DB	0d8H
	DB	0ffH
	DB	0f0H
	DB	0e8H
	DB	0e0H
	DB	0ffH
	DB	0f0H
	DB	0e8H
	DB	0d8H
	DB	0ffH
	DB	0f8H
	DB	0e8H
	DB	0d8H
	DB	0ffH
	DB	0f0H
	DB	0e8H
	DB	0e0H
	DB	0ffH
	DB	0f0H
	DB	0e8H
	DB	0d8H
	DB	0ffH
	DB	0f0H
	DB	0e8H
	DB	0d8H
	DB	0ffH
	DB	0f0H
	DB	0e8H
	DB	0e0H
	DB	0ffH
	DB	0f0H
	DB	0e8H
	DB	0d8H
	DB	0ffH
	DB	0f0H
	DB	0e8H
	DB	0d8H
	DB	0ffH
	DB	0f0H
	DB	0e8H
	DB	0e0H
	DB	0ffH
	DB	0f0H
	DB	0e8H
	DB	0d8H
	DB	0ffH
	DB	0f0H
	DB	0e8H
	DB	0d8H
	DB	0ffH
	DB	0f0H
	DB	0e8H
	DB	0e0H
	DB	0ffH
	DB	0f0H
	DB	0e8H
	DB	0d8H
	DB	0ffH
	DB	0f0H
	DB	0e8H
	DB	0d8H
	DB	0ffH
	DB	0f0H
	DB	0e8H
	DB	0e0H
	DB	0ffH
	DB	0f0H
	DB	0e8H
	DB	0d8H
	DB	0ffH
	DB	0f0H
	DB	0e8H
	DB	0d8H
	DB	0ffH
	DB	0f0H
	DB	0e8H
	DB	0e0H
	DB	0ffH
	DB	0f8H
	DB	0e8H
	DB	0d8H
	DB	0ffH
	DB	0f0H
	DB	0e8H
	DB	0d8H
	DB	0ffH
	DB	0f0H
	DB	0e8H
	DB	0e0H
	DB	0ffH
	DB	0f0H
	DB	0e8H
	DB	0d8H
	DB	0ffH
	DB	0f0H
	DB	0e8H
	DB	0d8H
	DB	0ffH
	DB	0f8H
	DB	0e8H
	DB	0e0H
	DB	0ffH
	DB	0f0H
	DB	0e8H
	DB	0d8H
	DB	0ffH
	DB	0f0H
	DB	0e8H
	DB	0d8H
	DB	0ffH
	DB	0f0H
	DB	0e8H
	DB	0e0H
	DB	0ffH
	DB	0f0H
	DB	0e8H
	DB	0d8H
	DB	0ffH
	DB	0f8H
	DB	0e8H
	DB	0d8H
	DB	0ffH
	DB	0f0H
	DB	0e8H
	DB	0e0H
	DB	0ffH
	DB	0f0H
	DB	0e8H
	DB	0d8H
	DB	0ffH
	DB	0f0H
	DB	0e8H
	DB	0d8H
	DB	0ffH
	DB	0f0H
	DB	0e8H
	DB	0e0H
	DB	0ffH
	DB	0f0H
	DB	0e8H
	DB	0d8H
	DB	0ffH
	DB	0f0H
	DB	0e8H
	DB	0d8H
	DB	0ffH
	DB	0f0H
	DB	0e8H
	DB	0e0H
	DB	0ffH
	DB	0f0H
	DB	0e8H
	DB	0d8H
	DB	0ffH
	DB	0f0H
	DB	0e8H
	DB	0d8H
	DB	0ffH
	DB	0f0H
	DB	0e8H
	DB	0e0H
	DB	0ffH
	DB	0f0H
	DB	0e8H
	DB	0d8H
	DB	0ffH
	DB	0f0H
	DB	0e8H
	DB	0d8H
	DB	0ffH
	DB	0f0H
	DB	0e8H
	DB	0e0H
	DB	0ffH
	DB	0f0H
	DB	0e8H
	DB	0d8H
	DB	0ffH
	DB	0f0H
	DB	0e8H
	DB	0d8H
	DB	0ffH
	DB	0f0H
	DB	0e8H
	DB	0e0H
	DB	0ffH
	DB	0f8H
	DB	0e8H
	DB	0d8H
	DB	0ffH
	DB	0f0H
	DB	0e8H
	DB	0d8H
	DB	0ffH
	DB	0f0H
	DB	0e8H
	DB	0e0H
	DB	0ffH
	DB	0f0H
	DB	0e8H
	DB	0d8H
	DB	0ffH
	DB	058H
	DB	030H
	DB	00H
	DB	0ffH
	DB	058H
	DB	034H
	DB	00H
	DB	0ffH
	DB	0d8H
	DB	0d0H
	DB	0c8H
	DB	0ffH
	DB	0e8H
	DB	0dcH
	DB	0d0H
	DB	0ffH
	DB	0e8H
	DB	0e4H
	DB	0d8H
	DB	0ffH
	DB	0f0H
	DB	0ecH
	DB	0e8H
	DB	0ffH
	DB	0f8H
	DB	0f0H
	DB	0e8H
	DB	0ffH
	DB	0f8H
	DB	0f8H
	DB	0f0H
	DB	0ffH
	DB	0f8H
	DB	0f8H
	DB	0f0H
	DB	0ffH
	DB	0f8H
	DB	0f8H
	DB	0f8H
	DB	0ffH
	DB	0f8H
	DB	0f8H
	DB	0f8H
	DB	0ffH
	DB	0f8H
	DB	0f8H
	DB	0f8H
	DB	0ffH
	DB	0f8H
	DB	0f8H
	DB	0f0H
	DB	0ffH
	DB	0f8H
	DB	0f8H
	DB	0f8H
	DB	0ffH
	DB	0f8H
	DB	0fcH
	DB	0f8H
	DB	0ffH
	DB	0f8H
	DB	0f8H
	DB	0f8H
	DB	0ffH
	DB	0f8H
	DB	0f8H
	DB	0f8H
	DB	0ffH
	DB	0f8H
	DB	0fcH
	DB	0f8H
	DB	0ffH
	DB	0f8H
	DB	0f8H
	DB	0f8H
	DB	0ffH
	DB	0f8H
	DB	0f8H
	DB	0f8H
	DB	0ffH
	DB	0f8H
	DB	0fcH
	DB	0f8H
	DB	0ffH
	DB	0f8H
	DB	0f8H
	DB	0f8H
	DB	0ffH
	DB	0f8H
	DB	0f8H
	DB	0f8H
	DB	0ffH
	DB	0f8H
	DB	0f8H
	DB	0f8H
	DB	0ffH
	DB	0f8H
	DB	0fcH
	DB	0f0H
	DB	0ffH
	DB	0f8H
	DB	0f8H
	DB	0f8H
	DB	0ffH
	DB	0f8H
	DB	0fcH
	DB	0f8H
	DB	0ffH
	DB	0f8H
	DB	0f8H
	DB	0f8H
	DB	0ffH
	DB	0f8H
	DB	0fcH
	DB	0f8H
	DB	0ffH
	DB	0f8H
	DB	0f8H
	DB	0f8H
	DB	0ffH
	DB	0f8H
	DB	0fcH
	DB	0f8H
	DB	0ffH
	DB	0f8H
	DB	0f8H
	DB	0f8H
	DB	0ffH
	DB	0f8H
	DB	0f8H
	DB	0f8H
	DB	0ffH
	DB	0f8H
	DB	0f8H
	DB	0f8H
	DB	0ffH
	DB	0f8H
	DB	0f8H
	DB	0f8H
	DB	0ffH
	DB	0f8H
	DB	0fcH
	DB	0f8H
	DB	0ffH
	DB	0f8H
	DB	0f8H
	DB	0f0H
	DB	0ffH
	DB	0f8H
	DB	0f8H
	DB	0f8H
	DB	0ffH
	DB	0f8H
	DB	0fcH
	DB	0f8H
	DB	0ffH
	DB	0f8H
	DB	0f8H
	DB	0f8H
	DB	0ffH
	DB	0f8H
	DB	0fcH
	DB	0f8H
	DB	0ffH
	DB	0f8H
	DB	0f8H
	DB	0f8H
	DB	0ffH
	DB	0f8H
	DB	0fcH
	DB	0f8H
	DB	0ffH
	DB	0f8H
	DB	0f8H
	DB	0f8H
	DB	0ffH
	DB	0f8H
	DB	0f8H
	DB	0f8H
	DB	0ffH
	DB	0f8H
	DB	0f8H
	DB	0f8H
	DB	0ffH
	DB	0f8H
	DB	0f8H
	DB	0f8H
	DB	0ffH
	DB	0f8H
	DB	0fcH
	DB	0f8H
	DB	0ffH
	DB	0f8H
	DB	0f8H
	DB	0f0H
	DB	0ffH
	DB	0f8H
	DB	0f8H
	DB	0f8H
	DB	0ffH
	DB	0f8H
	DB	0fcH
	DB	0f8H
	DB	0ffH
	DB	0f8H
	DB	0f8H
	DB	0f8H
	DB	0ffH
	DB	0f8H
	DB	0fcH
	DB	0f8H
	DB	0ffH
	DB	0f8H
	DB	0f8H
	DB	0f8H
	DB	0ffH
	DB	0f8H
	DB	0fcH
	DB	0f8H
	DB	0ffH
	DB	0f8H
	DB	0f8H
	DB	0f8H
	DB	0ffH
	DB	0f8H
	DB	0f8H
	DB	0f8H
	DB	0ffH
	DB	0f8H
	DB	0f8H
	DB	0f8H
	DB	0ffH
	DB	0f8H
	DB	0f8H
	DB	0f8H
	DB	0ffH
	DB	0f8H
	DB	0fcH
	DB	0f8H
	DB	0ffH
	DB	0f8H
	DB	0f8H
	DB	0f0H
	DB	0ffH
	DB	0f8H
	DB	0f8H
	DB	0f8H
	DB	0ffH
	DB	0f8H
	DB	0fcH
	DB	0f8H
	DB	0ffH
	DB	0f8H
	DB	0f8H
	DB	0f8H
	DB	0ffH
	DB	0f8H
	DB	0fcH
	DB	0f8H
	DB	0ffH
	DB	0f8H
	DB	0f8H
	DB	0f8H
	DB	0ffH
	DB	0f8H
	DB	0fcH
	DB	0f8H
	DB	0ffH
	DB	0f8H
	DB	0f8H
	DB	0f8H
	DB	0ffH
	DB	0f8H
	DB	0f8H
	DB	0f8H
	DB	0ffH
	DB	0f8H
	DB	0f8H
	DB	0f8H
	DB	0ffH
	DB	0f8H
	DB	0f8H
	DB	0f8H
	DB	0ffH
	DB	0f8H
	DB	0fcH
	DB	0f8H
	DB	0ffH
	DB	0f8H
	DB	0f8H
	DB	0f0H
	DB	0ffH
	DB	0f8H
	DB	0f8H
	DB	0f8H
	DB	0ffH
	DB	0f8H
	DB	0fcH
	DB	0f8H
	DB	0ffH
	DB	0f8H
	DB	0f8H
	DB	0f8H
	DB	0ffH
	DB	0f8H
	DB	0fcH
	DB	0f8H
	DB	0ffH
	DB	0f8H
	DB	0f8H
	DB	0f8H
	DB	0ffH
	DB	0f8H
	DB	0fcH
	DB	0f8H
	DB	0ffH
	DB	0f8H
	DB	0f8H
	DB	0f8H
	DB	0ffH
	DB	0f8H
	DB	0f8H
	DB	0f8H
	DB	0ffH
	DB	0f8H
	DB	0f8H
	DB	0f8H
	DB	0ffH
	DB	0f8H
	DB	0f8H
	DB	0f8H
	DB	0ffH
	DB	0f8H
	DB	0fcH
	DB	0f8H
	DB	0ffH
	DB	0f8H
	DB	0f8H
	DB	0f0H
	DB	0ffH
	DB	0f8H
	DB	0f8H
	DB	0f8H
	DB	0ffH
	DB	0f8H
	DB	0fcH
	DB	0f8H
	DB	0ffH
	DB	0f8H
	DB	0f8H
	DB	0f8H
	DB	0ffH
	DB	0f8H
	DB	0fcH
	DB	0f8H
	DB	0ffH
	DB	0f8H
	DB	0f8H
	DB	0f8H
	DB	0ffH
	DB	0f8H
	DB	0fcH
	DB	0f8H
	DB	0ffH
	DB	0f8H
	DB	0f8H
	DB	0f8H
	DB	0ffH
	DB	0f8H
	DB	0f8H
	DB	0f8H
	DB	0ffH
	DB	0f8H
	DB	0f8H
	DB	0f8H
	DB	0ffH
	DB	0f8H
	DB	0f8H
	DB	0f8H
	DB	0ffH
	DB	0f8H
	DB	0fcH
	DB	0f8H
	DB	0ffH
	DB	0f8H
	DB	0f8H
	DB	0f0H
	DB	0ffH
	DB	0f8H
	DB	0f8H
	DB	0f8H
	DB	0ffH
	DB	0f8H
	DB	0fcH
	DB	0f8H
	DB	0ffH
	DB	0f8H
	DB	0f8H
	DB	0f8H
	DB	0ffH
	DB	0f8H
	DB	0fcH
	DB	0f8H
	DB	0ffH
	DB	0f8H
	DB	0f8H
	DB	0f8H
	DB	0ffH
	DB	0f8H
	DB	0fcH
	DB	0f8H
	DB	0ffH
	DB	0f8H
	DB	0f8H
	DB	0f8H
	DB	0ffH
	DB	0f8H
	DB	0f8H
	DB	0f8H
	DB	0ffH
	DB	0f8H
	DB	0f8H
	DB	0f8H
	DB	0ffH
	DB	0f8H
	DB	0f8H
	DB	0f8H
	DB	0ffH
	DB	0f8H
	DB	0fcH
	DB	0f8H
	DB	0ffH
	DB	0f8H
	DB	0f8H
	DB	0f0H
	DB	0ffH
	DB	0f8H
	DB	0f8H
	DB	0f8H
	DB	0ffH
	DB	0f8H
	DB	0fcH
	DB	0f8H
	DB	0ffH
	DB	0f8H
	DB	0f8H
	DB	0f8H
	DB	0ffH
	DB	0f8H
	DB	0fcH
	DB	0f8H
	DB	0ffH
	DB	0f8H
	DB	0f8H
	DB	0f8H
	DB	0ffH
	DB	0f8H
	DB	0fcH
	DB	0f8H
	DB	0ffH
	DB	0f8H
	DB	0f8H
	DB	0f8H
	DB	0ffH
	DB	0f8H
	DB	0f8H
	DB	0f8H
	DB	0ffH
	DB	0f8H
	DB	0f8H
	DB	0f8H
	DB	0ffH
	DB	0f8H
	DB	0f8H
	DB	0f8H
	DB	0ffH
	DB	0f8H
	DB	0fcH
	DB	0f8H
	DB	0ffH
	DB	0f8H
	DB	0f8H
	DB	0f0H
	DB	0ffH
	DB	0f8H
	DB	0f8H
	DB	0f8H
	DB	0ffH
	DB	0f8H
	DB	0fcH
	DB	0f8H
	DB	0ffH
	DB	0f8H
	DB	0f8H
	DB	0f8H
	DB	0ffH
	DB	0f8H
	DB	0fcH
	DB	0f8H
	DB	0ffH
	DB	0f8H
	DB	0f8H
	DB	0f8H
	DB	0ffH
	DB	0f8H
	DB	0fcH
	DB	0f8H
	DB	0ffH
	DB	0f8H
	DB	0f8H
	DB	0f8H
	DB	0ffH
	DB	0f8H
	DB	0f8H
	DB	0f8H
	DB	0ffH
	DB	0f8H
	DB	0f8H
	DB	0f8H
	DB	0ffH
	DB	0f8H
	DB	0f8H
	DB	0f8H
	DB	0ffH
	DB	0f8H
	DB	0fcH
	DB	0f8H
	DB	0ffH
	DB	0f8H
	DB	0f8H
	DB	0f0H
	DB	0ffH
	DB	0f8H
	DB	0f8H
	DB	0f8H
	DB	0ffH
	DB	0f8H
	DB	0fcH
	DB	0f8H
	DB	0ffH
	DB	0f8H
	DB	0f8H
	DB	0f8H
	DB	0ffH
	DB	0f8H
	DB	0fcH
	DB	0f8H
	DB	0ffH
	DB	0f8H
	DB	0f8H
	DB	0f8H
	DB	0ffH
	DB	0f8H
	DB	0fcH
	DB	0f8H
	DB	0ffH
	DB	0f8H
	DB	0f8H
	DB	0f8H
	DB	0ffH
	DB	0f8H
	DB	0f8H
	DB	0f8H
	DB	0ffH
	DB	0f8H
	DB	0f8H
	DB	0f8H
	DB	0ffH
	DB	0f8H
	DB	0f8H
	DB	0f8H
	DB	0ffH
	DB	0f8H
	DB	0fcH
	DB	0f8H
	DB	0ffH
	DB	0f8H
	DB	0f8H
	DB	0f0H
	DB	0ffH
	DB	0f8H
	DB	0f8H
	DB	0f8H
	DB	0ffH
	DB	0f8H
	DB	0fcH
	DB	0f8H
	DB	0ffH
	DB	0f8H
	DB	0f8H
	DB	0f8H
	DB	0ffH
	DB	0f8H
	DB	0fcH
	DB	0f8H
	DB	0ffH
	DB	0f8H
	DB	0f8H
	DB	0f8H
	DB	0ffH
	DB	0f8H
	DB	0fcH
	DB	0f8H
	DB	0ffH
	DB	0f8H
	DB	0f8H
	DB	0f8H
	DB	0ffH
	DB	0f8H
	DB	0f8H
	DB	0f8H
	DB	0ffH
	DB	0f8H
	DB	0f8H
	DB	0f8H
	DB	0ffH
	DB	0f8H
	DB	0f8H
	DB	0f8H
	DB	0ffH
	DB	0f8H
	DB	0fcH
	DB	0f8H
	DB	0ffH
	DB	0f8H
	DB	0f8H
	DB	0f0H
	DB	0ffH
	DB	0f8H
	DB	0f8H
	DB	0f8H
	DB	0ffH
	DB	0f8H
	DB	0fcH
	DB	0f8H
	DB	0ffH
	DB	0f8H
	DB	0f8H
	DB	0f8H
	DB	0ffH
	DB	0f8H
	DB	0fcH
	DB	0f8H
	DB	0ffH
	DB	0f8H
	DB	0f8H
	DB	0f8H
	DB	0ffH
	DB	0f8H
	DB	0fcH
	DB	0f8H
	DB	0ffH
	DB	0f8H
	DB	0f8H
	DB	0f8H
	DB	0ffH
	DB	0f8H
	DB	0f8H
	DB	0f8H
	DB	0ffH
	DB	0f8H
	DB	0f8H
	DB	0f8H
	DB	0ffH
	DB	0f8H
	DB	0f8H
	DB	0f8H
	DB	0ffH
	DB	0f8H
	DB	0fcH
	DB	0f8H
	DB	0ffH
	DB	0f8H
	DB	0f8H
	DB	0f0H
	DB	0ffH
	DB	0f8H
	DB	0f8H
	DB	0f8H
	DB	0ffH
	DB	0f8H
	DB	0fcH
	DB	0f8H
	DB	0ffH
	DB	0f8H
	DB	0f8H
	DB	0f8H
	DB	0ffH
	DB	0f8H
	DB	0fcH
	DB	0f8H
	DB	0ffH
	DB	0f8H
	DB	0f8H
	DB	0f8H
	DB	0ffH
	DB	0f8H
	DB	0fcH
	DB	0f8H
	DB	0ffH
	DB	0f8H
	DB	0f8H
	DB	0f8H
	DB	0ffH
	DB	0f8H
	DB	0f8H
	DB	0f8H
	DB	0ffH
	DB	0f8H
	DB	0f8H
	DB	0f8H
	DB	0ffH
	DB	0f8H
	DB	0f8H
	DB	0f8H
	DB	0ffH
	DB	0f8H
	DB	0fcH
	DB	0f8H
	DB	0ffH
	DB	0f8H
	DB	0f8H
	DB	0f0H
	DB	0ffH
	DB	0f8H
	DB	0f8H
	DB	0f8H
	DB	0ffH
	DB	0f8H
	DB	0fcH
	DB	0f8H
	DB	0ffH
	DB	0f8H
	DB	0f8H
	DB	0f8H
	DB	0ffH
	DB	0f8H
	DB	0fcH
	DB	0f8H
	DB	0ffH
	DB	0f8H
	DB	0f8H
	DB	0f8H
	DB	0ffH
	DB	0f8H
	DB	0fcH
	DB	0f8H
	DB	0ffH
	DB	0f8H
	DB	0f8H
	DB	0f8H
	DB	0ffH
	DB	0f8H
	DB	0f8H
	DB	0f8H
	DB	0ffH
	DB	0f8H
	DB	0f8H
	DB	0f8H
	DB	0ffH
	DB	0f8H
	DB	0f8H
	DB	0f8H
	DB	0ffH
	DB	0f8H
	DB	0fcH
	DB	0f8H
	DB	0ffH
	DB	0f8H
	DB	0f8H
	DB	0f0H
	DB	0ffH
	DB	0f8H
	DB	0f8H
	DB	0f8H
	DB	0ffH
	DB	0f8H
	DB	0fcH
	DB	0f8H
	DB	0ffH
	DB	0f8H
	DB	0f8H
	DB	0f8H
	DB	0ffH
	DB	0f8H
	DB	0fcH
	DB	0f8H
	DB	0ffH
	DB	0f8H
	DB	0f8H
	DB	0f8H
	DB	0ffH
	DB	0f8H
	DB	0fcH
	DB	0f8H
	DB	0ffH
	DB	0f8H
	DB	0f8H
	DB	0f8H
	DB	0ffH
	DB	0f8H
	DB	0f8H
	DB	0f8H
	DB	0ffH
	DB	0f8H
	DB	0f8H
	DB	0f8H
	DB	0ffH
	DB	0f8H
	DB	0f8H
	DB	0f8H
	DB	0ffH
	DB	0f8H
	DB	0fcH
	DB	0f8H
	DB	0ffH
	DB	0f8H
	DB	0f8H
	DB	0f0H
	DB	0ffH
	DB	0f8H
	DB	0f8H
	DB	0f8H
	DB	0ffH
	DB	0f8H
	DB	0fcH
	DB	0f8H
	DB	0ffH
	DB	0f8H
	DB	0f8H
	DB	0f8H
	DB	0ffH
	DB	0f8H
	DB	0fcH
	DB	0f8H
	DB	0ffH
	DB	0f8H
	DB	0f8H
	DB	0f8H
	DB	0ffH
	DB	0f8H
	DB	0fcH
	DB	0f8H
	DB	0ffH
	DB	0f8H
	DB	0f8H
	DB	0f8H
	DB	0ffH
	DB	0f8H
	DB	0f8H
	DB	0f8H
	DB	0ffH
	DB	0f8H
	DB	0f8H
	DB	0f8H
	DB	0ffH
	DB	0f8H
	DB	0f8H
	DB	0f8H
	DB	0ffH
	DB	0f8H
	DB	0fcH
	DB	0f8H
	DB	0ffH
	DB	0f8H
	DB	0f8H
	DB	0f0H
	DB	0ffH
	DB	0f8H
	DB	0f8H
	DB	0f8H
	DB	0ffH
	DB	0f8H
	DB	0fcH
	DB	0f8H
	DB	0ffH
	DB	0f8H
	DB	0f8H
	DB	0f8H
	DB	0ffH
	DB	0f8H
	DB	0fcH
	DB	0f8H
	DB	0ffH
	DB	0f8H
	DB	0f8H
	DB	0f8H
	DB	0ffH
	DB	0f8H
	DB	0fcH
	DB	0f8H
	DB	0ffH
	DB	0f8H
	DB	0f8H
	DB	0f8H
	DB	0ffH
	DB	0f8H
	DB	0f8H
	DB	0f8H
	DB	0ffH
	DB	0f8H
	DB	0f8H
	DB	0f8H
	DB	0ffH
	DB	0f8H
	DB	0f8H
	DB	0f8H
	DB	0ffH
	DB	0f8H
	DB	0fcH
	DB	0f8H
	DB	0ffH
	DB	0f8H
	DB	0f8H
	DB	0f0H
	DB	0ffH
	DB	0f8H
	DB	0f8H
	DB	0f8H
	DB	0ffH
	DB	0f8H
	DB	0fcH
	DB	0f8H
	DB	0ffH
	DB	0f8H
	DB	0f8H
	DB	0f8H
	DB	0ffH
	DB	0f8H
	DB	0fcH
	DB	0f8H
	DB	0ffH
	DB	0f8H
	DB	0f8H
	DB	0f8H
	DB	0ffH
	DB	0f8H
	DB	0fcH
	DB	0f8H
	DB	0ffH
	DB	0f8H
	DB	0f8H
	DB	0f8H
	DB	0ffH
	DB	0f8H
	DB	0f8H
	DB	0f8H
	DB	0ffH
	DB	0f8H
	DB	0f8H
	DB	0f8H
	DB	0ffH
	DB	0f8H
	DB	0f8H
	DB	0f8H
	DB	0ffH
	DB	0f8H
	DB	0fcH
	DB	0f8H
	DB	0ffH
	DB	0f8H
	DB	0f8H
	DB	0f0H
	DB	0ffH
	DB	0f8H
	DB	0f8H
	DB	0f8H
	DB	0ffH
	DB	0f8H
	DB	0fcH
	DB	0f8H
	DB	0ffH
	DB	0f8H
	DB	0f8H
	DB	0f8H
	DB	0ffH
	DB	0f8H
	DB	0fcH
	DB	0f8H
	DB	0ffH
	DB	0f8H
	DB	0f8H
	DB	0f8H
	DB	0ffH
	DB	0f8H
	DB	0fcH
	DB	0f8H
	DB	0ffH
	DB	0f8H
	DB	0f8H
	DB	0f8H
	DB	0ffH
	DB	0f8H
	DB	0f8H
	DB	0f8H
	DB	0ffH
	DB	0f8H
	DB	0f8H
	DB	0f8H
	DB	0ffH
	DB	0f8H
	DB	0f8H
	DB	0f8H
	DB	0ffH
	DB	0f8H
	DB	0fcH
	DB	0f8H
	DB	0ffH
	DB	0f8H
	DB	0f8H
	DB	0f0H
	DB	0ffH
	DB	0f8H
	DB	0f8H
	DB	0f8H
	DB	0ffH
	DB	0f8H
	DB	0fcH
	DB	0f8H
	DB	0ffH
	DB	0f8H
	DB	0f8H
	DB	0f8H
	DB	0ffH
	DB	0f8H
	DB	0fcH
	DB	0f8H
	DB	0ffH
	DB	0f8H
	DB	0f8H
	DB	0f8H
	DB	0ffH
	DB	0f8H
	DB	0fcH
	DB	0f8H
	DB	0ffH
	DB	0f8H
	DB	0f8H
	DB	0f0H
	DB	0ffH
	DB	0f8H
	DB	0f8H
	DB	0f8H
	DB	0ffH
	DB	0f8H
	DB	0f8H
	DB	0f8H
	DB	0ffH
	DB	0f8H
	DB	0f8H
	DB	0f0H
	DB	0ffH
	DB	0f8H
	DB	0f8H
	DB	0f8H
	DB	0ffH
	DB	0f8H
	DB	0f8H
	DB	0f8H
	DB	0ffH
	DB	0f8H
	DB	0fcH
	DB	0f0H
	DB	0ffH
	DB	0f8H
	DB	0f8H
	DB	0f8H
	DB	0ffH
	DB	0f8H
	DB	0f4H
	DB	0f0H
	DB	0ffH
	DB	058H
	DB	034H
	DB	00H
	DB	0ffH
	DB	050H
	DB	034H
	DB	00H
	DB	0fbH
	DB	058H
	DB	030H
	DB	00H
	DB	02cH
	DB	058H
	DB	034H
	DB	00H
	DB	020H
	DB	050H
	DB	034H
	DB	00H
	DB	018H
	DB	058H
	DB	034H
	DB	00H
	DB	010H
	DB	058H
	DB	030H
	DB	00H
	DB	08H
	DB	050H
	DB	034H
	DB	00H
	DB	04H
	DB	050H
	DB	034H
	DB	00H
	DB	00H
	DB	058H
	DB	034H
	DB	00H
	DB	00H
	DB	050H
	DB	030H
	DB	00H
	DB	00H
	DB	0f8H
	DB	0fcH
	DB	0f8H
	DB	00H
	DB	0f8H
	DB	0fcH
	DB	0f8H
	DB	00H
	DB	0f8H
	DB	0fcH
	DB	0f8H
	DB	00H
	DB	050H
	DB	034H
	DB	00H
	DB	00H
	DB	058H
	DB	034H
	DB	00H
	DB	00H
	DB	058H
	DB	034H
	DB	00H
	DB	04H
	DB	050H
	DB	030H
	DB	00H
	DB	08H
	DB	058H
	DB	034H
	DB	00H
	DB	010H
	DB	058H
	DB	034H
	DB	00H
	DB	018H
	DB	050H
	DB	034H
	DB	00H
	DB	024H
	DB	058H
	DB	030H
	DB	00H
	DB	030H
	DB	050H
	DB	034H
	DB	00H
	DB	0ffH
	DB	058H
	DB	034H
	DB	00H
	DB	0ffH
	DB	0f0H
	DB	0e8H
	DB	0d8H
	DB	0ffH
	DB	0f0H
	DB	0e8H
	DB	0e0H
	DB	0ffH
	DB	0f0H
	DB	0e8H
	DB	0d8H
	DB	0ffH
	DB	0f0H
	DB	0e8H
	DB	0d8H
	DB	0ffH
	DB	0f0H
	DB	0e8H
	DB	0e0H
	DB	0ffH
	DB	0f0H
	DB	0e8H
	DB	0d8H
	DB	0ffH
	DB	0f0H
	DB	0e8H
	DB	0d8H
	DB	0ffH
	DB	0f0H
	DB	0e8H
	DB	0e0H
	DB	0ffH
	DB	0f0H
	DB	0e8H
	DB	0d8H
	DB	0ffH
	DB	0f0H
	DB	0e8H
	DB	0d8H
	DB	0ffH
	DB	0f0H
	DB	0e8H
	DB	0e0H
	DB	0ffH
	DB	0f0H
	DB	0e8H
	DB	0d8H
	DB	0ffH
	DB	0f0H
	DB	0e8H
	DB	0d8H
	DB	0ffH
	DB	0f0H
	DB	0e8H
	DB	0e0H
	DB	0ffH
	DB	0f0H
	DB	0e8H
	DB	0d8H
	DB	0ffH
	DB	0f8H
	DB	0e8H
	DB	0d8H
	DB	0ffH
	DB	0f0H
	DB	0e8H
	DB	0e0H
	DB	0ffH
	DB	0f0H
	DB	0e8H
	DB	0d8H
	DB	0ffH
	DB	0f0H
	DB	0e8H
	DB	0d8H
	DB	0ffH
	DB	0f0H
	DB	0e8H
	DB	0e0H
	DB	0ffH
	DB	0f0H
	DB	0e8H
	DB	0e0H
	DB	0ffH
	DB	0f0H
	DB	0e8H
	DB	0d8H
	DB	0ffH
	DB	0f0H
	DB	0e8H
	DB	0e0H
	DB	0ffH
	DB	0f0H
	DB	0e8H
	DB	0d8H
	DB	0ffH
	DB	0f0H
	DB	0e8H
	DB	0e0H
	DB	0ffH
	DB	0f8H
	DB	0e8H
	DB	0d8H
	DB	0ffH
	DB	0f0H
	DB	0e8H
	DB	0e0H
	DB	0ffH
	DB	0f0H
	DB	0e8H
	DB	0d8H
	DB	0ffH
	DB	0f0H
	DB	0e8H
	DB	0e0H
	DB	0ffH
	DB	0f0H
	DB	0e8H
	DB	0e0H
	DB	0ffH
	DB	0f0H
	DB	0e8H
	DB	0d8H
	DB	0ffH
	DB	0f0H
	DB	0e8H
	DB	0e0H
	DB	0ffH
	DB	0f0H
	DB	0e8H
	DB	0d8H
	DB	0ffH
	DB	0f0H
	DB	0e8H
	DB	0e0H
	DB	0ffH
	DB	0f0H
	DB	0e8H
	DB	0d8H
	DB	0ffH
	DB	0f0H
	DB	0e8H
	DB	0e0H
	DB	0ffH
	DB	0f0H
	DB	0e8H
	DB	0d8H
	DB	0ffH
	DB	0f0H
	DB	0e8H
	DB	0e0H
	DB	0ffH
	DB	0f0H
	DB	0e8H
	DB	0e0H
	DB	0ffH
	DB	0f0H
	DB	0e8H
	DB	0d8H
	DB	0ffH
	DB	0f0H
	DB	0e8H
	DB	0e0H
	DB	0ffH
	DB	0f0H
	DB	0e8H
	DB	0d8H
	DB	0ffH
	DB	0f0H
	DB	0e8H
	DB	0e0H
	DB	0ffH
	DB	0f8H
	DB	0e8H
	DB	0d8H
	DB	0ffH
	DB	0f0H
	DB	0e8H
	DB	0e0H
	DB	0ffH
	DB	0f0H
	DB	0e8H
	DB	0d8H
	DB	0ffH
	DB	0f0H
	DB	0e8H
	DB	0e0H
	DB	0ffH
	DB	0f0H
	DB	0e8H
	DB	0e0H
	DB	0ffH
	DB	0f0H
	DB	0e8H
	DB	0d8H
	DB	0ffH
	DB	0f0H
	DB	0e8H
	DB	0e0H
	DB	0ffH
	DB	0f0H
	DB	0e8H
	DB	0d8H
	DB	0ffH
	DB	0f0H
	DB	0e8H
	DB	0e0H
	DB	0ffH
	DB	0f8H
	DB	0e8H
	DB	0d8H
	DB	0ffH
	DB	0f0H
	DB	0e8H
	DB	0e0H
	DB	0ffH
	DB	0f0H
	DB	0e8H
	DB	0d8H
	DB	0ffH
	DB	0f0H
	DB	0e8H
	DB	0e0H
	DB	0ffH
	DB	0f0H
	DB	0e8H
	DB	0e0H
	DB	0ffH
	DB	0f0H
	DB	0e8H
	DB	0d8H
	DB	0ffH
	DB	0f0H
	DB	0e8H
	DB	0e0H
	DB	0ffH
	DB	0f0H
	DB	0e8H
	DB	0d8H
	DB	0ffH
	DB	0f0H
	DB	0e8H
	DB	0e0H
	DB	0ffH
	DB	0f0H
	DB	0e8H
	DB	0d8H
	DB	0ffH
	DB	0f0H
	DB	0e8H
	DB	0e0H
	DB	0ffH
	DB	0f0H
	DB	0e8H
	DB	0d8H
	DB	0ffH
	DB	0f0H
	DB	0e8H
	DB	0e0H
	DB	0ffH
	DB	0f0H
	DB	0e8H
	DB	0e0H
	DB	0ffH
	DB	0f0H
	DB	0e8H
	DB	0d8H
	DB	0ffH
	DB	0f0H
	DB	0e8H
	DB	0e0H
	DB	0ffH
	DB	0f0H
	DB	0e8H
	DB	0d8H
	DB	0ffH
	DB	0f0H
	DB	0e8H
	DB	0e0H
	DB	0ffH
	DB	0f8H
	DB	0e8H
	DB	0d8H
	DB	0ffH
	DB	0f0H
	DB	0e8H
	DB	0e0H
	DB	0ffH
	DB	0f0H
	DB	0e8H
	DB	0d8H
	DB	0ffH
	DB	0f0H
	DB	0e8H
	DB	0e0H
	DB	0ffH
	DB	0f0H
	DB	0e8H
	DB	0e0H
	DB	0ffH
	DB	0f0H
	DB	0e8H
	DB	0d8H
	DB	0ffH
	DB	0f0H
	DB	0e8H
	DB	0e0H
	DB	0ffH
	DB	0f0H
	DB	0e8H
	DB	0d8H
	DB	0ffH
	DB	0f0H
	DB	0e8H
	DB	0e0H
	DB	0ffH
	DB	0f8H
	DB	0e8H
	DB	0d8H
	DB	0ffH
	DB	0f0H
	DB	0e8H
	DB	0e0H
	DB	0ffH
	DB	0f0H
	DB	0e8H
	DB	0d8H
	DB	0ffH
	DB	0f0H
	DB	0e8H
	DB	0e0H
	DB	0ffH
	DB	0f0H
	DB	0e8H
	DB	0e0H
	DB	0ffH
	DB	0f0H
	DB	0e8H
	DB	0d8H
	DB	0ffH
	DB	0f0H
	DB	0e8H
	DB	0d8H
	DB	0ffH
	DB	0f0H
	DB	0e8H
	DB	0e0H
	DB	0ffH
	DB	0f0H
	DB	0e8H
	DB	0d8H
	DB	0ffH
	DB	058H
	DB	034H
	DB	00H
	DB	0ffH
	DB	058H
	DB	034H
	DB	00H
	DB	0ffH
	DB	0d8H
	DB	0d0H
	DB	0c8H
	DB	0ffH
	DB	0e0H
	DB	0dcH
	DB	0d0H
	DB	0ffH
	DB	0e8H
	DB	0e4H
	DB	0e0H
	DB	0ffH
	DB	0f0H
	DB	0ecH
	DB	0e8H
	DB	0ffH
	DB	0f0H
	DB	0f0H
	DB	0e8H
	DB	0ffH
	DB	0f8H
	DB	0f4H
	DB	0f0H
	DB	0ffH
	DB	0f8H
	DB	0f8H
	DB	0f8H
	DB	0ffH
	DB	0f8H
	DB	0f8H
	DB	0f8H
	DB	0ffH
	DB	0f8H
	DB	0fcH
	DB	0f8H
	DB	0ffH
	DB	0f8H
	DB	0f8H
	DB	0f8H
	DB	0ffH
	DB	0f8H
	DB	0f8H
	DB	0f8H
	DB	0ffH
	DB	0f8H
	DB	0fcH
	DB	0f8H
	DB	0ffH
	DB	0f8H
	DB	0f8H
	DB	0f8H
	DB	0ffH
	DB	0f8H
	DB	0f8H
	DB	0f0H
	DB	0ffH
	DB	0f8H
	DB	0fcH
	DB	0f8H
	DB	0ffH
	DB	0f8H
	DB	0f8H
	DB	0f8H
	DB	0ffH
	DB	0f8H
	DB	0f8H
	DB	0f0H
	DB	0ffH
	DB	0f8H
	DB	0fcH
	DB	0f8H
	DB	0ffH
	DB	0f8H
	DB	0f8H
	DB	0f8H
	DB	0ffH
	DB	0f8H
	DB	0f8H
	DB	0f0H
	DB	0ffH
	DB	0f8H
	DB	0fcH
	DB	0f8H
	DB	0ffH
	DB	0f8H
	DB	0f8H
	DB	0f8H
	DB	0ffH
	DB	0f8H
	DB	0f8H
	DB	0f8H
	DB	0ffH
	DB	0f8H
	DB	0f8H
	DB	0f8H
	DB	0ffH
	DB	0f8H
	DB	0f8H
	DB	0f8H
	DB	0ffH
	DB	0f8H
	DB	0fcH
	DB	0f8H
	DB	0ffH
	DB	0f8H
	DB	0f8H
	DB	0f0H
	DB	0ffH
	DB	0f8H
	DB	0f8H
	DB	0f8H
	DB	0ffH
	DB	0f8H
	DB	0f8H
	DB	0f8H
	DB	0ffH
	DB	0f8H
	DB	0fcH
	DB	0f0H
	DB	0ffH
	DB	0f8H
	DB	0fcH
	DB	0f8H
	DB	0ffH
	DB	0f8H
	DB	0f8H
	DB	0f8H
	DB	0ffH
	DB	0f8H
	DB	0f8H
	DB	0f8H
	DB	0ffH
	DB	0f8H
	DB	0f8H
	DB	0f8H
	DB	0ffH
	DB	0f8H
	DB	0f8H
	DB	0f8H
	DB	0ffH
	DB	0f8H
	DB	0fcH
	DB	0f8H
	DB	0ffH
	DB	0f8H
	DB	0f8H
	DB	0f8H
	DB	0ffH
	DB	0f8H
	DB	0f8H
	DB	0f0H
	DB	0ffH
	DB	0f8H
	DB	0f8H
	DB	0f8H
	DB	0ffH
	DB	0f8H
	DB	0fcH
	DB	0f8H
	DB	0ffH
	DB	0f8H
	DB	0f8H
	DB	0f0H
	DB	0ffH
	DB	0f8H
	DB	0f8H
	DB	0f8H
	DB	0ffH
	DB	0f8H
	DB	0fcH
	DB	0f8H
	DB	0ffH
	DB	0f8H
	DB	0fcH
	DB	0f0H
	DB	0ffH
	DB	0f8H
	DB	0f8H
	DB	0f8H
	DB	0ffH
	DB	0f8H
	DB	0f8H
	DB	0f8H
	DB	0ffH
	DB	0f8H
	DB	0f8H
	DB	0f8H
	DB	0ffH
	DB	0f8H
	DB	0fcH
	DB	0f8H
	DB	0ffH
	DB	0f8H
	DB	0f8H
	DB	0f8H
	DB	0ffH
	DB	0f8H
	DB	0f8H
	DB	0f8H
	DB	0ffH
	DB	0f8H
	DB	0f8H
	DB	0f0H
	DB	0ffH
	DB	0f8H
	DB	0fcH
	DB	0f8H
	DB	0ffH
	DB	0f8H
	DB	0f8H
	DB	0f8H
	DB	0ffH
	DB	0f8H
	DB	0f8H
	DB	0f0H
	DB	0ffH
	DB	0f8H
	DB	0fcH
	DB	0f8H
	DB	0ffH
	DB	0f8H
	DB	0fcH
	DB	0f8H
	DB	0ffH
	DB	0f8H
	DB	0f8H
	DB	0f8H
	DB	0ffH
	DB	0f8H
	DB	0f8H
	DB	0f8H
	DB	0ffH
	DB	0f8H
	DB	0f8H
	DB	0f8H
	DB	0ffH
	DB	0f8H
	DB	0fcH
	DB	0f8H
	DB	0ffH
	DB	0f8H
	DB	0f8H
	DB	0f8H
	DB	0ffH
	DB	0f8H
	DB	0f8H
	DB	0f0H
	DB	0ffH
	DB	0f8H
	DB	0f8H
	DB	0f8H
	DB	0ffH
	DB	0f8H
	DB	0fcH
	DB	0f8H
	DB	0ffH
	DB	0f8H
	DB	0f8H
	DB	0f0H
	DB	0ffH
	DB	0f8H
	DB	0f8H
	DB	0f8H
	DB	0ffH
	DB	0f8H
	DB	0fcH
	DB	0f8H
	DB	0ffH
	DB	0f8H
	DB	0fcH
	DB	0f0H
	DB	0ffH
	DB	0f8H
	DB	0f8H
	DB	0f8H
	DB	0ffH
	DB	0f8H
	DB	0f8H
	DB	0f8H
	DB	0ffH
	DB	0f8H
	DB	0f8H
	DB	0f8H
	DB	0ffH
	DB	0f8H
	DB	0fcH
	DB	0f8H
	DB	0ffH
	DB	0f8H
	DB	0f8H
	DB	0f8H
	DB	0ffH
	DB	0f8H
	DB	0f8H
	DB	0f8H
	DB	0ffH
	DB	0f8H
	DB	0f8H
	DB	0f0H
	DB	0ffH
	DB	0f8H
	DB	0fcH
	DB	0f8H
	DB	0ffH
	DB	0f8H
	DB	0f8H
	DB	0f8H
	DB	0ffH
	DB	0f8H
	DB	0f8H
	DB	0f0H
	DB	0ffH
	DB	0f8H
	DB	0fcH
	DB	0f8H
	DB	0ffH
	DB	0f8H
	DB	0fcH
	DB	0f8H
	DB	0ffH
	DB	0f8H
	DB	0f8H
	DB	0f8H
	DB	0ffH
	DB	0f8H
	DB	0f8H
	DB	0f8H
	DB	0ffH
	DB	0f8H
	DB	0f8H
	DB	0f8H
	DB	0ffH
	DB	0f8H
	DB	0fcH
	DB	0f8H
	DB	0ffH
	DB	0f8H
	DB	0f8H
	DB	0f8H
	DB	0ffH
	DB	0f8H
	DB	0f8H
	DB	0f0H
	DB	0ffH
	DB	0f8H
	DB	0f8H
	DB	0f8H
	DB	0ffH
	DB	0f8H
	DB	0fcH
	DB	0f8H
	DB	0ffH
	DB	0f8H
	DB	0f8H
	DB	0f0H
	DB	0ffH
	DB	0f8H
	DB	0f8H
	DB	0f8H
	DB	0ffH
	DB	0f8H
	DB	0fcH
	DB	0f8H
	DB	0ffH
	DB	0f8H
	DB	0fcH
	DB	0f0H
	DB	0ffH
	DB	0f8H
	DB	0f8H
	DB	0f8H
	DB	0ffH
	DB	0f8H
	DB	0f8H
	DB	0f8H
	DB	0ffH
	DB	0f8H
	DB	0f8H
	DB	0f8H
	DB	0ffH
	DB	0f8H
	DB	0fcH
	DB	0f8H
	DB	0ffH
	DB	0f8H
	DB	0f8H
	DB	0f8H
	DB	0ffH
	DB	0f8H
	DB	0f8H
	DB	0f8H
	DB	0ffH
	DB	0f8H
	DB	0f8H
	DB	0f0H
	DB	0ffH
	DB	0f8H
	DB	0fcH
	DB	0f8H
	DB	0ffH
	DB	0f8H
	DB	0f8H
	DB	0f8H
	DB	0ffH
	DB	0f8H
	DB	0f8H
	DB	0f0H
	DB	0ffH
	DB	0f8H
	DB	0fcH
	DB	0f8H
	DB	0ffH
	DB	0f8H
	DB	0fcH
	DB	0f8H
	DB	0ffH
	DB	0f8H
	DB	0f8H
	DB	0f8H
	DB	0ffH
	DB	0f8H
	DB	0f8H
	DB	0f8H
	DB	0ffH
	DB	0f8H
	DB	0f8H
	DB	0f8H
	DB	0ffH
	DB	0f8H
	DB	0fcH
	DB	0f8H
	DB	0ffH
	DB	0f8H
	DB	0f8H
	DB	0f8H
	DB	0ffH
	DB	0f8H
	DB	0f8H
	DB	0f0H
	DB	0ffH
	DB	0f8H
	DB	0f8H
	DB	0f8H
	DB	0ffH
	DB	0f8H
	DB	0fcH
	DB	0f8H
	DB	0ffH
	DB	0f8H
	DB	0f8H
	DB	0f0H
	DB	0ffH
	DB	0f8H
	DB	0f8H
	DB	0f8H
	DB	0ffH
	DB	0f8H
	DB	0fcH
	DB	0f8H
	DB	0ffH
	DB	0f8H
	DB	0fcH
	DB	0f0H
	DB	0ffH
	DB	0f8H
	DB	0f8H
	DB	0f8H
	DB	0ffH
	DB	0f8H
	DB	0f8H
	DB	0f8H
	DB	0ffH
	DB	0f8H
	DB	0f8H
	DB	0f8H
	DB	0ffH
	DB	0f8H
	DB	0fcH
	DB	0f8H
	DB	0ffH
	DB	0f8H
	DB	0f8H
	DB	0f8H
	DB	0ffH
	DB	0f8H
	DB	0f8H
	DB	0f8H
	DB	0ffH
	DB	0f8H
	DB	0f8H
	DB	0f0H
	DB	0ffH
	DB	0f8H
	DB	0fcH
	DB	0f8H
	DB	0ffH
	DB	0f8H
	DB	0f8H
	DB	0f8H
	DB	0ffH
	DB	0f8H
	DB	0f8H
	DB	0f0H
	DB	0ffH
	DB	0f8H
	DB	0fcH
	DB	0f8H
	DB	0ffH
	DB	0f8H
	DB	0fcH
	DB	0f8H
	DB	0ffH
	DB	0f8H
	DB	0f8H
	DB	0f8H
	DB	0ffH
	DB	0f8H
	DB	0f8H
	DB	0f8H
	DB	0ffH
	DB	0f8H
	DB	0f8H
	DB	0f8H
	DB	0ffH
	DB	0f8H
	DB	0fcH
	DB	0f8H
	DB	0ffH
	DB	0f8H
	DB	0f8H
	DB	0f8H
	DB	0ffH
	DB	0f8H
	DB	0f8H
	DB	0f0H
	DB	0ffH
	DB	0f8H
	DB	0f8H
	DB	0f8H
	DB	0ffH
	DB	0f8H
	DB	0fcH
	DB	0f8H
	DB	0ffH
	DB	0f8H
	DB	0f8H
	DB	0f0H
	DB	0ffH
	DB	0f8H
	DB	0f8H
	DB	0f8H
	DB	0ffH
	DB	0f8H
	DB	0fcH
	DB	0f8H
	DB	0ffH
	DB	0f8H
	DB	0fcH
	DB	0f0H
	DB	0ffH
	DB	0f8H
	DB	0f8H
	DB	0f8H
	DB	0ffH
	DB	0f8H
	DB	0f8H
	DB	0f8H
	DB	0ffH
	DB	0f8H
	DB	0f8H
	DB	0f8H
	DB	0ffH
	DB	0f8H
	DB	0fcH
	DB	0f8H
	DB	0ffH
	DB	0f8H
	DB	0f8H
	DB	0f8H
	DB	0ffH
	DB	0f8H
	DB	0f8H
	DB	0f8H
	DB	0ffH
	DB	0f8H
	DB	0f8H
	DB	0f0H
	DB	0ffH
	DB	0f8H
	DB	0fcH
	DB	0f8H
	DB	0ffH
	DB	0f8H
	DB	0f8H
	DB	0f8H
	DB	0ffH
	DB	0f8H
	DB	0f8H
	DB	0f0H
	DB	0ffH
	DB	0f8H
	DB	0fcH
	DB	0f8H
	DB	0ffH
	DB	0f8H
	DB	0fcH
	DB	0f8H
	DB	0ffH
	DB	0f8H
	DB	0f8H
	DB	0f8H
	DB	0ffH
	DB	0f8H
	DB	0f8H
	DB	0f8H
	DB	0ffH
	DB	0f8H
	DB	0f8H
	DB	0f8H
	DB	0ffH
	DB	0f8H
	DB	0fcH
	DB	0f8H
	DB	0ffH
	DB	0f8H
	DB	0f8H
	DB	0f8H
	DB	0ffH
	DB	0f8H
	DB	0f8H
	DB	0f0H
	DB	0ffH
	DB	0f8H
	DB	0f8H
	DB	0f8H
	DB	0ffH
	DB	0f8H
	DB	0fcH
	DB	0f8H
	DB	0ffH
	DB	0f8H
	DB	0f8H
	DB	0f0H
	DB	0ffH
	DB	0f8H
	DB	0f8H
	DB	0f8H
	DB	0ffH
	DB	0f8H
	DB	0fcH
	DB	0f8H
	DB	0ffH
	DB	0f8H
	DB	0fcH
	DB	0f0H
	DB	0ffH
	DB	0f8H
	DB	0f8H
	DB	0f8H
	DB	0ffH
	DB	0f8H
	DB	0f8H
	DB	0f8H
	DB	0ffH
	DB	0f8H
	DB	0f8H
	DB	0f8H
	DB	0ffH
	DB	0f8H
	DB	0fcH
	DB	0f8H
	DB	0ffH
	DB	0f8H
	DB	0f8H
	DB	0f8H
	DB	0ffH
	DB	0f8H
	DB	0f8H
	DB	0f8H
	DB	0ffH
	DB	0f8H
