; Listing generated by Microsoft (R) Optimizing Compiler Version 19.27.29112.0 

	TITLE	D:\hackTuesProject\project\TouchGFX\generated\images\src\Bathtub\Temperature_wheel\image_gradient_center.cpp
	.686P
	.XMM
	include listing.inc
	.model	flat

INCLUDELIB MSVCRTD
INCLUDELIB OLDNAMES

PUBLIC	?image_gradient_center@@3QBEB			; image_gradient_center
CONST	SEGMENT
?image_gradient_center@@3QBEB DB 0f8H			; image_gradient_center
	DB	0fcH
	DB	0f8H
	DB	00H
	DB	0f8H
	DB	0fcH
	DB	0f8H
	DB	00H
	DB	0f8H
	DB	0fcH
	DB	0f8H
	DB	00H
	DB	0f8H
	DB	0fcH
	DB	0f8H
	DB	00H
	DB	0f8H
	DB	0fcH
	DB	0f8H
	DB	00H
	DB	0f8H
	DB	0fcH
	DB	0f8H
	DB	00H
	DB	0f8H
	DB	0fcH
	DB	0f8H
	DB	00H
	DB	0f8H
	DB	0fcH
	DB	0f8H
	DB	00H
	DB	0f8H
	DB	0fcH
	DB	0f8H
	DB	00H
	DB	0f8H
	DB	0fcH
	DB	0f8H
	DB	00H
	DB	0f8H
	DB	0fcH
	DB	0f8H
	DB	00H
	DB	0f8H
	DB	0fcH
	DB	0f8H
	DB	00H
	DB	0f8H
	DB	0fcH
	DB	0f8H
	DB	00H
	DB	0f8H
	DB	0fcH
	DB	0f8H
	DB	00H
	DB	0f8H
	DB	0fcH
	DB	0f8H
	DB	00H
	DB	0f8H
	DB	0fcH
	DB	0f8H
	DB	00H
	DB	0f8H
	DB	0fcH
	DB	0f8H
	DB	00H
	DB	0f8H
	DB	0fcH
	DB	0f8H
	DB	00H
	DB	0f8H
	DB	0fcH
	DB	0f8H
	DB	00H
	DB	0f8H
	DB	0fcH
	DB	0f8H
	DB	00H
	DB	0f8H
	DB	0fcH
	DB	0f8H
	DB	00H
	DB	0f8H
	DB	0fcH
	DB	0f8H
	DB	00H
	DB	0f8H
	DB	0fcH
	DB	0f8H
	DB	00H
	DB	0f8H
	DB	0fcH
	DB	0f8H
	DB	00H
	DB	0f8H
	DB	0fcH
	DB	0f8H
	DB	00H
	DB	0f8H
	DB	0fcH
	DB	0f8H
	DB	00H
	DB	0f8H
	DB	0fcH
	DB	0f8H
	DB	00H
	DB	0f8H
	DB	0fcH
	DB	0f8H
	DB	00H
	DB	0f8H
	DB	0fcH
	DB	0f8H
	DB	00H
	DB	0f8H
	DB	0fcH
	DB	0f8H
	DB	00H
	DB	0f8H
	DB	0fcH
	DB	0f8H
	DB	00H
	DB	0f8H
	DB	0fcH
	DB	0f8H
	DB	00H
	DB	0f8H
	DB	0fcH
	DB	0f8H
	DB	00H
	DB	0f8H
	DB	0fcH
	DB	0f8H
	DB	00H
	DB	0f8H
	DB	0fcH
	DB	0f8H
	DB	00H
	DB	0f8H
	DB	0fcH
	DB	0f8H
	DB	00H
	DB	0f8H
	DB	0fcH
	DB	0f8H
	DB	00H
	DB	0f8H
	DB	0fcH
	DB	0f8H
	DB	00H
	DB	0f8H
	DB	0fcH
	DB	0f8H
	DB	00H
	DB	0f8H
	DB	0fcH
	DB	0f8H
	DB	00H
	DB	0f8H
	DB	0fcH
	DB	0f8H
	DB	00H
	DB	0f8H
	DB	0fcH
	DB	0f8H
	DB	00H
	DB	0f8H
	DB	0fcH
	DB	0f8H
	DB	00H
	DB	0f8H
	DB	0fcH
	DB	0f8H
	DB	00H
	DB	0f8H
	DB	0fcH
	DB	0f8H
	DB	00H
	DB	0f8H
	DB	0fcH
	DB	0f8H
	DB	00H
	DB	0f8H
	DB	0fcH
	DB	0f8H
	DB	00H
	DB	0f8H
	DB	0fcH
	DB	0f8H
	DB	00H
	DB	0f8H
	DB	0fcH
	DB	0f8H
	DB	00H
	DB	0f8H
	DB	0fcH
	DB	0f8H
	DB	00H
	DB	0f8H
	DB	0fcH
	DB	0f8H
	DB	00H
	DB	0f8H
	DB	0fcH
	DB	0f8H
	DB	00H
	DB	0f8H
	DB	0fcH
	DB	0f8H
	DB	00H
	DB	0f8H
	DB	0fcH
	DB	0f8H
	DB	00H
	DB	0f8H
	DB	0fcH
	DB	0f8H
	DB	00H
	DB	0f8H
	DB	0fcH
	DB	0f8H
	DB	00H
	DB	0f8H
	DB	0fcH
	DB	0f8H
	DB	00H
	DB	0f8H
	DB	0fcH
	DB	0f8H
	DB	00H
	DB	0f8H
	DB	0fcH
	DB	0f8H
	DB	00H
	DB	0f8H
	DB	0fcH
	DB	0f8H
	DB	00H
	DB	0f8H
	DB	0fcH
	DB	0f8H
	DB	00H
	DB	0f8H
	DB	0fcH
	DB	0f8H
	DB	00H
	DB	0f8H
	DB	0fcH
	DB	0f8H
	DB	00H
	DB	0f8H
	DB	0fcH
	DB	0f8H
	DB	00H
	DB	0f8H
	DB	0fcH
	DB	0f8H
	DB	00H
	DB	0f8H
	DB	0fcH
	DB	0f8H
	DB	00H
	DB	0f8H
	DB	0fcH
	DB	0f8H
	DB	00H
	DB	0f8H
	DB	0fcH
	DB	0f8H
	DB	00H
	DB	0f8H
	DB	0fcH
	DB	0f8H
	DB	00H
	DB	0f8H
	DB	0fcH
	DB	0f8H
	DB	00H
	DB	0f8H
	DB	0fcH
	DB	0f8H
	DB	00H
	DB	0f8H
	DB	0fcH
	DB	0f8H
	DB	00H
	DB	0f8H
	DB	0fcH
	DB	0f8H
	DB	00H
	DB	0f8H
	DB	0fcH
	DB	0f8H
	DB	00H
	DB	0f8H
	DB	0fcH
	DB	0f8H
	DB	00H
	DB	0f8H
	DB	0fcH
	DB	0f8H
	DB	00H
	DB	0f8H
	DB	0fcH
	DB	0f8H
	DB	00H
	DB	0f8H
	DB	0fcH
	DB	0f8H
	DB	00H
	DB	0f8H
	DB	0fcH
	DB	0f8H
	DB	00H
	DB	0f8H
	DB	0fcH
	DB	0f8H
	DB	00H
	DB	0f8H
	DB	0fcH
	DB	0f8H
	DB	00H
	DB	0f8H
	DB	0fcH
	DB	0f8H
	DB	00H
	DB	0f8H
	DB	0fcH
	DB	0f8H
	DB	00H
	DB	0f8H
	DB	0fcH
	DB	0f8H
	DB	00H
	DB	0f8H
	DB	0fcH
	DB	0f8H
	DB	00H
	DB	0f8H
	DB	0fcH
	DB	0f8H
	DB	00H
	DB	0f8H
	DB	0fcH
	DB	0f8H
	DB	00H
	DB	0f8H
	DB	0fcH
	DB	0f8H
	DB	00H
	DB	0f8H
	DB	0fcH
	DB	0f8H
	DB	00H
	DB	0f8H
	DB	0fcH
	DB	0f8H
	DB	00H
	DB	0f8H
	DB	0fcH
	DB	0f8H
	DB	00H
	DB	0f8H
	DB	0fcH
	DB	0f8H
	DB	00H
	DB	0f8H
	DB	0fcH
	DB	0f8H
	DB	00H
	DB	0f8H
	DB	0fcH
	DB	0f8H
	DB	00H
	DB	0f8H
	DB	0fcH
	DB	0f8H
	DB	00H
	DB	0f8H
	DB	0fcH
	DB	0f8H
	DB	00H
	DB	0f8H
	DB	0fcH
	DB	0f8H
	DB	00H
	DB	0f8H
	DB	0fcH
	DB	0f8H
	DB	00H
	DB	0f8H
	DB	0fcH
	DB	0f8H
	DB	00H
	DB	0f8H
	DB	0fcH
	DB	0f8H
	DB	00H
	DB	0f8H
	DB	0fcH
	DB	0f8H
	DB	00H
	DB	0f8H
	DB	0fcH
	DB	0f8H
	DB	00H
	DB	0f8H
	DB	0fcH
	DB	0f8H
	DB	00H
	DB	0f8H
	DB	0fcH
	DB	0f8H
	DB	00H
	DB	0f8H
	DB	0fcH
	DB	0f8H
	DB	00H
	DB	0f8H
	DB	0fcH
	DB	0f8H
	DB	00H
	DB	0f8H
	DB	0fcH
	DB	0f8H
	DB	00H
	DB	0f8H
	DB	0fcH
	DB	0f8H
	DB	00H
	DB	0f8H
	DB	0fcH
	DB	0f8H
	DB	00H
	DB	0f8H
	DB	0fcH
	DB	0f8H
	DB	00H
	DB	0f8H
	DB	0fcH
	DB	0f8H
	DB	00H
	DB	0f8H
	DB	0fcH
	DB	0f8H
	DB	00H
	DB	0f8H
	DB	0fcH
	DB	0f8H
	DB	00H
	DB	0f8H
	DB	0fcH
	DB	0f8H
	DB	00H
	DB	0f8H
	DB	0fcH
	DB	0f8H
	DB	00H
	DB	0f8H
	DB	0fcH
	DB	0f8H
	DB	00H
	DB	0f8H
	DB	0fcH
	DB	0f8H
	DB	00H
	DB	0f8H
	DB	0fcH
	DB	0f8H
	DB	00H
	DB	0f8H
	DB	0fcH
	DB	0f8H
	DB	00H
	DB	0f8H
	DB	0fcH
	DB	0f8H
	DB	00H
	DB	0f8H
	DB	0fcH
	DB	0f8H
	DB	00H
	DB	0f8H
	DB	0fcH
	DB	0f8H
	DB	00H
	DB	0f8H
	DB	0fcH
	DB	0f8H
	DB	00H
	DB	0f8H
	DB	0fcH
	DB	0f8H
	DB	00H
	DB	0f8H
	DB	0fcH
	DB	0f8H
	DB	00H
	DB	0f8H
	DB	0fcH
	DB	0f8H
	DB	00H
	DB	0f8H
	DB	0fcH
	DB	0f8H
	DB	00H
	DB	0f8H
	DB	0fcH
	DB	0f8H
	DB	00H
	DB	0f8H
	DB	0fcH
	DB	0f8H
	DB	00H
	DB	0f8H
	DB	0fcH
	DB	0f8H
	DB	00H
	DB	0f8H
	DB	0fcH
	DB	0f8H
	DB	00H
	DB	0f8H
	DB	0fcH
	DB	0f8H
	DB	00H
	DB	0f8H
	DB	0fcH
	DB	0f8H
	DB	00H
	DB	0f8H
	DB	0fcH
	DB	0f8H
	DB	00H
	DB	0f8H
	DB	0fcH
	DB	0f8H
	DB	00H
	DB	0f8H
	DB	0fcH
	DB	0f8H
	DB	00H
	DB	0f8H
	DB	0fcH
	DB	0f8H
	DB	00H
	DB	0f8H
	DB	0fcH
	DB	0f8H
	DB	00H
	DB	0f8H
	DB	0fcH
	DB	0f8H
	DB	00H
	DB	0f8H
	DB	0fcH
	DB	0f8H
	DB	00H
	DB	0f8H
	DB	0fcH
	DB	0f8H
	DB	00H
	DB	0f8H
	DB	0fcH
	DB	0f8H
	DB	00H
	DB	0f8H
	DB	0fcH
	DB	0f8H
	DB	00H
	DB	0f8H
	DB	0fcH
	DB	0f8H
	DB	00H
	DB	0f8H
	DB	0fcH
	DB	0f8H
	DB	00H
	DB	0f8H
	DB	0fcH
	DB	0f8H
	DB	00H
	DB	0f8H
	DB	0fcH
	DB	0f8H
	DB	00H
	DB	0f8H
	DB	0fcH
	DB	0f8H
	DB	00H
	DB	0f8H
	DB	0fcH
	DB	0f8H
	DB	00H
	DB	0f8H
	DB	0fcH
	DB	0f8H
	DB	00H
	DB	0f8H
	DB	0fcH
	DB	0f8H
	DB	00H
	DB	0f8H
	DB	0fcH
	DB	0f8H
	DB	00H
	DB	0f8H
	DB	0fcH
	DB	0f8H
	DB	00H
	DB	0f8H
	DB	0fcH
	DB	0f8H
	DB	00H
	DB	0f8H
	DB	0fcH
	DB	0f8H
	DB	00H
	DB	0f8H
	DB	0fcH
	DB	0f8H
	DB	00H
	DB	00H
	DB	00H
	DB	00H
	DB	04H
	DB	00H
	DB	00H
	DB	00H
	DB	08H
	DB	00H
	DB	00H
	DB	00H
	DB	08H
	DB	00H
	DB	00H
	DB	00H
	DB	0cH
	DB	00H
	DB	00H
	DB	00H
	DB	010H
	DB	00H
	DB	00H
	DB	00H
	DB	010H
	DB	00H
	DB	00H
	DB	00H
	DB	014H
	DB	00H
	DB	00H
	DB	00H
	DB	014H
	DB	00H
	DB	00H
	DB	00H
	DB	014H
	DB	00H
	DB	00H
	DB	00H
	DB	014H
	DB	00H
	DB	00H
	DB	00H
	DB	018H
	DB	00H
	DB	00H
	DB	00H
	DB	014H
	DB	00H
	DB	00H
	DB	00H
	DB	018H
	DB	00H
	DB	00H
	DB	00H
	DB	018H
	DB	00H
	DB	00H
	DB	00H
	DB	018H
	DB	00H
	DB	00H
	DB	00H
	DB	018H
	DB	00H
	DB	00H
	DB	00H
	DB	018H
	DB	00H
	DB	00H
	DB	00H
	DB	018H
	DB	00H
	DB	00H
	DB	00H
	DB	018H
	DB	00H
	DB	00H
	DB	00H
	DB	018H
	DB	00H
	DB	00H
	DB	00H
	DB	018H
	DB	00H
	DB	00H
	DB	00H
	DB	018H
	DB	00H
	DB	00H
	DB	00H
	DB	018H
	DB	00H
	DB	00H
	DB	00H
	DB	018H
	DB	00H
	DB	00H
	DB	00H
	DB	018H
	DB	00H
	DB	00H
	DB	00H
	DB	018H
	DB	00H
	DB	00H
	DB	00H
	DB	018H
	DB	00H
	DB	00H
	DB	00H
	DB	018H
	DB	00H
	DB	00H
	DB	00H
	DB	018H
	DB	00H
	DB	00H
	DB	00H
	DB	018H
	DB	00H
	DB	00H
	DB	00H
	DB	018H
	DB	00H
	DB	00H
	DB	00H
	DB	018H
	DB	00H
	DB	00H
	DB	00H
	DB	018H
	DB	00H
	DB	00H
	DB	00H
	DB	018H
	DB	00H
	DB	00H
	DB	00H
	DB	018H
	DB	00H
	DB	00H
	DB	00H
	DB	018H
	DB	00H
	DB	00H
	DB	00H
	DB	018H
	DB	00H
	DB	00H
	DB	00H
	DB	018H
	DB	00H
	DB	00H
	DB	00H
	DB	018H
	DB	00H
	DB	00H
	DB	00H
	DB	018H
	DB	00H
	DB	00H
	DB	00H
	DB	018H
	DB	00H
	DB	00H
	DB	00H
	DB	018H
	DB	00H
	DB	00H
	DB	00H
	DB	018H
	DB	00H
	DB	00H
	DB	00H
	DB	018H
	DB	00H
	DB	00H
	DB	00H
	DB	018H
	DB	00H
	DB	00H
	DB	00H
	DB	018H
	DB	00H
	DB	00H
	DB	00H
	DB	018H
	DB	00H
	DB	00H
	DB	00H
	DB	018H
	DB	00H
	DB	00H
	DB	00H
	DB	018H
	DB	00H
	DB	00H
	DB	00H
	DB	018H
	DB	00H
	DB	00H
	DB	00H
	DB	018H
	DB	00H
	DB	00H
	DB	00H
	DB	018H
	DB	00H
	DB	00H
	DB	00H
	DB	018H
	DB	00H
	DB	00H
	DB	00H
	DB	018H
	DB	00H
	DB	00H
	DB	00H
	DB	018H
	DB	00H
	DB	00H
	DB	00H
	DB	018H
	DB	00H
	DB	00H
	DB	00H
	DB	018H
	DB	00H
	DB	00H
	DB	00H
	DB	018H
	DB	00H
	DB	00H
	DB	00H
	DB	018H
	DB	00H
	DB	00H
	DB	00H
	DB	018H
	DB	00H
	DB	00H
	DB	00H
	DB	018H
	DB	00H
	DB	00H
	DB	00H
	DB	018H
	DB	00H
	DB	00H
	DB	00H
	DB	018H
	DB	00H
	DB	00H
	DB	00H
	DB	018H
	DB	00H
	DB	00H
	DB	00H
	DB	018H
	DB	00H
	DB	00H
	DB	00H
	DB	018H
	DB	00H
	DB	00H
	DB	00H
	DB	018H
	DB	00H
	DB	00H
	DB	00H
	DB	018H
	DB	00H
	DB	00H
	DB	00H
	DB	018H
	DB	00H
	DB	00H
	DB	00H
	DB	018H
	DB	00H
	DB	00H
	DB	00H
	DB	018H
	DB	00H
	DB	00H
	DB	00H
	DB	018H
	DB	00H
	DB	00H
	DB	00H
	DB	018H
	DB	00H
	DB	00H
	DB	00H
	DB	018H
	DB	00H
	DB	00H
	DB	00H
	DB	018H
	DB	00H
	DB	00H
	DB	00H
	DB	018H
	DB	00H
	DB	00H
	DB	00H
	DB	018H
	DB	00H
	DB	00H
	DB	00H
	DB	018H
	DB	00H
	DB	00H
	DB	00H
	DB	018H
	DB	00H
	DB	00H
	DB	00H
	DB	018H
	DB	00H
	DB	00H
	DB	00H
	DB	018H
	DB	00H
	DB	00H
	DB	00H
	DB	018H
	DB	00H
	DB	00H
	DB	00H
	DB	018H
	DB	00H
	DB	00H
	DB	00H
	DB	018H
	DB	00H
	DB	00H
	DB	00H
	DB	018H
	DB	00H
	DB	00H
	DB	00H
	DB	018H
	DB	00H
	DB	00H
	DB	00H
	DB	018H
	DB	00H
	DB	00H
	DB	00H
	DB	018H
	DB	00H
	DB	00H
	DB	00H
	DB	018H
	DB	00H
	DB	00H
	DB	00H
	DB	018H
	DB	00H
	DB	00H
	DB	00H
	DB	018H
	DB	00H
	DB	00H
	DB	00H
	DB	018H
	DB	00H
	DB	00H
	DB	00H
	DB	018H
	DB	00H
	DB	00H
	DB	00H
	DB	018H
	DB	00H
	DB	00H
	DB	00H
	DB	018H
	DB	00H
	DB	00H
	DB	00H
	DB	018H
	DB	00H
	DB	00H
	DB	00H
	DB	018H
	DB	00H
	DB	00H
	DB	00H
	DB	018H
	DB	00H
	DB	00H
	DB	00H
	DB	018H
	DB	00H
	DB	00H
	DB	00H
	DB	018H
	DB	00H
	DB	00H
	DB	00H
	DB	018H
	DB	00H
	DB	00H
	DB	00H
	DB	018H
	DB	00H
	DB	00H
	DB	00H
	DB	018H
	DB	00H
	DB	00H
	DB	00H
	DB	018H
	DB	00H
	DB	00H
	DB	00H
	DB	018H
	DB	00H
	DB	00H
	DB	00H
	DB	018H
	DB	00H
	DB	00H
	DB	00H
	DB	018H
	DB	00H
	DB	00H
	DB	00H
	DB	018H
	DB	00H
	DB	00H
	DB	00H
	DB	018H
	DB	00H
	DB	00H
	DB	00H
	DB	018H
	DB	00H
	DB	00H
	DB	00H
	DB	018H
	DB	00H
	DB	00H
	DB	00H
	DB	018H
	DB	00H
	DB	00H
	DB	00H
	DB	018H
	DB	00H
	DB	00H
	DB	00H
	DB	018H
	DB	00H
	DB	00H
	DB	00H
	DB	014H
	DB	00H
	DB	00H
	DB	00H
	DB	014H
	DB	00H
	DB	00H
	DB	00H
	DB	014H
	DB	00H
	DB	00H
	DB	00H
	DB	018H
	DB	00H
	DB	00H
	DB	00H
	DB	014H
	DB	00H
	DB	00H
	DB	00H
	DB	014H
	DB	00H
	DB	00H
	DB	00H
	DB	010H
	DB	00H
	DB	00H
	DB	00H
	DB	010H
	DB	00H
	DB	00H
	DB	00H
	DB	0cH
	DB	00H
	DB	00H
	DB	00H
	DB	08H
	DB	00H
	DB	00H
	DB	00H
	DB	08H
	DB	00H
	DB	00H
	DB	00H
	DB	04H
	DB	0f8H
	DB	0fcH
	DB	0f8H
	DB	00H
	DB	0f8H
	DB	0fcH
	DB	0f8H
	DB	00H
	DB	0f8H
	DB	0fcH
	DB	0f8H
	DB	00H
	DB	0f8H
	DB	0fcH
	DB	0f8H
	DB	00H
	DB	0f8H
	DB	0fcH
	DB	0f8H
	DB	00H
	DB	0f8H
	DB	0fcH
	DB	0f8H
	DB	00H
	DB	0f8H
	DB	0fcH
	DB	0f8H
	DB	00H
	DB	0f8H
	DB	0fcH
	DB	0f8H
	DB	00H
	DB	0f8H
	DB	0fcH
	DB	0f8H
	DB	00H
	DB	0f8H
	DB	0fcH
	DB	0f8H
	DB	00H
	DB	0f8H
	DB	0fcH
	DB	0f8H
	DB	00H
	DB	0f8H
	DB	0fcH
	DB	0f8H
	DB	00H
	DB	0f8H
	DB	0fcH
	DB	0f8H
	DB	00H
	DB	0f8H
	DB	0fcH
	DB	0f8H
	DB	00H
	DB	0f8H
	DB	0fcH
	DB	0f8H
	DB	00H
	DB	0f8H
	DB	0fcH
	DB	0f8H
	DB	00H
	DB	0f8H
	DB	0fcH
	DB	0f8H
	DB	00H
	DB	0f8H
	DB	0fcH
	DB	0f8H
	DB	00H
	DB	0f8H
	DB	0fcH
	DB	0f8H
	DB	00H
	DB	0f8H
	DB	0fcH
	DB	0f8H
	DB	00H
	DB	00H
	DB	00H
	DB	00H
	DB	08H
	DB	00H
	DB	00H
	DB	00H
	DB	0cH
	DB	00H
	DB	00H
	DB	00H
	DB	010H
	DB	00H
	DB	00H
	DB	00H
	DB	014H
	DB	00H
	DB	00H
	DB	00H
	DB	018H
	DB	00H
	DB	00H
	DB	00H
	DB	020H
	DB	00H
	DB	00H
	DB	00H
	DB	020H
	DB	00H
	DB	00H
	DB	00H
	DB	024H
	DB	00H
	DB	00H
	DB	00H
	DB	024H
	DB	00H
	DB	00H
	DB	00H
	DB	024H
	DB	00H
	DB	00H
	DB	00H
	DB	024H
	DB	00H
	DB	00H
	DB	00H
	DB	024H
	DB	00H
	DB	00H
	DB	00H
	DB	024H
	DB	00H
	DB	00H
	DB	00H
	DB	024H
	DB	00H
	DB	00H
	DB	00H
	DB	024H
	DB	00H
	DB	00H
	DB	00H
	DB	024H
	DB	00H
	DB	00H
	DB	00H
	DB	024H
	DB	00H
	DB	00H
	DB	00H
	DB	024H
	DB	00H
	DB	00H
	DB	00H
	DB	024H
	DB	00H
	DB	00H
	DB	00H
	DB	024H
	DB	00H
	DB	00H
	DB	00H
	DB	024H
	DB	00H
	DB	00H
	DB	00H
	DB	024H
	DB	00H
	DB	00H
	DB	00H
	DB	024H
	DB	00H
	DB	00H
	DB	00H
	DB	024H
	DB	00H
	DB	00H
	DB	00H
	DB	024H
	DB	00H
	DB	00H
	DB	00H
	DB	024H
	DB	00H
	DB	00H
	DB	00H
	DB	024H
	DB	00H
	DB	00H
	DB	00H
	DB	024H
	DB	00H
	DB	00H
	DB	00H
	DB	024H
	DB	00H
	DB	00H
	DB	00H
	DB	024H
	DB	00H
	DB	00H
	DB	00H
	DB	024H
	DB	00H
	DB	00H
	DB	00H
	DB	024H
	DB	00H
	DB	00H
	DB	00H
	DB	024H
	DB	00H
	DB	00H
	DB	00H
	DB	024H
	DB	00H
	DB	00H
	DB	00H
	DB	024H
	DB	00H
	DB	00H
	DB	00H
	DB	024H
	DB	00H
	DB	00H
	DB	00H
	DB	024H
	DB	00H
	DB	00H
	DB	00H
	DB	024H
	DB	00H
	DB	00H
	DB	00H
	DB	024H
	DB	00H
	DB	00H
	DB	00H
	DB	024H
	DB	00H
	DB	00H
	DB	00H
	DB	024H
	DB	00H
	DB	00H
	DB	00H
	DB	024H
	DB	00H
	DB	00H
	DB	00H
	DB	024H
	DB	00H
	DB	00H
	DB	00H
	DB	024H
	DB	00H
	DB	00H
	DB	00H
	DB	024H
	DB	00H
	DB	00H
	DB	00H
	DB	024H
	DB	00H
	DB	00H
	DB	00H
	DB	024H
	DB	00H
	DB	00H
	DB	00H
	DB	024H
	DB	00H
	DB	00H
	DB	00H
	DB	024H
	DB	00H
	DB	00H
	DB	00H
	DB	024H
	DB	00H
	DB	00H
	DB	00H
	DB	024H
	DB	00H
	DB	00H
	DB	00H
	DB	024H
	DB	00H
	DB	00H
	DB	00H
	DB	024H
	DB	00H
	DB	00H
	DB	00H
	DB	024H
	DB	00H
	DB	00H
	DB	00H
	DB	024H
	DB	00H
	DB	00H
	DB	00H
	DB	024H
	DB	00H
	DB	00H
	DB	00H
	DB	024H
	DB	00H
	DB	00H
	DB	00H
	DB	024H
	DB	00H
	DB	00H
	DB	00H
	DB	024H
	DB	00H
	DB	00H
	DB	00H
	DB	024H
	DB	00H
	DB	00H
	DB	00H
	DB	024H
	DB	00H
	DB	00H
	DB	00H
	DB	024H
	DB	00H
	DB	00H
	DB	00H
	DB	024H
	DB	00H
	DB	00H
	DB	00H
	DB	024H
	DB	00H
	DB	00H
	DB	00H
	DB	024H
	DB	00H
	DB	00H
	DB	00H
	DB	024H
	DB	00H
	DB	00H
	DB	00H
	DB	024H
	DB	00H
	DB	00H
	DB	00H
	DB	024H
	DB	00H
	DB	00H
	DB	00H
	DB	024H
	DB	00H
	DB	00H
	DB	00H
	DB	024H
	DB	00H
	DB	00H
	DB	00H
	DB	024H
	DB	00H
	DB	00H
	DB	00H
	DB	024H
	DB	00H
	DB	00H
	DB	00H
	DB	024H
	DB	00H
	DB	00H
	DB	00H
	DB	024H
	DB	00H
	DB	00H
	DB	00H
	DB	024H
	DB	00H
	DB	00H
	DB	00H
	DB	024H
	DB	00H
	DB	00H
	DB	00H
	DB	024H
	DB	00H
	DB	00H
	DB	00H
	DB	024H
	DB	00H
	DB	00H
	DB	00H
	DB	024H
	DB	00H
	DB	00H
	DB	00H
	DB	024H
	DB	00H
	DB	00H
	DB	00H
	DB	024H
	DB	00H
	DB	00H
	DB	00H
	DB	024H
	DB	00H
	DB	00H
	DB	00H
	DB	024H
	DB	00H
	DB	00H
	DB	00H
	DB	024H
	DB	00H
	DB	00H
	DB	00H
	DB	024H
	DB	00H
	DB	00H
	DB	00H
	DB	024H
	DB	00H
	DB	00H
	DB	00H
	DB	024H
	DB	00H
	DB	00H
	DB	00H
	DB	024H
	DB	00H
	DB	00H
	DB	00H
	DB	024H
	DB	00H
	DB	00H
	DB	00H
	DB	024H
	DB	00H
	DB	00H
	DB	00H
	DB	024H
	DB	00H
	DB	00H
	DB	00H
	DB	024H
	DB	00H
	DB	00H
	DB	00H
	DB	024H
	DB	00H
	DB	00H
	DB	00H
	DB	024H
	DB	00H
	DB	00H
	DB	00H
	DB	024H
	DB	00H
	DB	00H
	DB	00H
	DB	024H
	DB	00H
	DB	00H
	DB	00H
	DB	024H
	DB	00H
	DB	00H
	DB	00H
	DB	024H
	DB	00H
	DB	00H
	DB	00H
	DB	024H
	DB	00H
	DB	00H
	DB	00H
	DB	024H
	DB	00H
	DB	00H
	DB	00H
	DB	024H
	DB	00H
	DB	00H
	DB	00H
	DB	024H
	DB	00H
	DB	00H
	DB	00H
	DB	024H
	DB	00H
	DB	00H
	DB	00H
	DB	024H
	DB	00H
	DB	00H
	DB	00H
	DB	024H
	DB	00H
	DB	00H
	DB	00H
	DB	024H
	DB	00H
	DB	00H
	DB	00H
	DB	024H
	DB	00H
	DB	00H
	DB	00H
	DB	024H
	DB	00H
	DB	00H
	DB	00H
	DB	024H
	DB	00H
	DB	00H
	DB	00H
	DB	024H
	DB	00H
	DB	00H
	DB	00H
	DB	024H
	DB	00H
	DB	00H
	DB	00H
	DB	024H
	DB	00H
	DB	00H
	DB	00H
	DB	024H
	DB	00H
	DB	00H
	DB	00H
	DB	024H
	DB	00H
	DB	00H
	DB	00H
	DB	024H
	DB	00H
	DB	00H
	DB	00H
	DB	024H
	DB	00H
	DB	00H
	DB	00H
	DB	024H
	DB	00H
	DB	00H
	DB	00H
	DB	024H
	DB	00H
	DB	00H
	DB	00H
	DB	024H
	DB	00H
	DB	00H
	DB	00H
	DB	020H
	DB	00H
	DB	00H
	DB	00H
	DB	01cH
	DB	00H
	DB	00H
	DB	00H
	DB	01cH
	DB	00H
	DB	00H
	DB	00H
	DB	014H
	DB	00H
	DB	00H
	DB	00H
	DB	010H
	DB	00H
	DB	00H
	DB	00H
	DB	0cH
	DB	00H
	DB	00H
	DB	00H
	DB	08H
	DB	0f8H
	DB	0fcH
	DB	0f8H
	DB	00H
	DB	0f8H
	DB	0fcH
	DB	0f8H
	DB	00H
	DB	0f8H
	DB	0fcH
	DB	0f8H
	DB	00H
	DB	0f8H
	DB	0fcH
	DB	0f8H
	DB	00H
	DB	0f8H
	DB	0fcH
	DB	0f8H
	DB	00H
	DB	0f8H
	DB	0fcH
	DB	0f8H
	DB	00H
	DB	0f8H
	DB	0fcH
	DB	0f8H
	DB	00H
	DB	0f8H
	DB	0fcH
	DB	0f8H
	DB	00H
	DB	0f8H
	DB	0fcH
	DB	0f8H
	DB	00H
	DB	0f8H
	DB	0fcH
	DB	0f8H
	DB	00H
	DB	0f8H
	DB	0fcH
	DB	0f8H
	DB	00H
	DB	0f8H
	DB	0fcH
	DB	0f8H
	DB	00H
	DB	0f8H
	DB	0fcH
	DB	0f8H
	DB	00H
	DB	0f8H
	DB	0fcH
	DB	0f8H
	DB	00H
	DB	0f8H
	DB	0fcH
	DB	0f8H
	DB	00H
	DB	0f8H
	DB	0fcH
	DB	0f8H
	DB	00H
	DB	0f8H
	DB	0fcH
	DB	0f8H
	DB	00H
	DB	0f8H
	DB	0fcH
	DB	0f8H
	DB	00H
	DB	0f8H
	DB	0fcH
	DB	0f8H
	DB	00H
	DB	0f8H
	DB	0fcH
	DB	0f8H
	DB	00H
	DB	00H
	DB	00H
	DB	00H
	DB	0cH
	DB	00H
	DB	00H
	DB	00H
	DB	010H
	DB	00H
	DB	00H
	DB	00H
	DB	018H
	DB	00H
	DB	00H
	DB	00H
	DB	020H
	DB	00H
	DB	00H
	DB	00H
	DB	028H
	DB	00H
	DB	00H
	DB	00H
	DB	02cH
	DB	00H
	DB	00H
	DB	00H
	DB	034H
	DB	00H
	DB	00H
	DB	00H
	DB	038H
	DB	00H
	DB	00H
	DB	00H
	DB	038H
	DB	00H
	DB	00H
	DB	00H
	DB	038H
	DB	00H
	DB	00H
	DB	00H
	DB	03cH
	DB	00H
	DB	00H
	DB	00H
	DB	03cH
	DB	00H
	DB	00H
	DB	00H
	DB	03cH
	DB	00H
	DB	00H
	DB	00H
	DB	038H
	DB	00H
	DB	00H
	DB	00H
	DB	03cH
	DB	00H
	DB	00H
	DB	00H
	DB	03cH
	DB	00H
	DB	00H
	DB	00H
	DB	038H
	DB	00H
	DB	00H
	DB	00H
	DB	03cH
	DB	00H
	DB	00H
	DB	00H
	DB	03cH
	DB	00H
	DB	00H
	DB	00H
	DB	038H
	DB	00H
	DB	00H
	DB	00H
	DB	03cH
	DB	00H
	DB	00H
	DB	00H
	DB	03cH
	DB	00H
	DB	00H
	DB	00H
	DB	038H
	DB	00H
	DB	00H
	DB	00H
	DB	03cH
	DB	00H
	DB	00H
	DB	00H
	DB	03cH
	DB	00H
	DB	00H
	DB	00H
	DB	038H
	DB	00H
	DB	00H
	DB	00H
	DB	03cH
	DB	00H
	DB	00H
	DB	00H
	DB	03cH
	DB	00H
	DB	00H
	DB	00H
	DB	038H
	DB	00H
	DB	00H
	DB	00H
	DB	03cH
	DB	00H
	DB	00H
	DB	00H
	DB	03cH
	DB	00H
	DB	00H
	DB	00H
	DB	038H
	DB	00H
	DB	00H
	DB	00H
	DB	03cH
	DB	00H
	DB	00H
	DB	00H
	DB	03cH
	DB	00H
	DB	00H
	DB	00H
	DB	038H
	DB	00H
	DB	00H
	DB	00H
	DB	03cH
	DB	00H
	DB	00H
	DB	00H
	DB	03cH
	DB	00H
	DB	00H
	DB	00H
	DB	038H
	DB	00H
	DB	00H
	DB	00H
	DB	03cH
	DB	00H
	DB	00H
	DB	00H
	DB	03cH
	DB	00H
	DB	00H
	DB	00H
	DB	038H
	DB	00H
	DB	00H
	DB	00H
	DB	03cH
	DB	00H
	DB	00H
	DB	00H
	DB	03cH
	DB	00H
	DB	00H
	DB	00H
	DB	038H
	DB	00H
	DB	00H
	DB	00H
	DB	03cH
	DB	00H
	DB	00H
	DB	00H
	DB	03cH
	DB	00H
	DB	00H
	DB	00H
	DB	038H
	DB	00H
	DB	00H
	DB	00H
	DB	03cH
	DB	00H
	DB	00H
	DB	00H
	DB	03cH
	DB	00H
	DB	00H
	DB	00H
	DB	038H
	DB	00H
	DB	00H
	DB	00H
	DB	03cH
	DB	00H
	DB	00H
	DB	00H
	DB	03cH
	DB	00H
	DB	00H
	DB	00H
	DB	038H
	DB	00H
	DB	00H
	DB	00H
	DB	03cH
	DB	00H
	DB	00H
	DB	00H
	DB	03cH
	DB	00H
	DB	00H
	DB	00H
	DB	038H
	DB	00H
	DB	00H
	DB	00H
	DB	03cH
	DB	00H
	DB	00H
	DB	00H
	DB	03cH
	DB	00H
	DB	00H
	DB	00H
	DB	038H
	DB	00H
	DB	00H
	DB	00H
	DB	03cH
	DB	00H
	DB	00H
	DB	00H
	DB	03cH
	DB	00H
	DB	00H
	DB	00H
	DB	038H
	DB	00H
	DB	00H
	DB	00H
	DB	03cH
	DB	00H
	DB	00H
	DB	00H
	DB	03cH
	DB	00H
	DB	00H
	DB	00H
	DB	038H
	DB	00H
	DB	00H
	DB	00H
	DB	03cH
	DB	00H
	DB	00H
	DB	00H
	DB	03cH
	DB	00H
	DB	00H
	DB	00H
	DB	038H
	DB	00H
	DB	00H
	DB	00H
	DB	03cH
	DB	00H
	DB	00H
	DB	00H
	DB	03cH
	DB	00H
	DB	00H
	DB	00H
	DB	038H
	DB	00H
	DB	00H
	DB	00H
	DB	03cH
	DB	00H
	DB	00H
	DB	00H
	DB	03cH
	DB	00H
	DB	00H
	DB	00H
	DB	038H
	DB	00H
	DB	00H
	DB	00H
	DB	03cH
	DB	00H
	DB	00H
	DB	00H
	DB	03cH
	DB	00H
	DB	00H
	DB	00H
	DB	038H
	DB	00H
	DB	00H
	DB	00H
	DB	03cH
	DB	00H
	DB	00H
	DB	00H
	DB	03cH
	DB	00H
	DB	00H
	DB	00H
	DB	038H
	DB	00H
	DB	00H
	DB	00H
	DB	03cH
	DB	00H
	DB	00H
	DB	00H
	DB	03cH
	DB	00H
	DB	00H
	DB	00H
	DB	038H
	DB	00H
	DB	00H
	DB	00H
	DB	03cH
	DB	00H
	DB	00H
	DB	00H
	DB	03cH
	DB	00H
	DB	00H
	DB	00H
	DB	038H
	DB	00H
	DB	00H
	DB	00H
	DB	03cH
	DB	00H
	DB	00H
	DB	00H
	DB	03cH
	DB	00H
	DB	00H
	DB	00H
	DB	038H
	DB	00H
	DB	00H
	DB	00H
	DB	03cH
	DB	00H
	DB	00H
	DB	00H
	DB	03cH
	DB	00H
	DB	00H
	DB	00H
	DB	038H
	DB	00H
	DB	00H
	DB	00H
	DB	03cH
	DB	00H
	DB	00H
	DB	00H
	DB	03cH
	DB	00H
	DB	00H
	DB	00H
	DB	038H
	DB	00H
	DB	00H
	DB	00H
	DB	03cH
	DB	00H
	DB	00H
	DB	00H
	DB	03cH
	DB	00H
	DB	00H
	DB	00H
	DB	038H
	DB	00H
	DB	00H
	DB	00H
	DB	03cH
	DB	00H
	DB	00H
	DB	00H
	DB	03cH
	DB	00H
	DB	00H
	DB	00H
	DB	038H
	DB	00H
	DB	00H
	DB	00H
	DB	03cH
	DB	00H
	DB	00H
	DB	00H
	DB	03cH
	DB	00H
	DB	00H
	DB	00H
	DB	038H
	DB	00H
	DB	00H
	DB	00H
	DB	03cH
	DB	00H
	DB	00H
	DB	00H
	DB	03cH
	DB	00H
	DB	00H
	DB	00H
	DB	038H
	DB	00H
	DB	00H
	DB	00H
	DB	03cH
	DB	00H
	DB	00H
	DB	00H
	DB	03cH
	DB	00H
	DB	00H
	DB	00H
	DB	038H
	DB	00H
	DB	00H
	DB	00H
	DB	03cH
	DB	00H
	DB	00H
	DB	00H
	DB	03cH
	DB	00H
	DB	00H
	DB	00H
	DB	038H
	DB	00H
	DB	00H
	DB	00H
	DB	03cH
	DB	00H
	DB	00H
	DB	00H
	DB	03cH
	DB	00H
	DB	00H
	DB	00H
	DB	03cH
	DB	00H
	DB	00H
	DB	00H
	DB	038H
	DB	00H
	DB	00H
	DB	00H
	DB	038H
	DB	00H
	DB	00H
	DB	00H
	DB	038H
	DB	00H
	DB	00H
	DB	00H
	DB	030H
	DB	00H
	DB	00H
	DB	00H
	DB	030H
	DB	00H
	DB	00H
	DB	00H
	DB	028H
	DB	00H
	DB	00H
	DB	00H
	DB	020H
	DB	00H
	DB	00H
	DB	00H
	DB	018H
	DB	00H
	DB	00H
	DB	00H
	DB	010H
	DB	00H
	DB	00H
	DB	00H
	DB	0cH
	DB	0f8H
	DB	0fcH
	DB	0f8H
	DB	00H
	DB	0f8H
	DB	0fcH
	DB	0f8H
	DB	00H
	DB	0f8H
	DB	0fcH
	DB	0f8H
	DB	00H
	DB	0f8H
	DB	0fcH
	DB	0f8H
	DB	00H
	DB	0f8H
	DB	0fcH
	DB	0f8H
	DB	00H
	DB	0f8H
	DB	0fcH
	DB	0f8H
	DB	00H
	DB	0f8H
	DB	0fcH
	DB	0f8H
	DB	00H
	DB	0f8H
	DB	0fcH
	DB	0f8H
	DB	00H
	DB	0f8H
	DB	0fcH
	DB	0f8H
	DB	00H
	DB	0f8H
	DB	0fcH
	DB	0f8H
	DB	00H
	DB	0f8H
	DB	0fcH
	DB	0f8H
	DB	00H
	DB	0f8H
	DB	0fcH
	DB	0f8H
	DB	00H
	DB	0f8H
	DB	0fcH
	DB	0f8H
	DB	00H
	DB	0f8H
	DB	0fcH
	DB	0f8H
	DB	00H
	DB	0f8H
	DB	0fcH
	DB	0f8H
	DB	00H
	DB	0f8H
	DB	0fcH
	DB	0f8H
	DB	00H
	DB	0f8H
	DB	0fcH
	DB	0f8H
	DB	00H
	DB	0f8H
	DB	0fcH
	DB	0f8H
	DB	00H
	DB	0f8H
	DB	0fcH
	DB	0f8H
	DB	00H
	DB	0f8H
	DB	0fcH
	DB	0f8H
	DB	00H
	DB	00H
	DB	00H
	DB	00H
	DB	014H
	DB	00H
	DB	00H
	DB	00H
	DB	020H
	DB	00H
	DB	00H
	DB	00H
	DB	02cH
	DB	00H
	DB	00H
	DB	00H
	DB	038H
	DB	00H
	DB	00H
	DB	00H
	DB	041H
	DB	00H
	DB	00H
	DB	00H
	DB	04dH
	DB	00H
	DB	00H
	DB	00H
	DB	051H
	DB	00H
	DB	00H
	DB	00H
	DB	059H
	DB	00H
	DB	00H
	DB	00H
	DB	059H
	DB	00H
	DB	00H
	DB	00H
	DB	05dH
	DB	00H
	DB	00H
	DB	00H
	DB	05dH
	DB	00H
	DB	00H
	DB	00H
	DB	05dH
	DB	00H
	DB	00H
	DB	00H
	DB	05dH
	DB	00H
	DB	00H
	DB	00H
	DB	05dH
	DB	00H
	DB	00H
	DB	00H
	DB	05dH
	DB	00H
	DB	00H
	DB	00H
	DB	05dH
	DB	00H
	DB	00H
	DB	00H
	DB	05dH
	DB	00H
	DB	00H
	DB	00H
	DB	05dH
	DB	00H
	DB	00H
	DB	00H
	DB	05dH
	DB	00H
	DB	00H
	DB	00H
	DB	05dH
	DB	00H
	DB	00H
	DB	00H
	DB	05dH
	DB	00H
	DB	00H
	DB	00H
	DB	05dH
	DB	00H
	DB	00H
	DB	00H
	DB	05dH
	DB	00H
	DB	00H
	DB	00H
	DB	05dH
	DB	00H
	DB	00H
	DB	00H
	DB	05dH
	DB	00H
	DB	00H
	DB	00H
	DB	05dH
	DB	00H
	DB	00H
	DB	00H
	DB	05dH
	DB	00H
	DB	00H
	DB	00H
	DB	05dH
	DB	00H
	DB	00H
	DB	00H
	DB	05dH
	DB	00H
	DB	00H
	DB	00H
	DB	05dH
	DB	00H
	DB	00H
	DB	00H
	DB	05dH
	DB	00H
	DB	00H
	DB	00H
	DB	05dH
	DB	00H
	DB	00H
	DB	00H
	DB	05dH
	DB	00H
	DB	00H
	DB	00H
	DB	05dH
	DB	00H
	DB	00H
	DB	00H
	DB	05dH
	DB	00H
	DB	00H
	DB	00H
	DB	05dH
	DB	00H
	DB	00H
	DB	00H
	DB	05dH
	DB	00H
	DB	00H
	DB	00H
	DB	05dH
	DB	00H
	DB	00H
	DB	00H
	DB	05dH
	DB	00H
	DB	00H
	DB	00H
	DB	05dH
	DB	00H
	DB	00H
	DB	00H
	DB	05dH
	DB	00H
	DB	00H
	DB	00H
	DB	05dH
	DB	00H
	DB	00H
	DB	00H
	DB	05dH
	DB	00H
	DB	00H
	DB	00H
	DB	05dH
	DB	00H
	DB	00H
	DB	00H
	DB	05dH
	DB	00H
	DB	00H
	DB	00H
	DB	05dH
	DB	00H
	DB	00H
	DB	00H
	DB	05dH
	DB	00H
	DB	00H
	DB	00H
	DB	05dH
	DB	00H
	DB	00H
	DB	00H
	DB	05dH
	DB	00H
	DB	00H
	DB	00H
	DB	05dH
	DB	00H
	DB	00H
	DB	00H
	DB	05dH
	DB	00H
	DB	00H
	DB	00H
	DB	05dH
	DB	00H
	DB	00H
	DB	00H
	DB	05dH
	DB	00H
	DB	00H
	DB	00H
	DB	05dH
	DB	00H
	DB	00H
	DB	00H
	DB	05dH
	DB	00H
	DB	00H
	DB	00H
	DB	05dH
	DB	00H
	DB	00H
	DB	00H
	DB	05dH
	DB	00H
	DB	00H
	DB	00H
	DB	05dH
	DB	00H
	DB	00H
	DB	00H
	DB	05dH
	DB	00H
	DB	00H
	DB	00H
	DB	05dH
	DB	00H
	DB	00H
	DB	00H
	DB	05dH
	DB	00H
	DB	00H
	DB	00H
	DB	05dH
	DB	00H
	DB	00H
	DB	00H
	DB	05dH
	DB	00H
	DB	00H
	DB	00H
	DB	05dH
	DB	00H
	DB	00H
	DB	00H
	DB	05dH
	DB	00H
	DB	00H
	DB	00H
	DB	05dH
	DB	00H
	DB	00H
	DB	00H
	DB	05dH
	DB	00H
	DB	00H
	DB	00H
	DB	05dH
	DB	00H
	DB	00H
	DB	00H
	DB	05dH
	DB	00H
	DB	00H
	DB	00H
	DB	05dH
	DB	00H
	DB	00H
	DB	00H
	DB	05dH
	DB	00H
	DB	00H
	DB	00H
	DB	05dH
	DB	00H
	DB	00H
	DB	00H
	DB	05dH
	DB	00H
	DB	00H
	DB	00H
	DB	05dH
	DB	00H
	DB	00H
	DB	00H
	DB	05dH
	DB	00H
	DB	00H
	DB	00H
	DB	05dH
	DB	00H
	DB	00H
	DB	00H
	DB	05dH
	DB	00H
	DB	00H
	DB	00H
	DB	05dH
	DB	00H
	DB	00H
	DB	00H
	DB	05dH
	DB	00H
	DB	00H
	DB	00H
	DB	05dH
	DB	00H
	DB	00H
	DB	00H
	DB	05dH
	DB	00H
	DB	00H
	DB	00H
	DB	05dH
	DB	00H
	DB	00H
	DB	00H
	DB	05dH
	DB	00H
	DB	00H
	DB	00H
	DB	05dH
	DB	00H
	DB	00H
	DB	00H
	DB	05dH
	DB	00H
	DB	00H
	DB	00H
	DB	05dH
	DB	00H
	DB	00H
	DB	00H
	DB	05dH
	DB	00H
	DB	00H
	DB	00H
	DB	05dH
	DB	00H
	DB	00H
	DB	00H
	DB	05dH
	DB	00H
	DB	00H
	DB	00H
	DB	05dH
	DB	00H
	DB	00H
	DB	00H
	DB	05dH
	DB	00H
	DB	00H
	DB	00H
	DB	05dH
	DB	00H
	DB	00H
	DB	00H
	DB	05dH
	DB	00H
	DB	00H
	DB	00H
	DB	05dH
	DB	00H
	DB	00H
	DB	00H
	DB	05dH
	DB	00H
	DB	00H
	DB	00H
	DB	05dH
	DB	00H
	DB	00H
	DB	00H
	DB	05dH
	DB	00H
	DB	00H
	DB	00H
	DB	05dH
	DB	00H
	DB	00H
	DB	00H
	DB	05dH
	DB	00H
	DB	00H
	DB	00H
	DB	05dH
	DB	00H
	DB	00H
	DB	00H
	DB	05dH
	DB	00H
	DB	00H
	DB	00H
	DB	05dH
	DB	00H
	DB	00H
	DB	00H
	DB	05dH
	DB	00H
	DB	00H
	DB	00H
	DB	05dH
	DB	00H
	DB	00H
	DB	00H
	DB	05dH
	DB	00H
	DB	00H
	DB	00H
	DB	05dH
	DB	00H
	DB	00H
	DB	00H
	DB	05dH
	DB	00H
	DB	00H
	DB	00H
	DB	05dH
	DB	00H
	DB	00H
	DB	00H
	DB	05dH
	DB	00H
	DB	00H
	DB	00H
	DB	05dH
	DB	00H
	DB	00H
	DB	00H
	DB	05dH
	DB	00H
	DB	00H
	DB	00H
	DB	05dH
	DB	00H
	DB	00H
	DB	00H
	DB	05dH
	DB	00H
	DB	00H
	DB	00H
	DB	05dH
	DB	00H
	DB	00H
	DB	00H
	DB	05dH
	DB	00H
	DB	00H
	DB	00H
	DB	05dH
	DB	00H
	DB	00H
	DB	00H
	DB	05dH
	DB	00H
	DB	00H
	DB	00H
	DB	059H
	DB	00H
	DB	00H
	DB	00H
	DB	059H
	DB	00H
	DB	00H
	DB	00H
	DB	051H
	DB	00H
	DB	00H
	DB	00H
	DB	04dH
	DB	00H
	DB	00H
	DB	00H
	DB	041H
	DB	00H
	DB	00H
	DB	00H
	DB	038H
	DB	00H
	DB	00H
	DB	00H
	DB	02cH
	DB	00H
	DB	00H
	DB	00H
	DB	020H
	DB	00H
	DB	00H
	DB	00H
	DB	014H
	DB	0f8H
	DB	0fcH
	DB	0f8H
	DB	00H
	DB	0f8H
	DB	0fcH
	DB	0f8H
	DB	00H
	DB	0f8H
	DB	0fcH
	DB	0f8H
	DB	00H
	DB	0f8H
	DB	0fcH
	DB	0f8H
	DB	00H
	DB	0f8H
	DB	0fcH
	DB	0f8H
	DB	00H
	DB	0f8H
	DB	0fcH
	DB	0f8H
	DB	00H
	DB	0f8H
	DB	0fcH
	DB	0f8H
	DB	00H
	DB	0f8H
	DB	0fcH
	DB	0f8H
	DB	00H
	DB	0f8H
	DB	0fcH
	DB	0f8H
	DB	00H
	DB	0f8H
	DB	0fcH
	DB	0f8H
	DB	00H
	DB	00H
	DB	00H
	DB	00H
	DB	00H
	DB	00H
	DB	00H
	DB	00H
	DB	00H
	DB	00H
	DB	00H
	DB	00H
	DB	00H
	DB	00H
	DB	00H
	DB	00H
	DB	00H
	DB	00H
	DB	00H
	DB	00H
	DB	00H
	DB	00H
	DB	00H
	DB	00H
	DB	00H
	DB	00H
	DB	00H
	DB	00H
	DB	00H
	DB	00H
	DB	00H
	DB	00H
	DB	00H
	DB	00H
	DB	00H
	DB	00H
	DB	00H
	DB	00H
	DB	00H
	DB	00H
	DB	00H
	DB	00H
	DB	00H
	DB	00H
	DB	01cH
	DB	00H
	DB	00H
	DB	00H
	DB	028H
	DB	00H
	DB	00H
	DB	00H
	DB	038H
	DB	00H
	DB	00H
	DB	00H
	DB	049H
	DB	00H
	DB	00H
	DB	00H
	DB	059H
	DB	00H
	DB	00H
	DB	00H
	DB	065H
	DB	00H
	DB	00H
	DB	00H
	DB	06dH
	DB	00H
	DB	00H
	DB	00H
	DB	071H
	DB	00H
	DB	00H
	DB	00H
	DB	079H
	DB	00H
	DB	00H
	DB	00H
	DB	079H
	DB	00H
	DB	00H
	DB	00H
	DB	079H
	DB	00H
	DB	00H
	DB	00H
	DB	079H
	DB	00H
	DB	00H
	DB	00H
	DB	079H
	DB	00H
	DB	00H
	DB	00H
	DB	079H
	DB	00H
	DB	00H
	DB	00H
	DB	079H
	DB	00H
	DB	00H
	DB	00H
	DB	079H
	DB	00H
	DB	00H
	DB	00H
	DB	07dH
	DB	00H
	DB	00H
	DB	00H
	DB	079H
	DB	00H
	DB	00H
	DB	00H
	DB	079H
	DB	00H
	DB	00H
	DB	00H
	DB	079H
	DB	00H
	DB	00H
	DB	00H
	DB	079H
	DB	00H
	DB	00H
	DB	00H
	DB	079H
	DB	00H
	DB	00H
	DB	00H
	DB	079H
	DB	00H
	DB	00H
	DB	00H
	DB	079H
	DB	00H
	DB	00H
	DB	00H
	DB	079H
	DB	00H
	DB	00H
	DB	00H
	DB	079H
	DB	00H
	DB	00H
	DB	00H
	DB	079H
	DB	00H
	DB	00H
	DB	00H
	DB	079H
	DB	00H
	DB	00H
	DB	00H
	DB	079H
	DB	00H
	DB	00H
	DB	00H
	DB	079H
	DB	00H
	DB	00H
	DB	00H
	DB	079H
	DB	00H
	DB	00H
	DB	00H
	DB	079H
	DB	00H
	DB	00H
	DB	00H
	DB	079H
	DB	00H
	DB	00H
	DB	00H
	DB	079H
	DB	00H
	DB	00H
	DB	00H
	DB	079H
	DB	00H
	DB	00H
	DB	00H
	DB	079H
	DB	00H
	DB	00H
	DB	00H
	DB	079H
	DB	00H
	DB	00H
	DB	00H
	DB	079H
	DB	00H
	DB	00H
	DB	00H
	DB	079H
	DB	00H
	DB	00H
	DB	00H
	DB	079H
	DB	00H
	DB	00H
	DB	00H
	DB	079H
	DB	00H
	DB	00H
	DB	00H
	DB	079H
	DB	00H
	DB	00H
	DB	00H
	DB	079H
	DB	00H
	DB	00H
	DB	00H
	DB	079H
	DB	00H
	DB	00H
	DB	00H
	DB	079H
	DB	00H
	DB	00H
	DB	00H
	DB	079H
	DB	00H
	DB	00H
	DB	00H
	DB	079H
	DB	00H
	DB	00H
	DB	00H
	DB	079H
	DB	00H
	DB	00H
	DB	00H
	DB	079H
	DB	00H
	DB	00H
	DB	00H
	DB	079H
	DB	00H
	DB	00H
	DB	00H
	DB	079H
	DB	00H
	DB	00H
	DB	00H
	DB	079H
	DB	00H
	DB	00H
	DB	00H
	DB	079H
	DB	00H
	DB	00H
	DB	00H
	DB	079H
	DB	00H
	DB	00H
	DB	00H
	DB	079H
	DB	00H
	DB	00H
	DB	00H
	DB	079H
	DB	00H
	DB	00H
	DB	00H
	DB	079H
	DB	00H
	DB	00H
	DB	00H
	DB	079H
	DB	00H
	DB	00H
	DB	00H
	DB	079H
	DB	00H
	DB	00H
	DB	00H
	DB	079H
	DB	00H
	DB	00H
	DB	00H
	DB	079H
	DB	00H
	DB	00H
	DB	00H
	DB	079H
	DB	00H
	DB	00H
	DB	00H
	DB	079H
	DB	00H
	DB	00H
	DB	00H
	DB	079H
	DB	00H
	DB	00H
	DB	00H
	DB	079H
	DB	00H
	DB	00H
	DB	00H
	DB	079H
	DB	00H
	DB	00H
	DB	00H
	DB	079H
	DB	00H
	DB	00H
	DB	00H
	DB	079H
	DB	00H
	DB	00H
	DB	00H
	DB	079H
	DB	00H
	DB	00H
	DB	00H
	DB	079H
	DB	00H
	DB	00H
	DB	00H
	DB	079H
	DB	00H
	DB	00H
	DB	00H
	DB	079H
	DB	00H
	DB	00H
	DB	00H
	DB	079H
	DB	00H
	DB	00H
	DB	00H
	DB	079H
	DB	00H
	DB	00H
	DB	00H
	DB	079H
	DB	00H
	DB	00H
	DB	00H
	DB	079H
	DB	00H
	DB	00H
	DB	00H
	DB	079H
	DB	00H
	DB	00H
	DB	00H
	DB	079H
	DB	00H
	DB	00H
	DB	00H
	DB	079H
	DB	00H
	DB	00H
	DB	00H
	DB	079H
	DB	00H
	DB	00H
	DB	00H
	DB	079H
	DB	00H
	DB	00H
	DB	00H
	DB	079H
	DB	00H
	DB	00H
	DB	00H
	DB	079H
	DB	00H
	DB	00H
	DB	00H
	DB	079H
	DB	00H
	DB	00H
	DB	00H
	DB	079H
	DB	00H
	DB	00H
	DB	00H
	DB	079H
	DB	00H
	DB	00H
	DB	00H
	DB	079H
	DB	00H
	DB	00H
	DB	00H
	DB	079H
	DB	00H
	DB	00H
	DB	00H
	DB	079H
	DB	00H
	DB	00H
	DB	00H
	DB	079H
	DB	00H
	DB	00H
	DB	00H
	DB	079H
	DB	00H
	DB	00H
	DB	00H
	DB	079H
	DB	00H
	DB	00H
	DB	00H
	DB	079H
	DB	00H
	DB	00H
	DB	00H
	DB	079H
	DB	00H
	DB	00H
	DB	00H
	DB	079H
	DB	00H
	DB	00H
	DB	00H
	DB	079H
	DB	00H
	DB	00H
	DB	00H
	DB	079H
	DB	00H
	DB	00H
	DB	00H
	DB	079H
	DB	00H
	DB	00H
	DB	00H
	DB	079H
	DB	00H
	DB	00H
	DB	00H
	DB	079H
	DB	00H
	DB	00H
	DB	00H
	DB	079H
	DB	00H
	DB	00H
	DB	00H
	DB	079H
	DB	00H
	DB	00H
	DB	00H
	DB	079H
	DB	00H
	DB	00H
	DB	00H
	DB	079H
	DB	00H
	DB	00H
	DB	00H
	DB	079H
	DB	00H
	DB	00H
	DB	00H
	DB	079H
	DB	00H
	DB	00H
	DB	00H
	DB	079H
	DB	00H
	DB	00H
	DB	00H
	DB	079H
	DB	00H
	DB	00H
	DB	00H
	DB	079H
	DB	00H
	DB	00H
	DB	00H
	DB	079H
	DB	00H
	DB	00H
	DB	00H
	DB	079H
	DB	00H
	DB	00H
	DB	00H
	DB	079H
	DB	00H
	DB	00H
	DB	00H
	DB	07dH
	DB	00H
	DB	00H
	DB	00H
	DB	079H
	DB	00H
	DB	00H
	DB	00H
	DB	079H
	DB	00H
	DB	00H
	DB	00H
	DB	079H
	DB	00H
	DB	00H
	DB	00H
	DB	079H
	DB	00H
	DB	00H
	DB	00H
	DB	079H
	DB	00H
	DB	00H
	DB	00H
	DB	071H
	DB	00H
	DB	00H
	DB	00H
	DB	06dH
	DB	00H
	DB	00H
	DB	00H
	DB	065H
	DB	00H
	DB	00H
	DB	00H
	DB	059H
	DB	00H
	DB	00H
	DB	00H
	DB	049H
	DB	00H
	DB	00H
	DB	00H
	DB	038H
	DB	00H
	DB	00H
	DB	00H
	DB	028H
	DB	00H
	DB	00H
	DB	00H
	DB	01cH
	DB	00H
	DB	00H
	DB	00H
	DB	00H
	DB	00H
	DB	00H
	DB	00H
	DB	00H
	DB	00H
	DB	00H
	DB	00H
	DB	00H
	DB	00H
	DB	00H
	DB	00H
	DB	00H
	DB	00H
	DB	00H
	DB	00H
	DB	00H
	DB	00H
	DB	00H
	DB	00H
	DB	00H
	DB	00H
	DB	00H
	DB	00H
	DB	00H
	DB	00H
	DB	00H
	DB	00H
	DB	00H
	DB	00H
	DB	00H
	DB	00H
	DB	00H
	DB	00H
	DB	00H
	DB	00H
	DB	00H
	DB	00H
	DB	00H
	DB	00H
	DB	00H
	DB	00H
	DB	00H
	DB	00H
	DB	00H
	DB	00H
	DB	00H
	DB	00H
	DB	00H
	DB	00H
	DB	00H
	DB	00H
	DB	04H
	DB	00H
	DB	00H
	DB	00H
	DB	08H
	DB	00H
	DB	00H
	DB	00H
	DB	0cH
	DB	00H
	DB	00H
	DB	00H
	DB	0cH
	DB	00H
	DB	00H
	DB	00H
	DB	010H
	DB	00H
	DB	00H
	DB	00H
	DB	010H
	DB	00H
	DB	00H
	DB	00H
	DB	010H
	DB	00H
	DB	00H
	DB	00H
	DB	030H
	DB	00H
	DB	00H
	DB	00H
	DB	041H
	DB	00H
	DB	00H
	DB	00H
	DB	055H
	DB	00H
	DB	00H
	DB	00H
	DB	065H
	DB	00H
	DB	00H
	DB	00H
	DB	075H
	DB	00H
	DB	00H
	DB	00H
	DB	082H
	DB	00H
	DB	00H
	DB	00H
	DB	08eH
	DB	00H
	DB	00H
	DB	00H
	DB	092H
	DB	00H
	DB	00H
	DB	00H
	DB	096H
	DB	00H
	DB	00H
	DB	00H
	DB	096H
	DB	00H
	DB	00H
	DB	00H
	DB	09aH
	DB	00H
	DB	00H
	DB	00H
	DB	09aH
	DB	00H
	DB	00H
	DB	00H
	DB	09aH
	DB	00H
	DB	00H
	DB	00H
	DB	09aH
	DB	00H
	DB	00H
	DB	00H
	DB	09aH
	DB	00H
	DB	00H
	DB	00H
	DB	09aH
	DB	00H
	DB	00H
	DB	00H
	DB	09aH
	DB	00H
	DB	00H
	DB	00H
	DB	09aH
	DB	00H
	DB	00H
	DB	00H
	DB	09aH
	DB	00H
	DB	00H
	DB	00H
	DB	09aH
	DB	00H
	DB	00H
	DB	00H
	DB	09aH
	DB	00H
	DB	00H
	DB	00H
	DB	09aH
	DB	00H
	DB	00H
	DB	00H
	DB	09aH
	DB	00H
	DB	00H
	DB	00H
	DB	09aH
	DB	00H
	DB	00H
	DB	00H
	DB	09aH
	DB	00H
	DB	00H
	DB	00H
	DB	09aH
	DB	00H
	DB	00H
	DB	00H
	DB	09aH
	DB	00H
	DB	00H
	DB	00H
	DB	09aH
	DB	00H
	DB	00H
	DB	00H
	DB	09aH
	DB	00H
	DB	00H
	DB	00H
	DB	09aH
	DB	00H
	DB	00H
	DB	00H
	DB	09aH
	DB	00H
	DB	00H
	DB	00H
	DB	09aH
	DB	00H
	DB	00H
	DB	00H
	DB	09aH
	DB	00H
	DB	00H
	DB	00H
	DB	09aH
	DB	00H
	DB	00H
	DB	00H
	DB	09aH
	DB	00H
	DB	00H
	DB	00H
	DB	09aH
	DB	00H
	DB	00H
	DB	00H
	DB	09aH
	DB	00H
	DB	00H
	DB	00H
	DB	09aH
	DB	00H
	DB	00H
	DB	00H
	DB	09aH
	DB	00H
	DB	00H
	DB	00H
	DB	09aH
	DB	00H
	DB	00H
	DB	00H
	DB	09aH
	DB	00H
	DB	00H
	DB	00H
	DB	09aH
	DB	00H
	DB	00H
	DB	00H
	DB	09aH
	DB	00H
	DB	00H
	DB	00H
	DB	09aH
	DB	00H
	DB	00H
	DB	00H
	DB	09aH
	DB	00H
	DB	00H
	DB	00H
	DB	09aH
	DB	00H
	DB	00H
	DB	00H
	DB	09aH
	DB	00H
	DB	00H
	DB	00H
	DB	09aH
	DB	00H
	DB	00H
	DB	00H
	DB	09aH
	DB	00H
	DB	00H
	DB	00H
	DB	09aH
	DB	00H
	DB	00H
	DB	00H
	DB	09aH
	DB	00H
	DB	00H
	DB	00H
	DB	09aH
	DB	00H
	DB	00H
	DB	00H
	DB	09aH
	DB	00H
	DB	00H
	DB	00H
	DB	09aH
	DB	00H
	DB	00H
	DB	00H
	DB	09aH
	DB	00H
	DB	00H
	DB	00H
	DB	09aH
	DB	00H
	DB	00H
	DB	00H
	DB	09aH
	DB	00H
	DB	00H
	DB	00H
	DB	09aH
	DB	00H
	DB	00H
	DB	00H
	DB	09aH
	DB	00H
	DB	00H
	DB	00H
	DB	09aH
	DB	00H
	DB	00H
	DB	00H
	DB	09aH
	DB	00H
	DB	00H
	DB	00H
	DB	09aH
	DB	00H
	DB	00H
	DB	00H
	DB	09aH
	DB	00H
	DB	00H
	DB	00H
	DB	09aH
	DB	00H
	DB	00H
	DB	00H
	DB	09aH
	DB	00H
	DB	00H
	DB	00H
	DB	09aH
	DB	00H
	DB	00H
	DB	00H
	DB	09aH
	DB	00H
	DB	00H
	DB	00H
	DB	09aH
	DB	00H
	DB	00H
	DB	00H
	DB	09aH
	DB	00H
	DB	00H
	DB	00H
	DB	09aH
	DB	00H
	DB	00H
	DB	00H
	DB	09aH
	DB	00H
	DB	00H
	DB	00H
	DB	09aH
	DB	00H
	DB	00H
	DB	00H
	DB	09aH
	DB	00H
	DB	00H
	DB	00H
	DB	09aH
	DB	00H
	DB	00H
	DB	00H
	DB	09aH
	DB	00H
	DB	00H
	DB	00H
	DB	09aH
	DB	00H
	DB	00H
	DB	00H
	DB	09aH
	DB	00H
	DB	00H
	DB	00H
	DB	09aH
	DB	00H
	DB	00H
	DB	00H
	DB	09aH
	DB	00H
	DB	00H
	DB	00H
	DB	09aH
	DB	00H
	DB	00H
	DB	00H
	DB	09aH
	DB	00H
	DB	00H
	DB	00H
	DB	09aH
	DB	00H
	DB	00H
	DB	00H
	DB	09aH
	DB	00H
	DB	00H
	DB	00H
	DB	09aH
	DB	00H
	DB	00H
	DB	00H
	DB	09aH
	DB	00H
	DB	00H
	DB	00H
	DB	09aH
	DB	00H
	DB	00H
	DB	00H
	DB	09aH
	DB	00H
	DB	00H
	DB	00H
	DB	09aH
	DB	00H
	DB	00H
	DB	00H
	DB	09aH
	DB	00H
	DB	00H
	DB	00H
	DB	09aH
	DB	00H
	DB	00H
	DB	00H
	DB	09aH
	DB	00H
	DB	00H
	DB	00H
	DB	09aH
	DB	00H
	DB	00H
	DB	00H
	DB	09aH
	DB	00H
	DB	00H
	DB	00H
	DB	09aH
	DB	00H
	DB	00H
	DB	00H
	DB	09aH
	DB	00H
	DB	00H
	DB	00H
	DB	09aH
	DB	00H
	DB	00H
	DB	00H
	DB	09aH
	DB	00H
	DB	00H
	DB	00H
	DB	09aH
	DB	00H
	DB	00H
	DB	00H
	DB	09aH
	DB	00H
	DB	00H
	DB	00H
	DB	09aH
	DB	00H
	DB	00H
	DB	00H
	DB	09aH
	DB	00H
	DB	00H
	DB	00H
	DB	09aH
	DB	00H
	DB	00H
	DB	00H
	DB	09aH
	DB	00H
	DB	00H
	DB	00H
	DB	09aH
	DB	00H
	DB	00H
	DB	00H
	DB	09aH
	DB	00H
	DB	00H
	DB	00H
	DB	09aH
	DB	00H
	DB	00H
	DB	00H
	DB	09aH
	DB	00H
	DB	00H
	DB	00H
	DB	09aH
	DB	00H
	DB	00H
	DB	00H
	DB	09aH
	DB	00H
	DB	00H
	DB	00H
	DB	09aH
	DB	00H
	DB	00H
	DB	00H
	DB	09aH
	DB	00H
	DB	00H
	DB	00H
	DB	09aH
	DB	00H
	DB	00H
	DB	00H
	DB	09aH
	DB	00H
	DB	00H
	DB	00H
	DB	09aH
	DB	00H
	DB	00H
	DB	00H
	DB	09aH
	DB	00H
	DB	00H
	DB	00H
	DB	09aH
	DB	00H
	DB	00H
	DB	00H
	DB	096H
	DB	00H
	DB	00H
	DB	00H
	DB	096H
	DB	00H
	DB	00H
	DB	00H
	DB	092H
	DB	00H
	DB	00H
	DB	00H
	DB	08eH
	DB	00H
	DB	00H
	DB	00H
	DB	082H
	DB	00H
	DB	00H
	DB	00H
	DB	075H
	DB	00H
	DB	00H
	DB	00H
	DB	065H
	DB	00H
	DB	00H
	DB	00H
	DB	055H
	DB	00H
	DB	00H
	DB	00H
	DB	041H
	DB	00H
	DB	00H
	DB	00H
	DB	034H
	DB	00H
	DB	00H
	DB	00H
	DB	010H
	DB	00H
	DB	00H
	DB	00H
	DB	010H
	DB	00H
	DB	00H
	DB	00H
	DB	010H
	DB	00H
	DB	00H
	DB	00H
	DB	0cH
	DB	00H
	DB	00H
	DB	00H
	DB	0cH
	DB	00H
	DB	00H
	DB	00H
	DB	08H
	DB	00H
	DB	00H
	DB	00H
	DB	04H
	DB	00H
	DB	00H
	DB	00H
	DB	00H
	DB	00H
	DB	00H
	DB	00H
	DB	00H
	DB	00H
	DB	00H
	DB	00H
	DB	00H
	DB	00H
	DB	00H
	DB	00H
	DB	00H
	DB	00H
	DB	00H
	DB	00H
	DB	04H
	DB	00H
	DB	00H
	DB	00H
	DB	08H
	DB	040H
	DB	02cH
	DB	00H
	DB	018H
	DB	0e0H
	DB	0a0H
	DB	00H
	DB	09eH
	DB	0e8H
	DB	0acH
	DB	00H
	DB	0efH
	DB	0f0H
	DB	0acH
	DB	00H
	DB	0ffH
	DB	0f0H
	DB	0acH
	DB	00H
	DB	0ffH
	DB	0f0H
	DB	0b0H
	DB	00H
	DB	0ffH
	DB	0f0H
	DB	0acH
	DB	00H
	DB	0ffH
	DB	0f0H
	DB	0acH
	DB	00H
	DB	0ffH
	DB	0f0H
	DB	0b0H
	DB	00H
	DB	0ffH
	DB	0f0H
	DB	0acH
	DB	00H
	DB	0ffH
	DB	0f0H
	DB	0acH
	DB	00H
	DB	0ffH
	DB	0f0H
	DB	0b0H
	DB	00H
	DB	0ffH
	DB	0f0H
	DB	0acH
	DB	00H
	DB	0ffH
	DB	0f0H
	DB	0acH
	DB	00H
	DB	0ffH
	DB	0f0H
	DB	0b0H
	DB	00H
	DB	0ffH
	DB	0f0H
	DB	0acH
	DB	00H
	DB	0ffH
	DB	0f0H
	DB	0acH
	DB	00H
	DB	0ffH
	DB	0f0H
	DB	0b0H
	DB	00H
	DB	0ffH
	DB	0f0H
	DB	0acH
	DB	00H
	DB	0ffH
	DB	0f0H
	DB	0acH
	DB	00H
	DB	0ffH
	DB	0f0H
	DB	0b0H
	DB	00H
	DB	0ffH
	DB	0f0H
	DB	0acH
	DB	00H
	DB	0ffH
	DB	0f0H
	DB	0acH
	DB	00H
	DB	0ffH
	DB	0f0H
	DB	0b0H
	DB	00H
	DB	0ffH
	DB	0f0H
	DB	0acH
	DB	00H
	DB	0ffH
	DB	0f0H
	DB	0acH
	DB	00H
	DB	0ffH
	DB	0f0H
	DB	0b0H
	DB	00H
	DB	0ffH
	DB	0f0H
	DB	0acH
	DB	00H
	DB	0ffH
	DB	0f0H
	DB	0acH
	DB	00H
	DB	0ffH
	DB	0f0H
	DB	0b0H
	DB	00H
	DB	0ffH
	DB	0f0H
	DB	0acH
	DB	00H
	DB	0ffH
	DB	0f0H
	DB	0acH
	DB	00H
	DB	0ffH
	DB	0f0H
	DB	0b0H
	DB	00H
	DB	0ffH
	DB	0f0H
	DB	0acH
	DB	00H
	DB	0ffH
	DB	0f0H
	DB	0acH
	DB	00H
	DB	0ffH
	DB	0f0H
	DB	0b0H
	DB	00H
	DB	0ffH
	DB	0f0H
	DB	0acH
	DB	00H
	DB	0ffH
	DB	0f0H
	DB	0acH
	DB	00H
	DB	0ffH
	DB	0f0H
	DB	0b0H
	DB	00H
	DB	0ffH
	DB	0f0H
	DB	0acH
	DB	00H
	DB	0ffH
	DB	0f0H
	DB	0acH
	DB	00H
	DB	0ffH
	DB	0f0H
	DB	0b0H
	DB	00H
	DB	0ffH
	DB	0f0H
	DB	0acH
	DB	00H
	DB	0ffH
	DB	0f0H
	DB	0acH
	DB	00H
	DB	0ffH
	DB	0f0H
	DB	0b0H
	DB	00H
	DB	0ffH
	DB	0f0H
	DB	0acH
	DB	00H
	DB	0ffH
	DB	0f0H
	DB	0acH
	DB	00H
	DB	0ffH
	DB	0f0H
	DB	0b0H
	DB	00H
	DB	0ffH
	DB	0f0H
	DB	0acH
	DB	00H
	DB	0ffH
	DB	0f0H
	DB	0acH
	DB	00H
	DB	0ffH
	DB	0f0H
	DB	0b0H
	DB	00H
	DB	0ffH
	DB	0f0H
	DB	0acH
	DB	00H
	DB	0ffH
	DB	0f0H
	DB	0acH
	DB	00H
	DB	0ffH
	DB	0f0H
	DB	0b0H
	DB	00H
	DB	0ffH
	DB	0f0H
	DB	0acH
	DB	00H
	DB	0ffH
	DB	0f0H
	DB	0acH
	DB	00H
	DB	0ffH
	DB	0f0H
	DB	0b0H
	DB	00H
	DB	0ffH
	DB	0f0H
	DB	0acH
	DB	00H
	DB	0ffH
	DB	0f0H
	DB	0acH
	DB	00H
	DB	0ffH
	DB	0f0H
	DB	0b0H
	DB	00H
	DB	0ffH
	DB	0f0H
	DB	0acH
	DB	00H
	DB	0ffH
	DB	0f0H
	DB	0acH
	DB	00H
	DB	0ffH
	DB	0f0H
	DB	0b0H
	DB	00H
	DB	0ffH
	DB	0f0H
	DB	0acH
	DB	00H
	DB	0ffH
	DB	0f0H
	DB	0acH
	DB	00H
	DB	0ffH
	DB	0f0H
	DB	0b0H
	DB	00H
	DB	0ffH
	DB	0f0H
	DB	0acH
	DB	00H
	DB	0ffH
	DB	0f0H
	DB	0acH
	DB	00H
	DB	0ffH
	DB	0f0H
	DB	0b0H
	DB	00H
	DB	0ffH
	DB	0f0H
	DB	0acH
	DB	00H
	DB	0ffH
	DB	0f0H
	DB	0acH
	DB	00H
	DB	0ffH
	DB	0f0H
	DB	0b0H
	DB	00H
	DB	0ffH
	DB	0f0H
	DB	0acH
	DB	00H
	DB	0ffH
	DB	0f0H
	DB	0acH
	DB	00H
	DB	0ffH
	DB	0f0H
	DB	0b0H
	DB	00H
	DB	0ffH
	DB	0f0H
	DB	0acH
	DB	00H
	DB	0ffH
	DB	0f0H
	DB	0acH
	DB	00H
	DB	0ffH
	DB	0f0H
	DB	0b0H
	DB	00H
	DB	0ffH
	DB	0f0H
	DB	0acH
	DB	00H
	DB	0ffH
	DB	0f0H
	DB	0acH
	DB	00H
	DB	0ffH
	DB	0f0H
	DB	0b0H
	DB	00H
	DB	0ffH
	DB	0f0H
	DB	0acH
	DB	00H
	DB	0ffH
	DB	0f0H
	DB	0acH
	DB	00H
	DB	0ffH
	DB	0f0H
	DB	0b0H
	DB	00H
	DB	0ffH
	DB	0f0H
	DB	0acH
	DB	00H
	DB	0ffH
	DB	0f0H
	DB	0acH
	DB	00H
	DB	0ffH
	DB	0f0H
	DB	0b0H
	DB	00H
	DB	0ffH
	DB	0f0H
	DB	0acH
	DB	00H
	DB	0ffH
	DB	0f0H
	DB	0acH
	DB	00H
	DB	0ffH
	DB	0f0H
	DB	0b0H
	DB	00H
	DB	0ffH
	DB	0f0H
	DB	0acH
	DB	00H
	DB	0ffH
	DB	0f0H
	DB	0acH
	DB	00H
	DB	0ffH
	DB	0f0H
	DB	0b0H
	DB	00H
	DB	0ffH
	DB	0f0H
	DB	0acH
	DB	00H
	DB	0ffH
	DB	0f0H
	DB	0acH
	DB	00H
	DB	0ffH
	DB	0f0H
	DB	0b0H
	DB	00H
	DB	0ffH
	DB	0f0H
	DB	0acH
	DB	00H
	DB	0ffH
	DB	0f0H
	DB	0acH
	DB	00H
	DB	0ffH
	DB	0f0H
	DB	0b0H
	DB	00H
	DB	0ffH
	DB	0f0H
	DB	0acH
	DB	00H
	DB	0ffH
	DB	0f0H
	DB	0acH
	DB	00H
	DB	0ffH
	DB	0f0H
	DB	0b0H
	DB	00H
	DB	0ffH
	DB	0f0H
	DB	0acH
	DB	00H
	DB	0ffH
	DB	0f0H
	DB	0acH
	DB	00H
	DB	0ffH
	DB	0f0H
	DB	0b0H
	DB	00H
	DB	0ffH
	DB	0f0H
	DB	0acH
	DB	00H
	DB	0ffH
	DB	0f0H
	DB	0acH
	DB	00H
	DB	0ffH
	DB	0f0H
	DB	0b0H
	DB	00H
	DB	0ffH
	DB	0f0H
	DB	0acH
	DB	00H
	DB	0ffH
	DB	0f0H
	DB	0acH
	DB	00H
	DB	0ffH
	DB	0f0H
	DB	0b0H
	DB	00H
	DB	0ffH
	DB	0f0H
	DB	0acH
	DB	00H
	DB	0ffH
	DB	0f0H
	DB	0acH
	DB	00H
	DB	0ffH
	DB	0f0H
	DB	0b0H
	DB	00H
	DB	0ffH
	DB	0f0H
	DB	0acH
	DB	00H
	DB	0ffH
	DB	0f0H
	DB	0acH
	DB	00H
	DB	0ffH
	DB	0f0H
	DB	0b0H
	DB	00H
	DB	0ffH
	DB	0f0H
	DB	0acH
	DB	00H
	DB	0ffH
	DB	0f0H
	DB	0acH
	DB	00H
	DB	0ffH
	DB	0f0H
	DB	0b0H
	DB	00H
	DB	0ffH
	DB	0f0H
	DB	0acH
	DB	00H
	DB	0ffH
	DB	0f0H
	DB	0acH
	DB	00H
	DB	0ffH
	DB	0f0H
	DB	0b0H
	DB	00H
	DB	0ffH
	DB	0f0H
	DB	0acH
	DB	00H
	DB	0ffH
	DB	0f0H
	DB	0acH
	DB	00H
	DB	0ffH
	DB	0f0H
	DB	0b0H
	DB	00H
	DB	0ffH
	DB	0f0H
	DB	0acH
	DB	00H
	DB	0ffH
	DB	0f0H
	DB	0acH
	DB	00H
	DB	0ffH
	DB	0f0H
	DB	0b0H
	DB	00H
	DB	0ffH
	DB	0f0H
	DB	0acH
	DB	00H
	DB	0ffH
	DB	0f0H
	DB	0acH
	DB	00H
	DB	0ffH
	DB	0f0H
	DB	0b0H
	DB	00H
	DB	0ffH
	DB	0f0H
	DB	0acH
	DB	00H
	DB	0ffH
	DB	0f0H
	DB	0acH
	DB	00H
	DB	0ffH
	DB	0f0H
	DB	0b0H
	DB	00H
	DB	0ffH
	DB	0f0H
	DB	0acH
	DB	00H
	DB	0ffH
	DB	0f0H
	DB	0acH
	DB	00H
	DB	0ffH
	DB	0f0H
	DB	0acH
	DB	00H
	DB	0efH
	DB	0d8H
	DB	0a0H
	DB	00H
	DB	09eH
	DB	040H
	DB	02cH
	DB	00H
	DB	018H
	DB	00H
	DB	00H
	DB	00H
	DB	08H
	DB	00H
	DB	00H
	DB	00H
	DB	04H
	DB	00H
	DB	00H
	DB	00H
	DB	00H
	DB	00H
	DB	00H
	DB	00H
	DB	00H
	DB	00H
	DB	00H
	DB	00H
	DB	08H
	DB	00H
	DB	00H
	DB	00H
	DB	018H
	DB	0d8H
	DB	09cH
	DB	00H
	DB	0a2H
	DB	0f0H
	DB	0acH
	DB	00H
	DB	0ffH
	DB	0f0H
	DB	0b0H
	DB	00H
	DB	0ffH
	DB	0f0H
	DB	0b0H
	DB	00H
	DB	0ffH
	DB	0f0H
	DB	0acH
	DB	00H
	DB	0ffH
	DB	0f0H
	DB	0b0H
	DB	00H
	DB	0ffH
	DB	0f0H
	DB	0acH
	DB	00H
	DB	0ffH
	DB	0f0H
	DB	0b0H
	DB	00H
	DB	0ffH
	DB	0f0H
	DB	0b0H
	DB	00H
	DB	0ffH
	DB	0f0H
	DB	0acH
	DB	00H
	DB	0ffH
	DB	0f0H
	DB	0b0H
	DB	00H
	DB	0ffH
	DB	0f0H
	DB	0acH
	DB	00H
	DB	0ffH
	DB	0f0H
	DB	0b0H
	DB	00H
	DB	0ffH
	DB	0f0H
	DB	0acH
	DB	00H
	DB	0ffH
	DB	0f0H
	DB	0b0H
	DB	00H
	DB	0ffH
	DB	0f0H
	DB	0acH
	DB	00H
	DB	0ffH
	DB	0f0H
	DB	0b0H
	DB	00H
	DB	0ffH
	DB	0f0H
	DB	0b0H
	DB	00H
	DB	0ffH
	DB	0f0H
	DB	0acH
	DB	00H
	DB	0ffH
	DB	0f0H
	DB	0b0H
	DB	00H
	DB	0ffH
	DB	0f0H
	DB	0acH
	DB	00H
	DB	0ffH
	DB	0f0H
	DB	0b0H
	DB	00H
	DB	0ffH
	DB	0f0H
	DB	0acH
	DB	00H
	DB	0ffH
	DB	0f0H
	DB	0b0H
	DB	00H
	DB	0ffH
	DB	0f0H
	DB	0acH
	DB	00H
	DB	0ffH
	DB	0f0H
	DB	0b0H
	DB	00H
	DB	0ffH
	DB	0f0H
	DB	0b0H
	DB	00H
	DB	0ffH
	DB	0f0H
	DB	0acH
	DB	00H
	DB	0ffH
	DB	0f0H
	DB	0b0H
	DB	00H
	DB	0ffH
	DB	0f0H
	DB	0acH
	DB	00H
	DB	0ffH
	DB	0f0H
	DB	0b0H
	DB	00H
	DB	0ffH
	DB	0f0H
	DB	0acH
	DB	00H
	DB	0ffH
	DB	0f0H
	DB	0b0H
	DB	00H
	DB	0ffH
	DB	0f0H
	DB	0acH
	DB	00H
	DB	0ffH
	DB	0f0H
	DB	0b0H
	DB	00H
	DB	0ffH
	DB	0f0H
	DB	0b0H
	DB	00H
	DB	0ffH
	DB	0f0H
	DB	0acH
	DB	00H
	DB	0ffH
	DB	0f0H
	DB	0b0H
	DB	00H
	DB	0ffH
	DB	0f0H
	DB	0acH
	DB	00H
	DB	0ffH
	DB	0f0H
	DB	0b0H
	DB	00H
	DB	0ffH
	DB	0f0H
	DB	0acH
	DB	00H
	DB	0ffH
	DB	0f0H
	DB	0b0H
	DB	00H
	DB	0ffH
	DB	0f0H
	DB	0acH
	DB	00H
	DB	0ffH
	DB	0f0H
	DB	0b0H
	DB	00H
	DB	0ffH
	DB	0f0H
	DB	0b0H
	DB	00H
	DB	0ffH
	DB	0f0H
	DB	0acH
	DB	00H
	DB	0ffH
	DB	0f0H
	DB	0b0H
	DB	00H
	DB	0ffH
	DB	0f0H
	DB	0acH
	DB	00H
	DB	0ffH
	DB	0f0H
	DB	0b0H
	DB	00H
	DB	0ffH
	DB	0f0H
	DB	0acH
	DB	00H
	DB	0ffH
	DB	0f0H
	DB	0b0H
	DB	00H
	DB	0ffH
	DB	0f0H
	DB	0acH
	DB	00H
	DB	0ffH
	DB	0f0H
	DB	0b0H
	DB	00H
	DB	0ffH
	DB	0f0H
	DB	0b0H
	DB	00H
	DB	0ffH
	DB	0f0H
	DB	0acH
	DB	00H
	DB	0ffH
	DB	0f0H
	DB	0b0H
	DB	00H
	DB	0ffH
	DB	0f0H
	DB	0acH
	DB	00H
	DB	0ffH
	DB	0f0H
	DB	0b0H
	DB	00H
	DB	0ffH
	DB	0f0H
	DB	0acH
	DB	00H
	DB	0ffH
	DB	0f0H
	DB	0b0H
	DB	00H
	DB	0ffH
	DB	0f0H
	DB	0acH
	DB	00H
	DB	0ffH
	DB	0f0H
	DB	0b0H
	DB	00H
	DB	0ffH
	DB	0f0H
	DB	0b0H
	DB	00H
	DB	0ffH
	DB	0f0H
	DB	0acH
	DB	00H
	DB	0ffH
	DB	0f0H
	DB	0b0H
	DB	00H
	DB	0ffH
	DB	0f0H
	DB	0acH
	DB	00H
	DB	0ffH
	DB	0f0H
	DB	0b0H
	DB	00H
	DB	0ffH
	DB	0f0H
	DB	0acH
	DB	00H
	DB	0ffH
	DB	0f0H
	DB	0b0H
	DB	00H
	DB	0ffH
	DB	0f0H
	DB	0acH
	DB	00H
	DB	0ffH
	DB	0f0H
	DB	0b0H
	DB	00H
	DB	0ffH
	DB	0f0H
	DB	0b0H
	DB	00H
	DB	0ffH
	DB	0f0H
	DB	0acH
	DB	00H
	DB	0ffH
	DB	0f0H
	DB	0b0H
	DB	00H
	DB	0ffH
	DB	0f0H
	DB	0acH
	DB	00H
	DB	0ffH
	DB	0f0H
	DB	0b0H
	DB	00H
	DB	0ffH
	DB	0f0H
	DB	0acH
	DB	00H
	DB	0ffH
	DB	0f0H
	DB	0b0H
	DB	00H
	DB	0ffH
	DB	0f0H
	DB	0acH
	DB	00H
	DB	0ffH
	DB	0f0H
	DB	0b0H
	DB	00H
	DB	0ffH
	DB	0f0H
	DB	0b0H
	DB	00H
	DB	0ffH
	DB	0f0H
	DB	0acH
	DB	00H
	DB	0ffH
	DB	0f0H
	DB	0b0H
	DB	00H
	DB	0ffH
	DB	0f0H
	DB	0acH
	DB	00H
	DB	0ffH
	DB	0f0H
	DB	0b0H
	DB	00H
	DB	0ffH
	DB	0f0H
	DB	0acH
	DB	00H
	DB	0ffH
	DB	0f0H
	DB	0b0H
	DB	00H
	DB	0ffH
	DB	0f0H
	DB	0acH
	DB	00H
	DB	0ffH
	DB	0f0H
	DB	0b0H
	DB	00H
	DB	0ffH
	DB	0f0H
	DB	0b0H
	DB	00H
	DB	0ffH
	DB	0f0H
	DB	0acH
	DB	00H
	DB	0ffH
	DB	0f0H
	DB	0b0H
	DB	00H
	DB	0ffH
	DB	0f0H
	DB	0acH
	DB	00H
	DB	0ffH
	DB	0f0H
	DB	0b0H
	DB	00H
	DB	0ffH
	DB	0f0H
	DB	0acH
	DB	00H
	DB	0ffH
	DB	0f0H
	DB	0b0H
	DB	00H
	DB	0ffH
	DB	0f0H
	DB	0acH
	DB	00H
	DB	0ffH
	DB	0f0H
	DB	0b0H
	DB	00H
	DB	0ffH
	DB	0f0H
	DB	0b0H
	DB	00H
	DB	0ffH
	DB	0f0H
	DB	0acH
	DB	00H
	DB	0ffH
	DB	0f0H
	DB	0b0H
	DB	00H
	DB	0ffH
	DB	0f0H
	DB	0acH
	DB	00H
	DB	0ffH
	DB	0f0H
	DB	0b0H
	DB	00H
	DB	0ffH
	DB	0f0H
	DB	0acH
	DB	00H
	DB	0ffH
	DB	0f0H
	DB	0b0H
	DB	00H
	DB	0ffH
	DB	0f0H
	DB	0acH
	DB	00H
	DB	0ffH
	DB	0f0H
	DB	0b0H
	DB	00H
	DB	0ffH
	DB	0f0H
	DB	0b0H
	DB	00H
	DB	0ffH
	DB	0f0H
	DB	0acH
	DB	00H
	DB	0ffH
	DB	0f0H
	DB	0b0H
	DB	00H
	DB	0ffH
	DB	0f0H
	DB	0acH
	DB	00H
	DB	0ffH
	DB	0f0H
	DB	0b0H
	DB	00H
	DB	0ffH
	DB	0f0H
	DB	0acH
	DB	00H
	DB	0ffH
	DB	0f0H
	DB	0b0H
	DB	00H
	DB	0ffH
	DB	0f0H
	DB	0acH
	DB	00H
	DB	0ffH
	DB	0f0H
	DB	0b0H
	DB	00H
	DB	0ffH
	DB	0f0H
	DB	0b0H
	DB	00H
	DB	0ffH
	DB	0f0H
	DB	0acH
	DB	00H
	DB	0ffH
	DB	0f0H
	DB	0b0H
	DB	00H
	DB	0ffH
	DB	0f0H
	DB	0acH
	DB	00H
	DB	0ffH
	DB	0f0H
	DB	0b0H
	DB	00H
	DB	0ffH
	DB	0f0H
	DB	0acH
	DB	00H
	DB	0ffH
	DB	0f0H
	DB	0b0H
	DB	00H
	DB	0ffH
	DB	0f0H
	DB	0acH
	DB	00H
	DB	0ffH
	DB	0f0H
	DB	0b0H
	DB	00H
	DB	0ffH
	DB	0f0H
	DB	0b0H
	DB	00H
	DB	0ffH
	DB	0f0H
	DB	0acH
	DB	00H
	DB	0ffH
	DB	0f0H
	DB	0b0H
	DB	00H
	DB	0ffH
	DB	0f0H
	DB	0acH
	DB	00H
	DB	0ffH
	DB	0f0H
	DB	0b0H
	DB	00H
	DB	0ffH
	DB	0f0H
	DB	0acH
	DB	00H
	DB	0ffH
	DB	0f0H
	DB	0b0H
	DB	00H
	DB	0ffH
	DB	0f0H
	DB	0acH
	DB	00H
	DB	0ffH
	DB	0f0H
	DB	0b0H
	DB	00H
	DB	0ffH
	DB	0f0H
	DB	0b0H
	DB	00H
	DB	0ffH
	DB	0f0H
	DB	0acH
	DB	00H
	DB	0ffH
	DB	0f0H
	DB	0b0H
	DB	00H
	DB	0ffH
	DB	0f0H
	DB	0b0H
	DB	00H
	DB	0ffH
	DB	0f0H
	DB	0acH
	DB	00H
	DB	0ffH
	DB	0d0H
	DB	098H
	DB	00H
	DB	09aH
	DB	00H
	DB	00H
	DB	00H
	DB	014H
	DB	00H
	DB	00H
	DB	00H
	DB	08H
	DB	00H
	DB	00H
	DB	00H
	DB	04H
	DB	00H
	DB	00H
	DB	00H
	DB	04H
	DB	00H
	DB	00H
	DB	00H
	DB	014H
	DB	00H
	DB	00H
	DB	00H
	DB	028H
	DB	0e8H
	DB	0a8H
	DB	00H
	DB	0f3H
	DB	0f0H
	DB	0acH
	DB	00H
	DB	0ffH
	DB	0f0H
	DB	0b0H
	DB	00H
	DB	0ffH
	DB	0f0H
	DB	0acH
	DB	00H
	DB	0ffH
	DB	0f0H
	DB	0b0H
	DB	00H
	DB	0ffH
	DB	0f0H
	DB	0acH
	DB	00H
	DB	0ffH
	DB	0f0H
	DB	0b0H
	DB	00H
	DB	0ffH
	DB	0f0H
	DB	0acH
	DB	00H
	DB	0ffH
	DB	0f0H
	DB	0acH
	DB	00H
	DB	0ffH
	DB	0f0H
	DB	0b0H
	DB	00H
	DB	0ffH
	DB	0f0H
	DB	0acH
	DB	00H
	DB	0ffH
	DB	0f0H
	DB	0b0H
	DB	00H
	DB	0ffH
	DB	0f0H
	DB	0acH
	DB	00H
	DB	0ffH
	DB	0f0H
	DB	0b0H
	DB	00H
	DB	0ffH
	DB	0f0H
	DB	0acH
	DB	00H
	DB	0ffH
	DB	0f0H
	DB	0b0H
	DB	00H
	DB	0ffH
	DB	0f0H
	DB	0acH
	DB	00H
	DB	0ffH
	DB	0f0H
	DB	0acH
	DB	00H
	DB	0ffH
	DB	0f0H
	DB	0b0H
	DB	00H
	DB	0ffH
	DB	0f0H
	DB	0acH
	DB	00H
	DB	0ffH
	DB	0f0H
	DB	0b0H
	DB	00H
	DB	0ffH
	DB	0f0H
	DB	0acH
	DB	00H
	DB	0ffH
	DB	0f0H
	DB	0b0H
	DB	00H
	DB	0ffH
	DB	0f0H
	DB	0acH
	DB	00H
	DB	0ffH
	DB	0f0H
	DB	0b0H
	DB	00H
	DB	0ffH
	DB	0f0H
	DB	0acH
	DB	00H
	DB	0ffH
	DB	0f0H
	DB	0acH
	DB	00H
	DB	0ffH
	DB	0f0H
	DB	0b0H
	DB	00H
	DB	0ffH
	DB	0f0H
	DB	0acH
	DB	00H
	DB	0ffH
	DB	0f0H
	DB	0b0H
	DB	00H
	DB	0ffH
	DB	0f0H
	DB	0acH
	DB	00H
	DB	0ffH
	DB	0f0H
	DB	0b0H
	DB	00H
	DB	0ffH
	DB	0f0H
	DB	0acH
	DB	00H
	DB	0ffH
	DB	0f0H
	DB	0b0H
	DB	00H
	DB	0ffH
	DB	0f0H
	DB	0acH
	DB	00H
	DB	0ffH
	DB	0f0H
	DB	0acH
	DB	00H
	DB	0ffH
	DB	0f0H
	DB	0b0H
	DB	00H
	DB	0ffH
	DB	0f0H
	DB	0acH
	DB	00H
	DB	0ffH
	DB	0f0H
	DB	0b0H
	DB	00H
	DB	0ffH
	DB	0f0H
	DB	0acH
	DB	00H
	DB	0ffH
	DB	0f0H
	DB	0b0H
	DB	00H
	DB	0ffH
	DB	0f0H
	DB	0acH
	DB	00H
	DB	0ffH
	DB	0f0H
	DB	0b0H
	DB	00H
	DB	0ffH
	DB	0f0H
	DB	0acH
	DB	00H
	DB	0ffH
	DB	0f0H
	DB	0acH
	DB	00H
	DB	0ffH
	DB	0f0H
	DB	0b0H
	DB	00H
	DB	0ffH
	DB	0f0H
	DB	0acH
	DB	00H
	DB	0ffH
	DB	0f0H
	DB	0b0H
	DB	00H
	DB	0ffH
	DB	0f0H
	DB	0acH
	DB	00H
	DB	0ffH
	DB	0f0H
	DB	0b0H
	DB	00H
	DB	0ffH
	DB	0f0H
	DB	0acH
	DB	00H
	DB	0ffH
	DB	0f0H
	DB	0b0H
	DB	00H
	DB	0ffH
	DB	0f0H
	DB	0acH
	DB	00H
	DB	0ffH
	DB	0f0H
	DB	0acH
	DB	00H
	DB	0ffH
	DB	0f0H
	DB	0b0H
	DB	00H
	DB	0ffH
	DB	0f0H
	DB	0acH
	DB	00H
	DB	0ffH
	DB	0f0H
	DB	0b0H
	DB	00H
	DB	0ffH
	DB	0f0H
	DB	0acH
	DB	00H
	DB	0ffH
	DB	0f0H
	DB	0b0H
	DB	00H
	DB	0ffH
	DB	0f0H
	DB	0acH
	DB	00H
	DB	0ffH
	DB	0f0H
	DB	0b0H
	DB	00H
	DB	0ffH
	DB	0f0H
	DB	0acH
	DB	00H
	DB	0ffH
	DB	0f0H
	DB	0acH
	DB	00H
	DB	0ffH
	DB	0f0H
	DB	0b0H
	DB	00H
	DB	0ffH
	DB	0f0H
	DB	0acH
	DB	00H
	DB	0ffH
	DB	0f0H
	DB	0b0H
	DB	00H
	DB	0ffH
	DB	0f0H
	DB	0acH
	DB	00H
	DB	0ffH
	DB	0f0H
	DB	0b0H
	DB	00H
	DB	0ffH
	DB	0f0H
	DB	0acH
	DB	00H
	DB	0ffH
	DB	0f0H
	DB	0b0H
	DB	00H
	DB	0ffH
	DB	0f0H
	DB	0acH
	DB	00H
	DB	0ffH
	DB	0f0H
	DB	0acH
	DB	00H
	DB	0ffH
	DB	0f0H
	DB	0b0H
	DB	00H
	DB	0ffH
	DB	0f0H
	DB	0acH
	DB	00H
	DB	0ffH
	DB	0f0H
	DB	0b0H
	DB	00H
	DB	0ffH
	DB	0f0H
	DB	0acH
	DB	00H
	DB	0ffH
	DB	0f0H
	DB	0b0H
	DB	00H
	DB	0ffH
	DB	0f0H
	DB	0acH
	DB	00H
	DB	0ffH
	DB	0f0H
	DB	0b0H
	DB	00H
	DB	0ffH
	DB	0f0H
	DB	0acH
	DB	00H
	DB	0ffH
	DB	0f0H
	DB	0acH
	DB	00H
	DB	0ffH
	DB	0f0H
	DB	0b0H
	DB	00H
	DB	0ffH
	DB	0f0H
	DB	0acH
	DB	00H
	DB	0ffH
	DB	0f0H
	DB	0b0H
	DB	00H
	DB	0ffH
	DB	0f0H
	DB	0acH
	DB	00H
	DB	0ffH
	DB	0f0H
	DB	0b0H
	DB	00H
	DB	0ffH
	DB	0f0H
	DB	0acH
	DB	00H
	DB	0ffH
	DB	0f0H
	DB	0b0H
	DB	00H
	DB	0ffH
	DB	0f0H
	DB	0acH
	DB	00H
	DB	0ffH
	DB	0f0H
	DB	0acH
	DB	00H
	DB	0ffH
	DB	0f0H
	DB	0b0H
	DB	00H
	DB	0ffH
	DB	0f0H
	DB	0acH
	DB	00H
	DB	0ffH
	DB	0f0H
	DB	0b0H
	DB	00H
	DB	0ffH
	DB	0f0H
	DB	0acH
	DB	00H
	DB	0ffH
	DB	0f0H
	DB	0b0H
	DB	00H
	DB	0ffH
	DB	0f0H
	DB	0acH
	DB	00H
	DB	0ffH
	DB	0f0H
	DB	0b0H
	DB	00H
	DB	0ffH
	DB	0f0H
	DB	0acH
	DB	00H
	DB	0ffH
	DB	0f0H
	DB	0acH
	DB	00H
	DB	0ffH
	DB	0f0H
	DB	0b0H
	DB	00H
	DB	0ffH
	DB	0f0H
	DB	0acH
	DB	00H
	DB	0ffH
	DB	0f0H
	DB	0b0H
	DB	00H
	DB	0ffH
	DB	0f0H
	DB	0acH
	DB	00H
	DB	0ffH
	DB	0f0H
	DB	0b0H
	DB	00H
	DB	0ffH
	DB	0f0H
	DB	0acH
	DB	00H
	DB	0ffH
	DB	0f0H
	DB	0b0H
	DB	00H
	DB	0ffH
	DB	0f0H
	DB	0acH
	DB	00H
	DB	0ffH
	DB	0f0H
	DB	0acH
	DB	00H
	DB	0ffH
	DB	0f0H
	DB	0b0H
	DB	00H
	DB	0ffH
	DB	0f0H
	DB	0acH
	DB	00H
	DB	0ffH
	DB	0f0H
	DB	0b0H
	DB	00H
	DB	0ffH
	DB	0f0H
	DB	0acH
	DB	00H
	DB	0ffH
	DB	0f0H
	DB	0b0H
	DB	00H
	DB	0ffH
	DB	0f0H
	DB	0acH
	DB	00H
	DB	0ffH
	DB	0f0H
	DB	0b0H
	DB	00H
	DB	0ffH
	DB	0f0H
	DB	0acH
	DB	00H
	DB	0ffH
	DB	0f0H
	DB	0acH
	DB	00H
	DB	0ffH
	DB	0f0H
	DB	0b0H
	DB	00H
	DB	0ffH
	DB	0f0H
	DB	0acH
	DB	00H
	DB	0ffH
	DB	0f0H
	DB	0b0H
	DB	00H
	DB	0ffH
	DB	0f0H
	DB	0acH
	DB	00H
	DB	0ffH
	DB	0f0H
	DB	0b0H
	DB	00H
	DB	0ffH
	DB	0f0H
	DB	0acH
	DB	00H
	DB	0ffH
	DB	0f0H
	DB	0b0H
	DB	00H
	DB	0ffH
	DB	0f0H
	DB	0acH
	DB	00H
	DB	0ffH
	DB	0f0H
	DB	0acH
	DB	00H
	DB	0ffH
	DB	0f0H
	DB	0b0H
	DB	00H
	DB	0ffH
	DB	0f0H
	DB	0acH
	DB	00H
	DB	0ffH
	DB	0f0H
	DB	0b0H
	DB	00H
	DB	0ffH
	DB	0f0H
	DB	0acH
	DB	00H
	DB	0ffH
	DB	0f0H
	DB	0b0H
	DB	00H
	DB	0ffH
	DB	0f0H
	DB	0acH
	DB	00H
	DB	0ffH
	DB	0f0H
	DB	0b0H
	DB	00H
	DB	0ffH
	DB	0f0H
	DB	0acH
	DB	00H
	DB	0ffH
	DB	0f0H
	DB	0acH
	DB	00H
	DB	0ffH
	DB	0f0H
	DB	0b0H
	DB	00H
	DB	0ffH
	DB	0f0H
	DB	0acH
	DB	00H
	DB	0ffH
	DB	0f0H
	DB	0b0H
	DB	00H
	DB	0ffH
	DB	0f0H
	DB	0acH
	DB	00H
	DB	0ffH
	DB	0e8H
	DB	0acH
	DB	00H
	DB	0f3H
	DB	00H
	DB	00H
	DB	00H
	DB	028H
	DB	00H
	DB	00H
	DB	00H
	DB	010H
	DB	00H
	DB	00H
	DB	00H
	DB	04H
	DB	00H
	DB	00H
	DB	00H
	DB	08H
	DB	00H
	DB	00H
	DB	00H
	DB	01cH
	DB	00H
	DB	00H
	DB	00H
	DB	03cH
	DB	0f0H
	DB	0b0H
	DB	00H
	DB	0ffH
	DB	0f0H
	DB	0b0H
	DB	00H
	DB	0ffH
	DB	0f0H
	DB	0acH
	DB	00H
	DB	0ffH
	DB	028H
	DB	02cH
	DB	028H
	DB	0ffH
	DB	028H
	DB	02cH
	DB	028H
	DB	0ffH
	DB	00H
	DB	04H
	DB	08H
	DB	0ffH
	DB	08H
	DB	08H
	DB	08H
	DB	0ffH
	DB	00H
	DB	04H
	DB	00H
	DB	0ffH
	DB	00H
	DB	04H
	DB	00H
	DB	0ffH
	DB	00H
	DB	04H
	DB	00H
	DB	0ffH
	DB	00H
	DB	00H
	DB	00H
	DB	0ffH
	DB	00H
	DB	04H
	DB	00H
	DB	0ffH
	DB	00H
	DB	04H
	DB	00H
	DB	0ffH
	DB	00H
	DB	00H
	DB	00H
	DB	0ffH
	DB	00H
	DB	04H
	DB	00H
	DB	0ffH
	DB	00H
	DB	00H
	DB	00H
	DB	0ffH
	DB	00H
	DB	04H
	DB	00H
	DB	0ffH
	DB	00H
	DB	04H
	DB	00H
	DB	0ffH
	DB	00H
	DB	00H
	DB	00H
	DB	0ffH
	DB	00H
	DB	04H
	DB	00H
	DB	0ffH
	DB	00H
	DB	00H
	DB	00H
	DB	0ffH
	DB	00H
	DB	04H
	DB	00H
	DB	0ffH
	DB	00H
	DB	00H
	DB	00H
	DB	0ffH
	DB	00H
	DB	04H
	DB	00H
	DB	0ffH
	DB	00H
	DB	04H
	DB	00H
	DB	0ffH
	DB	00H
	DB	00H
	DB	00H
	DB	0ffH
	DB	00H
	DB	04H
	DB	00H
	DB	0ffH
	DB	00H
	DB	00H
	DB	00H
	DB	0ffH
	DB	00H
	DB	04H
	DB	00H
	DB	0ffH
	DB	00H
	DB	00H
	DB	00H
	DB	0ffH
	DB	00H
	DB	04H
	DB	00H
	DB	0ffH
	DB	00H
	DB	00H
	DB	00H
	DB	0ffH
	DB	00H
	DB	04H
	DB	00H
	DB	0ffH
	DB	00H
	DB	04H
	DB	00H
	DB	0ffH
	DB	00H
	DB	00H
	DB	00H
	DB	0ffH
	DB	00H
	DB	04H
	DB	00H
	DB	0ffH
	DB	00H
	DB	00H
	DB	00H
	DB	0ffH
	DB	00H
	DB	04H
	DB	00H
	DB	0ffH
	DB	00H
	DB	00H
	DB	00H
	DB	0ffH
	DB	00H
	DB	04H
	DB	00H
	DB	0ffH
	DB	00H
	DB	00H
	DB	00H
	DB	0ffH
	DB	00H
	DB	04H
	DB	00H
	DB	0ffH
	DB	00H
	DB	04H
	DB	00H
	DB	0ffH
	DB	00H
	DB	00H
	DB	00H
	DB	0ffH
	DB	00H
	DB	04H
	DB	00H
	DB	0ffH
	DB	00H
	DB	00H
	DB	00H
	DB	0ffH
	DB	00H
	DB	04H
	DB	00H
	DB	0ffH
	DB	00H
	DB	00H
	DB	00H
	DB	0ffH
	DB	00H
	DB	04H
	DB	00H
	DB	0ffH
	DB	00H
	DB	00H
	DB	00H
	DB	0ffH
	DB	00H
	DB	04H
	DB	00H
	DB	0ffH
	DB	00H
	DB	04H
	DB	00H
	DB	0ffH
	DB	00H
	DB	00H
	DB	00H
	DB	0ffH
	DB	00H
	DB	04H
	DB	00H
	DB	0ffH
	DB	00H
	DB	00H
	DB	00H
	DB	0ffH
	DB	00H
	DB	04H
	DB	00H
	DB	0ffH
	DB	00H
	DB	00H
	DB	00H
	DB	0ffH
	DB	00H
	DB	04H
	DB	00H
	DB	0ffH
	DB	00H
	DB	00H
	DB	00H
	DB	0ffH
	DB	00H
	DB	04H
	DB	00H
	DB	0ffH
	DB	00H
	DB	04H
	DB	00H
	DB	0ffH
	DB	00H
	DB	00H
	DB	00H
	DB	0ffH
	DB	00H
	DB	04H
	DB	00H
	DB	0ffH
	DB	00H
	DB	00H
	DB	00H
	DB	0ffH
	DB	00H
	DB	04H
	DB	00H
	DB	0ffH
	DB	00H
	DB	00H
	DB	00H
	DB	0ffH
	DB	00H
	DB	04H
	DB	00H
	DB	0ffH
	DB	00H
	DB	00H
	DB	00H
	DB	0ffH
	DB	00H
	DB	04H
	DB	00H
	DB	0ffH
	DB	00H
	DB	04H
	DB	00H
	DB	0ffH
	DB	00H
	DB	00H
	DB	00H
	DB	0ffH
	DB	00H
	DB	04H
	DB	00H
	DB	0ffH
	DB	00H
	DB	00H
	DB	00H
	DB	0ffH
	DB	00H
	DB	04H
	DB	00H
	DB	0ffH
	DB	00H
	DB	00H
	DB	00H
	DB	0ffH
	DB	00H
	DB	04H
	DB	00H
	DB	0ffH
	DB	00H
	DB	00H
	DB	00H
	DB	0ffH
	DB	00H
	DB	04H
	DB	00H
	DB	0ffH
	DB	00H
	DB	04H
	DB	00H
	DB	0ffH
	DB	00H
	DB	00H
	DB	00H
	DB	0ffH
	DB	00H
	DB	04H
	DB	00H
	DB	0ffH
	DB	00H
	DB	00H
	DB	00H
	DB	0ffH
	DB	00H
	DB	04H
	DB	00H
	DB	0ffH
	DB	00H
	DB	00H
	DB	00H
	DB	0ffH
	DB	00H
	DB	04H
	DB	00H
	DB	0ffH
	DB	00H
	DB	00H
	DB	00H
	DB	0ffH
	DB	00H
	DB	04H
	DB	00H
	DB	0ffH
	DB	00H
	DB	04H
	DB	00H
	DB	0ffH
	DB	00H
	DB	00H
	DB	00H
	DB	0ffH
	DB	00H
	DB	04H
	DB	00H
	DB	0ffH
	DB	00H
	DB	00H
	DB	00H
	DB	0ffH
	DB	00H
	DB	04H
	DB	00H
	DB	0ffH
	DB	00H
	DB	00H
	DB	00H
	DB	0ffH
	DB	00H
	DB	04H
	DB	00H
	DB	0ffH
	DB	00H
	DB	00H
	DB	00H
	DB	0ffH
	DB	00H
	DB	04H
	DB	00H
	DB	0ffH
	DB	00H
	DB	04H
	DB	00H
	DB	0ffH
	DB	00H
	DB	00H
	DB	00H
	DB	0ffH
	DB	00H
	DB	04H
	DB	00H
	DB	0ffH
	DB	00H
	DB	00H
	DB	00H
	DB	0ffH
	DB	00H
	DB	04H
	DB	00H
	DB	0ffH
	DB	00H
	DB	00H
	DB	00H
	DB	0ffH
	DB	00H
	DB	04H
	DB	00H
	DB	0ffH
	DB	00H
	DB	00H
	DB	00H
	DB	0ffH
	DB	00H
	DB	04H
	DB	00H
	DB	0ffH
	DB	00H
	DB	04H
	DB	00H
	DB	0ffH
	DB	00H
	DB	00H
	DB	00H
	DB	0ffH
	DB	00H
	DB	04H
	DB	00H
	DB	0ffH
	DB	00H
	DB	00H
	DB	00H
	DB	0ffH
	DB	00H
	DB	04H
	DB	00H
	DB	0ffH
	DB	00H
	DB	00H
	DB	00H
	DB	0ffH
	DB	00H
	DB	04H
	DB	00H
	DB	0ffH
	DB	00H
	DB	00H
	DB	00H
	DB	0ffH
	DB	00H
	DB	04H
	DB	00H
	DB	0ffH
	DB	00H
	DB	04H
	DB	00H
	DB	0ffH
	DB	00H
	DB	00H
	DB	00H
	DB	0ffH
	DB	00H
	DB	04H
	DB	00H
	DB	0ffH
	DB	00H
	DB	00H
	DB	00H
	DB	0ffH
	DB	00H
	DB	04H
	DB	00H
	DB	0ffH
	DB	00H
	DB	00H
	DB	00H
	DB	0ffH
	DB	00H
	DB	04H
	DB	00H
	DB	0ffH
	DB	00H
	DB	00H
	DB	00H
	DB	0ffH
	DB	00H
	DB	04H
	DB	00H
	DB	0ffH
	DB	00H
	DB	04H
	DB	00H
	DB	0ffH
	DB	00H
	DB	00H
	DB	00H
	DB	0ffH
	DB	00H
	DB	04H
	DB	00H
	DB	0ffH
	DB	00H
	DB	00H
	DB	00H
	DB	0ffH
	DB	00H
	DB	04H
	DB	00H
	DB	0ffH
	DB	00H
	DB	00H
	DB	00H
	DB	0ffH
	DB	00H
	DB	04H
	DB	00H
	DB	0ffH
	DB	00H
	DB	04H
	DB	00H
	DB	0ffH
	DB	00H
	DB	04H
	DB	08H
	DB	0ffH
	DB	00H
	DB	04H
	DB	00H
	DB	0ffH
	DB	00H
	DB	08H
	DB	08H
	DB	0ffH
	DB	00H
	DB	04H
	DB	08H
	DB	0ffH
	DB	028H
	DB	02cH
	DB	028H
	DB	0ffH
	DB	028H
	DB	02cH
	DB	028H
	DB	0ffH
	DB	0f0H
	DB	0acH
	DB	00H
	DB	0ffH
	DB	0f0H
	DB	0b0H
	DB	00H
	DB	0ffH
	DB	0f0H
	DB	0acH
	DB	00H
	DB	0ffH
	DB	00H
	DB	00H
	DB	00H
	DB	03cH
	DB	00H
	DB	00H
	DB	00H
	DB	01cH
	DB	00H
	DB	00H
	DB	00H
	DB	08H
	DB	00H
	DB	00H
	DB	00H
	DB	0cH
	DB	00H
	DB	00H
	DB	00H
	DB	024H
	DB	00H
	DB	00H
	DB	00H
	DB	04dH
	DB	0f0H
	DB	0acH
	DB	00H
	DB	0ffH
	DB	0f0H
	DB	0b0H
	DB	00H
	DB	0ffH
	DB	0f0H
	DB	0acH
	DB	00H
	DB	0ffH
	DB	028H
	DB	028H
	DB	028H
	DB	0ffH
	DB	050H
	DB	044H
	DB	018H
	DB	0ffH
	DB	018H
	DB	014H
	DB	08H
	DB	0ffH
	DB	018H
	DB	014H
	DB	00H
	DB	0ffH
	DB	018H
	DB	010H
	DB	00H
	DB	0ffH
	DB	018H
	DB	010H
	DB	08H
	DB	0ffH
	DB	018H
	DB	010H
	DB	00H
	DB	0ffH
	DB	010H
	DB	010H
	DB	00H
	DB	0ffH
	DB	010H
	DB	010H
	DB	00H
	DB	0ffH
	DB	010H
	DB	010H
	DB	00H
	DB	0ffH
	DB	010H
	DB	010H
	DB	00H
	DB	0ffH
	DB	010H
	DB	010H
	DB	00H
	DB	0ffH
	DB	010H
	DB	010H
	DB	00H
	DB	0ffH
	DB	010H
	DB	010H
	DB	00H
	DB	0ffH
	DB	010H
	DB	010H
	DB	00H
	DB	0ffH
	DB	010H
	DB	0cH
	DB	00H
	DB	0ffH
	DB	010H
	DB	010H
	DB	00H
	DB	0ffH
	DB	010H
	DB	010H
	DB	00H
	DB	0ffH
	DB	010H
	DB	010H
	DB	00H
	DB	0ffH
	DB	010H
	DB	010H
	DB	00H
	DB	0ffH
	DB	010H
	DB	010H
	DB	00H
	DB	0ffH
	DB	010H
	DB	0cH
	DB	00H
	DB	0ffH
	DB	010H
	DB	010H
	DB	00H
	DB	0ffH
	DB	010H
	DB	010H
	DB	00H
	DB	0ffH
	DB	010H
	DB	0cH
	DB	00H
	DB	0ffH
	DB	010H
	DB	010H
	DB	00H
	DB	0ffH
	DB	010H
	DB	010H
	DB	00H
	DB	0ffH
	DB	010H
	DB	010H
	DB	00H
	DB	0ffH
	DB	010H
	DB	010H
	DB	00H
	DB	0ffH
	DB	010H
	DB	010H
	DB	00H
	DB	0ffH
	DB	010H
	DB	010H
	DB	00H
	DB	0ffH
	DB	010H
	DB	010H
	DB	00H
	DB	0ffH
	DB	010H
	DB	0cH
	DB	00H
	DB	0ffH
	DB	010H
	DB	010H
	DB	00H
	DB	0ffH
	DB	010H
	DB	010H
	DB	00H
	DB	0ffH
	DB	010H
	DB	010H
	DB	00H
	DB	0ffH
	DB	010H
	DB	010H
	DB	00H
	DB	0ffH
	DB	010H
	DB	010H
	DB	00H
	DB	0ffH
	DB	010H
	DB	0cH
	DB	00H
	DB	0ffH
	DB	010H
	DB	010H
	DB	00H
	DB	0ffH
	DB	010H
	DB	010H
	DB	00H
	DB	0ffH
	DB	010H
	DB	010H
	DB	00H
	DB	0ffH
	DB	010H
	DB	0cH
	DB	00H
	DB	0ffH
	DB	010H
	DB	010H
	DB	00H
	DB	0ffH
	DB	010H
	DB	010H
	DB	00H
	DB	0ffH
	DB	010H
	DB	010H
	DB	00H
	DB	0ffH
	DB	010H
	DB	010H
	DB	00H
	DB	0ffH
	DB	010H
	DB	010H
	DB	00H
	DB	0ffH
	DB	010H
	DB	0cH
	DB	00H
	DB	0ffH
	DB	010H
	DB	010H
	DB	00H
	DB	0ffH
	DB	010H
	DB	010H
	DB	00H
	DB	0ffH
	DB	010H
	DB	0cH
	DB	00H
	DB	0ffH
	DB	010H
	DB	010H
	DB	00H
	DB	0ffH
	DB	010H
	DB	010H
	DB	00H
	DB	0ffH
	DB	010H
	DB	010H
	DB	00H
	DB	0ffH
	DB	010H
	DB	0cH
	DB	00H
	DB	0ffH
	DB	010H
	DB	010H
	DB	00H
	DB	0ffH
	DB	010H
	DB	0cH
	DB	00H
	DB	0ffH
	DB	010H
	DB	010H
	DB	00H
	DB	0ffH
	DB	010H
	DB	010H
	DB	00H
	DB	0ffH
	DB	010H
	DB	010H
	DB	00H
	DB	0ffH
	DB	010H
	DB	010H
	DB	00H
	DB	0ffH
	DB	010H
	DB	010H
	DB	00H
	DB	0ffH
	DB	010H
	DB	010H
	DB	00H
	DB	0ffH
	DB	010H
	DB	0cH
	DB	00H
	DB	0ffH
	DB	010H
	DB	010H
	DB	00H
	DB	0ffH
	DB	010H
	DB	010H
	DB	00H
	DB	0ffH
	DB	010H
	DB	0cH
	DB	00H
	DB	0ffH
	DB	010H
	DB	010H
	DB	00H
	DB	0ffH
	DB	010H
	DB	010H
	DB	00H
	DB	0ffH
	DB	010H
	DB	010H
	DB	00H
	DB	0ffH
	DB	010H
	DB	010H
	DB	00H
	DB	0ffH
	DB	010H
	DB	010H
	DB	00H
	DB	0ffH
	DB	010H
	DB	010H
	DB	00H
	DB	0ffH
	DB	010H
	DB	010H
	DB	00H
	DB	0ffH
	DB	010H
	DB	010H
	DB	00H
	DB	0ffH
	DB	010H
	DB	010H
	DB	00H
	DB	0ffH
	DB	010H
	DB	010H
	DB	00H
	DB	0ffH
	DB	010H
	DB	0cH
	DB	00H
	DB	0ffH
	DB	010H
	DB	010H
	DB	00H
	DB	0ffH
	DB	010H
	DB	010H
	DB	00H
	DB	0ffH
	DB	010H
	DB	010H
	DB	00H
	DB	0ffH
	DB	010H
	DB	010H
	DB	00H
	DB	0ffH
	DB	010H
	DB	0cH
	DB	00H
	DB	0ffH
	DB	010H
	DB	010H
	DB	00H
	DB	0ffH
	DB	010H
	DB	010H
	DB	00H
	DB	0ffH
	DB	010H
	DB	010H
	DB	00H
	DB	0ffH
	DB	010H
	DB	010H
	DB	00H
	DB	0ffH
	DB	010H
	DB	010H
	DB	00H
	DB	0ffH
	DB	010H
	DB	010H
	DB	00H
	DB	0ffH
	DB	010H
	DB	010H
	DB	00H
	DB	0ffH
	DB	010H
	DB	0cH
	DB	00H
	DB	0ffH
	DB	010H
	DB	0cH
	DB	00H
	DB	0ffH
	DB	010H
	DB	010H
	DB	00H
	DB	0ffH
	DB	010H
	DB	010H
	DB	00H
	DB	0ffH
	DB	010H
	DB	0cH
	DB	00H
	DB	0ffH
	DB	010H
	DB	010H
	DB	00H
	DB	0ffH
	DB	010H
	DB	010H
	DB	00H
	DB	0ffH
	DB	010H
	DB	0cH
	DB	00H
	DB	0ffH
	DB	010H
	DB	010H
	DB	00H
	DB	0ffH
	DB	010H
	DB	0cH
	DB	00H
	DB	0ffH
	DB	010H
	DB	0cH
	DB	00H
	DB	0ffH
	DB	010H
	DB	010H
	DB	00H
	DB	0ffH
	DB	010H
	DB	010H
	DB	00H
	DB	0ffH
	DB	010H
	DB	0cH
	DB	00H
	DB	0ffH
	DB	010H
	DB	010H
	DB	00H
	DB	0ffH
	DB	010H
	DB	010H
	DB	00H
	DB	0ffH
	DB	010H
	DB	010H
	DB	00H
	DB	0ffH
	DB	010H
	DB	010H
	DB	00H
	DB	0ffH
	DB	010H
	DB	0cH
	DB	00H
	DB	0ffH
	DB	010H
	DB	010H
	DB	00H
	DB	0ffH
	DB	010H
	DB	010H
	DB	00H
	DB	0ffH
	DB	010H
	DB	0cH
	DB	00H
	DB	0ffH
	DB	010H
	DB	010H
	DB	00H
	DB	0ffH
	DB	010H
	DB	010H
	DB	00H
	DB	0ffH
	DB	010H
	DB	010H
	DB	00H
	DB	0ffH
	DB	010H
	DB	010H
	DB	00H
	DB	0ffH
	DB	010H
	DB	010H
	DB	00H
	DB	0ffH
	DB	010H
	DB	010H
	DB	00H
	DB	0ffH
	DB	010H
	DB	010H
	DB	00H
	DB	0ffH
	DB	010H
	DB	010H
	DB	00H
	DB	0ffH
	DB	010H
	DB	010H
	DB	00H
	DB	0ffH
	DB	010H
	DB	010H
	DB	00H
	DB	0ffH
	DB	010H
	DB	010H
	DB	00H
	DB	0ffH
	DB	010H
	DB	010H
	DB	00H
	DB	0ffH
	DB	010H
	DB	010H
	DB	00H
	DB	0ffH
	DB	018H
	DB	010H
	DB	00H
	DB	0ffH
	DB	018H
	DB	010H
	DB	00H
	DB	0ffH
	DB	018H
	DB	010H
	DB	08H
	DB	0ffH
	DB	018H
	DB	010H
	DB	00H
	DB	0ffH
	DB	018H
	DB	014H
	DB	00H
	DB	0ffH
	DB	018H
	DB	014H
	DB	08H
	DB	0ffH
	DB	050H
	DB	040H
	DB	018H
	DB	0ffH
	DB	028H
	DB	02cH
	DB	028H
	DB	0ffH
	DB	0f0H
	DB	0acH
	DB	00H
	DB	0ffH
	DB	0f0H
	DB	0b0H
	DB	00H
	DB	0ffH
	DB	0f0H
	DB	0b0H
	DB	00H
	DB	0ffH
	DB	00H
	DB	00H
	DB	00H
	DB	04dH
	DB	00H
	DB	00H
	DB	00H
	DB	024H
	DB	00H
	DB	00H
	DB	00H
	DB	0cH
	DB	00H
	DB	00H
	DB	00H
	DB	0cH
	DB	00H
	DB	00H
	DB	00H
	DB	02cH
	DB	00H
	DB	00H
	DB	00H
	DB	059H
	DB	0f0H
	DB	0acH
	DB	00H
	DB	0ffH
	DB	0f0H
	DB	0b0H
	DB	00H
	DB	0ffH
	DB	0f0H
	DB	0b0H
	DB	00H
	DB	0ffH
	DB	038H
	DB	038H
	DB	038H
	DB	0ffH
	DB	068H
	DB	058H
	DB	028H
	DB	0ffH
	DB	020H
	DB	018H
	DB	08H
	DB	0ffH
	DB	020H
	DB	018H
	DB	08H
	DB	0ffH
	DB	020H
	DB	018H
	DB	08H
	DB	0ffH
	DB	018H
	DB	018H
	DB	08H
	DB	0ffH
	DB	018H
	DB	014H
	DB	08H
	DB	0ffH
	DB	018H
	DB	014H
	DB	08H
	DB	0ffH
	DB	018H
	DB	014H
	DB	08H
	DB	0ffH
	DB	018H
	DB	010H
	DB	08H
	DB	0ffH
	DB	018H
	DB	010H
	DB	08H
	DB	0ffH
	DB	018H
	DB	010H
	DB	08H
	DB	0ffH
	DB	018H
	DB	010H
	DB	00H
	DB	0ffH
	DB	018H
	DB	010H
	DB	08H
	DB	0ffH
	DB	018H
	DB	010H
	DB	08H
	DB	0ffH
	DB	018H
	DB	014H
	DB	08H
	DB	0ffH
	DB	018H
	DB	010H
	DB	00H
	DB	0ffH
	DB	018H
	DB	010H
	DB	08H
	DB	0ffH
	DB	018H
	DB	010H
	DB	08H
	DB	0ffH
	DB	018H
	DB	010H
	DB	08H
	DB	0ffH
	DB	018H
	DB	010H
	DB	00H
	DB	0ffH
	DB	018H
	DB	014H
	DB	08H
	DB	0ffH
	DB	018H
	DB	010H
	DB	08H
	DB	0ffH
	DB	018H
	DB	010H
	DB	08H
	DB	0ffH
	DB	018H
	DB	014H
	DB	00H
	DB	0ffH
	DB	018H
	DB	010H
	DB	08H
	DB	0ffH
	DB	018H
	DB	010H
	DB	08H
	DB	0ffH
	DB	018H
	DB	010H
	DB	08H
	DB	0ffH
	DB	018H
	DB	010H
	DB	00H
	DB	0ffH
	DB	018H
	DB	010H
	DB	08H
	DB	0ffH
	DB	018H
	DB	010H
	DB	08H
	DB	0ffH
	DB	018H
	DB	014H
	DB	08H
	DB	0ffH
	DB	018H
	DB	010H
	DB	00H
	DB	0ffH
	DB	018H
	DB	010H
	DB	08H
	DB	0ffH
	DB	018H
	DB	010H
	DB	08H
	DB	0ffH
	DB	018H
	DB	010H
	DB	08H
	DB	0ffH
	DB	018H
	DB	010H
	DB	00H
	DB	0ffH
	DB	018H
	DB	014H
	DB	08H
	DB	0ffH
	DB	018H
	DB	010H
	DB	08H
	DB	0ffH
	DB	018H
	DB	010H
	DB	08H
	DB	0ffH
	DB	018H
	DB	014H
	DB	00H
	DB	0ffH
	DB	018H
	DB	010H
	DB	08H
	DB	0ffH
	DB	018H
	DB	010H
	DB	08H
	DB	0ffH
	DB	018H
	DB	014H
	DB	08H
	DB	0ffH
	DB	018H
	DB	010H
	DB	00H
	DB	0ffH
	DB	018H
	DB	010H
	DB	08H
	DB	0ffH
	DB	018H
	DB	010H
	DB	08H
	DB	0ffH
	DB	018H
	DB	010H
	DB	08H
	DB	0ffH
	DB	018H
	DB	014H
	DB	00H
	DB	0ffH
	DB	018H
	DB	010H
	DB	08H
	DB	0ffH
	DB	018H
	DB	010H
	DB	08H
	DB	0ffH
	DB	018H
	DB	014H
	DB	08H
	DB	0ffH
	DB	018H
	DB	010H
	DB	00H
	DB	0ffH
	DB	018H
	DB	010H
	DB	08H
	DB	0ffH
	DB	018H
	DB	014H
	DB	08H
	DB	0ffH
	DB	018H
	DB	010H
	DB	08H
	DB	0ffH
	DB	018H
	DB	010H
	DB	00H
	DB	0ffH
	DB	018H
	DB	014H
	DB	08H
	DB	0ffH
	DB	018H
	DB	010H
	DB	08H
	DB	0ffH
	DB	018H
	DB	010H
	DB	08H
	DB	0ffH
	DB	018H
	DB	010H
	DB	00H
	DB	0ffH
	DB	018H
	DB	010H
	DB	08H
	DB	0ffH
	DB	018H
	DB	014H
	DB	08H
	DB	0ffH
	DB	018H
	DB	010H
	DB	08H
	DB	0ffH
	DB	018H
	DB	010H
	DB	00H
	DB	0ffH
	DB	018H
	DB	014H
	DB	08H
	DB	0ffH
	DB	018H
	DB	010H
	DB	08H
	DB	0ffH
	DB	018H
	DB	010H
	DB	08H
	DB	0ffH
	DB	018H
	DB	014H
	DB	00H
	DB	0ffH
	DB	018H
	DB	010H
	DB	08H
	DB	0ffH
	DB	018H
	DB	010H
	DB	08H
	DB	0ffH
	DB	018H
	DB	010H
	DB	08H
	DB	0ffH
	DB	018H
	DB	010H
	DB	00H
	DB	0ffH
	DB	018H
	DB	010H
	DB	08H
	DB	0ffH
	DB	018H
	DB	010H
	DB	08H
	DB	0ffH
	DB	018H
	DB	010H
	DB	08H
	DB	0ffH
	DB	018H
	DB	010H
	DB	00H
	DB	0ffH
	DB	018H
	DB	014H
	DB	08H
	DB	0ffH
	DB	018H
	DB	010H
	DB	08H
	DB	0ffH
	DB	018H
	DB	010H
	DB	08H
	DB	0ffH
	DB	018H
	DB	010H
	DB	00H
	DB	0ffH
	DB	018H
	DB	010H
	DB	08H
	DB	0ffH
	DB	018H
	DB	014H
	DB	08H
	DB	0ffH
	DB	018H
	DB	010H
	DB	08H
	DB	0ffH
	DB	018H
	DB	010H
	DB	00H
	DB	0ffH
	DB	018H
	DB	010H
	DB	08H
	DB	0ffH
	DB	018H
	DB	010H
	DB	08H
	DB	0ffH
	DB	018H
	DB	010H
	DB	08H
	DB	0ffH
	DB	018H
	DB	010H
	DB	00H
	DB	0ffH
	DB	018H
	DB	014H
	DB	08H
	DB	0ffH
	DB	018H
	DB	010H
	DB	08H
	DB	0ffH
	DB	018H
	DB	014H
	DB	08H
	DB	0ffH
	DB	018H
	DB	010H
	DB	00H
	DB	0ffH
	DB	018H
	DB	014H
	DB	08H
	DB	0ffH
	DB	018H
	DB	010H
	DB	08H
	DB	0ffH
	DB	018H
	DB	010H
	DB	08H
	DB	0ffH
	DB	018H
	DB	014H
	DB	00H
	DB	0ffH
	DB	018H
	DB	010H
	DB	08H
	DB	0ffH
	DB	018H
	DB	014H
	DB	08H
	DB	0ffH
	DB	018H
	DB	014H
	DB	08H
	DB	0ffH
	DB	018H
	DB	010H
	DB	00H
	DB	0ffH
	DB	018H
	DB	014H
	DB	08H
	DB	0ffH
	DB	018H
	DB	010H
	DB	08H
	DB	0ffH
	DB	018H
	DB	014H
	DB	08H
	DB	0ffH
	DB	018H
	DB	010H
	DB	00H
	DB	0ffH
	DB	018H
	DB	014H
	DB	08H
	DB	0ffH
	DB	018H
	DB	010H
	DB	08H
	DB	0ffH
	DB	018H
	DB	010H
	DB	08H
	DB	0ffH
	DB	018H
	DB	014H
	DB	00H
	DB	0ffH
	DB	018H
	DB	010H
	DB	08H
	DB	0ffH
	DB	018H
	DB	010H
	DB	08H
	DB	0ffH
	DB	018H
	DB	014H
	DB	08H
	DB	0ffH
	DB	018H
	DB	010H
	DB	00H
	DB	0ffH
	DB	018H
	DB	010H
	DB	08H
	DB	0ffH
	DB	018H
	DB	010H
	DB	08H
	DB	0ffH
	DB	018H
	DB	010H
	DB	08H
	DB	0ffH
	DB	018H
	DB	010H
	DB	00H
	DB	0ffH
	DB	018H
	DB	010H
	DB	08H
	DB	0ffH
	DB	018H
	DB	010H
	DB	08H
	DB	0ffH
	DB	018H
	DB	010H
	DB	08H
	DB	0ffH
	DB	018H
	DB	010H
	DB	00H
	DB	0ffH
	DB	018H
	DB	010H
	DB	08H
	DB	0ffH
	DB	018H
	DB	010H
	DB	08H
	DB	0ffH
	DB	018H
	DB	010H
	DB	08H
	DB	0ffH
	DB	018H
	DB	014H
	DB	08H
	DB	0ffH
	DB	018H
	DB	014H
	DB	08H
	DB	0ffH
	DB	018H
	DB	014H
	DB	08H
	DB	0ffH
	DB	018H
	DB	014H
	DB	08H
	DB	0ffH
	DB	018H
	DB	014H
	DB	00H
	DB	0ffH
	DB	020H
	DB	018H
	DB	08H
	DB	0ffH
	DB	020H
	DB	018H
	DB	08H
	DB	0ffH
	DB	020H
	DB	018H
	DB	08H
	DB	0ffH
	DB	068H
	DB	058H
	DB	028H
	DB	0ffH
	DB	038H
	DB	038H
	DB	038H
	DB	0ffH
	DB	0f0H
	DB	0acH
	DB	00H
	DB	0ffH
	DB	0f0H
	DB	0acH
	DB	00H
	DB	0ffH
	DB	0f0H
	DB	0b0H
	DB	00H
	DB	0ffH
	DB	00H
	DB	00H
	DB	00H
	DB	059H
	DB	00H
	DB	00H
	DB	00H
	DB	02cH
	DB	00H
	DB	00H
	DB	00H
	DB	0cH
	DB	00H
	DB	00H
	DB	00H
	DB	010H
	DB	00H
	DB	00H
	DB	00H
	DB	030H
	DB	00H
	DB	00H
	DB	00H
	DB	05dH
	DB	0f0H
	DB	0acH
	DB	00H
	DB	0ffH
	DB	0f0H
	DB	0acH
	DB	00H
	DB	0ffH
	DB	0f0H
	DB	0b0H
	DB	00H
	DB	0ffH
	DB	048H
	DB	048H
	DB	048H
	DB	0ffH
	DB	088H
	DB	070H
	DB	038H
	DB	0ffH
	DB	028H
	DB	01cH
	DB	08H
	DB	0ffH
	DB	028H
	DB	020H
	DB	08H
	DB	0ffH
	DB	020H
	DB	01cH
	DB	08H
	DB	0ffH
	DB	020H
	DB	01cH
	DB	08H
	DB	0ffH
	DB	020H
	DB	018H
	DB	08H
	DB	0ffH
	DB	020H
	DB	018H
	DB	08H
	DB	0ffH
	DB	020H
	DB	018H
	DB	00H
	DB	0ffH
	DB	020H
	DB	018H
	DB	08H
	DB	0ffH
	DB	020H
	DB	018H
	DB	08H
	DB	0ffH
	DB	020H
	DB	018H
	DB	00H
	DB	0ffH
	DB	020H
	DB	018H
	DB	08H
	DB	0ffH
	DB	020H
	DB	018H
	DB	08H
	DB	0ffH
	DB	020H
	DB	018H
	DB	08H
	DB	0ffH
	DB	020H
	DB	018H
	DB	00H
	DB	0ffH
	DB	020H
	DB	018H
	DB	08H
	DB	0ffH
	DB	020H
	DB	018H
	DB	08H
	DB	0ffH
	DB	020H
	DB	018H
	DB	08H
	DB	0ffH
	DB	020H
	DB	018H
	DB	00H
	DB	0ffH
	DB	020H
	DB	018H
	DB	08H
	DB	0ffH
	DB	020H
	DB	018H
	DB	08H
	DB	0ffH
	DB	020H
	DB	018H
	DB	08H
	DB	0ffH
	DB	020H
	DB	018H
	DB	00H
	DB	0ffH
	DB	020H
	DB	018H
	DB	08H
	DB	0ffH
	DB	020H
	DB	018H
	DB	08H
	DB	0ffH
	DB	020H
	DB	018H
	DB	08H
	DB	0ffH
	DB	020H
	DB	018H
	DB	00H
	DB	0ffH
	DB	020H
	DB	018H
	DB	08H
	DB	0ffH
	DB	020H
	DB	018H
	DB	08H
	DB	0ffH
	DB	020H
	DB	018H
	DB	08H
	DB	0ffH
	DB	020H
	DB	018H
	DB	00H
	DB	0ffH
	DB	020H
	DB	018H
	DB	08H
	DB	0ffH
	DB	020H
	DB	018H
	DB	08H
	DB	0ffH
	DB	020H
	DB	018H
	DB	08H
	DB	0ffH
	DB	020H
	DB	018H
	DB	00H
	DB	0ffH
	DB	020H
	DB	018H
	DB	08H
	DB	0ffH
	DB	020H
	DB	018H
	DB	08H
	DB	0ffH
	DB	020H
	DB	018H
	DB	08H
	DB	0ffH
	DB	020H
	DB	018H
	DB	00H
	DB	0ffH
	DB	020H
	DB	018H
	DB	08H
	DB	0ffH
	DB	020H
	DB	018H
	DB	08H
	DB	0ffH
	DB	020H
	DB	018H
	DB	08H
	DB	0ffH
	DB	020H
	DB	018H
	DB	00H
	DB	0ffH
	DB	020H
	DB	018H
	DB	08H
	DB	0ffH
	DB	020H
	DB	018H
	DB	08H
	DB	0ffH
	DB	020H
	DB	018H
	DB	08H
	DB	0ffH
	DB	020H
	DB	018H
	DB	00H
	DB	0ffH
	DB	020H
	DB	018H
	DB	08H
	DB	0ffH
	DB	020H
	DB	018H
	DB	08H
	DB	0ffH
	DB	020H
	DB	018H
	DB	08H
	DB	0ffH
	DB	020H
	DB	018H
	DB	00H
	DB	0ffH
	DB	020H
	DB	018H
	DB	08H
	DB	0ffH
	DB	020H
	DB	018H
	DB	08H
	DB	0ffH
	DB	020H
	DB	018H
	DB	08H
	DB	0ffH
	DB	020H
	DB	018H
	DB	00H
	DB	0ffH
	DB	020H
	DB	018H
	DB	08H
	DB	0ffH
	DB	020H
	DB	018H
	DB	08H
	DB	0ffH
	DB	020H
	DB	018H
	DB	08H
	DB	0ffH
	DB	020H
	DB	018H
	DB	00H
	DB	0ffH
	DB	020H
	DB	018H
	DB	08H
	DB	0ffH
	DB	020H
	DB	018H
	DB	08H
	DB	0ffH
	DB	020H
	DB	018H
	DB	08H
	DB	0ffH
	DB	020H
	DB	018H
	DB	00H
	DB	0ffH
	DB	020H
	DB	018H
	DB	08H
	DB	0ffH
	DB	020H
	DB	018H
	DB	08H
	DB	0ffH
	DB	020H
	DB	018H
	DB	08H
	DB	0ffH
	DB	020H
	DB	018H
	DB	00H
	DB	0ffH
	DB	020H
	DB	018H
	DB	08H
	DB	0ffH
	DB	020H
	DB	018H
	DB	08H
	DB	0ffH
	DB	020H
	DB	018H
	DB	08H
	DB	0ffH
	DB	020H
	DB	018H
	DB	00H
	DB	0ffH
	DB	020H
	DB	018H
	DB	08H
	DB	0ffH
	DB	020H
	DB	018H
	DB	08H
	DB	0ffH
	DB	020H
	DB	018H
	DB	08H
	DB	0ffH
	DB	020H
	DB	018H
	DB	00H
	DB	0ffH
	DB	020H
	DB	018H
	DB	08H
	DB	0ffH
	DB	020H
	DB	018H
	DB	08H
	DB	0ffH
	DB	020H
	DB	018H
	DB	08H
	DB	0ffH
	DB	020H
	DB	018H
	DB	00H
	DB	0ffH
	DB	020H
	DB	018H
	DB	08H
	DB	0ffH
	DB	020H
	DB	018H
	DB	08H
	DB	0ffH
	DB	020H
	DB	018H
	DB	08H
	DB	0ffH
	DB	020H
	DB	018H
	DB	00H
	DB	0ffH
	DB	020H
	DB	018H
	DB	08H
	DB	0ffH
	DB	020H
	DB	018H
	DB	08H
	DB	0ffH
	DB	020H
	DB	018H
	DB	08H
	DB	0ffH
	DB	020H
	DB	018H
	DB	00H
	DB	0ffH
	DB	020H
	DB	018H
	DB	08H
	DB	0ffH
	DB	020H
	DB	018H
	DB	08H
	DB	0ffH
	DB	020H
	DB	018H
	DB	08H
	DB	0ffH
	DB	020H
	DB	018H
	DB	00H
	DB	0ffH
	DB	020H
	DB	018H
	DB	08H
	DB	0ffH
	DB	020H
	DB	018H
	DB	08H
	DB	0ffH
	DB	020H
	DB	018H
	DB	08H
	DB	0ffH
	DB	020H
	DB	018H
	DB	00H
	DB	0ffH
	DB	020H
	DB	018H
	DB	08H
	DB	0ffH
	DB	020H
	DB	018H
	DB	08H
	DB	0ffH
	DB	020H
	DB	018H
	DB	08H
	DB	0ffH
	DB	020H
	DB	018H
	DB	00H
	DB	0ffH
	DB	020H
	DB	018H
	DB	08H
	DB	0ffH
	DB	020H
	DB	018H
	DB	08H
	DB	0ffH
	DB	020H
	DB	018H
	DB	08H
	DB	0ffH
	DB	020H
	DB	018H
	DB	00H
	DB	0ffH
	DB	020H
	DB	018H
	DB	08H
	DB	0ffH
	DB	020H
	DB	018H
	DB	08H
	DB	0ffH
	DB	020H
	DB	018H
	DB	08H
	DB	0ffH
	DB	020H
	DB	018H
	DB	00H
	DB	0ffH
	DB	020H
	DB	018H
	DB	08H
	DB	0ffH
	DB	020H
	DB	018H
	DB	08H
	DB	0ffH
	DB	020H
	DB	018H
	DB	08H
	DB	0ffH
	DB	020H
	DB	018H
	DB	00H
	DB	0ffH
	DB	020H
	DB	018H
	DB	08H
	DB	0ffH
	DB	020H
	DB	018H
	DB	08H
	DB	0ffH
	DB	020H
	DB	018H
	DB	08H
	DB	0ffH
	DB	020H
	DB	018H
	DB	00H
	DB	0ffH
	DB	020H
	DB	018H
	DB	08H
	DB	0ffH
	DB	020H
	DB	018H
	DB	08H
	DB	0ffH
	DB	020H
	DB	018H
	DB	08H
	DB	0ffH
	DB	020H
	DB	018H
	DB	00H
	DB	0ffH
	DB	020H
	DB	018H
	DB	08H
	DB	0ffH
	DB	020H
	DB	018H
	DB	08H
	DB	0ffH
	DB	020H
	DB	018H
	DB	00H
	DB	0ffH
	DB	020H
	DB	018H
	DB	08H
	DB	0ffH
	DB	020H
	DB	018H
	DB	08H
	DB	0ffH
	DB	020H
	DB	018H
	DB	08H
	DB	0ffH
	DB	020H
	DB	018H
	DB	08H
	DB	0ffH
	DB	020H
	DB	018H
	DB	08H
	DB	0ffH
	DB	020H
	DB	01cH
	DB	08H
	DB	0ffH
	DB	028H
	DB	01cH
	DB	08H
	DB	0ffH
	DB	028H
	DB	020H
	DB	08H
	DB	0ffH
	DB	028H
	DB	020H
	DB	08H
	DB	0ffH
	DB	088H
	DB	074H
	DB	038H
	DB	0ffH
	DB	048H
	DB	048H
	DB	048H
	DB	0ffH
	DB	0f0H
	DB	0b0H
	DB	00H
	DB	0ffH
	DB	0f0H
	DB	0acH
	DB	00H
	DB	0ffH
	DB	0f0H
	DB	0acH
	DB	00H
	DB	0ffH
	DB	00H
	DB	00H
	DB	00H
	DB	05dH
	DB	00H
	DB	00H
	DB	00H
	DB	030H
	DB	00H
	DB	00H
	DB	00H
	DB	010H
	DB	00H
	DB	00H
	DB	00H
	DB	010H
	DB	00H
	DB	00H
	DB	00H
	DB	030H
	DB	00H
	DB	00H
	DB	00H
	DB	05dH
	DB	0f0H
	DB	0b0H
	DB	00H
	DB	0ffH
	DB	0f0H
	DB	0acH
	DB	00H
	DB	0ffH
	DB	0e8H
	DB	0acH
	DB	00H
	DB	0ffH
	DB	050H
	DB	054H
	DB	058H
	DB	0ffH
	DB	098H
	DB	084H
	DB	048H
	DB	0ffH
	DB	028H
	DB	024H
	DB	08H
	DB	0ffH
	DB	030H
	DB	024H
	DB	010H
	DB	0ffH
	DB	028H
	DB	020H
	DB	08H
	DB	0ffH
	DB	028H
	DB	020H
	DB	08H
	DB	0ffH
	DB	028H
	DB	020H
	DB	08H
	DB	0ffH
	DB	028H
	DB	020H
	DB	08H
	DB	0ffH
	DB	028H
	DB	01cH
	DB	08H
	DB	0ffH
	DB	028H
	DB	01cH
	DB	08H
	DB	0ffH
	DB	020H
	DB	01cH
	DB	08H
	DB	0ffH
	DB	028H
	DB	01cH
	DB	08H
	DB	0ffH
	DB	028H
	DB	01cH
	DB	08H
	DB	0ffH
	DB	020H
	DB	01cH
	DB	08H
	DB	0ffH
	DB	020H
	DB	01cH
	DB	08H
	DB	0ffH
	DB	028H
	DB	01cH
	DB	08H
	DB	0ffH
	DB	020H
	DB	01cH
	DB	08H
	DB	0ffH
	DB	028H
	DB	01cH
	DB	08H
	DB	0ffH
	DB	020H
	DB	01cH
	DB	08H
	DB	0ffH
	DB	028H
	DB	01cH
	DB	08H
	DB	0ffH
	DB	020H
	DB	01cH
	DB	08H
	DB	0ffH
	DB	020H
	DB	01cH
	DB	08H
	DB	0ffH
	DB	028H
	DB	01cH
	DB	08H
	DB	0ffH
	DB	020H
	DB	01cH
	DB	08H
	DB	0ffH
	DB	028H
	DB	01cH
	DB	08H
	DB	0ffH
	DB	020H
	DB	01cH
	DB	08H
	DB	0ffH
	DB	028H
	DB	01cH
	DB	08H
	DB	0ffH
	DB	020H
	DB	01cH
	DB	08H
	DB	0ffH
	DB	028H
	DB	01cH
	DB	08H
	DB	0ffH
	DB	020H
	DB	01cH
	DB	08H
	DB	0ffH
	DB	028H
	DB	01cH
	DB	08H
	DB	0ffH
	DB	020H
	DB	01cH
	DB	08H
	DB	0ffH
	DB	028H
	DB	01cH
	DB	08H
	DB	0ffH
	DB	020H
	DB	01cH
	DB	08H
	DB	0ffH
	DB	028H
	DB	01cH
	DB	08H
	DB	0ffH
	DB	020H
	DB	01cH
	DB	08H
	DB	0ffH
	DB	028H
	DB	01cH
	DB	08H
	DB	0ffH
	DB	020H
	DB	01cH
	DB	08H
	DB	0ffH
	DB	028H
	DB	01cH
	DB	08H
	DB	0ffH
	DB	020H
	DB	01cH
	DB	08H
	DB	0ffH
	DB	028H
	DB	01cH
	DB	08H
	DB	0ffH
	DB	020H
	DB	01cH
	DB	08H
	DB	0ffH
	DB	028H
	DB	01cH
	DB	08H
	DB	0ffH
	DB	020H
	DB	01cH
	DB	08H
	DB	0ffH
	DB	028H
	DB	01cH
	DB	08H
	DB	0ffH
	DB	020H
	DB	01cH
	DB	08H
	DB	0ffH
	DB	028H
	DB	01cH
	DB	08H
	DB	0ffH
	DB	020H
	DB	01cH
	DB	08H
	DB	0ffH
	DB	028H
	DB	01cH
	DB	08H
	DB	0ffH
	DB	020H
	DB	01cH
	DB	08H
	DB	0ffH
	DB	028H
	DB	01cH
	DB	08H
	DB	0ffH
	DB	020H
	DB	01cH
	DB	08H
	DB	0ffH
	DB	028H
	DB	01cH
	DB	08H
	DB	0ffH
	DB	020H
	DB	01cH
	DB	08H
	DB	0ffH
	DB	028H
	DB	01cH
	DB	08H
	DB	0ffH
	DB	020H
	DB	01cH
	DB	08H
	DB	0ffH
	DB	028H
	DB	01cH
	DB	08H
	DB	0ffH
	DB	020H
	DB	01cH
	DB	08H
	DB	0ffH
	DB	028H
	DB	01cH
	DB	08H
	DB	0ffH
	DB	020H
	DB	01cH
	DB	08H
	DB	0ffH
	DB	028H
	DB	01cH
	DB	08H
	DB	0ffH
	DB	020H
	DB	01cH
	DB	08H
	DB	0ffH
	DB	028H
	DB	01cH
	DB	08H
	DB	0ffH
	DB	028H
	DB	01cH
	DB	08H
	DB	0ffH
	DB	020H
	DB	01cH
	DB	08H
	DB	0ffH
	DB	028H
	DB	01cH
	DB	08H
	DB	0ffH
	DB	020H
	DB	01cH
	DB	08H
	DB	0ffH
	DB	028H
	DB	01cH
	DB	08H
	DB	0ffH
	DB	020H
	DB	01cH
	DB	08H
	DB	0ffH
	DB	028H
	DB	01cH
	DB	08H
	DB	0ffH
	DB	020H
	DB	01cH
	DB	08H
	DB	0ffH
	DB	028H
	DB	01cH
	DB	08H
	DB	0ffH
	DB	020H
	DB	01cH
	DB	08H
	DB	0ffH
	DB	028H
	DB	01cH
	DB	08H
	DB	0ffH
	DB	020H
	DB	01cH
	DB	08H
	DB	0ffH
	DB	028H
	DB	01cH
	DB	08H
	DB	0ffH
	DB	020H
	DB	01cH
	DB	08H
	DB	0ffH
	DB	028H
	DB	01cH
	DB	08H
	DB	0ffH
	DB	020H
	DB	01cH
	DB	08H
	DB	0ffH
	DB	020H
	DB	01cH
	DB	08H
	DB	0ffH
	DB	028H
	DB	01cH
	DB	08H
	DB	0ffH
	DB	020H
	DB	01cH
	DB	08H
	DB	0ffH
	DB	028H
	DB	01cH
	DB	08H
	DB	0ffH
	DB	020H
	DB	01cH
	DB	08H
	DB	0ffH
	DB	028H
	DB	01cH
	DB	08H
	DB	0ffH
	DB	020H
	DB	01cH
	DB	08H
	DB	0ffH
	DB	028H
	DB	01cH
	DB	08H
	DB	0ffH
	DB	020H
	DB	01cH
	DB	08H
	DB	0ffH
	DB	028H
	DB	01cH
	DB	08H
	DB	0ffH
	DB	020H
	DB	01cH
	DB	08H
	DB	0ffH
	DB	028H
	DB	01cH
	DB	08H
	DB	0ffH
	DB	020H
	DB	01cH
	DB	08H
	DB	0ffH
	DB	028H
	DB	01cH
	DB	08H
	DB	0ffH
	DB	020H
	DB	01cH
	DB	08H
	DB	0ffH
	DB	028H
	DB	01cH
	DB	08H
	DB	0ffH
	DB	020H
	DB	01cH
	DB	08H
	DB	0ffH
	DB	028H
	DB	01cH
	DB	08H
	DB	0ffH
	DB	020H
	DB	01cH
	DB	08H
	DB	0ffH
	DB	020H
	DB	01cH
	DB	08H
	DB	0ffH
	DB	028H
	DB	01cH
	DB	08H
	DB	0ffH
	DB	020H
	DB	01cH
	DB	08H
	DB	0ffH
	DB	028H
	DB	01cH
	DB	08H
	DB	0ffH
	DB	020H
	DB	01cH
	DB	08H
	DB	0ffH
	DB	028H
	DB	01cH
	DB	08H
	DB	0ffH
	DB	020H
	DB	01cH
	DB	08H
	DB	0ffH
	DB	020H
	DB	01cH
	DB	08H
	DB	0ffH
	DB	028H
	DB	01cH
	DB	08H
	DB	0ffH
	DB	020H
	DB	01cH
	DB	08H
	DB	0ffH
	DB	028H
	DB	01cH
	DB	08H
	DB	0ffH
	DB	020H
	DB	01cH
	DB	08H
	DB	0ffH
	DB	020H
	DB	01cH
	DB	08H
	DB	0ffH
	DB	028H
	DB	01cH
	DB	08H
	DB	0ffH
	DB	020H
	DB	01cH
	DB	08H
	DB	0ffH
	DB	020H
	DB	01cH
	DB	08H
	DB	0ffH
	DB	028H
	DB	01cH
	DB	08H
	DB	0ffH
	DB	020H
	DB	01cH
	DB	08H
	DB	0ffH
	DB	028H
	DB	01cH
	DB	08H
	DB	0ffH
	DB	020H
	DB	01cH
	DB	08H
	DB	0ffH
	DB	028H
	DB	01cH
	DB	08H
	DB	0ffH
	DB	020H
	DB	01cH
	DB	08H
	DB	0ffH
	DB	028H
	DB	01cH
	DB	08H
	DB	0ffH
	DB	020H
	DB	01cH
	DB	08H
	DB	0ffH
	DB	028H
	DB	01cH
	DB	08H
	DB	0ffH
	DB	028H
	DB	01cH
	DB	08H
	DB	0ffH
	DB	020H
	DB	01cH
	DB	08H
	DB	0ffH
	DB	028H
	DB	01cH
	DB	08H
	DB	0ffH
	DB	028H
	DB	020H
	DB	08H
	DB	0ffH
	DB	028H
	DB	020H
	DB	08H
	DB	0ffH
	DB	028H
	DB	020H
	DB	08H
	DB	0ffH
	DB	028H
	DB	020H
	DB	08H
	DB	0ffH
	DB	030H
	DB	024H
	DB	010H
	DB	0ffH
	DB	028H
	DB	024H
	DB	08H
	DB	0ffH
	DB	098H
	DB	084H
	DB	048H
	DB	0ffH
	DB	058H
	DB	054H
	DB	058H
	DB	0ffH
	DB	0f0H
	DB	0b0H
	DB	00H
	DB	0ffH
	DB	0f0H
	DB	0b0H
	DB	00H
	DB	0ffH
	DB	0f0H
	DB	0acH
	DB	00H
	DB	0ffH
	DB	00H
	DB	00H
	DB	00H
	DB	05dH
	DB	00H
	DB	00H
	DB	00H
	DB	030H
	DB	00H
	DB	00H
	DB	00H
	DB	010H
	DB	00H
	DB	00H
	DB	00H
	DB	010H
	DB	00H
	DB	00H
	DB	00H
	DB	030H
	DB	00H
	DB	00H
	DB	00H
	DB	061H
	DB	0f0H
	DB	0b0H
	DB	00H
	DB	0ffH
	DB	0f0H
	DB	0b0H
	DB	00H
	DB	0ffH
	DB	0f0H
	DB	0b0H
	DB	00H
	DB	0ffH
	DB	060H
	DB	05cH
	DB	060H
	DB	0ffH
	DB	0a8H
	DB	090H
	DB	050H
	DB	0ffH
	DB	030H
	DB	028H
	DB	010H
	DB	0ffH
	DB	030H
	DB	02cH
	DB	010H
	DB	0ffH
	DB	030H
	DB	028H
	DB	010H
	DB	0ffH
	DB	030H
	DB	024H
	DB	010H
	DB	0ffH
	DB	030H
	DB	024H
	DB	08H
	DB	0ffH
	DB	028H
	DB	024H
	DB	08H
	DB	0ffH
	DB	028H
	DB	024H
	DB	08H
	DB	0ffH
	DB	028H
	DB	024H
	DB	08H
	DB	0ffH
	DB	028H
	DB	024H
	DB	08H
	DB	0ffH
	DB	028H
	DB	020H
	DB	08H
	DB	0ffH
	DB	028H
	DB	024H
	DB	08H
	DB	0ffH
	DB	028H
	DB	024H
	DB	08H
	DB	0ffH
	DB	028H
	DB	020H
	DB	08H
	DB	0ffH
	DB	028H
	DB	024H
	DB	08H
	DB	0ffH
	DB	028H
	DB	024H
	DB	08H
	DB	0ffH
	DB	028H
	DB	020H
	DB	08H
	DB	0ffH
	DB	028H
	DB	024H
	DB	08H
	DB	0ffH
	DB	028H
	DB	024H
	DB	08H
	DB	0ffH
	DB	028H
	DB	020H
	DB	08H
	DB	0ffH
	DB	028H
	DB	020H
	DB	08H
	DB	0ffH
	DB	028H
	DB	024H
	DB	08H
	DB	0ffH
	DB	028H
	DB	020H
	DB	08H
	DB	0ffH
	DB	028H
	DB	024H
	DB	08H
	DB	0ffH
	DB	028H
	DB	024H
	DB	08H
	DB	0ffH
	DB	028H
	DB	020H
	DB	08H
	DB	0ffH
	DB	028H
	DB	024H
	DB	08H
	DB	0ffH
	DB	028H
	DB	024H
	DB	08H
	DB	0ffH
	DB	028H
	DB	020H
	DB	08H
	DB	0ffH
	DB	028H
	DB	024H
	DB	08H
	DB	0ffH
	DB	028H
	DB	020H
	DB	08H
	DB	0ffH
	DB	028H
	DB	024H
	DB	08H
	DB	0ffH
	DB	028H
	DB	024H
	DB	08H
	DB	0ffH
	DB	028H
	DB	020H
	DB	08H
	DB	0ffH
	DB	028H
	DB	024H
	DB	08H
	DB	0ffH
	DB	028H
	DB	020H
	DB	08H
	DB	0ffH
	DB	028H
	DB	020H
	DB	08H
	DB	0ffH
	DB	028H
	DB	024H
	DB	08H
	DB	0ffH
	DB	028H
	DB	020H
	DB	08H
	DB	0ffH
	DB	028H
	DB	020H
	DB	08H
	DB	0ffH
	DB	028H
	DB	024H
	DB	08H
	DB	0ffH
	DB	028H
	DB	020H
	DB	08H
	DB	0ffH
	DB	028H
	DB	024H
	DB	08H
	DB	0ffH
	DB	028H
	DB	020H
	DB	08H
	DB	0ffH
	DB	028H
	DB	024H
	DB	08H
	DB	0ffH
	DB	028H
	DB	020H
	DB	08H
	DB	0ffH
	DB	028H
	DB	024H
	DB	08H
	DB	0ffH
	DB	028H
	DB	020H
	DB	08H
	DB	0ffH
	DB	028H
	DB	020H
	DB	08H
	DB	0ffH
	DB	028H
	DB	024H
	DB	08H
	DB	0ffH
	DB	028H
	DB	020H
	DB	08H
	DB	0ffH
	DB	028H
	DB	024H
	DB	08H
	DB	0ffH
	DB	028H
	DB	020H
	DB	08H
	DB	0ffH
	DB	028H
	DB	024H
	DB	08H
	DB	0ffH
	DB	028H
	DB	020H
	DB	08H
	DB	0ffH
	DB	028H
	DB	024H
	DB	08H
	DB	0ffH
	DB	028H
	DB	024H
	DB	08H
	DB	0ffH
	DB	028H
	DB	020H
	DB	08H
	DB	0ffH
	DB	028H
	DB	024H
	DB	08H
	DB	0ffH
	DB	028H
	DB	024H
	DB	08H
	DB	0ffH
	DB	028H
	DB	020H
	DB	08H
	DB	0ffH
	DB	028H
	DB	020H
	DB	08H
	DB	0ffH
	DB	028H
	DB	024H
	DB	08H
	DB	0ffH
	DB	028H
	DB	020H
	DB	08H
	DB	0ffH
	DB	028H
	DB	024H
	DB	08H
	DB	0ffH
	DB	028H
	DB	024H
	DB	08H
	DB	0ffH
	DB	028H
	DB	020H
	DB	08H
	DB	0ffH
	DB	028H
	DB	024H
	DB	08H
	DB	0ffH
	DB	028H
	DB	024H
	DB	08H
	DB	0ffH
	DB	028H
	DB	020H
	DB	08H
	DB	0ffH
	DB	028H
	DB	024H
	DB	08H
	DB	0ffH
	DB	028H
	DB	024H
	DB	08H
	DB	0ffH
	DB	028H
	DB	024H
	DB	08H
	DB	0ffH
	DB	028H
	DB	020H
	DB	08H
	DB	0ffH
	DB	028H
	DB	024H
	DB	08H
	DB	0ffH
	DB	028H
	DB	024H
	DB	08H
	DB	0ffH
	DB	028H
	DB	020H
	DB	08H
	DB	0ffH
	DB	028H
	DB	020H
	DB	08H
	DB	0ffH
	DB	028H
	DB	024H
	DB	08H
	DB	0ffH
	DB	028H
	DB	020H
	DB	08H
	DB	0ffH
	DB	028H
	DB	020H
	DB	08H
	DB	0ffH
	DB	028H
	DB	024H
	DB	08H
	DB	0ffH
	DB	028H
	DB	020H
	DB	08H
	DB	0ffH
	DB	028H
	DB	024H
	DB	08H
	DB	0ffH
	DB	028H
	DB	024H
	DB	08H
	DB	0ffH
	DB	028H
	DB	020H
	DB	08H
	DB	0ffH
	DB	028H
	DB	024H
	DB	08H
	DB	0ffH
	DB	028H
	DB	020H
	DB	08H
	DB	0ffH
	DB	028H
	DB	020H
	DB	08H
	DB	0ffH
	DB	028H
	DB	024H
	DB	08H
	DB	0ffH
	DB	028H
	DB	020H
	DB	08H
	DB	0ffH
	DB	028H
	DB	020H
	DB	08H
	DB	0ffH
	DB	028H
	DB	024H
	DB	08H
	DB	0ffH
	DB	028H
	DB	020H
	DB	08H
	DB	0ffH
	DB	028H
	DB	020H
	DB	08H
	DB	0ffH
	DB	028H
	DB	024H
	DB	08H
	DB	0ffH
	DB	028H
	DB	020H
	DB	08H
	DB	0ffH
	DB	028H
	DB	020H
	DB	08H
	DB	0ffH
	DB	028H
	DB	020H
	DB	08H
	DB	0ffH
	DB	028H
	DB	020H
	DB	08H
	DB	0ffH
	DB	028H
	DB	024H
	DB	08H
	DB	0ffH
	DB	028H
	DB	020H
	DB	08H
	DB	0ffH
	DB	028H
	DB	020H
	DB	08H
	DB	0ffH
	DB	028H
	DB	024H
	DB	08H
	DB	0ffH
	DB	028H
	DB	020H
	DB	08H
	DB	0ffH
	DB	028H
	DB	024H
	DB	08H
	DB	0ffH
	DB	028H
	DB	020H
	DB	08H
	DB	0ffH
	DB	028H
	DB	024H
	DB	08H
	DB	0ffH
	DB	028H
	DB	020H
	DB	08H
	DB	0ffH
	DB	028H
	DB	024H
	DB	08H
	DB	0ffH
	DB	028H
	DB	020H
	DB	08H
	DB	0ffH
	DB	028H
	DB	024H
	DB	08H
	DB	0ffH
	DB	028H
	DB	024H
	DB	08H
	DB	0ffH
	DB	028H
	DB	020H
	DB	08H
	DB	0ffH
	DB	028H
	DB	024H
	DB	08H
	DB	0ffH
	DB	028H
	DB	024H
	DB	08H
	DB	0ffH
	DB	028H
	DB	020H
	DB	08H
	DB	0ffH
	DB	028H
	DB	024H
	DB	08H
	DB	0ffH
	DB	028H
	DB	020H
	DB	08H
	DB	0ffH
	DB	028H
	DB	024H
	DB	08H
	DB	0ffH
	DB	028H
	DB	024H
	DB	08H
	DB	0ffH
	DB	028H
	DB	020H
	DB	08H
	DB	0ffH
	DB	028H
	DB	024H
	DB	08H
	DB	0ffH
	DB	028H
	DB	020H
	DB	08H
	DB	0ffH
	DB	028H
	DB	020H
	DB	08H
	DB	0ffH
	DB	030H
	DB	024H
	DB	08H
	DB	0ffH
	DB	030H
	DB	024H
	DB	08H
	DB	0ffH
	DB	030H
	DB	024H
	DB	010H
	DB	0ffH
	DB	030H
	DB	028H
	DB	010H
	DB	0ffH
	DB	030H
	DB	028H
	DB	010H
	DB	0ffH
	DB	030H
	DB	028H
	DB	010H
	DB	0ffH
	DB	0a8H
	DB	090H
	DB	050H
	DB	0ffH
	DB	060H
	DB	05cH
	DB	060H
	DB	0ffH
	DB	0f0H
	DB	0acH
	DB	00H
	DB	0ffH
	DB	0e8H
	DB	0b0H
	DB	00H
	DB	0ffH
	DB	0f0H
	DB	0b0H
	DB	00H
	DB	0ffH
	DB	00H
	DB	00H
	DB	00H
	DB	061H
	DB	00H
	DB	00H
	DB	00H
	DB	030H
	DB	00H
	DB	00H
	DB	00H
	DB	010H
	DB	00H
	DB	00H
	DB	00H
	DB	010H
	DB	00H
	DB	00H
	DB	00H
	DB	030H
	DB	00H
	DB	00H
	DB	00H
	DB	061H
	DB	0f0H
	DB	0acH
	DB	00H
	DB	0ffH
	DB	0f0H
	DB	0acH
	DB	00H
	DB	0ffH
	DB	0f0H
	DB	0b0H
	DB	00H
	DB	0ffH
	DB	060H
	DB	060H
	DB	060H
	DB	0ffH
	DB	0a8H
	DB	094H
	DB	050H
	DB	0ffH
	DB	038H
	DB	02cH
	DB	010H
	DB	0ffH
	DB	038H
	DB	02cH
	DB	010H
	DB	0ffH
	DB	038H
	DB	02cH
	DB	010H
	DB	0ffH
	DB	030H
	DB	028H
	DB	010H
	DB	0ffH
	DB	030H
	DB	028H
	DB	010H
	DB	0ffH
	DB	030H
	DB	028H
	DB	010H
	DB	0ffH
	DB	030H
	DB	028H
	DB	010H
	DB	0ffH
	DB	030H
	DB	024H
	DB	010H
	DB	0ffH
	DB	030H
	DB	024H
	DB	010H
	DB	0ffH
	DB	030H
	DB	028H
	DB	010H
	DB	0ffH
	DB	030H
	DB	024H
	DB	010H
	DB	0ffH
	DB	030H
	DB	028H
	DB	010H
	DB	0ffH
	DB	030H
	DB	024H
	DB	010H
	DB	0ffH
	DB	030H
	DB	024H
	DB	010H
	DB	0ffH
	DB	030H
	DB	028H
	DB	010H
	DB	0ffH
	DB	030H
	DB	024H
	DB	010H
	DB	0ffH
	DB	030H
	DB	028H
	DB	010H
	DB	0ffH
	DB	030H
	DB	028H
	DB	010H
	DB	0ffH
	DB	030H
	DB	024H
	DB	010H
	DB	0ffH
	DB	030H
	DB	028H
	DB	010H
	DB	0ffH
	DB	030H
	DB	028H
	DB	010H
	DB	0ffH
	DB	030H
	DB	024H
	DB	010H
	DB	0ffH
	DB	030H
	DB	024H
	DB	010H
	DB	0ffH
	DB	030H
	DB	028H
	DB	010H
	DB	0ffH
	DB	030H
	DB	024H
	DB	010H
	DB	0ffH
	DB	030H
	DB	028H
	DB	010H
	DB	0ffH
	DB	030H
	DB	024H
	DB	010H
	DB	0ffH
	DB	030H
	DB	028H
	DB	010H
	DB	0ffH
	DB	030H
	DB	028H
	DB	010H
	DB	0ffH
	DB	030H
	DB	024H
	DB	010H
	DB	0ffH
	DB	030H
	DB	024H
	DB	010H
	DB	0ffH
	DB	030H
	DB	028H
	DB	010H
	DB	0ffH
	DB	030H
	DB	028H
	DB	010H
	DB	0ffH
	DB	030H
	DB	024H
	DB	010H
	DB	0ffH
	DB	030H
	DB	028H
	DB	010H
	DB	0ffH
	DB	030H
	DB	028H
	DB	010H
	DB	0ffH
	DB	030H
	DB	024H
	DB	010H
	DB	0ffH
	DB	030H
	DB	028H
	DB	010H
	DB	0ffH
	DB	030H
	DB	028H
	DB	010H
	DB	0ffH
	DB	030H
	DB	024H
	DB	010H
	DB	0ffH
	DB	030H
	DB	028H
	DB	010H
	DB	0ffH
	DB	030H
	DB	024H
	DB	010H
	DB	0ffH
	DB	030H
	DB	028H
	DB	010H
	DB	0ffH
	DB	030H
	DB	028H
	DB	010H
	DB	0ffH
	DB	030H
	DB	024H
	DB	010H
	DB	0ffH
	DB	030H
	DB	028H
	DB	010H
	DB	0ffH
	DB	030H
	DB	028H
	DB	010H
	DB	0ffH
	DB	030H
	DB	024H
	DB	010H
	DB	0ffH
	DB	030H
	DB	028H
	DB	010H
	DB	0ffH
	DB	030H
	DB	028H
	DB	010H
	DB	0ffH
	DB	030H
	DB	024H
	DB	010H
	DB	0ffH
	DB	030H
	DB	028H
	DB	010H
	DB	0ffH
	DB	030H
	DB	024H
	DB	010H
	DB	0ffH
	DB	030H
	DB	028H
	DB	010H
	DB	0ffH
	DB	030H
	DB	024H
	DB	010H
	DB	0ffH
	DB	030H
	DB	028H
	DB	010H
	DB	0ffH
	DB	030H
	DB	024H
	DB	010H
	DB	0ffH
	DB	030H
	DB	028H
	DB	010H
	DB	0ffH
	DB	030H
	DB	028H
	DB	010H
	DB	0ffH
	DB	030H
	DB	024H
	DB	010H
	DB	0ffH
	DB	030H
	DB	028H
	DB	010H
	DB	0ffH
	DB	030H
	DB	028H
	DB	010H
	DB	0ffH
	DB	030H
	DB	024H
	DB	010H
	DB	0ffH
	DB	030H
	DB	028H
	DB	010H
	DB	0ffH
	DB	030H
	DB	024H
	DB	010H
	DB	0ffH
	DB	030H
	DB	024H
	DB	010H
	DB	0ffH
	DB	030H
	DB	028H
	DB	010H
	DB	0ffH
	DB	030H
	DB	024H
	DB	010H
	DB	0ffH
	DB	030H
	DB	028H
	DB	010H
	DB	0ffH
	DB	030H
	DB	024H
	DB	010H
	DB	0ffH
	DB	030H
	DB	028H
	DB	010H
	DB	0ffH
	DB	030H
	DB	024H
	DB	010H
	DB	0ffH
	DB	030H
	DB	028H
	DB	010H
	DB	0ffH
	DB	030H
	DB	024H
	DB	010H
	DB	0ffH
	DB	030H
	DB	028H
	DB	010H
	DB	0ffH
	DB	030H
	DB	028H
	DB	010H
	DB	0ffH
	DB	030H
	DB	024H
	DB	010H
	DB	0ffH
	DB	030H
	DB	028H
	DB	010H
	DB	0ffH
	DB	030H
	DB	028H
	DB	010H
	DB	0ffH
	DB	030H
	DB	024H
	DB	010H
	DB	0ffH
	DB	030H
	DB	028H
	DB	010H
	DB	0ffH
	DB	030H
	DB	024H
	DB	010H
	DB	0ffH
	DB	030H
	DB	024H
	DB	010H
	DB	0ffH
	DB	030H
	DB	028H
	DB	010H
	DB	0ffH
	DB	030H
	DB	024H
	DB	010H
	DB	0ffH
	DB	030H
	DB	028H
	DB	010H
	DB	0ffH
	DB	030H
	DB	028H
	DB	010H
	DB	0ffH
	DB	030H
	DB	024H
	DB	010H
	DB	0ffH
	DB	030H
	DB	028H
	DB	010H
	DB	0ffH
	DB	030H
	DB	028H
	DB	010H
	DB	0ffH
	DB	030H
	DB	024H
	DB	010H
	DB	0ffH
	DB	030H
	DB	028H
	DB	010H
	DB	0ffH
	DB	030H
	DB	028H
	DB	010H
	DB	0ffH
	DB	030H
	DB	024H
	DB	010H
	DB	0ffH
	DB	030H
	DB	028H
	DB	010H
	DB	0ffH
	DB	030H
	DB	028H
	DB	010H
	DB	0ffH
	DB	030H
	DB	028H
	DB	010H
	DB	0ffH
	DB	030H
	DB	028H
	DB	010H
	DB	0ffH
	DB	030H
	DB	024H
	DB	010H
	DB	0ffH
	DB	030H
	DB	028H
	DB	010H
	DB	0ffH
	DB	030H
	DB	028H
	DB	010H
	DB	0ffH
	DB	030H
	DB	028H
	DB	010H
	DB	0ffH
	DB	030H
	DB	024H
	DB	010H
	DB	0ffH
	DB	030H
	DB	028H
	DB	010H
	DB	0ffH
	DB	030H
	DB	028H
	DB	010H
	DB	0ffH
	DB	030H
	DB	024H
	DB	010H
	DB	0ffH
	DB	030H
	DB	028H
	DB	010H
	DB	0ffH
	DB	030H
	DB	028H
	DB	010H
	DB	0ffH
	DB	030H
	DB	024H
	DB	010H
	DB	0ffH
	DB	030H
	DB	028H
	DB	010H
	DB	0ffH
	DB	030H
	DB	024H
	DB	010H
	DB	0ffH
	DB	030H
	DB	028H
	DB	010H
	DB	0ffH
	DB	030H
	DB	024H
	DB	010H
	DB	0ffH
	DB	030H
	DB	028H
	DB	010H
	DB	0ffH
	DB	030H
	DB	024H
	DB	010H
	DB	0ffH
	DB	030H
	DB	028H
	DB	010H
	DB	0ffH
	DB	030H
	DB	028H
	DB	010H
	DB	0ffH
	DB	030H
	DB	024H
	DB	010H
	DB	0ffH
	DB	030H
	DB	028H
	DB	010H
	DB	0ffH
	DB	030H
	DB	024H
	DB	010H
	DB	0ffH
	DB	030H
	DB	028H
	DB	010H
	DB	0ffH
	DB	030H
	DB	028H
	DB	010H
	DB	0ffH
	DB	030H
	DB	028H
	DB	010H
	DB	0ffH
	DB	030H
	DB	028H
	DB	010H
	DB	0ffH
	DB	030H
	DB	028H
	DB	010H
	DB	0ffH
	DB	030H
	DB	028H
	DB	010H
	DB	0ffH
	DB	030H
	DB	028H
	DB	010H
	DB	0ffH
	DB	038H
	DB	02cH
	DB	010H
	DB	0ffH
	DB	038H
	DB	02cH
	DB	010H
	DB	0ffH
	DB	038H
	DB	02cH
	DB	010H
	DB	0ffH
	DB	0a8H
	DB	094H
	DB	058H
	DB	0ffH
	DB	060H
	DB	060H
	DB	060H
	DB	0ffH
	DB	0f0H
	DB	0acH
	DB	00H
	DB	0ffH
	DB	0f0H
	DB	0acH
	DB	00H
	DB	0ffH
	DB	0f0H
	DB	0b0H
	DB	00H
	DB	0ffH
	DB	00H
	DB	00H
	DB	00H
	DB	061H
	DB	00H
	DB	00H
	DB	00H
	DB	030H
	DB	00H
	DB	00H
	DB	00H
	DB	010H
	DB	00H
	DB	00H
	DB	00H
	DB	010H
	DB	00H
	DB	00H
	DB	00H
	DB	030H
	DB	00H
	DB	00H
	DB	00H
	DB	061H
	DB	0f0H
	DB	0acH
	DB	00H
	DB	0ffH
	DB	0f0H
	DB	0b0H
	DB	00H
	DB	0ffH
	DB	0f0H
	DB	0acH
	DB	00H
	DB	0ffH
	DB	060H
	DB	064H
	DB	060H
	DB	0ffH
	DB	0a8H
	DB	098H
	DB	058H
	DB	0ffH
	DB	038H
	DB	030H
	DB	018H
	DB	0ffH
	DB	038H
	DB	030H
	DB	018H
	DB	0ffH
	DB	038H
	DB	030H
	DB	010H
	DB	0ffH
	DB	038H
	DB	02cH
	DB	010H
	DB	0ffH
	DB	038H
	DB	02cH
	DB	010H
	DB	0ffH
	DB	038H
	DB	02cH
	DB	010H
	DB	0ffH
	DB	038H
	DB	02cH
	DB	010H
	DB	0ffH
	DB	038H
	DB	02cH
	DB	010H
	DB	0ffH
	DB	038H
	DB	02cH
	DB	010H
	DB	0ffH
	DB	030H
	DB	02cH
	DB	010H
	DB	0ffH
	DB	038H
	DB	02cH
	DB	010H
	DB	0ffH
	DB	038H
	DB	02cH
	DB	010H
	DB	0ffH
	DB	038H
	DB	02cH
	DB	010H
	DB	0ffH
	DB	038H
	DB	02cH
	DB	010H
	DB	0ffH
	DB	038H
	DB	02cH
	DB	010H
	DB	0ffH
	DB	030H
	DB	02cH
	DB	010H
	DB	0ffH
	DB	038H
	DB	02cH
	DB	010H
	DB	0ffH
	DB	038H
	DB	02cH
	DB	010H
	DB	0ffH
	DB	038H
	DB	02cH
	DB	010H
	DB	0ffH
	DB	038H
	DB	02cH
	DB	010H
	DB	0ffH
	DB	038H
	DB	02cH
	DB	010H
	DB	0ffH
	DB	038H
	DB	02cH
	DB	010H
	DB	0ffH
	DB	030H
	DB	02cH
	DB	010H
	DB	0ffH
	DB	038H
	DB	02cH
	DB	010H
	DB	0ffH
	DB	038H
	DB	02cH
	DB	010H
	DB	0ffH
	DB	030H
	DB	02cH
	DB	010H
	DB	0ffH
	DB	038H
	DB	02cH
	DB	010H
	DB	0ffH
	DB	038H
	DB	02cH
	DB	010H
	DB	0ffH
	DB	030H
	DB	02cH
	DB	010H
	DB	0ffH
	DB	038H
	DB	02cH
	DB	010H
	DB	0ffH
	DB	038H
	DB	02cH
	DB	010H
	DB	0ffH
	DB	030H
	DB	02cH
	DB	010H
	DB	0ffH
	DB	038H
	DB	02cH
	DB	010H
	DB	0ffH
	DB	038H
	DB	02cH
	DB	010H
	DB	0ffH
	DB	030H
	DB	02cH
	DB	010H
	DB	0ffH
	DB	038H
	DB	02cH
	DB	010H
	DB	0ffH
	DB	038H
	DB	02cH
	DB	010H
	DB	0ffH
	DB	030H
	DB	02cH
	DB	010H
	DB	0ffH
	DB	038H
	DB	02cH
	DB	010H
	DB	0ffH
	DB	038H
	DB	02cH
	DB	010H
	DB	0ffH
	DB	038H
	DB	02cH
	DB	010H
	DB	0ffH
	DB	030H
	DB	02cH
	DB	010H
	DB	0ffH
	DB	038H
	DB	02cH
	DB	010H
	DB	0ffH
	DB	038H
	DB	02cH
	DB	010H
	DB	0ffH
	DB	030H
	DB	02cH
	DB	010H
	DB	0ffH
	DB	038H
	DB	02cH
	DB	010H
	DB	0ffH
	DB	038H
	DB	02cH
	DB	010H
	DB	0ffH
	DB	030H
	DB	02cH
	DB	010H
	DB	0ffH
	DB	038H
	DB	02cH
	DB	010H
	DB	0ffH
	DB	038H
	DB	02cH
	DB	010H
	DB	0ffH
	DB	030H
	DB	02cH
	DB	010H
	DB	0ffH
	DB	038H
	DB	02cH
	DB	010H
	DB	0ffH
	DB	038H
	DB	02cH
	DB	010H
	DB	0ffH
	DB	030H
	DB	02cH
	DB	010H
	DB	0ffH
	DB	038H
	DB	02cH
	DB	010H
	DB	0ffH
	DB	038H
	DB	02cH
	DB	010H
	DB	0ffH
	DB	030H
	DB	02cH
	DB	010H
	DB	0ffH
	DB	038H
	DB	02cH
	DB	010H
	DB	0ffH
	DB	038H
	DB	02cH
	DB	010H
	DB	0ffH
	DB	030H
	DB	02cH
	DB	010H
	DB	0ffH
	DB	038H
	DB	02cH
	DB	010H
	DB	0ffH
	DB	038H
	DB	02cH
	DB	010H
	DB	0ffH
	DB	030H
	DB	02cH
	DB	010H
	DB	0ffH
	DB	038H
	DB	02cH
	DB	010H
	DB	0ffH
	DB	038H
	DB	02cH
	DB	010H
	DB	0ffH
	DB	030H
	DB	02cH
	DB	010H
	DB	0ffH
	DB	038H
	DB	02cH
	DB	010H
	DB	0ffH
	DB	038H
	DB	02cH
	DB	010H
	DB	0ffH
	DB	030H
	DB	02cH
	DB	010H
	DB	0ffH
	DB	038H
	DB	02cH
	DB	010H
	DB	0ffH
	DB	038H
	DB	02cH
	DB	010H
	DB	0ffH
	DB	030H
	DB	02cH
	DB	010H
	DB	0ffH
	DB	038H
	DB	02cH
	DB	010H
	DB	0ffH
	DB	038H
	DB	02cH
	DB	010H
	DB	0ffH
	DB	030H
	DB	02cH
	DB	010H
	DB	0ffH
	DB	038H
	DB	02cH
	DB	010H
	DB	0ffH
	DB	038H
	DB	02cH
	DB	010H
	DB	0ffH
	DB	038H
	DB	02cH
	DB	010H
	DB	0ffH
	DB	038H
	DB	02cH
	DB	010H
	DB	0ffH
	DB	038H
	DB	02cH
	DB	010H
	DB	0ffH
	DB	030H
	DB	02cH
	DB	010H
	DB	0ffH
	DB	038H
	DB	02cH
	DB	010H
	DB	0ffH
	DB	038H
	DB	02cH
	DB	010H
	DB	0ffH
	DB	030H
	DB	02cH
	DB	010H
	DB	0ffH
	DB	038H
	DB	02cH
	DB	010H
	DB	0ffH
	DB	038H
	DB	02cH
	DB	010H
	DB	0ffH
	DB	030H
	DB	02cH
	DB	010H
	DB	0ffH
	DB	038H
	DB	02cH
	DB	010H
	DB	0ffH
	DB	038H
	DB	02cH
	DB	010H
	DB	0ffH
	DB	030H
	DB	02cH
	DB	010H
	DB	0ffH
	DB	038H
	DB	02cH
	DB	010H
	DB	0ffH
	DB	038H
	DB	02cH
	DB	010H
	DB	0ffH
	DB	030H
	DB	02cH
	DB	010H
	DB	0ffH
	DB	038H
	DB	02cH
	DB	010H
	DB	0ffH
	DB	038H
	DB	02cH
	DB	010H
	DB	0ffH
	DB	038H
	DB	02cH
	DB	010H
	DB	0ffH
	DB	038H
	DB	02cH
	DB	010H
	DB	0ffH
	DB	038H
	DB	02cH
	DB	010H
	DB	0ffH
	DB	038H
	DB	02cH
	DB	010H
	DB	0ffH
	DB	030H
	DB	02cH
	DB	010H
	DB	0ffH
	DB	038H
	DB	02cH
	DB	010H
	DB	0ffH
	DB	038H
	DB	02cH
	DB	010H
	DB	0ffH
	DB	038H
	DB	02cH
	DB	010H
	DB	0ffH
	DB	038H
	DB	02cH
	DB	010H
	DB	0ffH
	DB	038H
	DB	02cH
	DB	010H
	DB	0ffH
	DB	038H
	DB	02cH
	DB	010H
	DB	0ffH
	DB	038H
	DB	02cH
	DB	010H
	DB	0ffH
	DB	038H
	DB	02cH
	DB	010H
	DB	0ffH
	DB	038H
	DB	02cH
	DB	010H
	DB	0ffH
	DB	038H
	DB	02cH
	DB	010H
	DB	0ffH
	DB	038H
	DB	02cH
	DB	010H
	DB	0ffH
	DB	038H
	DB	02cH
	DB	010H
	DB	0ffH
	DB	038H
	DB	02cH
	DB	010H
	DB	0ffH
	DB	038H
	DB	02cH
	DB	010H
	DB	0ffH
	DB	030H
	DB	02cH
	DB	010H
	DB	0ffH
	DB	038H
	DB	02cH
	DB	010H
	DB	0ffH
	DB	038H
	DB	02cH
	DB	010H
	DB	0ffH
	DB	030H
	DB	02cH
	DB	010H
	DB	0ffH
	DB	038H
	DB	02cH
	DB	010H
	DB	0ffH
	DB	038H
	DB	02cH
	DB	010H
	DB	0ffH
	DB	030H
	DB	02cH
	DB	010H
	DB	0ffH
	DB	038H
	DB	02cH
	DB	010H
	DB	0ffH
	DB	038H
	DB	02cH
	DB	010H
	DB	0ffH
	DB	038H
	DB	02cH
	DB	010H
	DB	0ffH
	DB	038H
	DB	02cH
	DB	010H
	DB	0ffH
	DB	038H
	DB	02cH
	DB	010H
	DB	0ffH
	DB	038H
	DB	030H
	DB	010H
	DB	0ffH
	DB	038H
	DB	030H
	DB	010H
	DB	0ffH
	DB	038H
	DB	030H
	DB	018H
	DB	0ffH
	DB	038H
	DB	030H
	DB	010H
	DB	0ffH
	DB	0a8H
	DB	094H
	DB	058H
	DB	0ffH
	DB	060H
	DB	064H
	DB	060H
	DB	0ffH
	DB	0f0H
	DB	0b0H
	DB	00H
	DB	0ffH
	DB	0f0H
	DB	0acH
	DB	00H
	DB	0ffH
	DB	0f0H
	DB	0acH
	DB	00H
	DB	0ffH
	DB	00H
	DB	00H
	DB	00H
	DB	061H
	DB	00H
	DB	00H
	DB	00H
	DB	030H
	DB	00H
	DB	00H
	DB	00H
	DB	010H
	DB	00H
	DB	00H
	DB	00H
	DB	010H
	DB	00H
	DB	00H
	DB	00H
	DB	030H
	DB	00H
	DB	00H
	DB	00H
	DB	061H
	DB	0f0H
	DB	0b0H
	DB	00H
	DB	0ffH
	DB	0f0H
	DB	0acH
	DB	00H
	DB	0ffH
	DB	0f0H
	DB	0b0H
	DB	00H
	DB	0ffH
	DB	068H
	DB	064H
	DB	068H
	DB	0ffH
	DB	0a8H
	DB	098H
	DB	060H
	DB	0ffH
	DB	040H
	DB	030H
	DB	018H
	DB	0ffH
	DB	040H
	DB	034H
	DB	018H
	DB	0ffH
	DB	040H
	DB	034H
	DB	018H
	DB	0ffH
	DB	038H
	DB	030H
	DB	018H
	DB	0ffH
	DB	038H
	DB	030H
	DB	018H
	DB	0ffH
	DB	038H
	DB	030H
	DB	018H
	DB	0ffH
	DB	038H
	DB	030H
	DB	018H
	DB	0ffH
	DB	038H
	DB	030H
	DB	010H
	DB	0ffH
	DB	038H
	DB	030H
	DB	018H
	DB	0ffH
	DB	038H
	DB	030H
	DB	018H
	DB	0ffH
	DB	038H
	DB	030H
	DB	010H
	DB	0ffH
	DB	038H
	DB	02cH
	DB	018H
	DB	0ffH
	DB	038H
	DB	030H
	DB	018H
	DB	0ffH
	DB	038H
	DB	030H
	DB	010H
	DB	0ffH
	DB	038H
	DB	030H
	DB	018H
	DB	0ffH
	DB	038H
	DB	02cH
	DB	010H
	DB	0ffH
	DB	038H
	DB	030H
	DB	018H
	DB	0ffH
	DB	038H
	DB	02cH
	DB	018H
	DB	0ffH
	DB	038H
	DB	030H
	DB	010H
	DB	0ffH
	DB	038H
	DB	02cH
	DB	018H
	DB	0ffH
	DB	038H
	DB	030H
	DB	010H
	DB	0ffH
	DB	038H
	DB	030H
	DB	018H
	DB	0ffH
	DB	038H
	DB	030H
	DB	018H
	DB	0ffH
	DB	038H
	DB	030H
	DB	010H
	DB	0ffH
	DB	038H
	DB	02cH
	DB	018H
	DB	0ffH
	DB	038H
	DB	030H
	DB	010H
	DB	0ffH
	DB	038H
	DB	030H
	DB	018H
	DB	0ffH
	DB	038H
	DB	030H
	DB	018H
	DB	0ffH
	DB	038H
	DB	02cH
	DB	010H
	DB	0ffH
	DB	038H
	DB	030H
	DB	018H
	DB	0ffH
	DB	038H
	DB	030H
	DB	010H
	DB	0ffH
	DB	038H
	DB	030H
	DB	018H
	DB	0ffH
	DB	038H
	DB	030H
	DB	018H
	DB	0ffH
	DB	038H
	DB	02cH
	DB	010H
	DB	0ffH
	DB	038H
	DB	030H
	DB	018H
	DB	0ffH
	DB	038H
	DB	030H
	DB	010H
	DB	0ffH
	DB	038H
	DB	02cH
	DB	018H
	DB	0ffH
	DB	038H
	DB	030H
	DB	018H
	DB	0ffH
	DB	038H
	DB	030H
	DB	010H
	DB	0ffH
	DB	038H
	DB	02cH
	DB	018H
	DB	0ffH
	DB	038H
	DB	030H
	DB	010H
	DB	0ffH
	DB	038H
	DB	030H
	DB	018H
	DB	0ffH
	DB	038H
	DB	030H
	DB	018H
	DB	0ffH
	DB	038H
	DB	02cH
	DB	010H
	DB	0ffH
	DB	038H
	DB	030H
	DB	018H
	DB	0ffH
	DB	038H
	DB	030H
	DB	010H
	DB	0ffH
	DB	038H
	DB	02cH
	DB	018H
	DB	0ffH
	DB	038H
	DB	030H
	DB	018H
	DB	0ffH
	DB	038H
	DB	030H
	DB	010H
	DB	0ffH
	DB	038H
	DB	02cH
	DB	018H
	DB	0ffH
	DB	038H
	DB	030H
	DB	010H
	DB	0ffH
	DB	038H
	DB	030H
	DB	018H
	DB	0ffH
	DB	038H
	DB	030H
	DB	018H
	DB	0ffH
	DB	038H
	DB	02cH
	DB	010H
	DB	0ffH
	DB	038H
	DB	030H
	DB	018H
	DB	0ffH
	DB	038H
	DB	030H
	DB	010H
	DB	0ffH
	DB	038H
	DB	02cH
	DB	018H
	DB	0ffH
	DB	038H
	DB	030H
	DB	018H
	DB	0ffH
	DB	038H
	DB	030H
	DB	010H
	DB	0ffH
	DB	038H
	DB	02cH
	DB	018H
	DB	0ffH
	DB	038H
	DB	030H
	DB	010H
	DB	0ffH
	DB	038H
	DB	030H
	DB	018H
	DB	0ffH
	DB	038H
	DB	02cH
	DB	018H
	DB	0ffH
	DB	038H
	DB	030H
	DB	010H
	DB	0ffH
	DB	038H
	DB	030H
	DB	018H
	DB	0ffH
	DB	038H
	DB	030H
	DB	010H
	DB	0ffH
	DB	038H
	DB	030H
	DB	018H
	DB	0ffH
	DB	038H
	DB	02cH
	DB	018H
	DB	0ffH
	DB	038H
	DB	030H
	DB	010H
	DB	0ffH
	DB	038H
	DB	030H
	DB	018H
	DB	0ffH
	DB	038H
	DB	02cH
	DB	010H
	DB	0ffH
	DB	038H
	DB	030H
	DB	018H
	DB	0ffH
	DB	038H
	DB	030H
	DB	018H
	DB	0ffH
	DB	038H
	DB	02cH
	DB	010H
	DB	0ffH
	DB	038H
	DB	030H
	DB	018H
	DB	0ffH
	DB	038H
	DB	02cH
	DB	010H
	DB	0ffH
	DB	038H
	DB	030H
	DB	018H
	DB	0ffH
	DB	038H
	DB	030H
	DB	018H
	DB	0ffH
	DB	038H
	DB	02cH
	DB	010H
	DB	0ffH
	DB	038H
	DB	030H
	DB	018H
	DB	0ffH
	DB	038H
	DB	030H
	DB	010H
	DB	0ffH
	DB	038H
	DB	030H
	DB	018H
	DB	0ffH
	DB	038H
	DB	030H
	DB	018H
	DB	0ffH
	DB	038H
	DB	030H
	DB	010H
	DB	0ffH
	DB	038H
	DB	02cH
	DB	018H
	DB	0ffH
	DB	038H
	DB	030H
	DB	010H
	DB	0ffH
	DB	038H
	DB	030H
	DB	018H
	DB	0ffH
	DB	038H
	DB	02cH
	DB	018H
	DB	0ffH
	DB	038H
	DB	030H
	DB	010H
	DB	0ffH
	DB	038H
	DB	030H
	DB	018H
	DB	0ffH
	DB	038H
	DB	02cH
	DB	010H
	DB	0ffH
	DB	038H
	DB	030H
	DB	018H
	DB	0ffH
	DB	038H
	DB	030H
	DB	018H
	DB	0ffH
	DB	038H
	DB	02cH
	DB	010H
	DB	0ffH
	DB	038H
	DB	030H
	DB	018H
	DB	0ffH
	DB	038H
	DB	02cH
	DB	010H
	DB	0ffH
	DB	038H
	DB	030H
	DB	018H
	DB	0ffH
	DB	038H
	DB	02cH
	DB	018H
	DB	0ffH
	DB	038H
	DB	030H
	DB	010H
	DB	0ffH
	DB	038H
	DB	02cH
	DB	018H
	DB	0ffH
	DB	038H
	DB	030H
	DB	010H
	DB	0ffH
	DB	038H
	DB	02cH
	DB	018H
	DB	0ffH
	DB	038H
	DB	030H
	DB	018H
	DB	0ffH
	DB	038H
	DB	030H
	DB	010H
	DB	0ffH
	DB	038H
	DB	030H
	DB	018H
	DB	0ffH
	DB	038H
	DB	02cH
	DB	010H
	DB	0ffH
	DB	038H
	DB	030H
	DB	018H
	DB	0ffH
	DB	038H
	DB	030H
	DB	018H
	DB	0ffH
	DB	038H
	DB	02cH
	DB	010H
	DB	0ffH
	DB	038H
	DB	030H
	DB	018H
	DB	0ffH
	DB	038H
	DB	030H
	DB	010H
	DB	0ffH
	DB	038H
	DB	02cH
	DB	018H
	DB	0ffH
	DB	038H
	DB	030H
	DB	018H
	DB	0ffH
	DB	038H
	DB	030H
	DB	010H
	DB	0ffH
	DB	038H
	DB	02cH
	DB	018H
	DB	0ffH
	DB	038H
	DB	030H
	DB	010H
	DB	0ffH
	DB	038H
	DB	030H
	DB	018H
	DB	0ffH
	DB	038H
	DB	030H
	DB	018H
	DB	0ffH
	DB	038H
	DB	02cH
	DB	010H
	DB	0ffH
	DB	038H
	DB	030H
	DB	018H
	DB	0ffH
	DB	038H
	DB	02cH
	DB	010H
	DB	0ffH
	DB	038H
	DB	030H
	DB	018H
	DB	0ffH
	DB	038H
	DB	02cH
	DB	010H
	DB	0ffH
	DB	038H
	DB	030H
	DB	018H
	DB	0ffH
	DB	038H
	DB	030H
	DB	018H
	DB	0ffH
	DB	038H
	DB	030H
	DB	018H
	DB	0ffH
	DB	038H
	DB	030H
	DB	018H
	DB	0ffH
	DB	040H
	DB	034H
	DB	018H
	DB	0ffH
	DB	040H
	DB	034H
	DB	018H
	DB	0ffH
	DB	040H
	DB	030H
	DB	018H
	DB	0ffH
	DB	0a8H
	DB	098H
	DB	060H
	DB	0ffH
	DB	068H
	DB	068H
	DB	068H
	DB	0ffH
	DB	0f0H
	DB	0b0H
	DB	00H
	DB	0ffH
	DB	0f0H
	DB	0acH
	DB	00H
	DB	0ffH
	DB	0f0H
	DB	0b0H
	DB	00H
	DB	0ffH
	DB	00H
	DB	00H
	DB	00H
	DB	061H
	DB	00H
	DB	00H
	DB	00H
	DB	030H
	DB	00H
	DB	00H
	DB	00H
	DB	010H
	DB	00H
	DB	00H
	DB	00H
	DB	010H
	DB	00H
	DB	00H
	DB	00H
	DB	030H
	DB	00H
	DB	00H
	DB	00H
	DB	061H
	DB	0f0H
	DB	0acH
	DB	00H
	DB	0ffH
	DB	0e8H
	DB	0b0H
	DB	00H
	DB	0ffH
	DB	0f0H
	DB	0acH
	DB	00H
	DB	0ffH
	DB	068H
	DB	068H
	DB	068H
	DB	0ffH
	DB	0a8H
	DB	09cH
	DB	068H
	DB	0ffH
	DB	040H
	DB	034H
	DB	018H
	DB	0ffH
	DB	040H
	DB	038H
	DB	018H
	DB	0ffH
	DB	040H
	DB	038H
	DB	018H
	DB	0ffH
	DB	040H
	DB	038H
	DB	018H
	DB	0ffH
	DB	040H
	DB	034H
	DB	018H
	DB	0ffH
	DB	040H
	DB	034H
	DB	018H
	DB	0ffH
	DB	040H
	DB	034H
	DB	018H
	DB	0ffH
	DB	040H
	DB	034H
	DB	018H
	DB	0ffH
	DB	040H
	DB	034H
	DB	018H
	DB	0ffH
	DB	040H
	DB	034H
	DB	018H
	DB	0ffH
	DB	040H
	DB	034H
	DB	018H
	DB	0ffH
	DB	040H
	DB	034H
	DB	018H
	DB	0ffH
	DB	040H
	DB	034H
	DB	018H
	DB	0ffH
	DB	040H
	DB	034H
	DB	018H
	DB	0ffH
	DB	040H
	DB	034H
	DB	018H
	DB	0ffH
	DB	040H
	DB	034H
	DB	018H
	DB	0ffH
	DB	040H
	DB	034H
	DB	018H
	DB	0ffH
	DB	040H
	DB	034H
	DB	018H
	DB	0ffH
	DB	040H
	DB	034H
	DB	018H
	DB	0ffH
	DB	038H
	DB	034H
	DB	018H
	DB	0ffH
	DB	040H
	DB	034H
	DB	018H
	DB	0ffH
	DB	040H
	DB	034H
	DB	018H
	DB	0ffH
	DB	040H
	DB	034H
	DB	018H
	DB	0ffH
	DB	040H
	DB	034H
	DB	018H
	DB	0ffH
	DB	040H
	DB	034H
	DB	018H
	DB	0ffH
	DB	040H
	DB	034H
	DB	018H
	DB	0ffH
	DB	040H
	DB	034H
	DB	018H
	DB	0ffH
	DB	040H
	DB	034H
	DB	018H
	DB	0ffH
	DB	040H
	DB	034H
	DB	018H
	DB	0ffH
	DB	040H
	DB	034H
	DB	018H
	DB	0ffH
	DB	040H
	DB	034H
	DB	018H
	DB	0ffH
	DB	040H
	DB	034H
	DB	018H
	DB	0ffH
	DB	040H
	DB	034H
	DB	018H
	DB	0ffH
	DB	040H
	DB	034H
	DB	018H
	DB	0ffH
	DB	040H
	DB	034H
	DB	018H
	DB	0ffH
	DB	040H
	DB	034H
	DB	018H
	DB	0ffH
	DB	040H
	DB	034H
	DB	018H
	DB	0ffH
	DB	040H
	DB	034H
	DB	018H
	DB	0ffH
	DB	040H
	DB	034H
	DB	018H
	DB	0ffH
	DB	040H
	DB	034H
	DB	018H
	DB	0ffH
	DB	040H
	DB	034H
	DB	018H
	DB	0ffH
	DB	040H
	DB	034H
	DB	018H
	DB	0ffH
	DB	040H
	DB	034H
	DB	018H
	DB	0ffH
	DB	040H
	DB	034H
	DB	018H
	DB	0ffH
	DB	040H
	DB	034H
	DB	018H
	DB	0ffH
	DB	040H
	DB	034H
	DB	018H
	DB	0ffH
	DB	040H
	DB	034H
	DB	018H
	DB	0ffH
	DB	040H
	DB	034H
	DB	018H
	DB	0ffH
	DB	040H
	DB	034H
	DB	018H
	DB	0ffH
	DB	040H
	DB	034H
	DB	018H
	DB	0ffH
	DB	040H
	DB	034H
	DB	018H
	DB	0ffH
	DB	040H
	DB	034H
	DB	018H
	DB	0ffH
	DB	040H
	DB	034H
	DB	018H
	DB	0ffH
	DB	040H
	DB	034H
	DB	018H
	DB	0ffH
	DB	040H
	DB	034H
	DB	018H
	DB	0ffH
	DB	040H
	DB	034H
	DB	018H
	DB	0ffH
	DB	040H
	DB	034H
	DB	018H
	DB	0ffH
	DB	040H
	DB	034H
	DB	018H
	DB	0ffH
	DB	040H
	DB	034H
	DB	018H
	DB	0ffH
	DB	040H
	DB	034H
	DB	018H
	DB	0ffH
	DB	040H
	DB	034H
	DB	018H
	DB	0ffH
	DB	040H
	DB	034H
	DB	018H
	DB	0ffH
	DB	040H
	DB	034H
	DB	018H
	DB	0ffH
	DB	040H
	DB	034H
	DB	018H
	DB	0ffH
	DB	040H
	DB	034H
	DB	018H
	DB	0ffH
	DB	040H
	DB	034H
	DB	018H
	DB	0ffH
	DB	040H
	DB	034H
	DB	018H
	DB	0ffH
	DB	040H
	DB	034H
	DB	018H
	DB	0ffH
	DB	040H
	DB	034H
	DB	018H
	DB	0ffH
	DB	040H
	DB	034H
	DB	018H
	DB	0ffH
	DB	040H
	DB	034H
	DB	018H
	DB	0ffH
	DB	040H
	DB	034H
	DB	018H
	DB	0ffH
	DB	040H
	DB	034H
	DB	018H
	DB	0ffH
	DB	040H
	DB	034H
	DB	018H
	DB	0ffH
	DB	040H
	DB	034H
	DB	018H
	DB	0ffH
	DB	040H
	DB	034H
	DB	018H
	DB	0ffH
	DB	040H
	DB	034H
	DB	018H
	DB	0ffH
	DB	040H
	DB	034H
	DB	018H
	DB	0ffH
	DB	040H
	DB	034H
	DB	018H
	DB	0ffH
	DB	040H
	DB	034H
	DB	018H
	DB	0ffH
	DB	040H
	DB	034H
	DB	018H
	DB	0ffH
	DB	040H
	DB	034H
	DB	018H
	DB	0ffH
	DB	040H
	DB	034H
	DB	018H
	DB	0ffH
	DB	040H
	DB	034H
	DB	018H
	DB	0ffH
	DB	040H
	DB	034H
	DB	018H
	DB	0ffH
	DB	040H
	DB	034H
	DB	018H
	DB	0ffH
	DB	040H
	DB	034H
	DB	018H
	DB	0ffH
	DB	040H
	DB	034H
	DB	018H
	DB	0ffH
	DB	040H
	DB	034H
	DB	018H
	DB	0ffH
	DB	040H
	DB	034H
	DB	018H
	DB	0ffH
	DB	040H
	DB	034H
	DB	018H
	DB	0ffH
	DB	040H
	DB	034H
	DB	018H
	DB	0ffH
	DB	040H
	DB	034H
	DB	018H
	DB	0ffH
	DB	040H
	DB	034H
	DB	018H
	DB	0ffH
	DB	040H
	DB	034H
	DB	018H
	DB	0ffH
	DB	040H
	DB	034H
	DB	018H
	DB	0ffH
	DB	038H
	DB	034H
	DB	018H
	DB	0ffH
	DB	040H
	DB	034H
	DB	018H
	DB	0ffH
	DB	040H
	DB	034H
	DB	018H
	DB	0ffH
	DB	040H
	DB	034H
	DB	018H
	DB	0ffH
	DB	040H
	DB	034H
	DB	018H
	DB	0ffH
	DB	040H
	DB	034H
	DB	018H
	DB	0ffH
	DB	040H
	DB	034H
	DB	018H
	DB	0ffH
	DB	040H
	DB	034H
	DB	018H
	DB	0ffH
	DB	038H
	DB	034H
	DB	018H
	DB	0ffH
	DB	040H
	DB	034H
	DB	018H
	DB	0ffH
	DB	040H
	DB	034H
	DB	018H
	DB	0ffH
	DB	038H
	DB	034H
	DB	018H
	DB	0ffH
	DB	040H
	DB	034H
	DB	018H
	DB	0ffH
	DB	040H
	DB	034H
	DB	018H
	DB	0ffH
	DB	038H
	DB	034H
	DB	018H
	DB	0ffH
	DB	040H
	DB	034H
	DB	018H
	DB	0ffH
	DB	040H
	DB	034H
	DB	018H
	DB	0ffH
	DB	040H
	DB	034H
	DB	018H
	DB	0ffH
	DB	040H
	DB	034H
	DB	018H
	DB	0ffH
	DB	040H
	DB	034H
	DB	018H
	DB	0ffH
	DB	040H
	DB	034H
	DB	018H
	DB	0ffH
	DB	040H
	DB	034H
	DB	018H
	DB	0ffH
	DB	040H
	DB	034H
	DB	018H
	DB	0ffH
	DB	040H
	DB	034H
	DB	018H
	DB	0ffH
	DB	040H
	DB	034H
	DB	018H
	DB	0ffH
	DB	040H
	DB	034H
	DB	018H
	DB	0ffH
	DB	040H
	DB	034H
	DB	018H
	DB	0ffH
	DB	040H
	DB	034H
	DB	018H
	DB	0ffH
	DB	040H
	DB	034H
	DB	018H
	DB	0ffH
	DB	040H
	DB	034H
	DB	018H
	DB	0ffH
	DB	040H
	DB	038H
	DB	018H
	DB	0ffH
	DB	040H
	DB	038H
	DB	018H
	DB	0ffH
	DB	040H
	DB	038H
	DB	018H
	DB	0ffH
	DB	040H
	DB	038H
	DB	018H
	DB	0ffH
	DB	0b0H
	DB	09cH
	DB	068H
	DB	0ffH
	DB	068H
	DB	068H
	DB	068H
	DB	0ffH
	DB	0f0H
	DB	0acH
	DB	00H
	DB	0ffH
	DB	0f0H
	DB	0b0H
	DB	00H
	DB	0ffH
	DB	0f0H
	DB	0acH
	DB	00H
	DB	0ffH
	DB	00H
	DB	00H
	DB	00H
	DB	061H
	DB	00H
	DB	00H
	DB	00H
	DB	030H
	DB	00H
	DB	00H
	DB	00H
	DB	010H
	DB	00H
	DB	00H
	DB	00H
	DB	010H
	DB	00H
	DB	00H
	DB	00H
	DB	030H
	DB	00H
	DB	00H
	DB	00H
	DB	05dH
	DB	0f0H
	DB	0acH
	DB	00H
	DB	0ffH
	DB	0f0H
	DB	0b0H
	DB	00H
	DB	0ffH
	DB	0f0H
	DB	0b0H
	DB	00H
	DB	0ffH
	DB	068H
	DB	06cH
	DB	068H
	DB	0ffH
	DB	0b0H
	DB	09cH
	DB	070H
	DB	0ffH
	DB	048H
	DB	038H
	DB	020H
	DB	0ffH
	DB	048H
	DB	03cH
	DB	020H
	DB	0ffH
	DB	048H
	DB	03cH
	DB	020H
	DB	0ffH
	DB	048H
	DB	038H
	DB	018H
	DB	0ffH
	DB	048H
	DB	038H
	DB	018H
	DB	0ffH
	DB	040H
	DB	038H
	DB	018H
	DB	0ffH
	DB	040H
	DB	038H
	DB	018H
	DB	0ffH
	DB	040H
	DB	038H
	DB	018H
	DB	0ffH
	DB	040H
	DB	038H
	DB	018H
	DB	0ffH
	DB	040H
	DB	038H
	DB	018H
	DB	0ffH
	DB	040H
	DB	038H
	DB	018H
	DB	0ffH
	DB	040H
	DB	038H
	DB	018H
	DB	0ffH
	DB	040H
	DB	038H
	DB	018H
	DB	0ffH
	DB	040H
	DB	038H
	DB	018H
	DB	0ffH
	DB	040H
	DB	038H
	DB	018H
	DB	0ffH
	DB	040H
	DB	038H
	DB	018H
	DB	0ffH
	DB	040H
	DB	038H
	DB	018H
	DB	0ffH
	DB	040H
	DB	038H
	DB	018H
	DB	0ffH
	DB	040H
	DB	038H
	DB	018H
	DB	0ffH
	DB	040H
	DB	038H
	DB	018H
	DB	0ffH
	DB	040H
	DB	038H
	DB	018H
	DB	0ffH
	DB	040H
	DB	038H
	DB	018H
	DB	0ffH
	DB	040H
	DB	038H
	DB	018H
	DB	0ffH
	DB	040H
	DB	038H
	DB	018H
	DB	0ffH
	DB	040H
	DB	038H
	DB	018H
	DB	0ffH
	DB	040H
	DB	038H
	DB	018H
	DB	0ffH
	DB	040H
	DB	038H
	DB	018H
	DB	0ffH
	DB	040H
	DB	038H
	DB	018H
	DB	0ffH
	DB	040H
	DB	038H
	DB	018H
	DB	0ffH
	DB	040H
	DB	038H
	DB	018H
	DB	0ffH
	DB	040H
	DB	038H
	DB	018H
	DB	0ffH
	DB	040H
	DB	038H
	DB	018H
	DB	0ffH
	DB	040H
	DB	038H
	DB	018H
	DB	0ffH
	DB	040H
	DB	038H
	DB	018H
	DB	0ffH
	DB	040H
	DB	038H
	DB	018H
	DB	0ffH
	DB	040H
	DB	038H
	DB	018H
	DB	0ffH
	DB	040H
	DB	038H
	DB	018H
	DB	0ffH
	DB	040H
	DB	038H
	DB	018H
	DB	0ffH
	DB	040H
	DB	038H
	DB	018H
	DB	0ffH
	DB	040H
	DB	038H
	DB	018H
	DB	0ffH
	DB	040H
	DB	038H
	DB	018H
	DB	0ffH
	DB	040H
	DB	038H
	DB	018H
	DB	0ffH
	DB	040H
	DB	038H
	DB	018H
	DB	0ffH
	DB	040H
	DB	038H
	DB	018H
	DB	0ffH
	DB	040H
	DB	038H
	DB	018H
	DB	0ffH
	DB	040H
	DB	038H
	DB	018H
	DB	0ffH
	DB	040H
	DB	038H
	DB	018H
	DB	0ffH
	DB	040H
	DB	038H
	DB	018H
	DB	0ffH
	DB	040H
	DB	038H
	DB	018H
	DB	0ffH
	DB	040H
	DB	038H
	DB	018H
	DB	0ffH
	DB	040H
	DB	038H
	DB	018H
	DB	0ffH
	DB	040H
	DB	038H
	DB	018H
	DB	0ffH
	DB	040H
	DB	038H
	DB	018H
	DB	0ffH
	DB	040H
	DB	038H
	DB	018H
	DB	0ffH
	DB	040H
	DB	038H
	DB	018H
	DB	0ffH
	DB	040H
	DB	038H
	DB	018H
	DB	0ffH
	DB	040H
	DB	038H
	DB	018H
	DB	0ffH
	DB	040H
	DB	038H
	DB	018H
	DB	0ffH
	DB	040H
	DB	038H
	DB	018H
	DB	0ffH
	DB	040H
	DB	038H
	DB	018H
	DB	0ffH
	DB	040H
	DB	038H
	DB	018H
	DB	0ffH
	DB	040H
	DB	038H
	DB	018H
	DB	0ffH
	DB	040H
	DB	038H
	DB	018H
	DB	0ffH
	DB	040H
	DB	038H
	DB	018H
	DB	0ffH
	DB	040H
	DB	038H
	DB	018H
	DB	0ffH
	DB	040H
	DB	038H
	DB	018H
	DB	0ffH
	DB	040H
	DB	038H
	DB	018H
	DB	0ffH
	DB	040H
	DB	038H
	DB	018H
	DB	0ffH
	DB	040H
	DB	038H
	DB	018H
	DB	0ffH
	DB	040H
	DB	038H
	DB	018H
	DB	0ffH
	DB	040H
	DB	038H
	DB	018H
	DB	0ffH
	DB	040H
	DB	038H
	DB	018H
	DB	0ffH
	DB	040H
	DB	038H
	DB	018H
	DB	0ffH
	DB	040H
	DB	038H
	DB	018H
	DB	0ffH
	DB	040H
	DB	038H
	DB	018H
	DB	0ffH
	DB	040H
	DB	038H
	DB	018H
	DB	0ffH
	DB	040H
	DB	038H
	DB	018H
	DB	0ffH
	DB	040H
	DB	038H
	DB	018H
	DB	0ffH
	DB	040H
	DB	038H
	DB	018H
	DB	0ffH
	DB	040H
	DB	038H
	DB	018H
	DB	0ffH
	DB	040H
	DB	038H
	DB	018H
	DB	0ffH
	DB	040H
	DB	038H
	DB	018H
	DB	0ffH
	DB	040H
	DB	038H
	DB	018H
	DB	0ffH
	DB	040H
	DB	038H
	DB	018H
	DB	0ffH
	DB	040H
	DB	038H
	DB	018H
	DB	0ffH
	DB	040H
	DB	038H
	DB	018H
	DB	0ffH
	DB	040H
	DB	038H
	DB	018H
	DB	0ffH
	DB	040H
	DB	038H
	DB	018H
	DB	0ffH
	DB	040H
	DB	038H
	DB	018H
	DB	0ffH
	DB	040H
	DB	038H
	DB	018H
	DB	0ffH
	DB	040H
	DB	038H
	DB	018H
	DB	0ffH
	DB	040H
	DB	038H
	DB	018H
	DB	0ffH
	DB	040H
	DB	038H
	DB	018H
	DB	0ffH
	DB	040H
	DB	038H
	DB	018H
	DB	0ffH
	DB	040H
	DB	038H
	DB	018H
	DB	0ffH
	DB	040H
	DB	038H
	DB	018H
	DB	0ffH
	DB	040H
	DB	038H
	DB	018H
	DB	0ffH
	DB	040H
	DB	038H
	DB	018H
	DB	0ffH
	DB	040H
	DB	038H
	DB	018H
	DB	0ffH
	DB	040H
	DB	038H
	DB	018H
	DB	0ffH
	DB	040H
	DB	038H
	DB	018H
	DB	0ffH
	DB	040H
	DB	038H
	DB	018H
	DB	0ffH
	DB	040H
	DB	038H
	DB	018H
	DB	0ffH
	DB	040H
	DB	038H
	DB	018H
	DB	0ffH
	DB	040H
	DB	038H
	DB	018H
	DB	0ffH
	DB	040H
	DB	038H
	DB	018H
	DB	0ffH
	DB	040H
	DB	038H
	DB	018H
	DB	0ffH
	DB	040H
	DB	038H
	DB	018H
	DB	0ffH
	DB	040H
	DB	038H
	DB	018H
	DB	0ffH
	DB	040H
	DB	038H
	DB	018H
	DB	0ffH
	DB	040H
	DB	038H
	DB	018H
	DB	0ffH
	DB	040H
	DB	038H
	DB	018H
	DB	0ffH
	DB	040H
	DB	038H
	DB	018H
	DB	0ffH
	DB	040H
	DB	038H
	DB	018H
	DB	0ffH
	DB	040H
	DB	038H
	DB	018H
	DB	0ffH
	DB	040H
	DB	038H
	DB	018H
	DB	0ffH
	DB	040H
	DB	038H
	DB	018H
	DB	0ffH
	DB	040H
	DB	038H
	DB	018H
	DB	0ffH
	DB	040H
	DB	038H
	DB	018H
	DB	0ffH
	DB	040H
	DB	038H
	DB	018H
	DB	0ffH
	DB	040H
	DB	038H
	DB	018H
	DB	0ffH
	DB	040H
	DB	038H
	DB	018H
	DB	0ffH
	DB	040H
	DB	038H
	DB	018H
	DB	0ffH
	DB	040H
	DB	038H
	DB	018H
	DB	0ffH
	DB	040H
	DB	038H
	DB	018H
	DB	0ffH
	DB	048H
	DB	038H
	DB	018H
	DB	0ffH
	DB	040H
	DB	03cH
	DB	020H
	DB	0ffH
	DB	048H
	DB	038H
	DB	020H
	DB	0ffH
	DB	048H
	DB	03cH
	DB	020H
	DB	0ffH
	DB	040H
	DB	038H
	DB	020H
	DB	0ffH
	DB	0a8H
	DB	09cH
	DB	070H
	DB	0ffH
	DB	068H
	DB	06cH
	DB	068H
	DB	0ffH
	DB	0f0H
	DB	0acH
	DB	00H
	DB	0ffH
	DB	0f0H
	DB	0b0H
	DB	00H
	DB	0ffH
	DB	0e8H
	DB	0b0H
	DB	00H
	DB	0ffH
	DB	00H
	DB	00H
	DB	00H
	DB	061H
	DB	00H
	DB	00H
	DB	00H
	DB	030H
	DB	00H
	DB	00H
	DB	00H
	DB	010H
	DB	00H
	DB	00H
	DB	00H
	DB	010H
	DB	00H
	DB	00H
	DB	00H
	DB	030H
	DB	00H
	DB	00H
	DB	00H
	DB	061H
	DB	0f0H
	DB	0b0H
	DB	00H
	DB	0ffH
	DB	0f0H
	DB	0acH
	DB	00H
	DB	0ffH
	DB	0f0H
	DB	0acH
	DB	00H
	DB	0ffH
	DB	068H
	DB	06cH
	DB	070H
	DB	0ffH
	DB	0b0H
	DB	0a0H
	DB	078H
	DB	0ffH
	DB	048H
	DB	03cH
	DB	020H
	DB	0ffH
	DB	048H
	DB	040H
	DB	020H
	DB	0ffH
	DB	048H
	DB	03cH
	DB	020H
	DB	0ffH
	DB	048H
	DB	040H
	DB	020H
	DB	0ffH
	DB	048H
	DB	03cH
	DB	020H
	DB	0ffH
	DB	048H
	DB	03cH
	DB	020H
	DB	0ffH
	DB	048H
	DB	03cH
	DB	020H
	DB	0ffH
	DB	048H
	DB	03cH
	DB	020H
	DB	0ffH
	DB	048H
	DB	03cH
	DB	020H
	DB	0ffH
	DB	048H
	DB	03cH
	DB	020H
	DB	0ffH
	DB	048H
	DB	03cH
	DB	020H
	DB	0ffH
	DB	048H
	DB	03cH
	DB	020H
	DB	0ffH
	DB	048H
	DB	03cH
	DB	020H
	DB	0ffH
	DB	048H
	DB	03cH
	DB	020H
	DB	0ffH
	DB	048H
	DB	03cH
	DB	020H
	DB	0ffH
	DB	048H
	DB	03cH
	DB	020H
	DB	0ffH
	DB	048H
	DB	03cH
	DB	020H
	DB	0ffH
	DB	048H
	DB	03cH
	DB	020H
	DB	0ffH
	DB	048H
	DB	03cH
	DB	020H
	DB	0ffH
	DB	048H
	DB	03cH
	DB	020H
	DB	0ffH
	DB	048H
	DB	03cH
	DB	020H
	DB	0ffH
	DB	048H
	DB	03cH
	DB	020H
	DB	0ffH
	DB	048H
	DB	03cH
	DB	020H
	DB	0ffH
	DB	048H
	DB	03cH
	DB	020H
	DB	0ffH
	DB	048H
	DB	03cH
	DB	020H
	DB	0ffH
	DB	048H
	DB	03cH
	DB	020H
	DB	0ffH
	DB	048H
	DB	03cH
	DB	020H
	DB	0ffH
	DB	048H
	DB	03cH
	DB	020H
	DB	0ffH
	DB	048H
	DB	03cH
	DB	020H
	DB	0ffH
	DB	048H
	DB	03cH
	DB	020H
	DB	0ffH
	DB	048H
	DB	03cH
	DB	020H
	DB	0ffH
	DB	048H
	DB	03cH
	DB	020H
	DB	0ffH
	DB	048H
	DB	03cH
	DB	020H
	DB	0ffH
	DB	048H
	DB	03cH
	DB	020H
	DB	0ffH
	DB	048H
	DB	03cH
	DB	020H
	DB	0ffH
	DB	048H
	DB	03cH
	DB	020H
	DB	0ffH
	DB	048H
	DB	03cH
	DB	020H
	DB	0ffH
	DB	048H
	DB	03cH
	DB	020H
	DB	0ffH
	DB	048H
	DB	03cH
	DB	020H
	DB	0ffH
	DB	048H
	DB	03cH
	DB	020H
	DB	0ffH
	DB	048H
	DB	03cH
	DB	020H
	DB	0ffH
	DB	048H
	DB	03cH
	DB	020H
	DB	0ffH
	DB	048H
	DB	03cH
	DB	020H
	DB	0ffH
	DB	048H
	DB	03cH
	DB	020H
	DB	0ffH
	DB	048H
	DB	03cH
	DB	020H
	DB	0ffH
	DB	048H
	DB	03cH
	DB	020H
	DB	0ffH
	DB	048H
	DB	03cH
	DB	020H
	DB	0ffH
	DB	048H
	DB	03cH
	DB	020H
	DB	0ffH
	DB	048H
	DB	03cH
	DB	020H
	DB	0ffH
	DB	048H
	DB	03cH
	DB	020H
	DB	0ffH
	DB	048H
	DB	03cH
	DB	020H
	DB	0ffH
	DB	048H
	DB	03cH
	DB	020H
	DB	0ffH
	DB	048H
	DB	03cH
	DB	020H
	DB	0ffH
	DB	048H
	DB	03cH
	DB	020H
	DB	0ffH
	DB	048H
	DB	03cH
	DB	020H
	DB	0ffH
	DB	048H
	DB	03cH
	DB	020H
	DB	0ffH
	DB	048H
	DB	03cH
	DB	020H
	DB	0ffH
	DB	048H
	DB	03cH
	DB	020H
	DB	0ffH
	DB	048H
	DB	03cH
	DB	020H
	DB	0ffH
	DB	048H
	DB	03cH
	DB	020H
	DB	0ffH
	DB	048H
	DB	03cH
	DB	020H
	DB	0ffH
	DB	048H
	DB	03cH
	DB	020H
	DB	0ffH
	DB	048H
	DB	03cH
	DB	020H
	DB	0ffH
	DB	048H
	DB	03cH
	DB	020H
	DB	0ffH
	DB	048H
	DB	03cH
	DB	020H
	DB	0ffH
	DB	048H
	DB	03cH
	DB	020H
	DB	0ffH
	DB	048H
	DB	03cH
	DB	020H
	DB	0ffH
	DB	048H
	DB	03cH
	DB	020H
	DB	0ffH
	DB	048H
	DB	03cH
	DB	020H
	DB	0ffH
	DB	048H
	DB	03cH
	DB	020H
	DB	0ffH
	DB	048H
	DB	03cH
	DB	020H
	DB	0ffH
	DB	048H
	DB	03cH
	DB	020H
	DB	0ffH
	DB	048H
	DB	03cH
	DB	020H
	DB	0ffH
	DB	048H
	DB	03cH
	DB	020H
	DB	0ffH
	DB	048H
	DB	03cH
	DB	020H
	DB	0ffH
	DB	048H
	DB	03cH
	DB	020H
	DB	0ffH
	DB	048H
	DB	03cH
	DB	020H
	DB	0ffH
	DB	048H
	DB	03cH
	DB	020H
	DB	0ffH
	DB	048H
	DB	03cH
	DB	020H
	DB	0ffH
	DB	048H
	DB	03cH
	DB	020H
	DB	0ffH
	DB	048H
	DB	03cH
	DB	020H
	DB	0ffH
	DB	048H
	DB	03cH
	DB	020H
	DB	0ffH
	DB	048H
	DB	03cH
	DB	020H
	DB	0ffH
	DB	048H
	DB	03cH
	DB	020H
	DB	0ffH
	DB	048H
	DB	03cH
	DB	020H
	DB	0ffH
	DB	048H
	DB	03cH
	DB	020H
	DB	0ffH
	DB	048H
	DB	03cH
	DB	020H
	DB	0ffH
	DB	048H
	DB	03cH
	DB	020H
	DB	0ffH
	DB	048H
	DB	03cH
	DB	020H
	DB	0ffH
	DB	048H
	DB	03cH
	DB	020H
	DB	0ffH
	DB	048H
	DB	03cH
	DB	020H
	DB	0ffH
	DB	048H
	DB	03cH
	DB	020H
	DB	0ffH
	DB	048H
	DB	03cH
	DB	020H
	DB	0ffH
	DB	048H
	DB	03cH
	DB	020H
	DB	0ffH
	DB	048H
	DB	03cH
	DB	020H
	DB	0ffH
	DB	048H
	DB	03cH
	DB	020H
	DB	0ffH
	DB	048H
	DB	03cH
	DB	020H
	DB	0ffH
	DB	048H
	DB	03cH
	DB	020H
	DB	0ffH
	DB	048H
	DB	03cH
	DB	020H
	DB	0ffH
	DB	048H
	DB	03cH
	DB	020H
	DB	0ffH
	DB	048H
	DB	03cH
	DB	020H
	DB	0ffH
	DB	048H
	DB	03cH
	DB	020H
	DB	0ffH
	DB	048H
	DB	03cH
	DB	020H
	DB	0ffH
	DB	048H
	DB	03cH
	DB	020H
	DB	0ffH
	DB	048H
	DB	03cH
	DB	020H
	DB	0ffH
	DB	048H
	DB	03cH
	DB	020H
	DB	0ffH
	DB	048H
	DB	03cH
	DB	020H
	DB	0ffH
	DB	048H
	DB	03cH
	DB	020H
	DB	0ffH
	DB	048H
	DB	03cH
	DB	020H
	DB	0ffH
	DB	048H
	DB	03cH
	DB	020H
	DB	0ffH
	DB	048H
	DB	03cH
	DB	020H
	DB	0ffH
	DB	048H
	DB	03cH
	DB	020H
	DB	0ffH
	DB	048H
	DB	03cH
	DB	020H
	DB	0ffH
	DB	048H
	DB	03cH
	DB	020H
	DB	0ffH
	DB	048H
	DB	03cH
	DB	020H
	DB	0ffH
	DB	048H
	DB	03cH
	DB	020H
	DB	0ffH
	DB	048H
	DB	03cH
	DB	020H
	DB	0ffH
	DB	048H
	DB	03cH
	DB	020H
	DB	0ffH
	DB	048H
	DB	03cH
	DB	020H
	DB	0ffH
	DB	048H
	DB	03cH
	DB	020H
	DB	0ffH
	DB	048H
	DB	03cH
	DB	020H
	DB	0ffH
	DB	048H
	DB	03cH
	DB	020H
	DB	0ffH
	DB	048H
	DB	03cH
	DB	020H
	DB	0ffH
	DB	048H
	DB	03cH
	DB	020H
	DB	0ffH
	DB	048H
	DB	03cH
	DB	020H
	DB	0ffH
	DB	048H
	DB	03cH
	DB	020H
	DB	0ffH
	DB	048H
	DB	03cH
	DB	020H
	DB	0ffH
	DB	048H
	DB	040H
	DB	020H
	DB	0ffH
	DB	048H
	DB	040H
	DB	020H
	DB	0ffH
	DB	048H
	DB	03cH
	DB	020H
	DB	0ffH
	DB	0b0H
	DB	0a0H
	DB	078H
	DB	0ffH
	DB	070H
	DB	06cH
	DB	070H
	DB	0ffH
	DB	0f0H
	DB	0b0H
	DB	00H
	DB	0ffH
	DB	0f0H
	DB	0acH
	DB	00H
	DB	0ffH
	DB	0f0H
	DB	0acH
	DB	00H
	DB	0ffH
	DB	00H
	DB	00H
	DB	00H
	DB	061H
	DB	00H
	DB	00H
	DB	00H
	DB	030H
	DB	00H
	DB	00H
	DB	00H
	DB	010H
	DB	00H
	DB	00H
	DB	00H
	DB	010H
	DB	00H
	DB	00H
	DB	00H
	DB	030H
	DB	00H
	DB	00H
	DB	00H
	DB	061H
	DB	0f0H
	DB	0acH
	DB	00H
	DB	0ffH
	DB	0f0H
	DB	0b0H
	DB	00H
	DB	0ffH
	DB	0f0H
	DB	0b0H
	DB	00H
	DB	0ffH
	DB	070H
	DB	070H
	DB	070H
	DB	0ffH
	DB	0b0H
	DB	0a0H
	DB	080H
	DB	0ffH
	DB	048H
	DB	040H
	DB	020H
	DB	0ffH
	DB	048H
	DB	044H
	DB	020H
	DB	0ffH
	DB	048H
	DB	040H
	DB	020H
	DB	0ffH
	DB	048H
	DB	040H
	DB	028H
	DB	0ffH
	DB	048H
	DB	044H
	DB	020H
	DB	0ffH
	DB	048H
	DB	040H
	DB	020H
	DB	0ffH
	DB	050H
	DB	040H
	DB	020H
	DB	0ffH
	DB	048H
	DB	040H
	DB	020H
	DB	0ffH
	DB	048H
	DB	040H
	DB	020H
	DB	0ffH
	DB	050H
	DB	040H
	DB	020H
	DB	0ffH
	DB	048H
	DB	040H
	DB	020H
	DB	0ffH
	DB	048H
	DB	040H
	DB	020H
	DB	0ffH
	DB	048H
	DB	040H
	DB	020H
	DB	0ffH
	DB	048H
	DB	040H
	DB	020H
	DB	0ffH
	DB	048H
	DB	040H
	DB	020H
	DB	0ffH
	DB	048H
	DB	040H
	DB	020H
	DB	0ffH
	DB	048H
	DB	040H
	DB	020H
	DB	0ffH
	DB	048H
	DB	040H
	DB	020H
	DB	0ffH
	DB	048H
	DB	040H
	DB	020H
	DB	0ffH
	DB	050H
	DB	040H
	DB	020H
	DB	0ffH
	DB	048H
	DB	040H
	DB	020H
	DB	0ffH
	DB	048H
	DB	040H
	DB	020H
	DB	0ffH
	DB	048H
	DB	040H
	DB	020H
	DB	0ffH
	DB	048H
	DB	040H
	DB	020H
	DB	0ffH
	DB	048H
	DB	040H
	DB	020H
	DB	0ffH
	DB	048H
	DB	040H
	DB	020H
	DB	0ffH
	DB	048H
	DB	040H
	DB	020H
	DB	0ffH
	DB	048H
	DB	040H
	DB	020H
	DB	0ffH
	DB	050H
	DB	040H
	DB	020H
	DB	0ffH
	DB	048H
	DB	040H
	DB	020H
	DB	0ffH
	DB	048H
	DB	040H
	DB	020H
	DB	0ffH
	DB	050H
	DB	040H
	DB	020H
	DB	0ffH
	DB	048H
	DB	040H
	DB	020H
	DB	0ffH
	DB	048H
	DB	040H
	DB	020H
	DB	0ffH
	DB	048H
	DB	040H
	DB	020H
	DB	0ffH
	DB	048H
	DB	040H
	DB	020H
	DB	0ffH
	DB	048H
	DB	040H
	DB	020H
	DB	0ffH
	DB	048H
	DB	040H
	DB	020H
	DB	0ffH
	DB	048H
	DB	040H
	DB	020H
	DB	0ffH
	DB	048H
	DB	040H
	DB	020H
	DB	0ffH
	DB	048H
	DB	040H
	DB	020H
	DB	0ffH
	DB	048H
	DB	040H
	DB	020H
	DB	0ffH
	DB	048H
	DB	040H
	DB	020H
	DB	0ffH
	DB	048H
	DB	040H
	DB	020H
	DB	0ffH
	DB	048H
	DB	040H
	DB	020H
	DB	0ffH
	DB	048H
	DB	040H
	DB	020H
	DB	0ffH
	DB	050H
	DB	040H
	DB	020H
	DB	0ffH
	DB	048H
	DB	040H
	DB	020H
	DB	0ffH
	DB	048H
	DB	040H
	DB	020H
	DB	0ffH
	DB	048H
	DB	040H
	DB	020H
	DB	0ffH
	DB	048H
	DB	040H
	DB	020H
	DB	0ffH
	DB	050H
	DB	040H
	DB	020H
	DB	0ffH
	DB	048H
	DB	040H
	DB	020H
	DB	0ffH
	DB	048H
	DB	040H
	DB	020H
	DB	0ffH
	DB	048H
	DB	040H
	DB	020H
	DB	0ffH
	DB	048H
	DB	040H
	DB	020H
	DB	0ffH
	DB	048H
	DB	040H
	DB	020H
	DB	0ffH
	DB	048H
	DB	040H
	DB	020H
	DB	0ffH
	DB	048H
	DB	040H
	DB	020H
	DB	0ffH
	DB	048H
	DB	040H
	DB	020H
	DB	0ffH
	DB	048H
	DB	040H
	DB	020H
	DB	0ffH
	DB	048H
	DB	040H
	DB	020H
	DB	0ffH
	DB	048H
	DB	040H
	DB	020H
	DB	0ffH
	DB	048H
	DB	040H
	DB	020H
	DB	0ffH
	DB	050H
	DB	040H
	DB	020H
	DB	0ffH
	DB	048H
	DB	040H
	DB	020H
	DB	0ffH
	DB	048H
	DB	040H
	DB	020H
	DB	0ffH
	DB	048H
	DB	040H
	DB	020H
	DB	0ffH
	DB	048H
	DB	040H
	DB	020H
	DB	0ffH
	DB	050H
	DB	040H
	DB	020H
	DB	0ffH
	DB	048H
	DB	040H
	DB	020H
	DB	0ffH
	DB	048H
	DB	040H
	DB	020H
	DB	0ffH
	DB	048H
	DB	040H
	DB	020H
	DB	0ffH
	DB	048H
	DB	040H
	DB	020H
	DB	0ffH
	DB	048H
	DB	040H
	DB	020H
	DB	0ffH
	DB	048H
	DB	040H
	DB	020H
	DB	0ffH
	DB	048H
	DB	040H
	DB	020H
	DB	0ffH
	DB	048H
	DB	040H
	DB	020H
	DB	0ffH
	DB	048H
	DB	040H
	DB	020H
	DB	0ffH
	DB	048H
	DB	040H
	DB	020H
	DB	0ffH
	DB	048H
	DB	040H
	DB	020H
	DB	0ffH
	DB	048H
	DB	040H
	DB	020H
	DB	0ffH
	DB	048H
	DB	040H
	DB	020H
	DB	0ffH
	DB	048H
	DB	040H
	DB	020H
	DB	0ffH
	DB	048H
	DB	040H
	DB	020H
	DB	0ffH
	DB	050H
	DB	040H
	DB	020H
	DB	0ffH
	DB	048H
	DB	040H
	DB	020H
	DB	0ffH
	DB	048H
	DB	040H
	DB	020H
	DB	0ffH
	DB	050H
	DB	040H
	DB	020H
	DB	0ffH
	DB	048H
	DB	040H
	DB	020H
	DB	0ffH
	DB	048H
	DB	040H
	DB	020H
	DB	0ffH
	DB	048H
	DB	040H
	DB	020H
	DB	0ffH
	DB	048H
	DB	040H
	DB	020H
	DB	0ffH
	DB	048H
	DB	040H
	DB	020H
	DB	0ffH
	DB	050H
	DB	040H
	DB	020H
	DB	0ffH
	DB	048H
	DB	040H
	DB	020H
	DB	0ffH
	DB	048H
	DB	040H
	DB	020H
	DB	0ffH
	DB	048H
	DB	040H
	DB	020H
	DB	0ffH
	DB	050H
	DB	040H
	DB	020H
	DB	0ffH
	DB	048H
	DB	040H
	DB	020H
	DB	0ffH
	DB	048H
	DB	040H
	DB	020H
	DB	0ffH
	DB	048H
	DB	040H
	DB	020H
	DB	0ffH
	DB	048H
	DB	040H
	DB	020H
	DB	0ffH
	DB	048H
	DB	040H
	DB	020H
	DB	0ffH
	DB	048H
	DB	040H
	DB	020H
	DB	0ffH
	DB	050H
	DB	040H
	DB	020H
	DB	0ffH
	DB	048H
	DB	040H
	DB	020H
	DB	0ffH
	DB	048H
	DB	040H
	DB	020H
	DB	0ffH
	DB	050H
	DB	040H
	DB	020H
	DB	0ffH
	DB	048H
	DB	040H
	DB	020H
	DB	0ffH
	DB	048H
	DB	040H
	DB	020H
	DB	0ffH
	DB	048H
	DB	040H
	DB	020H
	DB	0ffH
	DB	048H
	DB	040H
	DB	020H
	DB	0ffH
	DB	050H
	DB	040H
	DB	020H
	DB	0ffH
	DB	048H
	DB	040H
	DB	020H
	DB	0ffH
	DB	048H
	DB	040H
	DB	020H
	DB	0ffH
	DB	048H
	DB	040H
	DB	020H
	DB	0ffH
	DB	048H
	DB	040H
	DB	020H
	DB	0ffH
	DB	048H
	DB	040H
	DB	020H
	DB	0ffH
	DB	050H
	DB	040H
	DB	020H
	DB	0ffH
	DB	048H
	DB	040H
	DB	020H
	DB	0ffH
	DB	048H
	DB	040H
	DB	020H
	DB	0ffH
	DB	048H
	DB	040H
	DB	020H
	DB	0ffH
	DB	048H
	DB	040H
	DB	020H
	DB	0ffH
	DB	048H
	DB	040H
	DB	020H
	DB	0ffH
	DB	048H
	DB	040H
	DB	020H
	DB	0ffH
	DB	050H
	DB	040H
	DB	020H
	DB	0ffH
	DB	048H
	DB	040H
	DB	020H
	DB	0ffH
	DB	050H
	DB	044H
	DB	020H
	DB	0ffH
	DB	048H
	DB	040H
	DB	020H
	DB	0ffH
	DB	0b0H
	DB	0a0H
	DB	080H
	DB	0ffH
	DB	070H
	DB	070H
	DB	070H
	DB	0ffH
	DB	0f0H
	DB	0acH
	DB	00H
	DB	0ffH
	DB	0f0H
	DB	0b0H
	DB	00H
	DB	0ffH
	DB	0f0H
	DB	0acH
	DB	00H
	DB	0ffH
	DB	00H
	DB	00H
	DB	00H
	DB	061H
	DB	00H
	DB	00H
	DB	00H
	DB	030H
	DB	00H
	DB	00H
	DB	00H
	DB	010H
	DB	00H
	DB	00H
	DB	00H
	DB	010H
	DB	00H
	DB	00H
	DB	00H
	DB	030H
	DB	00H
	DB	00H
	DB	00H
	DB	061H
	DB	0f0H
	DB	0acH
	DB	00H
	DB	0ffH
	DB	0f0H
	DB	0b0H
	DB	00H
	DB	0ffH
	DB	0f0H
	DB	0acH
	DB	00H
	DB	0ffH
	DB	070H
	DB	070H
	DB	070H
	DB	0ffH
	DB	0b0H
	DB	0a4H
	DB	080H
	DB	0ffH
	DB	050H
	DB	040H
	DB	020H
	DB	0ffH
	DB	050H
	DB	044H
	DB	028H
	DB	0ffH
	DB	050H
	DB	044H
	DB	028H
	DB	0ffH
	DB	050H
	DB	044H
	DB	028H
	DB	0ffH
	DB	050H
	DB	044H
	DB	028H
	DB	0ffH
	DB	050H
	DB	044H
	DB	028H
	DB	0ffH
	DB	050H
	DB	044H
	DB	028H
	DB	0ffH
	DB	050H
	DB	044H
	DB	028H
	DB	0ffH
	DB	050H
	DB	044H
	DB	028H
	DB	0ffH
	DB	050H
	DB	044H
	DB	028H
	DB	0ffH
	DB	050H
	DB	044H
	DB	028H
	DB	0ffH
	DB	050H
	DB	044H
	DB	028H
	DB	0ffH
	DB	050H
	DB	044H
	DB	028H
	DB	0ffH
	DB	050H
	DB	040H
	DB	028H
	DB	0ffH
	DB	050H
	DB	044H
	DB	028H
	DB	0ffH
	DB	050H
	DB	044H
	DB	028H
	DB	0ffH
	DB	050H
	DB	044H
	DB	028H
	DB	0ffH
	DB	050H
	DB	044H
	DB	028H
	DB	0ffH
	DB	050H
	DB	044H
	DB	028H
	DB	0ffH
	DB	050H
	DB	044H
	DB	028H
	DB	0ffH
	DB	050H
	DB	044H
	DB	028H
	DB	0ffH
	DB	050H
	DB	040H
	DB	028H
	DB	0ffH
	DB	050H
	DB	044H
	DB	028H
	DB	0ffH
	DB	050H
	DB	044H
	DB	028H
	DB	0ffH
	DB	050H
	DB	040H
	DB	028H
	DB	0ffH
	DB	050H
	DB	044H
	DB	028H
	DB	0ffH
	DB	050H
	DB	044H
	DB	028H
	DB	0ffH
	DB	050H
	DB	040H
	DB	028H
	DB	0ffH
	DB	050H
	DB	044H
	DB	028H
	DB	0ffH
	DB	050H
	DB	044H
	DB	028H
	DB	0ffH
	DB	050H
	DB	040H
	DB	028H
	DB	0ffH
	DB	050H
	DB	044H
	DB	028H
	DB	0ffH
	DB	050H
	DB	044H
	DB	028H
	DB	0ffH
	DB	050H
	DB	040H
	DB	028H
	DB	0ffH
	DB	050H
	DB	044H
	DB	028H
	DB	0ffH
	DB	050H
	DB	044H
	DB	028H
	DB	0ffH
	DB	050H
	DB	044H
	DB	028H
	DB	0ffH
	DB	050H
	DB	040H
	DB	028H
	DB	0ffH
	DB	050H
	DB	044H
	DB	028H
	DB	0ffH
	DB	050H
	DB	044H
	DB	028H
	DB	0ffH
	DB	050H
	DB	040H
	DB	028H
	DB	0ffH
	DB	050H
	DB	044H
	DB	028H
	DB	0ffH
	DB	050H
	DB	044H
	DB	028H
	DB	0ffH
	DB	050H
	DB	040H
	DB	028H
	DB	0ffH
	DB	050H
	DB	044H
	DB	028H
	DB	0ffH
	DB	050H
	DB	044H
	DB	028H
	DB	0ffH
	DB	050H
	DB	044H
	DB	028H
	DB	0ffH
	DB	050H
	DB	040H
	DB	028H
	DB	0ffH
	DB	050H
	DB	044H
	DB	028H
	DB	0ffH
	DB	050H
	DB	044H
	DB	028H
	DB	0ffH
	DB	050H
	DB	044H
	DB	028H
	DB	0ffH
	DB	050H
	DB	044H
	DB	028H
	DB	0ffH
	DB	050H
	DB	044H
	DB	028H
	DB	0ffH
	DB	050H
	DB	040H
	DB	028H
	DB	0ffH
	DB	050H
	DB	044H
	DB	028H
	DB	0ffH
	DB	050H
	DB	044H
	DB	028H
	DB	0ffH
	DB	050H
	DB	044H
	DB	028H
	DB	0ffH
	DB	050H
	DB	044H
	DB	028H
	DB	0ffH
	DB	050H
	DB	040H
	DB	028H
	DB	0ffH
	DB	050H
	DB	044H
	DB	028H
	DB	0ffH
	DB	050H
	DB	044H
	DB	028H
	DB	0ffH
	DB	050H
	DB	044H
	DB	028H
	DB	0ffH
	DB	050H
	DB	040H
	DB	028H
	DB	0ffH
	DB	050H
	DB	044H
	DB	028H
	DB	0ffH
	DB	050H
	DB	044H
	DB	028H
	DB	0ffH
	DB	050H
	DB	040H
	DB	028H
	DB	0ffH
	DB	050H
	DB	044H
	DB	028H
	DB	0ffH
	DB	050H
	DB	044H
	DB	028H
	DB	0ffH
	DB	050H
	DB	040H
	DB	028H
	DB	0ffH
	DB	050H
	DB	044H
	DB	028H
	DB	0ffH
	DB	050H
	DB	044H
	DB	028H
	DB	0ffH
	DB	050H
	DB	044H
	DB	028H
	DB	0ffH
	DB	050H
	DB	044H
	DB	028H
	DB	0ffH
	DB	050H
	DB	040H
	DB	028H
	DB	0ffH
	DB	050H
	DB	044H
	DB	028H
	DB	0ffH
	DB	050H
	DB	044H
	DB	028H
	DB	0ffH
	DB	050H
	DB	044H
	DB	028H
	DB	0ffH
	DB	050H
	DB	040H
	DB	028H
	DB	0ffH
	DB	050H
	DB	044H
	DB	028H
	DB	0ffH
	DB	050H
	DB	044H
	DB	028H
	DB	0ffH
	DB	050H
	DB	040H
	DB	028H
	DB	0ffH
	DB	050H
	DB	044H
	DB	028H
	DB	0ffH
	DB	050H
	DB	044H
	DB	028H
	DB	0ffH
	DB	050H
	DB	040H
	DB	028H
	DB	0ffH
	DB	050H
	DB	044H
	DB	028H
	DB	0ffH
	DB	050H
	DB	044H
	DB	028H
	DB	0ffH
	DB	050H
	DB	040H
	DB	028H
	DB	0ffH
	DB	050H
	DB	044H
	DB	028H
	DB	0ffH
	DB	050H
	DB	044H
	DB	028H
	DB	0ffH
	DB	050H
	DB	044H
	DB	028H
	DB	0ffH
	DB	050H
	DB	040H
	DB	028H
	DB	0ffH
	DB	050H
	DB	044H
	DB	028H
	DB	0ffH
	DB	050H
	DB	044H
	DB	028H
	DB	0ffH
	DB	050H
	DB	044H
	DB	028H
	DB	0ffH
	DB	050H
	DB	044H
	DB	028H
	DB	0ffH
	DB	050H
	DB	044H
	DB	028H
	DB	0ffH
	DB	050H
	DB	044H
	DB	028H
	DB	0ffH
	DB	050H
	DB	044H
	DB	028H
	DB	0ffH
	DB	050H
	DB	044H
	DB	028H
	DB	0ffH
	DB	050H
	DB	044H
	DB	028H
	DB	0ffH
	DB	050H
	DB	044H
	DB	028H
	DB	0ffH
	DB	050H
	DB	044H
	DB	028H
	DB	0ffH
	DB	050H
	DB	044H
	DB	028H
	DB	0ffH
	DB	050H
	DB	044H
	DB	028H
	DB	0ffH
	DB	050H
	DB	040H
	DB	028H
	DB	0ffH
	DB	050H
	DB	044H
	DB	028H
	DB	0ffH
	DB	050H
	DB	044H
	DB	028H
	DB	0ffH
	DB	050H
	DB	044H
	DB	028H
	DB	0ffH
	DB	050H
	DB	044H
	DB	028H
	DB	0ffH
	DB	050H
	DB	044H
	DB	028H
	DB	0ffH
	DB	050H
	DB	040H
	DB	028H
	DB	0ffH
	DB	050H
	DB	044H
	DB	028H
	DB	0ffH
	DB	050H
	DB	044H
	DB	028H
	DB	0ffH
	DB	050H
	DB	044H
	DB	028H
	DB	0ffH
	DB	050H
	DB	044H
	DB	028H
	DB	0ffH
	DB	050H
	DB	040H
	DB	028H
	DB	0ffH
	DB	050H
	DB	044H
	DB	028H
	DB	0ffH
	DB	050H
	DB	044H
	DB	028H
	DB	0ffH
	DB	050H
	DB	044H
	DB	028H
	DB	0ffH
	DB	050H
	DB	044H
	DB	028H
	DB	0ffH
	DB	050H
	DB	044H
	DB	028H
	DB	0ffH
	DB	050H
	DB	044H
	DB	028H
	DB	0ffH
	DB	050H
	DB	044H
	DB	028H
	DB	0ffH
	DB	050H
	DB	044H
	DB	028H
	DB	0ffH
	DB	050H
	DB	044H
	DB	028H
	DB	0ffH
	DB	050H
	DB	044H
	DB	028H
	DB	0ffH
	DB	050H
	DB	044H
	DB	028H
	DB	0ffH
	DB	050H
	DB	044H
	DB	028H
	DB	0ffH
	DB	050H
	DB	044H
	DB	028H
	DB	0ffH
	DB	050H
	DB	040H
	DB	028H
	DB	0ffH
	DB	0b0H
	DB	0a4H
	DB	080H
	DB	0ffH
	DB	070H
	DB	070H
	DB	070H
	DB	0ffH
	DB	0f0H
	DB	0b0H
	DB	00H
	DB	0ffH
	DB	0f0H
	DB	0b0H
	DB	00H
	DB	0ffH
	DB	0f0H
	DB	0acH
	DB	00H
	DB	0ffH
	DB	00H
	DB	00H
	DB	00H
	DB	05dH
	DB	00H
	DB	00H
	DB	00H
	DB	030H
	DB	00H
	DB	00H
	DB	00H
	DB	010H
	DB	00H
	DB	00H
	DB	00H
	DB	010H
	DB	00H
	DB	00H
	DB	00H
	DB	030H
	DB	00H
	DB	00H
	DB	00H
	DB	061H
	DB	0f0H
	DB	0b0H
	DB	00H
	DB	0ffH
	DB	0f0H
	DB	0acH
	DB	00H
	DB	0ffH
	DB	0e8H
	DB	0b0H
	DB	00H
	DB	0ffH
	DB	070H
	DB	074H
	DB	070H
	DB	0ffH
	DB	0b0H
	DB	0a4H
	DB	088H
	DB	0ffH
	DB	050H
	DB	044H
	DB	028H
	DB	0ffH
	DB	050H
	DB	048H
	DB	028H
	DB	0ffH
	DB	050H
	DB	048H
	DB	028H
	DB	0ffH
	DB	050H
	DB	048H
	DB	028H
	DB	0ffH
	DB	050H
	DB	048H
	DB	028H
	DB	0ffH
	DB	050H
	DB	044H
	DB	028H
	DB	0ffH
	DB	050H
	DB	048H
	DB	028H
	DB	0ffH
	DB	050H
	DB	044H
	DB	028H
	DB	0ffH
	DB	050H
	DB	044H
	DB	028H
	DB	0ffH
	DB	050H
	DB	044H
	DB	028H
	DB	0ffH
	DB	050H
	DB	044H
	DB	028H
	DB	0ffH
	DB	050H
	DB	044H
	DB	028H
	DB	0ffH
	DB	050H
	DB	044H
	DB	028H
	DB	0ffH
	DB	050H
	DB	044H
	DB	028H
	DB	0ffH
	DB	050H
	DB	044H
	DB	028H
	DB	0ffH
	DB	050H
	DB	044H
	DB	028H
	DB	0ffH
	DB	050H
	DB	044H
	DB	028H
	DB	0ffH
	DB	050H
	DB	044H
	DB	028H
	DB	0ffH
	DB	050H
	DB	044H
	DB	028H
	DB	0ffH
	DB	050H
	DB	044H
	DB	028H
	DB	0ffH
	DB	050H
	DB	044H
	DB	028H
	DB	0ffH
	DB	050H
	DB	044H
	DB	028H
	DB	0ffH
	DB	050H
	DB	048H
	DB	028H
	DB	0ffH
	DB	050H
	DB	044H
	DB	028H
	DB	0ffH
	DB	050H
	DB	044H
	DB	028H
	DB	0ffH
	DB	050H
	DB	044H
	DB	028H
	DB	0ffH
	DB	050H
	DB	048H
	DB	028H
	DB	0ffH
	DB	050H
	DB	044H
	DB	028H
	DB	0ffH
	DB	050H
	DB	044H
	DB	028H
	DB	0ffH
	DB	050H
	DB	044H
	DB	028H
	DB	0ffH
	DB	050H
	DB	044H
	DB	028H
	DB	0ffH
	DB	050H
	DB	048H
	DB	028H
	DB	0ffH
	DB	050H
	DB	044H
	DB	028H
	DB	0ffH
	DB	050H
	DB	044H
	DB	028H
	DB	0ffH
	DB	050H
	DB	044H
	DB	028H
	DB	0ffH
	DB	050H
	DB	044H
	DB	028H
	DB	0ffH
	DB	050H
	DB	044H
	DB	028H
	DB	0ffH
	DB	050H
	DB	044H
	DB	028H
	DB	0ffH
	DB	050H
	DB	048H
	DB	028H
	DB	0ffH
	DB	050H
	DB	044H
	DB	028H
	DB	0ffH
	DB	050H
	DB	044H
	DB	028H
	DB	0ffH
	DB	050H
	DB	044H
	DB	028H
	DB	0ffH
	DB	050H
	DB	048H
	DB	028H
	DB	0ffH
	DB	050H
	DB	044H
	DB	028H
	DB	0ffH
	DB	050H
	DB	044H
	DB	028H
	DB	0ffH
	DB	050H
	DB	044H
	DB	028H
	DB	0ffH
	DB	050H
	DB	044H
	DB	028H
	DB	0ffH
	DB	050H
	DB	044H
	DB	028H
	DB	0ffH
	DB	050H
	DB	044H
	DB	028H
	DB	0ffH
	DB	050H
	DB	044H
	DB	028H
	DB	0ffH
	DB	050H
	DB	044H
	DB	028H
	DB	0ffH
	DB	050H
	DB	044H
	DB	028H
	DB	0ffH
	DB	050H
	DB	044H
	DB	028H
	DB	0ffH
	DB	050H
	DB	044H
	DB	028H
	DB	0ffH
	DB	050H
	DB	044H
	DB	028H
	DB	0ffH
	DB	050H
	DB	044H
	DB	028H
	DB	0ffH
	DB	050H
	DB	044H
	DB	028H
	DB	0ffH
	DB	050H
	DB	044H
	DB	028H
	DB	0ffH
	DB	050H
	DB	044H
	DB	028H
	DB	0ffH
	DB	050H
	DB	044H
	DB	028H
	DB	0ffH
	DB	050H
	DB	044H
	DB	028H
	DB	0ffH
	DB	050H
	DB	044H
	DB	028H
	DB	0ffH
	DB	050H
	DB	044H
	DB	028H
	DB	0ffH
	DB	050H
	DB	048H
	DB	028H
	DB	0ffH
	DB	050H
	DB	044H
	DB	028H
	DB	0ffH
	DB	050H
	DB	044H
	DB	028H
	DB	0ffH
	DB	050H
	DB	044H
	DB	028H
	DB	0ffH
	DB	050H
	DB	048H
	DB	028H
	DB	0ffH
	DB	050H
	DB	044H
	DB	028H
	DB	0ffH
	DB	050H
	DB	044H
	DB	028H
	DB	0ffH
	DB	050H
	DB	044H
	DB	028H
	DB	0ffH
	DB	050H
	DB	044H
	DB	028H
	DB	0ffH
	DB	050H
	DB	044H
	DB	028H
	DB	0ffH
	DB	050H
	DB	044H
	DB	028H
	DB	0ffH
	DB	050H
	DB	044H
	DB	028H
	DB	0ffH
	DB	050H
	DB	044H
	DB	028H
	DB	0ffH
	DB	050H
	DB	044H
	DB	028H
	DB	0ffH
	DB	050H
	DB	044H
	DB	028H
	DB	0ffH
	DB	050H
	DB	048H
	DB	028H
	DB	0ffH
	DB	050H
	DB	044H
	DB	028H
	DB	0ffH
	DB	050H
	DB	044H
	DB	028H
	DB	0ffH
	DB	050H
	DB	044H
	DB	028H
	DB	0ffH
	DB	050H
	DB	044H
	DB	028H
	DB	0ffH
	DB	050H
	DB	044H
	DB	028H
	DB	0ffH
	DB	050H
	DB	048H
	DB	028H
	DB	0ffH
	DB	050H
	DB	044H
	DB	028H
	DB	0ffH
	DB	050H
	DB	044H
	DB	028H
	DB	0ffH
	DB	050H
	DB	044H
	DB	028H
	DB	0ffH
	DB	050H
	DB	044H
	DB	028H
	DB	0ffH
	DB	050H
	DB	044H
	DB	028H
	DB	0ffH
	DB	050H
	DB	044H
	DB	028H
	DB	0ffH
	DB	050H
	DB	044H
	DB	028H
	DB	0ffH
	DB	050H
	DB	044H
	DB	028H
	DB	0ffH
	DB	050H
	DB	044H
	DB	028H
	DB	0ffH
	DB	050H
	DB	044H
	DB	028H
	DB	0ffH
	DB	050H
	DB	044H
	DB	028H
	DB	0ffH
	DB	050H
	DB	044H
	DB	028H
	DB	0ffH
	DB	050H
	DB	044H
	DB	028H
	DB	0ffH
	DB	050H
	DB	044H
	DB	028H
	DB	0ffH
	DB	050H
	DB	044H
	DB	028H
	DB	0ffH
	DB	050H
	DB	044H
	DB	028H
	DB	0ffH
	DB	050H
	DB	044H
	DB	028H
	DB	0ffH
	DB	050H
	DB	044H
	DB	028H
	DB	0ffH
	DB	050H
	DB	044H
	DB	028H
	DB	0ffH
	DB	050H
	DB	044H
	DB	028H
	DB	0ffH
	DB	050H
	DB	044H
	DB	028H
	DB	0ffH
	DB	050H
	DB	044H
	DB	028H
	DB	0ffH
	DB	050H
	DB	044H
	DB	028H
	DB	0ffH
	DB	050H
	DB	044H
	DB	028H
	DB	0ffH
	DB	050H
	DB	044H
	DB	028H
	DB	0ffH
	DB	050H
	DB	044H
	DB	028H
	DB	0ffH
	DB	050H
	DB	044H
	DB	028H
	DB	0ffH
	DB	050H
	DB	044H
	DB	028H
	DB	0ffH
	DB	050H
	DB	044H
	DB	028H
	DB	0ffH
	DB	050H
	DB	044H
	DB	028H
	DB	0ffH
	DB	050H
	DB	044H
	DB	028H
	DB	0ffH
	DB	050H
	DB	044H
	DB	028H
	DB	0ffH
	DB	050H
	DB	044H
	DB	028H
	DB	0ffH
	DB	050H
	DB	044H
	DB	028H
	DB	0ffH
	DB	050H
	DB	044H
	DB	028H
	DB	0ffH
	DB	050H
	DB	044H
	DB	028H
	DB	0ffH
	DB	050H
	DB	044H
	DB	028H
	DB	0ffH
	DB	050H
	DB	044H
	DB	028H
	DB	0ffH
	DB	050H
	DB	048H
	DB	028H
	DB	0ffH
	DB	050H
	DB	048H
	DB	028H
	DB	0ffH
	DB	050H
	DB	048H
	DB	028H
	DB	0ffH
	DB	050H
	DB	048H
	DB	028H
	DB	0ffH
	DB	050H
	DB	048H
	DB	028H
	DB	0ffH
	DB	050H
	DB	048H
	DB	028H
	DB	0ffH
	DB	050H
	DB	044H
	DB	028H
	DB	0ffH
	DB	0b0H
	DB	0a4H
	DB	088H
	DB	0ffH
	DB	070H
	DB	074H
	DB	070H
	DB	0ffH
	DB	0f0H
	DB	0acH
	DB	00H
	DB	0ffH
	DB	0f0H
	DB	0b0H
	DB	00H
	DB	0ffH
	DB	0e8H
	DB	0b0H
	DB	00H
	DB	0ffH
	DB	00H
	DB	00H
	DB	00H
	DB	061H
	DB	00H
	DB	00H
	DB	00H
	DB	030H
	DB	00H
	DB	00H
	DB	00H
	DB	010H
	DB	00H
	DB	00H
	DB	00H
	DB	010H
	DB	00H
	DB	00H
	DB	00H
	DB	030H
	DB	00H
	DB	00H
	DB	00H
	DB	05dH
	DB	0f0H
	DB	0acH
	DB	00H
	DB	0ffH
	DB	0f0H
	DB	0b0H
	DB	00H
	DB	0ffH
	DB	0f0H
	DB	0acH
	DB	00H
	DB	0ffH
	DB	070H
	DB	074H
	DB	078H
	DB	0ffH
	DB	0b0H
	DB	0a8H
	DB	090H
	DB	0ffH
	DB	050H
	DB	048H
	DB	028H
	DB	0ffH
	DB	050H
	DB	048H
	DB	030H
	DB	0ffH
	DB	058H
	DB	048H
	DB	028H
	DB	0ffH
	DB	058H
	DB	048H
	DB	030H
	DB	0ffH
	DB	050H
	DB	048H
	DB	028H
	DB	0ffH
	DB	050H
	DB	048H
	DB	028H
	DB	0ffH
	DB	050H
	DB	048H
	DB	030H
	DB	0ffH
	DB	050H
	DB	048H
	DB	030H
	DB	0ffH
	DB	050H
	DB	048H
	DB	028H
	DB	0ffH
	DB	050H
	DB	048H
	DB	028H
	DB	0ffH
	DB	050H
	DB	048H
	DB	028H
	DB	0ffH
	DB	050H
	DB	048H
	DB	030H
	DB	0ffH
	DB	058H
	DB	04cH
	DB	028H
	DB	0ffH
	DB	050H
	DB	048H
	DB	028H
	DB	0ffH
	DB	050H
	DB	048H
	DB	028H
	DB	0ffH
	DB	058H
	DB	048H
	DB	028H
	DB	0ffH
	DB	050H
	DB	048H
	DB	028H
	DB	0ffH
	DB	050H
	DB	048H
	DB	028H
	DB	0ffH
	DB	050H
	DB	048H
	DB	028H
	DB	0ffH
	DB	050H
	DB	048H
	DB	028H
	DB	0ffH
	DB	058H
	DB	048H
	DB	028H
	DB	0ffH
	DB	050H
	DB	048H
	DB	028H
	DB	0ffH
	DB	058H
	DB	048H
	DB	028H
	DB	0ffH
	DB	050H
	DB	048H
	DB	028H
	DB	0ffH
	DB	050H
	DB	048H
	DB	028H
	DB	0ffH
	DB	058H
	DB	048H
	DB	028H
	DB	0ffH
	DB	050H
	DB	048H
	DB	028H
	DB	0ffH
	DB	050H
	DB	048H
	DB	030H
	DB	0ffH
	DB	050H
	DB	048H
	DB	028H
	DB	0ffH
	DB	050H
	DB	048H
	DB	028H
	DB	0ffH
	DB	050H
	DB	048H
	DB	028H
	DB	0ffH
	DB	050H
	DB	048H
	DB	030H
	DB	0ffH
	DB	050H
	DB	048H
	DB	028H
	DB	0ffH
	DB	050H
	DB	048H
	DB	028H
	DB	0ffH
	DB	058H
	DB	04cH
	DB	028H
	DB	0ffH
	DB	050H
	DB	048H
	DB	028H
	DB	0ffH
	DB	050H
	DB	048H
	DB	028H
	DB	0ffH
	DB	058H
	DB	048H
	DB	028H
	DB	0ffH
	DB	050H
	DB	048H
	DB	028H
	DB	0ffH
	DB	050H
	DB	048H
	DB	028H
	DB	0ffH
	DB	058H
	DB	048H
	DB	028H
	DB	0ffH
	DB	050H
	DB	048H
	DB	030H
	DB	0ffH
	DB	050H
	DB	048H
	DB	028H
	DB	0ffH
	DB	058H
	DB	048H
	DB	028H
	DB	0ffH
	DB	050H
	DB	048H
	DB	028H
	DB	0ffH
	DB	050H
	DB	048H
	DB	028H
	DB	0ffH
	DB	050H
	DB	04cH
	DB	030H
	DB	0ffH
	DB	050H
	DB	048H
	DB	028H
	DB	0ffH
	DB	050H
	DB	048H
	DB	028H
	DB	0ffH
	DB	050H
	DB	048H
	DB	028H
	DB	0ffH
	DB	050H
	DB	048H
	DB	028H
	DB	0ffH
	DB	050H
	DB	048H
	DB	028H
	DB	0ffH
	DB	050H
	DB	04cH
	DB	028H
	DB	0ffH
	DB	050H
	DB	048H
	DB	028H
	DB	0ffH
	DB	058H
	DB	048H
	DB	028H
	DB	0ffH
	DB	050H
	DB	048H
	DB	028H
	DB	0ffH
	DB	050H
	DB	048H
	DB	030H
	DB	0ffH
	DB	058H
	DB	04cH
	DB	028H
	DB	0ffH
	DB	050H
	DB	048H
	DB	028H
	DB	0ffH
	DB	050H
	DB	048H
	DB	028H
	DB	0ffH
	DB	058H
	DB	04cH
	DB	028H
	DB	0ffH
	DB	050H
	DB	048H
	DB	028H
	DB	0ffH
	DB	050H
	DB	048H
	DB	028H
	DB	0ffH
	DB	050H
	DB	048H
	DB	028H
	DB	0ffH
	DB	050H
	DB	048H
	DB	028H
	DB	0ffH
	DB	050H
	DB	048H
	DB	028H
	DB	0ffH
	DB	050H
	DB	048H
	DB	028H
	DB	0ffH
	DB	050H
	DB	048H
	DB	028H
	DB	0ffH
	DB	050H
	DB	048H
	DB	028H
	DB	0ffH
	DB	050H
	DB	048H
	DB	028H
	DB	0ffH
	DB	050H
	DB	048H
	DB	028H
	DB	0ffH
	DB	050H
	DB	048H
	DB	028H
	DB	0ffH
	DB	058H
	DB	04cH
	DB	028H
	DB	0ffH
	DB	050H
	DB	048H
	DB	030H
	DB	0ffH
	DB	050H
	DB	048H
	DB	028H
	DB	0ffH
	DB	058H
	DB	04cH
	DB	028H
	DB	0ffH
	DB	050H
	DB	048H
	DB	028H
	DB	0ffH
	DB	050H
	DB	048H
	DB	028H
	DB	0ffH
	DB	058H
	DB	048H
	DB	028H
	DB	0ffH
	DB	050H
	DB	048H
	DB	028H
	DB	0ffH
	DB	050H
	DB	048H
	DB	028H
	DB	0ffH
	DB	058H
	DB	04cH
	DB	028H
	DB	0ffH
	DB	050H
	DB	048H
	DB	030H
	DB	0ffH
	DB	050H
	DB	048H
	DB	028H
	DB	0ffH
	DB	050H
	DB	048H
	DB	028H
	DB	0ffH
	DB	050H
	DB	048H
	DB	028H
	DB	0ffH
	DB	050H
	DB	048H
	DB	028H
	DB	0ffH
	DB	050H
	DB	04cH
	DB	028H
	DB	0ffH
	DB	050H
	DB	048H
	DB	028H
	DB	0ffH
	DB	050H
	DB	048H
	DB	028H
	DB	0ffH
	DB	050H
	DB	04cH
	DB	028H
	DB	0ffH
	DB	058H
	DB	048H
	DB	028H
	DB	0ffH
	DB	050H
	DB	048H
	DB	028H
	DB	0ffH
	DB	050H
	DB	048H
	DB	028H
	DB	0ffH
	DB	050H
	DB	048H
	DB	030H
	DB	0ffH
	DB	050H
	DB	048H
	DB	028H
	DB	0ffH
	DB	050H
	DB	048H
	DB	028H
	DB	0ffH
	DB	050H
	DB	048H
	DB	028H
	DB	0ffH
	DB	050H
	DB	048H
	DB	028H
	DB	0ffH
	DB	050H
	DB	048H
	DB	028H
	DB	0ffH
	DB	050H
	DB	048H
	DB	028H
	DB	0ffH
	DB	050H
	DB	048H
	DB	028H
	DB	0ffH
	DB	050H
	DB	048H
	DB	028H
	DB	0ffH
	DB	050H
	DB	048H
	DB	028H
	DB	0ffH
	DB	050H
	DB	04cH
	DB	028H
	DB	0ffH
	DB	050H
	DB	048H
	DB	030H
	DB	0ffH
	DB	050H
	DB	048H
	DB	028H
	DB	0ffH
	DB	050H
	DB	048H
	DB	028H
	DB	0ffH
	DB	050H
	DB	048H
	DB	028H
	DB	0ffH
	DB	050H
	DB	048H
	DB	028H
	DB	0ffH
	DB	058H
	DB	04cH
	DB	028H
	DB	0ffH
	DB	050H
	DB	048H
	DB	028H
	DB	0ffH
	DB	050H
	DB	048H
	DB	030H
	DB	0ffH
	DB	050H
	DB	048H
	DB	028H
	DB	0ffH
	DB	050H
	DB	04cH
	DB	028H
	DB	0ffH
	DB	050H
	DB	048H
	DB	028H
	DB	0ffH
	DB	058H
	DB	048H
	DB	028H
	DB	0ffH
	DB	050H
	DB	048H
	DB	028H
	DB	0ffH
	DB	050H
	DB	048H
	DB	028H
	DB	0ffH
	DB	050H
	DB	048H
	DB	028H
	DB	0ffH
	DB	050H
	DB	048H
	DB	028H
	DB	0ffH
	DB	050H
	DB	048H
	DB	028H
	DB	0ffH
	DB	058H
	DB	048H
	DB	028H
	DB	0ffH
	DB	050H
	DB	048H
	DB	028H
	DB	0ffH
	DB	050H
	DB	048H
	DB	030H
	DB	0ffH
	DB	058H
	DB	048H
	DB	028H
	DB	0ffH
	DB	050H
	DB	048H
	DB	028H
	DB	0ffH
	DB	050H
	DB	048H
	DB	030H
	DB	0ffH
	DB	058H
	DB	048H
	DB	030H
	DB	0ffH
	DB	050H
	DB	048H
	DB	028H
	DB	0ffH
	DB	0b0H
	DB	0a8H
	DB	088H
	DB	0ffH
	DB	070H
	DB	074H
	DB	078H
	DB	0ffH
	DB	0f0H
	DB	0acH
	DB	00H
	DB	0ffH
	DB	0f0H
	DB	0acH
	DB	00H
	DB	0ffH
	DB	0f0H
	DB	0b0H
	DB	00H
	DB	0ffH
	DB	00H
	DB	00H
	DB	00H
	DB	061H
	DB	00H
	DB	00H
	DB	00H
	DB	030H
	DB	00H
	DB	00H
	DB	00H
	DB	010H
	DB	00H
	DB	00H
	DB	00H
	DB	010H
	DB	00H
	DB	00H
	DB	00H
	DB	030H
	DB	00H
	DB	00H
	DB	00H
	DB	061H
	DB	0f0H
	DB	0acH
	DB	00H
	DB	0ffH
	DB	0f0H
	DB	0b0H
	DB	00H
	DB	0ffH
	DB	0f0H
	DB	0b0H
	DB	00H
	DB	0ffH
	DB	078H
	DB	078H
	DB	078H
	DB	0ffH
	DB	0b0H
	DB	0a8H
	DB	090H
	DB	0ffH
	DB	050H
	DB	048H
	DB	028H
	DB	0ffH
	DB	058H
	DB	04cH
	DB	030H
	DB	0ffH
	DB	058H
	DB	04cH
	DB	030H
	DB	0ffH
	DB	058H
	DB	04cH
	DB	030H
	DB	0ffH
	DB	058H
	DB	04cH
	DB	030H
	DB	0ffH
	DB	058H
	DB	04cH
	DB	030H
	DB	0ffH
	DB	058H
	DB	04cH
	DB	030H
	DB	0ffH
	DB	058H
	DB	04cH
	DB	030H
	DB	0ffH
	DB	058H
	DB	04cH
	DB	030H
	DB	0ffH
	DB	058H
	DB	04cH
	DB	030H
	DB	0ffH
	DB	058H
	DB	04cH
	DB	030H
	DB	0ffH
	DB	058H
	DB	04cH
	DB	030H
	DB	0ffH
	DB	058H
	DB	04cH
	DB	030H
	DB	0ffH
	DB	058H
	DB	04cH
	DB	030H
	DB	0ffH
	DB	058H
	DB	04cH
	DB	030H
	DB	0ffH
	DB	058H
	DB	04cH
	DB	030H
	DB	0ffH
	DB	058H
	DB	04cH
	DB	030H
	DB	0ffH
	DB	058H
	DB	04cH
	DB	030H
	DB	0ffH
	DB	058H
	DB	04cH
	DB	030H
	DB	0ffH
	DB	058H
	DB	04cH
	DB	030H
	DB	0ffH
	DB	058H
	DB	04cH
	DB	030H
	DB	0ffH
	DB	058H
	DB	04cH
	DB	030H
	DB	0ffH
	DB	058H
	DB	04cH
	DB	030H
	DB	0ffH
	DB	058H
	DB	04cH
	DB	030H
	DB	0ffH
	DB	058H
	DB	04cH
	DB	030H
	DB	0ffH
	DB	058H
	DB	04cH
	DB	030H
	DB	0ffH
	DB	058H
	DB	04cH
	DB	030H
	DB	0ffH
	DB	058H
	DB	04cH
	DB	030H
	DB	0ffH
	DB	058H
	DB	04cH
	DB	030H
	DB	0ffH
	DB	058H
	DB	04cH
	DB	030H
	DB	0ffH
	DB	058H
	DB	04cH
	DB	030H
	DB	0ffH
	DB	058H
	DB	04cH
	DB	030H
	DB	0ffH
	DB	058H
	DB	04cH
	DB	030H
	DB	0ffH
	DB	058H
	DB	04cH
	DB	030H
	DB	0ffH
	DB	058H
	DB	04cH
	DB	030H
	DB	0ffH
	DB	058H
	DB	04cH
	DB	030H
	DB	0ffH
	DB	058H
	DB	04cH
	DB	030H
	DB	0ffH
	DB	058H
	DB	04cH
	DB	030H
	DB	0ffH
	DB	058H
	DB	04cH
	DB	030H
	DB	0ffH
	DB	058H
	DB	04cH
	DB	030H
	DB	0ffH
	DB	058H
	DB	04cH
	DB	030H
	DB	0ffH
	DB	058H
	DB	04cH
	DB	030H
	DB	0ffH
	DB	058H
	DB	04cH
	DB	030H
	DB	0ffH
	DB	058H
	DB	04cH
	DB	030H
	DB	0ffH
	DB	058H
	DB	04cH
	DB	030H
	DB	0ffH
	DB	058H
	DB	04cH
	DB	030H
	DB	0ffH
	DB	058H
	DB	04cH
	DB	030H
	DB	0ffH
	DB	058H
	DB	04cH
	DB	030H
	DB	0ffH
	DB	058H
	DB	04cH
	DB	030H
	DB	0ffH
	DB	058H
	DB	04cH
	DB	030H
	DB	0ffH
	DB	058H
	DB	04cH
	DB	030H
	DB	0ffH
	DB	058H
	DB	04cH
	DB	030H
	DB	0ffH
	DB	058H
	DB	04cH
	DB	030H
	DB	0ffH
	DB	058H
	DB	04cH
	DB	030H
	DB	0ffH
	DB	058H
	DB	04cH
	DB	030H
	DB	0ffH
	DB	058H
	DB	04cH
	DB	030H
	DB	0ffH
	DB	058H
	DB	04cH
	DB	030H
	DB	0ffH
	DB	058H
	DB	04cH
	DB	030H
	DB	0ffH
	DB	058H
	DB	04cH
	DB	030H
	DB	0ffH
	DB	058H
	DB	04cH
	DB	030H
	DB	0ffH
	DB	058H
	DB	04cH
	DB	030H
	DB	0ffH
	DB	058H
	DB	04cH
	DB	030H
	DB	0ffH
	DB	058H
	DB	04cH
	DB	030H
	DB	0ffH
	DB	058H
	DB	04cH
	DB	030H
	DB	0ffH
	DB	058H
	DB	04cH
	DB	030H
	DB	0ffH
	DB	058H
	DB	04cH
	DB	030H
	DB	0ffH
	DB	058H
	DB	04cH
	DB	030H
	DB	0ffH
	DB	058H
	DB	04cH
	DB	030H
	DB	0ffH
	DB	058H
	DB	04cH
	DB	030H
	DB	0ffH
	DB	058H
	DB	04cH
	DB	030H
	DB	0ffH
	DB	058H
	DB	04cH
	DB	030H
	DB	0ffH
	DB	058H
	DB	04cH
	DB	030H
	DB	0ffH
	DB	058H
	DB	04cH
	DB	030H
	DB	0ffH
	DB	058H
	DB	04cH
	DB	030H
	DB	0ffH
	DB	058H
	DB	04cH
	DB	030H
	DB	0ffH
	DB	058H
	DB	04cH
	DB	030H
	DB	0ffH
	DB	058H
	DB	04cH
	DB	030H
	DB	0ffH
	DB	058H
	DB	04cH
	DB	030H
	DB	0ffH
	DB	058H
	DB	04cH
	DB	030H
	DB	0ffH
	DB	058H
	DB	04cH
	DB	030H
	DB	0ffH
	DB	058H
	DB	04cH
	DB	030H
	DB	0ffH
	DB	058H
	DB	04cH
	DB	030H
	DB	0ffH
	DB	058H
	DB	04cH
	DB	030H
	DB	0ffH
	DB	058H
	DB	04cH
	DB	030H
	DB	0ffH
	DB	058H
	DB	04cH
	DB	030H
	DB	0ffH
	DB	058H
	DB	04cH
	DB	030H
	DB	0ffH
	DB	058H
	DB	04cH
	DB	030H
	DB	0ffH
	DB	058H
	DB	04cH
	DB	030H
	DB	0ffH
	DB	058H
	DB	04cH
	DB	030H
	DB	0ffH
	DB	058H
	DB	04cH
	DB	030H
	DB	0ffH
	DB	058H
	DB	04cH
	DB	030H
	DB	0ffH
	DB	058H
	DB	04cH
	DB	030H
	DB	0ffH
	DB	058H
	DB	04cH
	DB	030H
	DB	0ffH
	DB	058H
	DB	04cH
	DB	030H
	DB	0ffH
	DB	058H
	DB	04cH
	DB	030H
	DB	0ffH
	DB	058H
	DB	04cH
	DB	030H
	DB	0ffH
	DB	058H
	DB	04cH
	DB	030H
	DB	0ffH
	DB	058H
	DB	04cH
	DB	030H
	DB	0ffH
	DB	058H
	DB	04cH
	DB	030H
	DB	0ffH
	DB	058H
	DB	04cH
	DB	030H
	DB	0ffH
	DB	058H
	DB	04cH
	DB	030H
	DB	0ffH
	DB	058H
	DB	04cH
	DB	030H
	DB	0ffH
	DB	058H
	DB	04cH
	DB	030H
	DB	0ffH
	DB	058H
	DB	04cH
	DB	030H
	DB	0ffH
	DB	058H
	DB	04cH
	DB	030H
	DB	0ffH
	DB	058H
	DB	04cH
	DB	030H
	DB	0ffH
	DB	058H
	DB	04cH
	DB	030H
	DB	0ffH
	DB	058H
	DB	04cH
	DB	030H
	DB	0ffH
	DB	058H
	DB	04cH
	DB	030H
	DB	0ffH
	DB	058H
	DB	04cH
	DB	030H
	DB	0ffH
	DB	058H
	DB	04cH
	DB	030H
	DB	0ffH
	DB	058H
	DB	04cH
	DB	030H
	DB	0ffH
	DB	058H
	DB	04cH
	DB	030H
	DB	0ffH
	DB	058H
	DB	04cH
	DB	030H
	DB	0ffH
	DB	058H
	DB	04cH
	DB	030H
	DB	0ffH
	DB	058H
	DB	04cH
	DB	030H
	DB	0ffH
	DB	058H
	DB	04cH
	DB	030H
	DB	0ffH
	DB	058H
	DB	04cH
	DB	030H
	DB	0ffH
	DB	058H
	DB	04cH
	DB	030H
	DB	0ffH
	DB	058H
	DB	04cH
	DB	030H
	DB	0ffH
	DB	058H
	DB	04cH
	DB	030H
	DB	0ffH
	DB	058H
	DB	04cH
	DB	030H
	DB	0ffH
	DB	058H
	DB	04cH
	DB	030H
	DB	0ffH
	DB	058H
	DB	04cH
	DB	030H
	DB	0ffH
	DB	058H
	DB	04cH
	DB	030H
	DB	0ffH
	DB	058H
	DB	04cH
	DB	030H
	DB	0ffH
	DB	058H
	DB	04cH
	DB	030H
	DB	0ffH
	DB	058H
	DB	04cH
	DB	030H
	DB	0ffH
	DB	058H
	DB	04cH
	DB	030H
	DB	0ffH
	DB	050H
	DB	048H
	DB	028H
	DB	0ffH
	DB	0b0H
	DB	0a8H
	DB	090H
	DB	0ffH
	DB	078H
	DB	078H
	DB	078H
	DB	0ffH
	DB	0f0H
	DB	0b0H
	DB	00H
	DB	0ffH
	DB	0f0H
	DB	0acH
	DB	00H
	DB	0ffH
	DB	0f0H
	DB	0acH
	DB	00H
	DB	0ffH
	DB	00H
	DB	00H
	DB	00H
	DB	061H
	DB	00H
	DB	00H
	DB	00H
	DB	030H
	DB	00H
	DB	00H
	DB	00H
	DB	010H
	DB	00H
	DB	00H
	DB	00H
	DB	010H
	DB	00H
	DB	00H
	DB	00H
	DB	030H
	DB	00H
	DB	00H
	DB	00H
	DB	061H
	DB	0f0H
	DB	0b0H
	DB	00H
	DB	0ffH
	DB	0f0H
	DB	0acH
	DB	00H
	DB	0ffH
	DB	0f0H
	DB	0acH
	DB	00H
	DB	0ffH
	DB	078H
	DB	078H
	DB	078H
	DB	0ffH
	DB	0b0H
	DB	0a8H
	DB	090H
	DB	0ffH
	DB	050H
	DB	048H
	DB	028H
	DB	0ffH
	DB	050H
	DB	048H
	DB	030H
	DB	0ffH
	DB	050H
	DB	048H
	DB	030H
	DB	0ffH
	DB	050H
	DB	04cH
	DB	028H
	DB	0ffH
	DB	050H
	DB	048H
	DB	030H
	DB	0ffH
	DB	058H
	DB	04cH
	DB	030H
	DB	0ffH
	DB	058H
	DB	04cH
	DB	028H
	DB	0ffH
	DB	050H
	DB	048H
	DB	028H
	DB	0ffH
	DB	058H
	DB	048H
	DB	030H
	DB	0ffH
	DB	058H
	DB	04cH
	DB	030H
	DB	0ffH
	DB	050H
	DB	04cH
	DB	028H
	DB	0ffH
	DB	050H
	DB	048H
	DB	030H
	DB	0ffH
	DB	050H
	DB	048H
	DB	030H
	DB	0ffH
	DB	050H
	DB	048H
	DB	028H
	DB	0ffH
	DB	050H
	DB	048H
	DB	030H
	DB	0ffH
	DB	050H
	DB	048H
	DB	030H
	DB	0ffH
	DB	058H
	DB	04cH
	DB	030H
	DB	0ffH
	DB	050H
	DB	048H
	DB	030H
	DB	0ffH
	DB	050H
	DB	048H
	DB	030H
	DB	0ffH
	DB	058H
	DB	04cH
	DB	030H
	DB	0ffH
	DB	050H
	DB	04cH
	DB	030H
	DB	0ffH
	DB	050H
	DB	048H
	DB	030H
	DB	0ffH
	DB	050H
	DB	048H
	DB	030H
	DB	0ffH
	DB	050H
	DB	04cH
	DB	030H
	DB	0ffH
	DB	050H
	DB	048H
	DB	030H
	DB	0ffH
	DB	050H
	DB	04cH
	DB	030H
	DB	0ffH
	DB	058H
	DB	048H
	DB	028H
	DB	0ffH
	DB	050H
	DB	048H
	DB	030H
	DB	0ffH
	DB	050H
	DB	04cH
	DB	030H
	DB	0ffH
	DB	058H
	DB	04cH
	DB	028H
	DB	0ffH
	DB	050H
	DB	048H
	DB	030H
	DB	0ffH
	DB	058H
	DB	04cH
	DB	030H
	DB	0ffH
	DB	050H
	DB	048H
	DB	028H
	DB	0ffH
	DB	050H
	DB	04cH
	DB	030H
	DB	0ffH
	DB	050H
	DB	048H
	DB	030H
	DB	0ffH
	DB	050H
	DB	048H
	DB	030H
	DB	0ffH
	DB	058H
	DB	048H
	DB	030H
	DB	0ffH
	DB	050H
	DB	04cH
	DB	030H
	DB	0ffH
	DB	050H
	DB	04cH
	DB	030H
	DB	0ffH
	DB	050H
	DB	04cH
	DB	030H
	DB	0ffH
	DB	050H
	DB	048H
	DB	028H
	DB	0ffH
	DB	058H
	DB	048H
	DB	030H
	DB	0ffH
	DB	050H
	DB	048H
	DB	030H
	DB	0ffH
	DB	050H
	DB	04cH
	DB	030H
	DB	0ffH
	DB	050H
	DB	048H
	DB	030H
	DB	0ffH
	DB	058H
	DB	048H
	DB	028H
	DB	0ffH
	DB	058H
	DB	048H
	DB	030H
	DB	0ffH
	DB	050H
	DB	048H
	DB	030H
	DB	0ffH
	DB	058H
	DB	048H
	DB	030H
	DB	0ffH
	DB	058H
	DB	04cH
	DB	030H
	DB	0ffH
	DB	050H
	DB	048H
	DB	030H
	DB	0ffH
	DB	058H
	DB	04cH
	DB	030H
	DB	0ffH
	DB	050H
	DB	048H
	DB	030H
	DB	0ffH
	DB	050H
	DB	048H
	DB	030H
	DB	0ffH
	DB	050H
	DB	048H
	DB	030H
	DB	0ffH
	DB	058H
	DB	04cH
	DB	028H
	DB	0ffH
	DB	050H
	DB	048H
	DB	030H
	DB	0ffH
	DB	050H
	DB	048H
	DB	030H
	DB	0ffH
	DB	050H
	DB	04cH
	DB	028H
	DB	0ffH
	DB	050H
	DB	048H
	DB	030H
	DB	0ffH
	DB	050H
	DB	048H
	DB	030H
	DB	0ffH
	DB	058H
	DB	048H
	DB	030H
	DB	0ffH
	DB	050H
	DB	048H
	DB	030H
	DB	0ffH
	DB	058H
	DB	04cH
	DB	030H
	DB	0ffH
	DB	058H
	DB	048H
	DB	030H
	DB	0ffH
	DB	050H
	DB	048H
	DB	030H
	DB	0ffH
	DB	058H
	DB	048H
	DB	030H
	DB	0ffH
	DB	058H
	DB	04cH
	DB	030H
	DB	0ffH
	DB	050H
	DB	04cH
	DB	030H
	DB	0ffH
	DB	058H
	DB	04cH
	DB	030H
	DB	0ffH
	DB	050H
	DB	048H
	DB	030H
	DB	0ffH
	DB	050H
	DB	04cH
	DB	030H
	DB	0ffH
	DB	058H
	DB	048H
	DB	028H
	DB	0ffH
	DB	050H
	DB	048H
	DB	030H
	DB	0ffH
	DB	050H
	DB	048H
	DB	030H
	DB	0ffH
	DB	050H
	DB	048H
	DB	028H
	DB	0ffH
	DB	050H
	DB	048H
	DB	030H
	DB	0ffH
	DB	058H
	DB	04cH
	DB	030H
	DB	0ffH
	DB	050H
	DB	04cH
	DB	030H
	DB	0ffH
	DB	050H
	DB	048H
	DB	030H
	DB	0ffH
	DB	050H
	DB	048H
	DB	030H
	DB	0ffH
	DB	050H
	DB	04cH
	DB	028H
	DB	0ffH
	DB	058H
	DB	048H
	DB	030H
	DB	0ffH
	DB	050H
	DB	048H
	DB	030H
	DB	0ffH
	DB	058H
	DB	048H
	DB	028H
	DB	0ffH
	DB	058H
	DB	04cH
	DB	030H
	DB	0ffH
	DB	050H
	DB	04cH
	DB	030H
	DB	0ffH
	DB	058H
	DB	048H
	DB	030H
	DB	0ffH
	DB	058H
	DB	048H
	DB	030H
	DB	0ffH
	DB	050H
	DB	048H
	DB	030H
	DB	0ffH
	DB	050H
	DB	04cH
	DB	030H
	DB	0ffH
	DB	050H
	DB	04cH
	DB	030H
	DB	0ffH
	DB	058H
	DB	048H
	DB	030H
	DB	0ffH
	DB	050H
	DB	048H
	DB	028H
	DB	0ffH
	DB	050H
	DB	04cH
	DB	030H
	DB	0ffH
	DB	058H
	DB	048H
	DB	030H
	DB	0ffH
	DB	058H
	DB	04cH
	DB	028H
	DB	0ffH
	DB	050H
	DB	048H
	DB	030H
	DB	0ffH
	DB	058H
	DB	048H
	DB	030H
	DB	0ffH
	DB	050H
	DB	048H
	DB	030H
	DB	0ffH
	DB	058H
	DB	048H
	DB	030H
	DB	0ffH
	DB	050H
	DB	04cH
	DB	030H
	DB	0ffH
	DB	058H
	DB	04cH
	DB	030H
	DB	0ffH
	DB	050H
	DB	048H
	DB	030H
	DB	0ffH
	DB	058H
	DB	048H
	DB	028H
	DB	0ffH
	DB	058H
	DB	048H
	DB	030H
	DB	0ffH
	DB	050H
	DB	048H
	DB	030H
	DB	0ffH
	DB	058H
	DB	04cH
	DB	030H
	DB	0ffH
	DB	050H
	DB	04cH
	DB	030H
	DB	0ffH
	DB	050H
	DB	048H
	DB	030H
	DB	0ffH
	DB	050H
	DB	04cH
	DB	030H
	DB	0ffH
	DB	058H
	DB	048H
	DB	030H
	DB	0ffH
	DB	050H
	DB	04cH
	DB	028H
	DB	0ffH
	DB	058H
	DB	04cH
	DB	030H
	DB	0ffH
	DB	050H
	DB	048H
	DB	030H
	DB	0ffH
	DB	050H
	DB	048H
	DB	030H
	DB	0ffH
	DB	050H
	DB	04cH
	DB	030H
	DB	0ffH
	DB	050H
	DB	048H
	DB	030H
	DB	0ffH
	DB	058H
	DB	04cH
	DB	030H
	DB	0ffH
	DB	050H
	DB	048H
	DB	030H
	DB	0ffH
	DB	050H
	DB	048H
	DB	030H
	DB	0ffH
	DB	058H
	DB	048H
	DB	030H
	DB	0ffH
	DB	050H
	DB	048H
	DB	030H
	DB	0ffH
	DB	050H
	DB	04cH
	DB	030H
	DB	0ffH
	DB	050H
	DB	048H
	DB	028H
	DB	0ffH
	DB	050H
	DB	048H
	DB	030H
	DB	0ffH
	DB	050H
	DB	048H
	DB	030H
	DB	0ffH
	DB	058H
	DB	04cH
	DB	028H
	DB	0ffH
	DB	050H
	DB	048H
	DB	030H
	DB	0ffH
	DB	050H
	DB	048H
	DB	028H
	DB	0ffH
	DB	0b0H
	DB	0a8H
	DB	090H
	DB	0ffH
	DB	078H
	DB	078H
	DB	078H
	DB	0ffH
	DB	0f0H
	DB	0b0H
	DB	00H
	DB	0ffH
	DB	0f0H
	DB	0b0H
	DB	00H
	DB	0ffH
	DB	0f0H
	DB	0acH
	DB	00H
	DB	0ffH
	DB	00H
	DB	00H
	DB	00H
	DB	061H
	DB	00H
	DB	00H
	DB	00H
	DB	030H
	DB	00H
	DB	00H
	DB	00H
	DB	010H
	DB	00H
	DB	00H
	DB	00H
	DB	010H
	DB	00H
	DB	00H
	DB	00H
	DB	030H
	DB	00H
	DB	00H
	DB	00H
	DB	061H
	DB	0f0H
	DB	0acH
	DB	00H
	DB	0ffH
	DB	0f0H
	DB	0b0H
	DB	00H
	DB	0ffH
	DB	0f0H
	DB	0acH
	DB	00H
	DB	0ffH
	DB	078H
	DB	078H
	DB	078H
	DB	0ffH
	DB	0b0H
	DB	0acH
	DB	098H
	DB	0ffH
	DB	050H
	DB	044H
	DB	028H
	DB	0ffH
	DB	058H
	DB	048H
	DB	030H
	DB	0ffH
	DB	050H
	DB	048H
	DB	030H
	DB	0ffH
	DB	050H
	DB	048H
	DB	028H
	DB	0ffH
	DB	050H
	DB	048H
	DB	028H
	DB	0ffH
	DB	050H
	DB	048H
	DB	028H
	DB	0ffH
	DB	050H
	DB	048H
	DB	030H
	DB	0ffH
	DB	050H
	DB	048H
	DB	028H
	DB	0ffH
	DB	050H
	DB	048H
	DB	028H
	DB	0ffH
	DB	050H
	DB	048H
	DB	030H
	DB	0ffH
	DB	050H
	DB	048H
	DB	028H
	DB	0ffH
	DB	050H
	DB	048H
	DB	028H
	DB	0ffH
	DB	050H
	DB	048H
	DB	028H
	DB	0ffH
	DB	058H
	DB	048H
	DB	028H
	DB	0ffH
	DB	050H
	DB	048H
	DB	028H
	DB	0ffH
	DB	050H
	DB	048H
	DB	028H
	DB	0ffH
	DB	050H
	DB	048H
	DB	028H
	DB	0ffH
	DB	050H
	DB	048H
	DB	028H
	DB	0ffH
	DB	050H
	DB	048H
	DB	028H
	DB	0ffH
	DB	050H
	DB	048H
	DB	028H
	DB	0ffH
	DB	050H
	DB	048H
	DB	028H
	DB	0ffH
	DB	050H
	DB	048H
	DB	028H
	DB	0ffH
	DB	050H
	DB	048H
	DB	028H
	DB	0ffH
	DB	050H
	DB	048H
	DB	028H
	DB	0ffH
	DB	050H
	DB	048H
	DB	028H
	DB	0ffH
	DB	050H
	DB	048H
	DB	028H
	DB	0ffH
	DB	050H
	DB	048H
	DB	028H
	DB	0ffH
	DB	050H
	DB	048H
	DB	028H
	DB	0ffH
	DB	050H
	DB	048H
	DB	028H
	DB	0ffH
	DB	050H
	DB	048H
	DB	028H
	DB	0ffH
	DB	050H
	DB	048H
	DB	028H
	DB	0ffH
	DB	050H
	DB	048H
	DB	028H
	DB	0ffH
	DB	050H
	DB	048H
	DB	028H
	DB	0ffH
	DB	050H
	DB	048H
	DB	028H
	DB	0ffH
	DB	050H
	DB	048H
	DB	028H
	DB	0ffH
	DB	050H
	DB	048H
	DB	028H
	DB	0ffH
	DB	050H
	DB	048H
	DB	028H
	DB	0ffH
	DB	050H
	DB	048H
	DB	028H
	DB	0ffH
	DB	050H
	DB	048H
	DB	028H
	DB	0ffH
	DB	050H
	DB	048H
	DB	028H
	DB	0ffH
	DB	050H
	DB	048H
	DB	028H
	DB	0ffH
	DB	050H
	DB	048H
	DB	028H
	DB	0ffH
	DB	050H
	DB	048H
	DB	028H
	DB	0ffH
	DB	050H
	DB	048H
	DB	028H
	DB	0ffH
	DB	050H
	DB	048H
	DB	028H
	DB	0ffH
	DB	050H
	DB	048H
	DB	028H
	DB	0ffH
	DB	050H
	DB	048H
	DB	028H
	DB	0ffH
	DB	050H
	DB	048H
	DB	028H
	DB	0ffH
	DB	050H
	DB	048H
	DB	028H
	DB	0ffH
	DB	050H
	DB	048H
	DB	028H
	DB	0ffH
	DB	050H
	DB	048H
	DB	028H
	DB	0ffH
	DB	050H
	DB	048H
	DB	028H
	DB	0ffH
	DB	050H
	DB	048H
	DB	028H
	DB	0ffH
	DB	050H
	DB	048H
	DB	028H
	DB	0ffH
	DB	050H
	DB	048H
	DB	028H
	DB	0ffH
	DB	050H
	DB	048H
	DB	028H
	DB	0ffH
	DB	050H
	DB	048H
	DB	028H
	DB	0ffH
	DB	050H
	DB	048H
	DB	030H
	DB	0ffH
	DB	050H
	DB	048H
	DB	028H
	DB	0ffH
	DB	050H
	DB	048H
	DB	028H
	DB	0ffH
	DB	050H
	DB	048H
	DB	028H
	DB	0ffH
	DB	050H
	DB	048H
	DB	028H
	DB	0ffH
	DB	050H
	DB	048H
	DB	028H
	DB	0ffH
	DB	050H
	DB	048H
	DB	028H
	DB	0ffH
	DB	050H
	DB	048H
	DB	028H
	DB	0ffH
	DB	050H
	DB	048H
	DB	028H
	DB	0ffH
	DB	050H
	DB	048H
	DB	028H
	DB	0ffH
	DB	050H
	DB	048H
	DB	028H
	DB	0ffH
	DB	050H
	DB	048H
	DB	028H
	DB	0ffH
	DB	050H
	DB	048H
	DB	028H
	DB	0ffH
	DB	050H
	DB	048H
	DB	028H
	DB	0ffH
	DB	050H
	DB	048H
	DB	028H
	DB	0ffH
	DB	050H
	DB	048H
	DB	028H
	DB	0ffH
	DB	050H
	DB	048H
	DB	028H
	DB	0ffH
	DB	050H
	DB	048H
	DB	030H
	DB	0ffH
	DB	050H
	DB	048H
	DB	028H
	DB	0ffH
	DB	050H
	DB	048H
	DB	028H
	DB	0ffH
	DB	050H
	DB	048H
	DB	028H
	DB	0ffH
	DB	050H
	DB	048H
	DB	028H
	DB	0ffH
	DB	050H
	DB	048H
	DB	028H
	DB	0ffH
	DB	050H
	DB	048H
	DB	028H
	DB	0ffH
	DB	050H
	DB	048H
	DB	028H
	DB	0ffH
	DB	050H
	DB	048H
	DB	028H
	DB	0ffH
	DB	050H
	DB	048H
	DB	030H
	DB	0ffH
	DB	050H
	DB	048H
	DB	028H
	DB	0ffH
	DB	050H
	DB	048H
	DB	028H
	DB	0ffH
	DB	050H
	DB	048H
	DB	028H
	DB	0ffH
	DB	050H
	DB	048H
	DB	028H
	DB	0ffH
	DB	050H
	DB	048H
	DB	028H
	DB	0ffH
	DB	050H
	DB	048H
	DB	028H
	DB	0ffH
	DB	050H
	DB	048H
	DB	028H
	DB	0ffH
	DB	050H
	DB	048H
	DB	028H
	DB	0ffH
	DB	050H
	DB	048H
	DB	028H
	DB	0ffH
	DB	050H
	DB	048H
	DB	028H
	DB	0ffH
	DB	050H
	DB	048H
	DB	028H
	DB	0ffH
	DB	050H
	DB	048H
	DB	028H
	DB	0ffH
	DB	050H
	DB	048H
	DB	028H
	DB	0ffH
	DB	050H
	DB	048H
	DB	028H
	DB	0ffH
	DB	050H
	DB	048H
	DB	028H
	DB	0ffH
	DB	050H
	DB	048H
	DB	028H
	DB	0ffH
	DB	050H
	DB	048H
	DB	028H
	DB	0ffH
	DB	050H
	DB	048H
	DB	028H
	DB	0ffH
	DB	050H
	DB	048H
	DB	028H
	DB	0ffH
	DB	050H
	DB	048H
	DB	028H
	DB	0ffH
	DB	050H
	DB	048H
	DB	028H
	DB	0ffH
	DB	050H
	DB	048H
	DB	028H
	DB	0ffH
	DB	050H
	DB	048H
	DB	028H
	DB	0ffH
	DB	050H
	DB	048H
	DB	028H
	DB	0ffH
	DB	050H
	DB	048H
	DB	028H
	DB	0ffH
	DB	050H
	DB	048H
	DB	028H
	DB	0ffH
	DB	050H
	DB	048H
	DB	028H
	DB	0ffH
	DB	050H
	DB	048H
	DB	028H
	DB	0ffH
	DB	050H
	DB	048H
	DB	028H
	DB	0ffH
	DB	050H
	DB	048H
	DB	028H
	DB	0ffH
	DB	050H
	DB	048H
	DB	028H
	DB	0ffH
	DB	050H
	DB	048H
	DB	028H
	DB	0ffH
	DB	050H
	DB	048H
	DB	028H
	DB	0ffH
	DB	050H
	DB	048H
	DB	028H
	DB	0ffH
	DB	050H
	DB	048H
	DB	028H
	DB	0ffH
	DB	050H
	DB	048H
	DB	028H
	DB	0ffH
	DB	050H
	DB	048H
	DB	028H
	DB	0ffH
	DB	050H
	DB	048H
	DB	028H
	DB	0ffH
	DB	050H
	DB	048H
	DB	028H
	DB	0ffH
	DB	050H
	DB	048H
	DB	028H
	DB	0ffH
	DB	050H
	DB	048H
	DB	030H
	DB	0ffH
	DB	050H
	DB	048H
	DB	028H
	DB	0ffH
	DB	050H
	DB	048H
	DB	028H
	DB	0ffH
	DB	050H
	DB	048H
	DB	030H
	DB	0ffH
	DB	050H
	DB	048H
	DB	030H
	DB	0ffH
	DB	050H
	DB	044H
	DB	028H
	DB	0ffH
	DB	0b0H
	DB	0acH
	DB	098H
	DB	0ffH
	DB	078H
	DB	078H
	DB	078H
	DB	0ffH
	DB	0f0H
	DB	0acH
	DB	00H
	DB	0ffH
	DB	0f0H
	DB	0b0H
	DB	00H
	DB	0ffH
	DB	0f0H
	DB	0b0H
	DB	00H
	DB	0ffH
	DB	00H
	DB	00H
	DB	00H
	DB	061H
	DB	00H
	DB	00H
	DB	00H
	DB	030H
	DB	00H
	DB	00H
	DB	00H
	DB	010H
	DB	00H
	DB	00H
	DB	00H
	DB	010H
	DB	00H
	DB	00H
	DB	00H
	DB	030H
	DB	00H
	DB	00H
	DB	00H
	DB	061H
	DB	0f0H
	DB	0b0H
	DB	00H
	DB	0ffH
	DB	0f0H
	DB	0acH
	DB	00H
	DB	0ffH
	DB	0f0H
	DB	0b0H
	DB	00H
	DB	0ffH
	DB	078H
	DB	078H
	DB	078H
	DB	0ffH
	DB	0b0H
	DB	0acH
	DB	098H
	DB	0ffH
	DB	050H
	DB	044H
	DB	028H
	DB	0ffH
	DB	050H
	DB	048H
	DB	028H
	DB	0ffH
	DB	050H
	DB	048H
	DB	028H
	DB	0ffH
	DB	050H
	DB	048H
	DB	028H
	DB	0ffH
	DB	050H
	DB	044H
	DB	030H
	DB	0ffH
	DB	050H
	DB	044H
	DB	028H
	DB	0ffH
	DB	050H
	DB	048H
	DB	028H
	DB	0ffH
	DB	050H
	DB	044H
	DB	028H
	DB	0ffH
	DB	050H
	DB	048H
	DB	028H
	DB	0ffH
	DB	050H
	DB	044H
	DB	028H
	DB	0ffH
	DB	050H
	DB	044H
	DB	028H
	DB	0ffH
	DB	050H
	DB	048H
	DB	028H
	DB	0ffH
	DB	050H
	DB	048H
	DB	030H
	DB	0ffH
	DB	050H
	DB	048H
	DB	028H
	DB	0ffH
	DB	050H
	DB	048H
	DB	028H
	DB	0ffH
	DB	050H
	DB	048H
	DB	028H
	DB	0ffH
	DB	050H
	DB	048H
	DB	028H
	DB	0ffH
	DB	050H
	DB	048H
	DB	028H
	DB	0ffH
	DB	050H
	DB	044H
	DB	028H
	DB	0ffH
	DB	050H
	DB	044H
	DB	028H
	DB	0ffH
	DB	050H
	DB	048H
	DB	028H
	DB	0ffH
	DB	050H
	DB	048H
	DB	028H
	DB	0ffH
	DB	050H
	DB	044H
	DB	028H
	DB	0ffH
	DB	050H
	DB	048H
	DB	028H
	DB	0ffH
	DB	050H
	DB	048H
	DB	028H
	DB	0ffH
	DB	050H
	DB	044H
	DB	030H
	DB	0ffH
	DB	050H
	DB	048H
	DB	028H
	DB	0ffH
	DB	050H
	DB	048H
	DB	028H
	DB	0ffH
	DB	050H
	DB	044H
	DB	030H
	DB	0ffH
	DB	050H
	DB	044H
	DB	028H
	DB	0ffH
	DB	050H
	DB	048H
	DB	028H
	DB	0ffH
	DB	050H
	DB	044H
	DB	030H
	DB	0ffH
	DB	050H
	DB	048H
	DB	028H
	DB	0ffH
	DB	050H
	DB	044H
	DB	028H
	DB	0ffH
	DB	050H
	DB	048H
	DB	028H
	DB	0ffH
	DB	050H
	DB	048H
	DB	028H
	DB	0ffH
	DB	050H
	DB	044H
	DB	028H
	DB	0ffH
	DB	050H
	DB	044H
	DB	028H
	DB	0ffH
	DB	050H
	DB	048H
	DB	028H
	DB	0ffH
	DB	050H
	DB	044H
	DB	030H
	DB	0ffH
	DB	050H
	DB	048H
	DB	028H
	DB	0ffH
	DB	050H
	DB	048H
	DB	028H
	DB	0ffH
	DB	050H
	DB	044H
	DB	028H
	DB	0ffH
	DB	050H
	DB	048H
	DB	028H
	DB	0ffH
	DB	050H
	DB	048H
	DB	028H
	DB	0ffH
	DB	050H
	DB	048H
	DB	030H
	DB	0ffH
	DB	050H
	DB	048H
	DB	028H
	DB	0ffH
	DB	050H
	DB	048H
	DB	028H
	DB	0ffH
	DB	050H
	DB	048H
	DB	028H
	DB	0ffH
	DB	050H
	DB	044H
	DB	028H
	DB	0ffH
	DB	050H
	DB	048H
	DB	028H
	DB	0ffH
	DB	050H
	DB	044H
	DB	028H
	DB	0ffH
	DB	050H
	DB	048H
	DB	028H
	DB	0ffH
	DB	050H
	DB	048H
	DB	028H
	DB	0ffH
	DB	050H
	DB	048H
	DB	028H
	DB	0ffH
	DB	050H
	DB	044H
	DB	028H
	DB	0ffH
	DB	050H
	DB	048H
	DB	028H
	DB	0ffH
	DB	050H
	DB	048H
	DB	028H
	DB	0ffH
	DB	050H
	DB	044H
	DB	028H
	DB	0ffH
	DB	050H
	DB	048H
	DB	028H
	DB	0ffH
	DB	050H
	DB	048H
	DB	028H
	DB	0ffH
	DB	050H
	DB	044H
	DB	028H
	DB	0ffH
	DB	050H
	DB	048H
	DB	028H
	DB	0ffH
	DB	050H
	DB	048H
	DB	028H
	DB	0ffH
	DB	050H
	DB	044H
	DB	028H
	DB	0ffH
	DB	050H
	DB	048H
	DB	028H
	DB	0ffH
	DB	050H
	DB	048H
	DB	028H
	DB	0ffH
	DB	050H
	DB	044H
	DB	028H
	DB	0ffH
	DB	050H
	DB	044H
	DB	028H
	DB	0ffH
	DB	050H
	DB	048H
	DB	028H
	DB	0ffH
	DB	050H
	DB	044H
	DB	028H
	DB	0ffH
	DB	050H
	DB	048H
	DB	030H
	DB	0ffH
	DB	050H
	DB	048H
	DB	028H
	DB	0ffH
	DB	050H
	DB	048H
	DB	028H
	DB	0ffH
	DB	050H
	DB	048H
	DB	028H
	DB	0ffH
	DB	050H
	DB	048H
	DB	028H
	DB	0ffH
	DB	050H
	DB	044H
	DB	028H
	DB	0ffH
	DB	050H
	DB	044H
	DB	028H
	DB	0ffH
	DB	050H
	DB	048H
	DB	028H
	DB	0ffH
	DB	050H
	DB	044H
	DB	028H
	DB	0ffH
	DB	050H
	DB	048H
	DB	030H
	DB	0ffH
	DB	050H
	DB	044H
	DB	028H
	DB	0ffH
	DB	050H
	DB	048H
	DB	028H
	DB	0ffH
	DB	050H
	DB	048H
	DB	028H
	DB	0ffH
	DB	050H
	DB	044H
	DB	028H
	DB	0ffH
	DB	050H
	DB	044H
	DB	028H
	DB	0ffH
	DB	050H
	DB	048H
	DB	028H
	DB	0ffH
	DB	050H
	DB	048H
	DB	028H
	DB	0ffH
	DB	050H
	DB	044H
	DB	028H
	DB	0ffH
	DB	050H
	DB	048H
	DB	028H
	DB	0ffH
	DB	050H
	DB	044H
	DB	028H
	DB	0ffH
	DB	050H
	DB	044H
	DB	028H
	DB	0ffH
	DB	050H
	DB	048H
	DB	030H
	DB	0ffH
	DB	050H
	DB	048H
	DB	028H
	DB	0ffH
	DB	050H
	DB	044H
	DB	028H
	DB	0ffH
	DB	050H
	DB	048H
	DB	030H
	DB	0ffH
	DB	050H
	DB	048H
	DB	028H
	DB	0ffH
	DB	050H
	DB	044H
	DB	028H
	DB	0ffH
	DB	050H
	DB	048H
	DB	028H
	DB	0ffH
	DB	050H
	DB	048H
	DB	028H
	DB	0ffH
	DB	050H
	DB	048H
	DB	028H
	DB	0ffH
	DB	050H
	DB	044H
	DB	028H
	DB	0ffH
	DB	050H
	DB	048H
	DB	028H
	DB	0ffH
	DB	050H
	DB	048H
	DB	030H
	DB	0ffH
	DB	050H
	DB	044H
	DB	028H
	DB	0ffH
	DB	050H
	DB	048H
	DB	028H
	DB	0ffH
	DB	050H
	DB	048H
	DB	028H
	DB	0ffH
	DB	050H
	DB	044H
	DB	028H
	DB	0ffH
	DB	050H
	DB	044H
	DB	028H
	DB	0ffH
	DB	050H
	DB	048H
	DB	028H
	DB	0ffH
	DB	050H
	DB	044H
	DB	028H
	DB	0ffH
	DB	050H
	DB	044H
	DB	028H
	DB	0ffH
	DB	050H
	DB	048H
	DB	030H
	DB	0ffH
	DB	050H
	DB	044H
	DB	028H
	DB	0ffH
	DB	050H
	DB	044H
	DB	028H
	DB	0ffH
	DB	050H
	DB	048H
	DB	028H
	DB	0ffH
	DB	050H
	DB	044H
	DB	028H
	DB	0ffH
	DB	050H
	DB	048H
	DB	028H
	DB	0ffH
	DB	050H
	DB	048H
	DB	028H
	DB	0ffH
	DB	050H
	DB	048H
	DB	028H
	DB	0ffH
	DB	050H
	DB	048H
	DB	028H
	DB	0ffH
	DB	050H
	DB	048H
	DB	028H
	DB	0ffH
	DB	050H
	DB	048H
	DB	028H
	DB	0ffH
	DB	050H
	DB	044H
	DB	028H
	DB	0ffH
	DB	050H
	DB	048H
	DB	030H
	DB	0ffH
	DB	050H
	DB	048H
	DB	028H
	DB	0ffH
	DB	050H
	DB	048H
	DB	028H
	DB	0ffH
	DB	050H
	DB	048H
	DB	028H
	DB	0ffH
	DB	050H
	DB	048H
	DB	030H
	DB	0ffH
	DB	050H
	DB	044H
	DB	028H
	DB	0ffH
	DB	0b0H
	DB	0acH
	DB	098H
	DB	0ffH
	DB	078H
	DB	078H
	DB	078H
	DB	0ffH
	DB	0f0H
	DB	0acH
	DB	00H
	DB	0ffH
	DB	0f0H
	DB	0acH
	DB	00H
	DB	0ffH
	DB	0f0H
	DB	0b0H
	DB	00H
	DB	0ffH
	DB	00H
	DB	00H
	DB	00H
	DB	061H
	DB	00H
	DB	00H
	DB	00H
	DB	030H
	DB	00H
	DB	00H
	DB	00H
	DB	010H
	DB	00H
	DB	00H
	DB	00H
	DB	010H
	DB	00H
	DB	00H
	DB	00H
	DB	030H
	DB	00H
	DB	00H
	DB	00H
	DB	05dH
	DB	0f0H
	DB	0acH
	DB	00H
	DB	0ffH
	DB	0e8H
	DB	0b0H
	DB	00H
	DB	0ffH
	DB	0f0H
	DB	0acH
	DB	00H
	DB	0ffH
	DB	078H
	DB	07cH
	DB	078H
	DB	0ffH
	DB	0b0H
	DB	0acH
	DB	098H
	DB	0ffH
	DB	050H
	DB	044H
	DB	028H
	DB	0ffH
	DB	050H
	DB	044H
	DB	028H
	DB	0ffH
	DB	050H
	DB	044H
	DB	028H
	DB	0ffH
	DB	050H
	DB	044H
	DB	028H
	DB	0ffH
	DB	050H
	DB	044H
	DB	028H
	DB	0ffH
	DB	050H
	DB	044H
	DB	028H
	DB	0ffH
	DB	050H
	DB	044H
	DB	028H
	DB	0ffH
	DB	050H
	DB	044H
	DB	028H
	DB	0ffH
	DB	050H
	DB	044H
	DB	028H
	DB	0ffH
	DB	050H
	DB	044H
	DB	028H
	DB	0ffH
	DB	050H
	DB	044H
	DB	028H
	DB	0ffH
	DB	050H
	DB	044H
	DB	028H
	DB	0ffH
	DB	050H
	DB	044H
	DB	028H
	DB	0ffH
	DB	050H
	DB	044H
	DB	028H
	DB	0ffH
	DB	050H
	DB	040H
	DB	028H
	DB	0ffH
	DB	050H
	DB	044H
	DB	028H
	DB	0ffH
	DB	050H
	DB	044H
	DB	028H
	DB	0ffH
	DB	050H
	DB	044H
	DB	028H
	DB	0ffH
	DB	050H
	DB	044H
	DB	028H
	DB	0ffH
	DB	050H
	DB	044H
	DB	028H
	DB	0ffH
	DB	050H
	DB	044H
	DB	028H
	DB	0ffH
	DB	050H
	DB	044H
	DB	028H
	DB	0ffH
	DB	050H
	DB	044H
	DB	028H
	DB	0ffH
	DB	050H
	DB	044H
	DB	028H
	DB	0ffH
	DB	050H
	DB	044H
	DB	028H
	DB	0ffH
	DB	050H
	DB	044H
	DB	028H
	DB	0ffH
	DB	050H
	DB	044H
	DB	028H
	DB	0ffH
	DB	050H
	DB	044H
	DB	028H
	DB	0ffH
	DB	050H
	DB	044H
	DB	028H
	DB	0ffH
	DB	050H
	DB	044H
	DB	028H
	DB	0ffH
	DB	050H
	DB	044H
	DB	028H
	DB	0ffH
	DB	050H
	DB	044H
	DB	028H
	DB	0ffH
	DB	050H
	DB	044H
	DB	028H
	DB	0ffH
	DB	050H
	DB	044H
	DB	028H
	DB	0ffH
	DB	050H
	DB	044H
	DB	028H
	DB	0ffH
	DB	050H
	DB	044H
	DB	028H
	DB	0ffH
	DB	050H
	DB	044H
	DB	028H
	DB	0ffH
	DB	050H
	DB	044H
	DB	028H
	DB	0ffH
	DB	050H
	DB	044H
	DB	028H
	DB	0ffH
	DB	050H
	DB	044H
	DB	028H
	DB	0ffH
	DB	050H
	DB	044H
	DB	028H
	DB	0ffH
	DB	050H
	DB	044H
	DB	028H
	DB	0ffH
	DB	050H
	DB	044H
	DB	028H
	DB	0ffH
	DB	050H
	DB	044H
	DB	028H
	DB	0ffH
	DB	050H
	DB	044H
	DB	028H
	DB	0ffH
	DB	050H
	DB	040H
	DB	028H
	DB	0ffH
	DB	050H
	DB	044H
	DB	028H
	DB	0ffH
	DB	050H
	DB	044H
	DB	028H
	DB	0ffH
	DB	050H
	DB	044H
	DB	028H
	DB	0ffH
	DB	050H
	DB	044H
	DB	028H
	DB	0ffH
	DB	050H
	DB	044H
	DB	028H
	DB	0ffH
	DB	050H
	DB	044H
	DB	028H
	DB	0ffH
	DB	050H
	DB	044H
	DB	028H
	DB	0ffH
	DB	050H
	DB	044H
	DB	028H
	DB	0ffH
	DB	050H
	DB	044H
	DB	028H
	DB	0ffH
	DB	050H
	DB	044H
	DB	028H
	DB	0ffH
	DB	050H
	DB	044H
	DB	028H
	DB	0ffH
	DB	050H
	DB	044H
	DB	028H
	DB	0ffH
	DB	050H
	DB	044H
	DB	028H
	DB	0ffH
	DB	050H
	DB	044H
	DB	028H
	DB	0ffH
	DB	050H
	DB	044H
	DB	028H
	DB	0ffH
	DB	050H
	DB	044H
	DB	028H
	DB	0ffH
	DB	050H
	DB	044H
	DB	028H
	DB	0ffH
	DB	050H
	DB	044H
	DB	028H
	DB	0ffH
	DB	050H
	DB	044H
	DB	028H
	DB	0ffH
	DB	050H
	DB	044H
	DB	028H
	DB	0ffH
	DB	050H
	DB	044H
	DB	028H
	DB	0ffH
	DB	050H
	DB	044H
	DB	028H
	DB	0ffH
	DB	050H
	DB	044H
	DB	028H
	DB	0ffH
	DB	050H
	DB	044H
	DB	028H
	DB	0ffH
	DB	050H
	DB	044H
	DB	028H
	DB	0ffH
	DB	050H
	DB	044H
	DB	028H
	DB	0ffH
	DB	050H
	DB	044H
	DB	028H
	DB	0ffH
	DB	050H
	DB	040H
	DB	028H
	DB	0ffH
	DB	050H
	DB	044H
	DB	028H
	DB	0ffH
	DB	050H
	DB	044H
	DB	028H
	DB	0ffH
	DB	050H
	DB	044H
	DB	028H
	DB	0ffH
	DB	050H
	DB	044H
	DB	028H
	DB	0ffH
	DB	050H
	DB	044H
	DB	028H
	DB	0ffH
	DB	050H
	DB	044H
	DB	028H
	DB	0ffH
	DB	050H
	DB	044H
	DB	028H
	DB	0ffH
	DB	050H
	DB	044H
	DB	028H
	DB	0ffH
	DB	050H
	DB	044H
	DB	028H
	DB	0ffH
	DB	050H
	DB	044H
	DB	028H
	DB	0ffH
	DB	050H
	DB	044H
	DB	028H
	DB	0ffH
	DB	050H
	DB	044H
	DB	028H
	DB	0ffH
	DB	050H
	DB	044H
	DB	028H
	DB	0ffH
	DB	050H
	DB	044H
	DB	028H
	DB	0ffH
	DB	050H
	DB	044H
	DB	028H
	DB	0ffH
	DB	050H
	DB	044H
	DB	028H
	DB	0ffH
	DB	050H
	DB	044H
	DB	028H
	DB	0ffH
	DB	050H
	DB	044H
	DB	028H
	DB	0ffH
	DB	050H
	DB	044H
	DB	028H
	DB	0ffH
	DB	050H
	DB	044H
	DB	028H
	DB	0ffH
	DB	050H
	DB	044H
	DB	028H
	DB	0ffH
	DB	050H
	DB	044H
	DB	028H
	DB	0ffH
	DB	050H
	DB	044H
	DB	028H
	DB	0ffH
	DB	050H
	DB	044H
	DB	028H
	DB	0ffH
	DB	050H
	DB	044H
	DB	028H
	DB	0ffH
	DB	050H
	DB	044H
	DB	028H
	DB	0ffH
	DB	050H
	DB	044H
	DB	028H
	DB	0ffH
	DB	050H
	DB	044H
	DB	028H
	DB	0ffH
	DB	050H
	DB	044H
	DB	028H
	DB	0ffH
	DB	050H
	DB	044H
	DB	028H
	DB	0ffH
	DB	050H
	DB	044H
	DB	028H
	DB	0ffH
	DB	050H
	DB	044H
	DB	028H
	DB	0ffH
	DB	050H
	DB	044H
	DB	028H
	DB	0ffH
	DB	050H
	DB	044H
	DB	028H
	DB	0ffH
	DB	050H
	DB	044H
	DB	028H
	DB	0ffH
	DB	050H
	DB	044H
	DB	028H
	DB	0ffH
	DB	050H
	DB	044H
	DB	028H
	DB	0ffH
	DB	050H
	DB	044H
	DB	028H
	DB	0ffH
	DB	050H
	DB	044H
	DB	028H
	DB	0ffH
	DB	050H
	DB	044H
	DB	028H
	DB	0ffH
	DB	050H
	DB	044H
	DB	028H
	DB	0ffH
	DB	050H
	DB	044H
	DB	028H
	DB	0ffH
	DB	050H
	DB	044H
	DB	028H
	DB	0ffH
	DB	050H
	DB	044H
	DB	028H
	DB	0ffH
	DB	050H
	DB	044H
	DB	028H
	DB	0ffH
	DB	050H
	DB	040H
	DB	028H
	DB	0ffH
	DB	050H
	DB	044H
	DB	028H
	DB	0ffH
	DB	050H
	DB	044H
	DB	028H
	DB	0ffH
	DB	050H
	DB	044H
	DB	028H
	DB	0ffH
	DB	050H
	DB	044H
	DB	028H
	DB	0ffH
	DB	050H
	DB	044H
	DB	028H
	DB	0ffH
	DB	050H
	DB	044H
	DB	028H
	DB	0ffH
	DB	050H
	DB	044H
	DB	028H
	DB	0ffH
	DB	050H
	DB	044H
	DB	028H
	DB	0ffH
	DB	050H
	DB	044H
	DB	028H
	DB	0ffH
	DB	050H
	DB	044H
	DB	028H
	DB	0ffH
	DB	0b0H
	DB	0acH
	DB	098H
	DB	0ffH
	DB	078H
	DB	078H
	DB	078H
	DB	0ffH
	DB	0f0H
	DB	0b0H
	DB	00H
	DB	0ffH
	DB	0f0H
	DB	0acH
	DB	00H
	DB	0ffH
	DB	0f0H
	DB	0acH
	DB	00H
	DB	0ffH
	DB	00H
	DB	00H
	DB	00H
	DB	05dH
	DB	00H
	DB	00H
	DB	00H
	DB	030H
	DB	00H
	DB	00H
	DB	00H
	DB	010H
	DB	00H
	DB	00H
	DB	00H
	DB	010H
	DB	00H
	DB	00H
	DB	00H
	DB	030H
	DB	00H
	DB	00H
	DB	00H
	DB	061H
	DB	0f0H
	DB	0acH
	DB	00H
	DB	0ffH
	DB	0f0H
	DB	0b0H
	DB	00H
	DB	0ffH
	DB	0f0H
	DB	0acH
	DB	00H
	DB	0ffH
	DB	078H
	DB	078H
	DB	078H
	DB	0ffH
	DB	0b0H
	DB	0acH
	DB	0a0H
	DB	0ffH
	DB	048H
	DB	040H
	DB	028H
	DB	0ffH
	DB	050H
	DB	044H
	DB	028H
	DB	0ffH
	DB	050H
	DB	044H
	DB	028H
	DB	0ffH
	DB	048H
	DB	044H
	DB	028H
	DB	0ffH
	DB	050H
	DB	044H
	DB	028H
	DB	0ffH
	DB	048H
	DB	040H
	DB	028H
	DB	0ffH
	DB	048H
	DB	040H
	DB	028H
	DB	0ffH
	DB	048H
	DB	040H
	DB	028H
	DB	0ffH
	DB	048H
	DB	040H
	DB	028H
	DB	0ffH
	DB	048H
	DB	040H
	DB	028H
	DB	0ffH
	DB	048H
	DB	040H
	DB	028H
	DB	0ffH
	DB	048H
	DB	040H
	DB	028H
	DB	0ffH
	DB	050H
	DB	040H
	DB	028H
	DB	0ffH
	DB	048H
	DB	040H
	DB	028H
	DB	0ffH
	DB	048H
	DB	040H
	DB	028H
	DB	0ffH
	DB	048H
	DB	040H
	DB	028H
	DB	0ffH
	DB	048H
	DB	040H
	DB	028H
	DB	0ffH
	DB	048H
	DB	040H
	DB	028H
	DB	0ffH
	DB	048H
	DB	040H
	DB	028H
	DB	0ffH
	DB	048H
	DB	040H
	DB	028H
	DB	0ffH
	DB	050H
	DB	040H
	DB	028H
	DB	0ffH
	DB	048H
	DB	040H
	DB	028H
	DB	0ffH
	DB	048H
	DB	040H
	DB	028H
	DB	0ffH
	DB	050H
	DB	040H
	DB	028H
	DB	0ffH
	DB	048H
	DB	040H
	DB	028H
	DB	0ffH
	DB	050H
	DB	040H
	DB	028H
	DB	0ffH
	DB	048H
	DB	040H
	DB	028H
	DB	0ffH
	DB	048H
	DB	040H
	DB	028H
	DB	0ffH
	DB	050H
	DB	040H
	DB	028H
	DB	0ffH
	DB	048H
	DB	040H
	DB	028H
	DB	0ffH
	DB	048H
	DB	040H
	DB	028H
	DB	0ffH
	DB	050H
	DB	040H
	DB	028H
	DB	0ffH
	DB	048H
	DB	040H
	DB	028H
	DB	0ffH
	DB	048H
	DB	040H
	DB	028H
	DB	0ffH
	DB	050H
	DB	040H
	DB	028H
	DB	0ffH
	DB	048H
	DB	040H
	DB	028H
	DB	0ffH
	DB	048H
	DB	040H
	DB	028H
	DB	0ffH
	DB	050H
	DB	040H
	DB	028H
	DB	0ffH
	DB	048H
	DB	040H
	DB	028H
	DB	0ffH
	DB	048H
	DB	040H
	DB	028H
	DB	0ffH
	DB	050H
	DB	040H
	DB	028H
	DB	0ffH
	DB	048H
	DB	040H
	DB	028H
	DB	0ffH
	DB	048H
	DB	040H
	DB	028H
	DB	0ffH
	DB	048H
	DB	040H
	DB	028H
	DB	0ffH
	DB	048H
	DB	040H
	DB	028H
	DB	0ffH
	DB	048H
	DB	040H
	DB	028H
	DB	0ffH
	DB	048H
	DB	040H
	DB	028H
	DB	0ffH
	DB	048H
	DB	040H
	DB	028H
	DB	0ffH
	DB	048H
	DB	040H
	DB	028H
	DB	0ffH
	DB	048H
	DB	040H
	DB	028H
	DB	0ffH
	DB	048H
	DB	040H
	DB	028H
	DB	0ffH
	DB	048H
	DB	040H
	DB	028H
	DB	0ffH
	DB	048H
	DB	040H
	DB	028H
	DB	0ffH
	DB	048H
	DB	040H
	DB	028H
	DB	0ffH
	DB	050H
	DB	040H
	DB	028H
	DB	0ffH
	DB	048H
	DB	040H
	DB	028H
	DB	0ffH
	DB	048H
	DB	040H
	DB	028H
	DB	0ffH
	DB	050H
	DB	040H
	DB	028H
	DB	0ffH
	DB	048H
	DB	040H
	DB	028H
	DB	0ffH
	DB	048H
	DB	040H
	DB	028H
	DB	0ffH
	DB	050H
	DB	040H
	DB	028H
	DB	0ffH
	DB	048H
	DB	040H
	DB	028H
	DB	0ffH
	DB	048H
	DB	040H
	DB	028H
	DB	0ffH
	DB	048H
	DB	040H
	DB	028H
	DB	0ffH
	DB	048H
	DB	040H
	DB	028H
	DB	0ffH
	DB	048H
	DB	040H
	DB	028H
	DB	0ffH
	DB	048H
	DB	040H
	DB	028H
	DB	0ffH
	DB	048H
	DB	040H
	DB	028H
	DB	0ffH
	DB	048H
	DB	040H
	DB	028H
	DB	0ffH
	DB	048H
	DB	040H
	DB	028H
	DB	0ffH
	DB	048H
	DB	040H
	DB	028H
	DB	0ffH
	DB	048H
	DB	040H
	DB	028H
	DB	0ffH
	DB	048H
	DB	040H
	DB	028H
	DB	0ffH
	DB	048H
	DB	040H
	DB	028H
	DB	0ffH
	DB	050H
	DB	040H
	DB	028H
	DB	0ffH
	DB	048H
	DB	040H
	DB	028H
	DB	0ffH
	DB	048H
	DB	040H
	DB	028H
	DB	0ffH
	DB	050H
	DB	040H
	DB	028H
	DB	0ffH
	DB	048H
	DB	040H
	DB	028H
	DB	0ffH
	DB	048H
	DB	040H
	DB	028H
	DB	0ffH
	DB	050H
	DB	040H
	DB	028H
	DB	0ffH
	DB	048H
	DB	040H
	DB	028H
	DB	0ffH
	DB	048H
	DB	040H
	DB	028H
	DB	0ffH
	DB	048H
	DB	040H
	DB	028H
	DB	0ffH
	DB	048H
	DB	040H
	DB	028H
	DB	0ffH
	DB	048H
	DB	040H
	DB	028H
	DB	0ffH
	DB	048H
	DB	040H
	DB	028H
	DB	0ffH
	DB	048H
	DB	040H
	DB	028H
	DB	0ffH
	DB	048H
	DB	040H
	DB	028H
	DB	0ffH
	DB	048H
	DB	040H
	DB	028H
	DB	0ffH
	DB	048H
	DB	040H
	DB	028H
	DB	0ffH
	DB	050H
	DB	040H
	DB	028H
	DB	0ffH
	DB	048H
	DB	040H
	DB	028H
	DB	0ffH
	DB	048H
	DB	040H
	DB	028H
	DB	0ffH
	DB	048H
	DB	040H
	DB	028H
	DB	0ffH
	DB	048H
	DB	040H
	DB	028H
	DB	0ffH
	DB	048H
	DB	040H
	DB	028H
	DB	0ffH
	DB	048H
	DB	040H
	DB	028H
	DB	0ffH
	DB	048H
	DB	040H
	DB	028H
	DB	0ffH
	DB	048H
	DB	040H
	DB	028H
	DB	0ffH
	DB	048H
	DB	040H
	DB	028H
	DB	0ffH
	DB	048H
	DB	040H
	DB	028H
	DB	0ffH
	DB	048H
	DB	040H
	DB	028H
	DB	0ffH
	DB	048H
	DB	040H
	DB	028H
	DB	0ffH
	DB	048H
	DB	040H
	DB	028H
	DB	0ffH
	DB	048H
	DB	040H
	DB	028H
	DB	0ffH
	DB	048H
	DB	040H
	DB	028H
	DB	0ffH
	DB	048H
	DB	040H
	DB	028H
	DB	0ffH
	DB	048H
	DB	040H
	DB	028H
	DB	0ffH
	DB	050H
	DB	040H
	DB	028H
	DB	0ffH
	DB	048H
	DB	040H
	DB	028H
	DB	0ffH
	DB	048H
	DB	040H
	DB	028H
	DB	0ffH
	DB	050H
	DB	040H
	DB	028H
	DB	0ffH
	DB	048H
	DB	040H
	DB	028H
	DB	0ffH
	DB	048H
	DB	040H
	DB	028H
	DB	0ffH
	DB	050H
	DB	040H
	DB	028H
	DB	0ffH
	DB	048H
	DB	040H
	DB	028H
	DB	0ffH
	DB	048H
	DB	040H
	DB	028H
	DB	0ffH
	DB	050H
	DB	040H
	DB	028H
	DB	0ffH
	DB	048H
	DB	040H
	DB	028H
	DB	0ffH
	DB	048H
	DB	040H
	DB	028H
	DB	0ffH
	DB	050H
	DB	040H
	DB	028H
	DB	0ffH
	DB	048H
	DB	040H
	DB	028H
	DB	0ffH
	DB	048H
	DB	040H
	DB	028H
	DB	0ffH
	DB	050H
	DB	040H
	DB	028H
	DB	0ffH
	DB	050H
	DB	040H
	DB	028H
	DB	0ffH
	DB	050H
	DB	040H
	DB	028H
	DB	0ffH
	DB	050H
	DB	044H
	DB	028H
	DB	0ffH
	DB	050H
	DB	044H
	DB	028H
	DB	0ffH
	DB	048H
	DB	040H
	DB	028H
	DB	0ffH
	DB	0b0H
	DB	0acH
	DB	0a0H
	DB	0ffH
	DB	078H
	DB	07cH
	DB	078H
	DB	0ffH
	DB	0f0H
	DB	0acH
	DB	00H
	DB	0ffH
	DB	0f0H
	DB	0b0H
	DB	00H
	DB	0ffH
	DB	0f0H
	DB	0b0H
	DB	00H
	DB	0ffH
	DB	00H
	DB	00H
	DB	00H
	DB	061H
	DB	00H
	DB	00H
	DB	00H
	DB	030H
	DB	00H
	DB	00H
	DB	00H
	DB	010H
	DB	00H
	DB	00H
	DB	00H
	DB	010H
	DB	00H
	DB	00H
	DB	00H
	DB	030H
	DB	00H
	DB	00H
	DB	00H
	DB	061H
	DB	0f0H
	DB	0b0H
	DB	00H
	DB	0ffH
	DB	0f0H
	DB	0acH
	DB	00H
	DB	0ffH
	DB	0f0H
	DB	0b0H
	DB	00H
	DB	0ffH
	DB	078H
	DB	07cH
	DB	078H
	DB	0ffH
	DB	0b0H
	DB	0acH
	DB	0a0H
	DB	0ffH
	DB	048H
	DB	040H
	DB	028H
	DB	0ffH
	DB	050H
	DB	040H
	DB	028H
	DB	0ffH
	DB	048H
	DB	040H
	DB	028H
	DB	0ffH
	DB	048H
	DB	040H
	DB	028H
	DB	0ffH
	DB	048H
	DB	040H
	DB	020H
	DB	0ffH
	DB	048H
	DB	040H
	DB	020H
	DB	0ffH
	DB	048H
	DB	03cH
	DB	028H
	DB	0ffH
	DB	048H
	DB	040H
	DB	020H
	DB	0ffH
	DB	048H
	DB	040H
	DB	020H
	DB	0ffH
	DB	048H
	DB	03cH
	DB	020H
	DB	0ffH
	DB	048H
	DB	040H
	DB	020H
	DB	0ffH
	DB	048H
	DB	03cH
	DB	020H
	DB	0ffH
	DB	048H
	DB	040H
	DB	020H
	DB	0ffH
	DB	048H
	DB	03cH
	DB	020H
	DB	0ffH
	DB	048H
	DB	040H
	DB	020H
	DB	0ffH
	DB	048H
	DB	03cH
	DB	020H
	DB	0ffH
	DB	048H
	DB	03cH
	DB	028H
	DB	0ffH
	DB	048H
	DB	040H
	DB	020H
	DB	0ffH
	DB	048H
	DB	03cH
	DB	020H
	DB	0ffH
	DB	048H
	DB	040H
	DB	028H
	DB	0ffH
	DB	048H
	DB	03cH
	DB	020H
	DB	0ffH
	DB	048H
	DB	040H
	DB	020H
	DB	0ffH
	DB	048H
	DB	03cH
	DB	020H
	DB	0ffH
	DB	048H
	DB	03cH
	DB	020H
	DB	0ffH
	DB	048H
	DB	040H
	DB	020H
	DB	0ffH
	DB	048H
	DB	03cH
	DB	020H
	DB	0ffH
	DB	048H
	DB	03cH
	DB	020H
	DB	0ffH
	DB	048H
	DB	040H
	DB	020H
	DB	0ffH
	DB	048H
	DB	040H
	DB	020H
	DB	0ffH
	DB	048H
	DB	03cH
	DB	020H
	DB	0ffH
	DB	048H
	DB	040H
	DB	020H
	DB	0ffH
	DB	048H
	DB	03cH
	DB	020H
	DB	0ffH
	DB	048H
	DB	040H
	DB	020H
	DB	0ffH
	DB	048H
	DB	03cH
	DB	020H
	DB	0ffH
	DB	048H
	DB	03cH
	DB	020H
	DB	0ffH
	DB	048H
	DB	040H
	DB	020H
	DB	0ffH
	DB	048H
	DB	03cH
	DB	020H
	DB	0ffH
	DB	048H
	DB	040H
	DB	020H
	DB	0ffH
	DB	048H
	DB	03cH
	DB	020H
	DB	0ffH
	DB	048H
	DB	040H
	DB	020H
	DB	0ffH
	DB	048H
	DB	03cH
	DB	020H
	DB	0ffH
	DB	048H
	DB	03cH
	DB	020H
	DB	0ffH
	DB	048H
	DB	040H
	DB	020H
	DB	0ffH
	DB	048H
	DB	03cH
	DB	020H
	DB	0ffH
	DB	048H
	DB	03cH
	DB	020H
	DB	0ffH
	DB	048H
	DB	040H
	DB	020H
	DB	0ffH
	DB	048H
	DB	03cH
	DB	020H
	DB	0ffH
	DB	048H
	DB	03cH
	DB	020H
	DB	0ffH
	DB	048H
	DB	040H
	DB	020H
	DB	0ffH
	DB	048H
	DB	03cH
	DB	020H
	DB	0ffH
	DB	048H
	DB	03cH
	DB	020H
	DB	0ffH
	DB	048H
	DB	040H
	DB	020H
	DB	0ffH
	DB	048H
	DB	03cH
	DB	020H
	DB	0ffH
	DB	048H
	DB	03cH
	DB	028H
	DB	0ffH
	DB	048H
	DB	03cH
	DB	020H
	DB	0ffH
	DB	048H
	DB	03cH
	DB	020H
	DB	0ffH
	DB	048H
	DB	040H
	DB	028H
	DB	0ffH
	DB	048H
	DB	03cH
	DB	020H
	DB	0ffH
	DB	048H
	DB	03cH
	DB	020H
	DB	0ffH
	DB	048H
	DB	03cH
	DB	020H
	DB	0ffH
	DB	048H
	DB	040H
	DB	020H
	DB	0ffH
	DB	048H
	DB	03cH
	DB	020H
	DB	0ffH
	DB	048H
	DB	03cH
	DB	028H
	DB	0ffH
	DB	048H
	DB	040H
	DB	020H
	DB	0ffH
	DB	048H
	DB	03cH
	DB	020H
	DB	0ffH
	DB	048H
	DB	040H
	DB	020H
	DB	0ffH
	DB	048H
	DB	03cH
	DB	020H
	DB	0ffH
	DB	048H
	DB	040H
	DB	020H
	DB	0ffH
	DB	048H
	DB	03cH
	DB	028H
	DB	0ffH
	DB	048H
	DB	040H
	DB	020H
	DB	0ffH
	DB	048H
	DB	03cH
	DB	020H
	DB	0ffH
	DB	048H
	DB	03cH
	DB	020H
	DB	0ffH
	DB	048H
	DB	040H
	DB	020H
	DB	0ffH
	DB	048H
	DB	03cH
	DB	020H
	DB	0ffH
	DB	048H
	DB	040H
	DB	020H
	DB	0ffH
	DB	048H
	DB	03cH
	DB	020H
	DB	0ffH
	DB	048H
	DB	040H
	DB	020H
	DB	0ffH
	DB	048H
	DB	040H
	DB	020H
	DB	0ffH
	DB	048H
	DB	03cH
	DB	020H
	DB	0ffH
	DB	048H
	DB	040H
	DB	020H
	DB	0ffH
	DB	048H
	DB	03cH
	DB	020H
	DB	0ffH
	DB	048H
	DB	03cH
	DB	020H
	DB	0ffH
	DB	048H
	DB	040H
	DB	020H
	DB	0ffH
	DB	048H
	DB	03cH
	DB	020H
	DB	0ffH
	DB	048H
	DB	03cH
	DB	020H
	DB	0ffH
	DB	048H
	DB	040H
	DB	028H
	DB	0ffH
	DB	048H
	DB	03cH
	DB	020H
	DB	0ffH
	DB	048H
	DB	03cH
	DB	020H
	DB	0ffH
	DB	048H
	DB	040H
	DB	020H
	DB	0ffH
	DB	048H
	DB	03cH
	DB	020H
	DB	0ffH
	DB	048H
	DB	03cH
	DB	020H
	DB	0ffH
	DB	048H
	DB	040H
	DB	020H
	DB	0ffH
	DB	048H
	DB	03cH
	DB	020H
	DB	0ffH
	DB	048H
	DB	03cH
	DB	020H
	DB	0ffH
	DB	048H
	DB	040H
	DB	020H
	DB	0ffH
	DB	048H
	DB	03cH
	DB	020H
	DB	0ffH
	DB	048H
	DB	03cH
	DB	020H
	DB	0ffH
	DB	048H
	DB	040H
	DB	020H
	DB	0ffH
	DB	048H
	DB	03cH
	DB	020H
	DB	0ffH
	DB	048H
	DB	03cH
	DB	020H
	DB	0ffH
	DB	048H
	DB	040H
	DB	020H
	DB	0ffH
	DB	048H
	DB	03cH
	DB	020H
	DB	0ffH
	DB	048H
	DB	03cH
	DB	020H
	DB	0ffH
	DB	048H
	DB	040H
	DB	020H
	DB	0ffH
	DB	048H
	DB	03cH
	DB	020H
	DB	0ffH
	DB	048H
	DB	03cH
	DB	020H
	DB	0ffH
	DB	048H
	DB	040H
	DB	020H
	DB	0ffH
	DB	048H
	DB	03cH
	DB	028H
	DB	0ffH
	DB	048H
	DB	040H
	DB	020H
	DB	0ffH
	DB	048H
	DB	040H
	DB	020H
	DB	0ffH
	DB	048H
	DB	03cH
	DB	020H
	DB	0ffH
	DB	048H
	DB	040H
	DB	020H
	DB	0ffH
	DB	048H
	DB	040H
	DB	020H
	DB	0ffH
	DB	048H
	DB	03cH
	DB	020H
	DB	0ffH
	DB	048H
	DB	040H
	DB	020H
	DB	0ffH
	DB	048H
	DB	040H
	DB	020H
	DB	0ffH
	DB	048H
	DB	03cH
	DB	028H
	DB	0ffH
	DB	048H
	DB	03cH
	DB	020H
	DB	0ffH
	DB	048H
	DB	040H
	DB	020H
	DB	0ffH
	DB	048H
	DB	040H
	DB	020H
	DB	0ffH
	DB	048H
	DB	03cH
	DB	020H
	DB	0ffH
	DB	048H
	DB	040H
	DB	028H
	DB	0ffH
	DB	048H
	DB	03cH
	DB	020H
	DB	0ffH
	DB	048H
	DB	040H
	DB	020H
	DB	0ffH
	DB	048H
	DB	040H
	DB	028H
	DB	0ffH
	DB	048H
	DB	040H
	DB	028H
	DB	0ffH
	DB	048H
	DB	040H
	DB	020H
	DB	0ffH
	DB	048H
	DB	040H
	DB	028H
	DB	0ffH
	DB	050H
	DB	040H
	DB	028H
	DB	0ffH
	DB	048H
	DB	040H
	DB	028H
	DB	0ffH
	DB	0b0H
	DB	0acH
	DB	0a0H
	DB	0ffH
	DB	080H
	DB	07cH
	DB	078H
	DB	0ffH
	DB	0f0H
	DB	0acH
	DB	00H
	DB	0ffH
	DB	0f0H
	DB	0b0H
	DB	00H
	DB	0ffH
	DB	0f0H
	DB	0acH
	DB	00H
	DB	0ffH
	DB	00H
	DB	00H
	DB	00H
	DB	061H
	DB	00H
	DB	00H
	DB	00H
	DB	030H
	DB	00H
	DB	00H
	DB	00H
	DB	010H
	DB	00H
	DB	00H
	DB	00H
	DB	010H
	DB	00H
	DB	00H
	DB	00H
	DB	030H
	DB	00H
	DB	00H
	DB	00H
	DB	061H
	DB	0f0H
	DB	0acH
	DB	00H
	DB	0ffH
	DB	0f0H
	DB	0b0H
	DB	00H
	DB	0ffH
	DB	0f0H
	DB	0acH
	DB	00H
	DB	0ffH
	DB	078H
	DB	07cH
	DB	078H
	DB	0ffH
	DB	0b0H
	DB	0a8H
	DB	0a0H
	DB	0ffH
	DB	048H
	DB	03cH
	DB	020H
	DB	0ffH
	DB	048H
	DB	040H
	DB	020H
	DB	0ffH
	DB	048H
	DB	03cH
	DB	020H
	DB	0ffH
	DB	048H
	DB	03cH
	DB	020H
	DB	0ffH
	DB	048H
	DB	03cH
	DB	020H
	DB	0ffH
	DB	048H
	DB	03cH
	DB	020H
	DB	0ffH
	DB	048H
	DB	03cH
	DB	020H
	DB	0ffH
	DB	048H
	DB	03cH
	DB	020H
	DB	0ffH
	DB	048H
	DB	038H
	DB	020H
	DB	0ffH
	DB	048H
	DB	03cH
	DB	020H
	DB	0ffH
	DB	048H
	DB	03cH
	DB	020H
	DB	0ffH
	DB	048H
	DB	03cH
	DB	020H
	DB	0ffH
	DB	048H
	DB	038H
	DB	020H
	DB	0ffH
	DB	048H
	DB	03cH
	DB	020H
	DB	0ffH
	DB	048H
	DB	03cH
	DB	020H
	DB	0ffH
	DB	048H
	DB	038H
	DB	020H
	DB	0ffH
	DB	048H
	DB	03cH
	DB	020H
	DB	0ffH
	DB	048H
	DB	03cH
	DB	020H
	DB	0ffH
	DB	048H
	DB	038H
	DB	020H
	DB	0ffH
	DB	048H
	DB	03cH
	DB	020H
	DB	0ffH
	DB	048H
	DB	03cH
	DB	020H
	DB	0ffH
	DB	048H
	DB	038H
	DB	020H
	DB	0ffH
	DB	048H
	DB	03cH
	DB	020H
	DB	0ffH
	DB	040H
	DB	03cH
	DB	020H
	DB	0ffH
	DB	048H
	DB	03cH
	DB	020H
	DB	0ffH
	DB	048H
	DB	038H
	DB	020H
	DB	0ffH
	DB	040H
	DB	03cH
	DB	020H
	DB	0ffH
	DB	048H
	DB	03cH
	DB	020H
	DB	0ffH
	DB	048H
	DB	038H
	DB	020H
	DB	0ffH
	DB	040H
	DB	03cH
	DB	020H
	DB	0ffH
	DB	048H
	DB	038H
	DB	020H
	DB	0ffH
	DB	048H
	DB	03cH
	DB	020H
	DB	0ffH
	DB	040H
	DB	03cH
	DB	020H
	DB	0ffH
	DB	048H
	DB	03cH
	DB	020H
	DB	0ffH
	DB	048H
	DB	038H
	DB	020H
	DB	0ffH
	DB	048H
	DB	03cH
	DB	020H
	DB	0ffH
	DB	048H
	DB	03cH
	DB	020H
	DB	0ffH
	DB	040H
	DB	038H
	DB	020H
	DB	0ffH
	DB	048H
	DB	03cH
	DB	020H
	DB	0ffH
	DB	048H
	DB	03cH
	DB	020H
	DB	0ffH
	DB	048H
	DB	038H
	DB	020H
	DB	0ffH
	DB	048H
	DB	03cH
	DB	020H
	DB	0ffH
	DB	048H
	DB	03cH
	DB	020H
	DB	0ffH
	DB	048H
	DB	038H
	DB	020H
	DB	0ffH
	DB	048H
	DB	03cH
	DB	020H
	DB	0ffH
	DB	048H
	DB	03cH
	DB	020H
	DB	0ffH
	DB	048H
	DB	03cH
	DB	020H
	DB	0ffH
	DB	048H
	DB	038H
	DB	020H
	DB	0ffH
	DB	048H
	DB	03cH
	DB	020H
	DB	0ffH
	DB	048H
	DB	03cH
	DB	020H
	DB	0ffH
	DB	048H
	DB	03cH
	DB	020H
	DB	0ffH
	DB	048H
	DB	038H
	DB	020H
	DB	0ffH
	DB	048H
	DB	03cH
	DB	020H
	DB	0ffH
	DB	048H
	DB	03cH
	DB	020H
	DB	0ffH
	DB	048H
	DB	03cH
	DB	020H
	DB	0ffH
	DB	048H
	DB	03cH
	DB	020H
	DB	0ffH
	DB	040H
	DB	03cH
	DB	020H
	DB	0ffH
	DB	048H
	DB	03cH
	DB	020H
	DB	0ffH
	DB	048H
	DB	038H
	DB	020H
	DB	0ffH
	DB	048H
	DB	03cH
	DB	020H
	DB	0ffH
	DB	040H
	DB	03cH
	DB	020H
	DB	0ffH
	DB	048H
	DB	038H
	DB	020H
	DB	0ffH
	DB	048H
	DB	03cH
	DB	020H
	DB	0ffH
	DB	048H
	DB	03cH
	DB	020H
	DB	0ffH
	DB	048H
	DB	03cH
	DB	020H
	DB	0ffH
	DB	048H
	DB	038H
	DB	020H
	DB	0ffH
	DB	048H
	DB	03cH
	DB	020H
	DB	0ffH
	DB	048H
	DB	038H
	DB	020H
	DB	0ffH
	DB	048H
	DB	03cH
	DB	020H
	DB	0ffH
	DB	048H
	DB	03cH
	DB	020H
	DB	0ffH
	DB	048H
	DB	03cH
	DB	020H
	DB	0ffH
	DB	048H
	DB	038H
	DB	020H
	DB	0ffH
	DB	048H
	DB	03cH
	DB	020H
	DB	0ffH
	DB	048H
	DB	03cH
	DB	020H
	DB	0ffH
	DB	040H
	DB	038H
	DB	020H
	DB	0ffH
	DB	048H
	DB	03cH
	DB	020H
	DB	0ffH
	DB	048H
	DB	038H
	DB	020H
	DB	0ffH
	DB	048H
	DB	03cH
	DB	020H
	DB	0ffH
	DB	048H
	DB	038H
	DB	020H
	DB	0ffH
	DB	048H
	DB	03cH
	DB	020H
	DB	0ffH
	DB	048H
	DB	03cH
	DB	020H
	DB	0ffH
	DB	048H
	DB	03cH
	DB	020H
	DB	0ffH
	DB	048H
	DB	03cH
	DB	020H
	DB	0ffH
	DB	048H
	DB	038H
	DB	020H
	DB	0ffH
	DB	048H
	DB	03cH
	DB	020H
	DB	0ffH
	DB	048H
	DB	03cH
	DB	020H
	DB	0ffH
	DB	048H
	DB	03cH
	DB	020H
	DB	0ffH
	DB	048H
	DB	03cH
	DB	020H
	DB	0ffH
	DB	048H
	DB	03cH
	DB	020H
	DB	0ffH
	DB	048H
	DB	038H
	DB	020H
	DB	0ffH
	DB	048H
	DB	03cH
	DB	020H
	DB	0ffH
	DB	040H
	DB	03cH
	DB	020H
	DB	0ffH
	DB	048H
	DB	038H
	DB	020H
	DB	0ffH
	DB	048H
	DB	03cH
	DB	020H
	DB	0ffH
	DB	048H
	DB	03cH
	DB	020H
	DB	0ffH
	DB	048H
	DB	03cH
	DB	020H
	DB	0ffH
	DB	048H
	DB	038H
	DB	020H
	DB	0ffH
	DB	048H
	DB	03cH
	DB	020H
	DB	0ffH
	DB	048H
	DB	03cH
	DB	020H
	DB	0ffH
	DB	048H
	DB	03cH
	DB	020H
	DB	0ffH
	DB	048H
	DB	03cH
	DB	020H
	DB	0ffH
	DB	048H
	DB	038H
	DB	020H
	DB	0ffH
	DB	048H
	DB	03cH
	DB	020H
	DB	0ffH
	DB	048H
	DB	03cH
	DB	020H
	DB	0ffH
	DB	048H
	DB	038H
	DB	020H
	DB	0ffH
	DB	048H
	DB	03cH
	DB	020H
	DB	0ffH
	DB	048H
	DB	03cH
	DB	020H
	DB	0ffH
	DB	048H
	DB	038H
	DB	020H
	DB	0ffH
	DB	048H
	DB	03cH
	DB	020H
	DB	0ffH
	DB	040H
	DB	038H
	DB	020H
	DB	0ffH
	DB	048H
	DB	03cH
	DB	020H
	DB	0ffH
	DB	048H
	DB	03cH
	DB	020H
	DB	0ffH
	DB	048H
	DB	038H
	DB	020H
	DB	0ffH
	DB	048H
	DB	038H
	DB	020H
	DB	0ffH
	DB	048H
	DB	03cH
	DB	020H
	DB	0ffH
	DB	040H
	DB	03cH
	DB	020H
	DB	0ffH
	DB	048H
	DB	038H
	DB	020H
	DB	0ffH
	DB	048H
	DB	03cH
	DB	020H
	DB	0ffH
	DB	048H
	DB	03cH
	DB	020H
	DB	0ffH
	DB	040H
	DB	038H
	DB	020H
	DB	0ffH
	DB	048H
	DB	03cH
	DB	020H
	DB	0ffH
	DB	048H
	DB	038H
	DB	020H
	DB	0ffH
	DB	048H
	DB	03cH
	DB	020H
	DB	0ffH
	DB	048H
	DB	03cH
	DB	020H
	DB	0ffH
	DB	048H
	DB	03cH
	DB	020H
	DB	0ffH
	DB	048H
	DB	03cH
	DB	020H
	DB	0ffH
	DB	048H
	DB	03cH
	DB	020H
	DB	0ffH
	DB	048H
	DB	03cH
	DB	020H
	DB	0ffH
	DB	048H
	DB	040H
	DB	028H
	DB	0ffH
	DB	048H
	DB	03cH
	DB	020H
	DB	0ffH
	DB	0b0H
	DB	0a8H
	DB	0a0H
	DB	0ffH
	DB	078H
	DB	078H
	DB	078H
	DB	0ffH
	DB	0f0H
	DB	0b0H
	DB	00H
	DB	0ffH
	DB	0f0H
	DB	0acH
	DB	00H
	DB	0ffH
	DB	0f0H
	DB	0acH
	DB	00H
	DB	0ffH
	DB	00H
	DB	00H
	DB	00H
	DB	061H
	DB	00H
	DB	00H
	DB	00H
	DB	030H
	DB	00H
	DB	00H
	DB	00H
	DB	010H
	DB	00H
	DB	00H
	DB	00H
	DB	010H
	DB	00H
	DB	00H
	DB	00H
	DB	030H
	DB	00H
	DB	00H
	DB	00H
	DB	061H
	DB	0f0H
	DB	0b0H
	DB	00H
	DB	0ffH
	DB	0f0H
	DB	0acH
	DB	00H
	DB	0ffH
	DB	0f0H
	DB	0acH
	DB	00H
	DB	0ffH
	DB	078H
	DB	078H
	DB	078H
	DB	0ffH
	DB	0b0H
	DB	0a8H
	DB	098H
	DB	0ffH
	DB	048H
	DB	03cH
	DB	020H
	DB	0ffH
	DB	048H
	DB	03cH
	DB	020H
	DB	0ffH
	DB	040H
	DB	03cH
	DB	020H
	DB	0ffH
	DB	048H
	DB	038H
	DB	020H
	DB	0ffH
	DB	040H
	DB	038H
	DB	020H
	DB	0ffH
	DB	040H
	DB	038H
	DB	020H
	DB	0ffH
	DB	040H
	DB	038H
	DB	018H
	DB	0ffH
	DB	040H
	DB	038H
	DB	020H
	DB	0ffH
	DB	040H
	DB	038H
	DB	018H
	DB	0ffH
	DB	040H
	DB	038H
	DB	020H
	DB	0ffH
	DB	040H
	DB	038H
	DB	018H
	DB	0ffH
	DB	040H
	DB	038H
	DB	020H
	DB	0ffH
	DB	040H
	DB	038H
	DB	018H
	DB	0ffH
	DB	040H
	DB	038H
	DB	018H
	DB	0ffH
	DB	040H
	DB	038H
	DB	020H
	DB	0ffH
	DB	040H
	DB	038H
	DB	018H
	DB	0ffH
	DB	040H
	DB	038H
	DB	018H
	DB	0ffH
	DB	040H
	DB	038H
	DB	018H
	DB	0ffH
	DB	040H
	DB	038H
	DB	018H
	DB	0ffH
	DB	040H
	DB	038H
	DB	018H
	DB	0ffH
	DB	040H
	DB	038H
	DB	018H
	DB	0ffH
	DB	040H
	DB	038H
	DB	020H
	DB	0ffH
	DB	040H
	DB	038H
	DB	018H
	DB	0ffH
	DB	040H
	DB	038H
	DB	018H
	DB	0ffH
	DB	040H
	DB	038H
	DB	020H
	DB	0ffH
	DB	040H
	DB	038H
	DB	018H
	DB	0ffH
	DB	040H
	DB	038H
	DB	018H
	DB	0ffH
	DB	040H
	DB	038H
	DB	020H
	DB	0ffH
	DB	040H
	DB	038H
	DB	018H
	DB	0ffH
	DB	040H
	DB	038H
	DB	018H
	DB	0ffH
	DB	040H
	DB	038H
	DB	020H
	DB	0ffH
	DB	040H
	DB	038H
	DB	018H
	DB	0ffH
	DB	040H
	DB	038H
	DB	018H
	DB	0ffH
	DB	040H
	DB	038H
	DB	020H
	DB	0ffH
	DB	040H
	DB	038H
	DB	018H
	DB	0ffH
	DB	040H
	DB	038H
	DB	020H
	DB	0ffH
	DB	040H
	DB	038H
	DB	018H
	DB	0ffH
	DB	040H
	DB	038H
	DB	020H
	DB	0ffH
	DB	040H
	DB	038H
	DB	018H
	DB	0ffH
	DB	040H
	DB	038H
	DB	020H
	DB	0ffH
	DB	040H
	DB	038H
	DB	018H
	DB	0ffH
	DB	040H
	DB	038H
	DB	018H
	DB	0ffH
	DB	040H
	DB	038H
	DB	020H
	DB	0ffH
	DB	040H
	DB	038H
	DB	018H
	DB	0ffH
	DB	040H
	DB	038H
	DB	018H
	DB	0ffH
	DB	040H
	DB	038H
	DB	020H
	DB	0ffH
	DB	040H
	DB	038H
	DB	018H
	DB	0ffH
	DB	040H
	DB	038H
	DB	018H
	DB	0ffH
	DB	040H
	DB	038H
	DB	020H
	DB	0ffH
	DB	040H
	DB	038H
	DB	018H
	DB	0ffH
	DB	040H
	DB	038H
	DB	018H
	DB	0ffH
	DB	040H
	DB	038H
	DB	020H
	DB	0ffH
	DB	040H
	DB	038H
	DB	018H
	DB	0ffH
	DB	040H
	DB	038H
	DB	018H
	DB	0ffH
	DB	040H
	DB	038H
	DB	020H
	DB	0ffH
	DB	040H
	DB	038H
	DB	018H
	DB	0ffH
	DB	040H
	DB	038H
	DB	018H
	DB	0ffH
	DB	040H
	DB	038H
	DB	018H
	DB	0ffH
	DB	040H
	DB	038H
	DB	020H
	DB	0ffH
	DB	040H
	DB	038H
	DB	018H
	DB	0ffH
	DB	040H
	DB	038H
	DB	018H
	DB	0ffH
	DB	040H
	DB	038H
	DB	020H
	DB	0ffH
	DB	040H
	DB	038H
	DB	018H
	DB	0ffH
	DB	040H
	DB	038H
	DB	020H
	DB	0ffH
	DB	040H
	DB	038H
	DB	018H
	DB	0ffH
	DB	040H
	DB	038H
	DB	018H
	DB	0ffH
	DB	040H
	DB	038H
	DB	020H
	DB	0ffH
	DB	040H
	DB	038H
	DB	018H
	DB	0ffH
	DB	040H
	DB	038H
	DB	018H
	DB	0ffH
	DB	040H
	DB	038H
	DB	018H
	DB	0ffH
	DB	040H
	DB	038H
	DB	018H
	DB	0ffH
	DB	040H
	DB	038H
	DB	020H
	DB	0ffH
	DB	040H
	DB	038H
	DB	018H
	DB	0ffH
	DB	040H
	DB	038H
	DB	018H
	DB	0ffH
	DB	040H
	DB	038H
	DB	020H
	DB	0ffH
	DB	040H
	DB	038H
	DB	018H
	DB	0ffH
	DB	040H
	DB	038H
	DB	018H
	DB	0ffH
	DB	040H
	DB	038H
	DB	020H
	DB	0ffH
	DB	040H
	DB	038H
	DB	018H
	DB	0ffH
	DB	040H
	DB	038H
	DB	020H
	DB	0ffH
	DB	040H
	DB	038H
	DB	018H
	DB	0ffH
	DB	040H
	DB	038H
	DB	018H
	DB	0ffH
	DB	040H
	DB	038H
	DB	020H
	DB	0ffH
	DB	040H
	DB	038H
	DB	018H
	DB	0ffH
	DB	040H
	DB	038H
	DB	018H
	DB	0ffH
	DB	040H
	DB	038H
	DB	018H
	DB	0ffH
	DB	040H
	DB	038H
	DB	018H
	DB	0ffH
	DB	040H
	DB	038H
	DB	020H
	DB	0ffH
	DB	040H
	DB	038H
	DB	018H
	DB	0ffH
	DB	040H
	DB	038H
	DB	020H
	DB	0ffH
	DB	040H
	DB	038H
	DB	020H
	DB	0ffH
	DB	040H
	DB	038H
	DB	018H
	DB	0ffH
	DB	040H
	DB	038H
	DB	020H
	DB	0ffH
	DB	040H
	DB	038H
	DB	018H
	DB	0ffH
	DB	040H
	DB	038H
	DB	018H
	DB	0ffH
	DB	040H
	DB	038H
	DB	020H
	DB	0ffH
	DB	040H
	DB	038H
	DB	018H
	DB	0ffH
	DB	040H
	DB	038H
	DB	020H
	DB	0ffH
	DB	040H
	DB	038H
	DB	018H
	DB	0ffH
	DB	040H
	DB	038H
	DB	020H
	DB	0ffH
	DB	040H
	DB	038H
	DB	018H
	DB	0ffH
	DB	040H
	DB	038H
	DB	020H
	DB	0ffH
	DB	040H
	DB	038H
	DB	018H
	DB	0ffH
	DB	040H
	DB	038H
	DB	020H
	DB	0ffH
	DB	040H
	DB	038H
	DB	018H
	DB	0ffH
	DB	040H
	DB	038H
	DB	018H
	DB	0ffH
	DB	040H
	DB	038H
	DB	020H
	DB	0ffH
	DB	040H
	DB	038H
	DB	018H
	DB	0ffH
	DB	040H
	DB	038H
	DB	018H
	DB	0ffH
	DB	040H
	DB	038H
	DB	020H
	DB	0ffH
	DB	040H
	DB	038H
	DB	018H
	DB	0ffH
	DB	040H
	DB	038H
	DB	020H
	DB	0ffH
	DB	040H
	DB	038H
	DB	018H
	DB	0ffH
	DB	040H
	DB	038H
	DB	020H
	DB	0ffH
	DB	040H
	DB	038H
	DB	018H
	DB	0ffH
	DB	040H
	DB	038H
	DB	018H
	DB	0ffH
	DB	040H
	DB	038H
	DB	018H
	DB	0ffH
	DB	040H
	DB	038H
	DB	018H
	DB	0ffH
	DB	040H
	DB	038H
	DB	020H
	DB	0ffH
	DB	040H
	DB	038H
	DB	018H
	DB	0ffH
	DB	040H
	DB	038H
	DB	018H
	DB	0ffH
	DB	040H
	DB	038H
	DB	018H
	DB	0ffH
	DB	040H
	DB	038H
	DB	020H
	DB	0ffH
	DB	040H
	DB	038H
	DB	020H
	DB	0ffH
	DB	040H
	DB	038H
	DB	018H
	DB	0ffH
	DB	040H
	DB	038H
	DB	020H
	DB	0ffH
	DB	040H
	DB	038H
	DB	020H
	DB	0ffH
	DB	048H
	DB	03cH
	DB	020H
	DB	0ffH
	DB	048H
	DB	03cH
	DB	020H
	DB	0ffH
	DB	040H
	DB	03cH
	DB	020H
	DB	0ffH
	DB	0b0H
	DB	0a8H
	DB	098H
	DB	0ffH
	DB	078H
	DB	078H
	DB	078H
	DB	0ffH
	DB	0f0H
	DB	0b0H
	DB	00H
	DB	0ffH
	DB	0f0H
	DB	0b0H
	DB	00H
	DB	0ffH
	DB	0e8H
	DB	0acH
	DB	00H
	DB	0ffH
	DB	00H
	DB	00H
	DB	00H
	DB	061H
	DB	00H
	DB	00H
	DB	00H
	DB	030H
	DB	00H
	DB	00H
	DB	00H
	DB	010H
	DB	00H
	DB	00H
	DB	00H
	DB	010H
	DB	00H
	DB	00H
	DB	00H
	DB	030H
	DB	00H
	DB	00H
	DB	00H
	DB	05dH
	DB	0f0H
	DB	0acH
	DB	00H
	DB	0ffH
	DB	0f0H
	DB	0b0H
	DB	00H
	DB	0ffH
	DB	0f0H
	DB	0b0H
	DB	00H
	DB	0ffH
	DB	070H
	DB	074H
	DB	078H
	DB	0ffH
	DB	0a8H
	DB	0a8H
	DB	098H
	DB	0ffH
	DB	040H
	DB	038H
	DB	020H
	DB	0ffH
	DB	040H
	DB	038H
	DB	020H
	DB	0ffH
	DB	040H
	DB	038H
	DB	020H
	DB	0ffH
	DB	040H
	DB	034H
	DB	018H
	DB	0ffH
	DB	040H
	DB	034H
	DB	018H
	DB	0ffH
	DB	040H
	DB	034H
	DB	018H
	DB	0ffH
	DB	040H
	DB	034H
	DB	018H
	DB	0ffH
	DB	040H
	DB	034H
	DB	018H
	DB	0ffH
	DB	040H
	DB	030H
	DB	018H
	DB	0ffH
	DB	040H
	DB	034H
	DB	018H
	DB	0ffH
	DB	040H
	DB	030H
	DB	018H
	DB	0ffH
	DB	040H
	DB	030H
	DB	018H
	DB	0ffH
	DB	038H
	DB	034H
	DB	018H
	DB	0ffH
	DB	040H
	DB	030H
	DB	018H
	DB	0ffH
	DB	040H
	DB	034H
	DB	018H
	DB	0ffH
	DB	038H
	DB	034H
	DB	018H
	DB	0ffH
	DB	040H
	DB	030H
	DB	018H
	DB	0ffH
	DB	040H
	DB	034H
	DB	018H
	DB	0ffH
	DB	038H
	DB	030H
	DB	018H
	DB	0ffH
	DB	040H
	DB	034H
	DB	018H
	DB	0ffH
	DB	040H
	DB	030H
	DB	018H
	DB	0ffH
	DB	040H
	DB	034H
	DB	018H
	DB	0ffH
	DB	040H
	DB	030H
	DB	018H
	DB	0ffH
	DB	040H
	DB	030H
	DB	018H
	DB	0ffH
	DB	040H
	DB	034H
	DB	018H
	DB	0ffH
	DB	040H
	DB	034H
	DB	018H
	DB	0ffH
	DB	040H
	DB	030H
	DB	018H
	DB	0ffH
	DB	040H
	DB	034H
	DB	018H
	DB	0ffH
	DB	040H
	DB	030H
	DB	018H
	DB	0ffH
	DB	040H
	DB	034H
	DB	018H
	DB	0ffH
	DB	040H
	DB	034H
	DB	018H
	DB	0ffH
	DB	040H
	DB	030H
	DB	018H
	DB	0ffH
	DB	040H
	DB	030H
	DB	018H
	DB	0ffH
	DB	040H
	DB	034H
	DB	018H
	DB	0ffH
	DB	038H
	DB	034H
	DB	018H
	DB	0ffH
	DB	040H
	DB	030H
	DB	018H
	DB	0ffH
	DB	040H
	DB	034H
	DB	018H
	DB	0ffH
	DB	040H
	DB	034H
	DB	018H
	DB	0ffH
	DB	040H
	DB	030H
	DB	018H
	DB	0ffH
	DB	040H
	DB	034H
	DB	018H
	DB	0ffH
	DB	040H
	DB	034H
	DB	018H
	DB	0ffH
	DB	040H
	DB	030H
	DB	018H
	DB	0ffH
	DB	038H
	DB	034H
	DB	018H
	DB	0ffH
	DB	040H
	DB	034H
	DB	018H
	DB	0ffH
	DB	040H
	DB	030H
	DB	018H
	DB	0ffH
	DB	040H
	DB	034H
	DB	018H
	DB	0ffH
	DB	038H
	DB	034H
	DB	018H
	DB	0ffH
	DB	040H
	DB	030H
	DB	018H
	DB	0ffH
	DB	040H
	DB	034H
	DB	018H
	DB	0ffH
	DB	038H
	DB	030H
	DB	018H
	DB	0ffH
	DB	040H
	DB	034H
	DB	018H
	DB	0ffH
	DB	040H
	DB	034H
	DB	018H
	DB	0ffH
	DB	038H
	DB	030H
	DB	018H
	DB	0ffH
	DB	040H
	DB	034H
	DB	018H
	DB	0ffH
	DB	040H
	DB	030H
	DB	018H
	DB	0ffH
	DB	038H
	DB	030H
	DB	018H
	DB	0ffH
	DB	040H
	DB	034H
	DB	018H
	DB	0ffH
	DB	040H
	DB	030H
	DB	018H
	DB	0ffH
	DB	040H
	DB	034H
	DB	018H
	DB	0ffH
	DB	040H
	DB	034H
	DB	018H
	DB	0ffH
	DB	040H
	DB	030H
	DB	018H
	DB	0ffH
	DB	040H
	DB	034H
	DB	018H
	DB	0ffH
	DB	040H
	DB	034H
	DB	018H
	DB	0ffH
	DB	038H
	DB	030H
	DB	018H
	DB	0ffH
	DB	040H
	DB	034H
	DB	018H
	DB	0ffH
	DB	040H
	DB	034H
	DB	018H
	DB	0ffH
	DB	038H
	DB	030H
	DB	018H
	DB	0ffH
	DB	040H
	DB	034H
	DB	018H
	DB	0ffH
	DB	040H
	DB	030H
	DB	018H
	DB	0ffH
	DB	040H
	DB	030H
	DB	018H
	DB	0ffH
	DB	038H
	DB	034H
	DB	018H
	DB	0ffH
	DB	040H
	DB	034H
	DB	018H
	DB	0ffH
	DB	040H
	DB	030H
	DB	018H
	DB	0ffH
	DB	040H
	DB	034H
	DB	018H
	DB	0ffH
	DB	040H
	DB	034H
	DB	018H
	DB	0ffH
	DB	040H
	DB	034H
	DB	018H
	DB	0ffH
	DB	038H
	DB	030H
	DB	018H
	DB	0ffH
	DB	040H
	DB	034H
	DB	018H
	DB	0ffH
	DB	040H
	DB	034H
	DB	018H
	DB	0ffH
	DB	038H
	DB	030H
	DB	018H
	DB	0ffH
	DB	040H
	DB	030H
	DB	018H
	DB	0ffH
	DB	038H
	DB	034H
	DB	018H
	DB	0ffH
	DB	040H
	DB	030H
	DB	018H
	DB	0ffH
	DB	040H
	DB	034H
	DB	018H
	DB	0ffH
	DB	038H
	DB	030H
	DB	018H
	DB	0ffH
	DB	040H
	DB	030H
	DB	018H
	DB	0ffH
	DB	040H
	DB	034H
	DB	018H
	DB	0ffH
	DB	040H
	DB	030H
	DB	018H
	DB	0ffH
	DB	038H
	DB	034H
	DB	018H
	DB	0ffH
	DB	040H
	DB	034H
	DB	018H
	DB	0ffH
	DB	040H
	DB	030H
	DB	018H
	DB	0ffH
	DB	040H
	DB	034H
	DB	018H
	DB	0ffH
	DB	040H
	DB	034H
	DB	018H
	DB	0ffH
	DB	040H
	DB	030H
	DB	018H
	DB	0ffH
	DB	038H
	DB	034H
	DB	018H
	DB	0ffH
	DB	040H
	DB	030H
	DB	018H
	DB	0ffH
	DB	040H
	DB	034H
	DB	018H
	DB	0ffH
	DB	038H
	DB	030H
	DB	018H
	DB	0ffH
	DB	040H
	DB	030H
	DB	018H
	DB	0ffH
	DB	040H
	DB	034H
	DB	018H
	DB	0ffH
	DB	038H
	DB	030H
	DB	018H
	DB	0ffH
	DB	040H
	DB	034H
	DB	018H
	DB	0ffH
	DB	040H
	DB	034H
	DB	018H
	DB	0ffH
	DB	038H
	DB	030H
	DB	018H
	DB	0ffH
	DB	040H
	DB	034H
	DB	018H
	DB	0ffH
	DB	040H
	DB	034H
	DB	018H
	DB	0ffH
	DB	040H
	DB	030H
	DB	018H
	DB	0ffH
	DB	038H
	DB	034H
	DB	018H
	DB	0ffH
	DB	040H
	DB	034H
	DB	018H
	DB	0ffH
	DB	040H
	DB	030H
	DB	018H
	DB	0ffH
	DB	040H
	DB	034H
	DB	018H
	DB	0ffH
	DB	040H
	DB	034H
	DB	018H
	DB	0ffH
	DB	040H
	DB	034H
	DB	018H
	DB	0ffH
	DB	038H
	DB	030H
	DB	018H
	DB	0ffH
	DB	040H
	DB	034H
	DB	018H
	DB	0ffH
	DB	040H
	DB	030H
	DB	018H
	DB	0ffH
	DB	040H
	DB	034H
	DB	018H
	DB	0ffH
	DB	040H
	DB	034H
	DB	018H
	DB	0ffH
	DB	040H
	DB	030H
	DB	018H
	DB	0ffH
	DB	040H
	DB	034H
	DB	018H
	DB	0ffH
	DB	040H
	DB	034H
	DB	018H
	DB	0ffH
	DB	040H
	DB	030H
	DB	018H
	DB	0ffH
	DB	040H
	DB	034H
	DB	018H
	DB	0ffH
	DB	040H
	DB	034H
	DB	018H
	DB	0ffH
	DB	040H
	DB	034H
	DB	018H
	DB	0ffH
	DB	040H
	DB	034H
	DB	018H
	DB	0ffH
	DB	040H
	DB	034H
	DB	018H
	DB	0ffH
	DB	040H
	DB	038H
	DB	020H
	DB	0ffH
	DB	040H
	DB	038H
	DB	020H
	DB	0ffH
	DB	040H
	DB	038H
	DB	018H
	DB	0ffH
	DB	0a8H
	DB	0a8H
	DB	098H
	DB	0ffH
	DB	078H
	DB	074H
	DB	078H
	DB	0ffH
	DB	0f0H
	DB	0acH
	DB	00H
	DB	0ffH
	DB	0f0H
	DB	0b0H
	DB	00H
	DB	0ffH
	DB	0f0H
	DB	0b0H
	DB	00H
	DB	0ffH
	DB	00H
	DB	00H
	DB	00H
	DB	061H
	DB	00H
	DB	00H
	DB	00H
	DB	030H
	DB	00H
	DB	00H
	DB	00H
	DB	010H
	DB	00H
	DB	00H
	DB	00H
	DB	010H
	DB	00H
	DB	00H
	DB	00H
	DB	030H
	DB	00H
	DB	00H
	DB	00H
	DB	061H
	DB	0f0H
	DB	0acH
	DB	00H
	DB	0ffH
	DB	0f0H
	DB	0b0H
	DB	00H
	DB	0ffH
	DB	0f0H
	DB	0b0H
	DB	00H
	DB	0ffH
	DB	070H
	DB	074H
	DB	078H
	DB	0ffH
	DB	0a8H
	DB	0a4H
	DB	090H
	DB	0ffH
	DB	040H
	DB	034H
	DB	018H
	DB	0ffH
	DB	040H
	DB	038H
	DB	018H
	DB	0ffH
	DB	040H
	DB	034H
	DB	018H
	DB	0ffH
	DB	040H
	DB	034H
	DB	018H
	DB	0ffH
	DB	038H
	DB	030H
	DB	018H
	DB	0ffH
	DB	038H
	DB	030H
	DB	018H
	DB	0ffH
	DB	038H
	DB	030H
	DB	018H
	DB	0ffH
	DB	038H
	DB	030H
	DB	010H
	DB	0ffH
	DB	038H
	DB	030H
	DB	018H
	DB	0ffH
	DB	038H
	DB	030H
	DB	010H
	DB	0ffH
	DB	038H
	DB	030H
	DB	018H
	DB	0ffH
	DB	038H
	DB	030H
	DB	018H
	DB	0ffH
	DB	038H
	DB	030H
	DB	010H
	DB	0ffH
	DB	038H
	DB	030H
	DB	018H
	DB	0ffH
	DB	038H
	DB	030H
	DB	018H
	DB	0ffH
	DB	038H
	DB	030H
	DB	010H
	DB	0ffH
	DB	038H
	DB	030H
	DB	018H
	DB	0ffH
	DB	038H
	DB	02cH
	DB	018H
	DB	0ffH
	DB	038H
	DB	030H
	DB	018H
	DB	0ffH
	DB	038H
	DB	030H
	DB	018H
	DB	0ffH
	DB	038H
	DB	030H
	DB	010H
	DB	0ffH
	DB	038H
	DB	030H
	DB	018H
	DB	0ffH
	DB	038H
	DB	030H
	DB	018H
	DB	0ffH
	DB	038H
	DB	030H
	DB	010H
	DB	0ffH
	DB	038H
	DB	030H
	DB	018H
	DB	0ffH
	DB	038H
	DB	030H
	DB	018H
	DB	0ffH
	DB	038H
	DB	030H
	DB	010H
	DB	0ffH
	DB	038H
	DB	030H
	DB	018H
	DB	0ffH
	DB	038H
	DB	030H
	DB	010H
	DB	0ffH
	DB	038H
	DB	030H
	DB	018H
	DB	0ffH
	DB	038H
	DB	030H
	DB	010H
	DB	0ffH
	DB	038H
	DB	030H
	DB	018H
	DB	0ffH
	DB	038H
	DB	030H
	DB	018H
	DB	0ffH
	DB	038H
	DB	030H
	DB	010H
	DB	0ffH
	DB	038H
	DB	030H
	DB	018H
	DB	0ffH
	DB	038H
	DB	02cH
	DB	010H
	DB	0ffH
	DB	038H
	DB	030H
	DB	018H
	DB	0ffH
	DB	038H
	DB	030H
	DB	010H
	DB	0ffH
	DB	038H
	DB	030H
	DB	018H
	DB	0ffH
	DB	038H
	DB	030H
	DB	010H
	DB	0ffH
	DB	038H
	DB	030H
	DB	018H
	DB	0ffH
	DB	038H
	DB	030H
	DB	018H
	DB	0ffH
	DB	038H
	DB	030H
	DB	010H
	DB	0ffH
	DB	038H
	DB	030H
	DB	018H
	DB	0ffH
	DB	038H
	DB	030H
	DB	018H
	DB	0ffH
	DB	038H
	DB	030H
	DB	010H
	DB	0ffH
	DB	038H
	DB	030H
	DB	018H
	DB	0ffH
	DB	038H
	DB	030H
	DB	018H
	DB	0ffH
	DB	038H
	DB	030H
	DB	010H
	DB	0ffH
	DB	038H
	DB	030H
	DB	018H
	DB	0ffH
	DB	038H
	DB	030H
	DB	018H
	DB	0ffH
	DB	038H
	DB	030H
	DB	010H
	DB	0ffH
	DB	038H
	DB	030H
	DB	018H
	DB	0ffH
	DB	038H
	DB	030H
	DB	018H
	DB	0ffH
	DB	038H
	DB	030H
	DB	010H
	DB	0ffH
	DB	038H
	DB	030H
	DB	018H
	DB	0ffH
	DB	038H
	DB	030H
	DB	018H
	DB	0ffH
	DB	038H
	DB	030H
	DB	010H
	DB	0ffH
	DB	038H
	DB	030H
	DB	018H
	DB	0ffH
	DB	038H
	DB	030H
	DB	018H
	DB	0ffH
	DB	038H
	DB	030H
	DB	010H
	DB	0ffH
	DB	038H
	DB	030H
	DB	018H
	DB	0ffH
	DB	038H
	DB	030H
	DB	010H
	DB	0ffH
	DB	038H
	DB	02cH
	DB	010H
	DB	0ffH
	DB	038H
	DB	030H
	DB	018H
	DB	0ffH
	DB	038H
	DB	030H
	DB	018H
	DB	0ffH
	DB	038H
	DB	030H
	DB	010H
	DB	0ffH
	DB	038H
	DB	030H
	DB	018H
	DB	0ffH
	DB	038H
	DB	030H
	DB	018H
	DB	0ffH
	DB	038H
	DB	030H
	DB	018H
	DB	0ffH
	DB	038H
	DB	030H
	DB	010H
	DB	0ffH
	DB	038H
	DB	030H
	DB	018H
	DB	0ffH
	DB	038H
	DB	030H
	DB	018H
	DB	0ffH
	DB	038H
	DB	030H
	DB	010H
	DB	0ffH
	DB	038H
	DB	030H
	DB	018H
	DB	0ffH
	DB	038H
	DB	030H
	DB	018H
	DB	0ffH
	DB	038H
	DB	030H
	DB	010H
	DB	0ffH
	DB	038H
	DB	030H
	DB	018H
	DB	0ffH
	DB	038H
	DB	030H
	DB	010H
	DB	0ffH
	DB	038H
	DB	030H
	DB	018H
	DB	0ffH
	DB	038H
	DB	030H
	DB	018H
	DB	0ffH
	DB	038H
	DB	030H
	DB	010H
	DB	0ffH
	DB	038H
	DB	030H
	DB	018H
	DB	0ffH
	DB	038H
	DB	030H
	DB	018H
	DB	0ffH
	DB	038H
	DB	030H
	DB	018H
	DB	0ffH
	DB	038H
	DB	030H
	DB	018H
	DB	0ffH
	DB	038H
	DB	030H
	DB	010H
	DB	0ffH
	DB	038H
	DB	030H
	DB	018H
	DB	0ffH
	DB	038H
	DB	030H
	DB	010H
	DB	0ffH
	DB	038H
	DB	030H
	DB	010H
	DB	0ffH
	DB	038H
	DB	030H
	DB	018H
	DB	0ffH
	DB	038H
	DB	030H
	DB	010H
	DB	0ffH
	DB	038H
	DB	030H
	DB	018H
	DB	0ffH
	DB	038H
	DB	030H
	DB	018H
	DB	0ffH
	DB	038H
	DB	030H
	DB	010H
	DB	0ffH
	DB	038H
	DB	030H
	DB	018H
	DB	0ffH
	DB	038H
	DB	030H
	DB	010H
	DB	0ffH
	DB	038H
	DB	030H
	DB	018H
	DB	0ffH
	DB	038H
	DB	030H
	DB	010H
	DB	0ffH
	DB	038H
	DB	030H
	DB	010H
	DB	0ffH
	DB	038H
	DB	030H
	DB	018H
	DB	0ffH
	DB	038H
	DB	030H
	DB	010H
	DB	0ffH
	DB	038H
	DB	030H
	DB	018H
	DB	0ffH
	DB	038H
	DB	030H
	DB	010H
	DB	0ffH
	DB	038H
	DB	02cH
	DB	018H
	DB	0ffH
	DB	038H
	DB	030H
	DB	018H
	DB	0ffH
	DB	038H
	DB	030H
	DB	010H
	DB	0ffH
	DB	038H
	DB	030H
	DB	018H
	DB	0ffH
	DB	038H
	DB	030H
	DB	018H
	DB	0ffH
	DB	038H
	DB	030H
	DB	010H
	DB	0ffH
	DB	038H
	DB	030H
	DB	010H
	DB	0ffH
	DB	038H
	DB	030H
	DB	018H
	DB	0ffH
	DB	038H
	DB	030H
	DB	010H
	DB	0ffH
	DB	038H
	DB	030H
	DB	010H
	DB	0ffH
	DB	038H
	DB	030H
	DB	018H
	DB	0ffH
	DB	038H
	DB	030H
	DB	018H
	DB	0ffH
	DB	038H
	DB	030H
	DB	018H
	DB	0ffH
	DB	038H
	DB	030H
	DB	010H
	DB	0ffH
	DB	038H
	DB	030H
	DB	018H
	DB	0ffH
	DB	038H
	DB	030H
	DB	018H
	DB	0ffH
	DB	038H
	DB	030H
	DB	018H
	DB	0ffH
	DB	038H
	DB	030H
	DB	010H
	DB	0ffH
	DB	038H
	DB	030H
	DB	018H
	DB	0ffH
	DB	038H
	DB	030H
	DB	010H
	DB	0ffH
	DB	038H
	DB	030H
	DB	018H
	DB	0ffH
	DB	040H
	DB	030H
	DB	018H
	DB	0ffH
	DB	040H
	DB	034H
	DB	018H
	DB	0ffH
	DB	040H
	DB	034H
	DB	018H
	DB	0ffH
	DB	040H
	DB	038H
	DB	018H
	DB	0ffH
	DB	040H
	DB	034H
	DB	018H
	DB	0ffH
	DB	0a8H
	DB	0a4H
	DB	098H
	DB	0ffH
	DB	078H
	DB	074H
	DB	078H
	DB	0ffH
	DB	0f0H
	DB	0b0H
	DB	00H
	DB	0ffH
	DB	0f0H
	DB	0acH
	DB	00H
	DB	0ffH
	DB	0f0H
	DB	0acH
	DB	00H
	DB	0ffH
	DB	00H
	DB	00H
	DB	00H
	DB	061H
	DB	00H
	DB	00H
	DB	00H
	DB	030H
	DB	00H
	DB	00H
	DB	00H
	DB	010H
	DB	00H
	DB	00H
	DB	00H
	DB	010H
	DB	00H
	DB	00H
	DB	00H
	DB	030H
	DB	00H
	DB	00H
	DB	00H
	DB	061H
	DB	0f0H
	DB	0acH
	DB	00H
	DB	0ffH
	DB	0f0H
	DB	0acH
	DB	00H
	DB	0ffH
	DB	0f0H
	DB	0b0H
	DB	00H
	DB	0ffH
	DB	070H
	DB	074H
	DB	070H
	DB	0ffH
	DB	0a8H
	DB	0a4H
	DB	090H
	DB	0ffH
	DB	040H
	DB	034H
	DB	018H
	DB	0ffH
	DB	040H
	DB	034H
	DB	018H
	DB	0ffH
	DB	038H
	DB	030H
	DB	018H
	DB	0ffH
	DB	038H
	DB	030H
	DB	018H
	DB	0ffH
	DB	038H
	DB	030H
	DB	010H
	DB	0ffH
	DB	038H
	DB	02cH
	DB	010H
	DB	0ffH
	DB	038H
	DB	02cH
	DB	010H
	DB	0ffH
	DB	038H
	DB	02cH
	DB	010H
	DB	0ffH
	DB	038H
	DB	02cH
	DB	010H
	DB	0ffH
	DB	038H
	DB	02cH
	DB	010H
	DB	0ffH
	DB	038H
	DB	02cH
	DB	010H
	DB	0ffH
	DB	038H
	DB	02cH
	DB	010H
	DB	0ffH
	DB	038H
	DB	02cH
	DB	010H
	DB	0ffH
	DB	038H
	DB	02cH
	DB	010H
	DB	0ffH
	DB	038H
	DB	02cH
	DB	010H
	DB	0ffH
	DB	038H
	DB	02cH
	DB	010H
	DB	0ffH
	DB	038H
	DB	02cH
	DB	010H
	DB	0ffH
	DB	038H
	DB	02cH
	DB	010H
	DB	0ffH
	DB	038H
	DB	02cH
	DB	010H
	DB	0ffH
	DB	038H
	DB	02cH
	DB	010H
	DB	0ffH
	DB	038H
	DB	02cH
	DB	010H
	DB	0ffH
	DB	038H
	DB	02cH
	DB	010H
	DB	0ffH
	DB	038H
	DB	02cH
	DB	010H
	DB	0ffH
	DB	038H
	DB	02cH
	DB	010H
	DB	0ffH
	DB	038H
	DB	02cH
	DB	010H
	DB	0ffH
	DB	038H
	DB	02cH
	DB	010H
	DB	0ffH
	DB	038H
	DB	02cH
	DB	010H
	DB	0ffH
	DB	038H
	DB	02cH
	DB	010H
	DB	0ffH
	DB	038H
	DB	02cH
	DB	010H
	DB	0ffH
	DB	038H
	DB	02cH
	DB	010H
	DB	0ffH
	DB	038H
	DB	02cH
	DB	010H
	DB	0ffH
	DB	038H
	DB	02cH
	DB	010H
	DB	0ffH
	DB	038H
	DB	02cH
	DB	010H
	DB	0ffH
	DB	038H
	DB	02cH
	DB	010H
	DB	0ffH
	DB	038H
	DB	02cH
	DB	010H
	DB	0ffH
	DB	038H
	DB	02cH
	DB	010H
	DB	0ffH
	DB	038H
	DB	02cH
	DB	010H
	DB	0ffH
	DB	038H
	DB	02cH
	DB	010H
	DB	0ffH
	DB	038H
	DB	02cH
	DB	010H
	DB	0ffH
	DB	038H
	DB	02cH
	DB	010H
	DB	0ffH
	DB	038H
	DB	02cH
	DB	010H
	DB	0ffH
	DB	038H
	DB	02cH
	DB	010H
	DB	0ffH
	DB	038H
	DB	02cH
	DB	010H
	DB	0ffH
	DB	038H
	DB	02cH
	DB	010H
	DB	0ffH
	DB	038H
	DB	02cH
	DB	010H
	DB	0ffH
	DB	038H
	DB	02cH
	DB	010H
	DB	0ffH
	DB	038H
	DB	02cH
	DB	010H
	DB	0ffH
	DB	038H
	DB	02cH
	DB	010H
	DB	0ffH
	DB	038H
	DB	02cH
	DB	010H
	DB	0ffH
	DB	038H
	DB	02cH
	DB	010H
	DB	0ffH
	DB	038H
	DB	02cH
	DB	010H
	DB	0ffH
	DB	038H
	DB	02cH
	DB	010H
	DB	0ffH
	DB	038H
	DB	02cH
	DB	010H
	DB	0ffH
	DB	038H
	DB	02cH
	DB	010H
	DB	0ffH
	DB	038H
	DB	02cH
	DB	010H
	DB	0ffH
	DB	038H
	DB	02cH
	DB	010H
	DB	0ffH
	DB	038H
	DB	02cH
	DB	010H
	DB	0ffH
	DB	038H
	DB	02cH
	DB	010H
	DB	0ffH
	DB	038H
	DB	02cH
	DB	010H
	DB	0ffH
	DB	038H
	DB	02cH
	DB	010H
	DB	0ffH
	DB	038H
	DB	02cH
	DB	010H
	DB	0ffH
	DB	038H
	DB	02cH
	DB	010H
	DB	0ffH
	DB	038H
	DB	02cH
	DB	010H
	DB	0ffH
	DB	038H
	DB	02cH
	DB	010H
	DB	0ffH
	DB	038H
	DB	02cH
	DB	010H
	DB	0ffH
	DB	038H
	DB	02cH
	DB	010H
	DB	0ffH
	DB	038H
	DB	02cH
	DB	010H
	DB	0ffH
	DB	038H
	DB	02cH
	DB	010H
	DB	0ffH
	DB	038H
	DB	02cH
	DB	010H
	DB	0ffH
	DB	038H
	DB	02cH
	DB	010H
	DB	0ffH
	DB	038H
	DB	02cH
	DB	010H
	DB	0ffH
	DB	038H
	DB	02cH
	DB	010H
	DB	0ffH
	DB	038H
	DB	02cH
	DB	010H
	DB	0ffH
	DB	038H
	DB	02cH
	DB	010H
	DB	0ffH
	DB	038H
	DB	02cH
	DB	010H
	DB	0ffH
	DB	038H
	DB	02cH
	DB	010H
	DB	0ffH
	DB	038H
	DB	02cH
	DB	010H
	DB	0ffH
	DB	038H
	DB	02cH
	DB	010H
	DB	0ffH
	DB	038H
	DB	02cH
	DB	010H
	DB	0ffH
	DB	038H
	DB	02cH
	DB	010H
	DB	0ffH
	DB	038H
	DB	02cH
	DB	010H
	DB	0ffH
	DB	038H
	DB	02cH
	DB	010H
	DB	0ffH
	DB	038H
	DB	02cH
	DB	010H
	DB	0ffH
	DB	038H
	DB	02cH
	DB	010H
	DB	0ffH
	DB	038H
	DB	02cH
	DB	010H
	DB	0ffH
	DB	038H
	DB	02cH
	DB	010H
	DB	0ffH
	DB	038H
	DB	02cH
	DB	010H
	DB	0ffH
	DB	038H
	DB	02cH
	DB	010H
	DB	0ffH
	DB	038H
	DB	02cH
	DB	010H
	DB	0ffH
	DB	038H
	DB	02cH
	DB	010H
	DB	0ffH
	DB	038H
	DB	02cH
	DB	010H
	DB	0ffH
	DB	038H
	DB	02cH
	DB	010H
	DB	0ffH
	DB	038H
	DB	02cH
	DB	010H
	DB	0ffH
	DB	038H
	DB	02cH
	DB	010H
	DB	0ffH
	DB	038H
	DB	02cH
	DB	010H
	DB	0ffH
	DB	038H
	DB	02cH
	DB	010H
	DB	0ffH
	DB	038H
	DB	02cH
	DB	010H
	DB	0ffH
	DB	038H
	DB	02cH
	DB	010H
	DB	0ffH
	DB	038H
	DB	02cH
	DB	010H
	DB	0ffH
	DB	038H
	DB	02cH
	DB	010H
	DB	0ffH
	DB	038H
	DB	02cH
	DB	010H
	DB	0ffH
	DB	038H
	DB	02cH
	DB	010H
	DB	0ffH
	DB	038H
	DB	02cH
	DB	010H
	DB	0ffH
	DB	038H
	DB	02cH
	DB	010H
	DB	0ffH
	DB	038H
	DB	02cH
	DB	010H
	DB	0ffH
	DB	038H
	DB	02cH
	DB	010H
	DB	0ffH
	DB	038H
	DB	02cH
	DB	010H
	DB	0ffH
	DB	038H
	DB	02cH
	DB	010H
	DB	0ffH
	DB	038H
	DB	02cH
	DB	010H
	DB	0ffH
	DB	038H
	DB	02cH
	DB	010H
	DB	0ffH
	DB	038H
	DB	02cH
	DB	010H
	DB	0ffH
	DB	038H
	DB	02cH
	DB	010H
	DB	0ffH
	DB	038H
	DB	02cH
	DB	010H
	DB	0ffH
	DB	038H
	DB	02cH
	DB	010H
	DB	0ffH
	DB	038H
	DB	02cH
	DB	010H
	DB	0ffH
	DB	038H
	DB	02cH
	DB	010H
	DB	0ffH
	DB	038H
	DB	02cH
	DB	010H
	DB	0ffH
	DB	038H
	DB	02cH
	DB	010H
	DB	0ffH
	DB	038H
	DB	02cH
	DB	010H
	DB	0ffH
	DB	038H
	DB	02cH
	DB	010H
	DB	0ffH
	DB	038H
	DB	02cH
	DB	010H
	DB	0ffH
	DB	038H
	DB	02cH
	DB	010H
	DB	0ffH
	DB	038H
	DB	02cH
	DB	010H
	DB	0ffH
	DB	038H
	DB	02cH
	DB	010H
	DB	0ffH
	DB	038H
	DB	02cH
	DB	010H
	DB	0ffH
	DB	038H
	DB	030H
	DB	010H
	DB	0ffH
	DB	038H
	DB	030H
	DB	018H
	DB	0ffH
	DB	038H
	DB	030H
	DB	018H
	DB	0ffH
	DB	040H
	DB	034H
	DB	018H
	DB	0ffH
	DB	040H
	DB	034H
	DB	018H
	DB	0ffH
	DB	0a8H
	DB	0a4H
	DB	090H
	DB	0ffH
	DB	070H
	DB	074H
	DB	070H
	DB	0ffH
	DB	0f0H
	DB	0b0H
	DB	00H
	DB	0ffH
	DB	0f0H
	DB	0acH
	DB	00H
	DB	0ffH
	DB	0f0H
	DB	0b0H
	DB	00H
	DB	0ffH
	DB	00H
	DB	00H
	DB	00H
	DB	05dH
	DB	00H
	DB	00H
	DB	00H
	DB	030H
	DB	00H
	DB	00H
	DB	00H
	DB	010H
	DB	00H
	DB	00H
	DB	00H
	DB	010H
	DB	00H
	DB	00H
	DB	00H
	DB	030H
	DB	00H
	DB	00H
	DB	00H
	DB	061H
	DB	0f0H
	DB	0b0H
	DB	00H
	DB	0ffH
	DB	0f0H
	DB	0acH
	DB	00H
	DB	0ffH
	DB	0f0H
	DB	0acH
	DB	00H
	DB	0ffH
	DB	070H
	DB	070H
	DB	070H
	DB	0ffH
	DB	0a8H
	DB	0a0H
	DB	090H
	DB	0ffH
	DB	038H
	DB	030H
	DB	018H
	DB	0ffH
	DB	040H
	DB	030H
	DB	018H
	DB	0ffH
	DB	038H
	DB	030H
	DB	010H
	DB	0ffH
	DB	038H
	DB	02cH
	DB	010H
	DB	0ffH
	DB	038H
	DB	02cH
	DB	010H
	DB	0ffH
	DB	038H
	DB	02cH
	DB	010H
	DB	0ffH
	DB	030H
	DB	028H
	DB	010H
	DB	0ffH
	DB	030H
	DB	028H
	DB	010H
	DB	0ffH
	DB	030H
	DB	028H
	DB	010H
	DB	0ffH
	DB	030H
	DB	028H
	DB	010H
	DB	0ffH
	DB	030H
	DB	028H
	DB	08H
	DB	0ffH
	DB	030H
	DB	028H
	DB	010H
	DB	0ffH
	DB	030H
	DB	028H
	DB	010H
	DB	0ffH
	DB	030H
	DB	028H
	DB	08H
	DB	0ffH
	DB	030H
	DB	028H
	DB	010H
	DB	0ffH
	DB	030H
	DB	028H
	DB	010H
	DB	0ffH
	DB	030H
	DB	028H
	DB	08H
	DB	0ffH
	DB	030H
	DB	028H
	DB	010H
	DB	0ffH
	DB	030H
	DB	028H
	DB	08H
	DB	0ffH
	DB	030H
	DB	028H
	DB	010H
	DB	0ffH
	DB	030H
	DB	028H
	DB	010H
	DB	0ffH
	DB	030H
	DB	028H
	DB	08H
	DB	0ffH
	DB	030H
	DB	028H
	DB	010H
	DB	0ffH
	DB	030H
	DB	028H
	DB	010H
	DB	0ffH
	DB	030H
	DB	028H
	DB	08H
	DB	0ffH
	DB	030H
	DB	028H
	DB	010H
	DB	0ffH
	DB	030H
	DB	028H
	DB	010H
	DB	0ffH
	DB	030H
	DB	028H
	DB	08H
	DB	0ffH
	DB	030H
	DB	028H
	DB	010H
	DB	0ffH
	DB	030H
	DB	028H
	DB	010H
	DB	0ffH
	DB	030H
	DB	028H
	DB	010H
	DB	0ffH
	DB	030H
	DB	028H
	DB	08H
	DB	0ffH
	DB	030H
	DB	028H
	DB	010H
	DB	0ffH
	DB	030H
	DB	028H
	DB	010H
	DB	0ffH
	DB	030H
	DB	028H
	DB	08H
	DB	0ffH
	DB	030H
	DB	028H
	DB	010H
	DB	0ffH
	DB	030H
	DB	028H
	DB	010H
	DB	0ffH
	DB	030H
	DB	028H
	DB	010H
	DB	0ffH
	DB	030H
	DB	028H
	DB	08H
	DB	0ffH
	DB	030H
	DB	028H
	DB	010H
	DB	0ffH
	DB	030H
	DB	028H
	DB	010H
	DB	0ffH
	DB	030H
	DB	028H
	DB	08H
	DB	0ffH
	DB	030H
	DB	028H
	DB	010H
	DB	0ffH
	DB	030H
	DB	028H
	DB	010H
	DB	0ffH
	DB	030H
	DB	028H
	DB	08H
	DB	0ffH
	DB	030H
	DB	028H
	DB	010H
	DB	0ffH
	DB	030H
	DB	028H
	DB	010H
	DB	0ffH
	DB	030H
	DB	028H
	DB	08H
	DB	0ffH
	DB	030H
	DB	028H
	DB	010H
	DB	0ffH
	DB	030H
	DB	028H
	DB	010H
	DB	0ffH
	DB	030H
	DB	028H
	DB	08H
	DB	0ffH
	DB	030H
	DB	028H
	DB	010H
	DB	0ffH
	DB	030H
	DB	028H
	DB	08H
	DB	0ffH
	DB	030H
	DB	028H
	DB	010H
	DB	0ffH
	DB	030H
	DB	028H
	DB	010H
	DB	0ffH
	DB	030H
	DB	028H
	DB	08H
	DB	0ffH
	DB	030H
	DB	028H
	DB	010H
	DB	0ffH
	DB	030H
	DB	028H
	DB	010H
	DB	0ffH
	DB	030H
	DB	028H
	DB	08H
	DB	0ffH
	DB	030H
	DB	028H
	DB	010H
	DB	0ffH
	DB	030H
	DB	028H
	DB	010H
	DB	0ffH
	DB	030H
	DB	028H
	DB	010H
	DB	0ffH
	DB	030H
	DB	028H
	DB	010H
	DB	0ffH
	DB	030H
	DB	028H
	DB	010H
	DB	0ffH
	DB	030H
	DB	028H
	DB	08H
	DB	0ffH
	DB	030H
	DB	028H
	DB	010H
	DB	0ffH
	DB	030H
	DB	028H
	DB	010H
	DB	0ffH
	DB	030H
	DB	028H
	DB	08H
	DB	0ffH
	DB	030H
	DB	028H
	DB	08H
	DB	0ffH
	DB	030H
	DB	028H
	DB	010H
	DB	0ffH
	DB	030H
	DB	028H
	DB	010H
	DB	0ffH
	DB	030H
	DB	028H
	DB	08H
	DB	0ffH
	DB	030H
	DB	028H
	DB	010H
	DB	0ffH
	DB	030H
	DB	028H
	DB	010H
	DB	0ffH
	DB	030H
	DB	028H
	DB	08H
	DB	0ffH
	DB	030H
	DB	028H
	DB	010H
	DB	0ffH
	DB	030H
	DB	028H
	DB	010H
	DB	0ffH
	DB	030H
	DB	028H
	DB	08H
	DB	0ffH
	DB	030H
	DB	028H
	DB	010H
	DB	0ffH
	DB	030H
	DB	028H
	DB	010H
	DB	0ffH
	DB	030H
	DB	028H
	DB	08H
	DB	0ffH
	DB	030H
	DB	028H
	DB	010H
	DB	0ffH
	DB	030H
	DB	028H
	DB	08H
	DB	0ffH
	DB	030H
	DB	028H
	DB	08H
	DB	0ffH
	DB	030H
	DB	028H
	DB	010H
	DB	0ffH
	DB	030H
	DB	028H
	DB	08H
	DB	0ffH
	DB	030H
	DB	028H
	DB	010H
	DB	0ffH
	DB	030H
	DB	028H
	DB	010H
	DB	0ffH
	DB	030H
	DB	028H
	DB	010H
	DB	0ffH
	DB	030H
	DB	028H
	DB	010H
	DB	0ffH
	DB	030H
	DB	028H
	DB	010H
	DB	0ffH
	DB	030H
	DB	028H
	DB	08H
	DB	0ffH
	DB	030H
	DB	028H
	DB	010H
	DB	0ffH
	DB	030H
	DB	028H
	DB	010H
	DB	0ffH
	DB	030H
	DB	028H
	DB	08H
	DB	0ffH
	DB	030H
	DB	028H
	DB	010H
	DB	0ffH
	DB	030H
	DB	028H
	DB	010H
	DB	0ffH
	DB	030H
	DB	028H
	DB	010H
	DB	0ffH
	DB	030H
	DB	028H
	DB	010H
	DB	0ffH
	DB	030H
	DB	028H
	DB	010H
	DB	0ffH
	DB	030H
	DB	028H
	DB	010H
	DB	0ffH
	DB	030H
	DB	028H
	DB	010H
	DB	0ffH
	DB	030H
	DB	028H
	DB	08H
	DB	0ffH
	DB	030H
	DB	028H
	DB	010H
	DB	0ffH
	DB	030H
	DB	028H
	DB	010H
	DB	0ffH
	DB	030H
	DB	028H
	DB	08H
	DB	0ffH
	DB	030H
	DB	028H
	DB	010H
	DB	0ffH
	DB	030H
	DB	028H
	DB	010H
	DB	0ffH
	DB	030H
	DB	028H
	DB	08H
	DB	0ffH
	DB	030H
	DB	028H
	DB	010H
	DB	0ffH
	DB	030H
	DB	028H
	DB	010H
	DB	0ffH
	DB	030H
	DB	028H
	DB	010H
	DB	0ffH
	DB	030H
	DB	028H
	DB	010H
	DB	0ffH
	DB	030H
	DB	028H
	DB	010H
	DB	0ffH
	DB	030H
	DB	028H
	DB	08H
	DB	0ffH
	DB	030H
	DB	028H
	DB	010H
	DB	0ffH
	DB	030H
	DB	028H
	DB	010H
	DB	0ffH
	DB	030H
	DB	028H
	DB	08H
	DB	0ffH
	DB	030H
	DB	028H
	DB	010H
	DB	0ffH
	DB	030H
	DB	028H
	DB	08H
	DB	0ffH
	DB	030H
	DB	028H
	DB	010H
	DB	0ffH
	DB	030H
	DB	028H
	DB	010H
	DB	0ffH
	DB	030H
	DB	028H
	DB	010H
	DB	0ffH
	DB	030H
	DB	028H
	DB	010H
	DB	0ffH
	DB	038H
	DB	02cH
	DB	010H
	DB	0ffH
	DB	038H
	DB	02cH
	DB	010H
	DB	0ffH
	DB	038H
	DB	02cH
	DB	010H
	DB	0ffH
	DB	038H
	DB	030H
	DB	010H
	DB	0ffH
	DB	038H
	DB	034H
	DB	018H
	DB	0ffH
	DB	038H
	DB	030H
	DB	018H
	DB	0ffH
	DB	0a8H
	DB	0a0H
	DB	088H
	DB	0ffH
	DB	070H
	DB	070H
	DB	070H
	DB	0ffH
	DB	0f0H
	DB	0acH
	DB	00H
	DB	0ffH
	DB	0f0H
	DB	0b0H
	DB	00H
	DB	0ffH
	DB	0f0H
	DB	0b0H
	DB	00H
	DB	0ffH
	DB	00H
	DB	00H
	DB	00H
	DB	061H
	DB	00H
	DB	00H
	DB	00H
	DB	030H
	DB	00H
	DB	00H
	DB	00H
	DB	010H
	DB	00H
	DB	00H
	DB	00H
	DB	010H
	DB	00H
	DB	00H
	DB	00H
	DB	030H
	DB	00H
	DB	00H
	DB	00H
	DB	061H
	DB	0f0H
	DB	0b0H
	DB	00H
	DB	0ffH
	DB	0f0H
	DB	0b0H
	DB	00H
	DB	0ffH
	DB	0f0H
	DB	0acH
	DB	00H
	DB	0ffH
	DB	070H
	DB	070H
	DB	070H
	DB	0ffH
	DB	0a8H
	DB	0a0H
	DB	088H
	DB	0ffH
	DB	038H
	DB	02cH
	DB	010H
	DB	0ffH
	DB	038H
	DB	030H
	DB	018H
	DB	0ffH
	DB	038H
	DB	02cH
	DB	010H
	DB	0ffH
	DB	030H
	DB	02cH
	DB	010H
	DB	0ffH
	DB	030H
	DB	028H
	DB	010H
	DB	0ffH
	DB	030H
	DB	028H
	DB	08H
	DB	0ffH
	DB	030H
	DB	028H
	DB	08H
	DB	0ffH
	DB	030H
	DB	024H
	DB	08H
	DB	0ffH
	DB	030H
	DB	024H
	DB	08H
	DB	0ffH
	DB	030H
	DB	024H
	DB	08H
	DB	0ffH
	DB	030H
	DB	024H
	DB	08H
	DB	0ffH
	DB	030H
	DB	024H
	DB	08H
	DB	0ffH
	DB	030H
	DB	024H
	DB	08H
	DB	0ffH
	DB	030H
	DB	024H
	DB	08H
	DB	0ffH
	DB	030H
	DB	024H
	DB	08H
	DB	0ffH
	DB	030H
	DB	024H
	DB	08H
	DB	0ffH
	DB	030H
	DB	024H
	DB	08H
	DB	0ffH
	DB	030H
	DB	024H
	DB	08H
	DB	0ffH
	DB	030H
	DB	024H
	DB	08H
	DB	0ffH
	DB	030H
	DB	024H
	DB	08H
	DB	0ffH
	DB	030H
	DB	024H
	DB	08H
	DB	0ffH
	DB	030H
	DB	024H
	DB	08H
	DB	0ffH
	DB	030H
	DB	024H
	DB	08H
	DB	0ffH
	DB	030H
	DB	024H
	DB	08H
	DB	0ffH
	DB	030H
	DB	024H
	DB	08H
	DB	0ffH
	DB	030H
	DB	024H
	DB	08H
	DB	0ffH
	DB	030H
	DB	024H
	DB	08H
	DB	0ffH
	DB	030H
	DB	024H
	DB	08H
	DB	0ffH
	DB	030H
	DB	024H
	DB	08H
	DB	0ffH
	DB	030H
	DB	024H
	DB	08H
	DB	0ffH
	DB	030H
	DB	024H
	DB	08H
	DB	0ffH
	DB	030H
	DB	024H
	DB	08H
	DB	0ffH
	DB	030H
	DB	024H
	DB	08H
	DB	0ffH
	DB	030H
	DB	024H
	DB	08H
	DB	0ffH
	DB	030H
	DB	024H
	DB	08H
	DB	0ffH
	DB	030H
	DB	024H
	DB	08H
	DB	0ffH
	DB	030H
	DB	024H
	DB	08H
	DB	0ffH
	DB	030H
	DB	024H
	DB	08H
	DB	0ffH
	DB	030H
	DB	024H
	DB	08H
	DB	0ffH
	DB	030H
	DB	024H
	DB	08H
	DB	0ffH
	DB	030H
	DB	024H
	DB	08H
	DB	0ffH
	DB	030H
	DB	024H
	DB	08H
	DB	0ffH
	DB	030H
	DB	024H
	DB	08H
	DB	0ffH
	DB	030H
	DB	024H
	DB	08H
	DB	0ffH
	DB	030H
	DB	024H
	DB	08H
	DB	0ffH
	DB	030H
	DB	024H
	DB	08H
	DB	0ffH
	DB	030H
	DB	024H
	DB	08H
	DB	0ffH
	DB	030H
	DB	024H
	DB	08H
	DB	0ffH
	DB	030H
	DB	024H
	DB	08H
	DB	0ffH
	DB	030H
	DB	024H
	DB	08H
	DB	0ffH
	DB	030H
	DB	024H
	DB	08H
	DB	0ffH
	DB	030H
	DB	024H
	DB	08H
	DB	0ffH
	DB	030H
	DB	024H
	DB	08H
	DB	0ffH
	DB	030H
	DB	024H
	DB	08H
	DB	0ffH
	DB	030H
	DB	024H
	DB	08H
	DB	0ffH
	DB	030H
	DB	024H
	DB	08H
	DB	0ffH
	DB	030H
	DB	024H
	DB	08H
	DB	0ffH
	DB	030H
	DB	024H
	DB	08H
	DB	0ffH
	DB	030H
	DB	024H
	DB	08H
	DB	0ffH
	DB	030H
	DB	024H
	DB	08H
	DB	0ffH
	DB	030H
	DB	024H
	DB	08H
	DB	0ffH
	DB	030H
	DB	024H
	DB	08H
	DB	0ffH
	DB	030H
	DB	024H
	DB	08H
	DB	0ffH
	DB	030H
	DB	024H
	DB	08H
	DB	0ffH
	DB	030H
	DB	024H
	DB	08H
	DB	0ffH
	DB	030H
	DB	024H
	DB	08H
	DB	0ffH
	DB	030H
	DB	024H
	DB	08H
	DB	0ffH
	DB	030H
	DB	024H
	DB	08H
	DB	0ffH
	DB	030H
	DB	024H
	DB	08H
	DB	0ffH
	DB	030H
	DB	024H
	DB	08H
	DB	0ffH
	DB	030H
	DB	024H
	DB	08H
	DB	0ffH
	DB	030H
	DB	024H
	DB	08H
	DB	0ffH
	DB	030H
	DB	024H
	DB	08H
	DB	0ffH
	DB	030H
	DB	024H
	DB	08H
	DB	0ffH
	DB	030H
	DB	024H
	DB	08H
	DB	0ffH
	DB	030H
	DB	024H
	DB	08H
	DB	0ffH
	DB	030H
	DB	024H
	DB	08H
	DB	0ffH
	DB	030H
	DB	024H
	DB	08H
	DB	0ffH
	DB	030H
	DB	024H
	DB	08H
	DB	0ffH
	DB	030H
	DB	024H
	DB	08H
	DB	0ffH
	DB	030H
	DB	024H
	DB	08H
	DB	0ffH
	DB	030H
	DB	024H
	DB	08H
	DB	0ffH
	DB	030H
	DB	024H
	DB	08H
	DB	0ffH
	DB	030H
	DB	024H
	DB	08H
	DB	0ffH
	DB	030H
	DB	024H
	DB	08H
	DB	0ffH
	DB	030H
	DB	024H
	DB	08H
	DB	0ffH
	DB	030H
	DB	024H
	DB	08H
	DB	0ffH
	DB	030H
	DB	024H
	DB	08H
	DB	0ffH
	DB	030H
	DB	024H
	DB	08H
	DB	0ffH
	DB	030H
	DB	024H
	DB	08H
	DB	0ffH
	DB	030H
	DB	024H
	DB	08H
	DB	0ffH
	DB	030H
	DB	024H
	DB	08H
	DB	0ffH
	DB	030H
	DB	024H
	DB	08H
	DB	0ffH
	DB	030H
	DB	024H
	DB	08H
	DB	0ffH
	DB	030H
	DB	024H
	DB	08H
	DB	0ffH
	DB	030H
	DB	024H
	DB	08H
	DB	0ffH
	DB	030H
	DB	024H
	DB	08H
	DB	0ffH
	DB	030H
	DB	024H
	DB	08H
	DB	0ffH
	DB	030H
	DB	024H
	DB	08H
	DB	0ffH
	DB	030H
	DB	024H
	DB	08H
	DB	0ffH
	DB	030H
	DB	024H
	DB	08H
	DB	0ffH
	DB	030H
	DB	024H
	DB	08H
	DB	0ffH
	DB	030H
	DB	024H
	DB	08H
	DB	0ffH
	DB	030H
	DB	024H
	DB	08H
	DB	0ffH
	DB	030H
	DB	024H
	DB	08H
	DB	0ffH
	DB	030H
	DB	024H
	DB	08H
	DB	0ffH
	DB	030H
	DB	024H
	DB	08H
	DB	0ffH
	DB	030H
	DB	024H
	DB	08H
	DB	0ffH
	DB	030H
	DB	024H
	DB	08H
	DB	0ffH
	DB	030H
	DB	024H
	DB	08H
	DB	0ffH
	DB	030H
	DB	024H
	DB	08H
	DB	0ffH
	DB	030H
	DB	024H
	DB	08H
	DB	0ffH
	DB	030H
	DB	024H
	DB	08H
	DB	0ffH
	DB	030H
	DB	024H
	DB	08H
	DB	0ffH
	DB	030H
	DB	024H
	DB	08H
	DB	0ffH
	DB	030H
	DB	024H
	DB	08H
	DB	0ffH
	DB	030H
	DB	024H
	DB	08H
	DB	0ffH
	DB	030H
	DB	024H
	DB	08H
	DB	0ffH
	DB	030H
	DB	024H
	DB	08H
	DB	0ffH
	DB	030H
	DB	024H
	DB	08H
	DB	0ffH
	DB	030H
	DB	024H
	DB	08H
	DB	0ffH
	DB	030H
	DB	024H
	DB	08H
	DB	0ffH
	DB	030H
	DB	024H
	DB	08H
	DB	0ffH
	DB	030H
	DB	028H
	DB	08H
	DB	0ffH
	DB	030H
	DB	028H
	DB	010H
	DB	0ffH
	DB	030H
	DB	028H
	DB	010H
	DB	0ffH
	DB	030H
	DB	028H
	DB	010H
	DB	0ffH
	DB	038H
	DB	02cH
	DB	010H
	DB	0ffH
	DB	038H
	DB	030H
	DB	018H
	DB	0ffH
	DB	038H
	DB	030H
	DB	010H
	DB	0ffH
	DB	0a8H
	DB	0a0H
	DB	088H
	DB	0ffH
	DB	070H
	DB	070H
	DB	070H
	DB	0ffH
	DB	0f0H
	DB	0acH
	DB	00H
	DB	0ffH
	DB	0f0H
	DB	0acH
	DB	00H
	DB	0ffH
	DB	0f0H
	DB	0acH
	DB	00H
	DB	0ffH
	DB	00H
	DB	00H
	DB	00H
	DB	061H
	DB	00H
	DB	00H
	DB	00H
	DB	030H
	DB	00H
	DB	00H
	DB	00H
	DB	010H
	DB	00H
	DB	00H
	DB	00H
	DB	010H
	DB	00H
	DB	00H
	DB	00H
	DB	030H
	DB	00H
	DB	00H
	DB	00H
	DB	05dH
	DB	0f0H
	DB	0acH
	DB	00H
	DB	0ffH
	DB	0f0H
	DB	0b0H
	DB	00H
	DB	0ffH
	DB	0f0H
	DB	0b0H
	DB	00H
	DB	0ffH
	DB	070H
	DB	06cH
	DB	070H
	DB	0ffH
	DB	0a8H
	DB	0a0H
	DB	080H
	DB	0ffH
	DB	038H
	DB	02cH
	DB	010H
	DB	0ffH
	DB	038H
	DB	030H
	DB	010H
	DB	0ffH
	DB	030H
	DB	028H
	DB	010H
	DB	0ffH
	DB	030H
	DB	028H
	DB	010H
	DB	0ffH
	DB	030H
	DB	024H
	DB	010H
	DB	0ffH
	DB	030H
	DB	024H
	DB	08H
	DB	0ffH
	DB	030H
	DB	024H
	DB	08H
	DB	0ffH
	DB	030H
	DB	024H
	DB	08H
	DB	0ffH
	DB	028H
	DB	024H
	DB	08H
	DB	0ffH
	DB	030H
	DB	024H
	DB	08H
	DB	0ffH
	DB	030H
	DB	024H
	DB	08H
	DB	0ffH
	DB	028H
	DB	024H
	DB	08H
	DB	0ffH
	DB	030H
	DB	024H
	DB	08H
	DB	0ffH
	DB	028H
	DB	020H
	DB	08H
	DB	0ffH
	DB	030H
	DB	024H
	DB	08H
	DB	0ffH
	DB	030H
	DB	024H
	DB	08H
	DB	0ffH
	DB	030H
	DB	020H
	DB	08H
	DB	0ffH
	DB	030H
	DB	024H
	DB	08H
	DB	0ffH
	DB	028H
	DB	024H
	DB	08H
	DB	0ffH
	DB	030H
	DB	024H
	DB	08H
	DB	0ffH
	DB	030H
	DB	024H
	DB	08H
	DB	0ffH
	DB	028H
	DB	024H
	DB	08H
	DB	0ffH
	DB	030H
	DB	024H
	DB	08H
	DB	0ffH
	DB	030H
	DB	024H
	DB	08H
	DB	0ffH
	DB	028H
	DB	024H
	DB	08H
	DB	0ffH
	DB	030H
	DB	024H
	DB	08H
	DB	0ffH
	DB	028H
	DB	020H
	DB	08H
	DB	0ffH
	DB	030H
	DB	024H
	DB	08H
	DB	0ffH
	DB	028H
	DB	024H
	DB	08H
	DB	0ffH
	DB	030H
	DB	020H
	DB	08H
	DB	0ffH
	DB	028H
	DB	024H
	DB	08H
	DB	0ffH
	DB	030H
	DB	024H
	DB	08H
	DB	0ffH
	DB	030H
	DB	020H
	DB	08H
	DB	0ffH
	DB	028H
	DB	024H
	DB	08H
	DB	0ffH
	DB	030H
	DB	024H
	DB	08H
	DB	0ffH
	DB	030H
	DB	024H
	DB	08H
	DB	0ffH
	DB	028H
	DB	020H
	DB	08H
	DB	0ffH
	DB	030H
	DB	024H
	DB	08H
	DB	0ffH
	DB	030H
	DB	024H
	DB	08H
	DB	0ffH
	DB	028H
	DB	020H
	DB	08H
	DB	0ffH
	DB	030H
	DB	024H
	DB	08H
	DB	0ffH
	DB	030H
	DB	024H
	DB	08H
	DB	0ffH
	DB	028H
	DB	020H
	DB	08H
	DB	0ffH
	DB	030H
	DB	024H
	DB	08H
	DB	0ffH
	DB	030H
	DB	020H
	DB	08H
	DB	0ffH
	DB	028H
	DB	024H
	DB	08H
	DB	0ffH
	DB	030H
	DB	024H
	DB	08H
	DB	0ffH
	DB	030H
	DB	020H
	DB	08H
	DB	0ffH
	DB	030H
	DB	024H
	DB	08H
	DB	0ffH
	DB	028H
	DB	024H
	DB	08H
	DB	0ffH
	DB	030H
	DB	020H
	DB	08H
	DB	0ffH
	DB	030H
	DB	024H
	DB	08H
	DB	0ffH
	DB	030H
	DB	024H
	DB	08H
	DB	0ffH
	DB	030H
	DB	020H
	DB	08H
	DB	0ffH
	DB	030H
	DB	024H
	DB	08H
	DB	0ffH
	DB	028H
	DB	024H
	DB	08H
	DB	0ffH
	DB	030H
	DB	020H
	DB	08H
	DB	0ffH
	DB	030H
	DB	024H
	DB	08H
	DB	0ffH
	DB	028H
	DB	024H
	DB	08H
	DB	0ffH
	DB	030H
	DB	020H
	DB	08H
	DB	0ffH
	DB	030H
	DB	024H
	DB	08H
	DB	0ffH
	DB	028H
	DB	024H
	DB	08H
	DB	0ffH
	DB	030H
	DB	020H
	DB	08H
	DB	0ffH
	DB	030H
	DB	024H
	DB	08H
	DB	0ffH
	DB	028H
	DB	024H
	DB	08H
	DB	0ffH
	DB	028H
	DB	020H
	DB	08H
	DB	0ffH
	DB	030H
	DB	024H
	DB	08H
	DB	0ffH
	DB	030H
	DB	024H
	DB	08H
	DB	0ffH
	DB	028H
	DB	020H
	DB	08H
	DB	0ffH
	DB	030H
	DB	024H
	DB	08H
	DB	0ffH
	DB	030H
	DB	024H
	DB	08H
	DB	0ffH
	DB	028H
	DB	020H
	DB	08H
	DB	0ffH
	DB	030H
	DB	024H
	DB	08H
	DB	0ffH
	DB	030H
	DB	024H
	DB	08H
	DB	0ffH
	DB	028H
	DB	020H
	DB	08H
	DB	0ffH
	DB	030H
	DB	024H
	DB	08H
	DB	0ffH
	DB	030H
	DB	020H
	DB	08H
	DB	0ffH
	DB	028H
	DB	024H
	DB	08H
	DB	0ffH
	DB	030H
	DB	020H
	DB	08H
	DB	0ffH
	DB	030H
	DB	024H
	DB	08H
	DB	0ffH
	DB	030H
	DB	024H
	DB	08H
	DB	0ffH
	DB	030H
	DB	020H
	DB	08H
	DB	0ffH
	DB	030H
	DB	024H
	DB	08H
	DB	0ffH
	DB	028H
	DB	024H
	DB	08H
	DB	0ffH
	DB	030H
	DB	024H
	DB	08H
	DB	0ffH
	DB	030H
	DB	020H
	DB	08H
	DB	0ffH
	DB	028H
	DB	024H
	DB	08H
	DB	0ffH
	DB	030H
	DB	024H
	DB	08H
	DB	0ffH
	DB	030H
	DB	020H
	DB	08H
	DB	0ffH
	DB	028H
	DB	024H
	DB	08H
	DB	0ffH
	DB	030H
	DB	024H
	DB	08H
	DB	0ffH
	DB	030H
	DB	020H
	DB	08H
	DB	0ffH
	DB	028H
	DB	024H
	DB	08H
	DB	0ffH
	DB	030H
	DB	024H
	DB	08H
	DB	0ffH
	DB	030H
	DB	020H
	DB	08H
	DB	0ffH
	DB	028H
	DB	024H
	DB	08H
	DB	0ffH
	DB	030H
	DB	024H
	DB	08H
	DB	0ffH
	DB	030H
	DB	024H
	DB	08H
	DB	0ffH
	DB	030H
	DB	024H
	DB	08H
	DB	0ffH
	DB	030H
	DB	024H
	DB	08H
	DB	0ffH
	DB	030H
	DB	024H
	DB	08H
	DB	0ffH
	DB	030H
	DB	024H
	DB	08H
	DB	0ffH
	DB	030H
	DB	024H
	DB	08H
	DB	0ffH
	DB	030H
	DB	020H
	DB	08H
	DB	0ffH
	DB	028H
	DB	024H
	DB	08H
	DB	0ffH
	DB	030H
	DB	024H
	DB	08H
	DB	0ffH
	DB	030H
	DB	020H
	DB	08H
	DB	0ffH
	DB	030H
	DB	024H
	DB	08H
	DB	0ffH
	DB	028H
	DB	020H
	DB	08H
	DB	0ffH
	DB	030H
	DB	024H
	DB	08H
	DB	0ffH
	DB	030H
	DB	020H
	DB	08H
	DB	0ffH
	DB	028H
	DB	020H
	DB	08H
	DB	0ffH
	DB	030H
	DB	024H
	DB	08H
	DB	0ffH
	DB	030H
	DB	020H
	DB	08H
	DB	0ffH
	DB	028H
	DB	024H
	DB	08H
	DB	0ffH
	DB	030H
	DB	024H
	DB	08H
	DB	0ffH
	DB	030H
	DB	020H
	DB	08H
	DB	0ffH
	DB	028H
	DB	024H
	DB	08H
	DB	0ffH
	DB	030H
	DB	024H
	DB	08H
	DB	0ffH
	DB	028H
	DB	020H
	DB	08H
	DB	0ffH
	DB	030H
	DB	024H
	DB	08H
	DB	0ffH
	DB	030H
	DB	024H
	DB	08H
	DB	0ffH
	DB	028H
	DB	024H
	DB	08H
	DB	0ffH
	DB	030H
	DB	024H
	DB	08H
	DB	0ffH
	DB	030H
	DB	024H
	DB	08H
	DB	0ffH
	DB	030H
	DB	024H
	DB	08H
	DB	0ffH
	DB	030H
	DB	028H
	DB	010H
	DB	0ffH
	DB	030H
	DB	02cH
	DB	010H
	DB	0ffH
	DB	038H
	DB	02cH
	DB	010H
	DB	0ffH
	DB	038H
	DB	02cH
	DB	010H
	DB	0ffH
	DB	0a8H
	DB	0a0H
	DB	088H
	DB	0ffH
	DB	070H
	DB	06cH
	DB	070H
	DB	0ffH
	DB	0f0H
	DB	0b0H
	DB	00H
	DB	0ffH
	DB	0f0H
	DB	0b0H
	DB	00H
	DB	0ffH
	DB	0e8H
	DB	0acH
	DB	00H
	DB	0ffH
	DB	00H
	DB	00H
	DB	00H
	DB	061H
	DB	00H
	DB	00H
	DB	00H
	DB	030H
	DB	00H
	DB	00H
	DB	00H
	DB	010H
	DB	00H
	DB	00H
	DB	00H
	DB	010H
	DB	00H
	DB	00H
	DB	00H
	DB	030H
	DB	00H
	DB	00H
	DB	00H
	DB	061H
	DB	0f0H
	DB	0acH
	DB	00H
	DB	0ffH
	DB	0e8H
	DB	0acH
	DB	00H
	DB	0ffH
	DB	0f0H
	DB	0b0H
	DB	00H
	DB	0ffH
	DB	068H
	DB	06cH
	DB	068H
	DB	0ffH
	DB	0a8H
	DB	09cH
	DB	080H
	DB	0ffH
	DB	038H
	DB	02cH
	DB	010H
	DB	0ffH
	DB	038H
	DB	02cH
	DB	010H
	DB	0ffH
	DB	030H
	DB	028H
	DB	010H
	DB	0ffH
	DB	030H
	DB	024H
	DB	08H
	DB	0ffH
	DB	030H
	DB	024H
	DB	08H
	DB	0ffH
	DB	028H
	DB	020H
	DB	08H
	DB	0ffH
	DB	028H
	DB	020H
	DB	08H
	DB	0ffH
	DB	028H
	DB	020H
	DB	08H
	DB	0ffH
	DB	028H
	DB	020H
	DB	08H
	DB	0ffH
	DB	028H
	DB	020H
	DB	08H
	DB	0ffH
	DB	028H
	DB	020H
	DB	08H
	DB	0ffH
	DB	028H
	DB	020H
	DB	08H
	DB	0ffH
	DB	028H
	DB	020H
	DB	08H
	DB	0ffH
	DB	028H
	DB	020H
	DB	08H
	DB	0ffH
	DB	028H
	DB	020H
	DB	08H
	DB	0ffH
	DB	028H
	DB	020H
	DB	08H
	DB	0ffH
	DB	028H
	DB	020H
	DB	08H
	DB	0ffH
	DB	028H
	DB	020H
	DB	08H
	DB	0ffH
	DB	028H
	DB	020H
	DB	08H
	DB	0ffH
	DB	028H
	DB	01cH
	DB	08H
	DB	0ffH
	DB	028H
	DB	020H
	DB	08H
	DB	0ffH
	DB	028H
	DB	020H
	DB	08H
	DB	0ffH
	DB	028H
	DB	020H
	DB	08H
	DB	0ffH
	DB	028H
	DB	020H
	DB	08H
	DB	0ffH
	DB	028H
	DB	020H
	DB	08H
	DB	0ffH
	DB	028H
	DB	020H
	DB	08H
	DB	0ffH
	DB	028H
	DB	020H
	DB	08H
	DB	0ffH
	DB	028H
	DB	020H
	DB	08H
	DB	0ffH
	DB	028H
	DB	020H
	DB	08H
	DB	0ffH
	DB	028H
	DB	020H
	DB	08H
	DB	0ffH
	DB	028H
	DB	020H
	DB	08H
	DB	0ffH
	DB	028H
	DB	020H
	DB	08H
	DB	0ffH
	DB	028H
	DB	020H
	DB	08H
	DB	0ffH
	DB	028H
	DB	020H
	DB	08H
	DB	0ffH
	DB	028H
	DB	020H
	DB	08H
	DB	0ffH
	DB	028H
	DB	020H
	DB	08H
	DB	0ffH
	DB	028H
	DB	020H
	DB	08H
	DB	0ffH
	DB	028H
	DB	020H
	DB	08H
	DB	0ffH
	DB	028H
	DB	020H
	DB	08H
	DB	0ffH
	DB	028H
	DB	020H
	DB	08H
	DB	0ffH
	DB	028H
	DB	020H
	DB	08H
	DB	0ffH
	DB	028H
	DB	020H
	DB	08H
	DB	0ffH
	DB	028H
	DB	020H
	DB	08H
	DB	0ffH
	DB	028H
	DB	020H
	DB	08H
	DB	0ffH
	DB	028H
	DB	020H
	DB	08H
	DB	0ffH
	DB	028H
	DB	020H
	DB	08H
	DB	0ffH
	DB	028H
	DB	020H
	DB	08H
	DB	0ffH
	DB	028H
	DB	020H
	DB	08H
	DB	0ffH
	DB	028H
	DB	020H
	DB	08H
	DB	0ffH
	DB	028H
	DB	020H
	DB	08H
	DB	0ffH
	DB	028H
	DB	020H
	DB	08H
	DB	0ffH
	DB	028H
	DB	020H
	DB	08H
	DB	0ffH
	DB	028H
	DB	020H
	DB	08H
	DB	0ffH
	DB	028H
	DB	020H
	DB	08H
	DB	0ffH
	DB	028H
	DB	020H
	DB	08H
	DB	0ffH
	DB	028H
	DB	020H
	DB	08H
	DB	0ffH
	DB	028H
	DB	020H
	DB	08H
	DB	0ffH
	DB	028H
	DB	020H
	DB	08H
	DB	0ffH
	DB	028H
	DB	020H
	DB	08H
	DB	0ffH
	DB	028H
	DB	020H
	DB	08H
	DB	0ffH
	DB	028H
	DB	020H
	DB	08H
	DB	0ffH
	DB	028H
	DB	020H
	DB	08H
	DB	0ffH
	DB	028H
	DB	020H
	DB	08H
	DB	0ffH
	DB	028H
	DB	020H
	DB	08H
	DB	0ffH
	DB	028H
	DB	020H
	DB	08H
	DB	0ffH
	DB	028H
	DB	020H
	DB	08H
	DB	0ffH
	DB	028H
	DB	020H
	DB	08H
	DB	0ffH
	DB	028H
	DB	020H
	DB	08H
	DB	0ffH
	DB	028H
	DB	020H
	DB	08H
	DB	0ffH
	DB	028H
	DB	020H
	DB	08H
	DB	0ffH
	DB	028H
	DB	020H
	DB	08H
	DB	0ffH
	DB	028H
	DB	020H
	DB	08H
	DB	0ffH
	DB	028H
	DB	020H
	DB	08H
	DB	0ffH
	DB	028H
	DB	020H
	DB	08H
	DB	0ffH
	DB	028H
	DB	020H
	DB	08H
	DB	0ffH
	DB	028H
	DB	020H
	DB	08H
	DB	0ffH
	DB	028H
	DB	020H
	DB	08H
	DB	0ffH
	DB	028H
	DB	020H
	DB	08H
	DB	0ffH
	DB	028H
	DB	020H
	DB	08H
	DB	0ffH
	DB	028H
	DB	020H
	DB	08H
	DB	0ffH
	DB	028H
	DB	020H
	DB	08H
	DB	0ffH
	DB	028H
	DB	020H
	DB	08H
	DB	0ffH
	DB	028H
	DB	020H
	DB	08H
	DB	0ffH
	DB	028H
	DB	020H
	DB	08H
	DB	0ffH
	DB	028H
	DB	020H
	DB	08H
	DB	0ffH
	DB	028H
	DB	020H
	DB	08H
	DB	0ffH
	DB	028H
	DB	020H
	DB	08H
	DB	0ffH
	DB	028H
	DB	020H
	DB	08H
	DB	0ffH
	DB	028H
	DB	020H
	DB	08H
	DB	0ffH
	DB	028H
	DB	020H
	DB	08H
	DB	0ffH
	DB	028H
	DB	020H
	DB	08H
	DB	0ffH
	DB	028H
	DB	020H
	DB	08H
	DB	0ffH
	DB	028H
	DB	020H
	DB	08H
	DB	0ffH
	DB	028H
	DB	020H
	DB	08H
	DB	0ffH
	DB	028H
	DB	020H
	DB	08H
	DB	0ffH
	DB	028H
	DB	020H
	DB	08H
	DB	0ffH
	DB	028H
	DB	020H
	DB	08H
	DB	0ffH
	DB	028H
	DB	020H
	DB	08H
	DB	0ffH
	DB	028H
	DB	020H
	DB	08H
	DB	0ffH
	DB	028H
	DB	01cH
	DB	08H
	DB	0ffH
	DB	028H
	DB	020H
	DB	08H
	DB	0ffH
	DB	028H
	DB	020H
	DB	08H
	DB	0ffH
	DB	028H
	DB	020H
	DB	08H
	DB	0ffH
	DB	028H
	DB	020H
	DB	08H
	DB	0ffH
	DB	028H
	DB	020H
	DB	08H
	DB	0ffH
	DB	028H
	DB	020H
	DB	08H
	DB	0ffH
	DB	028H
	DB	020H
	DB	08H
	DB	0ffH
	DB	028H
	DB	020H
	DB	08H
	DB	0ffH
	DB	028H
	DB	020H
	DB	08H
	DB	0ffH
	DB	028H
	DB	020H
	DB	08H
	DB	0ffH
	DB	028H
	DB	020H
	DB	08H
	DB	0ffH
	DB	028H
	DB	020H
	DB	08H
	DB	0ffH
	DB	028H
	DB	020H
	DB	08H
	DB	0ffH
	DB	028H
	DB	020H
	DB	08H
	DB	0ffH
	DB	028H
	DB	020H
	DB	08H
	DB	0ffH
	DB	028H
	DB	020H
	DB	08H
	DB	0ffH
	DB	028H
	DB	020H
	DB	08H
	DB	0ffH
	DB	028H
	DB	020H
	DB	08H
	DB	0ffH
	DB	028H
	DB	020H
	DB	08H
	DB	0ffH
	DB	028H
	DB	020H
	DB	08H
	DB	0ffH
	DB	028H
	DB	020H
	DB	08H
	DB	0ffH
	DB	028H
	DB	020H
	DB	08H
	DB	0ffH
	DB	028H
	DB	020H
	DB	08H
	DB	0ffH
	DB	028H
	DB	020H
	DB	08H
	DB	0ffH
	DB	028H
	DB	020H
	DB	08H
	DB	0ffH
	DB	030H
	DB	024H
	DB	08H
	DB	0ffH
	DB	030H
	DB	024H
	DB	010H
	DB	0ffH
	DB	030H
	DB	028H
	DB	010H
	DB	0ffH
	DB	038H
	DB	02cH
	DB	010H
	DB	0ffH
	DB	038H
	DB	02cH
	DB	010H
	DB	0ffH
	DB	0a8H
	DB	09cH
	DB	080H
	DB	0ffH
	DB	068H
	DB	06cH
	DB	068H
	DB	0ffH
	DB	0f0H
	DB	0acH
	DB	00H
	DB	0ffH
	DB	0f0H
	DB	0b0H
	DB	00H
	DB	0ffH
	DB	0f0H
	DB	0b0H
	DB	00H
	DB	0ffH
	DB	00H
	DB	00H
	DB	00H
	DB	061H
	DB	00H
	DB	00H
	DB	00H
	DB	030H
	DB	00H
	DB	00H
	DB	00H
	DB	010H
	DB	00H
	DB	00H
	DB	00H
	DB	010H
	DB	00H
	DB	00H
	DB	00H
	DB	030H
	DB	00H
	DB	00H
	DB	00H
	DB	061H
	DB	0f0H
	DB	0b0H
	DB	00H
	DB	0ffH
	DB	0f0H
	DB	0acH
	DB	00H
	DB	0ffH
	DB	0f0H
	DB	0acH
	DB	00H
	DB	0ffH
	DB	068H
	DB	06cH
	DB	068H
	DB	0ffH
	DB	0a0H
	DB	098H
	DB	078H
	DB	0ffH
	DB	030H
	DB	028H
	DB	010H
	DB	0ffH
	DB	038H
	DB	02cH
	DB	010H
	DB	0ffH
	DB	030H
	DB	028H
	DB	010H
	DB	0ffH
	DB	030H
	DB	024H
	DB	08H
	DB	0ffH
	DB	028H
	DB	020H
	DB	08H
	DB	0ffH
	DB	028H
	DB	020H
	DB	08H
	DB	0ffH
	DB	028H
	DB	01cH
	DB	08H
	DB	0ffH
	DB	028H
	DB	01cH
	DB	08H
	DB	0ffH
	DB	028H
	DB	01cH
	DB	08H
	DB	0ffH
	DB	028H
	DB	01cH
	DB	08H
	DB	0ffH
	DB	028H
	DB	01cH
	DB	00H
	DB	0ffH
	DB	028H
	DB	01cH
	DB	08H
	DB	0ffH
	DB	028H
	DB	01cH
	DB	08H
	DB	0ffH
	DB	028H
	DB	01cH
	DB	00H
	DB	0ffH
	DB	028H
	DB	01cH
	DB	08H
	DB	0ffH
	DB	028H
	DB	01cH
	DB	08H
	DB	0ffH
	DB	028H
	DB	01cH
	DB	00H
	DB	0ffH
	DB	028H
	DB	01cH
	DB	08H
	DB	0ffH
	DB	028H
	DB	01cH
	DB	08H
	DB	0ffH
	DB	028H
	DB	01cH
	DB	00H
	DB	0ffH
	DB	028H
	DB	01cH
	DB	08H
	DB	0ffH
	DB	028H
	DB	01cH
	DB	08H
	DB	0ffH
	DB	028H
	DB	01cH
	DB	00H
	DB	0ffH
	DB	028H
	DB	01cH
	DB	08H
	DB	0ffH
	DB	028H
	DB	01cH
	DB	08H
	DB	0ffH
	DB	028H
	DB	01cH
	DB	00H
	DB	0ffH
	DB	028H
	DB	01cH
	DB	08H
	DB	0ffH
	DB	028H
	DB	01cH
	DB	08H
	DB	0ffH
	DB	028H
	DB	01cH
	DB	00H
	DB	0ffH
	DB	028H
	DB	01cH
	DB	08H
	DB	0ffH
	DB	028H
	DB	01cH
	DB	08H
	DB	0ffH
	DB	028H
	DB	01cH
	DB	00H
	DB	0ffH
	DB	028H
	DB	01cH
	DB	08H
	DB	0ffH
	DB	028H
	DB	01cH
	DB	08H
	DB	0ffH
	DB	028H
	DB	01cH
	DB	00H
	DB	0ffH
	DB	028H
	DB	01cH
	DB	08H
	DB	0ffH
	DB	028H
	DB	01cH
	DB	08H
	DB	0ffH
	DB	028H
	DB	01cH
	DB	00H
	DB	0ffH
	DB	028H
	DB	01cH
	DB	08H
	DB	0ffH
	DB	028H
	DB	01cH
	DB	08H
	DB	0ffH
	DB	028H
	DB	01cH
	DB	00H
	DB	0ffH
	DB	028H
	DB	01cH
	DB	08H
	DB	0ffH
	DB	028H
	DB	01cH
	DB	08H
	DB	0ffH
	DB	028H
	DB	01cH
	DB	00H
	DB	0ffH
	DB	028H
	DB	01cH
	DB	08H
	DB	0ffH
	DB	028H
	DB	01cH
	DB	08H
	DB	0ffH
	DB	028H
	DB	01cH
	DB	00H
	DB	0ffH
	DB	028H
	DB	01cH
	DB	08H
	DB	0ffH
	DB	028H
	DB	01cH
	DB	08H
	DB	0ffH
	DB	028H
	DB	01cH
	DB	00H
	DB	0ffH
	DB	028H
	DB	01cH
	DB	08H
	DB	0ffH
	DB	028H
	DB	01cH
	DB	08H
	DB	0ffH
	DB	020H
	DB	01cH
	DB	00H
	DB	0ffH
	DB	028H
	DB	01cH
	DB	08H
	DB	0ffH
	DB	028H
	DB	01cH
	DB	08H
	DB	0ffH
	DB	028H
	DB	01cH
	DB	00H
	DB	0ffH
	DB	028H
	DB	01cH
	DB	08H
	DB	0ffH
	DB	028H
	DB	01cH
	DB	00H
	DB	0ffH
	DB	028H
	DB	01cH
	DB	08H
	DB	0ffH
	DB	028H
	DB	01cH
	DB	00H
	DB	0ffH
	DB	028H
	DB	01cH
	DB	00H
	DB	0ffH
	DB	028H
	DB	01cH
	DB	08H
	DB	0ffH
	DB	028H
	DB	01cH
	DB	00H
	DB	0ffH
	DB	028H
	DB	01cH
	DB	08H
	DB	0ffH
	DB	028H
	DB	01cH
	DB	00H
	DB	0ffH
	DB	028H
	DB	01cH
	DB	08H
	DB	0ffH
	DB	028H
	DB	01cH
	DB	08H
	DB	0ffH
	DB	028H
	DB	01cH
	DB	00H
	DB	0ffH
	DB	028H
	DB	01cH
	DB	08H
	DB	0ffH
	DB	028H
	DB	01cH
	DB	08H
	DB	0ffH
	DB	028H
	DB	01cH
	DB	00H
	DB	0ffH
	DB	028H
	DB	01cH
	DB	08H
	DB	0ffH
	DB	028H
	DB	01cH
	DB	08H
	DB	0ffH
	DB	028H
	DB	01cH
	DB	00H
	DB	0ffH
	DB	028H
	DB	01cH
	DB	08H
	DB	0ffH
	DB	028H
	DB	01cH
	DB	08H
	DB	0ffH
	DB	028H
	DB	01cH
	DB	00H
	DB	0ffH
	DB	028H
	DB	01cH
	DB	08H
	DB	0ffH
	DB	028H
	DB	01cH
	DB	08H
	DB	0ffH
	DB	028H
	DB	01cH
	DB	00H
	DB	0ffH
	DB	020H
	DB	01cH
	DB	08H
	DB	0ffH
	DB	028H
	DB	01cH
	DB	08H
	DB	0ffH
	DB	028H
	DB	01cH
	DB	08H
	DB	0ffH
	DB	028H
	DB	01cH
	DB	08H
	DB	0ffH
	DB	028H
	DB	01cH
	DB	08H
	DB	0ffH
	DB	028H
	DB	01cH
	DB	00H
	DB	0ffH
	DB	028H
	DB	01cH
	DB	08H
	DB	0ffH
	DB	028H
	DB	01cH
	DB	08H
	DB	0ffH
	DB	028H
	DB	01cH
	DB	00H
	DB	0ffH
	DB	028H
	DB	01cH
	DB	00H
	DB	0ffH
	DB	028H
	DB	01cH
	DB	08H
	DB	0ffH
	DB	028H
	DB	01cH
	DB	08H
	DB	0ffH
	DB	028H
	DB	01cH
	DB	00H
	DB	0ffH
	DB	028H
	DB	01cH
	DB	08H
	DB	0ffH
	DB	028H
	DB	01cH
	DB	08H
	DB	0ffH
	DB	028H
	DB	01cH
	DB	00H
	DB	0ffH
	DB	028H
	DB	01cH
	DB	08H
	DB	0ffH
	DB	028H
	DB	01cH
	DB	00H
	DB	0ffH
	DB	028H
	DB	01cH
	DB	00H
	DB	0ffH
	DB	020H
	DB	01cH
	DB	08H
	DB	0ffH
	DB	028H
	DB	01cH
	DB	00H
	DB	0ffH
	DB	028H
	DB	01cH
	DB	08H
	DB	0ffH
	DB	028H
	DB	01cH
	DB	08H
	DB	0ffH
	DB	028H
	DB	01cH
	DB	00H
	DB	0ffH
	DB	028H
	DB	01cH
	DB	08H
	DB	0ffH
	DB	028H
	DB	01cH
	DB	08H
	DB	0ffH
	DB	028H
	DB	01cH
	DB	00H
	DB	0ffH
	DB	028H
	DB	01cH
	DB	08H
	DB	0ffH
	DB	028H
	DB	01cH
	DB	08H
	DB	0ffH
	DB	028H
	DB	01cH
	DB	00H
	DB	0ffH
	DB	028H
	DB	01cH
	DB	08H
	DB	0ffH
	DB	028H
	DB	01cH
	DB	00H
	DB	0ffH
	DB	028H
	DB	01cH
	DB	08H
	DB	0ffH
	DB	028H
	DB	01cH
	DB	08H
	DB	0ffH
	DB	028H
	DB	01cH
	DB	00H
	DB	0ffH
	DB	028H
	DB	01cH
	DB	08H
	DB	0ffH
	DB	028H
	DB	01cH
	DB	08H
	DB	0ffH
	DB	028H
	DB	01cH
	DB	00H
	DB	0ffH
	DB	028H
	DB	01cH
	DB	08H
	DB	0ffH
	DB	028H
	DB	01cH
	DB	08H
	DB	0ffH
	DB	028H
	DB	01cH
	DB	00H
	DB	0ffH
	DB	028H
	DB	01cH
	DB	08H
	DB	0ffH
	DB	028H
	DB	01cH
	DB	08H
	DB	0ffH
	DB	028H
	DB	020H
	DB	08H
	DB	0ffH
	DB	028H
	DB	020H
	DB	08H
	DB	0ffH
	DB	028H
	DB	020H
	DB	08H
	DB	0ffH
	DB	030H
	DB	024H
	DB	08H
	DB	0ffH
	DB	030H
	DB	028H
	DB	010H
	DB	0ffH
	DB	030H
	DB	02cH
	DB	010H
	DB	0ffH
	DB	030H
	DB	028H
	DB	010H
	DB	0ffH
	DB	0a8H
	DB	098H
	DB	078H
	DB	0ffH
	DB	068H
	DB	06cH
	DB	068H
	DB	0ffH
	DB	0f0H
	DB	0acH
	DB	00H
	DB	0ffH
	DB	0f0H
	DB	0acH
	DB	00H
	DB	0ffH
	DB	0f0H
	DB	0b0H
	DB	00H
	DB	0ffH
	DB	00H
	DB	00H
	DB	00H
	DB	061H
	DB	00H
	DB	00H
	DB	00H
	DB	030H
	DB	00H
	DB	00H
	DB	00H
	DB	010H
	DB	00H
	DB	00H
	DB	00H
	DB	010H
	DB	00H
	DB	00H
	DB	00H
	DB	030H
	DB	00H
	DB	00H
	DB	00H
	DB	061H
	DB	0f0H
	DB	0b0H
	DB	00H
	DB	0ffH
	DB	0f0H
	DB	0b0H
	DB	00H
	DB	0ffH
	DB	0f0H
	DB	0acH
	DB	00H
	DB	0ffH
	DB	068H
	DB	068H
	DB	068H
	DB	0ffH
	DB	0a8H
	DB	098H
	DB	078H
	DB	0ffH
	DB	030H
	DB	02cH
	DB	010H
	DB	0ffH
	DB	030H
	DB	02cH
	DB	010H
	DB	0ffH
	DB	030H
	DB	024H
	DB	010H
	DB	0ffH
	DB	030H
	DB	024H
	DB	010H
	DB	0ffH
	DB	028H
	DB	020H
	DB	08H
	DB	0ffH
	DB	028H
	DB	020H
	DB	08H
	DB	0ffH
	DB	028H
	DB	020H
	DB	08H
	DB	0ffH
	DB	028H
	DB	01cH
	DB	08H
	DB	0ffH
	DB	028H
	DB	01cH
	DB	00H
	DB	0ffH
	DB	020H
	DB	01cH
	DB	08H
	DB	0ffH
	DB	020H
	DB	01cH
	DB	00H
	DB	0ffH
	DB	028H
	DB	01cH
	DB	08H
	DB	0ffH
	DB	020H
	DB	01cH
	DB	08H
	DB	0ffH
	DB	028H
	DB	01cH
	DB	00H
	DB	0ffH
	DB	020H
	DB	01cH
	DB	08H
	DB	0ffH
	DB	020H
	DB	01cH
	DB	00H
	DB	0ffH
	DB	028H
	DB	01cH
	DB	08H
	DB	0ffH
	DB	020H
	DB	01cH
	DB	00H
	DB	0ffH
	DB	020H
	DB	01cH
	DB	08H
	DB	0ffH
	DB	028H
	DB	01cH
	DB	00H
	DB	0ffH
	DB	020H
	DB	01cH
	DB	08H
	DB	0ffH
	DB	020H
	DB	01cH
	DB	00H
	DB	0ffH
	DB	028H
	DB	01cH
	DB	08H
	DB	0ffH
	DB	020H
	DB	01cH
	DB	00H
	DB	0ffH
	DB	020H
	DB	01cH
	DB	08H
	DB	0ffH
	DB	028H
	DB	01cH
	DB	00H
	DB	0ffH
	DB	020H
	DB	01cH
	DB	08H
	DB	0ffH
	DB	028H
	DB	01cH
	DB	00H
	DB	0ffH
	DB	020H
	DB	01cH
	DB	00H
	DB	0ffH
	DB	028H
	DB	01cH
	DB	08H
	DB	0ffH
	DB	020H
	DB	01cH
	DB	00H
	DB	0ffH
	DB	020H
	DB	01cH
	DB	08H
	DB	0ffH
	DB	028H
	DB	01cH
	DB	00H
	DB	0ffH
	DB	020H
	DB	01cH
	DB	08H
	DB	0ffH
	DB	020H
	DB	01cH
	DB	00H
	DB	0ffH
	DB	028H
	DB	01cH
	DB	08H
	DB	0ffH
	DB	020H
	DB	01cH
	DB	00H
	DB	0ffH
	DB	020H
	DB	01cH
	DB	00H
	DB	0ffH
	DB	028H
	DB	01cH
	DB	08H
	DB	0ffH
	DB	020H
	DB	01cH
	DB	00H
	DB	0ffH
	DB	020H
	DB	01cH
	DB	08H
	DB	0ffH
	DB	028H
	DB	01cH
	DB	00H
	DB	0ffH
	DB	020H
	DB	01cH
	DB	08H
	DB	0ffH
	DB	020H
	DB	01cH
	DB	00H
	DB	0ffH
	DB	028H
	DB	01cH
	DB	08H
	DB	0ffH
	DB	020H
	DB	01cH
	DB	00H
	DB	0ffH
	DB	020H
	DB	01cH
	DB	00H
	DB	0ffH
	DB	028H
	DB	01cH
	DB	08H
	DB	0ffH
	DB	020H
	DB	01cH
	DB	00H
	DB	0ffH
	DB	020H
	DB	01cH
	DB	08H
	DB	0ffH
	DB	028H
	DB	01cH
	DB	00H
	DB	0ffH
	DB	020H
	DB	01cH
	DB	08H
	DB	0ffH
	DB	028H
	DB	01cH
	DB	00H
	DB	0ffH
	DB	028H
	DB	01cH
	DB	08H
	DB	0ffH
	DB	020H
	DB	01cH
	DB	00H
	DB	0ffH
	DB	020H
	DB	01cH
	DB	08H
	DB	0ffH
	DB	028H
	DB	01cH
	DB	08H
	DB	0ffH
	DB	020H
	DB	01cH
	DB	00H
	DB	0ffH
	DB	028H
	DB	01cH
	DB	08H
	DB	0ffH
	DB	020H
	DB	01cH
	DB	08H
	DB	0ffH
	DB	028H
	DB	01cH
	DB	08H
	DB	0ffH
	DB	020H
	DB	01cH
	DB	00H
	DB	0ffH
	DB	028H
	DB	01cH
	DB	08H
	DB	0ffH
	DB	028H
	DB	01cH
	DB	08H
	DB	0ffH
	DB	020H
	DB	01cH
	DB	00H
	DB	0ffH
	DB	028H
	DB	01cH
	DB	08H
	DB	0ffH
	DB	028H
	DB	01cH
	DB	08H
	DB	0ffH
	DB	020H
	DB	01cH
	DB	00H
	DB	0ffH
	DB	028H
	DB	01cH
	DB	08H
	DB	0ffH
	DB	020H
	DB	01cH
	DB	08H
	DB	0ffH
	DB	028H
	DB	01cH
	DB	00H
	DB	0ffH
	DB	020H
	DB	01cH
	DB	08H
	DB	0ffH
	DB	020H
	DB	01cH
	DB	00H
	DB	0ffH
	DB	028H
	DB	01cH
	DB	08H
	DB	0ffH
	DB	020H
	DB	01cH
	DB	00H
	DB	0ffH
	DB	020H
	DB	01cH
	DB	08H
	DB	0ffH
	DB	028H
	DB	01cH
	DB	00H
	DB	0ffH
	DB	020H
	DB	01cH
	DB	08H
	DB	0ffH
	DB	028H
	DB	01cH
	DB	00H
	DB	0ffH
	DB	020H
	DB	01cH
	DB	08H
	DB	0ffH
	DB	028H
	DB	01cH
	DB	00H
	DB	0ffH
	DB	028H
	DB	01cH
	DB	00H
	DB	0ffH
	DB	020H
	DB	01cH
	DB	00H
	DB	0ffH
	DB	020H
	DB	01cH
	DB	08H
	DB	0ffH
	DB	028H
	DB	01cH
	DB	00H
	DB	0ffH
	DB	020H
	DB	01cH
	DB	08H
	DB	0ffH
	DB	020H
	DB	01cH
	DB	00H
	DB	0ffH
	DB	028H
	DB	01cH
	DB	08H
	DB	0ffH
	DB	020H
	DB	01cH
	DB	08H
	DB	0ffH
	DB	020H
	DB	01cH
	DB	00H
	DB	0ffH
	DB	028H
	DB	01cH
	DB	08H
	DB	0ffH
	DB	020H
	DB	01cH
	DB	00H
	DB	0ffH
	DB	020H
	DB	01cH
	DB	00H
	DB	0ffH
	DB	028H
	DB	01cH
	DB	08H
	DB	0ffH
	DB	020H
	DB	01cH
	DB	00H
	DB	0ffH
	DB	020H
	DB	01cH
	DB	08H
	DB	0ffH
	DB	028H
	DB	01cH
	DB	08H
	DB	0ffH
	DB	020H
	DB	01cH
	DB	00H
	DB	0ffH
	DB	028H
	DB	01cH
	DB	08H
	DB	0ffH
	DB	028H
	DB	01cH
	DB	08H
	DB	0ffH
	DB	020H
	DB	01cH
	DB	00H
	DB	0ffH
	DB	020H
	DB	01cH
	DB	08H
	DB	0ffH
	DB	028H
	DB	01cH
	DB	00H
	DB	0ffH
	DB	020H
	DB	01cH
	DB	08H
	DB	0ffH
	DB	020H
	DB	01cH
	DB	00H
	DB	0ffH
	DB	028H
	DB	01cH
	DB	08H
	DB	0ffH
	DB	020H
	DB	01cH
	DB	00H
	DB	0ffH
	DB	020H
	DB	01cH
	DB	08H
	DB	0ffH
	DB	028H
	DB	01cH
	DB	00H
	DB	0ffH
	DB	020H
	DB	01cH
	DB	08H
	DB	0ffH
	DB	028H
	DB	01cH
	DB	08H
	DB	0ffH
	DB	020H
	DB	01cH
	DB	00H
	DB	0ffH
	DB	028H
	DB	01cH
	DB	00H
	DB	0ffH
	DB	020H
	DB	01cH
	DB	08H
	DB	0ffH
	DB	020H
	DB	01cH
	DB	00H
	DB	0ffH
	DB	028H
	DB	01cH
	DB	08H
	DB	0ffH
	DB	020H
	DB	01cH
	DB	00H
	DB	0ffH
	DB	020H
	DB	01cH
	DB	08H
	DB	0ffH
	DB	028H
	DB	01cH
	DB	08H
	DB	0ffH
	DB	020H
	DB	01cH
	DB	00H
	DB	0ffH
	DB	028H
	DB	01cH
	DB	08H
	DB	0ffH
	DB	020H
	DB	01cH
	DB	00H
	DB	0ffH
	DB	028H
	DB	01cH
	DB	08H
	DB	0ffH
	DB	028H
	DB	020H
	DB	08H
	DB	0ffH
	DB	028H
	DB	020H
	DB	08H
	DB	0ffH
	DB	028H
	DB	020H
	DB	08H
	DB	0ffH
	DB	030H
	DB	024H
	DB	08H
	DB	0ffH
	DB	030H
	DB	028H
	DB	010H
	DB	0ffH
	DB	038H
	DB	02cH
	DB	010H
	DB	0ffH
	DB	030H
	DB	02cH
	DB	010H
	DB	0ffH
	DB	0a8H
	DB	098H
	DB	078H
	DB	0ffH
	DB	068H
	DB	068H
	DB	068H
	DB	0ffH
	DB	0f0H
	DB	0b0H
	DB	00H
	DB	0ffH
	DB	0f0H
	DB	0acH
	DB	00H
	DB	0ffH
	DB	0f0H
	DB	0acH
	DB	00H
	DB	0ffH
	DB	00H
	DB	00H
	DB	00H
	DB	061H
	DB	00H
	DB	00H
	DB	00H
	DB	030H
	DB	00H
	DB	00H
	DB	00H
	DB	010H
	DB	00H
	DB	00H
	DB	00H
	DB	010H
	DB	00H
	DB	00H
	DB	00H
	DB	030H
	DB	00H
	DB	00H
	DB	00H
	DB	05dH
	DB	0f0H
	DB	0acH
	DB	00H
	DB	0ffH
	DB	0f0H
	DB	0b0H
	DB	00H
	DB	0ffH
	DB	0f0H
	DB	0b0H
	DB	00H
	DB	0ffH
	DB	068H
	DB	068H
	DB	068H
	DB	0ffH
	DB	0a8H
	DB	098H
	DB	070H
	DB	0ffH
	DB	030H
	DB	02cH
	DB	010H
	DB	0ffH
	DB	038H
	DB	02cH
	DB	018H
	DB	0ffH
	DB	030H
	DB	028H
	DB	010H
	DB	0ffH
	DB	030H
	DB	024H
	DB	08H
	DB	0ffH
	DB	028H
	DB	020H
	DB	08H
	DB	0ffH
	DB	028H
	DB	020H
	DB	08H
	DB	0ffH
	DB	028H
	DB	01cH
	DB	08H
	DB	0ffH
	DB	020H
	DB	01cH
	DB	08H
	DB	0ffH
	DB	028H
	DB	01cH
	DB	00H
	DB	0ffH
	DB	020H
	DB	01cH
	DB	08H
	DB	0ffH
	DB	028H
	DB	01cH
	DB	08H
	DB	0ffH
	DB	020H
	DB	01cH
	DB	00H
	DB	0ffH
	DB	020H
	DB	01cH
	DB	08H
	DB	0ffH
	DB	028H
	DB	01cH
	DB	08H
	DB	0ffH
	DB	020H
	DB	01cH
	DB	00H
	DB	0ffH
	DB	020H
	DB	01cH
	DB	08H
	DB	0ffH
	DB	028H
	DB	01cH
	DB	08H
	DB	0ffH
	DB	020H
	DB	01cH
	DB	08H
	DB	0ffH
	DB	020H
	DB	01cH
	DB	00H
	DB	0ffH
	DB	028H
	DB	01cH
	DB	08H
	DB	0ffH
	DB	020H
	DB	01cH
	DB	08H
	DB	0ffH
	DB	028H
	DB	01cH
	DB	08H
	DB	0ffH
	DB	020H
	DB	01cH
	DB	00H
	DB	0ffH
	DB	020H
	DB	01cH
	DB	08H
	DB	0ffH
	DB	028H
	DB	01cH
	DB	08H
	DB	0ffH
	DB	020H
	DB	01cH
	DB	08H
	DB	0ffH
	DB	020H
	DB	01cH
	DB	00H
	DB	0ffH
	DB	028H
	DB	01cH
	DB	08H
	DB	0ffH
	DB	020H
	DB	01cH
	DB	08H
	DB	0ffH
	DB	020H
	DB	01cH
	DB	08H
	DB	0ffH
	DB	028H
	DB	01cH
	DB	08H
	DB	0ffH
	DB	020H
	DB	01cH
	DB	00H
	DB	0ffH
	DB	028H
	DB	01cH
	DB	08H
	DB	0ffH
	DB	020H
	DB	01cH
	DB	08H
	DB	0ffH
	DB	020H
	DB	01cH
	DB	08H
	DB	0ffH
	DB	028H
	DB	01cH
	DB	00H
	DB	0ffH
	DB	020H
	DB	01cH
	DB	08H
	DB	0ffH
	DB	020H
	DB	01cH
	DB	08H
	DB	0ffH
	DB	028H
	DB	01cH
	DB	08H
	DB	0ffH
	DB	020H
	DB	01cH
	DB	08H
	DB	0ffH
	DB	020H
	DB	01cH
	DB	00H
	DB	0ffH
	DB	028H
	DB	01cH
	DB	08H
	DB	0ffH
	DB	020H
	DB	01cH
	DB	08H
	DB	0ffH
	DB	020H
	DB	01cH
	DB	08H
	DB	0ffH
	DB	028H
	DB	01cH
	DB	00H
	DB	0ffH
	DB	020H
	DB	01cH
	DB	08H
	DB	0ffH
	DB	020H
	DB	01cH
	DB	08H
	DB	0ffH
	DB	028H
	DB	01cH
	DB	08H
	DB	0ffH
	DB	020H
	DB	01cH
	DB	08H
	DB	0ffH
	DB	020H
	DB	01cH
	DB	00H
	DB	0ffH
	DB	028H
	DB	01cH
	DB	08H
	DB	0ffH
	DB	020H
	DB	01cH
	DB	08H
	DB	0ffH
	DB	020H
	DB	01cH
	DB	08H
	DB	0ffH
	DB	028H
	DB	01cH
	DB	00H
	DB	0ffH
	DB	020H
	DB	01cH
	DB	08H
	DB	0ffH
	DB	020H
	DB	01cH
	DB	08H
	DB	0ffH
	DB	028H
	DB	01cH
	DB	00H
	DB	0ffH
	DB	020H
	DB	01cH
	DB	08H
	DB	0ffH
	DB	020H
	DB	01cH
	DB	08H
	DB	0ffH
	DB	028H
	DB	01cH
	DB	00H
	DB	0ffH
	DB	020H
	DB	01cH
	DB	08H
	DB	0ffH
	DB	020H
	DB	01cH
	DB	08H
	DB	0ffH
	DB	020H
	DB	01cH
	DB	00H
	DB	0ffH
	DB	020H
	DB	01cH
	DB	08H
	DB	0ffH
	DB	020H
	DB	01cH
	DB	08H
	DB	0ffH
	DB	020H
	DB	01cH
	DB	00H
	DB	0ffH
	DB	020H
	DB	01cH
	DB	08H
	DB	0ffH
	DB	028H
	DB	01cH
	DB	00H
	DB	0ffH
	DB	020H
	DB	01cH
	DB	08H
	DB	0ffH
	DB	020H
	DB	01cH
	DB	00H
	DB	0ffH
	DB	028H
	DB	01cH
	DB	08H
	DB	0ffH
	DB	020H
	DB	01cH
	DB	08H
	DB	0ffH
	DB	020H
	DB	01cH
	DB	00H
	DB	0ffH
	DB	028H
	DB	01cH
	DB	08H
	DB	0ffH
	DB	020H
	DB	01cH
	DB	08H
	DB	0ffH
	DB	020H
	DB	01cH
	DB	00H
	DB	0ffH
	DB	028H
	DB	01cH
	DB	08H
	DB	0ffH
	DB	020H
	DB	01cH
	DB	08H
	DB	0ffH
	DB	020H
	DB	01cH
	DB	00H
	DB	0ffH
	DB	028H
	DB	01cH
	DB	08H
	DB	0ffH
	DB	020H
	DB	01cH
	DB	08H
	DB	0ffH
	DB	020H
	DB	01cH
	DB	08H
	DB	0ffH
	DB	028H
	DB	01cH
	DB	08H
	DB	0ffH
	DB	020H
	DB	01cH
	DB	00H
	DB	0ffH
	DB	028H
	DB	01cH
	DB	08H
	DB	0ffH
	DB	020H
	DB	01cH
	DB	08H
	DB	0ffH
	DB	020H
	DB	01cH
	DB	00H
	DB	0ffH
	DB	028H
	DB	01cH
	DB	08H
	DB	0ffH
	DB	020H
	DB	01cH
	DB	08H
	DB	0ffH
	DB	028H
	DB	01cH
	DB	08H
	DB	0ffH
	DB	020H
	DB	01cH
	DB	08H
	DB	0ffH
	DB	020H
	DB	01cH
	DB	08H
	DB	0ffH
	DB	028H
	DB	01cH
	DB	08H
	DB	0ffH
	DB	020H
	DB	01cH
	DB	08H
	DB	0ffH
	DB	028H
	DB	01cH
	DB	00H
	DB	0ffH
	DB	020H
	DB	01cH
	DB	08H
	DB	0ffH
	DB	020H
	DB	01cH
	DB	08H
	DB	0ffH
	DB	020H
	DB	01cH
	DB	00H
	DB	0ffH
	DB	020H
	DB	01cH
	DB	08H
	DB	0ffH
	DB	028H
	DB	01cH
	DB	08H
	DB	0ffH
	DB	020H
	DB	01cH
	DB	08H
	DB	0ffH
	DB	020H
	DB	01cH
	DB	00H
	DB	0ffH
	DB	028H
	DB	01cH
	DB	08H
	DB	0ffH
	DB	020H
	DB	01cH
	DB	08H
	DB	0ffH
	DB	020H
	DB	01cH
	DB	08H
	DB	0ffH
	DB	028H
	DB	01cH
	DB	00H
	DB	0ffH
	DB	020H
	DB	01cH
	DB	08H
	DB	0ffH
	DB	020H
	DB	01cH
	DB	08H
	DB	0ffH
	DB	028H
	DB	01cH
	DB	00H
	DB	0ffH
	DB	020H
	DB	01cH
	DB	08H
	DB	0ffH
	DB	020H
	DB	01cH
	DB	08H
	DB	0ffH
	DB	028H
	DB	01cH
	DB	08H
	DB	0ffH
	DB	020H
	DB	01cH
	DB	08H
	DB	0ffH
	DB	020H
	DB	01cH
	DB	00H
	DB	0ffH
	DB	028H
	DB	01cH
	DB	08H
	DB	0ffH
	DB	020H
	DB	01cH
	DB	08H
	DB	0ffH
	DB	028H
	DB	01cH
	DB	00H
	DB	0ffH
	DB	020H
	DB	01cH
	DB	08H
	DB	0ffH
	DB	020H
	DB	01cH
	DB	00H
	DB	0ffH
	DB	028H
	DB	01cH
	DB	08H
	DB	0ffH
	DB	020H
	DB	01cH
	DB	08H
	DB	0ffH
	DB	020H
	DB	01cH
	DB	00H
	DB	0ffH
	DB	028H
	DB	01cH
	DB	08H
	DB	0ffH
	DB	028H
	DB	01cH
	DB	08H
	DB	0ffH
	DB	028H
	DB	020H
	DB	08H
	DB	0ffH
	DB	028H
	DB	020H
	DB	08H
	DB	0ffH
	DB	028H
	DB	024H
	DB	010H
	DB	0ffH
	DB	030H
	DB	024H
	DB	010H
	DB	0ffH
	DB	038H
	DB	02cH
	DB	010H
	DB	0ffH
	DB	030H
	DB	02cH
	DB	010H
	DB	0ffH
	DB	0a8H
	DB	098H
	DB	070H
	DB	0ffH
	DB	068H
	DB	068H
	DB	068H
	DB	0ffH
	DB	0f0H
	DB	0b0H
	DB	00H
	DB	0ffH
	DB	0f0H
	DB	0b0H
	DB	00H
	DB	0ffH
	DB	0f0H
	DB	0acH
	DB	00H
	DB	0ffH
	DB	00H
	DB	00H
	DB	00H
	DB	05dH
	DB	00H
	DB	00H
	DB	00H
	DB	030H
	DB	00H
	DB	00H
	DB	00H
	DB	010H
	DB	00H
	DB	00H
	DB	00H
	DB	010H
	DB	00H
	DB	00H
	DB	00H
	DB	030H
	DB	00H
	DB	00H
	DB	00H
	DB	061H
	DB	0f0H
	DB	0acH
	DB	00H
	DB	0ffH
	DB	0f0H
	DB	0acH
	DB	00H
	DB	0ffH
	DB	0f0H
	DB	0acH
	DB	00H
	DB	0ffH
	DB	060H
	DB	064H
	DB	068H
	DB	0ffH
	DB	0a8H
	DB	098H
	DB	068H
	DB	0ffH
	DB	030H
	DB	02cH
	DB	010H
	DB	0ffH
	DB	038H
	DB	02cH
	DB	018H
	DB	0ffH
	DB	030H
	DB	024H
	DB	010H
	DB	0ffH
	DB	028H
	DB	024H
	DB	08H
	DB	0ffH
	DB	028H
	DB	020H
	DB	08H
	DB	0ffH
	DB	028H
	DB	020H
	DB	08H
	DB	0ffH
	DB	028H
	DB	01cH
	DB	08H
	DB	0ffH
	DB	020H
	DB	01cH
	DB	08H
	DB	0ffH
	DB	020H
	DB	01cH
	DB	00H
	DB	0ffH
	DB	028H
	DB	01cH
	DB	08H
	DB	0ffH
	DB	020H
	DB	01cH
	DB	08H
	DB	0ffH
	DB	020H
	DB	01cH
	DB	00H
	DB	0ffH
	DB	028H
	DB	01cH
	DB	00H
	DB	0ffH
	DB	020H
	DB	01cH
	DB	08H
	DB	0ffH
	DB	028H
	DB	01cH
	DB	08H
	DB	0ffH
	DB	020H
	DB	01cH
	DB	00H
	DB	0ffH
	DB	020H
	DB	01cH
	DB	08H
	DB	0ffH
	DB	028H
	DB	01cH
	DB	00H
	DB	0ffH
	DB	020H
	DB	01cH
	DB	08H
	DB	0ffH
	DB	020H
	DB	01cH
	DB	08H
	DB	0ffH
	DB	028H
	DB	01cH
	DB	00H
	DB	0ffH
	DB	020H
	DB	01cH
	DB	08H
	DB	0ffH
	DB	028H
	DB	01cH
	DB	08H
	DB	0ffH
	DB	020H
	DB	01cH
	DB	00H
	DB	0ffH
	DB	028H
	DB	01cH
	DB	08H
	DB	0ffH
	DB	020H
	DB	01cH
	DB	00H
	DB	0ffH
	DB	020H
	DB	01cH
	DB	08H
	DB	0ffH
	DB	028H
	DB	01cH
	DB	08H
	DB	0ffH
	DB	020H
	DB	01cH
	DB	00H
	DB	0ffH
	DB	020H
	DB	01cH
	DB	08H
	DB	0ffH
	DB	028H
	DB	01cH
	DB	00H
	DB	0ffH
	DB	020H
	DB	01cH
	DB	08H
	DB	0ffH
	DB	020H
	DB	01cH
	DB	00H
	DB	0ffH
	DB	028H
	DB	01cH
	DB	08H
	DB	0ffH
	DB	028H
	DB	01cH
	DB	00H
	DB	0ffH
	DB	020H
	DB	01cH
	DB	08H
	DB	0ffH
	DB	028H
	DB	01cH
	DB	08H
	DB	0ffH
	DB	020H
	DB	01cH
	DB	00H
	DB	0ffH
	DB	028H
	DB	01cH
	DB	08H
	DB	0ffH
	DB	020H
	DB	01cH
	DB	08H
	DB	0ffH
	DB	028H
	DB	01cH
	DB	00H
	DB	0ffH
	DB	020H
	DB	01cH
	DB	08H
	DB	0ffH
	DB	028H
	DB	01cH
	DB	00H
	DB	0ffH
	DB	020H
	DB	01cH
	DB	08H
	DB	0ffH
	DB	028H
	DB	01cH
	DB	08H
	DB	0ffH
	DB	020H
	DB	01cH
	DB	00H
	DB	0ffH
	DB	028H
	DB	01cH
	DB	08H
	DB	0ffH
	DB	020H
	DB	01cH
	DB	00H
	DB	0ffH
	DB	028H
	DB	01cH
	DB	08H
	DB	0ffH
	DB	020H
	DB	01cH
	DB	08H
	DB	0ffH
	DB	020H
	DB	01cH
	DB	00H
	DB	0ffH
	DB	028H
	DB	01cH
	DB	08H
	DB	0ffH
	DB	020H
	DB	01cH
	DB	00H
	DB	0ffH
	DB	020H
	DB	01cH
	DB	08H
	DB	0ffH
	DB	028H
	DB	01cH
	DB	08H
	DB	0ffH
	DB	020H
	DB	01cH
	DB	00H
	DB	0ffH
	DB	020H
	DB	01cH
	DB	00H
	DB	0ffH
	DB	028H
	DB	01cH
	DB	08H
	DB	0ffH
	DB	020H
	DB	01cH
	DB	08H
	DB	0ffH
	DB	020H
	DB	01cH
	DB	00H
	DB	0ffH
	DB	028H
	DB	01cH
	DB	08H
	DB	0ffH
	DB	020H
	DB	01cH
	DB	08H
	DB	0ffH
	DB	028H
	DB	01cH
	DB	00H
	DB	0ffH
	DB	028H
	DB	01cH
	DB	08H
	DB	0ffH
	DB	020H
	DB	01cH
	DB	00H
	DB	0ffH
	DB	028H
	DB	01cH
	DB	08H
	DB	0ffH
	DB	020H
	DB	01cH
	DB	08H
	DB	0ffH
	DB	020H
	DB	01cH
	DB	00H
	DB	0ffH
	DB	028H
	DB	01cH
	DB	08H
	DB	0ffH
	DB	020H
	DB	01cH
	DB	08H
	DB	0ffH
	DB	020H
	DB	01cH
	DB	00H
	DB	0ffH
	DB	028H
	DB	01cH
	DB	08H
	DB	0ffH
	DB	020H
	DB	01cH
	DB	08H
	DB	0ffH
	DB	028H
	DB	01cH
	DB	00H
	DB	0ffH
	DB	020H
	DB	01cH
	DB	08H
	DB	0ffH
	DB	028H
	DB	01cH
	DB	08H
	DB	0ffH
	DB	020H
	DB	01cH
	DB	00H
	DB	0ffH
	DB	020H
	DB	01cH
	DB	08H
	DB	0ffH
	DB	028H
	DB	01cH
	DB	08H
	DB	0ffH
	DB	020H
	DB	01cH
	DB	00H
	DB	0ffH
	DB	020H
	DB	01cH
	DB	08H
	DB	0ffH
	DB	020H
	DB	01cH
	DB	08H
	DB	0ffH
	DB	028H
	DB	01cH
	DB	00H
	DB	0ffH
	DB	020H
	DB	01cH
	DB	08H
	DB	0ffH
	DB	020H
	DB	01cH
	DB	08H
	DB	0ffH
	DB	028H
	DB	01cH
	DB	00H
	DB	0ffH
	DB	020H
	DB	01cH
	DB	08H
	DB	0ffH
	DB	020H
	DB	01cH
	DB	00H
	DB	0ffH
	DB	028H
	DB	01cH
	DB	00H
	DB	0ffH
	DB	020H
	DB	01cH
	DB	08H
	DB	0ffH
	DB	028H
	DB	01cH
	DB	00H
	DB	0ffH
	DB	020H
	DB	01cH
	DB	00H
	DB	0ffH
	DB	020H
	DB	01cH
	DB	08H
	DB	0ffH
	DB	028H
	DB	01cH
	DB	08H
	DB	0ffH
	DB	020H
	DB	01cH
	DB	00H
	DB	0ffH
	DB	028H
	DB	01cH
	DB	08H
	DB	0ffH
	DB	028H
	DB	01cH
	DB	08H
	DB	0ffH
	DB	020H
	DB	01cH
	DB	00H
	DB	0ffH
	DB	020H
	DB	01cH
	DB	08H
	DB	0ffH
	DB	028H
	DB	01cH
	DB	00H
	DB	0ffH
	DB	020H
	DB	01cH
	DB	08H
	DB	0ffH
	DB	020H
	DB	01cH
	DB	08H
	DB	0ffH
	DB	028H
	DB	01cH
	DB	00H
	DB	0ffH
	DB	020H
	DB	01cH
	DB	08H
	DB	0ffH
	DB	028H
	DB	01cH
	DB	00H
	DB	0ffH
	DB	020H
	DB	01cH
	DB	08H
	DB	0ffH
	DB	020H
	DB	01cH
	DB	08H
	DB	0ffH
	DB	028H
	DB	01cH
	DB	00H
	DB	0ffH
	DB	020H
	DB	01cH
	DB	08H
	DB	0ffH
	DB	020H
	DB	01cH
	DB	00H
	DB	0ffH
	DB	028H
	DB	01cH
	DB	00H
	DB	0ffH
	DB	020H
	DB	01cH
	DB	08H
	DB	0ffH
	DB	020H
	DB	01cH
	DB	08H
	DB	0ffH
	DB	028H
	DB	01cH
	DB	00H
	DB	0ffH
	DB	020H
	DB	01cH
	DB	08H
	DB	0ffH
	DB	020H
	DB	01cH
	DB	08H
	DB	0ffH
	DB	028H
	DB	01cH
	DB	00H
	DB	0ffH
	DB	020H
	DB	01cH
	DB	08H
	DB	0ffH
	DB	020H
	DB	01cH
	DB	08H
	DB	0ffH
	DB	028H
	DB	01cH
	DB	00H
	DB	0ffH
	DB	020H
	DB	01cH
	DB	08H
	DB	0ffH
	DB	028H
	DB	01cH
	DB	08H
	DB	0ffH
	DB	020H
	DB	01cH
	DB	08H
	DB	0ffH
	DB	028H
	DB	01cH
	DB	08H
	DB	0ffH
	DB	028H
	DB	020H
	DB	08H
	DB	0ffH
	DB	028H
	DB	020H
	DB	08H
	DB	0ffH
	DB	028H
	DB	024H
	DB	08H
	DB	0ffH
	DB	030H
	DB	024H
	DB	010H
	DB	0ffH
	DB	038H
	DB	02cH
	DB	010H
	DB	0ffH
	DB	030H
	DB	02cH
	DB	010H
	DB	0ffH
	DB	0a8H
	DB	094H
	DB	070H
	DB	0ffH
	DB	060H
	DB	064H
	DB	068H
	DB	0ffH
	DB	0f0H
	DB	0b0H
	DB	00H
	DB	0ffH
	DB	0f0H
	DB	0acH
	DB	00H
	DB	0ffH
	DB	0e8H
	DB	0b0H
	DB	00H
	DB	0ffH
	DB	00H
	DB	00H
	DB	00H
	DB	061H
	DB	00H
	DB	00H
	DB	00H
	DB	030H
	DB	00H
	DB	00H
	DB	00H
	DB	010H
	DB	00H
	DB	00H
	DB	00H
	DB	010H
	DB	00H
	DB	00H
	DB	00H
	DB	030H
	DB	00H
	DB	00H
	DB	00H
	DB	061H
	DB	0f0H
	DB	0b0H
	DB	00H
	DB	0ffH
	DB	0f0H
	DB	0b0H
	DB	00H
	DB	0ffH
	DB	0f0H
	DB	0acH
	DB	00H
	DB	0ffH
	DB	060H
	DB	064H
	DB	068H
	DB	0ffH
	DB	0a8H
	DB	094H
	DB	068H
	DB	0ffH
	DB	030H
	DB	02cH
	DB	010H
	DB	0ffH
	DB	038H
	DB	02cH
	DB	010H
	DB	0ffH
	DB	030H
	DB	028H
	DB	010H
	DB	0ffH
	DB	028H
	DB	024H
	DB	010H
	DB	0ffH
	DB	028H
	DB	020H
	DB	08H
	DB	0ffH
	DB	028H
	DB	020H
	DB	08H
	DB	0ffH
	DB	020H
	DB	01cH
	DB	08H
	DB	0ffH
	DB	020H
	DB	01cH
	DB	08H
	DB	0ffH
	DB	028H
	DB	01cH
	DB	08H
	DB	0ffH
	DB	020H
	DB	01cH
	DB	00H
	DB	0ffH
	DB	020H
	DB	018H
	DB	08H
	DB	0ffH
	DB	020H
	DB	018H
	DB	08H
	DB	0ffH
	DB	020H
	DB	018H
	DB	00H
	DB	0ffH
	DB	020H
	DB	018H
	DB	08H
	DB	0ffH
	DB	020H
	DB	018H
	DB	08H
	DB	0ffH
	DB	020H
	DB	018H
	DB	00H
	DB	0ffH
	DB	020H
	DB	018H
	DB	08H
	DB	0ffH
	DB	028H
	DB	018H
	DB	08H
	DB	0ffH
	DB	020H
	DB	018H
	DB	00H
	DB	0ffH
	DB	020H
	DB	018H
	DB	00H
	DB	0ffH
	DB	020H
	DB	01cH
	DB	08H
	DB	0ffH
	DB	020H
	DB	018H
	DB	00H
	DB	0ffH
	DB	020H
	DB	018H
	DB	08H
	DB	0ffH
	DB	020H
	DB	01cH
	DB	00H
	DB	0ffH
	DB	020H
	DB	018H
	DB	08H
	DB	0ffH
	DB	020H
	DB	018H
	DB	08H
	DB	0ffH
	DB	020H
	DB	018H
	DB	00H
	DB	0ffH
	DB	020H
	DB	018H
	DB	08H
	DB	0ffH
	DB	020H
	DB	01cH
	DB	00H
	DB	0ffH
	DB	020H
	DB	018H
	DB	08H
	DB	0ffH
	DB	020H
	DB	018H
	DB	08H
	DB	0ffH
	DB	020H
	DB	018H
	DB	00H
	DB	0ffH
	DB	020H
	DB	018H
	DB	08H
	DB	0ffH
	DB	020H
	DB	018H
	DB	08H
	DB	0ffH
	DB	020H
	DB	018H
	DB	00H
	DB	0ffH
	DB	020H
	DB	018H
	DB	08H
	DB	0ffH
	DB	020H
	DB	018H
	DB	08H
	DB	0ffH
	DB	020H
	DB	018H
	DB	00H
	DB	0ffH
	DB	020H
	DB	018H
	DB	00H
	DB	0ffH
	DB	020H
	DB	018H
	DB	08H
	DB	0ffH
	DB	020H
	DB	018H
	DB	08H
	DB	0ffH
	DB	020H
	DB	018H
	DB	00H
	DB	0ffH
	DB	020H
	DB	018H
	DB	08H
	DB	0ffH
	DB	020H
	DB	018H
	DB	00H
	DB	0ffH
	DB	020H
	DB	01cH
	DB	08H
	DB	0ffH
	DB	020H
	DB	018H
	DB	08H
	DB	0ffH
	DB	020H
	DB	018H
	DB	00H
	DB	0ffH
	DB	020H
	DB	01cH
	DB	08H
	DB	0ffH
	DB	020H
	DB	018H
	DB	00H
	DB	0ffH
	DB	020H
	DB	018H
	DB	08H
	DB	0ffH
	DB	020H
	DB	018H
	DB	08H
	DB	0ffH
	DB	020H
	DB	01cH
	DB	00H
	DB	0ffH
	DB	020H
	DB	018H
	DB	08H
	DB	0ffH
	DB	020H
	DB	018H
	DB	00H
	DB	0ffH
	DB	020H
	DB	018H
	DB	08H
	DB	0ffH
	DB	020H
	DB	018H
	DB	08H
	DB	0ffH
	DB	020H
	DB	018H
	DB	08H
	DB	0ffH
	DB	028H
	DB	01cH
	DB	00H
	DB	0ffH
	DB	020H
	DB	018H
	DB	08H
	DB	0ffH
	DB	020H
	DB	018H
	DB	00H
	DB	0ffH
	DB	020H
	DB	018H
	DB	08H
	DB	0ffH
	DB	020H
	DB	01cH
	DB	00H
	DB	0ffH
	DB	020H
	DB	018H
	DB	08H
	DB	0ffH
	DB	020H
	DB	018H
	DB	08H
	DB	0ffH
	DB	020H
	DB	018H
	DB	00H
	DB	0ffH
	DB	020H
	DB	018H
	DB	08H
	DB	0ffH
	DB	020H
	DB	018H
	DB	08H
	DB	0ffH
	DB	020H
	DB	018H
	DB	00H
	DB	0ffH
	DB	020H
	DB	018H
	DB	08H
	DB	0ffH
	DB	020H
	DB	018H
	DB	08H
	DB	0ffH
	DB	020H
	DB	018H
	DB	00H
	DB	0ffH
	DB	020H
	DB	018H
	DB	08H
	DB	0ffH
	DB	020H
	DB	018H
	DB	08H
	DB	0ffH
	DB	020H
	DB	018H
	DB	00H
	DB	0ffH
	DB	020H
	DB	018H
	DB	08H
	DB	0ffH
	DB	020H
	DB	018H
	DB	08H
	DB	0ffH
	DB	020H
	DB	018H
	DB	00H
	DB	0ffH
	DB	020H
	DB	018H
	DB	08H
	DB	0ffH
	DB	020H
	DB	018H
	DB	08H
	DB	0ffH
	DB	020H
	DB	01cH
	DB	00H
	DB	0ffH
	DB	020H
	DB	018H
	DB	00H
	DB	0ffH
	DB	028H
	DB	018H
	DB	08H
	DB	0ffH
	DB	020H
	DB	018H
	DB	00H
	DB	0ffH
	DB	020H
	DB	018H
	DB	08H
	DB	0ffH
	DB	020H
	DB	018H
	DB	08H
	DB	0ffH
	DB	020H
	DB	018H
	DB	00H
	DB	0ffH
	DB	028H
	DB	018H
	DB	08H
	DB	0ffH
	DB	020H
	DB	01cH
	DB	08H
	DB	0ffH
	DB	020H
	DB	018H
	DB	00H
	DB	0ffH
	DB	020H
	DB	018H
	DB	08H
	DB	0ffH
	DB	020H
	DB	018H
	DB	08H
	DB	0ffH
	DB	020H
	DB	018H
	DB	00H
	DB	0ffH
	DB	020H
	DB	018H
	DB	08H
	DB	0ffH
	DB	020H
	DB	018H
	DB	00H
	DB	0ffH
	DB	020H
	DB	018H
	DB	08H
	DB	0ffH
	DB	020H
	DB	018H
	DB	00H
	DB	0ffH
	DB	020H
	DB	018H
	DB	08H
	DB	0ffH
	DB	020H
	DB	018H
	DB	08H
	DB	0ffH
	DB	020H
	DB	018H
	DB	00H
	DB	0ffH
	DB	020H
	DB	018H
	DB	08H
	DB	0ffH
	DB	020H
	DB	018H
	DB	00H
	DB	0ffH
	DB	020H
	DB	018H
	DB	08H
	DB	0ffH
	DB	020H
	DB	018H
	DB	00H
	DB	0ffH
	DB	020H
	DB	018H
	DB	08H
	DB	0ffH
	DB	020H
	DB	018H
	DB	08H
	DB	0ffH
	DB	020H
	DB	018H
	DB	00H
	DB	0ffH
	DB	020H
	DB	01cH
	DB	08H
	DB	0ffH
	DB	028H
	DB	018H
	DB	08H
	DB	0ffH
	DB	020H
	DB	01cH
	DB	08H
	DB	0ffH
	DB	020H
	DB	018H
	DB	08H
	DB	0ffH
	DB	020H
	DB	018H
	DB	00H
	DB	0ffH
	DB	020H
	DB	01cH
	DB	08H
	DB	0ffH
	DB	020H
	DB	018H
	DB	00H
	DB	0ffH
	DB	028H
	DB	018H
	DB	08H
	DB	0ffH
	DB	020H
	DB	018H
	DB	08H
	DB	0ffH
	DB	020H
	DB	018H
	DB	00H
	DB	0ffH
	DB	020H
	DB	018H
	DB	08H
	DB	0ffH
	DB	020H
	DB	018H
	DB	08H
	DB	0ffH
	DB	020H
	DB	018H
	DB	00H
	DB	0ffH
	DB	020H
	DB	01cH
	DB	08H
	DB	0ffH
	DB	020H
	DB	01cH
	DB	00H
	DB	0ffH
	DB	020H
	DB	01cH
	DB	08H
	DB	0ffH
	DB	020H
	DB	01cH
	DB	00H
	DB	0ffH
	DB	020H
	DB	01cH
	DB	08H
	DB	0ffH
	DB	028H
	DB	01cH
	DB	08H
	DB	0ffH
	DB	028H
	DB	020H
	DB	08H
	DB	0ffH
	DB	030H
	DB	024H
	DB	010H
	DB	0ffH
	DB	030H
	DB	028H
	DB	010H
	DB	0ffH
	DB	038H
	DB	02cH
	DB	018H
	DB	0ffH
	DB	030H
	DB	02cH
	DB	010H
	DB	0ffH
	DB	0a8H
	DB	094H
	DB	068H
	DB	0ffH
	DB	060H
	DB	064H
	DB	060H
	DB	0ffH
	DB	0f0H
	DB	0acH
	DB	00H
	DB	0ffH
	DB	0f0H
	DB	0b0H
	DB	00H
	DB	0ffH
	DB	0f0H
	DB	0acH
	DB	00H
	DB	0ffH
	DB	00H
	DB	00H
	DB	00H
	DB	061H
	DB	00H
	DB	00H
	DB	00H
	DB	030H
	DB	00H
	DB	00H
	DB	00H
	DB	010H
	DB	00H
	DB	00H
	DB	00H
	DB	010H
	DB	00H
	DB	00H
	DB	00H
	DB	030H
	DB	00H
	DB	00H
	DB	00H
	DB	061H
	DB	0f0H
	DB	0acH
	DB	00H
	DB	0ffH
	DB	0f0H
	DB	0b0H
	DB	00H
	DB	0ffH
	DB	0f0H
	DB	0b0H
	DB	00H
	DB	0ffH
	DB	060H
	DB	060H
	DB	060H
	DB	0ffH
	DB	0a8H
	DB	094H
	DB	060H
	DB	0ffH
	DB	038H
	DB	02cH
	DB	010H
	DB	0ffH
	DB	038H
	DB	02cH
	DB	018H
	DB	0ffH
	DB	030H
	DB	024H
	DB	010H
	DB	0ffH
	DB	028H
	DB	024H
	DB	08H
	DB	0ffH
	DB	028H
	DB	020H
	DB	08H
	DB	0ffH
	DB	028H
	DB	01cH
	DB	08H
	DB	0ffH
	DB	020H
	DB	01cH
	DB	08H
	DB	0ffH
	DB	020H
	DB	01cH
	DB	08H
	DB	0ffH
	DB	020H
	DB	018H
	DB	08H
	DB	0ffH
	DB	020H
	DB	018H
	DB	00H
	DB	0ffH
	DB	020H
	DB	01cH
	DB	08H
	DB	0ffH
	DB	020H
	DB	01cH
	DB	08H
	DB	0ffH
	DB	020H
	DB	018H
	DB	00H
	DB	0ffH
	DB	020H
	DB	01cH
	DB	08H
	DB	0ffH
	DB	020H
	DB	01cH
	DB	00H
	DB	0ffH
	DB	020H
	DB	018H
	DB	08H
	DB	0ffH
	DB	020H
	DB	01cH
	DB	08H
	DB	0ffH
	DB	020H
	DB	01cH
	DB	00H
	DB	0ffH
	DB	020H
	DB	018H
	DB	08H
	DB	0ffH
	DB	020H
	DB	01cH
	DB	08H
	DB	0ffH
	DB	020H
	DB	018H
	DB	08H
	DB	0ffH
	DB	020H
	DB	018H
	DB	00H
	DB	0ffH
	DB	020H
	DB	01cH
	DB	08H
	DB	0ffH
	DB	020H
	DB	018H
	DB	08H
	DB	0ffH
	DB	020H
	DB	018H
	DB	00H
	DB	0ffH
	DB	028H
	DB	01cH
	DB	08H
	DB	0ffH
	DB	020H
	DB	018H
	DB	08H
	DB	0ffH
	DB	020H
	DB	018H
	DB	00H
	DB	0ffH
	DB	028H
	DB	01cH
	DB	08H
	DB	0ffH
	DB	020H
	DB	018H
	DB	08H
	DB	0ffH
	DB	020H
	DB	01cH
	DB	00H
	DB	0ffH
	DB	020H
	DB	01cH
	DB	08H
	DB	0ffH
	DB	020H
	DB	018H
	DB	08H
	DB	0ffH
	DB	020H
	DB	01cH
	DB	00H
	DB	0ffH
	DB	020H
	DB	01cH
	DB	08H
	DB	0ffH
	DB	020H
	DB	018H
	DB	00H
	DB	0ffH
	DB	020H
	DB	01cH
	DB	08H
	DB	0ffH
	DB	020H
	DB	01cH
	DB	08H
	DB	0ffH
	DB	020H
	DB	018H
	DB	00H
	DB	0ffH
	DB	020H
	DB	01cH
	DB	08H
	DB	0ffH
	DB	020H
	DB	01cH
	DB	08H
	DB	0ffH
	DB	020H
	DB	01cH
	DB	00H
	DB	0ffH
	DB	020H
	DB	018H
	DB	08H
	DB	0ffH
	DB	020H
	DB	01cH
	DB	08H
	DB	0ffH
	DB	020H
	DB	018H
	DB	00H
	DB	0ffH
	DB	020H
	DB	018H
	DB	08H
	DB	0ffH
	DB	020H
	DB	01cH
	DB	08H
	DB	0ffH
	DB	020H
	DB	018H
	DB	00H
	DB	0ffH
	DB	020H
	DB	01cH
	DB	08H
	DB	0ffH
	DB	028H
	DB	018H
	DB	00H
	DB	0ffH
	DB	020H
	DB	01cH
	DB	08H
	DB	0ffH
	DB	020H
	DB	018H
	DB	08H
	DB	0ffH
	DB	020H
	DB	01cH
	DB	00H
	DB	0ffH
	DB	028H
	DB	01cH
	DB	08H
	DB	0ffH
	DB	020H
	DB	01cH
	DB	00H
	DB	0ffH
	DB	020H
	DB	018H
	DB	08H
	DB	0ffH
	DB	020H
	DB	01cH
	DB	08H
	DB	0ffH
	DB	020H
	DB	018H
	DB	00H
	DB	0ffH
	DB	020H
	DB	01cH
	DB	08H
	DB	0ffH
	DB	020H
	DB	01cH
	DB	08H
	DB	0ffH
	DB	020H
	DB	018H
	DB	00H
	DB	0ffH
	DB	020H
	DB	01cH
	DB	08H
	DB	0ffH
	DB	020H
	DB	01cH
	DB	08H
	DB	0ffH
	DB	020H
	DB	018H
	DB	00H
	DB	0ffH
	DB	020H
	DB	01cH
	DB	08H
	DB	0ffH
	DB	020H
	DB	01cH
	DB	00H
	DB	0ffH
	DB	020H
	DB	01cH
	DB	08H
	DB	0ffH
	DB	028H
	DB	01cH
	DB	00H
	DB	0ffH
	DB	020H
	DB	01cH
	DB	08H
	DB	0ffH
	DB	020H
	DB	01cH
	DB	00H
	DB	0ffH
	DB	020H
	DB	01cH
	DB	08H
	DB	0ffH
	DB	020H
	DB	01cH
	DB	00H
	DB	0ffH
	DB	020H
	DB	01cH
	DB	08H
	DB	0ffH
	DB	020H
	DB	01cH
	DB	00H
	DB	0ffH
	DB	020H
	DB	01cH
	DB	08H
	DB	0ffH
	DB	020H
	DB	01cH
	DB	00H
	DB	0ffH
	DB	020H
	DB	01cH
	DB	08H
	DB	0ffH
	DB	028H
	DB	018H
	DB	00H
	DB	0ffH
	DB	020H
	DB	01cH
	DB	08H
	DB	0ffH
	DB	020H
	DB	01cH
	DB	08H
	DB	0ffH
	DB	020H
	DB	018H
	DB	08H
	DB	0ffH
	DB	020H
	DB	01cH
	DB	08H
	DB	0ffH
	DB	020H
	DB	01cH
	DB	00H
	DB	0ffH
	DB	020H
	DB	01cH
	DB	08H
	DB	0ffH
	DB	020H
	DB	01cH
	DB	00H
	DB	0ffH
	DB	020H
	DB	018H
	DB	08H
	DB	0ffH
	DB	020H
	DB	01cH
	DB	08H
	DB	0ffH
	DB	020H
	DB	01cH
	DB	08H
	DB	0ffH
	DB	020H
	DB	018H
	DB	00H
	DB	0ffH
	DB	020H
	DB	01cH
	DB	08H
	DB	0ffH
	DB	020H
	DB	01cH
	DB	08H
	DB	0ffH
	DB	020H
	DB	01cH
	DB	08H
	DB	0ffH
	DB	020H
	DB	01cH
	DB	00H
	DB	0ffH
	DB	020H
	DB	018H
	DB	08H
	DB	0ffH
	DB	020H
	DB	01cH
	DB	08H
	DB	0ffH
	DB	020H
	DB	01cH
	DB	00H
	DB	0ffH
	DB	020H
	DB	018H
	DB	08H
	DB	0ffH
	DB	020H
	DB	01cH
	DB	08H
	DB	0ffH
	DB	028H
	DB	01cH
	DB	00H
	DB	0ffH
	DB	020H
	DB	01cH
	DB	08H
	DB	0ffH
	DB	020H
	DB	01cH
	DB	08H
	DB	0ffH
	DB	020H
	DB	018H
	DB	00H
	DB	0ffH
	DB	020H
	DB	01cH
	DB	08H
	DB	0ffH
	DB	020H
	DB	01cH
	DB	08H
	DB	0ffH
	DB	020H
	DB	018H
	DB	00H
	DB	0ffH
	DB	020H
	DB	01cH
	DB	00H
	DB	0ffH
	DB	020H
	DB	018H
	DB	08H
	DB	0ffH
	DB	020H
	DB	018H
	DB	00H
	DB	0ffH
	DB	020H
	DB	01cH
	DB	00H
	DB	0ffH
	DB	020H
	DB	018H
	DB	08H
	DB	0ffH
	DB	020H
	DB	01cH
	DB	08H
	DB	0ffH
	DB	020H
	DB	018H
	DB	00H
	DB	0ffH
	DB	020H
	DB	01cH
	DB	08H
	DB	0ffH
	DB	020H
	DB	01cH
	DB	08H
	DB	0ffH
	DB	020H
	DB	01cH
	DB	00H
	DB	0ffH
	DB	020H
	DB	01cH
	DB	08H
	DB	0ffH
	DB	020H
	DB	01cH
	DB	08H
	DB	0ffH
	DB	020H
	DB	018H
	DB	00H
	DB	0ffH
	DB	028H
	DB	01cH
	DB	08H
	DB	0ffH
	DB	020H
	DB	018H
	DB	08H
	DB	0ffH
	DB	020H
	DB	018H
	DB	00H
	DB	0ffH
	DB	028H
	DB	018H
	DB	08H
	DB	0ffH
	DB	020H
	DB	01cH
	DB	08H
	DB	0ffH
	DB	020H
	DB	01cH
	DB	08H
	DB	0ffH
	DB	028H
	DB	01cH
	DB	08H
	DB	0ffH
	DB	028H
	DB	020H
	DB	08H
	DB	0ffH
	DB	028H
	DB	024H
	DB	08H
	DB	0ffH
	DB	030H
	DB	024H
	DB	010H
	DB	0ffH
	DB	038H
	DB	02cH
	DB	010H
	DB	0ffH
	DB	038H
	DB	02cH
	DB	010H
	DB	0ffH
	DB	0a8H
	DB	094H
	DB	060H
	DB	0ffH
	DB	060H
	DB	064H
	DB	060H
	DB	0ffH
	DB	0f0H
	DB	0acH
	DB	00H
	DB	0ffH
	DB	0f0H
	DB	0b0H
	DB	00H
	DB	0ffH
	DB	0f0H
	DB	0b0H
	DB	00H
	DB	0ffH
	DB	00H
	DB	00H
	DB	00H
	DB	061H
	DB	00H
	DB	00H
	DB	00H
	DB	030H
	DB	00H
	DB	00H
	DB	00H
	DB	010H
	DB	00H
	DB	00H
	DB	00H
	DB	010H
	DB	00H
	DB	00H
	DB	00H
	DB	030H
	DB	00H
	DB	00H
	DB	00H
	DB	061H
	DB	0f0H
	DB	0acH
	DB	00H
	DB	0ffH
	DB	0f0H
	DB	0acH
	DB	00H
	DB	0ffH
	DB	0e8H
	DB	0b0H
	DB	00H
	DB	0ffH
	DB	060H
	DB	060H
	DB	060H
	DB	0ffH
	DB	0a0H
	DB	090H
	DB	058H
	DB	0ffH
	DB	038H
	DB	02cH
	DB	010H
	DB	0ffH
	DB	038H
	DB	030H
	DB	018H
	DB	0ffH
	DB	030H
	DB	024H
	DB	010H
	DB	0ffH
	DB	028H
	DB	024H
	DB	08H
	DB	0ffH
	DB	028H
	DB	020H
	DB	08H
	DB	0ffH
	DB	028H
	DB	01cH
	DB	08H
	DB	0ffH
	DB	020H
	DB	01cH
	DB	08H
	DB	0ffH
	DB	020H
	DB	018H
	DB	08H
	DB	0ffH
	DB	020H
	DB	018H
	DB	08H
	DB	0ffH
	DB	020H
	DB	018H
	DB	00H
	DB	0ffH
	DB	020H
	DB	018H
	DB	08H
	DB	0ffH
	DB	020H
	DB	018H
	DB	00H
	DB	0ffH
	DB	020H
	DB	018H
	DB	08H
	DB	0ffH
	DB	020H
	DB	018H
	DB	08H
	DB	0ffH
	DB	020H
	DB	018H
	DB	00H
	DB	0ffH
	DB	020H
	DB	018H
	DB	08H
	DB	0ffH
	DB	020H
	DB	018H
	DB	00H
	DB	0ffH
	DB	020H
	DB	018H
	DB	08H
	DB	0ffH
	DB	020H
	DB	018H
	DB	08H
	DB	0ffH
	DB	020H
	DB	018H
	DB	00H
	DB	0ffH
	DB	020H
	DB	018H
	DB	08H
	DB	0ffH
	DB	020H
	DB	018H
	DB	08H
	DB	0ffH
	DB	020H
	DB	018H
	DB	00H
	DB	0ffH
	DB	020H
	DB	018H
	DB	08H
	DB	0ffH
	DB	020H
	DB	018H
	DB	00H
	DB	0ffH
	DB	020H
	DB	01cH
	DB	08H
	DB	0ffH
	DB	020H
	DB	018H
	DB	08H
	DB	0ffH
	DB	020H
	DB	018H
	DB	00H
	DB	0ffH
	DB	020H
	DB	018H
	DB	08H
	DB	0ffH
	DB	020H
	DB	018H
	DB	08H
	DB	0ffH
	DB	020H
	DB	018H
	DB	00H
	DB	0ffH
	DB	020H
	DB	018H
	DB	08H
	DB	0ffH
	DB	020H
	DB	018H
	DB	08H
	DB	0ffH
	DB	020H
	DB	018H
	DB	00H
	DB	0ffH
	DB	020H
	DB	018H
	DB	08H
	DB	0ffH
	DB	020H
	DB	018H
	DB	08H
	DB	0ffH
	DB	020H
	DB	018H
	DB	00H
	DB	0ffH
	DB	020H
	DB	018H
	DB	08H
	DB	0ffH
	DB	020H
	DB	018H
	DB	08H
	DB	0ffH
	DB	020H
	DB	018H
	DB	00H
	DB	0ffH
	DB	020H
	DB	018H
	DB	08H
	DB	0ffH
	DB	020H
	DB	018H
	DB	08H
	DB	0ffH
	DB	020H
	DB	018H
	DB	00H
	DB	0ffH
	DB	020H
	DB	018H
	DB	08H
	DB	0ffH
	DB	020H
	DB	018H
	DB	00H
	DB	0ffH
	DB	020H
	DB	018H
	DB	08H
	DB	0ffH
	DB	020H
	DB	018H
	DB	08H
	DB	0ffH
	DB	020H
	DB	018H
	DB	00H
	DB	0ffH
	DB	020H
	DB	018H
	DB	08H
	DB	0ffH
	DB	020H
	DB	018H
	DB	08H
	DB	0ffH
	DB	020H
	DB	018H
	DB	00H
	DB	0ffH
	DB	020H
	DB	018H
	DB	08H
	DB	0ffH
	DB	020H
	DB	018H
	DB	08H
	DB	0ffH
	DB	020H
	DB	018H
	DB	00H
	DB	0ffH
	DB	020H
	DB	018H
	DB	08H
	DB	0ffH
	DB	020H
	DB	018H
	DB	00H
	DB	0ffH
	DB	020H
	DB	018H
	DB	08H
	DB	0ffH
	DB	020H
	DB	018H
	DB	08H
	DB	0ffH
	DB	020H
	DB	018H
	DB	00H
	DB	0ffH
	DB	020H
	DB	018H
	DB	08H
	DB	0ffH
	DB	020H
	DB	018H
	DB	08H
	DB	0ffH
	DB	020H
	DB	018H
	DB	00H
	DB	0ffH
	DB	020H
	DB	018H
	DB	08H
	DB	0ffH
	DB	020H
	DB	018H
	DB	08H
	DB	0ffH
	DB	020H
	DB	018H
	DB	00H
	DB	0ffH
	DB	020H
	DB	018H
	DB	08H
	DB	0ffH
	DB	020H
	DB	018H
	DB	08H
	DB	0ffH
	DB	020H
	DB	018H
	DB	08H
	DB	0ffH
	DB	020H
	DB	018H
	DB	00H
	DB	0ffH
	DB	020H
	DB	018H
	DB	08H
	DB	0ffH
	DB	020H
	DB	018H
	DB	08H
	DB	0ffH
	DB	020H
	DB	018H
	DB	00H
	DB	0ffH
	DB	020H
	DB	018H
	DB	08H
	DB	0ffH
	DB	020H
	DB	018H
	DB	08H
	DB	0ffH
	DB	020H
	DB	018H
	DB	00H
	DB	0ffH
	DB	020H
	DB	018H
	DB	08H
	DB	0ffH
	DB	020H
	DB	018H
	DB	08H
	DB	0ffH
	DB	020H
	DB	018H
	DB	00H
	DB	0ffH
	DB	020H
	DB	018H
	DB	00H
	DB	0ffH
	DB	020H
	DB	018H
	DB	08H
	DB	0ffH
	DB	020H
	DB	018H
	DB	08H
	DB	0ffH
	DB	020H
	DB	018H
	DB	00H
	DB	0ffH
	DB	020H
	DB	018H
	DB	08H
	DB	0ffH
	DB	020H
	DB	018H
	DB	08H
	DB	0ffH
	DB	020H
	DB	018H
	DB	00H
	DB	0ffH
	DB	020H
	DB	018H
	DB	00H
	DB	0ffH
	DB	020H
	DB	018H
	DB	08H
	DB	0ffH
	DB	020H
	DB	018H
	DB	00H
	DB	0ffH
	DB	020H
	DB	018H
	DB	08H
	DB	0ffH
	DB	020H
	DB	018H
	DB	00H
	DB	0ffH
	DB	020H
	DB	018H
	DB	08H
	DB	0ffH
	DB	020H
	DB	018H
	DB	00H
	DB	0ffH
	DB	020H
	DB	018H
	DB	08H
	DB	0ffH
	DB	020H
	DB	018H
