; Listing generated by Microsoft (R) Optimizing Compiler Version 19.27.29112.0 

	TITLE	D:\hackTuesProject\project\TouchGFX\generated\images\src\__designer\image_Blue_Slider_Horizontal_Small_slider_horizontal_small_back.cpp
	.686P
	.XMM
	include listing.inc
	.model	flat

INCLUDELIB MSVCRTD
INCLUDELIB OLDNAMES

PUBLIC	?image_blue_slider_horizontal_small_slider_horizontal_small_back@@3QBEB ; image_blue_slider_horizontal_small_slider_horizontal_small_back
CONST	SEGMENT
?image_blue_slider_horizontal_small_slider_horizontal_small_back@@3QBEB DB 075H ; image_blue_slider_horizontal_small_slider_horizontal_small_back
	DB	0adH
	DB	076H
	DB	0b5H
	DB	075H
	DB	0adH
	DB	075H
	DB	0adH
	DB	076H
	DB	0b5H
	DB	075H
	DB	0adH
	DB	075H
	DB	0adH
	DB	076H
	DB	0b5H
	DB	075H
	DB	0adH
	DB	075H
	DB	0adH
	DB	076H
	DB	0b5H
	DB	075H
	DB	0adH
	DB	075H
	DB	0adH
	DB	076H
	DB	0b5H
	DB	075H
	DB	0adH
	DB	075H
	DB	0adH
	DB	076H
	DB	0b5H
	DB	075H
	DB	0adH
	DB	075H
	DB	0adH
	DB	076H
	DB	0b5H
	DB	075H
	DB	0adH
	DB	075H
	DB	0adH
	DB	076H
	DB	0b5H
	DB	075H
	DB	0adH
	DB	075H
	DB	0adH
	DB	076H
	DB	0b5H
	DB	075H
	DB	0adH
	DB	075H
	DB	0adH
	DB	076H
	DB	0b5H
	DB	075H
	DB	0adH
	DB	075H
	DB	0adH
	DB	076H
	DB	0b5H
	DB	075H
	DB	0adH
	DB	075H
	DB	0adH
	DB	076H
	DB	0b5H
	DB	075H
	DB	0adH
	DB	075H
	DB	0adH
	DB	076H
	DB	0b5H
	DB	075H
	DB	0adH
	DB	075H
	DB	0adH
	DB	076H
	DB	0b5H
	DB	075H
	DB	0adH
	DB	075H
	DB	0adH
	DB	076H
	DB	0b5H
	DB	075H
	DB	0adH
	DB	075H
	DB	0adH
	DB	076H
	DB	0b5H
	DB	075H
	DB	0adH
	DB	075H
	DB	0adH
	DB	076H
	DB	0b5H
	DB	075H
	DB	0adH
	DB	075H
	DB	0adH
	DB	076H
	DB	0b5H
	DB	075H
	DB	0adH
	DB	075H
	DB	0adH
	DB	076H
	DB	0b5H
	DB	075H
	DB	0adH
	DB	075H
	DB	0adH
	DB	076H
	DB	0b5H
	DB	075H
	DB	0adH
	DB	075H
	DB	0adH
	DB	076H
	DB	0b5H
	DB	075H
	DB	0adH
	DB	075H
	DB	0adH
	DB	076H
	DB	0b5H
	DB	075H
	DB	0adH
	DB	075H
	DB	0adH
	DB	076H
	DB	0b5H
	DB	075H
	DB	0adH
	DB	075H
	DB	0adH
	DB	076H
	DB	0b5H
	DB	075H
	DB	0adH
	DB	075H
	DB	0adH
	DB	076H
	DB	0b5H
	DB	075H
	DB	0adH
	DB	075H
	DB	0adH
	DB	076H
	DB	0b5H
	DB	075H
	DB	0adH
	DB	075H
	DB	0adH
	DB	076H
	DB	0b5H
	DB	075H
	DB	0adH
	DB	075H
	DB	0adH
	DB	076H
	DB	0b5H
	DB	075H
	DB	0adH
	DB	075H
	DB	0adH
	DB	076H
	DB	0b5H
	DB	075H
	DB	0adH
	DB	075H
	DB	0adH
	DB	076H
	DB	0b5H
	DB	075H
	DB	0adH
	DB	075H
	DB	0adH
	DB	076H
	DB	0b5H
	DB	075H
	DB	0adH
	DB	075H
	DB	0adH
	DB	076H
	DB	0b5H
	DB	075H
	DB	0adH
	DB	075H
	DB	0adH
	DB	076H
	DB	0b5H
	DB	075H
	DB	0adH
	DB	075H
	DB	0adH
	DB	076H
	DB	0b5H
	DB	075H
	DB	0adH
	DB	075H
	DB	0adH
	DB	076H
	DB	0b5H
	DB	075H
	DB	0adH
	DB	075H
	DB	0adH
	DB	076H
	DB	0b5H
	DB	075H
	DB	0adH
	DB	075H
	DB	0adH
	DB	076H
	DB	0b5H
	DB	075H
	DB	0adH
	DB	075H
	DB	0adH
	DB	076H
	DB	0b5H
	DB	075H
	DB	0adH
	DB	075H
	DB	0adH
	DB	076H
	DB	0b5H
	DB	075H
	DB	0adH
	DB	075H
	DB	0adH
	DB	076H
	DB	0b5H
	DB	075H
	DB	0adH
	DB	075H
	DB	0adH
	DB	076H
	DB	0b5H
	DB	075H
	DB	0adH
	DB	075H
	DB	0adH
	DB	076H
	DB	0b5H
	DB	075H
	DB	0adH
	DB	075H
	DB	0adH
	DB	076H
	DB	0b5H
	DB	075H
	DB	0adH
	DB	075H
	DB	0adH
	DB	076H
	DB	0b5H
	DB	075H
	DB	0adH
	DB	075H
	DB	0adH
	DB	076H
	DB	0b5H
	DB	075H
	DB	0adH
	DB	075H
	DB	0adH
	DB	076H
	DB	0b5H
	DB	075H
	DB	0adH
	DB	075H
	DB	0adH
	DB	076H
	DB	0b5H
	DB	075H
	DB	0adH
	DB	075H
	DB	0adH
	DB	076H
	DB	0b5H
	DB	075H
	DB	0adH
	DB	075H
	DB	0adH
	DB	076H
	DB	0b5H
	DB	075H
	DB	0adH
	DB	075H
	DB	0adH
	DB	076H
	DB	0b5H
	DB	075H
	DB	0adH
	DB	075H
	DB	0adH
	DB	076H
	DB	0b5H
	DB	075H
	DB	0adH
	DB	075H
	DB	0adH
	DB	076H
	DB	0b5H
	DB	075H
	DB	0adH
	DB	075H
	DB	0adH
	DB	076H
	DB	0b5H
	DB	075H
	DB	0adH
	DB	075H
	DB	0adH
	DB	076H
	DB	0b5H
	DB	075H
	DB	0adH
	DB	075H
	DB	0adH
	DB	076H
	DB	0b5H
	DB	075H
	DB	0adH
	DB	075H
	DB	0adH
	DB	076H
	DB	0b5H
	DB	075H
	DB	0adH
	DB	075H
	DB	0adH
	DB	076H
	DB	0b5H
	DB	075H
	DB	0adH
	DB	075H
	DB	0adH
	DB	075H
	DB	0adH
	DB	076H
	DB	0b5H
	DB	076H
	DB	0b5H
	DB	075H
	DB	0adH
	DB	076H
	DB	0b5H
	DB	076H
	DB	0b5H
	DB	075H
	DB	0adH
	DB	076H
	DB	0b5H
	DB	076H
	DB	0b5H
	DB	075H
	DB	0adH
	DB	076H
	DB	0b5H
	DB	076H
	DB	0b5H
	DB	075H
	DB	0adH
	DB	076H
	DB	0b5H
	DB	076H
	DB	0b5H
	DB	075H
	DB	0adH
	DB	076H
	DB	0b5H
	DB	076H
	DB	0b5H
	DB	075H
	DB	0adH
	DB	076H
	DB	0b5H
	DB	076H
	DB	0b5H
	DB	075H
	DB	0adH
	DB	076H
	DB	0b5H
	DB	076H
	DB	0b5H
	DB	075H
	DB	0adH
	DB	076H
	DB	0b5H
	DB	076H
	DB	0b5H
	DB	075H
	DB	0adH
	DB	076H
	DB	0b5H
	DB	076H
	DB	0b5H
	DB	075H
	DB	0adH
	DB	076H
	DB	0b5H
	DB	076H
	DB	0b5H
	DB	075H
	DB	0adH
	DB	076H
	DB	0b5H
	DB	076H
	DB	0b5H
	DB	075H
	DB	0adH
	DB	076H
	DB	0b5H
	DB	076H
	DB	0b5H
	DB	075H
	DB	0adH
	DB	076H
	DB	0b5H
	DB	076H
	DB	0b5H
	DB	075H
	DB	0adH
	DB	076H
	DB	0b5H
	DB	076H
	DB	0b5H
	DB	075H
	DB	0adH
	DB	076H
	DB	0b5H
	DB	076H
	DB	0b5H
	DB	075H
	DB	0adH
	DB	076H
	DB	0b5H
	DB	076H
	DB	0b5H
	DB	075H
	DB	0adH
	DB	076H
	DB	0b5H
	DB	076H
	DB	0b5H
	DB	075H
	DB	0adH
	DB	076H
	DB	0b5H
	DB	076H
	DB	0b5H
	DB	075H
	DB	0adH
	DB	076H
	DB	0b5H
	DB	076H
	DB	0b5H
	DB	075H
	DB	0adH
	DB	076H
	DB	0b5H
	DB	076H
	DB	0b5H
	DB	075H
	DB	0adH
	DB	076H
	DB	0b5H
	DB	076H
	DB	0b5H
	DB	075H
	DB	0adH
	DB	076H
	DB	0b5H
	DB	076H
	DB	0b5H
	DB	075H
	DB	0adH
	DB	076H
	DB	0b5H
	DB	076H
	DB	0b5H
	DB	075H
	DB	0adH
	DB	076H
	DB	0b5H
	DB	076H
	DB	0b5H
	DB	075H
	DB	0adH
	DB	076H
	DB	0b5H
	DB	076H
	DB	0b5H
	DB	075H
	DB	0adH
	DB	076H
	DB	0b5H
	DB	076H
	DB	0b5H
	DB	075H
	DB	0adH
	DB	076H
	DB	0b5H
	DB	076H
	DB	0b5H
	DB	075H
	DB	0adH
	DB	076H
	DB	0b5H
	DB	076H
	DB	0b5H
	DB	075H
	DB	0adH
	DB	076H
	DB	0b5H
	DB	076H
	DB	0b5H
	DB	075H
	DB	0adH
	DB	076H
	DB	0b5H
	DB	076H
	DB	0b5H
	DB	075H
	DB	0adH
	DB	076H
	DB	0b5H
	DB	076H
	DB	0b5H
	DB	075H
	DB	0adH
	DB	076H
	DB	0b5H
	DB	076H
	DB	0b5H
	DB	075H
	DB	0adH
	DB	076H
	DB	0b5H
	DB	076H
	DB	0b5H
	DB	075H
	DB	0adH
	DB	076H
	DB	0b5H
	DB	076H
	DB	0b5H
	DB	075H
	DB	0adH
	DB	076H
	DB	0b5H
	DB	076H
	DB	0b5H
	DB	075H
	DB	0adH
	DB	076H
	DB	0b5H
	DB	076H
	DB	0b5H
	DB	075H
	DB	0adH
	DB	076H
	DB	0b5H
	DB	076H
	DB	0b5H
	DB	075H
	DB	0adH
	DB	076H
	DB	0b5H
	DB	076H
	DB	0b5H
	DB	075H
	DB	0adH
	DB	076H
	DB	0b5H
	DB	076H
	DB	0b5H
	DB	075H
	DB	0adH
	DB	076H
	DB	0b5H
	DB	076H
	DB	0b5H
	DB	075H
	DB	0adH
	DB	076H
	DB	0b5H
	DB	076H
	DB	0b5H
	DB	075H
	DB	0adH
	DB	076H
	DB	0b5H
	DB	076H
	DB	0b5H
	DB	075H
	DB	0adH
	DB	076H
	DB	0b5H
	DB	076H
	DB	0b5H
	DB	075H
	DB	0adH
	DB	076H
	DB	0b5H
	DB	076H
	DB	0b5H
	DB	075H
	DB	0adH
	DB	076H
	DB	0b5H
	DB	076H
	DB	0b5H
	DB	075H
	DB	0adH
	DB	076H
	DB	0b5H
	DB	076H
	DB	0b5H
	DB	075H
	DB	0adH
	DB	076H
	DB	0b5H
	DB	076H
	DB	0b5H
	DB	075H
	DB	0adH
	DB	076H
	DB	0b5H
	DB	076H
	DB	0b5H
	DB	075H
	DB	0adH
	DB	076H
	DB	0b5H
	DB	076H
	DB	0b5H
	DB	075H
	DB	0adH
	DB	076H
	DB	0b5H
	DB	076H
	DB	0b5H
	DB	075H
	DB	0adH
	DB	076H
	DB	0b5H
	DB	076H
	DB	0b5H
	DB	075H
	DB	0adH
	DB	076H
	DB	0b5H
	DB	076H
	DB	0b5H
	DB	075H
	DB	0adH
	DB	076H
	DB	0b5H
	DB	076H
	DB	0b5H
	DB	075H
	DB	0adH
	DB	076H
	DB	0b5H
	DB	076H
	DB	0b5H
	DB	075H
	DB	0adH
	DB	076H
	DB	0b5H
	DB	076H
	DB	0b5H
	DB	075H
	DB	0adH
	DB	076H
	DB	0b5H
	DB	076H
	DB	0b5H
	DB	075H
	DB	0adH
	DB	075H
	DB	0adH
	DB	076H
	DB	0b5H
	DB	075H
	DB	0adH
	DB	075H
	DB	0adH
	DB	076H
	DB	0b5H
	DB	075H
	DB	0adH
	DB	075H
	DB	0adH
	DB	076H
	DB	0b5H
	DB	075H
	DB	0adH
	DB	075H
	DB	0adH
	DB	076H
	DB	0b5H
	DB	075H
	DB	0adH
	DB	075H
	DB	0adH
	DB	076H
	DB	0b5H
	DB	075H
	DB	0adH
	DB	075H
	DB	0adH
	DB	076H
	DB	0b5H
	DB	075H
	DB	0adH
	DB	075H
	DB	0adH
	DB	076H
	DB	0b5H
	DB	075H
	DB	0adH
	DB	075H
	DB	0adH
	DB	076H
	DB	0b5H
	DB	075H
	DB	0adH
	DB	075H
	DB	0adH
	DB	076H
	DB	0b5H
	DB	075H
	DB	0adH
	DB	075H
	DB	0adH
	DB	076H
	DB	0b5H
	DB	075H
	DB	0adH
	DB	075H
	DB	0adH
	DB	076H
	DB	0b5H
	DB	075H
	DB	0adH
	DB	075H
	DB	0adH
	DB	076H
	DB	0b5H
	DB	075H
	DB	0adH
	DB	075H
	DB	0adH
	DB	076H
	DB	0b5H
	DB	075H
	DB	0adH
	DB	075H
	DB	0adH
	DB	076H
	DB	0b5H
	DB	075H
	DB	0adH
	DB	075H
	DB	0adH
	DB	076H
	DB	0b5H
	DB	075H
	DB	0adH
	DB	075H
	DB	0adH
	DB	076H
	DB	0b5H
	DB	075H
	DB	0adH
	DB	075H
	DB	0adH
	DB	076H
	DB	0b5H
	DB	075H
	DB	0adH
	DB	075H
	DB	0adH
	DB	076H
	DB	0b5H
	DB	075H
	DB	0adH
	DB	075H
	DB	0adH
	DB	076H
	DB	0b5H
	DB	075H
	DB	0adH
	DB	075H
	DB	0adH
	DB	076H
	DB	0b5H
	DB	075H
	DB	0adH
	DB	075H
	DB	0adH
	DB	076H
	DB	0b5H
	DB	075H
	DB	0adH
	DB	075H
	DB	0adH
	DB	076H
	DB	0b5H
	DB	075H
	DB	0adH
	DB	075H
	DB	0adH
	DB	076H
	DB	0b5H
	DB	075H
	DB	0adH
	DB	075H
	DB	0adH
	DB	076H
	DB	0b5H
	DB	075H
	DB	0adH
	DB	075H
	DB	0adH
	DB	076H
	DB	0b5H
	DB	075H
	DB	0adH
	DB	075H
	DB	0adH
	DB	076H
	DB	0b5H
	DB	075H
	DB	0adH
	DB	075H
	DB	0adH
	DB	076H
	DB	0b5H
	DB	075H
	DB	0adH
	DB	075H
	DB	0adH
	DB	076H
	DB	0b5H
	DB	075H
	DB	0adH
	DB	075H
	DB	0adH
	DB	076H
	DB	0b5H
	DB	075H
	DB	0adH
	DB	075H
	DB	0adH
	DB	076H
	DB	0b5H
	DB	075H
	DB	0adH
	DB	075H
	DB	0adH
	DB	076H
	DB	0b5H
	DB	075H
	DB	0adH
	DB	075H
	DB	0adH
	DB	076H
	DB	0b5H
	DB	075H
	DB	0adH
	DB	075H
	DB	0adH
	DB	076H
	DB	0b5H
	DB	075H
	DB	0adH
	DB	075H
	DB	0adH
	DB	076H
	DB	0b5H
	DB	075H
	DB	0adH
	DB	075H
	DB	0adH
	DB	076H
	DB	0b5H
	DB	075H
	DB	0adH
	DB	075H
	DB	0adH
	DB	076H
	DB	0b5H
	DB	075H
	DB	0adH
	DB	075H
	DB	0adH
	DB	076H
	DB	0b5H
	DB	075H
	DB	0adH
	DB	075H
	DB	0adH
	DB	076H
	DB	0b5H
	DB	075H
	DB	0adH
	DB	075H
	DB	0adH
	DB	076H
	DB	0b5H
	DB	075H
	DB	0adH
	DB	075H
	DB	0adH
	DB	076H
	DB	0b5H
	DB	075H
	DB	0adH
	DB	075H
	DB	0adH
	DB	076H
	DB	0b5H
	DB	075H
	DB	0adH
	DB	075H
	DB	0adH
	DB	076H
	DB	0b5H
	DB	075H
	DB	0adH
	DB	075H
	DB	0adH
	DB	076H
	DB	0b5H
	DB	075H
	DB	0adH
	DB	075H
	DB	0adH
	DB	076H
	DB	0b5H
	DB	075H
	DB	0adH
	DB	075H
	DB	0adH
	DB	076H
	DB	0b5H
	DB	075H
	DB	0adH
	DB	075H
	DB	0adH
	DB	076H
	DB	0b5H
	DB	075H
	DB	0adH
	DB	075H
	DB	0adH
	DB	076H
	DB	0b5H
	DB	075H
	DB	0adH
	DB	075H
	DB	0adH
	DB	076H
	DB	0b5H
	DB	075H
	DB	0adH
	DB	075H
	DB	0adH
	DB	076H
	DB	0b5H
	DB	075H
	DB	0adH
	DB	075H
	DB	0adH
	DB	076H
	DB	0b5H
	DB	075H
	DB	0adH
	DB	075H
	DB	0adH
	DB	076H
	DB	0b5H
	DB	075H
	DB	0adH
	DB	075H
	DB	0adH
	DB	076H
	DB	0b5H
	DB	075H
	DB	0adH
	DB	075H
	DB	0adH
	DB	076H
	DB	0b5H
	DB	075H
	DB	0adH
	DB	075H
	DB	0adH
	DB	076H
	DB	0b5H
	DB	075H
	DB	0adH
	DB	075H
	DB	0adH
	DB	076H
	DB	0b5H
	DB	075H
	DB	0adH
	DB	075H
	DB	0adH
	DB	076H
	DB	0b5H
	DB	075H
	DB	0adH
	DB	075H
	DB	0adH
	DB	076H
	DB	0b5H
	DB	076H
	DB	0b5H
	DB	075H
	DB	0adH
	DB	076H
	DB	0b5H
	DB	075H
	DB	0adH
	DB	076H
	DB	0b5H
	DB	076H
	DB	0b5H
	DB	075H
	DB	0adH
	DB	076H
	DB	0b5H
	DB	076H
	DB	0b5H
	DB	075H
	DB	0adH
	DB	076H
	DB	0b5H
	DB	076H
	DB	0b5H
	DB	075H
	DB	0adH
	DB	076H
	DB	0b5H
	DB	076H
	DB	0b5H
	DB	075H
	DB	0adH
	DB	076H
	DB	0b5H
	DB	076H
	DB	0b5H
	DB	075H
	DB	0adH
	DB	076H
	DB	0b5H
	DB	076H
	DB	0b5H
	DB	075H
	DB	0adH
	DB	076H
	DB	0b5H
	DB	076H
	DB	0b5H
	DB	075H
	DB	0adH
	DB	076H
	DB	0b5H
	DB	076H
	DB	0b5H
	DB	075H
	DB	0adH
	DB	076H
	DB	0b5H
	DB	076H
	DB	0b5H
	DB	075H
	DB	0adH
	DB	076H
	DB	0b5H
	DB	076H
	DB	0b5H
	DB	075H
	DB	0adH
	DB	076H
	DB	0b5H
	DB	076H
	DB	0b5H
	DB	075H
	DB	0adH
	DB	076H
	DB	0b5H
	DB	076H
	DB	0b5H
	DB	075H
	DB	0adH
	DB	076H
	DB	0b5H
	DB	076H
	DB	0b5H
	DB	075H
	DB	0adH
	DB	076H
	DB	0b5H
	DB	076H
	DB	0b5H
	DB	075H
	DB	0adH
	DB	076H
	DB	0b5H
	DB	076H
	DB	0b5H
	DB	075H
	DB	0adH
	DB	076H
	DB	0b5H
	DB	076H
	DB	0b5H
	DB	075H
	DB	0adH
	DB	076H
	DB	0b5H
	DB	076H
	DB	0b5H
	DB	075H
	DB	0adH
	DB	076H
	DB	0b5H
	DB	076H
	DB	0b5H
	DB	075H
	DB	0adH
	DB	076H
	DB	0b5H
	DB	076H
	DB	0b5H
	DB	075H
	DB	0adH
	DB	076H
	DB	0b5H
	DB	076H
	DB	0b5H
	DB	075H
	DB	0adH
	DB	076H
	DB	0b5H
	DB	076H
	DB	0b5H
	DB	075H
	DB	0adH
	DB	076H
	DB	0b5H
	DB	076H
	DB	0b5H
	DB	075H
	DB	0adH
	DB	076H
	DB	0b5H
	DB	076H
	DB	0b5H
	DB	075H
	DB	0adH
	DB	076H
	DB	0b5H
	DB	076H
	DB	0b5H
	DB	075H
	DB	0adH
	DB	076H
	DB	0b5H
	DB	076H
	DB	0b5H
	DB	075H
	DB	0adH
	DB	076H
	DB	0b5H
	DB	076H
	DB	0b5H
	DB	075H
	DB	0adH
	DB	076H
	DB	0b5H
	DB	076H
	DB	0b5H
	DB	075H
	DB	0adH
	DB	076H
	DB	0b5H
	DB	076H
	DB	0b5H
	DB	075H
	DB	0adH
	DB	076H
	DB	0b5H
	DB	076H
	DB	0b5H
	DB	075H
	DB	0adH
	DB	076H
	DB	0b5H
	DB	076H
	DB	0b5H
	DB	075H
	DB	0adH
	DB	076H
	DB	0b5H
	DB	076H
	DB	0b5H
	DB	075H
	DB	0adH
	DB	076H
	DB	0b5H
	DB	076H
	DB	0b5H
	DB	075H
	DB	0adH
	DB	076H
	DB	0b5H
	DB	076H
	DB	0b5H
	DB	075H
	DB	0adH
	DB	076H
	DB	0b5H
	DB	076H
	DB	0b5H
	DB	075H
	DB	0adH
	DB	076H
	DB	0b5H
	DB	076H
	DB	0b5H
	DB	075H
	DB	0adH
	DB	076H
	DB	0b5H
	DB	076H
	DB	0b5H
	DB	075H
	DB	0adH
	DB	076H
	DB	0b5H
	DB	076H
	DB	0b5H
	DB	075H
	DB	0adH
	DB	076H
	DB	0b5H
	DB	076H
	DB	0b5H
	DB	075H
	DB	0adH
	DB	076H
	DB	0b5H
	DB	076H
	DB	0b5H
	DB	075H
	DB	0adH
	DB	076H
	DB	0b5H
	DB	076H
	DB	0b5H
	DB	075H
	DB	0adH
	DB	076H
	DB	0b5H
	DB	076H
	DB	0b5H
	DB	075H
	DB	0adH
	DB	076H
	DB	0b5H
	DB	076H
	DB	0b5H
	DB	075H
	DB	0adH
	DB	076H
	DB	0b5H
	DB	076H
	DB	0b5H
	DB	075H
	DB	0adH
	DB	076H
	DB	0b5H
	DB	076H
	DB	0b5H
	DB	075H
	DB	0adH
	DB	076H
	DB	0b5H
	DB	076H
	DB	0b5H
	DB	075H
	DB	0adH
	DB	076H
	DB	0b5H
	DB	076H
	DB	0b5H
	DB	075H
	DB	0adH
	DB	076H
	DB	0b5H
	DB	076H
	DB	0b5H
	DB	075H
	DB	0adH
	DB	076H
	DB	0b5H
	DB	076H
	DB	0b5H
	DB	075H
	DB	0adH
	DB	076H
	DB	0b5H
	DB	076H
	DB	0b5H
	DB	075H
	DB	0adH
	DB	076H
	DB	0b5H
	DB	076H
	DB	0b5H
	DB	075H
	DB	0adH
	DB	076H
	DB	0b5H
	DB	076H
	DB	0b5H
	DB	075H
	DB	0adH
	DB	076H
	DB	0b5H
	DB	076H
	DB	0b5H
	DB	075H
	DB	0adH
	DB	076H
	DB	0b5H
	DB	076H
	DB	0b5H
	DB	075H
	DB	0adH
	DB	076H
	DB	0b5H
	DB	076H
	DB	0b5H
	DB	075H
	DB	0adH
	DB	076H
	DB	0b5H
	DB	076H
	DB	0b5H
	DB	075H
	DB	0adH
	DB	076H
	DB	0b5H
	DB	075H
	DB	0adH
	DB	075H
	DB	0adH
	DB	076H
	DB	0b5H
	DB	075H
	DB	0adH
	DB	075H
	DB	0adH
	DB	076H
	DB	0b5H
	DB	075H
	DB	0adH
	DB	076H
	DB	0b5H
	DB	075H
	DB	0adH
	DB	075H
	DB	0adH
	DB	076H
	DB	0b5H
	DB	075H
	DB	0adH
	DB	076H
	DB	0b5H
	DB	075H
	DB	0adH
	DB	075H
	DB	0adH
	DB	076H
	DB	0b5H
	DB	075H
	DB	0adH
	DB	075H
	DB	0adH
	DB	076H
	DB	0b5H
	DB	075H
	DB	0adH
	DB	075H
	DB	0adH
	DB	076H
	DB	0b5H
	DB	075H
	DB	0adH
	DB	075H
	DB	0adH
	DB	076H
	DB	0b5H
	DB	075H
	DB	0adH
	DB	075H
	DB	0adH
	DB	076H
	DB	0b5H
	DB	075H
	DB	0adH
	DB	075H
	DB	0adH
	DB	076H
	DB	0b5H
	DB	075H
	DB	0adH
	DB	075H
	DB	0adH
	DB	076H
	DB	0b5H
	DB	075H
	DB	0adH
	DB	075H
	DB	0adH
	DB	076H
	DB	0b5H
	DB	075H
	DB	0adH
	DB	075H
	DB	0adH
	DB	076H
	DB	0b5H
	DB	075H
	DB	0adH
	DB	075H
	DB	0adH
	DB	076H
	DB	0b5H
	DB	075H
	DB	0adH
	DB	075H
	DB	0adH
	DB	076H
	DB	0b5H
	DB	075H
	DB	0adH
	DB	075H
	DB	0adH
	DB	076H
	DB	0b5H
	DB	075H
	DB	0adH
	DB	075H
	DB	0adH
	DB	076H
	DB	0b5H
	DB	075H
	DB	0adH
	DB	075H
	DB	0adH
	DB	076H
	DB	0b5H
	DB	075H
	DB	0adH
	DB	075H
	DB	0adH
	DB	076H
	DB	0b5H
	DB	075H
	DB	0adH
	DB	075H
	DB	0adH
	DB	076H
	DB	0b5H
	DB	075H
	DB	0adH
	DB	075H
	DB	0adH
	DB	076H
	DB	0b5H
	DB	075H
	DB	0adH
	DB	075H
	DB	0adH
	DB	076H
	DB	0b5H
	DB	075H
	DB	0adH
	DB	075H
	DB	0adH
	DB	076H
	DB	0b5H
	DB	075H
	DB	0adH
	DB	075H
	DB	0adH
	DB	076H
	DB	0b5H
	DB	075H
	DB	0adH
	DB	075H
	DB	0adH
	DB	076H
	DB	0b5H
	DB	075H
	DB	0adH
	DB	075H
	DB	0adH
	DB	076H
	DB	0b5H
	DB	075H
	DB	0adH
	DB	075H
	DB	0adH
	DB	076H
	DB	0b5H
	DB	075H
	DB	0adH
	DB	075H
	DB	0adH
	DB	076H
	DB	0b5H
	DB	075H
	DB	0adH
	DB	075H
	DB	0adH
	DB	076H
	DB	0b5H
	DB	075H
	DB	0adH
	DB	075H
	DB	0adH
	DB	076H
	DB	0b5H
	DB	075H
	DB	0adH
	DB	075H
	DB	0adH
	DB	076H
	DB	0b5H
	DB	075H
	DB	0adH
	DB	075H
	DB	0adH
	DB	076H
	DB	0b5H
	DB	075H
	DB	0adH
	DB	075H
	DB	0adH
	DB	076H
	DB	0b5H
	DB	075H
	DB	0adH
	DB	075H
	DB	0adH
	DB	076H
	DB	0b5H
	DB	075H
	DB	0adH
	DB	075H
	DB	0adH
	DB	076H
	DB	0b5H
	DB	075H
	DB	0adH
	DB	075H
	DB	0adH
	DB	076H
	DB	0b5H
	DB	075H
	DB	0adH
	DB	075H
	DB	0adH
	DB	076H
	DB	0b5H
	DB	075H
	DB	0adH
	DB	075H
	DB	0adH
	DB	076H
	DB	0b5H
	DB	075H
	DB	0adH
	DB	075H
	DB	0adH
	DB	076H
	DB	0b5H
	DB	075H
	DB	0adH
	DB	075H
	DB	0adH
	DB	076H
	DB	0b5H
	DB	075H
	DB	0adH
	DB	075H
	DB	0adH
	DB	076H
	DB	0b5H
	DB	075H
	DB	0adH
	DB	075H
	DB	0adH
	DB	076H
	DB	0b5H
	DB	075H
	DB	0adH
	DB	075H
	DB	0adH
	DB	076H
	DB	0b5H
	DB	075H
	DB	0adH
	DB	075H
	DB	0adH
	DB	076H
	DB	0b5H
	DB	075H
	DB	0adH
	DB	075H
	DB	0adH
	DB	076H
	DB	0b5H
	DB	075H
	DB	0adH
	DB	075H
	DB	0adH
	DB	076H
	DB	0b5H
	DB	075H
	DB	0adH
	DB	075H
	DB	0adH
	DB	076H
	DB	0b5H
	DB	075H
	DB	0adH
	DB	075H
	DB	0adH
	DB	076H
	DB	0b5H
	DB	075H
	DB	0adH
	DB	075H
	DB	0adH
	DB	076H
	DB	0b5H
	DB	075H
	DB	0adH
	DB	075H
	DB	0adH
	DB	076H
	DB	0b5H
	DB	075H
	DB	0adH
	DB	075H
	DB	0adH
	DB	076H
	DB	0b5H
	DB	075H
	DB	0adH
	DB	075H
	DB	0adH
	DB	076H
	DB	0b5H
	DB	075H
	DB	0adH
	DB	075H
	DB	0adH
	DB	076H
	DB	0b5H
	DB	075H
	DB	0adH
	DB	075H
	DB	0adH
	DB	076H
	DB	0b5H
	DB	075H
	DB	0adH
	DB	075H
	DB	0adH
	DB	076H
	DB	0b5H
	DB	075H
	DB	0adH
	DB	075H
	DB	0adH
	DB	076H
	DB	0b5H
	DB	075H
	DB	0adH
	DB	076H
	DB	0b5H
	DB	076H
	DB	0b5H
	DB	076H
	DB	0b5H
	DB	075H
	DB	0adH
	DB	076H
	DB	0b5H
	DB	076H
	DB	0b5H
	DB	075H
	DB	0adH
	DB	076H
	DB	0b5H
	DB	075H
	DB	0adH
	DB	075H
	DB	0adH
	DB	076H
	DB	0b5H
	DB	076H
	DB	0b5H
	DB	075H
	DB	0adH
	DB	076H
	DB	0b5H
	DB	075H
	DB	0adH
	DB	076H
	DB	0b5H
	DB	076H
	DB	0b5H
	DB	075H
	DB	0adH
	DB	076H
	DB	0b5H
	DB	076H
	DB	0b5H
	DB	075H
	DB	0adH
	DB	076H
	DB	0b5H
	DB	076H
	DB	0b5H
	DB	075H
	DB	0adH
	DB	076H
	DB	0b5H
	DB	076H
	DB	0b5H
	DB	075H
	DB	0adH
	DB	076H
	DB	0b5H
	DB	076H
	DB	0b5H
	DB	075H
	DB	0adH
	DB	076H
	DB	0b5H
	DB	076H
	DB	0b5H
	DB	075H
	DB	0adH
	DB	076H
	DB	0b5H
	DB	076H
	DB	0b5H
	DB	075H
	DB	0adH
	DB	076H
	DB	0b5H
	DB	076H
	DB	0b5H
	DB	075H
	DB	0adH
	DB	076H
	DB	0b5H
	DB	076H
	DB	0b5H
	DB	075H
	DB	0adH
	DB	076H
	DB	0b5H
	DB	076H
	DB	0b5H
	DB	075H
	DB	0adH
	DB	076H
	DB	0b5H
	DB	076H
	DB	0b5H
	DB	075H
	DB	0adH
	DB	076H
	DB	0b5H
	DB	076H
	DB	0b5H
	DB	075H
	DB	0adH
	DB	076H
	DB	0b5H
	DB	076H
	DB	0b5H
	DB	075H
	DB	0adH
	DB	076H
	DB	0b5H
	DB	076H
	DB	0b5H
	DB	075H
	DB	0adH
	DB	076H
	DB	0b5H
	DB	076H
	DB	0b5H
	DB	075H
	DB	0adH
	DB	076H
	DB	0b5H
	DB	076H
	DB	0b5H
	DB	075H
	DB	0adH
	DB	076H
	DB	0b5H
	DB	076H
	DB	0b5H
	DB	075H
	DB	0adH
	DB	076H
	DB	0b5H
	DB	076H
	DB	0b5H
	DB	075H
	DB	0adH
	DB	076H
	DB	0b5H
	DB	076H
	DB	0b5H
	DB	075H
	DB	0adH
	DB	076H
	DB	0b5H
	DB	076H
	DB	0b5H
	DB	075H
	DB	0adH
	DB	076H
	DB	0b5H
	DB	076H
	DB	0b5H
	DB	075H
	DB	0adH
	DB	076H
	DB	0b5H
	DB	076H
	DB	0b5H
	DB	075H
	DB	0adH
	DB	076H
	DB	0b5H
	DB	076H
	DB	0b5H
	DB	075H
	DB	0adH
	DB	076H
	DB	0b5H
	DB	076H
	DB	0b5H
	DB	075H
	DB	0adH
	DB	076H
	DB	0b5H
	DB	076H
	DB	0b5H
	DB	075H
	DB	0adH
	DB	076H
	DB	0b5H
	DB	076H
	DB	0b5H
	DB	075H
	DB	0adH
	DB	076H
	DB	0b5H
	DB	076H
	DB	0b5H
	DB	075H
	DB	0adH
	DB	076H
	DB	0b5H
	DB	076H
	DB	0b5H
	DB	075H
	DB	0adH
	DB	076H
	DB	0b5H
	DB	076H
	DB	0b5H
	DB	075H
	DB	0adH
	DB	076H
	DB	0b5H
	DB	076H
	DB	0b5H
	DB	075H
	DB	0adH
	DB	076H
	DB	0b5H
	DB	076H
	DB	0b5H
	DB	075H
	DB	0adH
	DB	076H
	DB	0b5H
	DB	076H
	DB	0b5H
	DB	075H
	DB	0adH
	DB	076H
	DB	0b5H
	DB	076H
	DB	0b5H
	DB	075H
	DB	0adH
	DB	076H
	DB	0b5H
	DB	076H
	DB	0b5H
	DB	075H
	DB	0adH
	DB	076H
	DB	0b5H
	DB	076H
	DB	0b5H
	DB	075H
	DB	0adH
	DB	076H
	DB	0b5H
	DB	076H
	DB	0b5H
	DB	075H
	DB	0adH
	DB	076H
	DB	0b5H
	DB	076H
	DB	0b5H
	DB	075H
	DB	0adH
	DB	076H
	DB	0b5H
	DB	076H
	DB	0b5H
	DB	075H
	DB	0adH
	DB	076H
	DB	0b5H
	DB	076H
	DB	0b5H
	DB	075H
	DB	0adH
	DB	076H
	DB	0b5H
	DB	076H
	DB	0b5H
	DB	075H
	DB	0adH
	DB	076H
	DB	0b5H
	DB	076H
	DB	0b5H
	DB	075H
	DB	0adH
	DB	076H
	DB	0b5H
	DB	076H
	DB	0b5H
	DB	075H
	DB	0adH
	DB	076H
	DB	0b5H
	DB	076H
	DB	0b5H
	DB	075H
	DB	0adH
	DB	076H
	DB	0b5H
	DB	076H
	DB	0b5H
	DB	075H
	DB	0adH
	DB	076H
	DB	0b5H
	DB	076H
	DB	0b5H
	DB	075H
	DB	0adH
	DB	076H
	DB	0b5H
	DB	076H
	DB	0b5H
	DB	075H
	DB	0adH
	DB	076H
	DB	0b5H
	DB	076H
	DB	0b5H
	DB	075H
	DB	0adH
	DB	076H
	DB	0b5H
	DB	076H
	DB	0b5H
	DB	075H
	DB	0adH
	DB	076H
	DB	0b5H
	DB	076H
	DB	0b5H
	DB	075H
	DB	0adH
	DB	076H
	DB	0b5H
	DB	076H
	DB	0b5H
	DB	075H
	DB	0adH
	DB	076H
	DB	0b5H
	DB	076H
	DB	0b5H
	DB	075H
	DB	0adH
	DB	076H
	DB	0b5H
	DB	076H
	DB	0b5H
	DB	075H
	DB	0adH
	DB	075H
	DB	0adH
	DB	075H
	DB	0adH
	DB	076H
	DB	0b5H
	DB	075H
	DB	0adH
	DB	075H
	DB	0adH
	DB	076H
	DB	0b5H
	DB	075H
	DB	0adH
	DB	076H
	DB	0b5H
	DB	075H
	DB	0adH
	DB	076H
	DB	0b5H
	DB	076H
	DB	0b5H
	DB	075H
	DB	0adH
	DB	076H
	DB	0b5H
	DB	075H
	DB	0adH
	DB	075H
	DB	0adH
	DB	076H
	DB	0b5H
	DB	075H
	DB	0adH
	DB	076H
	DB	0b5H
	DB	075H
	DB	0adH
	DB	075H
	DB	0adH
	DB	076H
	DB	0b5H
	DB	075H
	DB	0adH
	DB	076H
	DB	0b5H
	DB	075H
	DB	0adH
	DB	075H
	DB	0adH
	DB	076H
	DB	0b5H
	DB	075H
	DB	0adH
	DB	075H
	DB	0adH
	DB	076H
	DB	0b5H
	DB	075H
	DB	0adH
	DB	075H
	DB	0adH
	DB	076H
	DB	0b5H
	DB	075H
	DB	0adH
	DB	075H
	DB	0adH
	DB	076H
	DB	0b5H
	DB	075H
	DB	0adH
	DB	075H
	DB	0adH
	DB	076H
	DB	0b5H
	DB	075H
	DB	0adH
	DB	075H
	DB	0adH
	DB	076H
	DB	0b5H
	DB	075H
	DB	0adH
	DB	075H
	DB	0adH
	DB	076H
	DB	0b5H
	DB	075H
	DB	0adH
	DB	075H
	DB	0adH
	DB	076H
	DB	0b5H
	DB	075H
	DB	0adH
	DB	075H
	DB	0adH
	DB	076H
	DB	0b5H
	DB	075H
	DB	0adH
	DB	075H
	DB	0adH
	DB	076H
	DB	0b5H
	DB	075H
	DB	0adH
	DB	075H
	DB	0adH
	DB	076H
	DB	0b5H
	DB	075H
	DB	0adH
	DB	075H
	DB	0adH
	DB	076H
	DB	0b5H
	DB	075H
	DB	0adH
	DB	075H
	DB	0adH
	DB	076H
	DB	0b5H
	DB	075H
	DB	0adH
	DB	075H
	DB	0adH
	DB	076H
	DB	0b5H
	DB	075H
	DB	0adH
	DB	075H
	DB	0adH
	DB	076H
	DB	0b5H
	DB	075H
	DB	0adH
	DB	075H
	DB	0adH
	DB	076H
	DB	0b5H
	DB	075H
	DB	0adH
	DB	075H
	DB	0adH
	DB	076H
	DB	0b5H
	DB	075H
	DB	0adH
	DB	075H
	DB	0adH
	DB	076H
	DB	0b5H
	DB	075H
	DB	0adH
	DB	075H
	DB	0adH
	DB	076H
	DB	0b5H
	DB	075H
	DB	0adH
	DB	075H
	DB	0adH
	DB	076H
	DB	0b5H
	DB	075H
	DB	0adH
	DB	075H
	DB	0adH
	DB	076H
	DB	0b5H
	DB	075H
	DB	0adH
	DB	075H
	DB	0adH
	DB	076H
	DB	0b5H
	DB	075H
	DB	0adH
	DB	075H
	DB	0adH
	DB	076H
	DB	0b5H
	DB	075H
	DB	0adH
	DB	075H
	DB	0adH
	DB	076H
	DB	0b5H
	DB	075H
	DB	0adH
	DB	075H
	DB	0adH
	DB	076H
	DB	0b5H
	DB	075H
	DB	0adH
	DB	075H
	DB	0adH
	DB	076H
	DB	0b5H
	DB	075H
	DB	0adH
	DB	075H
	DB	0adH
	DB	076H
	DB	0b5H
	DB	075H
	DB	0adH
	DB	075H
	DB	0adH
	DB	076H
	DB	0b5H
	DB	075H
	DB	0adH
	DB	075H
	DB	0adH
	DB	076H
	DB	0b5H
	DB	075H
	DB	0adH
	DB	075H
	DB	0adH
	DB	076H
	DB	0b5H
	DB	075H
	DB	0adH
	DB	075H
	DB	0adH
	DB	076H
	DB	0b5H
	DB	075H
	DB	0adH
	DB	075H
	DB	0adH
	DB	076H
	DB	0b5H
	DB	075H
	DB	0adH
	DB	075H
	DB	0adH
	DB	076H
	DB	0b5H
	DB	075H
	DB	0adH
	DB	075H
	DB	0adH
	DB	076H
	DB	0b5H
	DB	075H
	DB	0adH
	DB	075H
	DB	0adH
	DB	076H
	DB	0b5H
	DB	075H
	DB	0adH
	DB	075H
	DB	0adH
	DB	076H
	DB	0b5H
	DB	075H
	DB	0adH
	DB	075H
	DB	0adH
	DB	076H
	DB	0b5H
	DB	075H
	DB	0adH
	DB	075H
	DB	0adH
	DB	076H
	DB	0b5H
	DB	075H
	DB	0adH
	DB	075H
	DB	0adH
	DB	076H
	DB	0b5H
	DB	075H
	DB	0adH
	DB	075H
	DB	0adH
	DB	076H
	DB	0b5H
	DB	075H
	DB	0adH
	DB	075H
	DB	0adH
	DB	076H
	DB	0b5H
	DB	075H
	DB	0adH
	DB	075H
	DB	0adH
	DB	076H
	DB	0b5H
	DB	075H
	DB	0adH
	DB	075H
	DB	0adH
	DB	076H
	DB	0b5H
	DB	075H
	DB	0adH
	DB	075H
	DB	0adH
	DB	076H
	DB	0b5H
	DB	075H
	DB	0adH
	DB	075H
	DB	0adH
	DB	076H
	DB	0b5H
	DB	075H
	DB	0adH
	DB	075H
	DB	0adH
	DB	076H
	DB	0b5H
	DB	075H
	DB	0adH
	DB	075H
	DB	0adH
	DB	076H
	DB	0b5H
	DB	075H
	DB	0adH
	DB	075H
	DB	0adH
	DB	076H
	DB	0b5H
	DB	075H
	DB	0adH
	DB	075H
	DB	0adH
	DB	076H
	DB	0b5H
	DB	076H
	DB	0b5H
	DB	075H
	DB	0adH
	DB	076H
	DB	0b5H
	DB	076H
	DB	0b5H
	DB	075H
	DB	0adH
	DB	075H
	DB	0adH
	DB	076H
	DB	0b5H
	DB	075H
	DB	0adH
	DB	075H
	DB	0adH
	DB	075H
	DB	0adH
	DB	076H
	DB	0b5H
	DB	075H
	DB	0adH
	DB	075H
	DB	0adH
	DB	076H
	DB	0b5H
	DB	075H
	DB	0adH
	DB	076H
	DB	0b5H
	DB	076H
	DB	0b5H
	DB	075H
	DB	0adH
	DB	075H
	DB	0adH
	DB	076H
	DB	0b5H
	DB	076H
	DB	0b5H
	DB	075H
	DB	0adH
	DB	075H
	DB	0adH
	DB	076H
	DB	0b5H
	DB	075H
	DB	0adH
	DB	076H
	DB	0b5H
	DB	076H
	DB	0b5H
	DB	075H
	DB	0adH
	DB	076H
	DB	0b5H
	DB	076H
	DB	0b5H
	DB	075H
	DB	0adH
	DB	076H
	DB	0b5H
	DB	076H
	DB	0b5H
	DB	075H
	DB	0adH
	DB	076H
	DB	0b5H
	DB	076H
	DB	0b5H
	DB	075H
	DB	0adH
	DB	076H
	DB	0b5H
	DB	076H
	DB	0b5H
	DB	075H
	DB	0adH
	DB	076H
	DB	0b5H
	DB	076H
	DB	0b5H
	DB	075H
	DB	0adH
	DB	076H
	DB	0b5H
	DB	076H
	DB	0b5H
	DB	075H
	DB	0adH
	DB	076H
	DB	0b5H
	DB	076H
	DB	0b5H
	DB	075H
	DB	0adH
	DB	076H
	DB	0b5H
	DB	076H
	DB	0b5H
	DB	075H
	DB	0adH
	DB	076H
	DB	0b5H
	DB	076H
	DB	0b5H
	DB	075H
	DB	0adH
	DB	076H
	DB	0b5H
	DB	076H
	DB	0b5H
	DB	075H
	DB	0adH
	DB	076H
	DB	0b5H
	DB	076H
	DB	0b5H
	DB	075H
	DB	0adH
	DB	076H
	DB	0b5H
	DB	076H
	DB	0b5H
	DB	075H
	DB	0adH
	DB	076H
	DB	0b5H
	DB	076H
	DB	0b5H
	DB	075H
	DB	0adH
	DB	076H
	DB	0b5H
	DB	076H
	DB	0b5H
	DB	075H
	DB	0adH
	DB	076H
	DB	0b5H
	DB	076H
	DB	0b5H
	DB	075H
	DB	0adH
	DB	076H
	DB	0b5H
	DB	076H
	DB	0b5H
	DB	075H
	DB	0adH
	DB	076H
	DB	0b5H
	DB	076H
	DB	0b5H
	DB	075H
	DB	0adH
	DB	076H
	DB	0b5H
	DB	076H
	DB	0b5H
	DB	075H
	DB	0adH
	DB	076H
	DB	0b5H
	DB	076H
	DB	0b5H
	DB	075H
	DB	0adH
	DB	076H
	DB	0b5H
	DB	076H
	DB	0b5H
	DB	075H
	DB	0adH
	DB	076H
	DB	0b5H
	DB	076H
	DB	0b5H
	DB	075H
	DB	0adH
	DB	076H
	DB	0b5H
	DB	076H
	DB	0b5H
	DB	075H
	DB	0adH
	DB	076H
	DB	0b5H
	DB	076H
	DB	0b5H
	DB	075H
	DB	0adH
	DB	076H
	DB	0b5H
	DB	076H
	DB	0b5H
	DB	075H
	DB	0adH
	DB	076H
	DB	0b5H
	DB	076H
	DB	0b5H
	DB	075H
	DB	0adH
	DB	076H
	DB	0b5H
	DB	076H
	DB	0b5H
	DB	075H
	DB	0adH
	DB	076H
	DB	0b5H
	DB	076H
	DB	0b5H
	DB	075H
	DB	0adH
	DB	076H
	DB	0b5H
	DB	076H
	DB	0b5H
	DB	075H
	DB	0adH
	DB	076H
	DB	0b5H
	DB	076H
	DB	0b5H
	DB	075H
	DB	0adH
	DB	076H
	DB	0b5H
	DB	076H
	DB	0b5H
	DB	075H
	DB	0adH
	DB	076H
	DB	0b5H
	DB	076H
	DB	0b5H
	DB	075H
	DB	0adH
	DB	076H
	DB	0b5H
	DB	076H
	DB	0b5H
	DB	075H
	DB	0adH
	DB	076H
	DB	0b5H
	DB	076H
	DB	0b5H
	DB	075H
	DB	0adH
	DB	076H
	DB	0b5H
	DB	076H
	DB	0b5H
	DB	075H
	DB	0adH
	DB	076H
	DB	0b5H
	DB	076H
	DB	0b5H
	DB	075H
	DB	0adH
	DB	076H
	DB	0b5H
	DB	076H
	DB	0b5H
	DB	075H
	DB	0adH
	DB	076H
	DB	0b5H
	DB	076H
	DB	0b5H
	DB	075H
	DB	0adH
	DB	076H
	DB	0b5H
	DB	076H
	DB	0b5H
	DB	075H
	DB	0adH
	DB	076H
	DB	0b5H
	DB	076H
	DB	0b5H
	DB	075H
	DB	0adH
	DB	076H
	DB	0b5H
	DB	076H
	DB	0b5H
	DB	075H
	DB	0adH
	DB	076H
	DB	0b5H
	DB	076H
	DB	0b5H
	DB	075H
	DB	0adH
	DB	076H
	DB	0b5H
	DB	076H
	DB	0b5H
	DB	075H
	DB	0adH
	DB	076H
	DB	0b5H
	DB	076H
	DB	0b5H
	DB	075H
	DB	0adH
	DB	076H
	DB	0b5H
	DB	076H
	DB	0b5H
	DB	075H
	DB	0adH
	DB	076H
	DB	0b5H
	DB	076H
	DB	0b5H
	DB	075H
	DB	0adH
	DB	076H
	DB	0b5H
	DB	076H
	DB	0b5H
	DB	075H
	DB	0adH
	DB	076H
	DB	0b5H
	DB	076H
	DB	0b5H
	DB	075H
	DB	0adH
	DB	076H
	DB	0b5H
	DB	075H
	DB	0adH
	DB	075H
	DB	0adH
	DB	076H
	DB	0b5H
	DB	075H
	DB	0adH
	DB	076H
	DB	0b5H
	DB	076H
	DB	0b5H
	DB	075H
	DB	0adH
	DB	076H
	DB	0b5H
	DB	076H
	DB	0b5H
	DB	076H
	DB	0b5H
	DB	075H
	DB	0adH
	DB	075H
	DB	0adH
	DB	076H
	DB	0b5H
	DB	076H
	DB	0b5H
	DB	075H
	DB	0adH
	DB	076H
	DB	0b5H
	DB	075H
	DB	0adH
	DB	076H
	DB	0b5H
	DB	076H
	DB	0b5H
	DB	075H
	DB	0adH
	DB	076H
	DB	0b5H
	DB	075H
	DB	0adH
	DB	076H
	DB	0b5H
	DB	076H
	DB	0b5H
	DB	075H
	DB	0adH
	DB	076H
	DB	0b5H
	DB	075H
	DB	0adH
	DB	076H
	DB	0b5H
	DB	075H
	DB	0adH
	DB	075H
	DB	0adH
	DB	076H
	DB	0b5H
	DB	075H
	DB	0adH
	DB	075H
	DB	0adH
	DB	076H
	DB	0b5H
	DB	075H
	DB	0adH
	DB	075H
	DB	0adH
	DB	076H
	DB	0b5H
	DB	075H
	DB	0adH
	DB	075H
	DB	0adH
	DB	076H
	DB	0b5H
	DB	075H
	DB	0adH
	DB	075H
	DB	0adH
	DB	076H
	DB	0b5H
	DB	075H
	DB	0adH
	DB	075H
	DB	0adH
	DB	076H
	DB	0b5H
	DB	075H
	DB	0adH
	DB	075H
	DB	0adH
	DB	076H
	DB	0b5H
	DB	075H
	DB	0adH
	DB	075H
	DB	0adH
	DB	076H
	DB	0b5H
	DB	075H
	DB	0adH
	DB	075H
	DB	0adH
	DB	076H
	DB	0b5H
	DB	075H
	DB	0adH
	DB	075H
	DB	0adH
	DB	076H
	DB	0b5H
	DB	075H
	DB	0adH
	DB	075H
	DB	0adH
	DB	076H
	DB	0b5H
	DB	075H
	DB	0adH
	DB	075H
	DB	0adH
	DB	076H
	DB	0b5H
	DB	075H
	DB	0adH
	DB	075H
	DB	0adH
	DB	076H
	DB	0b5H
	DB	075H
	DB	0adH
	DB	075H
	DB	0adH
	DB	076H
	DB	0b5H
	DB	075H
	DB	0adH
	DB	075H
	DB	0adH
	DB	076H
	DB	0b5H
	DB	075H
	DB	0adH
	DB	075H
	DB	0adH
	DB	076H
	DB	0b5H
	DB	075H
	DB	0adH
	DB	075H
	DB	0adH
	DB	076H
	DB	0b5H
	DB	075H
	DB	0adH
	DB	075H
	DB	0adH
	DB	076H
	DB	0b5H
	DB	075H
	DB	0adH
	DB	075H
	DB	0adH
	DB	076H
	DB	0b5H
	DB	075H
	DB	0adH
	DB	075H
	DB	0adH
	DB	076H
	DB	0b5H
	DB	075H
	DB	0adH
	DB	075H
	DB	0adH
	DB	076H
	DB	0b5H
	DB	075H
	DB	0adH
	DB	075H
	DB	0adH
	DB	076H
	DB	0b5H
	DB	075H
	DB	0adH
	DB	075H
	DB	0adH
	DB	076H
	DB	0b5H
	DB	075H
	DB	0adH
	DB	075H
	DB	0adH
	DB	076H
	DB	0b5H
	DB	075H
	DB	0adH
	DB	075H
	DB	0adH
	DB	076H
	DB	0b5H
	DB	075H
	DB	0adH
	DB	075H
	DB	0adH
	DB	076H
	DB	0b5H
	DB	075H
	DB	0adH
	DB	075H
	DB	0adH
	DB	076H
	DB	0b5H
	DB	075H
	DB	0adH
	DB	075H
	DB	0adH
	DB	076H
	DB	0b5H
	DB	075H
	DB	0adH
	DB	075H
	DB	0adH
	DB	076H
	DB	0b5H
	DB	075H
	DB	0adH
	DB	075H
	DB	0adH
	DB	076H
	DB	0b5H
	DB	075H
	DB	0adH
	DB	075H
	DB	0adH
	DB	076H
	DB	0b5H
	DB	075H
	DB	0adH
	DB	075H
	DB	0adH
	DB	076H
	DB	0b5H
	DB	075H
	DB	0adH
	DB	075H
	DB	0adH
	DB	076H
	DB	0b5H
	DB	075H
	DB	0adH
	DB	075H
	DB	0adH
	DB	076H
	DB	0b5H
	DB	075H
	DB	0adH
	DB	075H
	DB	0adH
	DB	076H
	DB	0b5H
	DB	075H
	DB	0adH
	DB	075H
	DB	0adH
	DB	076H
	DB	0b5H
	DB	075H
	DB	0adH
	DB	075H
	DB	0adH
	DB	076H
	DB	0b5H
	DB	075H
	DB	0adH
	DB	075H
	DB	0adH
	DB	076H
	DB	0b5H
	DB	075H
	DB	0adH
	DB	075H
	DB	0adH
	DB	076H
	DB	0b5H
	DB	075H
	DB	0adH
	DB	075H
	DB	0adH
	DB	076H
	DB	0b5H
	DB	075H
	DB	0adH
	DB	075H
	DB	0adH
	DB	076H
	DB	0b5H
	DB	075H
	DB	0adH
	DB	075H
	DB	0adH
	DB	076H
	DB	0b5H
	DB	075H
	DB	0adH
	DB	075H
	DB	0adH
	DB	076H
	DB	0b5H
	DB	075H
	DB	0adH
	DB	075H
	DB	0adH
	DB	076H
	DB	0b5H
	DB	075H
	DB	0adH
	DB	075H
	DB	0adH
	DB	076H
	DB	0b5H
	DB	075H
	DB	0adH
	DB	075H
	DB	0adH
	DB	076H
	DB	0b5H
	DB	075H
	DB	0adH
	DB	075H
	DB	0adH
	DB	076H
	DB	0b5H
	DB	075H
	DB	0adH
	DB	076H
	DB	0b5H
	DB	076H
	DB	0b5H
	DB	076H
	DB	0b5H
	DB	075H
	DB	0adH
	DB	075H
	DB	0adH
	DB	076H
	DB	0b5H
	DB	075H
	DB	0adH
	DB	075H
	DB	0adH
	DB	076H
	DB	0b5H
	DB	075H
	DB	0adH
	DB	075H
	DB	0adH
	DB	076H
	DB	0b5H
	DB	076H
	DB	0b5H
	DB	075H
	DB	0adH
	DB	076H
	DB	0b5H
	DB	075H
	DB	0adH
	DB	076H
	DB	0b5H
	DB	075H
	DB	0adH
	DB	075H
	DB	0adH
	DB	075H
	DB	0adH
	DB	076H
	DB	0b5H
	DB	075H
	DB	0adH
	DB	076H
	DB	0b5H
	DB	075H
	DB	0adH
	DB	075H
	DB	0adH
	DB	076H
	DB	0b5H
	DB	076H
	DB	0b5H
	DB	075H
	DB	0adH
	DB	076H
	DB	0b5H
	DB	075H
	DB	0adH
	DB	076H
	DB	0b5H
	DB	076H
	DB	0b5H
	DB	075H
	DB	0adH
	DB	076H
	DB	0b5H
	DB	076H
	DB	0b5H
	DB	075H
	DB	0adH
	DB	076H
	DB	0b5H
	DB	076H
	DB	0b5H
	DB	075H
	DB	0adH
	DB	076H
	DB	0b5H
	DB	076H
	DB	0b5H
	DB	075H
	DB	0adH
	DB	076H
	DB	0b5H
	DB	076H
	DB	0b5H
	DB	075H
	DB	0adH
	DB	076H
	DB	0b5H
	DB	076H
	DB	0b5H
	DB	075H
	DB	0adH
	DB	076H
	DB	0b5H
	DB	076H
	DB	0b5H
	DB	075H
	DB	0adH
	DB	076H
	DB	0b5H
	DB	076H
	DB	0b5H
	DB	075H
	DB	0adH
	DB	076H
	DB	0b5H
	DB	076H
	DB	0b5H
	DB	075H
	DB	0adH
	DB	076H
	DB	0b5H
	DB	076H
	DB	0b5H
	DB	075H
	DB	0adH
	DB	076H
	DB	0b5H
	DB	076H
	DB	0b5H
	DB	075H
	DB	0adH
	DB	076H
	DB	0b5H
	DB	076H
	DB	0b5H
	DB	075H
	DB	0adH
	DB	076H
	DB	0b5H
	DB	076H
	DB	0b5H
	DB	075H
	DB	0adH
	DB	076H
	DB	0b5H
	DB	076H
	DB	0b5H
	DB	075H
	DB	0adH
	DB	076H
	DB	0b5H
	DB	076H
	DB	0b5H
	DB	075H
	DB	0adH
	DB	076H
	DB	0b5H
	DB	076H
	DB	0b5H
	DB	075H
	DB	0adH
	DB	076H
	DB	0b5H
	DB	076H
	DB	0b5H
	DB	075H
	DB	0adH
	DB	076H
	DB	0b5H
	DB	076H
	DB	0b5H
	DB	075H
	DB	0adH
	DB	076H
	DB	0b5H
	DB	076H
	DB	0b5H
	DB	075H
	DB	0adH
	DB	076H
	DB	0b5H
	DB	076H
	DB	0b5H
	DB	075H
	DB	0adH
	DB	076H
	DB	0b5H
	DB	076H
	DB	0b5H
	DB	075H
	DB	0adH
	DB	076H
	DB	0b5H
	DB	076H
	DB	0b5H
	DB	075H
	DB	0adH
	DB	076H
	DB	0b5H
	DB	076H
	DB	0b5H
	DB	075H
	DB	0adH
	DB	076H
	DB	0b5H
	DB	076H
	DB	0b5H
	DB	075H
	DB	0adH
	DB	076H
	DB	0b5H
	DB	076H
	DB	0b5H
	DB	075H
	DB	0adH
	DB	076H
	DB	0b5H
	DB	076H
	DB	0b5H
	DB	075H
	DB	0adH
	DB	076H
	DB	0b5H
	DB	076H
	DB	0b5H
	DB	075H
	DB	0adH
	DB	076H
	DB	0b5H
	DB	076H
	DB	0b5H
	DB	075H
	DB	0adH
	DB	076H
	DB	0b5H
	DB	076H
	DB	0b5H
	DB	075H
	DB	0adH
	DB	076H
	DB	0b5H
	DB	076H
	DB	0b5H
	DB	075H
	DB	0adH
	DB	076H
	DB	0b5H
	DB	076H
	DB	0b5H
	DB	075H
	DB	0adH
	DB	076H
	DB	0b5H
	DB	076H
	DB	0b5H
	DB	075H
	DB	0adH
	DB	076H
	DB	0b5H
	DB	076H
	DB	0b5H
	DB	075H
	DB	0adH
	DB	076H
	DB	0b5H
	DB	076H
	DB	0b5H
	DB	075H
	DB	0adH
	DB	076H
	DB	0b5H
	DB	076H
	DB	0b5H
	DB	075H
	DB	0adH
	DB	076H
	DB	0b5H
	DB	076H
	DB	0b5H
	DB	075H
	DB	0adH
	DB	076H
	DB	0b5H
	DB	076H
	DB	0b5H
	DB	075H
	DB	0adH
	DB	076H
	DB	0b5H
	DB	076H
	DB	0b5H
	DB	075H
	DB	0adH
	DB	076H
	DB	0b5H
	DB	076H
	DB	0b5H
	DB	075H
	DB	0adH
	DB	076H
	DB	0b5H
	DB	076H
	DB	0b5H
	DB	075H
	DB	0adH
	DB	076H
	DB	0b5H
	DB	076H
	DB	0b5H
	DB	075H
	DB	0adH
	DB	076H
	DB	0b5H
	DB	076H
	DB	0b5H
	DB	075H
	DB	0adH
	DB	076H
	DB	0b5H
	DB	076H
	DB	0b5H
	DB	075H
	DB	0adH
	DB	076H
	DB	0b5H
	DB	076H
	DB	0b5H
	DB	075H
	DB	0adH
	DB	076H
	DB	0b5H
	DB	076H
	DB	0b5H
	DB	075H
	DB	0adH
	DB	076H
	DB	0b5H
	DB	076H
	DB	0b5H
	DB	075H
	DB	0adH
	DB	076H
	DB	0b5H
	DB	076H
	DB	0b5H
	DB	075H
	DB	0adH
	DB	075H
	DB	0adH
	DB	075H
	DB	0adH
	DB	076H
	DB	0b5H
	DB	075H
	DB	0adH
	DB	076H
	DB	0b5H
	DB	076H
	DB	0b5H
	DB	075H
	DB	0adH
	DB	076H
	DB	0b5H
	DB	075H
	DB	0adH
	DB	076H
	DB	0b5H
	DB	075H
	DB	0adH
	DB	075H
	DB	0adH
	DB	076H
	DB	0b5H
	DB	075H
	DB	0adH
	DB	076H
	DB	0b5H
	DB	075H
	DB	0adH
	DB	075H
	DB	0adH
	DB	076H
	DB	0b5H
	DB	076H
	DB	0b5H
	DB	076H
	DB	0b5H
	DB	075H
	DB	0adH
	DB	075H
	DB	0adH
	DB	076H
	DB	0b5H
	DB	075H
	DB	0adH
	DB	076H
	DB	0b5H
	DB	075H
	DB	0adH
	DB	075H
	DB	0adH
	DB	076H
	DB	0b5H
	DB	075H
	DB	0adH
	DB	075H
	DB	0adH
	DB	076H
	DB	0b5H
	DB	075H
	DB	0adH
	DB	076H
	DB	0b5H
	DB	075H
	DB	0adH
	DB	075H
	DB	0adH
	DB	076H
	DB	0b5H
	DB	075H
	DB	0adH
	DB	076H
	DB	0b5H
	DB	075H
	DB	0adH
	DB	075H
	DB	0adH
	DB	076H
	DB	0b5H
	DB	075H
	DB	0adH
	DB	075H
	DB	0adH
	DB	076H
	DB	0b5H
	DB	075H
	DB	0adH
	DB	075H
	DB	0adH
	DB	076H
	DB	0b5H
	DB	075H
	DB	0adH
	DB	075H
	DB	0adH
	DB	076H
	DB	0b5H
	DB	075H
	DB	0adH
	DB	075H
	DB	0adH
	DB	076H
	DB	0b5H
	DB	075H
	DB	0adH
	DB	075H
	DB	0adH
	DB	076H
	DB	0b5H
	DB	075H
	DB	0adH
	DB	075H
	DB	0adH
	DB	076H
	DB	0b5H
	DB	075H
	DB	0adH
	DB	075H
	DB	0adH
	DB	076H
	DB	0b5H
	DB	075H
	DB	0adH
	DB	075H
	DB	0adH
	DB	076H
	DB	0b5H
	DB	075H
	DB	0adH
	DB	075H
	DB	0adH
	DB	076H
	DB	0b5H
	DB	075H
	DB	0adH
	DB	075H
	DB	0adH
	DB	076H
	DB	0b5H
	DB	075H
	DB	0adH
	DB	075H
	DB	0adH
	DB	076H
	DB	0b5H
	DB	075H
	DB	0adH
	DB	075H
	DB	0adH
	DB	076H
	DB	0b5H
	DB	075H
	DB	0adH
	DB	075H
	DB	0adH
	DB	076H
	DB	0b5H
	DB	075H
	DB	0adH
	DB	075H
	DB	0adH
	DB	076H
	DB	0b5H
	DB	075H
	DB	0adH
	DB	075H
	DB	0adH
	DB	076H
	DB	0b5H
	DB	075H
	DB	0adH
	DB	075H
	DB	0adH
	DB	076H
	DB	0b5H
	DB	075H
	DB	0adH
	DB	075H
	DB	0adH
	DB	076H
	DB	0b5H
	DB	075H
	DB	0adH
	DB	075H
	DB	0adH
	DB	076H
	DB	0b5H
	DB	075H
	DB	0adH
	DB	075H
	DB	0adH
	DB	076H
	DB	0b5H
	DB	075H
	DB	0adH
	DB	075H
	DB	0adH
	DB	076H
	DB	0b5H
	DB	075H
	DB	0adH
	DB	075H
	DB	0adH
	DB	076H
	DB	0b5H
	DB	075H
	DB	0adH
	DB	075H
	DB	0adH
	DB	076H
	DB	0b5H
	DB	075H
	DB	0adH
	DB	075H
	DB	0adH
	DB	076H
	DB	0b5H
	DB	075H
	DB	0adH
	DB	075H
	DB	0adH
	DB	076H
	DB	0b5H
	DB	075H
	DB	0adH
	DB	075H
	DB	0adH
	DB	076H
	DB	0b5H
	DB	075H
	DB	0adH
	DB	075H
	DB	0adH
	DB	076H
	DB	0b5H
	DB	075H
	DB	0adH
	DB	075H
	DB	0adH
	DB	076H
	DB	0b5H
	DB	075H
	DB	0adH
	DB	075H
	DB	0adH
	DB	076H
	DB	0b5H
	DB	075H
	DB	0adH
	DB	075H
	DB	0adH
	DB	076H
	DB	0b5H
	DB	075H
	DB	0adH
	DB	075H
	DB	0adH
	DB	076H
	DB	0b5H
	DB	075H
	DB	0adH
	DB	075H
	DB	0adH
	DB	076H
	DB	0b5H
	DB	075H
	DB	0adH
	DB	075H
	DB	0adH
	DB	076H
	DB	0b5H
	DB	075H
	DB	0adH
	DB	075H
	DB	0adH
	DB	076H
	DB	0b5H
	DB	075H
	DB	0adH
	DB	075H
	DB	0adH
	DB	076H
	DB	0b5H
	DB	075H
	DB	0adH
	DB	075H
	DB	0adH
	DB	076H
	DB	0b5H
	DB	075H
	DB	0adH
	DB	075H
	DB	0adH
	DB	076H
	DB	0b5H
	DB	075H
	DB	0adH
	DB	075H
	DB	0adH
	DB	076H
	DB	0b5H
	DB	075H
	DB	0adH
	DB	075H
	DB	0adH
	DB	076H
	DB	0b5H
	DB	075H
	DB	0adH
	DB	075H
	DB	0adH
	DB	076H
	DB	0b5H
	DB	075H
	DB	0adH
	DB	075H
	DB	0adH
	DB	076H
	DB	0b5H
	DB	075H
	DB	0adH
	DB	075H
	DB	0adH
	DB	076H
	DB	0b5H
	DB	075H
	DB	0adH
	DB	075H
	DB	0adH
	DB	076H
	DB	0b5H
	DB	075H
	DB	0adH
	DB	075H
	DB	0adH
	DB	076H
	DB	0b5H
	DB	076H
	DB	0b5H
	DB	075H
	DB	0adH
	DB	076H
	DB	0b5H
	DB	076H
	DB	0b5H
	DB	075H
	DB	0adH
	DB	075H
	DB	0adH
	DB	076H
	DB	0b5H
	DB	075H
	DB	0adH
	DB	076H
	DB	0b5H
	DB	075H
	DB	0adH
	DB	076H
	DB	0b5H
	DB	076H
	DB	0b5H
	DB	076H
	DB	0b5H
	DB	075H
	DB	0adH
	DB	076H
	DB	0b5H
	DB	075H
	DB	0adH
	DB	076H
	DB	0b5H
	DB	075H
	DB	0adH
	DB	076H
	DB	0b5H
	DB	075H
	DB	0adH
	DB	075H
	DB	0adH
	DB	076H
	DB	0b5H
	DB	076H
	DB	0b5H
	DB	075H
	DB	0adH
	DB	076H
	DB	0b5H
	DB	076H
	DB	0b5H
	DB	075H
	DB	0adH
	DB	076H
	DB	0b5H
	DB	076H
	DB	0b5H
	DB	075H
	DB	0adH
	DB	076H
	DB	0b5H
	DB	076H
	DB	0b5H
	DB	075H
	DB	0adH
	DB	075H
	DB	0adH
	DB	076H
	DB	0b5H
	DB	076H
	DB	0b5H
	DB	075H
	DB	0adH
	DB	075H
	DB	0adH
	DB	076H
	DB	0b5H
	DB	075H
	DB	0adH
	DB	076H
	DB	0b5H
	DB	076H
	DB	0b5H
	DB	075H
	DB	0adH
	DB	076H
	DB	0b5H
	DB	076H
	DB	0b5H
	DB	075H
	DB	0adH
	DB	076H
	DB	0b5H
	DB	076H
	DB	0b5H
	DB	075H
	DB	0adH
	DB	076H
	DB	0b5H
	DB	076H
	DB	0b5H
	DB	075H
	DB	0adH
	DB	076H
	DB	0b5H
	DB	076H
	DB	0b5H
	DB	075H
	DB	0adH
	DB	076H
	DB	0b5H
	DB	076H
	DB	0b5H
	DB	075H
	DB	0adH
	DB	076H
	DB	0b5H
	DB	076H
	DB	0b5H
	DB	075H
	DB	0adH
	DB	076H
	DB	0b5H
	DB	076H
	DB	0b5H
	DB	075H
	DB	0adH
	DB	076H
	DB	0b5H
	DB	076H
	DB	0b5H
	DB	075H
	DB	0adH
	DB	076H
	DB	0b5H
	DB	076H
	DB	0b5H
	DB	075H
	DB	0adH
	DB	076H
	DB	0b5H
	DB	076H
	DB	0b5H
	DB	075H
	DB	0adH
	DB	076H
	DB	0b5H
	DB	076H
	DB	0b5H
	DB	075H
	DB	0adH
	DB	076H
	DB	0b5H
	DB	076H
	DB	0b5H
	DB	075H
	DB	0adH
	DB	076H
	DB	0b5H
	DB	076H
	DB	0b5H
	DB	075H
	DB	0adH
	DB	076H
	DB	0b5H
	DB	076H
	DB	0b5H
	DB	075H
	DB	0adH
	DB	076H
	DB	0b5H
	DB	076H
	DB	0b5H
	DB	075H
	DB	0adH
	DB	076H
	DB	0b5H
	DB	076H
	DB	0b5H
	DB	075H
	DB	0adH
	DB	076H
	DB	0b5H
	DB	076H
	DB	0b5H
	DB	075H
	DB	0adH
	DB	076H
	DB	0b5H
	DB	076H
	DB	0b5H
	DB	075H
	DB	0adH
	DB	076H
	DB	0b5H
	DB	076H
	DB	0b5H
	DB	075H
	DB	0adH
	DB	076H
	DB	0b5H
	DB	076H
	DB	0b5H
	DB	075H
	DB	0adH
	DB	076H
	DB	0b5H
	DB	076H
	DB	0b5H
	DB	075H
	DB	0adH
	DB	076H
	DB	0b5H
	DB	076H
	DB	0b5H
	DB	075H
	DB	0adH
	DB	076H
	DB	0b5H
	DB	076H
	DB	0b5H
	DB	075H
	DB	0adH
	DB	076H
	DB	0b5H
	DB	076H
	DB	0b5H
	DB	075H
	DB	0adH
	DB	076H
	DB	0b5H
	DB	076H
	DB	0b5H
	DB	075H
	DB	0adH
	DB	076H
	DB	0b5H
	DB	076H
	DB	0b5H
	DB	075H
	DB	0adH
	DB	076H
	DB	0b5H
	DB	076H
	DB	0b5H
	DB	075H
	DB	0adH
	DB	076H
	DB	0b5H
	DB	076H
	DB	0b5H
	DB	075H
	DB	0adH
	DB	076H
	DB	0b5H
	DB	076H
	DB	0b5H
	DB	075H
	DB	0adH
	DB	076H
	DB	0b5H
	DB	076H
	DB	0b5H
	DB	075H
	DB	0adH
	DB	076H
	DB	0b5H
	DB	076H
	DB	0b5H
	DB	075H
	DB	0adH
	DB	076H
	DB	0b5H
	DB	076H
	DB	0b5H
	DB	075H
	DB	0adH
	DB	076H
	DB	0b5H
	DB	076H
	DB	0b5H
	DB	075H
	DB	0adH
	DB	076H
	DB	0b5H
	DB	076H
	DB	0b5H
	DB	075H
	DB	0adH
	DB	076H
	DB	0b5H
	DB	076H
	DB	0b5H
	DB	075H
	DB	0adH
	DB	076H
	DB	0b5H
	DB	076H
	DB	0b5H
	DB	075H
	DB	0adH
	DB	076H
	DB	0b5H
	DB	076H
	DB	0b5H
	DB	075H
	DB	0adH
	DB	076H
	DB	0b5H
	DB	076H
	DB	0b5H
	DB	075H
	DB	0adH
	DB	076H
	DB	0b5H
	DB	076H
	DB	0b5H
	DB	075H
	DB	0adH
	DB	076H
	DB	0b5H
	DB	076H
	DB	0b5H
	DB	075H
	DB	0adH
	DB	076H
	DB	0b5H
	DB	076H
	DB	0b5H
	DB	075H
	DB	0adH
	DB	076H
	DB	0b5H
	DB	076H
	DB	0b5H
	DB	075H
	DB	0adH
	DB	076H
	DB	0b5H
	DB	075H
	DB	0adH
	DB	075H
	DB	0adH
	DB	076H
	DB	0b5H
	DB	075H
	DB	0adH
	DB	076H
	DB	0b5H
	DB	076H
	DB	0b5H
	DB	075H
	DB	0adH
	DB	076H
	DB	0b5H
	DB	075H
	DB	0adH
	DB	076H
	DB	0b5H
	DB	075H
	DB	0adH
	DB	075H
	DB	0adH
	DB	076H
	DB	0b5H
	DB	075H
	DB	0adH
	DB	075H
	DB	0adH
	DB	076H
	DB	0b5H
	DB	076H
	DB	0b5H
	DB	075H
	DB	0adH
	DB	075H
	DB	0adH
	DB	076H
	DB	0b5H
	DB	076H
	DB	0b5H
	DB	075H
	DB	0adH
	DB	075H
	DB	0adH
	DB	076H
	DB	0b5H
	DB	075H
	DB	0adH
	DB	076H
	DB	0b5H
	DB	075H
	DB	0adH
	DB	075H
	DB	0adH
	DB	076H
	DB	0b5H
	DB	075H
	DB	0adH
	DB	076H
	DB	0b5H
	DB	075H
	DB	0adH
	DB	075H
	DB	0adH
	DB	076H
	DB	0b5H
	DB	076H
	DB	0b5H
	DB	075H
	DB	0adH
	DB	076H
	DB	0b5H
	DB	076H
	DB	0b5H
	DB	075H
	DB	0adH
	DB	076H
	DB	0b5H
	DB	076H
	DB	0b5H
	DB	075H
	DB	0adH
	DB	075H
	DB	0adH
	DB	076H
	DB	0b5H
	DB	075H
	DB	0adH
	DB	076H
	DB	0b5H
	DB	075H
	DB	0adH
	DB	075H
	DB	0adH
	DB	076H
	DB	0b5H
	DB	075H
	DB	0adH
	DB	075H
	DB	0adH
	DB	076H
	DB	0b5H
	DB	075H
	DB	0adH
	DB	075H
	DB	0adH
	DB	076H
	DB	0b5H
	DB	075H
	DB	0adH
	DB	075H
	DB	0adH
	DB	076H
	DB	0b5H
	DB	075H
	DB	0adH
	DB	075H
	DB	0adH
	DB	076H
	DB	0b5H
	DB	075H
	DB	0adH
	DB	075H
	DB	0adH
	DB	076H
	DB	0b5H
	DB	075H
	DB	0adH
	DB	075H
	DB	0adH
	DB	076H
	DB	0b5H
	DB	075H
	DB	0adH
	DB	075H
	DB	0adH
	DB	076H
	DB	0b5H
	DB	075H
	DB	0adH
	DB	075H
	DB	0adH
	DB	076H
	DB	0b5H
	DB	075H
	DB	0adH
	DB	075H
	DB	0adH
	DB	076H
	DB	0b5H
	DB	075H
	DB	0adH
	DB	075H
	DB	0adH
	DB	076H
	DB	0b5H
	DB	075H
	DB	0adH
	DB	075H
	DB	0adH
	DB	076H
	DB	0b5H
	DB	075H
	DB	0adH
	DB	075H
	DB	0adH
	DB	076H
	DB	0b5H
	DB	075H
	DB	0adH
	DB	075H
	DB	0adH
	DB	076H
	DB	0b5H
	DB	075H
	DB	0adH
	DB	075H
	DB	0adH
	DB	076H
	DB	0b5H
	DB	075H
	DB	0adH
	DB	075H
	DB	0adH
	DB	076H
	DB	0b5H
	DB	075H
	DB	0adH
	DB	075H
	DB	0adH
	DB	076H
	DB	0b5H
	DB	075H
	DB	0adH
	DB	075H
	DB	0adH
	DB	076H
	DB	0b5H
	DB	075H
	DB	0adH
	DB	075H
	DB	0adH
	DB	076H
	DB	0b5H
	DB	075H
	DB	0adH
	DB	075H
	DB	0adH
	DB	076H
	DB	0b5H
	DB	075H
	DB	0adH
	DB	075H
	DB	0adH
	DB	076H
	DB	0b5H
	DB	075H
	DB	0adH
	DB	075H
	DB	0adH
	DB	076H
	DB	0b5H
	DB	075H
	DB	0adH
	DB	075H
	DB	0adH
	DB	076H
	DB	0b5H
	DB	075H
	DB	0adH
	DB	075H
	DB	0adH
	DB	076H
	DB	0b5H
	DB	075H
	DB	0adH
	DB	075H
	DB	0adH
	DB	076H
	DB	0b5H
	DB	075H
	DB	0adH
	DB	075H
	DB	0adH
	DB	076H
	DB	0b5H
	DB	075H
	DB	0adH
	DB	075H
	DB	0adH
	DB	076H
	DB	0b5H
	DB	075H
	DB	0adH
	DB	075H
	DB	0adH
	DB	076H
	DB	0b5H
	DB	075H
	DB	0adH
	DB	075H
	DB	0adH
	DB	076H
	DB	0b5H
	DB	075H
	DB	0adH
	DB	075H
	DB	0adH
	DB	076H
	DB	0b5H
	DB	075H
	DB	0adH
	DB	075H
	DB	0adH
	DB	076H
	DB	0b5H
	DB	075H
	DB	0adH
	DB	075H
	DB	0adH
	DB	076H
	DB	0b5H
	DB	075H
	DB	0adH
	DB	075H
	DB	0adH
	DB	076H
	DB	0b5H
	DB	075H
	DB	0adH
	DB	075H
	DB	0adH
	DB	076H
	DB	0b5H
	DB	075H
	DB	0adH
	DB	075H
	DB	0adH
	DB	076H
	DB	0b5H
	DB	075H
	DB	0adH
	DB	075H
	DB	0adH
	DB	076H
	DB	0b5H
	DB	075H
	DB	0adH
	DB	075H
	DB	0adH
	DB	076H
	DB	0b5H
	DB	075H
	DB	0adH
	DB	075H
	DB	0adH
	DB	076H
	DB	0b5H
	DB	075H
	DB	0adH
	DB	075H
	DB	0adH
	DB	076H
	DB	0b5H
	DB	075H
	DB	0adH
	DB	075H
	DB	0adH
	DB	076H
	DB	0b5H
	DB	075H
	DB	0adH
	DB	075H
	DB	0adH
	DB	076H
	DB	0b5H
	DB	075H
	DB	0adH
	DB	076H
	DB	0b5H
	DB	076H
	DB	0b5H
	DB	076H
	DB	0b5H
	DB	075H
	DB	0adH
	DB	075H
	DB	0adH
	DB	076H
	DB	0b5H
	DB	075H
	DB	0adH
	DB	075H
	DB	0adH
	DB	076H
	DB	0b5H
	DB	075H
	DB	0adH
	DB	076H
	DB	0b5H
	DB	076H
	DB	0b5H
	DB	075H
	DB	0adH
	DB	076H
	DB	0b5H
	DB	076H
	DB	0b5H
	DB	075H
	DB	0adH
	DB	075H
	DB	0adH
	DB	076H
	DB	0b5H
	DB	075H
	DB	0adH
	DB	076H
	DB	0b5H
	DB	075H
	DB	0adH
	DB	076H
	DB	0b5H
	DB	075H
	DB	0adH
	DB	076H
	DB	0b5H
	DB	076H
	DB	0b5H
	DB	075H
	DB	0adH
	DB	076H
	DB	0b5H
	DB	075H
	DB	0adH
	DB	076H
	DB	0b5H
	DB	076H
	DB	0b5H
	DB	075H
	DB	0adH
	DB	075H
	DB	0adH
	DB	076H
	DB	0b5H
	DB	076H
	DB	0b5H
	DB	075H
	DB	0adH
	DB	075H
	DB	0adH
	DB	076H
	DB	0b5H
	DB	075H
	DB	0adH
	DB	075H
	DB	0adH
	DB	076H
	DB	0b5H
	DB	075H
	DB	0adH
	DB	075H
	DB	0adH
	DB	076H
	DB	0b5H
	DB	076H
	DB	0b5H
	DB	075H
	DB	0adH
	DB	075H
	DB	0adH
	DB	076H
	DB	0b5H
	DB	075H
	DB	0adH
	DB	076H
	DB	0b5H
	DB	076H
	DB	0b5H
	DB	075H
	DB	0adH
	DB	076H
	DB	0b5H
	DB	076H
	DB	0b5H
	DB	075H
	DB	0adH
	DB	076H
	DB	0b5H
	DB	076H
	DB	0b5H
	DB	075H
	DB	0adH
	DB	076H
	DB	0b5H
	DB	076H
	DB	0b5H
	DB	075H
	DB	0adH
	DB	076H
	DB	0b5H
	DB	076H
	DB	0b5H
	DB	075H
	DB	0adH
	DB	076H
	DB	0b5H
	DB	076H
	DB	0b5H
	DB	075H
	DB	0adH
	DB	076H
	DB	0b5H
	DB	076H
	DB	0b5H
	DB	075H
	DB	0adH
	DB	076H
	DB	0b5H
	DB	076H
	DB	0b5H
	DB	075H
	DB	0adH
	DB	076H
	DB	0b5H
	DB	076H
	DB	0b5H
	DB	075H
	DB	0adH
	DB	076H
	DB	0b5H
	DB	076H
	DB	0b5H
	DB	075H
	DB	0adH
	DB	076H
	DB	0b5H
	DB	076H
	DB	0b5H
	DB	075H
	DB	0adH
	DB	076H
	DB	0b5H
	DB	076H
	DB	0b5H
	DB	075H
	DB	0adH
	DB	076H
	DB	0b5H
	DB	076H
	DB	0b5H
	DB	075H
	DB	0adH
	DB	076H
	DB	0b5H
	DB	076H
	DB	0b5H
	DB	075H
	DB	0adH
	DB	076H
	DB	0b5H
	DB	076H
	DB	0b5H
	DB	075H
	DB	0adH
	DB	076H
	DB	0b5H
	DB	076H
	DB	0b5H
	DB	075H
	DB	0adH
	DB	076H
	DB	0b5H
	DB	076H
	DB	0b5H
	DB	075H
	DB	0adH
	DB	076H
	DB	0b5H
	DB	076H
	DB	0b5H
	DB	075H
	DB	0adH
	DB	076H
	DB	0b5H
	DB	076H
	DB	0b5H
	DB	075H
	DB	0adH
	DB	076H
	DB	0b5H
	DB	076H
	DB	0b5H
	DB	075H
	DB	0adH
	DB	076H
	DB	0b5H
	DB	076H
	DB	0b5H
	DB	075H
	DB	0adH
	DB	076H
	DB	0b5H
	DB	076H
	DB	0b5H
	DB	075H
	DB	0adH
	DB	076H
	DB	0b5H
	DB	076H
	DB	0b5H
	DB	075H
	DB	0adH
	DB	076H
	DB	0b5H
	DB	076H
	DB	0b5H
	DB	075H
	DB	0adH
	DB	076H
	DB	0b5H
	DB	076H
	DB	0b5H
	DB	075H
	DB	0adH
	DB	076H
	DB	0b5H
	DB	076H
	DB	0b5H
	DB	075H
	DB	0adH
	DB	076H
	DB	0b5H
	DB	076H
	DB	0b5H
	DB	075H
	DB	0adH
	DB	076H
	DB	0b5H
	DB	076H
	DB	0b5H
	DB	075H
	DB	0adH
	DB	076H
	DB	0b5H
	DB	076H
	DB	0b5H
	DB	075H
	DB	0adH
	DB	076H
	DB	0b5H
	DB	076H
	DB	0b5H
	DB	075H
	DB	0adH
	DB	076H
	DB	0b5H
	DB	076H
	DB	0b5H
	DB	075H
	DB	0adH
	DB	076H
	DB	0b5H
	DB	076H
	DB	0b5H
	DB	075H
	DB	0adH
	DB	076H
	DB	0b5H
	DB	076H
	DB	0b5H
	DB	075H
	DB	0adH
	DB	076H
	DB	0b5H
	DB	076H
	DB	0b5H
	DB	075H
	DB	0adH
	DB	076H
	DB	0b5H
	DB	076H
	DB	0b5H
	DB	075H
	DB	0adH
	DB	076H
	DB	0b5H
	DB	076H
	DB	0b5H
	DB	075H
	DB	0adH
	DB	076H
	DB	0b5H
	DB	076H
	DB	0b5H
	DB	075H
	DB	0adH
	DB	076H
	DB	0b5H
	DB	076H
	DB	0b5H
	DB	075H
	DB	0adH
	DB	076H
	DB	0b5H
	DB	076H
	DB	0b5H
	DB	075H
	DB	0adH
	DB	076H
	DB	0b5H
	DB	076H
	DB	0b5H
	DB	075H
	DB	0adH
	DB	076H
	DB	0b5H
	DB	076H
	DB	0b5H
	DB	075H
	DB	0adH
	DB	075H
	DB	0adH
	DB	075H
	DB	0adH
	DB	076H
	DB	0b5H
	DB	075H
	DB	0adH
	DB	076H
	DB	0b5H
	DB	076H
	DB	0b5H
	DB	075H
	DB	0adH
	DB	076H
	DB	0b5H
	DB	075H
	DB	0adH
	DB	076H
	DB	0b5H
	DB	075H
	DB	0adH
	DB	075H
	DB	0adH
	DB	076H
	DB	0b5H
	DB	075H
	DB	0adH
	DB	075H
	DB	0adH
	DB	076H
	DB	0b5H
	DB	076H
	DB	0b5H
	DB	075H
	DB	0adH
	DB	076H
	DB	0b5H
	DB	075H
	DB	0adH
	DB	075H
	DB	0adH
	DB	076H
	DB	0b5H
	DB	075H
	DB	0adH
	DB	075H
	DB	0adH
	DB	076H
	DB	0b5H
	DB	075H
	DB	0adH
	DB	076H
	DB	0b5H
	DB	075H
	DB	0adH
	DB	075H
	DB	0adH
	DB	076H
	DB	0b5H
	DB	076H
	DB	0b5H
	DB	075H
	DB	0adH
	DB	076H
	DB	0b5H
	DB	075H
	DB	0adH
	DB	076H
	DB	0b5H
	DB	076H
	DB	0b5H
	DB	075H
	DB	0adH
	DB	076H
	DB	0b5H
	DB	076H
	DB	0b5H
	DB	075H
	DB	0adH
	DB	076H
	DB	0b5H
	DB	076H
	DB	0b5H
	DB	075H
	DB	0adH
	DB	075H
	DB	0adH
	DB	076H
	DB	0b5H
	DB	076H
	DB	0b5H
	DB	075H
	DB	0adH
	DB	076H
	DB	0b5H
	DB	075H
	DB	0adH
	DB	076H
	DB	0b5H
	DB	075H
	DB	0adH
	DB	075H
	DB	0adH
	DB	076H
	DB	0b5H
	DB	075H
	DB	0adH
	DB	075H
	DB	0adH
	DB	076H
	DB	0b5H
	DB	075H
	DB	0adH
	DB	075H
	DB	0adH
	DB	076H
	DB	0b5H
	DB	075H
	DB	0adH
	DB	075H
	DB	0adH
	DB	076H
	DB	0b5H
	DB	075H
	DB	0adH
	DB	075H
	DB	0adH
	DB	076H
	DB	0b5H
	DB	075H
	DB	0adH
	DB	075H
	DB	0adH
	DB	076H
	DB	0b5H
	DB	075H
	DB	0adH
	DB	075H
	DB	0adH
	DB	076H
	DB	0b5H
	DB	075H
	DB	0adH
	DB	075H
	DB	0adH
	DB	076H
	DB	0b5H
	DB	075H
	DB	0adH
	DB	075H
	DB	0adH
	DB	076H
	DB	0b5H
	DB	075H
	DB	0adH
	DB	075H
	DB	0adH
	DB	076H
	DB	0b5H
	DB	075H
	DB	0adH
	DB	075H
	DB	0adH
	DB	076H
	DB	0b5H
	DB	075H
	DB	0adH
	DB	075H
	DB	0adH
	DB	076H
	DB	0b5H
	DB	075H
	DB	0adH
	DB	075H
	DB	0adH
	DB	076H
	DB	0b5H
	DB	075H
	DB	0adH
	DB	075H
	DB	0adH
	DB	076H
	DB	0b5H
	DB	075H
	DB	0adH
	DB	075H
	DB	0adH
	DB	076H
	DB	0b5H
	DB	075H
	DB	0adH
	DB	075H
	DB	0adH
	DB	076H
	DB	0b5H
	DB	075H
	DB	0adH
	DB	075H
	DB	0adH
	DB	076H
	DB	0b5H
	DB	075H
	DB	0adH
	DB	075H
	DB	0adH
	DB	076H
	DB	0b5H
	DB	075H
	DB	0adH
	DB	075H
	DB	0adH
	DB	076H
	DB	0b5H
	DB	075H
	DB	0adH
	DB	075H
	DB	0adH
	DB	076H
	DB	0b5H
	DB	075H
	DB	0adH
	DB	075H
	DB	0adH
	DB	076H
	DB	0b5H
	DB	075H
	DB	0adH
	DB	075H
	DB	0adH
	DB	076H
	DB	0b5H
	DB	075H
	DB	0adH
	DB	075H
	DB	0adH
	DB	076H
	DB	0b5H
	DB	075H
	DB	0adH
	DB	075H
	DB	0adH
	DB	076H
	DB	0b5H
	DB	075H
	DB	0adH
	DB	075H
	DB	0adH
	DB	076H
	DB	0b5H
	DB	075H
	DB	0adH
	DB	075H
	DB	0adH
	DB	076H
	DB	0b5H
	DB	075H
	DB	0adH
	DB	075H
	DB	0adH
	DB	076H
	DB	0b5H
	DB	075H
	DB	0adH
	DB	075H
	DB	0adH
	DB	076H
	DB	0b5H
	DB	075H
	DB	0adH
	DB	075H
	DB	0adH
	DB	076H
	DB	0b5H
	DB	075H
	DB	0adH
	DB	075H
	DB	0adH
	DB	076H
	DB	0b5H
	DB	075H
	DB	0adH
	DB	075H
	DB	0adH
	DB	076H
	DB	0b5H
	DB	075H
	DB	0adH
	DB	075H
	DB	0adH
	DB	076H
	DB	0b5H
	DB	075H
	DB	0adH
	DB	075H
	DB	0adH
	DB	076H
	DB	0b5H
	DB	075H
	DB	0adH
	DB	075H
	DB	0adH
	DB	076H
	DB	0b5H
	DB	075H
	DB	0adH
	DB	075H
	DB	0adH
	DB	076H
	DB	0b5H
	DB	075H
	DB	0adH
	DB	075H
	DB	0adH
	DB	076H
	DB	0b5H
	DB	075H
	DB	0adH
	DB	075H
	DB	0adH
	DB	076H
	DB	0b5H
	DB	075H
	DB	0adH
	DB	075H
	DB	0adH
	DB	076H
	DB	0b5H
	DB	075H
	DB	0adH
	DB	075H
	DB	0adH
	DB	076H
	DB	0b5H
	DB	075H
	DB	0adH
	DB	075H
	DB	0adH
	DB	076H
	DB	0b5H
	DB	076H
	DB	0b5H
	DB	075H
	DB	0adH
	DB	076H
	DB	0b5H
	DB	076H
	DB	0b5H
	DB	075H
	DB	0adH
	DB	075H
	DB	0adH
	DB	076H
	DB	0b5H
	DB	075H
	DB	0adH
	DB	076H
	DB	0b5H
	DB	075H
	DB	0adH
	DB	076H
	DB	0b5H
	DB	076H
	DB	0b5H
	DB	075H
	DB	0adH
	DB	076H
	DB	0b5H
	DB	076H
	DB	0b5H
	DB	075H
	DB	0adH
	DB	075H
	DB	0adH
	DB	076H
	DB	0b5H
	DB	075H
	DB	0adH
	DB	076H
	DB	0b5H
	DB	076H
	DB	0b5H
	DB	075H
	DB	0adH
	DB	076H
	DB	0b5H
	DB	075H
	DB	0adH
	DB	076H
	DB	0b5H
	DB	076H
	DB	0b5H
	DB	075H
	DB	0adH
	DB	075H
	DB	0adH
	DB	076H
	DB	0b5H
	DB	076H
	DB	0b5H
	DB	075H
	DB	0adH
	DB	075H
	DB	0adH
	DB	076H
	DB	0b5H
	DB	075H
	DB	0adH
	DB	076H
	DB	0b5H
	DB	075H
	DB	0adH
	DB	075H
	DB	0adH
	DB	076H
	DB	0b5H
	DB	075H
	DB	0adH
	DB	075H
	DB	0adH
	DB	076H
	DB	0b5H
	DB	075H
	DB	0adH
	DB	075H
	DB	0adH
	DB	076H
	DB	0b5H
	DB	076H
	DB	0b5H
	DB	075H
	DB	0adH
	DB	075H
	DB	0adH
	DB	076H
	DB	0b5H
	DB	076H
	DB	0b5H
	DB	075H
	DB	0adH
	DB	076H
	DB	0b5H
	DB	075H
	DB	0adH
	DB	076H
	DB	0b5H
	DB	076H
	DB	0b5H
	DB	075H
	DB	0adH
	DB	076H
	DB	0b5H
	DB	076H
	DB	0b5H
	DB	075H
	DB	0adH
	DB	076H
	DB	0b5H
	DB	076H
	DB	0b5H
	DB	075H
	DB	0adH
	DB	076H
	DB	0b5H
	DB	076H
	DB	0b5H
	DB	075H
	DB	0adH
	DB	076H
	DB	0b5H
	DB	076H
	DB	0b5H
	DB	075H
	DB	0adH
	DB	076H
	DB	0b5H
	DB	076H
	DB	0b5H
	DB	075H
	DB	0adH
	DB	076H
	DB	0b5H
	DB	076H
	DB	0b5H
	DB	075H
	DB	0adH
	DB	076H
	DB	0b5H
	DB	076H
	DB	0b5H
	DB	075H
	DB	0adH
	DB	076H
	DB	0b5H
	DB	076H
	DB	0b5H
	DB	075H
	DB	0adH
	DB	076H
	DB	0b5H
	DB	076H
	DB	0b5H
	DB	075H
	DB	0adH
	DB	076H
	DB	0b5H
	DB	076H
	DB	0b5H
	DB	075H
	DB	0adH
	DB	076H
	DB	0b5H
	DB	076H
	DB	0b5H
	DB	075H
	DB	0adH
	DB	076H
	DB	0b5H
	DB	076H
	DB	0b5H
	DB	075H
	DB	0adH
	DB	076H
	DB	0b5H
	DB	076H
	DB	0b5H
	DB	075H
	DB	0adH
	DB	076H
	DB	0b5H
	DB	076H
	DB	0b5H
	DB	075H
	DB	0adH
	DB	076H
	DB	0b5H
	DB	076H
	DB	0b5H
	DB	075H
	DB	0adH
	DB	076H
	DB	0b5H
	DB	076H
	DB	0b5H
	DB	075H
	DB	0adH
	DB	076H
	DB	0b5H
	DB	076H
	DB	0b5H
	DB	075H
	DB	0adH
	DB	076H
	DB	0b5H
	DB	076H
	DB	0b5H
	DB	075H
	DB	0adH
	DB	076H
	DB	0b5H
	DB	076H
	DB	0b5H
	DB	075H
	DB	0adH
	DB	076H
	DB	0b5H
	DB	076H
	DB	0b5H
	DB	075H
	DB	0adH
	DB	076H
	DB	0b5H
	DB	076H
	DB	0b5H
	DB	075H
	DB	0adH
	DB	076H
	DB	0b5H
	DB	076H
	DB	0b5H
	DB	075H
	DB	0adH
	DB	076H
	DB	0b5H
	DB	076H
	DB	0b5H
	DB	075H
	DB	0adH
	DB	076H
	DB	0b5H
	DB	076H
	DB	0b5H
	DB	075H
	DB	0adH
	DB	076H
	DB	0b5H
	DB	076H
	DB	0b5H
	DB	075H
	DB	0adH
	DB	076H
	DB	0b5H
	DB	076H
	DB	0b5H
	DB	075H
	DB	0adH
	DB	076H
	DB	0b5H
	DB	076H
	DB	0b5H
	DB	075H
	DB	0adH
	DB	076H
	DB	0b5H
	DB	076H
	DB	0b5H
	DB	075H
	DB	0adH
	DB	076H
	DB	0b5H
	DB	076H
	DB	0b5H
	DB	075H
	DB	0adH
	DB	076H
	DB	0b5H
	DB	076H
	DB	0b5H
	DB	075H
	DB	0adH
	DB	076H
	DB	0b5H
	DB	076H
	DB	0b5H
	DB	075H
	DB	0adH
	DB	076H
	DB	0b5H
	DB	076H
	DB	0b5H
	DB	075H
	DB	0adH
	DB	076H
	DB	0b5H
	DB	076H
	DB	0b5H
	DB	075H
	DB	0adH
	DB	076H
	DB	0b5H
	DB	076H
	DB	0b5H
	DB	075H
	DB	0adH
	DB	076H
	DB	0b5H
	DB	076H
	DB	0b5H
	DB	075H
	DB	0adH
	DB	076H
	DB	0b5H
	DB	076H
	DB	0b5H
	DB	075H
	DB	0adH
	DB	076H
	DB	0b5H
	DB	076H
	DB	0b5H
	DB	075H
	DB	0adH
	DB	076H
	DB	0b5H
	DB	076H
	DB	0b5H
	DB	075H
	DB	0adH
	DB	076H
	DB	0b5H
	DB	075H
	DB	0adH
	DB	075H
	DB	0adH
	DB	076H
	DB	0b5H
	DB	075H
	DB	0adH
	DB	076H
	DB	0b5H
	DB	076H
	DB	0b5H
	DB	075H
	DB	0adH
	DB	076H
	DB	0b5H
	DB	075H
	DB	0adH
	DB	076H
	DB	0b5H
	DB	075H
	DB	0adH
	DB	075H
	DB	0adH
	DB	076H
	DB	0b5H
	DB	075H
	DB	0adH
	DB	075H
	DB	0adH
	DB	076H
	DB	0b5H
	DB	076H
	DB	0b5H
	DB	075H
	DB	0adH
	DB	076H
	DB	0b5H
	DB	076H
	DB	0b5H
	DB	075H
	DB	0adH
	DB	075H
	DB	0adH
	DB	076H
	DB	0b5H
	DB	075H
	DB	0adH
	DB	076H
	DB	0b5H
	DB	075H
	DB	0adH
	DB	076H
	DB	0b5H
	DB	076H
	DB	0b5H
	DB	075H
	DB	0adH
	DB	076H
	DB	0b5H
	DB	075H
	DB	0adH
	DB	076H
	DB	0b5H
	DB	076H
	DB	0b5H
	DB	075H
	DB	0adH
	DB	075H
	DB	0adH
	DB	076H
	DB	0b5H
	DB	075H
	DB	0adH
	DB	076H
	DB	0b5H
	DB	075H
	DB	0adH
	DB	076H
	DB	0b5H
	DB	076H
	DB	0b5H
	DB	075H
	DB	0adH
	DB	076H
	DB	0b5H
	DB	076H
	DB	0b5H
	DB	075H
	DB	0adH
	DB	075H
	DB	0adH
	DB	076H
	DB	0b5H
	DB	076H
	DB	0b5H
	DB	075H
	DB	0adH
	DB	075H
	DB	0adH
	DB	076H
	DB	0b5H
	DB	075H
	DB	0adH
	DB	075H
	DB	0adH
	DB	076H
	DB	0b5H
	DB	075H
	DB	0adH
	DB	076H
	DB	0b5H
	DB	075H
	DB	0adH
	DB	075H
	DB	0adH
	DB	076H
	DB	0b5H
	DB	075H
	DB	0adH
	DB	076H
	DB	0b5H
	DB	075H
	DB	0adH
	DB	075H
	DB	0adH
	DB	076H
	DB	0b5H
	DB	075H
	DB	0adH
	DB	075H
	DB	0adH
	DB	076H
	DB	0b5H
	DB	075H
	DB	0adH
	DB	075H
	DB	0adH
	DB	076H
	DB	0b5H
	DB	075H
	DB	0adH
	DB	075H
	DB	0adH
	DB	076H
	DB	0b5H
	DB	075H
	DB	0adH
	DB	075H
	DB	0adH
	DB	076H
	DB	0b5H
	DB	075H
	DB	0adH
	DB	075H
	DB	0adH
	DB	076H
	DB	0b5H
	DB	075H
	DB	0adH
	DB	075H
	DB	0adH
	DB	076H
	DB	0b5H
	DB	075H
	DB	0adH
	DB	075H
	DB	0adH
	DB	076H
	DB	0b5H
	DB	075H
	DB	0adH
	DB	075H
	DB	0adH
	DB	076H
	DB	0b5H
	DB	075H
	DB	0adH
	DB	075H
	DB	0adH
	DB	076H
	DB	0b5H
	DB	075H
	DB	0adH
	DB	075H
	DB	0adH
	DB	076H
	DB	0b5H
	DB	075H
	DB	0adH
	DB	075H
	DB	0adH
	DB	076H
	DB	0b5H
	DB	075H
	DB	0adH
	DB	075H
	DB	0adH
	DB	076H
	DB	0b5H
	DB	075H
	DB	0adH
	DB	075H
	DB	0adH
	DB	076H
	DB	0b5H
	DB	075H
	DB	0adH
	DB	075H
	DB	0adH
	DB	076H
	DB	0b5H
	DB	075H
	DB	0adH
	DB	075H
	DB	0adH
	DB	076H
	DB	0b5H
	DB	075H
	DB	0adH
	DB	075H
	DB	0adH
	DB	076H
	DB	0b5H
	DB	075H
	DB	0adH
	DB	075H
	DB	0adH
	DB	076H
	DB	0b5H
	DB	075H
	DB	0adH
	DB	075H
	DB	0adH
	DB	076H
	DB	0b5H
	DB	075H
	DB	0adH
	DB	075H
	DB	0adH
	DB	076H
	DB	0b5H
	DB	075H
	DB	0adH
	DB	075H
	DB	0adH
	DB	076H
	DB	0b5H
	DB	075H
	DB	0adH
	DB	075H
	DB	0adH
	DB	076H
	DB	0b5H
	DB	075H
	DB	0adH
	DB	075H
	DB	0adH
	DB	076H
	DB	0b5H
	DB	075H
	DB	0adH
	DB	075H
	DB	0adH
	DB	076H
	DB	0b5H
	DB	075H
	DB	0adH
	DB	075H
	DB	0adH
	DB	076H
	DB	0b5H
	DB	075H
	DB	0adH
	DB	075H
	DB	0adH
	DB	076H
	DB	0b5H
	DB	075H
	DB	0adH
	DB	075H
	DB	0adH
	DB	076H
	DB	0b5H
	DB	075H
	DB	0adH
	DB	075H
	DB	0adH
	DB	076H
	DB	0b5H
	DB	075H
	DB	0adH
	DB	075H
	DB	0adH
	DB	076H
	DB	0b5H
	DB	075H
	DB	0adH
	DB	075H
	DB	0adH
	DB	076H
	DB	0b5H
	DB	075H
	DB	0adH
	DB	075H
	DB	0adH
	DB	076H
	DB	0b5H
	DB	075H
	DB	0adH
	DB	075H
	DB	0adH
	DB	076H
	DB	0b5H
	DB	075H
	DB	0adH
	DB	075H
	DB	0adH
	DB	076H
	DB	0b5H
	DB	075H
	DB	0adH
	DB	075H
	DB	0adH
	DB	076H
	DB	0b5H
	DB	075H
	DB	0adH
	DB	075H
	DB	0adH
	DB	076H
	DB	0b5H
	DB	075H
	DB	0adH
	DB	075H
	DB	0adH
	DB	076H
	DB	0b5H
	DB	075H
	DB	0adH
	DB	076H
	DB	0b5H
	DB	076H
	DB	0b5H
	DB	076H
	DB	0b5H
	DB	075H
	DB	0adH
	DB	075H
	DB	0adH
	DB	076H
	DB	0b5H
	DB	075H
	DB	0adH
	DB	075H
	DB	0adH
	DB	076H
	DB	0b5H
	DB	075H
	DB	0adH
	DB	076H
	DB	0b5H
	DB	076H
	DB	0b5H
	DB	075H
	DB	0adH
	DB	076H
	DB	0b5H
	DB	076H
	DB	0b5H
	DB	075H
	DB	0adH
	DB	075H
	DB	0adH
	DB	076H
	DB	0b5H
	DB	075H
	DB	0adH
	DB	075H
	DB	0adH
	DB	076H
	DB	0b5H
	DB	075H
	DB	0adH
	DB	076H
	DB	0b5H
	DB	075H
	DB	0adH
	DB	075H
	DB	0adH
	DB	076H
	DB	0b5H
	DB	075H
	DB	0adH
	DB	075H
	DB	0adH
	DB	075H
	DB	0adH
	DB	076H
	DB	0b5H
	DB	075H
	DB	0adH
	DB	076H
	DB	0b5H
	DB	075H
	DB	0adH
	DB	075H
	DB	0adH
	DB	076H
	DB	0b5H
	DB	076H
	DB	0b5H
	DB	075H
	DB	0adH
	DB	076H
	DB	0b5H
	DB	076H
	DB	0b5H
	DB	075H
	DB	0adH
	DB	076H
	DB	0b5H
	DB	075H
	DB	0adH
	DB	075H
	DB	0adH
	DB	076H
	DB	0b5H
	DB	075H
	DB	0adH
	DB	076H
	DB	0b5H
	DB	075H
	DB	0adH
	DB	075H
	DB	0adH
	DB	076H
	DB	0b5H
	DB	075H
	DB	0adH
	DB	076H
	DB	0b5H
	DB	076H
	DB	0b5H
	DB	075H
	DB	0adH
	DB	076H
	DB	0b5H
	DB	076H
	DB	0b5H
	DB	075H
	DB	0adH
	DB	075H
	DB	0adH
	DB	076H
	DB	0b5H
	DB	076H
	DB	0b5H
	DB	075H
	DB	0adH
	DB	075H
	DB	0adH
	DB	076H
	DB	0b5H
	DB	075H
	DB	0adH
	DB	076H
	DB	0b5H
	DB	076H
	DB	0b5H
	DB	075H
	DB	0adH
	DB	076H
	DB	0b5H
	DB	076H
	DB	0b5H
	DB	075H
	DB	0adH
	DB	076H
	DB	0b5H
	DB	076H
	DB	0b5H
	DB	075H
	DB	0adH
	DB	076H
	DB	0b5H
	DB	076H
	DB	0b5H
	DB	075H
	DB	0adH
	DB	076H
	DB	0b5H
	DB	076H
	DB	0b5H
	DB	075H
	DB	0adH
	DB	076H
	DB	0b5H
	DB	076H
	DB	0b5H
	DB	075H
	DB	0adH
	DB	076H
	DB	0b5H
	DB	076H
	DB	0b5H
	DB	075H
	DB	0adH
	DB	076H
	DB	0b5H
	DB	076H
	DB	0b5H
	DB	075H
	DB	0adH
	DB	076H
	DB	0b5H
	DB	076H
	DB	0b5H
	DB	075H
	DB	0adH
	DB	076H
	DB	0b5H
	DB	076H
	DB	0b5H
	DB	075H
	DB	0adH
	DB	076H
	DB	0b5H
	DB	076H
	DB	0b5H
	DB	075H
	DB	0adH
	DB	076H
	DB	0b5H
	DB	076H
	DB	0b5H
	DB	075H
	DB	0adH
	DB	076H
	DB	0b5H
	DB	076H
	DB	0b5H
	DB	075H
	DB	0adH
	DB	076H
	DB	0b5H
	DB	076H
	DB	0b5H
	DB	075H
	DB	0adH
	DB	076H
	DB	0b5H
	DB	076H
	DB	0b5H
	DB	075H
	DB	0adH
	DB	076H
	DB	0b5H
	DB	076H
	DB	0b5H
	DB	075H
	DB	0adH
	DB	076H
	DB	0b5H
	DB	076H
	DB	0b5H
	DB	075H
	DB	0adH
	DB	076H
	DB	0b5H
	DB	076H
	DB	0b5H
	DB	075H
	DB	0adH
	DB	076H
	DB	0b5H
	DB	076H
	DB	0b5H
	DB	075H
	DB	0adH
	DB	076H
	DB	0b5H
	DB	076H
	DB	0b5H
	DB	075H
	DB	0adH
	DB	076H
	DB	0b5H
	DB	076H
	DB	0b5H
	DB	075H
	DB	0adH
	DB	076H
	DB	0b5H
	DB	076H
	DB	0b5H
	DB	075H
	DB	0adH
	DB	076H
	DB	0b5H
	DB	076H
	DB	0b5H
	DB	075H
	DB	0adH
	DB	076H
	DB	0b5H
	DB	076H
	DB	0b5H
	DB	075H
	DB	0adH
	DB	076H
	DB	0b5H
	DB	076H
	DB	0b5H
	DB	075H
	DB	0adH
	DB	076H
	DB	0b5H
	DB	076H
	DB	0b5H
	DB	075H
	DB	0adH
	DB	076H
	DB	0b5H
	DB	076H
	DB	0b5H
	DB	075H
	DB	0adH
	DB	076H
	DB	0b5H
	DB	076H
	DB	0b5H
	DB	075H
	DB	0adH
	DB	076H
	DB	0b5H
	DB	076H
	DB	0b5H
	DB	075H
	DB	0adH
	DB	076H
	DB	0b5H
	DB	076H
	DB	0b5H
	DB	075H
	DB	0adH
	DB	076H
	DB	0b5H
	DB	076H
	DB	0b5H
	DB	075H
	DB	0adH
	DB	076H
	DB	0b5H
	DB	076H
	DB	0b5H
	DB	075H
	DB	0adH
	DB	076H
	DB	0b5H
	DB	076H
	DB	0b5H
	DB	075H
	DB	0adH
	DB	076H
	DB	0b5H
	DB	076H
	DB	0b5H
	DB	075H
	DB	0adH
	DB	076H
	DB	0b5H
	DB	076H
	DB	0b5H
	DB	075H
	DB	0adH
	DB	076H
	DB	0b5H
	DB	076H
	DB	0b5H
	DB	075H
	DB	0adH
	DB	075H
	DB	0adH
	DB	075H
	DB	0adH
	DB	076H
	DB	0b5H
	DB	075H
	DB	0adH
	DB	076H
	DB	0b5H
	DB	076H
	DB	0b5H
	DB	075H
	DB	0adH
	DB	076H
	DB	0b5H
	DB	075H
	DB	0adH
	DB	076H
	DB	0b5H
	DB	075H
	DB	0adH
	DB	075H
	DB	0adH
	DB	076H
	DB	0b5H
	DB	075H
	DB	0adH
	DB	075H
	DB	0adH
	DB	076H
	DB	0b5H
	DB	076H
	DB	0b5H
	DB	075H
	DB	0adH
	DB	076H
	DB	0b5H
	DB	076H
	DB	0b5H
	DB	075H
	DB	0adH
	DB	075H
	DB	0adH
	DB	076H
	DB	0b5H
	DB	076H
	DB	0b5H
	DB	075H
	DB	0adH
	DB	076H
	DB	0b5H
	DB	076H
	DB	0b5H
	DB	075H
	DB	0adH
	DB	076H
	DB	0b5H
	DB	075H
	DB	0adH
	DB	075H
	DB	0adH
	DB	076H
	DB	0b5H
	DB	076H
	DB	0b5H
	DB	075H
	DB	0adH
	DB	075H
	DB	0adH
	DB	076H
	DB	0b5H
	DB	075H
	DB	0adH
	DB	076H
	DB	0b5H
	DB	075H
	DB	0adH
	DB	075H
	DB	0adH
	DB	076H
	DB	0b5H
	DB	076H
	DB	0b5H
	DB	075H
	DB	0adH
	DB	076H
	DB	0b5H
	DB	075H
	DB	0adH
	DB	075H
	DB	0adH
	DB	076H
	DB	0b5H
	DB	076H
	DB	0b5H
	DB	076H
	DB	0b5H
	DB	075H
	DB	0adH
	DB	075H
	DB	0adH
	DB	076H
	DB	0b5H
	DB	075H
	DB	0adH
	DB	075H
	DB	0adH
	DB	076H
	DB	0b5H
	DB	076H
	DB	0b5H
	DB	075H
	DB	0adH
	DB	076H
	DB	0b5H
	DB	075H
	DB	0adH
	DB	076H
	DB	0b5H
	DB	076H
	DB	0b5H
	DB	075H
	DB	0adH
	DB	076H
	DB	0b5H
	DB	075H
	DB	0adH
	DB	076H
	DB	0b5H
	DB	075H
	DB	0adH
	DB	075H
	DB	0adH
	DB	076H
	DB	0b5H
	DB	075H
	DB	0adH
	DB	075H
	DB	0adH
	DB	076H
	DB	0b5H
	DB	075H
	DB	0adH
	DB	075H
	DB	0adH
	DB	076H
	DB	0b5H
	DB	075H
	DB	0adH
	DB	075H
	DB	0adH
	DB	076H
	DB	0b5H
	DB	075H
	DB	0adH
	DB	075H
	DB	0adH
	DB	076H
	DB	0b5H
	DB	075H
	DB	0adH
	DB	075H
	DB	0adH
	DB	076H
	DB	0b5H
	DB	075H
	DB	0adH
	DB	075H
	DB	0adH
	DB	076H
	DB	0b5H
	DB	075H
	DB	0adH
	DB	075H
	DB	0adH
	DB	076H
	DB	0b5H
	DB	075H
	DB	0adH
	DB	075H
	DB	0adH
	DB	076H
	DB	0b5H
	DB	075H
	DB	0adH
	DB	075H
	DB	0adH
	DB	076H
	DB	0b5H
	DB	075H
	DB	0adH
	DB	075H
	DB	0adH
	DB	076H
	DB	0b5H
	DB	075H
	DB	0adH
	DB	075H
	DB	0adH
	DB	076H
	DB	0b5H
	DB	075H
	DB	0adH
	DB	075H
	DB	0adH
	DB	076H
	DB	0b5H
	DB	075H
	DB	0adH
	DB	075H
	DB	0adH
	DB	076H
	DB	0b5H
	DB	075H
	DB	0adH
	DB	075H
	DB	0adH
	DB	076H
	DB	0b5H
	DB	075H
	DB	0adH
	DB	075H
	DB	0adH
	DB	076H
	DB	0b5H
	DB	075H
	DB	0adH
	DB	075H
	DB	0adH
	DB	076H
	DB	0b5H
	DB	075H
	DB	0adH
	DB	075H
	DB	0adH
	DB	076H
	DB	0b5H
	DB	075H
	DB	0adH
	DB	075H
	DB	0adH
	DB	076H
	DB	0b5H
	DB	075H
	DB	0adH
	DB	075H
	DB	0adH
	DB	076H
	DB	0b5H
	DB	075H
	DB	0adH
	DB	075H
	DB	0adH
	DB	076H
	DB	0b5H
	DB	075H
	DB	0adH
	DB	075H
	DB	0adH
	DB	076H
	DB	0b5H
	DB	075H
	DB	0adH
	DB	075H
	DB	0adH
	DB	076H
	DB	0b5H
	DB	075H
	DB	0adH
	DB	075H
	DB	0adH
	DB	076H
	DB	0b5H
	DB	075H
	DB	0adH
	DB	075H
	DB	0adH
	DB	076H
	DB	0b5H
	DB	075H
	DB	0adH
	DB	075H
	DB	0adH
	DB	076H
	DB	0b5H
	DB	075H
	DB	0adH
	DB	075H
	DB	0adH
	DB	076H
	DB	0b5H
	DB	075H
	DB	0adH
	DB	075H
	DB	0adH
	DB	076H
	DB	0b5H
	DB	075H
	DB	0adH
	DB	075H
	DB	0adH
	DB	076H
	DB	0b5H
	DB	075H
	DB	0adH
	DB	075H
	DB	0adH
	DB	076H
	DB	0b5H
	DB	075H
	DB	0adH
	DB	075H
	DB	0adH
	DB	076H
	DB	0b5H
	DB	075H
	DB	0adH
	DB	075H
	DB	0adH
	DB	076H
	DB	0b5H
	DB	075H
	DB	0adH
	DB	075H
	DB	0adH
	DB	076H
	DB	0b5H
	DB	075H
	DB	0adH
	DB	075H
	DB	0adH
	DB	076H
	DB	0b5H
	DB	075H
	DB	0adH
	DB	075H
	DB	0adH
	DB	076H
	DB	0b5H
	DB	076H
	DB	0b5H
	DB	075H
	DB	0adH
	DB	076H
	DB	0b5H
	DB	076H
	DB	0b5H
	DB	075H
	DB	0adH
	DB	075H
	DB	0adH
	DB	076H
	DB	0b5H
	DB	075H
	DB	0adH
	DB	076H
	DB	0b5H
	DB	075H
	DB	0adH
	DB	076H
	DB	0b5H
	DB	076H
	DB	0b5H
	DB	075H
	DB	0adH
	DB	076H
	DB	0b5H
	DB	076H
	DB	0b5H
	DB	075H
	DB	0adH
	DB	075H
	DB	0adH
	DB	076H
	DB	0b5H
	DB	075H
	DB	0adH
	DB	076H
	DB	0b5H
	DB	075H
	DB	0adH
	DB	076H
	DB	0b5H
	DB	076H
	DB	0b5H
	DB	075H
	DB	0adH
	DB	076H
	DB	0b5H
	DB	075H
	DB	0adH
	DB	075H
	DB	0adH
	DB	076H
	DB	0b5H
	DB	075H
	DB	0adH
	DB	076H
	DB	0b5H
	DB	076H
	DB	0b5H
	DB	076H
	DB	0b5H
	DB	075H
	DB	0adH
	DB	076H
	DB	0b5H
	DB	075H
	DB	0adH
	DB	076H
	DB	0b5H
	DB	076H
	DB	0b5H
	DB	075H
	DB	0adH
	DB	076H
	DB	0b5H
	DB	075H
	DB	0adH
	DB	076H
	DB	0b5H
	DB	075H
	DB	0adH
	DB	075H
	DB	0adH
	DB	076H
	DB	0b5H
	DB	075H
	DB	0adH
	DB	076H
	DB	0b5H
	DB	076H
	DB	0b5H
	DB	075H
	DB	0adH
	DB	075H
	DB	0adH
	DB	076H
	DB	0b5H
	DB	075H
	DB	0adH
	DB	076H
	DB	0b5H
	DB	076H
	DB	0b5H
	DB	075H
	DB	0adH
	DB	076H
	DB	0b5H
	DB	075H
	DB	0adH
	DB	075H
	DB	0adH
	DB	076H
	DB	0b5H
	DB	075H
	DB	0adH
	DB	076H
	DB	0b5H
	DB	075H
	DB	0adH
	DB	075H
	DB	0adH
	DB	076H
	DB	0b5H
	DB	076H
	DB	0b5H
	DB	075H
	DB	0adH
	DB	076H
	DB	0b5H
	DB	075H
	DB	0adH
	DB	076H
	DB	0b5H
	DB	076H
	DB	0b5H
	DB	075H
	DB	0adH
	DB	076H
	DB	0b5H
	DB	076H
	DB	0b5H
	DB	075H
	DB	0adH
	DB	076H
	DB	0b5H
	DB	076H
	DB	0b5H
	DB	075H
	DB	0adH
	DB	076H
	DB	0b5H
	DB	076H
	DB	0b5H
	DB	075H
	DB	0adH
	DB	076H
	DB	0b5H
	DB	076H
	DB	0b5H
	DB	075H
	DB	0adH
	DB	076H
	DB	0b5H
	DB	076H
	DB	0b5H
	DB	075H
	DB	0adH
	DB	076H
	DB	0b5H
	DB	076H
	DB	0b5H
	DB	075H
	DB	0adH
	DB	076H
	DB	0b5H
	DB	076H
	DB	0b5H
	DB	075H
	DB	0adH
	DB	076H
	DB	0b5H
	DB	076H
	DB	0b5H
	DB	075H
	DB	0adH
	DB	076H
	DB	0b5H
	DB	076H
	DB	0b5H
	DB	075H
	DB	0adH
	DB	076H
	DB	0b5H
	DB	076H
	DB	0b5H
	DB	075H
	DB	0adH
	DB	076H
	DB	0b5H
	DB	076H
	DB	0b5H
	DB	075H
	DB	0adH
	DB	076H
	DB	0b5H
	DB	076H
	DB	0b5H
	DB	075H
	DB	0adH
	DB	076H
	DB	0b5H
	DB	076H
	DB	0b5H
	DB	075H
	DB	0adH
	DB	076H
	DB	0b5H
	DB	076H
	DB	0b5H
	DB	075H
	DB	0adH
	DB	076H
	DB	0b5H
	DB	076H
	DB	0b5H
	DB	075H
	DB	0adH
	DB	076H
	DB	0b5H
	DB	076H
	DB	0b5H
	DB	075H
	DB	0adH
	DB	076H
	DB	0b5H
	DB	076H
	DB	0b5H
	DB	075H
	DB	0adH
	DB	076H
	DB	0b5H
	DB	076H
	DB	0b5H
	DB	075H
	DB	0adH
	DB	076H
	DB	0b5H
	DB	076H
	DB	0b5H
	DB	075H
	DB	0adH
	DB	076H
	DB	0b5H
	DB	076H
	DB	0b5H
	DB	075H
	DB	0adH
	DB	076H
	DB	0b5H
	DB	076H
	DB	0b5H
	DB	075H
	DB	0adH
	DB	076H
	DB	0b5H
	DB	076H
	DB	0b5H
	DB	075H
	DB	0adH
	DB	076H
	DB	0b5H
	DB	076H
	DB	0b5H
	DB	075H
	DB	0adH
	DB	076H
	DB	0b5H
	DB	076H
	DB	0b5H
	DB	075H
	DB	0adH
	DB	076H
	DB	0b5H
	DB	076H
	DB	0b5H
	DB	075H
	DB	0adH
	DB	076H
	DB	0b5H
	DB	076H
	DB	0b5H
	DB	075H
	DB	0adH
	DB	076H
	DB	0b5H
	DB	076H
	DB	0b5H
	DB	075H
	DB	0adH
	DB	076H
	DB	0b5H
	DB	076H
	DB	0b5H
	DB	075H
	DB	0adH
	DB	076H
	DB	0b5H
	DB	076H
	DB	0b5H
	DB	075H
	DB	0adH
	DB	076H
	DB	0b5H
	DB	076H
	DB	0b5H
	DB	075H
	DB	0adH
	DB	076H
	DB	0b5H
	DB	076H
	DB	0b5H
	DB	075H
	DB	0adH
	DB	076H
	DB	0b5H
	DB	076H
	DB	0b5H
	DB	075H
	DB	0adH
	DB	076H
	DB	0b5H
	DB	076H
	DB	0b5H
	DB	075H
	DB	0adH
	DB	076H
	DB	0b5H
	DB	075H
	DB	0adH
	DB	075H
	DB	0adH
	DB	076H
	DB	0b5H
	DB	075H
	DB	0adH
	DB	076H
	DB	0b5H
	DB	076H
	DB	0b5H
	DB	075H
	DB	0adH
	DB	076H
	DB	0b5H
	DB	075H
	DB	0adH
	DB	076H
	DB	0b5H
	DB	075H
	DB	0adH
	DB	075H
	DB	0adH
	DB	076H
	DB	0b5H
	DB	075H
	DB	0adH
	DB	075H
	DB	0adH
	DB	076H
	DB	0b5H
	DB	076H
	DB	0b5H
	DB	075H
	DB	0adH
	DB	076H
	DB	0b5H
	DB	076H
	DB	0b5H
	DB	075H
	DB	0adH
	DB	075H
	DB	0adH
	DB	076H
	DB	0b5H
	DB	075H
	DB	0adH
	DB	075H
	DB	0adH
	DB	076H
	DB	0b5H
	DB	075H
	DB	0adH
	DB	076H
	DB	0b5H
	DB	076H
	DB	0b5H
	DB	075H
	DB	0adH
	DB	075H
	DB	0adH
	DB	076H
	DB	0b5H
CONST	ENDS
END
